; Listing generated by Microsoft (R) Optimizing Compiler Version 13.10.3077 

	TITLE	.\QuestDeleteItem.cpp
	.386P
include listing.inc
if @Version gt 510
.model FLAT
else
_TEXT	SEGMENT PARA USE32 PUBLIC 'CODE'
_TEXT	ENDS
_DATA	SEGMENT DWORD USE32 PUBLIC 'DATA'
_DATA	ENDS
CONST	SEGMENT DWORD USE32 PUBLIC 'CONST'
CONST	ENDS
_BSS	SEGMENT DWORD USE32 PUBLIC 'BSS'
_BSS	ENDS
$$SYMBOLS	SEGMENT BYTE USE32 'DEBSYM'
$$SYMBOLS	ENDS
$$TYPES	SEGMENT BYTE USE32 'DEBTYP'
$$TYPES	ENDS
_TLS	SEGMENT DWORD USE32 PUBLIC 'TLS'
_TLS	ENDS
text$yc	SEGMENT PARA USE32 PUBLIC 'CODE'
text$yc	ENDS
CRT$XCA	SEGMENT DWORD USE32 PUBLIC 'DATA'
CRT$XCA	ENDS
CRT$XCU	SEGMENT DWORD USE32 PUBLIC 'DATA'
CRT$XCU	ENDS
CRT$XCL	SEGMENT DWORD USE32 PUBLIC 'DATA'
CRT$XCL	ENDS
CRT$XCC	SEGMENT DWORD USE32 PUBLIC 'DATA'
CRT$XCC	ENDS
CRT$XCZ	SEGMENT DWORD USE32 PUBLIC 'DATA'
CRT$XCZ	ENDS
text$yd	SEGMENT PARA USE32 PUBLIC 'CODE'
text$yd	ENDS
ATL$__m	SEGMENT DWORD USE32 PUBLIC ''
ATL$__m	ENDS
ATL$__z	SEGMENT DWORD USE32 PUBLIC ''
ATL$__z	ENDS
ATL$__a	SEGMENT DWORD USE32 PUBLIC ''
ATL$__a	ENDS
xdata$x	SEGMENT DWORD USE32 PUBLIC 'CONST'
xdata$x	ENDS
;	COMDAT ??0CQuestDeleteItem@@QAE@XZ
_TEXT	SEGMENT PARA USE32 PUBLIC 'CODE'
_TEXT	ENDS
;	COMDAT ??_GCQuestDeleteItem@@UAEPAXI@Z
_TEXT	SEGMENT PARA USE32 PUBLIC 'CODE'
_TEXT	ENDS
;	COMDAT ??1CQuestDeleteItem@@UAE@XZ
_TEXT	SEGMENT PARA USE32 PUBLIC 'CODE'
_TEXT	ENDS
;	COMDAT ?ExecQuest@CQuestDeleteItem@@UAEXPAVCTPlayer@@KPAV?$map@EPAV?$map@KPAV?$vector@PAUtagQUESTTEMP@@V?$allocator@PAUtagQUESTTEMP@@@std@@@std@@U?$less@K@2@V?$allocator@U?$pair@$$CBKPAV?$vector@PAUtagQUESTTEMP@@V?$allocator@PAUtagQUESTTEMP@@@std@@@std@@@std@@@2@@std@@U?$less@E@2@V?$allocator@U?$pair@$$CBEPAV?$map@KPAV?$vector@PAUtagQUESTTEMP@@V?$allocator@PAUtagQUESTTEMP@@@std@@@std@@U?$less@K@2@V?$allocator@U?$pair@$$CBKPAV?$vector@PAUtagQUESTTEMP@@V?$allocator@PAUtagQUESTTEMP@@@std@@@std@@@std@@@2@@std@@@std@@@2@@std@@PAV?$map@KPAUtagQUESTTEMP@@U?$less@K@std@@V?$allocator@U?$pair@$$CBKPAUtagQUESTTEMP@@@std@@@3@@4@PAV?$map@GPAUtagTITEM@@U?$less@G@std@@V?$allocator@U?$pair@$$CBGPAUtagTITEM@@@std@@@3@@4@PAV?$map@GPAVCTSkillTemp@@U?$less@G@std@@V?$allocator@U?$pair@$$CBGPAVCTSkillTemp@@@std@@@3@@4@PAV?$map@GPAUtagTMONSTER@@U?$less@G@std@@V?$allocator@U?$pair@$$CBGPAUtagTMONSTER@@@std@@@3@@4@PAV?$map@EPAUtagTSTAT@@U?$less@E@std@@V?$allocator@U?$pair@$$CBEPAUtagTSTAT@@@std@@@3@@4@@Z
_TEXT	SEGMENT PARA USE32 PUBLIC 'CODE'
_TEXT	ENDS
;	COMDAT ??A?$vector@PAUtagQUESTTERM@@V?$allocator@PAUtagQUESTTERM@@@std@@@std@@QAEAAPAUtagQUESTTERM@@I@Z
_TEXT	SEGMENT PARA USE32 PUBLIC 'CODE'
_TEXT	ENDS
;	COMDAT ?end@?$_Tree@V?$_Tmap_traits@GPAUtagTITEM@@U?$less@G@std@@V?$allocator@U?$pair@$$CBGPAUtagTITEM@@@std@@@3@$0A@@std@@@std@@QAE?AViterator@12@XZ
_TEXT	SEGMENT PARA USE32 PUBLIC 'CODE'
_TEXT	ENDS
;	COMDAT ?find@?$_Tree@V?$_Tmap_traits@GPAUtagTITEM@@U?$less@G@std@@V?$allocator@U?$pair@$$CBGPAUtagTITEM@@@std@@@3@$0A@@std@@@std@@QAE?AViterator@12@ABG@Z
_TEXT	SEGMENT PARA USE32 PUBLIC 'CODE'
_TEXT	ENDS
;	COMDAT ??9const_iterator@?$_Tree@V?$_Tmap_traits@GPAUtagTITEM@@U?$less@G@std@@V?$allocator@U?$pair@$$CBGPAUtagTITEM@@@std@@@3@$0A@@std@@@std@@QBE_NABV012@@Z
_TEXT	SEGMENT PARA USE32 PUBLIC 'CODE'
_TEXT	ENDS
;	COMDAT ??R?$less@G@std@@QBE_NABG0@Z
_TEXT	SEGMENT PARA USE32 PUBLIC 'CODE'
_TEXT	ENDS
;	COMDAT ?begin@?$vector@PAUtagQUESTTERM@@V?$allocator@PAUtagQUESTTERM@@@std@@@std@@QAE?AViterator@12@XZ
_TEXT	SEGMENT PARA USE32 PUBLIC 'CODE'
_TEXT	ENDS
;	COMDAT ?_Key@?$_Tree@V?$_Tmap_traits@GPAUtagTITEM@@U?$less@G@std@@V?$allocator@U?$pair@$$CBGPAUtagTITEM@@@std@@@3@$0A@@std@@@std@@KAABGPAU_Node@?$_Tree_nod@V?$_Tmap_traits@GPAUtagTITEM@@U?$less@G@std@@V?$allocator@U?$pair@$$CBGPAUtagTITEM@@@std@@@3@$0A@@std@@@2@@Z
_TEXT	SEGMENT PARA USE32 PUBLIC 'CODE'
_TEXT	ENDS
;	COMDAT ?lower_bound@?$_Tree@V?$_Tmap_traits@GPAUtagTITEM@@U?$less@G@std@@V?$allocator@U?$pair@$$CBGPAUtagTITEM@@@std@@@3@$0A@@std@@@std@@QAE?AViterator@12@ABG@Z
_TEXT	SEGMENT PARA USE32 PUBLIC 'CODE'
_TEXT	ENDS
;	COMDAT ??Hiterator@?$vector@PAUtagQUESTTERM@@V?$allocator@PAUtagQUESTTERM@@@std@@@std@@QBE?AV012@H@Z
_TEXT	SEGMENT PARA USE32 PUBLIC 'CODE'
_TEXT	ENDS
;	COMDAT ??0iterator@?$_Tree@V?$_Tmap_traits@GPAUtagTITEM@@U?$less@G@std@@V?$allocator@U?$pair@$$CBGPAUtagTITEM@@@std@@@3@$0A@@std@@@std@@QAE@PAU_Node@?$_Tree_nod@V?$_Tmap_traits@GPAUtagTITEM@@U?$less@G@std@@V?$allocator@U?$pair@$$CBGPAUtagTITEM@@@std@@@3@$0A@@std@@@2@@Z
_TEXT	SEGMENT PARA USE32 PUBLIC 'CODE'
_TEXT	ENDS
;	COMDAT ??8const_iterator@?$_Tree@V?$_Tmap_traits@GPAUtagTITEM@@U?$less@G@std@@V?$allocator@U?$pair@$$CBGPAUtagTITEM@@@std@@@3@$0A@@std@@@std@@QBE_NABV012@@Z
_TEXT	SEGMENT PARA USE32 PUBLIC 'CODE'
_TEXT	ENDS
;	COMDAT ?_Mynode@const_iterator@?$_Tree@V?$_Tmap_traits@GPAUtagTITEM@@U?$less@G@std@@V?$allocator@U?$pair@$$CBGPAUtagTITEM@@@std@@@3@$0A@@std@@@std@@QBEPAU_Node@?$_Tree_nod@V?$_Tmap_traits@GPAUtagTITEM@@U?$less@G@std@@V?$allocator@U?$pair@$$CBGPAUtagTITEM@@@std@@@3@$0A@@std@@@3@XZ
_TEXT	SEGMENT PARA USE32 PUBLIC 'CODE'
_TEXT	ENDS
;	COMDAT ?_Myval@?$_Tree@V?$_Tmap_traits@GPAUtagTITEM@@U?$less@G@std@@V?$allocator@U?$pair@$$CBGPAUtagTITEM@@@std@@@3@$0A@@std@@@std@@KAAAU?$pair@$$CBGPAUtagTITEM@@@2@PAU_Node@?$_Tree_nod@V?$_Tmap_traits@GPAUtagTITEM@@U?$less@G@std@@V?$allocator@U?$pair@$$CBGPAUtagTITEM@@@std@@@3@$0A@@std@@@2@@Z
_TEXT	SEGMENT PARA USE32 PUBLIC 'CODE'
_TEXT	ENDS
;	COMDAT ?_Lbound@?$_Tree@V?$_Tmap_traits@GPAUtagTITEM@@U?$less@G@std@@V?$allocator@U?$pair@$$CBGPAUtagTITEM@@@std@@@3@$0A@@std@@@std@@IBEPAU_Node@?$_Tree_nod@V?$_Tmap_traits@GPAUtagTITEM@@U?$less@G@std@@V?$allocator@U?$pair@$$CBGPAUtagTITEM@@@std@@@3@$0A@@std@@@2@ABG@Z
_TEXT	SEGMENT PARA USE32 PUBLIC 'CODE'
_TEXT	ENDS
;	COMDAT ?_Kfn@?$_Tmap_traits@GPAUtagTITEM@@U?$less@G@std@@V?$allocator@U?$pair@$$CBGPAUtagTITEM@@@std@@@3@$0A@@std@@SAABGABU?$pair@$$CBGPAUtagTITEM@@@2@@Z
_TEXT	SEGMENT PARA USE32 PUBLIC 'CODE'
_TEXT	ENDS
;	COMDAT ??0const_iterator@?$_Tree@V?$_Tmap_traits@GPAUtagTITEM@@U?$less@G@std@@V?$allocator@U?$pair@$$CBGPAUtagTITEM@@@std@@@3@$0A@@std@@@std@@QAE@PAU_Node@?$_Tree_nod@V?$_Tmap_traits@GPAUtagTITEM@@U?$less@G@std@@V?$allocator@U?$pair@$$CBGPAUtagTITEM@@@std@@@3@$0A@@std@@@2@@Z
_TEXT	SEGMENT PARA USE32 PUBLIC 'CODE'
_TEXT	ENDS
;	COMDAT ?_Isnil@?$_Tree@V?$_Tmap_traits@GPAUtagTITEM@@U?$less@G@std@@V?$allocator@U?$pair@$$CBGPAUtagTITEM@@@std@@@3@$0A@@std@@@std@@KAAADPAU_Node@?$_Tree_nod@V?$_Tmap_traits@GPAUtagTITEM@@U?$less@G@std@@V?$allocator@U?$pair@$$CBGPAUtagTITEM@@@std@@@3@$0A@@std@@@2@@Z
_TEXT	SEGMENT PARA USE32 PUBLIC 'CODE'
_TEXT	ENDS
;	COMDAT ?_Left@?$_Tree@V?$_Tmap_traits@GPAUtagTITEM@@U?$less@G@std@@V?$allocator@U?$pair@$$CBGPAUtagTITEM@@@std@@@3@$0A@@std@@@std@@KAAAPAU_Node@?$_Tree_nod@V?$_Tmap_traits@GPAUtagTITEM@@U?$less@G@std@@V?$allocator@U?$pair@$$CBGPAUtagTITEM@@@std@@@3@$0A@@std@@@2@PAU342@@Z
_TEXT	SEGMENT PARA USE32 PUBLIC 'CODE'
_TEXT	ENDS
;	COMDAT ?_Right@?$_Tree@V?$_Tmap_traits@GPAUtagTITEM@@U?$less@G@std@@V?$allocator@U?$pair@$$CBGPAUtagTITEM@@@std@@@3@$0A@@std@@@std@@KAAAPAU_Node@?$_Tree_nod@V?$_Tmap_traits@GPAUtagTITEM@@U?$less@G@std@@V?$allocator@U?$pair@$$CBGPAUtagTITEM@@@std@@@3@$0A@@std@@@2@PAU342@@Z
_TEXT	SEGMENT PARA USE32 PUBLIC 'CODE'
_TEXT	ENDS
;	COMDAT ?_Root@?$_Tree@V?$_Tmap_traits@GPAUtagTITEM@@U?$less@G@std@@V?$allocator@U?$pair@$$CBGPAUtagTITEM@@@std@@@3@$0A@@std@@@std@@IBEAAPAU_Node@?$_Tree_nod@V?$_Tmap_traits@GPAUtagTITEM@@U?$less@G@std@@V?$allocator@U?$pair@$$CBGPAUtagTITEM@@@std@@@3@$0A@@std@@@2@XZ
_TEXT	SEGMENT PARA USE32 PUBLIC 'CODE'
_TEXT	ENDS
;	COMDAT ?_Parent@?$_Tree@V?$_Tmap_traits@GPAUtagTITEM@@U?$less@G@std@@V?$allocator@U?$pair@$$CBGPAUtagTITEM@@@std@@@3@$0A@@std@@@std@@KAAAPAU_Node@?$_Tree_nod@V?$_Tmap_traits@GPAUtagTITEM@@U?$less@G@std@@V?$allocator@U?$pair@$$CBGPAUtagTITEM@@@std@@@3@$0A@@std@@@2@PAU342@@Z
_TEXT	SEGMENT PARA USE32 PUBLIC 'CODE'
_TEXT	ENDS
;	COMDAT ?Unlock@?$CComCritSecLock@VCComCriticalSection@ATL@@@ATL@@QAEXXZ
_TEXT	SEGMENT PARA USE32 PUBLIC 'CODE'
_TEXT	ENDS
;	COMDAT ??$_Uninit_fill_n@GIG@std@@YAXPAGIABGAAV?$allocator@G@0@U_Scalar_ptr_iterator_tag@0@@Z
_TEXT	SEGMENT PARA USE32 PUBLIC 'CODE'
_TEXT	ENDS
;	COMDAT ??$_Ptr_cat@UtagTAICONDITION@@@std@@YA?AU_Scalar_ptr_iterator_tag@0@PAPAUtagTAICONDITION@@0@Z
_TEXT	SEGMENT PARA USE32 PUBLIC 'CODE'
_TEXT	ENDS
;	COMDAT ??$_Destroy_range@PAUtagTAICONDITION@@V?$allocator@PAUtagTAICONDITION@@@std@@@std@@YAXPAPAUtagTAICONDITION@@0AAV?$allocator@PAUtagTAICONDITION@@@0@U_Scalar_ptr_iterator_tag@0@@Z
_TEXT	SEGMENT PARA USE32 PUBLIC 'CODE'
_TEXT	ENDS
;	COMDAT ??$_Ptr_cat@UtagTMONITEM@@@std@@YA?AU_Scalar_ptr_iterator_tag@0@PAPAUtagTMONITEM@@0@Z
_TEXT	SEGMENT PARA USE32 PUBLIC 'CODE'
_TEXT	ENDS
;	COMDAT ??$_Destroy_range@PAUtagTMONITEM@@V?$allocator@PAUtagTMONITEM@@@std@@@std@@YAXPAPAUtagTMONITEM@@0AAV?$allocator@PAUtagTMONITEM@@@0@U_Scalar_ptr_iterator_tag@0@@Z
_TEXT	SEGMENT PARA USE32 PUBLIC 'CODE'
_TEXT	ENDS
;	COMDAT ??$_Ptr_cat@UtagTMAPMON@@@std@@YA?AU_Scalar_ptr_iterator_tag@0@PAPAUtagTMAPMON@@0@Z
_TEXT	SEGMENT PARA USE32 PUBLIC 'CODE'
_TEXT	ENDS
;	COMDAT ??$_Destroy_range@PAUtagTMAPMON@@V?$allocator@PAUtagTMAPMON@@@std@@@std@@YAXPAPAUtagTMAPMON@@0AAV?$allocator@PAUtagTMAPMON@@@0@U_Scalar_ptr_iterator_tag@0@@Z
_TEXT	SEGMENT PARA USE32 PUBLIC 'CODE'
_TEXT	ENDS
;	COMDAT ??$_Ptr_cat@UtagPATHPOINT@@@std@@YA?AU_Scalar_ptr_iterator_tag@0@PAPAUtagPATHPOINT@@0@Z
_TEXT	SEGMENT PARA USE32 PUBLIC 'CODE'
_TEXT	ENDS
;	COMDAT ??$_Destroy_range@PAUtagPATHPOINT@@V?$allocator@PAUtagPATHPOINT@@@std@@@std@@YAXPAPAUtagPATHPOINT@@0AAV?$allocator@PAUtagPATHPOINT@@@0@U_Scalar_ptr_iterator_tag@0@@Z
_TEXT	SEGMENT PARA USE32 PUBLIC 'CODE'
_TEXT	ENDS
;	COMDAT ??$_Ptr_cat@UtagQUESTCONDITION@@@std@@YA?AU_Scalar_ptr_iterator_tag@0@PAPAUtagQUESTCONDITION@@0@Z
_TEXT	SEGMENT PARA USE32 PUBLIC 'CODE'
_TEXT	ENDS
;	COMDAT ??$_Destroy_range@PAUtagQUESTCONDITION@@V?$allocator@PAUtagQUESTCONDITION@@@std@@@std@@YAXPAPAUtagQUESTCONDITION@@0AAV?$allocator@PAUtagQUESTCONDITION@@@0@U_Scalar_ptr_iterator_tag@0@@Z
_TEXT	SEGMENT PARA USE32 PUBLIC 'CODE'
_TEXT	ENDS
;	COMDAT ??$_Ptr_cat@UtagQUESTREWARD@@@std@@YA?AU_Scalar_ptr_iterator_tag@0@PAPAUtagQUESTREWARD@@0@Z
_TEXT	SEGMENT PARA USE32 PUBLIC 'CODE'
_TEXT	ENDS
;	COMDAT ??$_Destroy_range@PAUtagQUESTREWARD@@V?$allocator@PAUtagQUESTREWARD@@@std@@@std@@YAXPAPAUtagQUESTREWARD@@0AAV?$allocator@PAUtagQUESTREWARD@@@0@U_Scalar_ptr_iterator_tag@0@@Z
_TEXT	SEGMENT PARA USE32 PUBLIC 'CODE'
_TEXT	ENDS
;	COMDAT ??$_Ptr_cat@UtagQUESTTERM@@@std@@YA?AU_Scalar_ptr_iterator_tag@0@PAPAUtagQUESTTERM@@0@Z
_TEXT	SEGMENT PARA USE32 PUBLIC 'CODE'
_TEXT	ENDS
;	COMDAT ??$_Destroy_range@PAUtagQUESTTERM@@V?$allocator@PAUtagQUESTTERM@@@std@@@std@@YAXPAPAUtagQUESTTERM@@0AAV?$allocator@PAUtagQUESTTERM@@@0@U_Scalar_ptr_iterator_tag@0@@Z
_TEXT	SEGMENT PARA USE32 PUBLIC 'CODE'
_TEXT	ENDS
;	COMDAT ??$_Ptr_cat@PAUtagTCASHITMSALE@@PAU1@@std@@YA?AU_Nonscalar_ptr_iterator_tag@0@AAPAUtagTCASHITMSALE@@0@Z
_TEXT	SEGMENT PARA USE32 PUBLIC 'CODE'
_TEXT	ENDS
;	COMDAT ??$_Uninit_fill_n@PAUtagTCASHITMSALE@@IU1@V?$allocator@UtagTCASHITMSALE@@@std@@@std@@YAXPAUtagTCASHITMSALE@@IABU1@AAV?$allocator@UtagTCASHITMSALE@@@0@U_Nonscalar_ptr_iterator_tag@0@@Z
_TEXT	SEGMENT PARA USE32 PUBLIC 'CODE'
_TEXT	ENDS
;	COMDAT ??$_Ptr_cat@PAUtagMONREGEN@@PAU1@@std@@YA?AU_Nonscalar_ptr_iterator_tag@0@AAPAUtagMONREGEN@@0@Z
_TEXT	SEGMENT PARA USE32 PUBLIC 'CODE'
_TEXT	ENDS
;	COMDAT ??$_Uninit_fill_n@PAUtagMONREGEN@@IU1@V?$allocator@UtagMONREGEN@@@std@@@std@@YAXPAUtagMONREGEN@@IABU1@AAV?$allocator@UtagMONREGEN@@@0@U_Nonscalar_ptr_iterator_tag@0@@Z
_TEXT	SEGMENT PARA USE32 PUBLIC 'CODE'
_TEXT	ENDS
;	COMDAT ??$_Ptr_cat@PAUtagLOTTERY@@PAU1@@std@@YA?AU_Nonscalar_ptr_iterator_tag@0@AAPAUtagLOTTERY@@0@Z
_TEXT	SEGMENT PARA USE32 PUBLIC 'CODE'
_TEXT	ENDS
;	COMDAT ??$_Uninit_fill_n@PAUtagLOTTERY@@IU1@V?$allocator@UtagLOTTERY@@@std@@@std@@YAXPAUtagLOTTERY@@IABU1@AAV?$allocator@UtagLOTTERY@@@0@U_Nonscalar_ptr_iterator_tag@0@@Z
_TEXT	SEGMENT PARA USE32 PUBLIC 'CODE'
_TEXT	ENDS
;	COMDAT ??$_Destroy_range@GV?$allocator@G@std@@@std@@YAXPAG0AAV?$allocator@G@0@U_Scalar_ptr_iterator_tag@0@@Z
_TEXT	SEGMENT PARA USE32 PUBLIC 'CODE'
_TEXT	ENDS
;	COMDAT ??$_Uninitialized_copy@PAGPAGV?$allocator@G@std@@@std@@YAPAGPAG00AAV?$allocator@G@0@@Z
_TEXT	SEGMENT PARA USE32 PUBLIC 'CODE'
_TEXT	ENDS
;	COMDAT ??$_Copy_backward_opt@PAGPAG@std@@YAPAGPAG00U_Scalar_ptr_iterator_tag@0@@Z
_TEXT	SEGMENT PARA USE32 PUBLIC 'CODE'
_TEXT	ENDS
;	COMDAT ??$_Ptr_cat@VCTPlayer@@@std@@YA?AU_Scalar_ptr_iterator_tag@0@PAPAVCTPlayer@@0@Z
_TEXT	SEGMENT PARA USE32 PUBLIC 'CODE'
_TEXT	ENDS
;	COMDAT ??$_Destroy_range@PAVCTPlayer@@V?$allocator@PAVCTPlayer@@@std@@@std@@YAXPAPAVCTPlayer@@0AAV?$allocator@PAVCTPlayer@@@0@U_Scalar_ptr_iterator_tag@0@@Z
_TEXT	SEGMENT PARA USE32 PUBLIC 'CODE'
_TEXT	ENDS
;	COMDAT ??$_Destroy_range@UtagTCASHITMSALE@@V?$allocator@UtagTCASHITMSALE@@@std@@@std@@YAXPAUtagTCASHITMSALE@@0AAV?$allocator@UtagTCASHITMSALE@@@0@U_Nonscalar_ptr_iterator_tag@0@@Z
_TEXT	SEGMENT PARA USE32 PUBLIC 'CODE'
_TEXT	ENDS
;	COMDAT ??$_Uninitialized_copy@PAUtagTCASHITMSALE@@PAU1@V?$allocator@UtagTCASHITMSALE@@@std@@@std@@YAPAUtagTCASHITMSALE@@PAU1@00AAV?$allocator@UtagTCASHITMSALE@@@0@@Z
_TEXT	SEGMENT PARA USE32 PUBLIC 'CODE'
_TEXT	ENDS
;	COMDAT ??$_Copy_backward_opt@PAUtagTCASHITMSALE@@PAU1@@std@@YAPAUtagTCASHITMSALE@@PAU1@00U_Nonscalar_ptr_iterator_tag@0@@Z
_TEXT	SEGMENT PARA USE32 PUBLIC 'CODE'
_TEXT	ENDS
;	COMDAT ??$_Destroy_range@UtagMONREGEN@@V?$allocator@UtagMONREGEN@@@std@@@std@@YAXPAUtagMONREGEN@@0AAV?$allocator@UtagMONREGEN@@@0@U_Nonscalar_ptr_iterator_tag@0@@Z
_TEXT	SEGMENT PARA USE32 PUBLIC 'CODE'
_TEXT	ENDS
;	COMDAT ??$_Uninitialized_copy@PAUtagMONREGEN@@PAU1@V?$allocator@UtagMONREGEN@@@std@@@std@@YAPAUtagMONREGEN@@PAU1@00AAV?$allocator@UtagMONREGEN@@@0@@Z
_TEXT	SEGMENT PARA USE32 PUBLIC 'CODE'
_TEXT	ENDS
;	COMDAT ??$_Copy_backward_opt@PAUtagMONREGEN@@PAU1@@std@@YAPAUtagMONREGEN@@PAU1@00U_Nonscalar_ptr_iterator_tag@0@@Z
_TEXT	SEGMENT PARA USE32 PUBLIC 'CODE'
_TEXT	ENDS
;	COMDAT ??$_Destroy_range@UtagLOTTERY@@V?$allocator@UtagLOTTERY@@@std@@@std@@YAXPAUtagLOTTERY@@0AAV?$allocator@UtagLOTTERY@@@0@U_Nonscalar_ptr_iterator_tag@0@@Z
_TEXT	SEGMENT PARA USE32 PUBLIC 'CODE'
_TEXT	ENDS
;	COMDAT ??$_Uninitialized_copy@PAUtagLOTTERY@@PAU1@V?$allocator@UtagLOTTERY@@@std@@@std@@YAPAUtagLOTTERY@@PAU1@00AAV?$allocator@UtagLOTTERY@@@0@@Z
_TEXT	SEGMENT PARA USE32 PUBLIC 'CODE'
_TEXT	ENDS
;	COMDAT ??$_Copy_backward_opt@PAUtagLOTTERY@@PAU1@@std@@YAPAUtagLOTTERY@@PAU1@00U_Nonscalar_ptr_iterator_tag@0@@Z
_TEXT	SEGMENT PARA USE32 PUBLIC 'CODE'
_TEXT	ENDS
;	COMDAT ?construct@?$allocator@UtagTCASHITMSALE@@@std@@QAEXPAUtagTCASHITMSALE@@ABU3@@Z
_TEXT	SEGMENT PARA USE32 PUBLIC 'CODE'
_TEXT	ENDS
;	COMDAT ?destroy@?$allocator@UtagTCASHITMSALE@@@std@@QAEXPAUtagTCASHITMSALE@@@Z
_TEXT	SEGMENT PARA USE32 PUBLIC 'CODE'
_TEXT	ENDS
;	COMDAT ?construct@?$allocator@UtagMONREGEN@@@std@@QAEXPAUtagMONREGEN@@ABU3@@Z
_TEXT	SEGMENT PARA USE32 PUBLIC 'CODE'
_TEXT	ENDS
;	COMDAT ?destroy@?$allocator@UtagMONREGEN@@@std@@QAEXPAUtagMONREGEN@@@Z
_TEXT	SEGMENT PARA USE32 PUBLIC 'CODE'
_TEXT	ENDS
;	COMDAT ?construct@?$allocator@UtagLOTTERY@@@std@@QAEXPAUtagLOTTERY@@ABU3@@Z
_TEXT	SEGMENT PARA USE32 PUBLIC 'CODE'
_TEXT	ENDS
;	COMDAT ?destroy@?$allocator@UtagLOTTERY@@@std@@QAEXPAUtagLOTTERY@@@Z
_TEXT	SEGMENT PARA USE32 PUBLIC 'CODE'
_TEXT	ENDS
;	COMDAT ??$fill_n@PAGIG@std@@YAXPAGIABG@Z
_TEXT	SEGMENT PARA USE32 PUBLIC 'CODE'
_TEXT	ENDS
;	COMDAT ??$_Uninit_copy@GG@std@@YAPAGPAG00AAV?$allocator@G@0@U_Scalar_ptr_iterator_tag@0@@Z
_TEXT	SEGMENT PARA USE32 PUBLIC 'CODE'
_TEXT	ENDS
;	COMDAT ??$_Uninit_copy@PAUtagTCASHITMSALE@@PAU1@V?$allocator@UtagTCASHITMSALE@@@std@@@std@@YAPAUtagTCASHITMSALE@@PAU1@00AAV?$allocator@UtagTCASHITMSALE@@@0@U_Nonscalar_ptr_iterator_tag@0@@Z
_TEXT	SEGMENT PARA USE32 PUBLIC 'CODE'
_TEXT	ENDS
;	COMDAT ??$_Uninit_copy@PAUtagMONREGEN@@PAU1@V?$allocator@UtagMONREGEN@@@std@@@std@@YAPAUtagMONREGEN@@PAU1@00AAV?$allocator@UtagMONREGEN@@@0@U_Nonscalar_ptr_iterator_tag@0@@Z
_TEXT	SEGMENT PARA USE32 PUBLIC 'CODE'
_TEXT	ENDS
;	COMDAT ??$_Uninit_copy@PAUtagLOTTERY@@PAU1@V?$allocator@UtagLOTTERY@@@std@@@std@@YAPAUtagLOTTERY@@PAU1@00AAV?$allocator@UtagLOTTERY@@@0@U_Nonscalar_ptr_iterator_tag@0@@Z
_TEXT	SEGMENT PARA USE32 PUBLIC 'CODE'
_TEXT	ENDS
;	COMDAT ??$_Construct@UtagTCASHITMSALE@@U1@@std@@YAXPAUtagTCASHITMSALE@@ABU1@@Z
_TEXT	SEGMENT PARA USE32 PUBLIC 'CODE'
_TEXT	ENDS
;	COMDAT ??$_Destroy@UtagTCASHITMSALE@@@std@@YAXPAUtagTCASHITMSALE@@@Z
_TEXT	SEGMENT PARA USE32 PUBLIC 'CODE'
_TEXT	ENDS
;	COMDAT ??$_Construct@UtagMONREGEN@@U1@@std@@YAXPAUtagMONREGEN@@ABU1@@Z
_TEXT	SEGMENT PARA USE32 PUBLIC 'CODE'
_TEXT	ENDS
;	COMDAT ??$_Destroy@UtagMONREGEN@@@std@@YAXPAUtagMONREGEN@@@Z
_TEXT	SEGMENT PARA USE32 PUBLIC 'CODE'
_TEXT	ENDS
;	COMDAT ??$_Construct@UtagLOTTERY@@U1@@std@@YAXPAUtagLOTTERY@@ABU1@@Z
_TEXT	SEGMENT PARA USE32 PUBLIC 'CODE'
_TEXT	ENDS
;	COMDAT ??$_Destroy@UtagLOTTERY@@@std@@YAXPAUtagLOTTERY@@@Z
_TEXT	SEGMENT PARA USE32 PUBLIC 'CODE'
_TEXT	ENDS
;	COMDAT ??2@YAPAXIPAX@Z
_TEXT	SEGMENT PARA USE32 PUBLIC 'CODE'
_TEXT	ENDS
;	COMDAT ?_Ptr_cat@std@@YA?AU_Scalar_ptr_iterator_tag@1@PAG0@Z
_TEXT	SEGMENT PARA USE32 PUBLIC 'CODE'
_TEXT	ENDS
;	COMDAT ?_Psave@?$_Facetptr@V?$ctype@G@std@@@std@@2PBVfacet@locale@2@B
_DATA	SEGMENT DWORD USE32 PUBLIC 'DATA'
_DATA	ENDS
;	COMDAT ?_Psave@?$_Facetptr@V?$ctype@D@std@@@std@@2PBVfacet@locale@2@B
_DATA	SEGMENT DWORD USE32 PUBLIC 'DATA'
_DATA	ENDS
;	COMDAT ?Unlock@CComCriticalSection@ATL@@QAEJXZ
_TEXT	SEGMENT PARA USE32 PUBLIC 'CODE'
_TEXT	ENDS
;	COMDAT ??Yiterator@?$vector@PAUtagQUESTTERM@@V?$allocator@PAUtagQUESTTERM@@@std@@@std@@QAEAAV012@H@Z
_TEXT	SEGMENT PARA USE32 PUBLIC 'CODE'
_TEXT	ENDS
;	COMDAT ??0iterator@?$vector@PAUtagQUESTTERM@@V?$allocator@PAUtagQUESTTERM@@@std@@@std@@QAE@PAPAUtagQUESTTERM@@@Z
_TEXT	SEGMENT PARA USE32 PUBLIC 'CODE'
_TEXT	ENDS
;	COMDAT ??0const_iterator@?$vector@PAUtagQUESTTERM@@V?$allocator@PAUtagQUESTTERM@@@std@@@std@@QAE@PAPAUtagQUESTTERM@@@Z
_TEXT	SEGMENT PARA USE32 PUBLIC 'CODE'
_TEXT	ENDS
;	COMDAT ??Diterator@?$vector@PAUtagQUESTTERM@@V?$allocator@PAUtagQUESTTERM@@@std@@@std@@QBEAAPAUtagQUESTTERM@@XZ
_TEXT	SEGMENT PARA USE32 PUBLIC 'CODE'
_TEXT	ENDS
;	COMDAT ??Dconst_iterator@?$vector@PAUtagQUESTTERM@@V?$allocator@PAUtagQUESTTERM@@@std@@@std@@QBEABQAUtagQUESTTERM@@XZ
_TEXT	SEGMENT PARA USE32 PUBLIC 'CODE'
_TEXT	ENDS
;	COMDAT ?size@?$vector@PAUtagQUESTTERM@@V?$allocator@PAUtagQUESTTERM@@@std@@@std@@QBEIXZ
_TEXT	SEGMENT PARA USE32 PUBLIC 'CODE'
_TEXT	ENDS
;	COMDAT ??_7CQuestDeleteItem@@6B@
CONST	SEGMENT DWORD USE32 PUBLIC 'CONST'
CONST	ENDS
sxdata	SEGMENT DWORD USE32 'SXDATA'
sxdata	ENDS
FLAT	GROUP _DATA, CONST, _BSS
	ASSUME	CS: FLAT, DS: FLAT, SS: FLAT
endif

INCLUDELIB LIBCMT
INCLUDELIB OLDNAMES

PUBLIC	??0CQuestDeleteItem@@QAE@XZ			; CQuestDeleteItem::CQuestDeleteItem
PUBLIC	?ExecQuest@CQuestDeleteItem@@UAEXPAVCTPlayer@@KPAV?$map@EPAV?$map@KPAV?$vector@PAUtagQUESTTEMP@@V?$allocator@PAUtagQUESTTEMP@@@std@@@std@@U?$less@K@2@V?$allocator@U?$pair@$$CBKPAV?$vector@PAUtagQUESTTEMP@@V?$allocator@PAUtagQUESTTEMP@@@std@@@std@@@std@@@2@@std@@U?$less@E@2@V?$allocator@U?$pair@$$CBEPAV?$map@KPAV?$vector@PAUtagQUESTTEMP@@V?$allocator@PAUtagQUESTTEMP@@@std@@@std@@U?$less@K@2@V?$allocator@U?$pair@$$CBKPAV?$vector@PAUtagQUESTTEMP@@V?$allocator@PAUtagQUESTTEMP@@@std@@@std@@@std@@@2@@std@@@std@@@2@@std@@PAV?$map@KPAUtagQUESTTEMP@@U?$less@K@std@@V?$allocator@U?$pair@$$CBKPAUtagQUESTTEMP@@@std@@@3@@4@PAV?$map@GPAUtagTITEM@@U?$less@G@std@@V?$allocator@U?$pair@$$CBGPAUtagTITEM@@@std@@@3@@4@PAV?$map@GPAVCTSkillTemp@@U?$less@G@std@@V?$allocator@U?$pair@$$CBGPAVCTSkillTemp@@@std@@@3@@4@PAV?$map@GPAUtagTMONSTER@@U?$less@G@std@@V?$allocator@U?$pair@$$CBGPAUtagTMONSTER@@@std@@@3@@4@PAV?$map@EPAUtagTSTAT@@U?$less@E@std@@V?$allocator@U?$pair@$$CBEPAUtagTSTAT@@@std@@@3@@4@@Z ; CQuestDeleteItem::ExecQuest
PUBLIC	??_7CQuestDeleteItem@@6B@			; CQuestDeleteItem::`vftable'
PUBLIC	??_GCQuestDeleteItem@@UAEPAXI@Z			; CQuestDeleteItem::`scalar deleting destructor'
EXTRN	?CheckComplete@CQuest@@UAEPAUtagQUESTTERM@@PAVCTPlayer@@K@Z:NEAR ; CQuest::CheckComplete
EXTRN	?CheckComplete@CQuest@@UAEEPAVCTPlayer@@KPAUtagQUESTTERM@@@Z:NEAR ; CQuest::CheckComplete
EXTRN	??0CQuest@@QAE@XZ:NEAR				; CQuest::CQuest
EXTRN	??_ECQuestDeleteItem@@UAEPAXI@Z:NEAR		; CQuestDeleteItem::`vector deleting destructor'
;	COMDAT ??_7CQuestDeleteItem@@6B@
; File c:\users\pierr\desktop\4story - oldschool\sources\tserver\tmapsvr\questdeleteitem.cpp
CONST	SEGMENT
??_7CQuestDeleteItem@@6B@ DD FLAT:?CheckComplete@CQuest@@UAEEPAVCTPlayer@@KPAUtagQUESTTERM@@@Z ; CQuestDeleteItem::`vftable'
	DD	FLAT:?CheckComplete@CQuest@@UAEPAUtagQUESTTERM@@PAVCTPlayer@@K@Z
	DD	FLAT:?ExecQuest@CQuestDeleteItem@@UAEXPAVCTPlayer@@KPAV?$map@EPAV?$map@KPAV?$vector@PAUtagQUESTTEMP@@V?$allocator@PAUtagQUESTTEMP@@@std@@@std@@U?$less@K@2@V?$allocator@U?$pair@$$CBKPAV?$vector@PAUtagQUESTTEMP@@V?$allocator@PAUtagQUESTTEMP@@@std@@@std@@@std@@@2@@std@@U?$less@E@2@V?$allocator@U?$pair@$$CBEPAV?$map@KPAV?$vector@PAUtagQUESTTEMP@@V?$allocator@PAUtagQUESTTEMP@@@std@@@std@@U?$less@K@2@V?$allocator@U?$pair@$$CBKPAV?$vector@PAUtagQUESTTEMP@@V?$allocator@PAUtagQUESTTEMP@@@std@@@std@@@std@@@2@@std@@@std@@@2@@std@@PAV?$map@KPAUtagQUESTTEMP@@U?$less@K@std@@V?$allocator@U?$pair@$$CBKPAUtagQUESTTEMP@@@std@@@3@@4@PAV?$map@GPAUtagTITEM@@U?$less@G@std@@V?$allocator@U?$pair@$$CBGPAUtagTITEM@@@std@@@3@@4@PAV?$map@GPAVCTSkillTemp@@U?$less@G@std@@V?$allocator@U?$pair@$$CBGPAVCTSkillTemp@@@std@@@3@@4@PAV?$map@GPAUtagTMONSTER@@U?$less@G@std@@V?$allocator@U?$pair@$$CBGPAUtagTMONSTER@@@std@@@3@@4@PAV?$map@EPAUtagTSTAT@@U?$less@E@std@@V?$allocator@U?$pair@$$CBEPAUtagTSTAT@@@std@@@3@@4@@Z
	DD	FLAT:??_ECQuestDeleteItem@@UAEPAXI@Z
; Function compile flags: /Ogty
CONST	ENDS
;	COMDAT ??0CQuestDeleteItem@@QAE@XZ
_TEXT	SEGMENT
??0CQuestDeleteItem@@QAE@XZ PROC NEAR			; CQuestDeleteItem::CQuestDeleteItem, COMDAT
; _this$ = ecx

; 4    : {

  00000	56		 push	 esi
  00001	8b f1		 mov	 esi, ecx
  00003	e8 00 00 00 00	 call	 ??0CQuest@@QAE@XZ	; CQuest::CQuest
  00008	c7 06 00 00 00
	00		 mov	 DWORD PTR [esi], OFFSET FLAT:??_7CQuestDeleteItem@@6B@

; 5    : }

  0000e	8b c6		 mov	 eax, esi
  00010	5e		 pop	 esi
  00011	c3		 ret	 0
??0CQuestDeleteItem@@QAE@XZ ENDP			; CQuestDeleteItem::CQuestDeleteItem
_TEXT	ENDS
PUBLIC	??1CQuestDeleteItem@@UAE@XZ			; CQuestDeleteItem::~CQuestDeleteItem
EXTRN	??1CQuest@@UAE@XZ:NEAR				; CQuest::~CQuest
; Function compile flags: /Ogty
;	COMDAT ??1CQuestDeleteItem@@UAE@XZ
_TEXT	SEGMENT
??1CQuestDeleteItem@@UAE@XZ PROC NEAR			; CQuestDeleteItem::~CQuestDeleteItem, COMDAT
; _this$ = ecx

; 8    : {

  00000	c7 01 00 00 00
	00		 mov	 DWORD PTR [ecx], OFFSET FLAT:??_7CQuestDeleteItem@@6B@

; 9    : }

  00006	e9 00 00 00 00	 jmp	 ??1CQuest@@UAE@XZ	; CQuest::~CQuest
??1CQuestDeleteItem@@UAE@XZ ENDP			; CQuestDeleteItem::~CQuestDeleteItem
_TEXT	ENDS
PUBLIC	??R?$less@G@std@@QBE_NABG0@Z			; std::less<unsigned short>::operator()
; Function compile flags: /Ogty
; File c:\program files (x86)\microsoft visual studio .net 2003\vc7\include\functional
;	COMDAT ??R?$less@G@std@@QBE_NABG0@Z
_TEXT	SEGMENT
__Left$ = 8						; size = 4
__Right$ = 12						; size = 4
??R?$less@G@std@@QBE_NABG0@Z PROC NEAR			; std::less<unsigned short>::operator(), COMDAT
; _this$ = ecx

; 139  : 		return (_Left < _Right);

  00000	8b 44 24 04	 mov	 eax, DWORD PTR __Left$[esp-4]
  00004	66 8b 08	 mov	 cx, WORD PTR [eax]
  00007	8b 54 24 08	 mov	 edx, DWORD PTR __Right$[esp-4]
  0000b	66 3b 0a	 cmp	 cx, WORD PTR [edx]
  0000e	1b c0		 sbb	 eax, eax
  00010	f7 d8		 neg	 eax

; 140  : 		}

  00012	c2 08 00	 ret	 8
??R?$less@G@std@@QBE_NABG0@Z ENDP			; std::less<unsigned short>::operator()
_TEXT	ENDS
PUBLIC	??8const_iterator@?$_Tree@V?$_Tmap_traits@GPAUtagTITEM@@U?$less@G@std@@V?$allocator@U?$pair@$$CBGPAUtagTITEM@@@std@@@3@$0A@@std@@@std@@QBE_NABV012@@Z ; std::_Tree<std::_Tmap_traits<unsigned short,tagTITEM *,std::less<unsigned short>,std::allocator<std::pair<unsigned short const ,tagTITEM *> >,0> >::const_iterator::operator==
; Function compile flags: /Ogty
; File c:\program files (x86)\microsoft visual studio .net 2003\vc7\include\xtree
;	COMDAT ??8const_iterator@?$_Tree@V?$_Tmap_traits@GPAUtagTITEM@@U?$less@G@std@@V?$allocator@U?$pair@$$CBGPAUtagTITEM@@@std@@@3@$0A@@std@@@std@@QBE_NABV012@@Z
_TEXT	SEGMENT
__Right$ = 8						; size = 4
??8const_iterator@?$_Tree@V?$_Tmap_traits@GPAUtagTITEM@@U?$less@G@std@@V?$allocator@U?$pair@$$CBGPAUtagTITEM@@@std@@@3@$0A@@std@@@std@@QBE_NABV012@@Z PROC NEAR ; std::_Tree<std::_Tmap_traits<unsigned short,tagTITEM *,std::less<unsigned short>,std::allocator<std::pair<unsigned short const ,tagTITEM *> >,0> >::const_iterator::operator==, COMDAT
; _this$ = ecx

; 241  : 			return (_Ptr == _Right._Ptr);

  00000	8b 01		 mov	 eax, DWORD PTR [ecx]
  00002	8b 4c 24 04	 mov	 ecx, DWORD PTR __Right$[esp-4]
  00006	2b 01		 sub	 eax, DWORD PTR [ecx]
  00008	f7 d8		 neg	 eax
  0000a	1b c0		 sbb	 eax, eax
  0000c	40		 inc	 eax

; 242  : 			}

  0000d	c2 04 00	 ret	 4
??8const_iterator@?$_Tree@V?$_Tmap_traits@GPAUtagTITEM@@U?$less@G@std@@V?$allocator@U?$pair@$$CBGPAUtagTITEM@@@std@@@3@$0A@@std@@@std@@QBE_NABV012@@Z ENDP ; std::_Tree<std::_Tmap_traits<unsigned short,tagTITEM *,std::less<unsigned short>,std::allocator<std::pair<unsigned short const ,tagTITEM *> >,0> >::const_iterator::operator==
_TEXT	ENDS
PUBLIC	?_Mynode@const_iterator@?$_Tree@V?$_Tmap_traits@GPAUtagTITEM@@U?$less@G@std@@V?$allocator@U?$pair@$$CBGPAUtagTITEM@@@std@@@3@$0A@@std@@@std@@QBEPAU_Node@?$_Tree_nod@V?$_Tmap_traits@GPAUtagTITEM@@U?$less@G@std@@V?$allocator@U?$pair@$$CBGPAUtagTITEM@@@std@@@3@$0A@@std@@@3@XZ ; std::_Tree<std::_Tmap_traits<unsigned short,tagTITEM *,std::less<unsigned short>,std::allocator<std::pair<unsigned short const ,tagTITEM *> >,0> >::const_iterator::_Mynode
; Function compile flags: /Ogty
;	COMDAT ?_Mynode@const_iterator@?$_Tree@V?$_Tmap_traits@GPAUtagTITEM@@U?$less@G@std@@V?$allocator@U?$pair@$$CBGPAUtagTITEM@@@std@@@3@$0A@@std@@@std@@QBEPAU_Node@?$_Tree_nod@V?$_Tmap_traits@GPAUtagTITEM@@U?$less@G@std@@V?$allocator@U?$pair@$$CBGPAUtagTITEM@@@std@@@3@$0A@@std@@@3@XZ
_TEXT	SEGMENT
?_Mynode@const_iterator@?$_Tree@V?$_Tmap_traits@GPAUtagTITEM@@U?$less@G@std@@V?$allocator@U?$pair@$$CBGPAUtagTITEM@@@std@@@3@$0A@@std@@@std@@QBEPAU_Node@?$_Tree_nod@V?$_Tmap_traits@GPAUtagTITEM@@U?$less@G@std@@V?$allocator@U?$pair@$$CBGPAUtagTITEM@@@std@@@3@$0A@@std@@@3@XZ PROC NEAR ; std::_Tree<std::_Tmap_traits<unsigned short,tagTITEM *,std::less<unsigned short>,std::allocator<std::pair<unsigned short const ,tagTITEM *> >,0> >::const_iterator::_Mynode, COMDAT
; _this$ = ecx

; 284  : 			return (_Ptr);

  00000	8b 01		 mov	 eax, DWORD PTR [ecx]

; 285  : 			}

  00002	c3		 ret	 0
?_Mynode@const_iterator@?$_Tree@V?$_Tmap_traits@GPAUtagTITEM@@U?$less@G@std@@V?$allocator@U?$pair@$$CBGPAUtagTITEM@@@std@@@3@$0A@@std@@@std@@QBEPAU_Node@?$_Tree_nod@V?$_Tmap_traits@GPAUtagTITEM@@U?$less@G@std@@V?$allocator@U?$pair@$$CBGPAUtagTITEM@@@std@@@3@$0A@@std@@@3@XZ ENDP ; std::_Tree<std::_Tmap_traits<unsigned short,tagTITEM *,std::less<unsigned short>,std::allocator<std::pair<unsigned short const ,tagTITEM *> >,0> >::const_iterator::_Mynode
_TEXT	ENDS
PUBLIC	?_Myval@?$_Tree@V?$_Tmap_traits@GPAUtagTITEM@@U?$less@G@std@@V?$allocator@U?$pair@$$CBGPAUtagTITEM@@@std@@@3@$0A@@std@@@std@@KAAAU?$pair@$$CBGPAUtagTITEM@@@2@PAU_Node@?$_Tree_nod@V?$_Tmap_traits@GPAUtagTITEM@@U?$less@G@std@@V?$allocator@U?$pair@$$CBGPAUtagTITEM@@@std@@@3@$0A@@std@@@2@@Z ; std::_Tree<std::_Tmap_traits<unsigned short,tagTITEM *,std::less<unsigned short>,std::allocator<std::pair<unsigned short const ,tagTITEM *> >,0> >::_Myval
; Function compile flags: /Ogty
;	COMDAT ?_Myval@?$_Tree@V?$_Tmap_traits@GPAUtagTITEM@@U?$less@G@std@@V?$allocator@U?$pair@$$CBGPAUtagTITEM@@@std@@@3@$0A@@std@@@std@@KAAAU?$pair@$$CBGPAUtagTITEM@@@2@PAU_Node@?$_Tree_nod@V?$_Tmap_traits@GPAUtagTITEM@@U?$less@G@std@@V?$allocator@U?$pair@$$CBGPAUtagTITEM@@@std@@@3@$0A@@std@@@2@@Z
_TEXT	SEGMENT
__Pnode$ = 8						; size = 4
?_Myval@?$_Tree@V?$_Tmap_traits@GPAUtagTITEM@@U?$less@G@std@@V?$allocator@U?$pair@$$CBGPAUtagTITEM@@@std@@@3@$0A@@std@@@std@@KAAAU?$pair@$$CBGPAUtagTITEM@@@2@PAU_Node@?$_Tree_nod@V?$_Tmap_traits@GPAUtagTITEM@@U?$less@G@std@@V?$allocator@U?$pair@$$CBGPAUtagTITEM@@@std@@@3@$0A@@std@@@2@@Z PROC NEAR ; std::_Tree<std::_Tmap_traits<unsigned short,tagTITEM *,std::less<unsigned short>,std::allocator<std::pair<unsigned short const ,tagTITEM *> >,0> >::_Myval, COMDAT

; 162  : 		return ((_Vref)(*_Pnode)._Myval);

  00000	8b 44 24 04	 mov	 eax, DWORD PTR __Pnode$[esp-4]
  00004	83 c0 0c	 add	 eax, 12			; 0000000cH

; 163  : 		}

  00007	c3		 ret	 0
?_Myval@?$_Tree@V?$_Tmap_traits@GPAUtagTITEM@@U?$less@G@std@@V?$allocator@U?$pair@$$CBGPAUtagTITEM@@@std@@@3@$0A@@std@@@std@@KAAAU?$pair@$$CBGPAUtagTITEM@@@2@PAU_Node@?$_Tree_nod@V?$_Tmap_traits@GPAUtagTITEM@@U?$less@G@std@@V?$allocator@U?$pair@$$CBGPAUtagTITEM@@@std@@@3@$0A@@std@@@2@@Z ENDP ; std::_Tree<std::_Tmap_traits<unsigned short,tagTITEM *,std::less<unsigned short>,std::allocator<std::pair<unsigned short const ,tagTITEM *> >,0> >::_Myval
_TEXT	ENDS
PUBLIC	?_Kfn@?$_Tmap_traits@GPAUtagTITEM@@U?$less@G@std@@V?$allocator@U?$pair@$$CBGPAUtagTITEM@@@std@@@3@$0A@@std@@SAABGABU?$pair@$$CBGPAUtagTITEM@@@2@@Z ; std::_Tmap_traits<unsigned short,tagTITEM *,std::less<unsigned short>,std::allocator<std::pair<unsigned short const ,tagTITEM *> >,0>::_Kfn
; Function compile flags: /Ogty
; File c:\program files (x86)\microsoft visual studio .net 2003\vc7\include\map
;	COMDAT ?_Kfn@?$_Tmap_traits@GPAUtagTITEM@@U?$less@G@std@@V?$allocator@U?$pair@$$CBGPAUtagTITEM@@@std@@@3@$0A@@std@@SAABGABU?$pair@$$CBGPAUtagTITEM@@@2@@Z
_TEXT	SEGMENT
__Val$ = 8						; size = 4
?_Kfn@?$_Tmap_traits@GPAUtagTITEM@@U?$less@G@std@@V?$allocator@U?$pair@$$CBGPAUtagTITEM@@@std@@@3@$0A@@std@@SAABGABU?$pair@$$CBGPAUtagTITEM@@@2@@Z PROC NEAR ; std::_Tmap_traits<unsigned short,tagTITEM *,std::less<unsigned short>,std::allocator<std::pair<unsigned short const ,tagTITEM *> >,0>::_Kfn, COMDAT

; 64   : 		return (_Val.first);

  00000	8b 44 24 04	 mov	 eax, DWORD PTR __Val$[esp-4]

; 65   : 		}

  00004	c3		 ret	 0
?_Kfn@?$_Tmap_traits@GPAUtagTITEM@@U?$less@G@std@@V?$allocator@U?$pair@$$CBGPAUtagTITEM@@@std@@@3@$0A@@std@@SAABGABU?$pair@$$CBGPAUtagTITEM@@@2@@Z ENDP ; std::_Tmap_traits<unsigned short,tagTITEM *,std::less<unsigned short>,std::allocator<std::pair<unsigned short const ,tagTITEM *> >,0>::_Kfn
_TEXT	ENDS
PUBLIC	??0const_iterator@?$_Tree@V?$_Tmap_traits@GPAUtagTITEM@@U?$less@G@std@@V?$allocator@U?$pair@$$CBGPAUtagTITEM@@@std@@@3@$0A@@std@@@std@@QAE@PAU_Node@?$_Tree_nod@V?$_Tmap_traits@GPAUtagTITEM@@U?$less@G@std@@V?$allocator@U?$pair@$$CBGPAUtagTITEM@@@std@@@3@$0A@@std@@@2@@Z ; std::_Tree<std::_Tmap_traits<unsigned short,tagTITEM *,std::less<unsigned short>,std::allocator<std::pair<unsigned short const ,tagTITEM *> >,0> >::const_iterator::const_iterator
; Function compile flags: /Ogty
; File c:\program files (x86)\microsoft visual studio .net 2003\vc7\include\xtree
;	COMDAT ??0const_iterator@?$_Tree@V?$_Tmap_traits@GPAUtagTITEM@@U?$less@G@std@@V?$allocator@U?$pair@$$CBGPAUtagTITEM@@@std@@@3@$0A@@std@@@std@@QAE@PAU_Node@?$_Tree_nod@V?$_Tmap_traits@GPAUtagTITEM@@U?$less@G@std@@V?$allocator@U?$pair@$$CBGPAUtagTITEM@@@std@@@3@$0A@@std@@@2@@Z
_TEXT	SEGMENT
__Pnode$ = 8						; size = 4
??0const_iterator@?$_Tree@V?$_Tmap_traits@GPAUtagTITEM@@U?$less@G@std@@V?$allocator@U?$pair@$$CBGPAUtagTITEM@@@std@@@3@$0A@@std@@@std@@QAE@PAU_Node@?$_Tree_nod@V?$_Tmap_traits@GPAUtagTITEM@@U?$less@G@std@@V?$allocator@U?$pair@$$CBGPAUtagTITEM@@@std@@@3@$0A@@std@@@2@@Z PROC NEAR ; std::_Tree<std::_Tmap_traits<unsigned short,tagTITEM *,std::less<unsigned short>,std::allocator<std::pair<unsigned short const ,tagTITEM *> >,0> >::const_iterator::const_iterator, COMDAT
; _this$ = ecx

; 200  : 			{	// construct with node pointer _Pnode

  00000	8b c1		 mov	 eax, ecx
  00002	8b 4c 24 04	 mov	 ecx, DWORD PTR __Pnode$[esp-4]
  00006	89 08		 mov	 DWORD PTR [eax], ecx

; 201  : 			}

  00008	c2 04 00	 ret	 4
??0const_iterator@?$_Tree@V?$_Tmap_traits@GPAUtagTITEM@@U?$less@G@std@@V?$allocator@U?$pair@$$CBGPAUtagTITEM@@@std@@@3@$0A@@std@@@std@@QAE@PAU_Node@?$_Tree_nod@V?$_Tmap_traits@GPAUtagTITEM@@U?$less@G@std@@V?$allocator@U?$pair@$$CBGPAUtagTITEM@@@std@@@3@$0A@@std@@@2@@Z ENDP ; std::_Tree<std::_Tmap_traits<unsigned short,tagTITEM *,std::less<unsigned short>,std::allocator<std::pair<unsigned short const ,tagTITEM *> >,0> >::const_iterator::const_iterator
_TEXT	ENDS
PUBLIC	?_Isnil@?$_Tree@V?$_Tmap_traits@GPAUtagTITEM@@U?$less@G@std@@V?$allocator@U?$pair@$$CBGPAUtagTITEM@@@std@@@3@$0A@@std@@@std@@KAAADPAU_Node@?$_Tree_nod@V?$_Tmap_traits@GPAUtagTITEM@@U?$less@G@std@@V?$allocator@U?$pair@$$CBGPAUtagTITEM@@@std@@@3@$0A@@std@@@2@@Z ; std::_Tree<std::_Tmap_traits<unsigned short,tagTITEM *,std::less<unsigned short>,std::allocator<std::pair<unsigned short const ,tagTITEM *> >,0> >::_Isnil
; Function compile flags: /Ogty
;	COMDAT ?_Isnil@?$_Tree@V?$_Tmap_traits@GPAUtagTITEM@@U?$less@G@std@@V?$allocator@U?$pair@$$CBGPAUtagTITEM@@@std@@@3@$0A@@std@@@std@@KAAADPAU_Node@?$_Tree_nod@V?$_Tmap_traits@GPAUtagTITEM@@U?$less@G@std@@V?$allocator@U?$pair@$$CBGPAUtagTITEM@@@std@@@3@$0A@@std@@@2@@Z
_TEXT	SEGMENT
__Pnode$ = 8						; size = 4
?_Isnil@?$_Tree@V?$_Tmap_traits@GPAUtagTITEM@@U?$less@G@std@@V?$allocator@U?$pair@$$CBGPAUtagTITEM@@@std@@@3@$0A@@std@@@std@@KAAADPAU_Node@?$_Tree_nod@V?$_Tmap_traits@GPAUtagTITEM@@U?$less@G@std@@V?$allocator@U?$pair@$$CBGPAUtagTITEM@@@std@@@3@$0A@@std@@@2@@Z PROC NEAR ; std::_Tree<std::_Tmap_traits<unsigned short,tagTITEM *,std::less<unsigned short>,std::allocator<std::pair<unsigned short const ,tagTITEM *> >,0> >::_Isnil, COMDAT

; 137  : 		return ((_Charref)(*_Pnode)._Isnil);

  00000	8b 44 24 04	 mov	 eax, DWORD PTR __Pnode$[esp-4]
  00004	83 c0 15	 add	 eax, 21			; 00000015H

; 138  : 		}

  00007	c3		 ret	 0
?_Isnil@?$_Tree@V?$_Tmap_traits@GPAUtagTITEM@@U?$less@G@std@@V?$allocator@U?$pair@$$CBGPAUtagTITEM@@@std@@@3@$0A@@std@@@std@@KAAADPAU_Node@?$_Tree_nod@V?$_Tmap_traits@GPAUtagTITEM@@U?$less@G@std@@V?$allocator@U?$pair@$$CBGPAUtagTITEM@@@std@@@3@$0A@@std@@@2@@Z ENDP ; std::_Tree<std::_Tmap_traits<unsigned short,tagTITEM *,std::less<unsigned short>,std::allocator<std::pair<unsigned short const ,tagTITEM *> >,0> >::_Isnil
_TEXT	ENDS
PUBLIC	?_Left@?$_Tree@V?$_Tmap_traits@GPAUtagTITEM@@U?$less@G@std@@V?$allocator@U?$pair@$$CBGPAUtagTITEM@@@std@@@3@$0A@@std@@@std@@KAAAPAU_Node@?$_Tree_nod@V?$_Tmap_traits@GPAUtagTITEM@@U?$less@G@std@@V?$allocator@U?$pair@$$CBGPAUtagTITEM@@@std@@@3@$0A@@std@@@2@PAU342@@Z ; std::_Tree<std::_Tmap_traits<unsigned short,tagTITEM *,std::less<unsigned short>,std::allocator<std::pair<unsigned short const ,tagTITEM *> >,0> >::_Left
; Function compile flags: /Ogty
;	COMDAT ?_Left@?$_Tree@V?$_Tmap_traits@GPAUtagTITEM@@U?$less@G@std@@V?$allocator@U?$pair@$$CBGPAUtagTITEM@@@std@@@3@$0A@@std@@@std@@KAAAPAU_Node@?$_Tree_nod@V?$_Tmap_traits@GPAUtagTITEM@@U?$less@G@std@@V?$allocator@U?$pair@$$CBGPAUtagTITEM@@@std@@@3@$0A@@std@@@2@PAU342@@Z
_TEXT	SEGMENT
__Pnode$ = 8						; size = 4
?_Left@?$_Tree@V?$_Tmap_traits@GPAUtagTITEM@@U?$less@G@std@@V?$allocator@U?$pair@$$CBGPAUtagTITEM@@@std@@@3@$0A@@std@@@std@@KAAAPAU_Node@?$_Tree_nod@V?$_Tmap_traits@GPAUtagTITEM@@U?$less@G@std@@V?$allocator@U?$pair@$$CBGPAUtagTITEM@@@std@@@3@$0A@@std@@@2@PAU342@@Z PROC NEAR ; std::_Tree<std::_Tmap_traits<unsigned short,tagTITEM *,std::less<unsigned short>,std::allocator<std::pair<unsigned short const ,tagTITEM *> >,0> >::_Left, COMDAT

; 147  : 		return ((_Nodepref)(*_Pnode)._Left);

  00000	8b 44 24 04	 mov	 eax, DWORD PTR __Pnode$[esp-4]

; 148  : 		}

  00004	c3		 ret	 0
?_Left@?$_Tree@V?$_Tmap_traits@GPAUtagTITEM@@U?$less@G@std@@V?$allocator@U?$pair@$$CBGPAUtagTITEM@@@std@@@3@$0A@@std@@@std@@KAAAPAU_Node@?$_Tree_nod@V?$_Tmap_traits@GPAUtagTITEM@@U?$less@G@std@@V?$allocator@U?$pair@$$CBGPAUtagTITEM@@@std@@@3@$0A@@std@@@2@PAU342@@Z ENDP ; std::_Tree<std::_Tmap_traits<unsigned short,tagTITEM *,std::less<unsigned short>,std::allocator<std::pair<unsigned short const ,tagTITEM *> >,0> >::_Left
_TEXT	ENDS
PUBLIC	?_Right@?$_Tree@V?$_Tmap_traits@GPAUtagTITEM@@U?$less@G@std@@V?$allocator@U?$pair@$$CBGPAUtagTITEM@@@std@@@3@$0A@@std@@@std@@KAAAPAU_Node@?$_Tree_nod@V?$_Tmap_traits@GPAUtagTITEM@@U?$less@G@std@@V?$allocator@U?$pair@$$CBGPAUtagTITEM@@@std@@@3@$0A@@std@@@2@PAU342@@Z ; std::_Tree<std::_Tmap_traits<unsigned short,tagTITEM *,std::less<unsigned short>,std::allocator<std::pair<unsigned short const ,tagTITEM *> >,0> >::_Right
; Function compile flags: /Ogty
;	COMDAT ?_Right@?$_Tree@V?$_Tmap_traits@GPAUtagTITEM@@U?$less@G@std@@V?$allocator@U?$pair@$$CBGPAUtagTITEM@@@std@@@3@$0A@@std@@@std@@KAAAPAU_Node@?$_Tree_nod@V?$_Tmap_traits@GPAUtagTITEM@@U?$less@G@std@@V?$allocator@U?$pair@$$CBGPAUtagTITEM@@@std@@@3@$0A@@std@@@2@PAU342@@Z
_TEXT	SEGMENT
__Pnode$ = 8						; size = 4
?_Right@?$_Tree@V?$_Tmap_traits@GPAUtagTITEM@@U?$less@G@std@@V?$allocator@U?$pair@$$CBGPAUtagTITEM@@@std@@@3@$0A@@std@@@std@@KAAAPAU_Node@?$_Tree_nod@V?$_Tmap_traits@GPAUtagTITEM@@U?$less@G@std@@V?$allocator@U?$pair@$$CBGPAUtagTITEM@@@std@@@3@$0A@@std@@@2@PAU342@@Z PROC NEAR ; std::_Tree<std::_Tmap_traits<unsigned short,tagTITEM *,std::less<unsigned short>,std::allocator<std::pair<unsigned short const ,tagTITEM *> >,0> >::_Right, COMDAT

; 157  : 		return ((_Nodepref)(*_Pnode)._Right);

  00000	8b 44 24 04	 mov	 eax, DWORD PTR __Pnode$[esp-4]
  00004	83 c0 08	 add	 eax, 8

; 158  : 		}

  00007	c3		 ret	 0
?_Right@?$_Tree@V?$_Tmap_traits@GPAUtagTITEM@@U?$less@G@std@@V?$allocator@U?$pair@$$CBGPAUtagTITEM@@@std@@@3@$0A@@std@@@std@@KAAAPAU_Node@?$_Tree_nod@V?$_Tmap_traits@GPAUtagTITEM@@U?$less@G@std@@V?$allocator@U?$pair@$$CBGPAUtagTITEM@@@std@@@3@$0A@@std@@@2@PAU342@@Z ENDP ; std::_Tree<std::_Tmap_traits<unsigned short,tagTITEM *,std::less<unsigned short>,std::allocator<std::pair<unsigned short const ,tagTITEM *> >,0> >::_Right
_TEXT	ENDS
PUBLIC	?_Parent@?$_Tree@V?$_Tmap_traits@GPAUtagTITEM@@U?$less@G@std@@V?$allocator@U?$pair@$$CBGPAUtagTITEM@@@std@@@3@$0A@@std@@@std@@KAAAPAU_Node@?$_Tree_nod@V?$_Tmap_traits@GPAUtagTITEM@@U?$less@G@std@@V?$allocator@U?$pair@$$CBGPAUtagTITEM@@@std@@@3@$0A@@std@@@2@PAU342@@Z ; std::_Tree<std::_Tmap_traits<unsigned short,tagTITEM *,std::less<unsigned short>,std::allocator<std::pair<unsigned short const ,tagTITEM *> >,0> >::_Parent
; Function compile flags: /Ogty
;	COMDAT ?_Parent@?$_Tree@V?$_Tmap_traits@GPAUtagTITEM@@U?$less@G@std@@V?$allocator@U?$pair@$$CBGPAUtagTITEM@@@std@@@3@$0A@@std@@@std@@KAAAPAU_Node@?$_Tree_nod@V?$_Tmap_traits@GPAUtagTITEM@@U?$less@G@std@@V?$allocator@U?$pair@$$CBGPAUtagTITEM@@@std@@@3@$0A@@std@@@2@PAU342@@Z
_TEXT	SEGMENT
__Pnode$ = 8						; size = 4
?_Parent@?$_Tree@V?$_Tmap_traits@GPAUtagTITEM@@U?$less@G@std@@V?$allocator@U?$pair@$$CBGPAUtagTITEM@@@std@@@3@$0A@@std@@@std@@KAAAPAU_Node@?$_Tree_nod@V?$_Tmap_traits@GPAUtagTITEM@@U?$less@G@std@@V?$allocator@U?$pair@$$CBGPAUtagTITEM@@@std@@@3@$0A@@std@@@2@PAU342@@Z PROC NEAR ; std::_Tree<std::_Tmap_traits<unsigned short,tagTITEM *,std::less<unsigned short>,std::allocator<std::pair<unsigned short const ,tagTITEM *> >,0> >::_Parent, COMDAT

; 152  : 		return ((_Nodepref)(*_Pnode)._Parent);

  00000	8b 44 24 04	 mov	 eax, DWORD PTR __Pnode$[esp-4]
  00004	83 c0 04	 add	 eax, 4

; 153  : 		}

  00007	c3		 ret	 0
?_Parent@?$_Tree@V?$_Tmap_traits@GPAUtagTITEM@@U?$less@G@std@@V?$allocator@U?$pair@$$CBGPAUtagTITEM@@@std@@@3@$0A@@std@@@std@@KAAAPAU_Node@?$_Tree_nod@V?$_Tmap_traits@GPAUtagTITEM@@U?$less@G@std@@V?$allocator@U?$pair@$$CBGPAUtagTITEM@@@std@@@3@$0A@@std@@@2@PAU342@@Z ENDP ; std::_Tree<std::_Tmap_traits<unsigned short,tagTITEM *,std::less<unsigned short>,std::allocator<std::pair<unsigned short const ,tagTITEM *> >,0> >::_Parent
_TEXT	ENDS
PUBLIC	?size@?$vector@PAUtagQUESTTERM@@V?$allocator@PAUtagQUESTTERM@@@std@@@std@@QBEIXZ ; std::vector<tagQUESTTERM *,std::allocator<tagQUESTTERM *> >::size
; Function compile flags: /Ogty
; File c:\program files (x86)\microsoft visual studio .net 2003\vc7\include\vector
;	COMDAT ?size@?$vector@PAUtagQUESTTERM@@V?$allocator@PAUtagQUESTTERM@@@std@@@std@@QBEIXZ
_TEXT	SEGMENT
?size@?$vector@PAUtagQUESTTERM@@V?$allocator@PAUtagQUESTTERM@@@std@@@std@@QBEIXZ PROC NEAR ; std::vector<tagQUESTTERM *,std::allocator<tagQUESTTERM *> >::size, COMDAT
; _this$ = ecx

; 516  : 		return (_Myfirst == 0 ? 0 : _Mylast - _Myfirst);

  00000	8b 51 04	 mov	 edx, DWORD PTR [ecx+4]
  00003	85 d2		 test	 edx, edx
  00005	75 03		 jne	 SHORT $L152929
  00007	33 c0		 xor	 eax, eax

; 517  : 		}

  00009	c3		 ret	 0
$L152929:

; 516  : 		return (_Myfirst == 0 ? 0 : _Mylast - _Myfirst);

  0000a	8b 41 08	 mov	 eax, DWORD PTR [ecx+8]
  0000d	2b c2		 sub	 eax, edx
  0000f	c1 f8 02	 sar	 eax, 2

; 517  : 		}

  00012	c3		 ret	 0
?size@?$vector@PAUtagQUESTTERM@@V?$allocator@PAUtagQUESTTERM@@@std@@@std@@QBEIXZ ENDP ; std::vector<tagQUESTTERM *,std::allocator<tagQUESTTERM *> >::size
_TEXT	ENDS
PUBLIC	??Dconst_iterator@?$vector@PAUtagQUESTTERM@@V?$allocator@PAUtagQUESTTERM@@@std@@@std@@QBEABQAUtagQUESTTERM@@XZ ; std::vector<tagQUESTTERM *,std::allocator<tagQUESTTERM *> >::const_iterator::operator*
; Function compile flags: /Ogty
;	COMDAT ??Dconst_iterator@?$vector@PAUtagQUESTTERM@@V?$allocator@PAUtagQUESTTERM@@@std@@@std@@QBEABQAUtagQUESTTERM@@XZ
_TEXT	SEGMENT
??Dconst_iterator@?$vector@PAUtagQUESTTERM@@V?$allocator@PAUtagQUESTTERM@@@std@@@std@@QBEABQAUtagQUESTTERM@@XZ PROC NEAR ; std::vector<tagQUESTTERM *,std::allocator<tagQUESTTERM *> >::const_iterator::operator*, COMDAT
; _this$ = ecx

; 80   : 
; 81   : 
; 82   : 			return (*_Myptr);

  00000	8b 01		 mov	 eax, DWORD PTR [ecx]

; 83   : 			}

  00002	c3		 ret	 0
??Dconst_iterator@?$vector@PAUtagQUESTTERM@@V?$allocator@PAUtagQUESTTERM@@@std@@@std@@QBEABQAUtagQUESTTERM@@XZ ENDP ; std::vector<tagQUESTTERM *,std::allocator<tagQUESTTERM *> >::const_iterator::operator*
_TEXT	ENDS
PUBLIC	??Yiterator@?$vector@PAUtagQUESTTERM@@V?$allocator@PAUtagQUESTTERM@@@std@@@std@@QAEAAV012@H@Z ; std::vector<tagQUESTTERM *,std::allocator<tagQUESTTERM *> >::iterator::operator+=
; Function compile flags: /Ogty
;	COMDAT ??Yiterator@?$vector@PAUtagQUESTTERM@@V?$allocator@PAUtagQUESTTERM@@@std@@@std@@QAEAAV012@H@Z
_TEXT	SEGMENT
__Off$ = 8						; size = 4
??Yiterator@?$vector@PAUtagQUESTTERM@@V?$allocator@PAUtagQUESTTERM@@@std@@@std@@QAEAAV012@H@Z PROC NEAR ; std::vector<tagQUESTTERM *,std::allocator<tagQUESTTERM *> >::iterator::operator+=, COMDAT
; _this$ = ecx

; 255  : 			{	// increment by integer

  00000	8b c1		 mov	 eax, ecx

; 256  : 			this->_Myptr += _Off;

  00002	8b 4c 24 04	 mov	 ecx, DWORD PTR __Off$[esp-4]
  00006	8d 14 8d 00 00
	00 00		 lea	 edx, DWORD PTR [ecx*4]
  0000d	01 10		 add	 DWORD PTR [eax], edx

; 257  : 			return (*this);
; 258  : 			}

  0000f	c2 04 00	 ret	 4
??Yiterator@?$vector@PAUtagQUESTTERM@@V?$allocator@PAUtagQUESTTERM@@@std@@@std@@QAEAAV012@H@Z ENDP ; std::vector<tagQUESTTERM *,std::allocator<tagQUESTTERM *> >::iterator::operator+=
_TEXT	ENDS
PUBLIC	??0const_iterator@?$vector@PAUtagQUESTTERM@@V?$allocator@PAUtagQUESTTERM@@@std@@@std@@QAE@PAPAUtagQUESTTERM@@@Z ; std::vector<tagQUESTTERM *,std::allocator<tagQUESTTERM *> >::const_iterator::const_iterator
; Function compile flags: /Ogty
;	COMDAT ??0const_iterator@?$vector@PAUtagQUESTTERM@@V?$allocator@PAUtagQUESTTERM@@@std@@@std@@QAE@PAPAUtagQUESTTERM@@@Z
_TEXT	SEGMENT
__Ptr$ = 8						; size = 4
??0const_iterator@?$vector@PAUtagQUESTTERM@@V?$allocator@PAUtagQUESTTERM@@@std@@@std@@QAE@PAPAUtagQUESTTERM@@@Z PROC NEAR ; std::vector<tagQUESTTERM *,std::allocator<tagQUESTTERM *> >::const_iterator::const_iterator, COMDAT
; _this$ = ecx

; 73   : 		const_iterator(_Tptr _Ptr)

  00000	8b c1		 mov	 eax, ecx

; 74   : 			{	// construct with pointer _Ptr
; 75   : 			_Myptr = _Ptr;

  00002	8b 4c 24 04	 mov	 ecx, DWORD PTR __Ptr$[esp-4]
  00006	89 08		 mov	 DWORD PTR [eax], ecx

; 76   : 			}

  00008	c2 04 00	 ret	 4
??0const_iterator@?$vector@PAUtagQUESTTERM@@V?$allocator@PAUtagQUESTTERM@@@std@@@std@@QAE@PAPAUtagQUESTTERM@@@Z ENDP ; std::vector<tagQUESTTERM *,std::allocator<tagQUESTTERM *> >::const_iterator::const_iterator
_TEXT	ENDS
EXTRN	??3@YAXPAX@Z:NEAR				; operator delete
; Function compile flags: /Ogty
;	COMDAT ??_GCQuestDeleteItem@@UAEPAXI@Z
_TEXT	SEGMENT
___flags$ = 8						; size = 4
??_GCQuestDeleteItem@@UAEPAXI@Z PROC NEAR		; CQuestDeleteItem::`scalar deleting destructor', COMDAT
; _this$ = ecx
  00000	56		 push	 esi
  00001	8b f1		 mov	 esi, ecx
  00003	e8 00 00 00 00	 call	 ??1CQuestDeleteItem@@UAE@XZ ; CQuestDeleteItem::~CQuestDeleteItem
  00008	f6 44 24 08 01	 test	 BYTE PTR ___flags$[esp], 1
  0000d	74 09		 je	 SHORT $L152943
  0000f	56		 push	 esi
  00010	e8 00 00 00 00	 call	 ??3@YAXPAX@Z		; operator delete
  00015	83 c4 04	 add	 esp, 4
$L152943:
  00018	8b c6		 mov	 eax, esi
  0001a	5e		 pop	 esi
  0001b	c2 04 00	 ret	 4
??_GCQuestDeleteItem@@UAEPAXI@Z ENDP			; CQuestDeleteItem::`scalar deleting destructor'
_TEXT	ENDS
PUBLIC	??9const_iterator@?$_Tree@V?$_Tmap_traits@GPAUtagTITEM@@U?$less@G@std@@V?$allocator@U?$pair@$$CBGPAUtagTITEM@@@std@@@3@$0A@@std@@@std@@QBE_NABV012@@Z ; std::_Tree<std::_Tmap_traits<unsigned short,tagTITEM *,std::less<unsigned short>,std::allocator<std::pair<unsigned short const ,tagTITEM *> >,0> >::const_iterator::operator!=
; Function compile flags: /Ogty
; File c:\program files (x86)\microsoft visual studio .net 2003\vc7\include\xtree
;	COMDAT ??9const_iterator@?$_Tree@V?$_Tmap_traits@GPAUtagTITEM@@U?$less@G@std@@V?$allocator@U?$pair@$$CBGPAUtagTITEM@@@std@@@3@$0A@@std@@@std@@QBE_NABV012@@Z
_TEXT	SEGMENT
__Right$ = 8						; size = 4
??9const_iterator@?$_Tree@V?$_Tmap_traits@GPAUtagTITEM@@U?$less@G@std@@V?$allocator@U?$pair@$$CBGPAUtagTITEM@@@std@@@3@$0A@@std@@@std@@QBE_NABV012@@Z PROC NEAR ; std::_Tree<std::_Tmap_traits<unsigned short,tagTITEM *,std::less<unsigned short>,std::allocator<std::pair<unsigned short const ,tagTITEM *> >,0> >::const_iterator::operator!=, COMDAT
; _this$ = ecx

; 246  : 			return (!(*this == _Right));

  00000	8b 01		 mov	 eax, DWORD PTR [ecx]
  00002	8b 54 24 04	 mov	 edx, DWORD PTR __Right$[esp-4]
  00006	56		 push	 esi
  00007	8b 32		 mov	 esi, DWORD PTR [edx]
  00009	33 c9		 xor	 ecx, ecx
  0000b	3b c6		 cmp	 eax, esi
  0000d	0f 95 c1	 setne	 cl
  00010	8a c1		 mov	 al, cl
  00012	5e		 pop	 esi

; 247  : 			}

  00013	c2 04 00	 ret	 4
??9const_iterator@?$_Tree@V?$_Tmap_traits@GPAUtagTITEM@@U?$less@G@std@@V?$allocator@U?$pair@$$CBGPAUtagTITEM@@@std@@@3@$0A@@std@@@std@@QBE_NABV012@@Z ENDP ; std::_Tree<std::_Tmap_traits<unsigned short,tagTITEM *,std::less<unsigned short>,std::allocator<std::pair<unsigned short const ,tagTITEM *> >,0> >::const_iterator::operator!=
_TEXT	ENDS
PUBLIC	?_Key@?$_Tree@V?$_Tmap_traits@GPAUtagTITEM@@U?$less@G@std@@V?$allocator@U?$pair@$$CBGPAUtagTITEM@@@std@@@3@$0A@@std@@@std@@KAABGPAU_Node@?$_Tree_nod@V?$_Tmap_traits@GPAUtagTITEM@@U?$less@G@std@@V?$allocator@U?$pair@$$CBGPAUtagTITEM@@@std@@@3@$0A@@std@@@2@@Z ; std::_Tree<std::_Tmap_traits<unsigned short,tagTITEM *,std::less<unsigned short>,std::allocator<std::pair<unsigned short const ,tagTITEM *> >,0> >::_Key
; Function compile flags: /Ogty
;	COMDAT ?_Key@?$_Tree@V?$_Tmap_traits@GPAUtagTITEM@@U?$less@G@std@@V?$allocator@U?$pair@$$CBGPAUtagTITEM@@@std@@@3@$0A@@std@@@std@@KAABGPAU_Node@?$_Tree_nod@V?$_Tmap_traits@GPAUtagTITEM@@U?$less@G@std@@V?$allocator@U?$pair@$$CBGPAUtagTITEM@@@std@@@3@$0A@@std@@@2@@Z
_TEXT	SEGMENT
__Pnode$ = 8						; size = 4
?_Key@?$_Tree@V?$_Tmap_traits@GPAUtagTITEM@@U?$less@G@std@@V?$allocator@U?$pair@$$CBGPAUtagTITEM@@@std@@@3@$0A@@std@@@std@@KAABGPAU_Node@?$_Tree_nod@V?$_Tmap_traits@GPAUtagTITEM@@U?$less@G@std@@V?$allocator@U?$pair@$$CBGPAUtagTITEM@@@std@@@3@$0A@@std@@@2@@Z PROC NEAR ; std::_Tree<std::_Tmap_traits<unsigned short,tagTITEM *,std::less<unsigned short>,std::allocator<std::pair<unsigned short const ,tagTITEM *> >,0> >::_Key, COMDAT

; 142  : 		return (_Mybase::_Kfn(_Myval(_Pnode)));

  00000	8b 44 24 04	 mov	 eax, DWORD PTR __Pnode$[esp-4]
  00004	83 c0 0c	 add	 eax, 12			; 0000000cH

; 143  : 		}

  00007	c3		 ret	 0
?_Key@?$_Tree@V?$_Tmap_traits@GPAUtagTITEM@@U?$less@G@std@@V?$allocator@U?$pair@$$CBGPAUtagTITEM@@@std@@@3@$0A@@std@@@std@@KAABGPAU_Node@?$_Tree_nod@V?$_Tmap_traits@GPAUtagTITEM@@U?$less@G@std@@V?$allocator@U?$pair@$$CBGPAUtagTITEM@@@std@@@3@$0A@@std@@@2@@Z ENDP ; std::_Tree<std::_Tmap_traits<unsigned short,tagTITEM *,std::less<unsigned short>,std::allocator<std::pair<unsigned short const ,tagTITEM *> >,0> >::_Key
_TEXT	ENDS
PUBLIC	??Hiterator@?$vector@PAUtagQUESTTERM@@V?$allocator@PAUtagQUESTTERM@@@std@@@std@@QBE?AV012@H@Z ; std::vector<tagQUESTTERM *,std::allocator<tagQUESTTERM *> >::iterator::operator+
; Function compile flags: /Ogty
; File c:\program files (x86)\microsoft visual studio .net 2003\vc7\include\vector
;	COMDAT ??Hiterator@?$vector@PAUtagQUESTTERM@@V?$allocator@PAUtagQUESTTERM@@@std@@@std@@QBE?AV012@H@Z
_TEXT	SEGMENT
___$ReturnUdt$ = 8					; size = 4
__Off$ = 12						; size = 4
??Hiterator@?$vector@PAUtagQUESTTERM@@V?$allocator@PAUtagQUESTTERM@@@std@@@std@@QBE?AV012@H@Z PROC NEAR ; std::vector<tagQUESTTERM *,std::allocator<tagQUESTTERM *> >::iterator::operator+, COMDAT
; _this$ = ecx

; 262  : 			iterator _Tmp = *this;
; 263  : 			return (_Tmp += _Off);

  00000	8b 01		 mov	 eax, DWORD PTR [ecx]
  00002	8b 4c 24 08	 mov	 ecx, DWORD PTR __Off$[esp-4]
  00006	8d 14 88	 lea	 edx, DWORD PTR [eax+ecx*4]
  00009	8b 44 24 04	 mov	 eax, DWORD PTR ___$ReturnUdt$[esp-4]
  0000d	89 10		 mov	 DWORD PTR [eax], edx

; 264  : 			}

  0000f	c2 08 00	 ret	 8
??Hiterator@?$vector@PAUtagQUESTTERM@@V?$allocator@PAUtagQUESTTERM@@@std@@@std@@QBE?AV012@H@Z ENDP ; std::vector<tagQUESTTERM *,std::allocator<tagQUESTTERM *> >::iterator::operator+
_TEXT	ENDS
PUBLIC	??0iterator@?$_Tree@V?$_Tmap_traits@GPAUtagTITEM@@U?$less@G@std@@V?$allocator@U?$pair@$$CBGPAUtagTITEM@@@std@@@3@$0A@@std@@@std@@QAE@PAU_Node@?$_Tree_nod@V?$_Tmap_traits@GPAUtagTITEM@@U?$less@G@std@@V?$allocator@U?$pair@$$CBGPAUtagTITEM@@@std@@@3@$0A@@std@@@2@@Z ; std::_Tree<std::_Tmap_traits<unsigned short,tagTITEM *,std::less<unsigned short>,std::allocator<std::pair<unsigned short const ,tagTITEM *> >,0> >::iterator::iterator
; Function compile flags: /Ogty
; File c:\program files (x86)\microsoft visual studio .net 2003\vc7\include\xtree
;	COMDAT ??0iterator@?$_Tree@V?$_Tmap_traits@GPAUtagTITEM@@U?$less@G@std@@V?$allocator@U?$pair@$$CBGPAUtagTITEM@@@std@@@3@$0A@@std@@@std@@QAE@PAU_Node@?$_Tree_nod@V?$_Tmap_traits@GPAUtagTITEM@@U?$less@G@std@@V?$allocator@U?$pair@$$CBGPAUtagTITEM@@@std@@@3@$0A@@std@@@2@@Z
_TEXT	SEGMENT
__Pnode$ = 8						; size = 4
??0iterator@?$_Tree@V?$_Tmap_traits@GPAUtagTITEM@@U?$less@G@std@@V?$allocator@U?$pair@$$CBGPAUtagTITEM@@@std@@@3@$0A@@std@@@std@@QAE@PAU_Node@?$_Tree_nod@V?$_Tmap_traits@GPAUtagTITEM@@U?$less@G@std@@V?$allocator@U?$pair@$$CBGPAUtagTITEM@@@std@@@3@$0A@@std@@@2@@Z PROC NEAR ; std::_Tree<std::_Tmap_traits<unsigned short,tagTITEM *,std::less<unsigned short>,std::allocator<std::pair<unsigned short const ,tagTITEM *> >,0> >::iterator::iterator, COMDAT
; _this$ = ecx

; 312  : 			{	// construct with node pointer _Pnode

  00000	8b c1		 mov	 eax, ecx
  00002	8b 4c 24 04	 mov	 ecx, DWORD PTR __Pnode$[esp-4]
  00006	89 08		 mov	 DWORD PTR [eax], ecx

; 313  : 			}

  00008	c2 04 00	 ret	 4
??0iterator@?$_Tree@V?$_Tmap_traits@GPAUtagTITEM@@U?$less@G@std@@V?$allocator@U?$pair@$$CBGPAUtagTITEM@@@std@@@3@$0A@@std@@@std@@QAE@PAU_Node@?$_Tree_nod@V?$_Tmap_traits@GPAUtagTITEM@@U?$less@G@std@@V?$allocator@U?$pair@$$CBGPAUtagTITEM@@@std@@@3@$0A@@std@@@2@@Z ENDP ; std::_Tree<std::_Tmap_traits<unsigned short,tagTITEM *,std::less<unsigned short>,std::allocator<std::pair<unsigned short const ,tagTITEM *> >,0> >::iterator::iterator
_TEXT	ENDS
PUBLIC	?_Root@?$_Tree@V?$_Tmap_traits@GPAUtagTITEM@@U?$less@G@std@@V?$allocator@U?$pair@$$CBGPAUtagTITEM@@@std@@@3@$0A@@std@@@std@@IBEAAPAU_Node@?$_Tree_nod@V?$_Tmap_traits@GPAUtagTITEM@@U?$less@G@std@@V?$allocator@U?$pair@$$CBGPAUtagTITEM@@@std@@@3@$0A@@std@@@2@XZ ; std::_Tree<std::_Tmap_traits<unsigned short,tagTITEM *,std::less<unsigned short>,std::allocator<std::pair<unsigned short const ,tagTITEM *> >,0> >::_Root
; Function compile flags: /Ogty
;	COMDAT ?_Root@?$_Tree@V?$_Tmap_traits@GPAUtagTITEM@@U?$less@G@std@@V?$allocator@U?$pair@$$CBGPAUtagTITEM@@@std@@@3@$0A@@std@@@std@@IBEAAPAU_Node@?$_Tree_nod@V?$_Tmap_traits@GPAUtagTITEM@@U?$less@G@std@@V?$allocator@U?$pair@$$CBGPAUtagTITEM@@@std@@@3@$0A@@std@@@2@XZ
_TEXT	SEGMENT
?_Root@?$_Tree@V?$_Tmap_traits@GPAUtagTITEM@@U?$less@G@std@@V?$allocator@U?$pair@$$CBGPAUtagTITEM@@@std@@@3@$0A@@std@@@std@@IBEAAPAU_Node@?$_Tree_nod@V?$_Tmap_traits@GPAUtagTITEM@@U?$less@G@std@@V?$allocator@U?$pair@$$CBGPAUtagTITEM@@@std@@@3@$0A@@std@@@2@XZ PROC NEAR ; std::_Tree<std::_Tmap_traits<unsigned short,tagTITEM *,std::less<unsigned short>,std::allocator<std::pair<unsigned short const ,tagTITEM *> >,0> >::_Root, COMDAT
; _this$ = ecx

; 1064 : 		return (_Parent(_Myhead));

  00000	8b 41 04	 mov	 eax, DWORD PTR [ecx+4]
  00003	83 c0 04	 add	 eax, 4

; 1065 : 		}

  00006	c3		 ret	 0
?_Root@?$_Tree@V?$_Tmap_traits@GPAUtagTITEM@@U?$less@G@std@@V?$allocator@U?$pair@$$CBGPAUtagTITEM@@@std@@@3@$0A@@std@@@std@@IBEAAPAU_Node@?$_Tree_nod@V?$_Tmap_traits@GPAUtagTITEM@@U?$less@G@std@@V?$allocator@U?$pair@$$CBGPAUtagTITEM@@@std@@@3@$0A@@std@@@2@XZ ENDP ; std::_Tree<std::_Tmap_traits<unsigned short,tagTITEM *,std::less<unsigned short>,std::allocator<std::pair<unsigned short const ,tagTITEM *> >,0> >::_Root
_TEXT	ENDS
PUBLIC	??Diterator@?$vector@PAUtagQUESTTERM@@V?$allocator@PAUtagQUESTTERM@@@std@@@std@@QBEAAPAUtagQUESTTERM@@XZ ; std::vector<tagQUESTTERM *,std::allocator<tagQUESTTERM *> >::iterator::operator*
; Function compile flags: /Ogty
; File c:\program files (x86)\microsoft visual studio .net 2003\vc7\include\vector
;	COMDAT ??Diterator@?$vector@PAUtagQUESTTERM@@V?$allocator@PAUtagQUESTTERM@@@std@@@std@@QBEAAPAUtagQUESTTERM@@XZ
_TEXT	SEGMENT
??Diterator@?$vector@PAUtagQUESTTERM@@V?$allocator@PAUtagQUESTTERM@@@std@@@std@@QBEAAPAUtagQUESTTERM@@XZ PROC NEAR ; std::vector<tagQUESTTERM *,std::allocator<tagQUESTTERM *> >::iterator::operator*, COMDAT
; _this$ = ecx

; 220  : 			return ((reference)**(const_iterator *)this);

  00000	8b 01		 mov	 eax, DWORD PTR [ecx]

; 221  : 			}

  00002	c3		 ret	 0
??Diterator@?$vector@PAUtagQUESTTERM@@V?$allocator@PAUtagQUESTTERM@@@std@@@std@@QBEAAPAUtagQUESTTERM@@XZ ENDP ; std::vector<tagQUESTTERM *,std::allocator<tagQUESTTERM *> >::iterator::operator*
_TEXT	ENDS
PUBLIC	??0iterator@?$vector@PAUtagQUESTTERM@@V?$allocator@PAUtagQUESTTERM@@@std@@@std@@QAE@PAPAUtagQUESTTERM@@@Z ; std::vector<tagQUESTTERM *,std::allocator<tagQUESTTERM *> >::iterator::iterator
; Function compile flags: /Ogty
;	COMDAT ??0iterator@?$vector@PAUtagQUESTTERM@@V?$allocator@PAUtagQUESTTERM@@@std@@@std@@QAE@PAPAUtagQUESTTERM@@@Z
_TEXT	SEGMENT
__Ptr$ = 8						; size = 4
??0iterator@?$vector@PAUtagQUESTTERM@@V?$allocator@PAUtagQUESTTERM@@@std@@@std@@QAE@PAPAUtagQUESTTERM@@@Z PROC NEAR ; std::vector<tagQUESTTERM *,std::allocator<tagQUESTTERM *> >::iterator::iterator, COMDAT
; _this$ = ecx

; 215  : 			{	// construct with pointer _Ptr

  00000	8b c1		 mov	 eax, ecx
  00002	8b 4c 24 04	 mov	 ecx, DWORD PTR __Ptr$[esp-4]
  00006	89 08		 mov	 DWORD PTR [eax], ecx

; 216  : 			}

  00008	c2 04 00	 ret	 4
??0iterator@?$vector@PAUtagQUESTTERM@@V?$allocator@PAUtagQUESTTERM@@@std@@@std@@QAE@PAPAUtagQUESTTERM@@@Z ENDP ; std::vector<tagQUESTTERM *,std::allocator<tagQUESTTERM *> >::iterator::iterator
_TEXT	ENDS
PUBLIC	?end@?$_Tree@V?$_Tmap_traits@GPAUtagTITEM@@U?$less@G@std@@V?$allocator@U?$pair@$$CBGPAUtagTITEM@@@std@@@3@$0A@@std@@@std@@QAE?AViterator@12@XZ ; std::_Tree<std::_Tmap_traits<unsigned short,tagTITEM *,std::less<unsigned short>,std::allocator<std::pair<unsigned short const ,tagTITEM *> >,0> >::end
; Function compile flags: /Ogty
; File c:\program files (x86)\microsoft visual studio .net 2003\vc7\include\xtree
;	COMDAT ?end@?$_Tree@V?$_Tmap_traits@GPAUtagTITEM@@U?$less@G@std@@V?$allocator@U?$pair@$$CBGPAUtagTITEM@@@std@@@3@$0A@@std@@@std@@QAE?AViterator@12@XZ
_TEXT	SEGMENT
___$ReturnUdt$ = 8					; size = 4
?end@?$_Tree@V?$_Tmap_traits@GPAUtagTITEM@@U?$less@G@std@@V?$allocator@U?$pair@$$CBGPAUtagTITEM@@@std@@@3@$0A@@std@@@std@@QAE?AViterator@12@XZ PROC NEAR ; std::_Tree<std::_Tmap_traits<unsigned short,tagTITEM *,std::less<unsigned short>,std::allocator<std::pair<unsigned short const ,tagTITEM *> >,0> >::end, COMDAT
; _this$ = ecx

; 418  : 		return (_TREE_ITERATOR(_Myhead));

  00000	8b 49 04	 mov	 ecx, DWORD PTR [ecx+4]
  00003	8b 44 24 04	 mov	 eax, DWORD PTR ___$ReturnUdt$[esp-4]
  00007	89 08		 mov	 DWORD PTR [eax], ecx

; 419  : 		}

  00009	c2 04 00	 ret	 4
?end@?$_Tree@V?$_Tmap_traits@GPAUtagTITEM@@U?$less@G@std@@V?$allocator@U?$pair@$$CBGPAUtagTITEM@@@std@@@3@$0A@@std@@@std@@QAE?AViterator@12@XZ ENDP ; std::_Tree<std::_Tmap_traits<unsigned short,tagTITEM *,std::less<unsigned short>,std::allocator<std::pair<unsigned short const ,tagTITEM *> >,0> >::end
_TEXT	ENDS
PUBLIC	?begin@?$vector@PAUtagQUESTTERM@@V?$allocator@PAUtagQUESTTERM@@@std@@@std@@QAE?AViterator@12@XZ ; std::vector<tagQUESTTERM *,std::allocator<tagQUESTTERM *> >::begin
; Function compile flags: /Ogty
; File c:\program files (x86)\microsoft visual studio .net 2003\vc7\include\vector
;	COMDAT ?begin@?$vector@PAUtagQUESTTERM@@V?$allocator@PAUtagQUESTTERM@@@std@@@std@@QAE?AViterator@12@XZ
_TEXT	SEGMENT
___$ReturnUdt$ = 8					; size = 4
?begin@?$vector@PAUtagQUESTTERM@@V?$allocator@PAUtagQUESTTERM@@@std@@@std@@QAE?AViterator@12@XZ PROC NEAR ; std::vector<tagQUESTTERM *,std::allocator<tagQUESTTERM *> >::begin, COMDAT
; _this$ = ecx

; 463  : 		return (iterator(_Myfirst));

  00000	8b 49 04	 mov	 ecx, DWORD PTR [ecx+4]
  00003	8b 44 24 04	 mov	 eax, DWORD PTR ___$ReturnUdt$[esp-4]
  00007	89 08		 mov	 DWORD PTR [eax], ecx

; 464  : 		}

  00009	c2 04 00	 ret	 4
?begin@?$vector@PAUtagQUESTTERM@@V?$allocator@PAUtagQUESTTERM@@@std@@@std@@QAE?AViterator@12@XZ ENDP ; std::vector<tagQUESTTERM *,std::allocator<tagQUESTTERM *> >::begin
_TEXT	ENDS
PUBLIC	?_Lbound@?$_Tree@V?$_Tmap_traits@GPAUtagTITEM@@U?$less@G@std@@V?$allocator@U?$pair@$$CBGPAUtagTITEM@@@std@@@3@$0A@@std@@@std@@IBEPAU_Node@?$_Tree_nod@V?$_Tmap_traits@GPAUtagTITEM@@U?$less@G@std@@V?$allocator@U?$pair@$$CBGPAUtagTITEM@@@std@@@3@$0A@@std@@@2@ABG@Z ; std::_Tree<std::_Tmap_traits<unsigned short,tagTITEM *,std::less<unsigned short>,std::allocator<std::pair<unsigned short const ,tagTITEM *> >,0> >::_Lbound
; Function compile flags: /Ogty
; File c:\program files (x86)\microsoft visual studio .net 2003\vc7\include\xtree
;	COMDAT ?_Lbound@?$_Tree@V?$_Tmap_traits@GPAUtagTITEM@@U?$less@G@std@@V?$allocator@U?$pair@$$CBGPAUtagTITEM@@@std@@@3@$0A@@std@@@std@@IBEPAU_Node@?$_Tree_nod@V?$_Tmap_traits@GPAUtagTITEM@@U?$less@G@std@@V?$allocator@U?$pair@$$CBGPAUtagTITEM@@@std@@@3@$0A@@std@@@2@ABG@Z
_TEXT	SEGMENT
__Keyval$ = 8						; size = 4
?_Lbound@?$_Tree@V?$_Tmap_traits@GPAUtagTITEM@@U?$less@G@std@@V?$allocator@U?$pair@$$CBGPAUtagTITEM@@@std@@@3@$0A@@std@@@std@@IBEPAU_Node@?$_Tree_nod@V?$_Tmap_traits@GPAUtagTITEM@@U?$less@G@std@@V?$allocator@U?$pair@$$CBGPAUtagTITEM@@@std@@@3@$0A@@std@@@2@ABG@Z PROC NEAR ; std::_Tree<std::_Tmap_traits<unsigned short,tagTITEM *,std::less<unsigned short>,std::allocator<std::pair<unsigned short const ,tagTITEM *> >,0> >::_Lbound, COMDAT
; _this$ = ecx

; 988  : 		_Nodeptr _Pnode = _Root();

  00000	8b 41 04	 mov	 eax, DWORD PTR [ecx+4]
  00003	8b 48 04	 mov	 ecx, DWORD PTR [eax+4]

; 989  : 		_Nodeptr _Wherenode = _Myhead;	// end() if search fails
; 990  : 
; 991  : 		while (!_Isnil(_Pnode))

  00006	8a 51 15	 mov	 dl, BYTE PTR [ecx+21]
  00009	84 d2		 test	 dl, dl
  0000b	75 1f		 jne	 SHORT $L152422
  0000d	8b 54 24 04	 mov	 edx, DWORD PTR __Keyval$[esp-4]
  00011	66 8b 12	 mov	 dx, WORD PTR [edx]
  00014	53		 push	 ebx
$L152421:

; 992  : 			if (this->comp(_Key(_Pnode), _Keyval))

  00015	66 39 51 0c	 cmp	 WORD PTR [ecx+12], dx
  00019	73 05		 jae	 SHORT $L152423

; 993  : 				_Pnode = _Right(_Pnode);	// descend right subtree

  0001b	8b 49 08	 mov	 ecx, DWORD PTR [ecx+8]

; 994  : 			else

  0001e	eb 04		 jmp	 SHORT $L152424
$L152423:

; 995  : 				{	// _Pnode not less than _Keyval, remember it
; 996  : 				_Wherenode = _Pnode;

  00020	8b c1		 mov	 eax, ecx

; 997  : 				_Pnode = _Left(_Pnode);	// descend left subtree

  00022	8b 09		 mov	 ecx, DWORD PTR [ecx]
$L152424:
  00024	8a 59 15	 mov	 bl, BYTE PTR [ecx+21]
  00027	84 db		 test	 bl, bl
  00029	74 ea		 je	 SHORT $L152421
  0002b	5b		 pop	 ebx
$L152422:

; 998  : 				}
; 999  : 
; 1000 : 		return (_Wherenode);	// return best remembered candidate
; 1001 : 		}

  0002c	c2 04 00	 ret	 4
?_Lbound@?$_Tree@V?$_Tmap_traits@GPAUtagTITEM@@U?$less@G@std@@V?$allocator@U?$pair@$$CBGPAUtagTITEM@@@std@@@3@$0A@@std@@@std@@IBEPAU_Node@?$_Tree_nod@V?$_Tmap_traits@GPAUtagTITEM@@U?$less@G@std@@V?$allocator@U?$pair@$$CBGPAUtagTITEM@@@std@@@3@$0A@@std@@@2@ABG@Z ENDP ; std::_Tree<std::_Tmap_traits<unsigned short,tagTITEM *,std::less<unsigned short>,std::allocator<std::pair<unsigned short const ,tagTITEM *> >,0> >::_Lbound
_TEXT	ENDS
PUBLIC	??A?$vector@PAUtagQUESTTERM@@V?$allocator@PAUtagQUESTTERM@@@std@@@std@@QAEAAPAUtagQUESTTERM@@I@Z ; std::vector<tagQUESTTERM *,std::allocator<tagQUESTTERM *> >::operator[]
; Function compile flags: /Ogty
; File c:\program files (x86)\microsoft visual studio .net 2003\vc7\include\vector
;	COMDAT ??A?$vector@PAUtagQUESTTERM@@V?$allocator@PAUtagQUESTTERM@@@std@@@std@@QAEAAPAUtagQUESTTERM@@I@Z
_TEXT	SEGMENT
__Pos$ = 8						; size = 4
??A?$vector@PAUtagQUESTTERM@@V?$allocator@PAUtagQUESTTERM@@@std@@@std@@QAEAAPAUtagQUESTTERM@@I@Z PROC NEAR ; std::vector<tagQUESTTERM *,std::allocator<tagQUESTTERM *> >::operator[], COMDAT
; _this$ = ecx

; 555  : 		return (*(begin() + _Pos));

  00000	8b 41 04	 mov	 eax, DWORD PTR [ecx+4]
  00003	8b 4c 24 04	 mov	 ecx, DWORD PTR __Pos$[esp-4]
  00007	8d 04 88	 lea	 eax, DWORD PTR [eax+ecx*4]

; 556  : 		}

  0000a	c2 04 00	 ret	 4
??A?$vector@PAUtagQUESTTERM@@V?$allocator@PAUtagQUESTTERM@@@std@@@std@@QAEAAPAUtagQUESTTERM@@I@Z ENDP ; std::vector<tagQUESTTERM *,std::allocator<tagQUESTTERM *> >::operator[]
_TEXT	ENDS
PUBLIC	?lower_bound@?$_Tree@V?$_Tmap_traits@GPAUtagTITEM@@U?$less@G@std@@V?$allocator@U?$pair@$$CBGPAUtagTITEM@@@std@@@3@$0A@@std@@@std@@QAE?AViterator@12@ABG@Z ; std::_Tree<std::_Tmap_traits<unsigned short,tagTITEM *,std::less<unsigned short>,std::allocator<std::pair<unsigned short const ,tagTITEM *> >,0> >::lower_bound
; Function compile flags: /Ogty
; File c:\program files (x86)\microsoft visual studio .net 2003\vc7\include\xtree
;	COMDAT ?lower_bound@?$_Tree@V?$_Tmap_traits@GPAUtagTITEM@@U?$less@G@std@@V?$allocator@U?$pair@$$CBGPAUtagTITEM@@@std@@@3@$0A@@std@@@std@@QAE?AViterator@12@ABG@Z
_TEXT	SEGMENT
___$ReturnUdt$ = 8					; size = 4
__Keyval$ = 12						; size = 4
?lower_bound@?$_Tree@V?$_Tmap_traits@GPAUtagTITEM@@U?$less@G@std@@V?$allocator@U?$pair@$$CBGPAUtagTITEM@@@std@@@3@$0A@@std@@@std@@QAE?AViterator@12@ABG@Z PROC NEAR ; std::_Tree<std::_Tmap_traits<unsigned short,tagTITEM *,std::less<unsigned short>,std::allocator<std::pair<unsigned short const ,tagTITEM *> >,0> >::lower_bound, COMDAT
; _this$ = ecx

; 810  : 		return (_TREE_ITERATOR(_Lbound(_Keyval)));

  00000	8b 49 04	 mov	 ecx, DWORD PTR [ecx+4]
  00003	8b 41 04	 mov	 eax, DWORD PTR [ecx+4]
  00006	8a 50 15	 mov	 dl, BYTE PTR [eax+21]
  00009	84 d2		 test	 dl, dl
  0000b	75 1f		 jne	 SHORT $L153162
  0000d	8b 54 24 08	 mov	 edx, DWORD PTR __Keyval$[esp-4]
  00011	66 8b 12	 mov	 dx, WORD PTR [edx]
  00014	53		 push	 ebx
$L153149:
  00015	66 39 50 0c	 cmp	 WORD PTR [eax+12], dx
  00019	73 05		 jae	 SHORT $L153151
  0001b	8b 40 08	 mov	 eax, DWORD PTR [eax+8]
  0001e	eb 04		 jmp	 SHORT $L153152
$L153151:
  00020	8b c8		 mov	 ecx, eax
  00022	8b 00		 mov	 eax, DWORD PTR [eax]
$L153152:
  00024	8a 58 15	 mov	 bl, BYTE PTR [eax+21]
  00027	84 db		 test	 bl, bl
  00029	74 ea		 je	 SHORT $L153149
  0002b	5b		 pop	 ebx
$L153162:
  0002c	8b 44 24 04	 mov	 eax, DWORD PTR ___$ReturnUdt$[esp-4]
  00030	89 08		 mov	 DWORD PTR [eax], ecx

; 811  : 		}

  00032	c2 08 00	 ret	 8
?lower_bound@?$_Tree@V?$_Tmap_traits@GPAUtagTITEM@@U?$less@G@std@@V?$allocator@U?$pair@$$CBGPAUtagTITEM@@@std@@@3@$0A@@std@@@std@@QAE?AViterator@12@ABG@Z ENDP ; std::_Tree<std::_Tmap_traits<unsigned short,tagTITEM *,std::less<unsigned short>,std::allocator<std::pair<unsigned short const ,tagTITEM *> >,0> >::lower_bound
_TEXT	ENDS
PUBLIC	?find@?$_Tree@V?$_Tmap_traits@GPAUtagTITEM@@U?$less@G@std@@V?$allocator@U?$pair@$$CBGPAUtagTITEM@@@std@@@3@$0A@@std@@@std@@QAE?AViterator@12@ABG@Z ; std::_Tree<std::_Tmap_traits<unsigned short,tagTITEM *,std::less<unsigned short>,std::allocator<std::pair<unsigned short const ,tagTITEM *> >,0> >::find
; Function compile flags: /Ogty
;	COMDAT ?find@?$_Tree@V?$_Tmap_traits@GPAUtagTITEM@@U?$less@G@std@@V?$allocator@U?$pair@$$CBGPAUtagTITEM@@@std@@@3@$0A@@std@@@std@@QAE?AViterator@12@ABG@Z
_TEXT	SEGMENT
$T153169 = -4						; size = 4
___$ReturnUdt$ = 8					; size = 4
__Where$ = 12						; size = 4
__Keyval$ = 12						; size = 4
?find@?$_Tree@V?$_Tmap_traits@GPAUtagTITEM@@U?$less@G@std@@V?$allocator@U?$pair@$$CBGPAUtagTITEM@@@std@@@3@$0A@@std@@@std@@QAE?AViterator@12@ABG@Z PROC NEAR ; std::_Tree<std::_Tmap_traits<unsigned short,tagTITEM *,std::less<unsigned short>,std::allocator<std::pair<unsigned short const ,tagTITEM *> >,0> >::find, COMDAT
; _this$ = ecx

; 787  : 		{	// find an element in mutable sequence that matches _Keyval

  00000	51		 push	 ecx

; 788  : 		iterator _Where = lower_bound(_Keyval);

  00001	8b 51 04	 mov	 edx, DWORD PTR [ecx+4]
  00004	8b 42 04	 mov	 eax, DWORD PTR [edx+4]
  00007	53		 push	 ebx
  00008	8a 58 15	 mov	 bl, BYTE PTR [eax+21]
  0000b	84 db		 test	 bl, bl
  0000d	57		 push	 edi
  0000e	8b 7c 24 14	 mov	 edi, DWORD PTR __Keyval$[esp+8]
  00012	75 1b		 jne	 SHORT $L153264
  00014	56		 push	 esi
  00015	66 8b 37	 mov	 si, WORD PTR [edi]
$L153263:
  00018	66 39 70 0c	 cmp	 WORD PTR [eax+12], si
  0001c	73 05		 jae	 SHORT $L153265
  0001e	8b 40 08	 mov	 eax, DWORD PTR [eax+8]
  00021	eb 04		 jmp	 SHORT $L153266
$L153265:
  00023	8b d0		 mov	 edx, eax
  00025	8b 00		 mov	 eax, DWORD PTR [eax]
$L153266:
  00027	8a 58 15	 mov	 bl, BYTE PTR [eax+21]
  0002a	84 db		 test	 bl, bl
  0002c	74 ea		 je	 SHORT $L153263
  0002e	5e		 pop	 esi
$L153264:

; 789  : 		return (_Where == end() || this->comp(_Keyval, _Key(_Where._Mynode()))
; 790  : 			? end() : _Where);

  0002f	8b 41 04	 mov	 eax, DWORD PTR [ecx+4]
  00032	3b d0		 cmp	 edx, eax
  00034	89 54 24 14	 mov	 DWORD PTR __Where$[esp+8], edx
  00038	74 1b		 je	 SHORT $L153168
  0003a	66 8b 0f	 mov	 cx, WORD PTR [edi]
  0003d	66 3b 4a 0c	 cmp	 cx, WORD PTR [edx+12]
  00041	72 12		 jb	 SHORT $L153168
  00043	8d 44 24 14	 lea	 eax, DWORD PTR __Where$[esp+8]
  00047	8b 10		 mov	 edx, DWORD PTR [eax]
  00049	8b 44 24 10	 mov	 eax, DWORD PTR ___$ReturnUdt$[esp+8]
  0004d	5f		 pop	 edi
  0004e	89 10		 mov	 DWORD PTR [eax], edx
  00050	5b		 pop	 ebx

; 791  : 		}

  00051	59		 pop	 ecx
  00052	c2 08 00	 ret	 8
$L153168:

; 789  : 		return (_Where == end() || this->comp(_Keyval, _Key(_Where._Mynode()))
; 790  : 			? end() : _Where);

  00055	89 44 24 08	 mov	 DWORD PTR $T153169[esp+12], eax
  00059	8d 44 24 08	 lea	 eax, DWORD PTR $T153169[esp+12]
  0005d	8b 10		 mov	 edx, DWORD PTR [eax]
  0005f	8b 44 24 10	 mov	 eax, DWORD PTR ___$ReturnUdt$[esp+8]
  00063	5f		 pop	 edi
  00064	89 10		 mov	 DWORD PTR [eax], edx
  00066	5b		 pop	 ebx

; 791  : 		}

  00067	59		 pop	 ecx
  00068	c2 08 00	 ret	 8
?find@?$_Tree@V?$_Tmap_traits@GPAUtagTITEM@@U?$less@G@std@@V?$allocator@U?$pair@$$CBGPAUtagTITEM@@@std@@@3@$0A@@std@@@std@@QAE?AViterator@12@ABG@Z ENDP ; std::_Tree<std::_Tmap_traits<unsigned short,tagTITEM *,std::less<unsigned short>,std::allocator<std::pair<unsigned short const ,tagTITEM *> >,0> >::find
_TEXT	ENDS
EXTRN	?CanRunQuest@CTPlayer@@QAEEPAUtagQUESTTEMP@@KAAE@Z:NEAR ; CTPlayer::CanRunQuest
EXTRN	?DeleteItem@CTPlayer@@QAEXG@Z:NEAR		; CTPlayer::DeleteItem
; Function compile flags: /Ogty
; File c:\users\pierr\desktop\4story - oldschool\sources\tserver\tmapsvr\questdeleteitem.cpp
;	COMDAT ?ExecQuest@CQuestDeleteItem@@UAEXPAVCTPlayer@@KPAV?$map@EPAV?$map@KPAV?$vector@PAUtagQUESTTEMP@@V?$allocator@PAUtagQUESTTEMP@@@std@@@std@@U?$less@K@2@V?$allocator@U?$pair@$$CBKPAV?$vector@PAUtagQUESTTEMP@@V?$allocator@PAUtagQUESTTEMP@@@std@@@std@@@std@@@2@@std@@U?$less@E@2@V?$allocator@U?$pair@$$CBEPAV?$map@KPAV?$vector@PAUtagQUESTTEMP@@V?$allocator@PAUtagQUESTTEMP@@@std@@@std@@U?$less@K@2@V?$allocator@U?$pair@$$CBKPAV?$vector@PAUtagQUESTTEMP@@V?$allocator@PAUtagQUESTTEMP@@@std@@@std@@@std@@@2@@std@@@std@@@2@@std@@PAV?$map@KPAUtagQUESTTEMP@@U?$less@K@std@@V?$allocator@U?$pair@$$CBKPAUtagQUESTTEMP@@@std@@@3@@4@PAV?$map@GPAUtagTITEM@@U?$less@G@std@@V?$allocator@U?$pair@$$CBGPAUtagTITEM@@@std@@@3@@4@PAV?$map@GPAVCTSkillTemp@@U?$less@G@std@@V?$allocator@U?$pair@$$CBGPAVCTSkillTemp@@@std@@@3@@4@PAV?$map@GPAUtagTMONSTER@@U?$less@G@std@@V?$allocator@U?$pair@$$CBGPAUtagTMONSTER@@@std@@@3@@4@PAV?$map@EPAUtagTSTAT@@U?$less@E@std@@V?$allocator@U?$pair@$$CBEPAUtagTSTAT@@@std@@@3@@4@@Z
_TEXT	SEGMENT
_finder$152338 = -4					; size = 4
_pPlayer$ = 8						; size = 4
_bLevel$ = 12						; size = 1
_dwTick$ = 12						; size = 4
_pTRIGGER$ = 16						; size = 4
_pQUESTTEMP$ = 20					; size = 4
_wItemID$152250 = 24					; size = 2
_pITEMTEMP$ = 24					; size = 4
_pSKILLTEMP$ = 28					; size = 4
_pMONTEMP$ = 32						; size = 4
_pCLASS$ = 36						; size = 4
?ExecQuest@CQuestDeleteItem@@UAEXPAVCTPlayer@@KPAV?$map@EPAV?$map@KPAV?$vector@PAUtagQUESTTEMP@@V?$allocator@PAUtagQUESTTEMP@@@std@@@std@@U?$less@K@2@V?$allocator@U?$pair@$$CBKPAV?$vector@PAUtagQUESTTEMP@@V?$allocator@PAUtagQUESTTEMP@@@std@@@std@@@std@@@2@@std@@U?$less@E@2@V?$allocator@U?$pair@$$CBEPAV?$map@KPAV?$vector@PAUtagQUESTTEMP@@V?$allocator@PAUtagQUESTTEMP@@@std@@@std@@U?$less@K@2@V?$allocator@U?$pair@$$CBKPAV?$vector@PAUtagQUESTTEMP@@V?$allocator@PAUtagQUESTTEMP@@@std@@@std@@@std@@@2@@std@@@std@@@2@@std@@PAV?$map@KPAUtagQUESTTEMP@@U?$less@K@std@@V?$allocator@U?$pair@$$CBKPAUtagQUESTTEMP@@@std@@@3@@4@PAV?$map@GPAUtagTITEM@@U?$less@G@std@@V?$allocator@U?$pair@$$CBGPAUtagTITEM@@@std@@@3@@4@PAV?$map@GPAVCTSkillTemp@@U?$less@G@std@@V?$allocator@U?$pair@$$CBGPAVCTSkillTemp@@@std@@@3@@4@PAV?$map@GPAUtagTMONSTER@@U?$less@G@std@@V?$allocator@U?$pair@$$CBGPAUtagTMONSTER@@@std@@@3@@4@PAV?$map@EPAUtagTSTAT@@U?$less@E@std@@V?$allocator@U?$pair@$$CBEPAUtagTSTAT@@@std@@@3@@4@@Z PROC NEAR ; CQuestDeleteItem::ExecQuest, COMDAT
; _this$ = ecx

; 20   : {

  00000	51		 push	 ecx
  00001	53		 push	 ebx
  00002	8b d9		 mov	 ebx, ecx

; 21   : 	BYTE bLevel;
; 22   : 	if(!pPlayer->CanRunQuest( m_pQUEST, dwTick, bLevel))

  00004	8b 4c 24 10	 mov	 ecx, DWORD PTR _dwTick$[esp+4]
  00008	8b 53 04	 mov	 edx, DWORD PTR [ebx+4]
  0000b	8d 44 24 10	 lea	 eax, DWORD PTR _bLevel$[esp+4]
  0000f	50		 push	 eax
  00010	51		 push	 ecx
  00011	8b 4c 24 14	 mov	 ecx, DWORD PTR _pPlayer$[esp+12]
  00015	52		 push	 edx
  00016	e8 00 00 00 00	 call	 ?CanRunQuest@CTPlayer@@QAEEPAUtagQUESTTEMP@@KAAE@Z ; CTPlayer::CanRunQuest
  0001b	84 c0		 test	 al, al
  0001d	75 67		 jne	 SHORT $L152254
  0001f	55		 push	 ebp

; 23   : 	{		
; 24   : 		WORD wItemID = 0;		
; 25   : 		for( int i=0; i<INT(m_pQUEST->m_vTerm.size()); i++)

  00020	8b 6c 24 20	 mov	 ebp, DWORD PTR _pITEMTEMP$[esp+8]
  00024	57		 push	 edi
  00025	33 ff		 xor	 edi, edi
  00027	56		 push	 esi
$L152252:
  00028	8b 4b 04	 mov	 ecx, DWORD PTR [ebx+4]
  0002b	8b 51 24	 mov	 edx, DWORD PTR [ecx+36]
  0002e	85 d2		 test	 edx, edx
  00030	75 04		 jne	 SHORT $L153335
  00032	33 c0		 xor	 eax, eax
  00034	eb 08		 jmp	 SHORT $L153336
$L153335:
  00036	8b 41 28	 mov	 eax, DWORD PTR [ecx+40]
  00039	2b c2		 sub	 eax, edx
  0003b	c1 f8 02	 sar	 eax, 2
$L153336:
  0003e	3b f8		 cmp	 edi, eax
  00040	7d 41		 jge	 SHORT $L153479
  00042	8b 41 24	 mov	 eax, DWORD PTR [ecx+36]

; 26   : 		{
; 27   : 			switch(m_pQUEST->m_vTerm[i]->m_bTermType)

  00045	8b 0c b8	 mov	 ecx, DWORD PTR [eax+edi*4]
  00048	80 79 04 05	 cmp	 BYTE PTR [ecx+4], 5
  0004c	8d 04 b8	 lea	 eax, DWORD PTR [eax+edi*4]
  0004f	75 2f		 jne	 SHORT $L152253

; 28   : 			{
; 29   : 			case QTT_ITEMID		:
; 30   : 				{
; 31   : 					wItemID = (WORD)m_pQUEST->m_vTerm[i]->m_dwTermID;					

  00051	8b d1		 mov	 edx, ecx
  00053	33 f6		 xor	 esi, esi
  00055	66 8b 32	 mov	 si, WORD PTR [edx]

; 32   : 					MAPTITEMTEMP::iterator finder = pITEMTEMP->find(wItemID);

  00058	8d 44 24 28	 lea	 eax, DWORD PTR _wItemID$152250[esp+16]
  0005c	50		 push	 eax
  0005d	8d 4c 24 14	 lea	 ecx, DWORD PTR _finder$152338[esp+24]
  00061	51		 push	 ecx
  00062	8b cd		 mov	 ecx, ebp
  00064	89 74 24 30	 mov	 DWORD PTR _wItemID$152250[esp+24], esi
  00068	e8 00 00 00 00	 call	 ?find@?$_Tree@V?$_Tmap_traits@GPAUtagTITEM@@U?$less@G@std@@V?$allocator@U?$pair@$$CBGPAUtagTITEM@@@std@@@3@$0A@@std@@@std@@QAE?AViterator@12@ABG@Z ; std::_Tree<std::_Tmap_traits<unsigned short,tagTITEM *,std::less<unsigned short>,std::allocator<std::pair<unsigned short const ,tagTITEM *> >,0> >::find

; 33   : 					if( finder != pITEMTEMP->end() )

  0006d	8b 54 24 10	 mov	 edx, DWORD PTR _finder$152338[esp+20]
  00071	3b 55 04	 cmp	 edx, DWORD PTR [ebp+4]
  00074	74 0a		 je	 SHORT $L152253

; 34   : 					{
; 35   : 						pPlayer->DeleteItem(wItemID);

  00076	8b 4c 24 18	 mov	 ecx, DWORD PTR _pPlayer$[esp+16]
  0007a	56		 push	 esi
  0007b	e8 00 00 00 00	 call	 ?DeleteItem@CTPlayer@@QAEXG@Z ; CTPlayer::DeleteItem
$L152253:

; 23   : 	{		
; 24   : 		WORD wItemID = 0;		
; 25   : 		for( int i=0; i<INT(m_pQUEST->m_vTerm.size()); i++)

  00080	47		 inc	 edi
  00081	eb a5		 jmp	 SHORT $L152252
$L153479:
  00083	5e		 pop	 esi
  00084	5f		 pop	 edi
  00085	5d		 pop	 ebp
$L152254:
  00086	5b		 pop	 ebx

; 36   : 					}
; 37   : 				}
; 38   : 				break;
; 39   : 			}
; 40   : 		}		
; 41   : 	}
; 42   : }

  00087	59		 pop	 ecx
  00088	c2 20 00	 ret	 32			; 00000020H
?ExecQuest@CQuestDeleteItem@@UAEXPAVCTPlayer@@KPAV?$map@EPAV?$map@KPAV?$vector@PAUtagQUESTTEMP@@V?$allocator@PAUtagQUESTTEMP@@@std@@@std@@U?$less@K@2@V?$allocator@U?$pair@$$CBKPAV?$vector@PAUtagQUESTTEMP@@V?$allocator@PAUtagQUESTTEMP@@@std@@@std@@@std@@@2@@std@@U?$less@E@2@V?$allocator@U?$pair@$$CBEPAV?$map@KPAV?$vector@PAUtagQUESTTEMP@@V?$allocator@PAUtagQUESTTEMP@@@std@@@std@@U?$less@K@2@V?$allocator@U?$pair@$$CBKPAV?$vector@PAUtagQUESTTEMP@@V?$allocator@PAUtagQUESTTEMP@@@std@@@std@@@std@@@2@@std@@@std@@@2@@std@@PAV?$map@KPAUtagQUESTTEMP@@U?$less@K@std@@V?$allocator@U?$pair@$$CBKPAUtagQUESTTEMP@@@std@@@3@@4@PAV?$map@GPAUtagTITEM@@U?$less@G@std@@V?$allocator@U?$pair@$$CBGPAUtagTITEM@@@std@@@3@@4@PAV?$map@GPAVCTSkillTemp@@U?$less@G@std@@V?$allocator@U?$pair@$$CBGPAVCTSkillTemp@@@std@@@3@@4@PAV?$map@GPAUtagTMONSTER@@U?$less@G@std@@V?$allocator@U?$pair@$$CBGPAUtagTMONSTER@@@std@@@3@@4@PAV?$map@EPAUtagTSTAT@@U?$less@E@std@@V?$allocator@U?$pair@$$CBEPAUtagTSTAT@@@std@@@3@@4@@Z ENDP ; CQuestDeleteItem::ExecQuest
_TEXT	ENDS
END
