; Listing generated by Microsoft (R) Optimizing Compiler Version 13.10.3077 

	TITLE	.\QuestSpawnMon.cpp
	.386P
include listing.inc
if @Version gt 510
.model FLAT
else
_TEXT	SEGMENT PARA USE32 PUBLIC 'CODE'
_TEXT	ENDS
_DATA	SEGMENT DWORD USE32 PUBLIC 'DATA'
_DATA	ENDS
CONST	SEGMENT DWORD USE32 PUBLIC 'CONST'
CONST	ENDS
_BSS	SEGMENT DWORD USE32 PUBLIC 'BSS'
_BSS	ENDS
$$SYMBOLS	SEGMENT BYTE USE32 'DEBSYM'
$$SYMBOLS	ENDS
$$TYPES	SEGMENT BYTE USE32 'DEBTYP'
$$TYPES	ENDS
_TLS	SEGMENT DWORD USE32 PUBLIC 'TLS'
_TLS	ENDS
;	COMDAT ??_C@_1EO@BGAEGJFB@?$AA?$HL?$AA5?$AA1?$AAA?$AAB?$AA7?$AAA?$AA3?$AA0?$AA?9?$AA9?$AA9?$AA5?$AAA?$AA?9?$AA4?$AA4?$AAA?$AAB?$AA?9@
CONST	SEGMENT DWORD USE32 PUBLIC 'CONST'
CONST	ENDS
;	COMDAT ??_C@_0CH@JJOAEHDK@?$HL51AB7A30?9995A?944AB?9B869?97D79E92@
CONST	SEGMENT DWORD USE32 PUBLIC 'CONST'
CONST	ENDS
;	COMDAT ??_C@_0N@OGFEPDED@LocalService?$AA@
CONST	SEGMENT DWORD USE32 PUBLIC 'CONST'
CONST	ENDS
;	COMDAT ??_C@_02CCDHMLDD@?9?1?$AA@
CONST	SEGMENT DWORD USE32 PUBLIC 'CONST'
CONST	ENDS
;	COMDAT ??_C@_0M@MIGBKCMN@UnregServer?$AA@
CONST	SEGMENT DWORD USE32 PUBLIC 'CONST'
CONST	ENDS
;	COMDAT ??_C@_09LJBJJPCG@RegServer?$AA@
CONST	SEGMENT DWORD USE32 PUBLIC 'CONST'
CONST	ENDS
;	COMDAT ??_C@_07LMLHFMEG@Service?$AA@
CONST	SEGMENT DWORD USE32 PUBLIC 'CONST'
CONST	ENDS
;	COMDAT ??_C@_07PNHNHBAB@Install?$AA@
CONST	SEGMENT DWORD USE32 PUBLIC 'CONST'
CONST	ENDS
;	COMDAT ??_C@_09LAEJNBCE@UnInstall?$AA@
CONST	SEGMENT DWORD USE32 PUBLIC 'CONST'
CONST	ENDS
;	COMDAT ??_C@_04FABLJDN@Name?$AA@
CONST	SEGMENT DWORD USE32 PUBLIC 'CONST'
CONST	ENDS
;	COMDAT ??_C@_01CLKCMJKC@?5?$AA@
CONST	SEGMENT DWORD USE32 PUBLIC 'CONST'
CONST	ENDS
;	COMDAT ??_C@_0M@DBFDLFJJ@?$CFs?5?9Name?5?$CFs?$AA@
CONST	SEGMENT DWORD USE32 PUBLIC 'CONST'
CONST	ENDS
;	COMDAT ??_C@_0BP@GECJKCAK@Could?5not?5open?5Service?5Manager?$AA@
CONST	SEGMENT DWORD USE32 PUBLIC 'CONST'
CONST	ENDS
;	COMDAT ??_C@_06HCEGMCNE@RPCSS?$AA?$AA@
CONST	SEGMENT DWORD USE32 PUBLIC 'CONST'
CONST	ENDS
;	COMDAT ??_C@_0BI@HDJFCBEP@Could?5not?5start?5service?$AA@
CONST	SEGMENT DWORD USE32 PUBLIC 'CONST'
CONST	ENDS
;	COMDAT ??_C@_0BH@JMOCNDDL@Could?5not?5open?5service?$AA@
CONST	SEGMENT DWORD USE32 PUBLIC 'CONST'
CONST	ENDS
;	COMDAT ??_C@_0BH@GKJBBOLK@Could?5not?5stop?5service?$AA@
CONST	SEGMENT DWORD USE32 PUBLIC 'CONST'
CONST	ENDS
;	COMDAT ??_C@_0BJ@NMBIIKKI@Could?5not?5delete?5service?$AA@
CONST	SEGMENT DWORD USE32 PUBLIC 'CONST'
CONST	ENDS
text$yc	SEGMENT PARA USE32 PUBLIC 'CODE'
text$yc	ENDS
CRT$XCA	SEGMENT DWORD USE32 PUBLIC 'DATA'
CRT$XCA	ENDS
CRT$XCU	SEGMENT DWORD USE32 PUBLIC 'DATA'
CRT$XCU	ENDS
CRT$XCL	SEGMENT DWORD USE32 PUBLIC 'DATA'
CRT$XCL	ENDS
CRT$XCC	SEGMENT DWORD USE32 PUBLIC 'DATA'
CRT$XCC	ENDS
CRT$XCZ	SEGMENT DWORD USE32 PUBLIC 'DATA'
CRT$XCZ	ENDS
text$yd	SEGMENT PARA USE32 PUBLIC 'CODE'
text$yd	ENDS
ATL$__m	SEGMENT DWORD USE32 PUBLIC ''
ATL$__m	ENDS
ATL$__z	SEGMENT DWORD USE32 PUBLIC ''
ATL$__z	ENDS
ATL$__a	SEGMENT DWORD USE32 PUBLIC ''
ATL$__a	ENDS
xdata$x	SEGMENT DWORD USE32 PUBLIC 'CONST'
xdata$x	ENDS
;	COMDAT ?GetAppId@CTMapSvrModule@@SAPBGXZ
_TEXT	SEGMENT PARA USE32 PUBLIC 'CODE'
_TEXT	ENDS
;	COMDAT ?GetAppIdT@CTMapSvrModule@@SAPADXZ
_TEXT	SEGMENT PARA USE32 PUBLIC 'CODE'
_TEXT	ENDS
;	COMDAT ?UpdateRegistryAppId@CTMapSvrModule@@SGJH@Z
_TEXT	SEGMENT PARA USE32 PUBLIC 'CODE'
_TEXT	ENDS
;	COMDAT ?RegisterAppId@CTMapSvrModule@@QAEJ_N@Z
_TEXT	SEGMENT PARA USE32 PUBLIC 'CODE'
_TEXT	ENDS
;	COMDAT ?Install@CTMapSvrModule@@QAEHXZ
_TEXT	SEGMENT PARA USE32 PUBLIC 'CODE'
_TEXT	ENDS
;	COMDAT ??0CQuestSpawnMon@@QAE@XZ
_TEXT	SEGMENT PARA USE32 PUBLIC 'CODE'
_TEXT	ENDS
;	COMDAT ??_GCQuestSpawnMon@@UAEPAXI@Z
_TEXT	SEGMENT PARA USE32 PUBLIC 'CODE'
_TEXT	ENDS
;	COMDAT ??1CQuestSpawnMon@@UAE@XZ
_TEXT	SEGMENT PARA USE32 PUBLIC 'CODE'
_TEXT	ENDS
;	COMDAT ?ExecQuest@CQuestSpawnMon@@UAEXPAVCTPlayer@@KPAV?$map@EPAV?$map@KPAV?$vector@PAUtagQUESTTEMP@@V?$allocator@PAUtagQUESTTEMP@@@std@@@std@@U?$less@K@2@V?$allocator@U?$pair@$$CBKPAV?$vector@PAUtagQUESTTEMP@@V?$allocator@PAUtagQUESTTEMP@@@std@@@std@@@std@@@2@@std@@U?$less@E@2@V?$allocator@U?$pair@$$CBEPAV?$map@KPAV?$vector@PAUtagQUESTTEMP@@V?$allocator@PAUtagQUESTTEMP@@@std@@@std@@U?$less@K@2@V?$allocator@U?$pair@$$CBKPAV?$vector@PAUtagQUESTTEMP@@V?$allocator@PAUtagQUESTTEMP@@@std@@@std@@@std@@@2@@std@@@std@@@2@@std@@PAV?$map@KPAUtagQUESTTEMP@@U?$less@K@std@@V?$allocator@U?$pair@$$CBKPAUtagQUESTTEMP@@@std@@@3@@4@PAV?$map@GPAUtagTITEM@@U?$less@G@std@@V?$allocator@U?$pair@$$CBGPAUtagTITEM@@@std@@@3@@4@PAV?$map@GPAVCTSkillTemp@@U?$less@G@std@@V?$allocator@U?$pair@$$CBGPAVCTSkillTemp@@@std@@@3@@4@PAV?$map@GPAUtagTMONSTER@@U?$less@G@std@@V?$allocator@U?$pair@$$CBGPAUtagTMONSTER@@@std@@@3@@4@PAV?$map@EPAUtagTSTAT@@U?$less@E@std@@V?$allocator@U?$pair@$$CBEPAUtagTSTAT@@@std@@@3@@4@@Z
_TEXT	SEGMENT PARA USE32 PUBLIC 'CODE'
_TEXT	ENDS
;	COMDAT ?Tokenize@?$CStringT@DV?$StrTraitATL@DV?$ChTraitsCRT@D@ATL@@@ATL@@@ATL@@QBE?AV12@PBDAAH@Z
_TEXT	SEGMENT PARA USE32 PUBLIC 'CODE'
_TEXT	ENDS
;	COMDAT ?Format@?$CStringT@DV?$StrTraitATL@DV?$ChTraitsCRT@D@ATL@@@ATL@@@ATL@@QAAXPBDZZ
_TEXT	SEGMENT PARA USE32 PUBLIC 'CODE'
_TEXT	ENDS
;	COMDAT ??A?$vector@PAUtagQUESTTERM@@V?$allocator@PAUtagQUESTTERM@@@std@@@std@@QAEAAPAUtagQUESTTERM@@I@Z
_TEXT	SEGMENT PARA USE32 PUBLIC 'CODE'
_TEXT	ENDS
;	COMDAT ?UnregisterAppId@?$CAtlServiceModuleT@VCTMapSvrModule@@$0GE@@ATL@@QAEJXZ
_TEXT	SEGMENT PARA USE32 PUBLIC 'CODE'
_TEXT	ENDS
;	COMDAT ?IsInstalled@?$CAtlServiceModuleT@VCTMapSvrModule@@$0GE@@ATL@@QAEHXZ
_TEXT	SEGMENT PARA USE32 PUBLIC 'CODE'
_TEXT	ENDS
;	COMDAT ?Uninstall@?$CAtlServiceModuleT@VCTMapSvrModule@@$0GE@@ATL@@QAEHXZ
_TEXT	SEGMENT PARA USE32 PUBLIC 'CODE'
_TEXT	ENDS
;	COMDAT ??1?$CAtlExeModuleT@VCTMapSvrModule@@@ATL@@UAE@XZ
_TEXT	SEGMENT PARA USE32 PUBLIC 'CODE'
_TEXT	ENDS
;	COMDAT ?Unlock@?$CAtlExeModuleT@VCTMapSvrModule@@@ATL@@UAEJXZ
_TEXT	SEGMENT PARA USE32 PUBLIC 'CODE'
_TEXT	ENDS
;	COMDAT ?RegisterServer@?$CAtlModuleT@VCTMapSvrModule@@@ATL@@QAEJHPBU_GUID@@@Z
_TEXT	SEGMENT PARA USE32 PUBLIC 'CODE'
_TEXT	ENDS
;	COMDAT ?UnregisterServer@?$CAtlModuleT@VCTMapSvrModule@@@ATL@@QAEJHPBU_GUID@@@Z
_TEXT	SEGMENT PARA USE32 PUBLIC 'CODE'
_TEXT	ENDS
;	COMDAT ?AddCommonRGSReplacements@?$CAtlModuleT@VCTMapSvrModule@@@ATL@@UAEJPAUIRegistrarBase@@@Z
_TEXT	SEGMENT PARA USE32 PUBLIC 'CODE'
_TEXT	ENDS
;	COMDAT ?end@?$_Tree@V?$_Tmap_traits@GPAUtagTMONSPAWN@@U?$less@G@std@@V?$allocator@U?$pair@$$CBGPAUtagTMONSPAWN@@@std@@@3@$0A@@std@@@std@@QAE?AViterator@12@XZ
_TEXT	SEGMENT PARA USE32 PUBLIC 'CODE'
_TEXT	ENDS
;	COMDAT ?find@?$_Tree@V?$_Tmap_traits@GPAUtagTMONSPAWN@@U?$less@G@std@@V?$allocator@U?$pair@$$CBGPAUtagTMONSPAWN@@@std@@@3@$0A@@std@@@std@@QAE?AViterator@12@ABG@Z
_TEXT	SEGMENT PARA USE32 PUBLIC 'CODE'
_TEXT	ENDS
;	COMDAT ??Diterator@?$_Tree@V?$_Tmap_traits@GPAUtagTMONSPAWN@@U?$less@G@std@@V?$allocator@U?$pair@$$CBGPAUtagTMONSPAWN@@@std@@@3@$0A@@std@@@std@@QBEAAU?$pair@$$CBGPAUtagTMONSPAWN@@@2@XZ
_TEXT	SEGMENT PARA USE32 PUBLIC 'CODE'
_TEXT	ENDS
;	COMDAT ??9const_iterator@?$_Tree@V?$_Tmap_traits@GPAUtagTMONSPAWN@@U?$less@G@std@@V?$allocator@U?$pair@$$CBGPAUtagTMONSPAWN@@@std@@@3@$0A@@std@@@std@@QBE_NABV012@@Z
_TEXT	SEGMENT PARA USE32 PUBLIC 'CODE'
_TEXT	ENDS
;	COMDAT ??_G?$CAtlExeModuleT@VCTMapSvrModule@@@ATL@@UAEPAXI@Z
_TEXT	SEGMENT PARA USE32 PUBLIC 'CODE'
_TEXT	ENDS
;	COMDAT ??1?$CAtlModuleT@VCTMapSvrModule@@@ATL@@UAE@XZ
_TEXT	SEGMENT PARA USE32 PUBLIC 'CODE'
_TEXT	ENDS
;	COMDAT ??0?$CStringT@DV?$StrTraitATL@DV?$ChTraitsCRT@D@ATL@@@ATL@@@ATL@@QAE@PAUIAtlStringMgr@1@@Z
_TEXT	SEGMENT PARA USE32 PUBLIC 'CODE'
_TEXT	ENDS
;	COMDAT ?Mid@?$CStringT@DV?$StrTraitATL@DV?$ChTraitsCRT@D@ATL@@@ATL@@@ATL@@QBE?AV12@HH@Z
_TEXT	SEGMENT PARA USE32 PUBLIC 'CODE'
_TEXT	ENDS
;	COMDAT ?FormatV@?$CStringT@DV?$StrTraitATL@DV?$ChTraitsCRT@D@ATL@@@ATL@@@ATL@@QAEXPBDPAD@Z
_TEXT	SEGMENT PARA USE32 PUBLIC 'CODE'
_TEXT	ENDS
;	COMDAT ?GetManager@?$CSimpleStringT@D$0A@@ATL@@QBEPAUIAtlStringMgr@2@XZ
_TEXT	SEGMENT PARA USE32 PUBLIC 'CODE'
_TEXT	ENDS
;	COMDAT ?StringSpanIncluding@?$ChTraitsCRT@D@ATL@@SAHPBD0@Z
_TEXT	SEGMENT PARA USE32 PUBLIC 'CODE'
_TEXT	ENDS
;	COMDAT ?StringSpanExcluding@?$ChTraitsCRT@D@ATL@@SAHPBD0@Z
_TEXT	SEGMENT PARA USE32 PUBLIC 'CODE'
_TEXT	ENDS
;	COMDAT ??R?$less@G@std@@QBE_NABG0@Z
_TEXT	SEGMENT PARA USE32 PUBLIC 'CODE'
_TEXT	ENDS
;	COMDAT ?begin@?$vector@PAUtagQUESTTERM@@V?$allocator@PAUtagQUESTTERM@@@std@@@std@@QAE?AViterator@12@XZ
_TEXT	SEGMENT PARA USE32 PUBLIC 'CODE'
_TEXT	ENDS
;	COMDAT ??Hiterator@?$vector@PAUtagQUESTTERM@@V?$allocator@PAUtagQUESTTERM@@@std@@@std@@QBE?AV012@H@Z
_TEXT	SEGMENT PARA USE32 PUBLIC 'CODE'
_TEXT	ENDS
;	COMDAT ?UninitializeCom@?$CAtlExeModuleT@VCTMapSvrModule@@@ATL@@SAXXZ
_TEXT	SEGMENT PARA USE32 PUBLIC 'CODE'
_TEXT	ENDS
;	COMDAT ?_Key@?$_Tree@V?$_Tmap_traits@GPAUtagTMONSPAWN@@U?$less@G@std@@V?$allocator@U?$pair@$$CBGPAUtagTMONSPAWN@@@std@@@3@$0A@@std@@@std@@KAABGPAU_Node@?$_Tree_nod@V?$_Tmap_traits@GPAUtagTMONSPAWN@@U?$less@G@std@@V?$allocator@U?$pair@$$CBGPAUtagTMONSPAWN@@@std@@@3@$0A@@std@@@2@@Z
_TEXT	SEGMENT PARA USE32 PUBLIC 'CODE'
_TEXT	ENDS
;	COMDAT ?lower_bound@?$_Tree@V?$_Tmap_traits@GPAUtagTMONSPAWN@@U?$less@G@std@@V?$allocator@U?$pair@$$CBGPAUtagTMONSPAWN@@@std@@@3@$0A@@std@@@std@@QAE?AViterator@12@ABG@Z
_TEXT	SEGMENT PARA USE32 PUBLIC 'CODE'
_TEXT	ENDS
;	COMDAT ??0iterator@?$_Tree@V?$_Tmap_traits@GPAUtagTMONSPAWN@@U?$less@G@std@@V?$allocator@U?$pair@$$CBGPAUtagTMONSPAWN@@@std@@@3@$0A@@std@@@std@@QAE@PAU_Node@?$_Tree_nod@V?$_Tmap_traits@GPAUtagTMONSPAWN@@U?$less@G@std@@V?$allocator@U?$pair@$$CBGPAUtagTMONSPAWN@@@std@@@3@$0A@@std@@@2@@Z
_TEXT	SEGMENT PARA USE32 PUBLIC 'CODE'
_TEXT	ENDS
;	COMDAT ??Dconst_iterator@?$_Tree@V?$_Tmap_traits@GPAUtagTMONSPAWN@@U?$less@G@std@@V?$allocator@U?$pair@$$CBGPAUtagTMONSPAWN@@@std@@@3@$0A@@std@@@std@@QBEABU?$pair@$$CBGPAUtagTMONSPAWN@@@2@XZ
_TEXT	SEGMENT PARA USE32 PUBLIC 'CODE'
_TEXT	ENDS
;	COMDAT ??8const_iterator@?$_Tree@V?$_Tmap_traits@GPAUtagTMONSPAWN@@U?$less@G@std@@V?$allocator@U?$pair@$$CBGPAUtagTMONSPAWN@@@std@@@3@$0A@@std@@@std@@QBE_NABV012@@Z
_TEXT	SEGMENT PARA USE32 PUBLIC 'CODE'
_TEXT	ENDS
;	COMDAT ?_Mynode@const_iterator@?$_Tree@V?$_Tmap_traits@GPAUtagTMONSPAWN@@U?$less@G@std@@V?$allocator@U?$pair@$$CBGPAUtagTMONSPAWN@@@std@@@3@$0A@@std@@@std@@QBEPAU_Node@?$_Tree_nod@V?$_Tmap_traits@GPAUtagTMONSPAWN@@U?$less@G@std@@V?$allocator@U?$pair@$$CBGPAUtagTMONSPAWN@@@std@@@3@$0A@@std@@@3@XZ
_TEXT	SEGMENT PARA USE32 PUBLIC 'CODE'
_TEXT	ENDS
;	COMDAT ??0?$CStringT@DV?$StrTraitATL@DV?$ChTraitsCRT@D@ATL@@@ATL@@@ATL@@QAE@PBDHPAUIAtlStringMgr@1@@Z
_TEXT	SEGMENT PARA USE32 PUBLIC 'CODE'
_TEXT	ENDS
;	COMDAT ?_Myval@?$_Tree@V?$_Tmap_traits@GPAUtagTMONSPAWN@@U?$less@G@std@@V?$allocator@U?$pair@$$CBGPAUtagTMONSPAWN@@@std@@@3@$0A@@std@@@std@@KAAAU?$pair@$$CBGPAUtagTMONSPAWN@@@2@PAU_Node@?$_Tree_nod@V?$_Tmap_traits@GPAUtagTMONSPAWN@@U?$less@G@std@@V?$allocator@U?$pair@$$CBGPAUtagTMONSPAWN@@@std@@@3@$0A@@std@@@2@@Z
_TEXT	SEGMENT PARA USE32 PUBLIC 'CODE'
_TEXT	ENDS
;	COMDAT ?_Lbound@?$_Tree@V?$_Tmap_traits@GPAUtagTMONSPAWN@@U?$less@G@std@@V?$allocator@U?$pair@$$CBGPAUtagTMONSPAWN@@@std@@@3@$0A@@std@@@std@@IBEPAU_Node@?$_Tree_nod@V?$_Tmap_traits@GPAUtagTMONSPAWN@@U?$less@G@std@@V?$allocator@U?$pair@$$CBGPAUtagTMONSPAWN@@@std@@@3@$0A@@std@@@2@ABG@Z
_TEXT	SEGMENT PARA USE32 PUBLIC 'CODE'
_TEXT	ENDS
;	COMDAT ?_Kfn@?$_Tmap_traits@GPAUtagTMONSPAWN@@U?$less@G@std@@V?$allocator@U?$pair@$$CBGPAUtagTMONSPAWN@@@std@@@3@$0A@@std@@SAABGABU?$pair@$$CBGPAUtagTMONSPAWN@@@2@@Z
_TEXT	SEGMENT PARA USE32 PUBLIC 'CODE'
_TEXT	ENDS
;	COMDAT ??0const_iterator@?$_Tree@V?$_Tmap_traits@GPAUtagTMONSPAWN@@U?$less@G@std@@V?$allocator@U?$pair@$$CBGPAUtagTMONSPAWN@@@std@@@3@$0A@@std@@@std@@QAE@PAU_Node@?$_Tree_nod@V?$_Tmap_traits@GPAUtagTMONSPAWN@@U?$less@G@std@@V?$allocator@U?$pair@$$CBGPAUtagTMONSPAWN@@@std@@@3@$0A@@std@@@2@@Z
_TEXT	SEGMENT PARA USE32 PUBLIC 'CODE'
_TEXT	ENDS
;	COMDAT ??0?$CSimpleStringT@D$0A@@ATL@@QAE@PBDHPAUIAtlStringMgr@1@@Z
_TEXT	SEGMENT PARA USE32 PUBLIC 'CODE'
_TEXT	ENDS
;	COMDAT ?_Isnil@?$_Tree@V?$_Tmap_traits@GPAUtagTMONSPAWN@@U?$less@G@std@@V?$allocator@U?$pair@$$CBGPAUtagTMONSPAWN@@@std@@@3@$0A@@std@@@std@@KAAADPAU_Node@?$_Tree_nod@V?$_Tmap_traits@GPAUtagTMONSPAWN@@U?$less@G@std@@V?$allocator@U?$pair@$$CBGPAUtagTMONSPAWN@@@std@@@3@$0A@@std@@@2@@Z
_TEXT	SEGMENT PARA USE32 PUBLIC 'CODE'
_TEXT	ENDS
;	COMDAT ?_Left@?$_Tree@V?$_Tmap_traits@GPAUtagTMONSPAWN@@U?$less@G@std@@V?$allocator@U?$pair@$$CBGPAUtagTMONSPAWN@@@std@@@3@$0A@@std@@@std@@KAAAPAU_Node@?$_Tree_nod@V?$_Tmap_traits@GPAUtagTMONSPAWN@@U?$less@G@std@@V?$allocator@U?$pair@$$CBGPAUtagTMONSPAWN@@@std@@@3@$0A@@std@@@2@PAU342@@Z
_TEXT	SEGMENT PARA USE32 PUBLIC 'CODE'
_TEXT	ENDS
;	COMDAT ?_Right@?$_Tree@V?$_Tmap_traits@GPAUtagTMONSPAWN@@U?$less@G@std@@V?$allocator@U?$pair@$$CBGPAUtagTMONSPAWN@@@std@@@3@$0A@@std@@@std@@KAAAPAU_Node@?$_Tree_nod@V?$_Tmap_traits@GPAUtagTMONSPAWN@@U?$less@G@std@@V?$allocator@U?$pair@$$CBGPAUtagTMONSPAWN@@@std@@@3@$0A@@std@@@2@PAU342@@Z
_TEXT	SEGMENT PARA USE32 PUBLIC 'CODE'
_TEXT	ENDS
;	COMDAT ?_Root@?$_Tree@V?$_Tmap_traits@GPAUtagTMONSPAWN@@U?$less@G@std@@V?$allocator@U?$pair@$$CBGPAUtagTMONSPAWN@@@std@@@3@$0A@@std@@@std@@IBEAAPAU_Node@?$_Tree_nod@V?$_Tmap_traits@GPAUtagTMONSPAWN@@U?$less@G@std@@V?$allocator@U?$pair@$$CBGPAUtagTMONSPAWN@@@std@@@3@$0A@@std@@@2@XZ
_TEXT	SEGMENT PARA USE32 PUBLIC 'CODE'
_TEXT	ENDS
;	COMDAT ?_Parent@?$_Tree@V?$_Tmap_traits@GPAUtagTMONSPAWN@@U?$less@G@std@@V?$allocator@U?$pair@$$CBGPAUtagTMONSPAWN@@@std@@@3@$0A@@std@@@std@@KAAAPAU_Node@?$_Tree_nod@V?$_Tmap_traits@GPAUtagTMONSPAWN@@U?$less@G@std@@V?$allocator@U?$pair@$$CBGPAUtagTMONSPAWN@@@std@@@3@$0A@@std@@@2@PAU342@@Z
_TEXT	SEGMENT PARA USE32 PUBLIC 'CODE'
_TEXT	ENDS
;	COMDAT ?Unlock@?$CComCritSecLock@VCComCriticalSection@ATL@@@ATL@@QAEXXZ
_TEXT	SEGMENT PARA USE32 PUBLIC 'CODE'
_TEXT	ENDS
;	COMDAT ??$_Uninit_fill_n@GIG@std@@YAXPAGIABGAAV?$allocator@G@0@U_Scalar_ptr_iterator_tag@0@@Z
_TEXT	SEGMENT PARA USE32 PUBLIC 'CODE'
_TEXT	ENDS
;	COMDAT ??$_Ptr_cat@UtagTAICONDITION@@@std@@YA?AU_Scalar_ptr_iterator_tag@0@PAPAUtagTAICONDITION@@0@Z
_TEXT	SEGMENT PARA USE32 PUBLIC 'CODE'
_TEXT	ENDS
;	COMDAT ??$_Destroy_range@PAUtagTAICONDITION@@V?$allocator@PAUtagTAICONDITION@@@std@@@std@@YAXPAPAUtagTAICONDITION@@0AAV?$allocator@PAUtagTAICONDITION@@@0@U_Scalar_ptr_iterator_tag@0@@Z
_TEXT	SEGMENT PARA USE32 PUBLIC 'CODE'
_TEXT	ENDS
;	COMDAT ??$_Ptr_cat@UtagTMONITEM@@@std@@YA?AU_Scalar_ptr_iterator_tag@0@PAPAUtagTMONITEM@@0@Z
_TEXT	SEGMENT PARA USE32 PUBLIC 'CODE'
_TEXT	ENDS
;	COMDAT ??$_Destroy_range@PAUtagTMONITEM@@V?$allocator@PAUtagTMONITEM@@@std@@@std@@YAXPAPAUtagTMONITEM@@0AAV?$allocator@PAUtagTMONITEM@@@0@U_Scalar_ptr_iterator_tag@0@@Z
_TEXT	SEGMENT PARA USE32 PUBLIC 'CODE'
_TEXT	ENDS
;	COMDAT ??$_Ptr_cat@UtagTMAPMON@@@std@@YA?AU_Scalar_ptr_iterator_tag@0@PAPAUtagTMAPMON@@0@Z
_TEXT	SEGMENT PARA USE32 PUBLIC 'CODE'
_TEXT	ENDS
;	COMDAT ??$_Destroy_range@PAUtagTMAPMON@@V?$allocator@PAUtagTMAPMON@@@std@@@std@@YAXPAPAUtagTMAPMON@@0AAV?$allocator@PAUtagTMAPMON@@@0@U_Scalar_ptr_iterator_tag@0@@Z
_TEXT	SEGMENT PARA USE32 PUBLIC 'CODE'
_TEXT	ENDS
;	COMDAT ??$_Ptr_cat@UtagPATHPOINT@@@std@@YA?AU_Scalar_ptr_iterator_tag@0@PAPAUtagPATHPOINT@@0@Z
_TEXT	SEGMENT PARA USE32 PUBLIC 'CODE'
_TEXT	ENDS
;	COMDAT ??$_Destroy_range@PAUtagPATHPOINT@@V?$allocator@PAUtagPATHPOINT@@@std@@@std@@YAXPAPAUtagPATHPOINT@@0AAV?$allocator@PAUtagPATHPOINT@@@0@U_Scalar_ptr_iterator_tag@0@@Z
_TEXT	SEGMENT PARA USE32 PUBLIC 'CODE'
_TEXT	ENDS
;	COMDAT ??$_Ptr_cat@UtagQUESTCONDITION@@@std@@YA?AU_Scalar_ptr_iterator_tag@0@PAPAUtagQUESTCONDITION@@0@Z
_TEXT	SEGMENT PARA USE32 PUBLIC 'CODE'
_TEXT	ENDS
;	COMDAT ??$_Destroy_range@PAUtagQUESTCONDITION@@V?$allocator@PAUtagQUESTCONDITION@@@std@@@std@@YAXPAPAUtagQUESTCONDITION@@0AAV?$allocator@PAUtagQUESTCONDITION@@@0@U_Scalar_ptr_iterator_tag@0@@Z
_TEXT	SEGMENT PARA USE32 PUBLIC 'CODE'
_TEXT	ENDS
;	COMDAT ??$_Ptr_cat@UtagQUESTREWARD@@@std@@YA?AU_Scalar_ptr_iterator_tag@0@PAPAUtagQUESTREWARD@@0@Z
_TEXT	SEGMENT PARA USE32 PUBLIC 'CODE'
_TEXT	ENDS
;	COMDAT ??$_Destroy_range@PAUtagQUESTREWARD@@V?$allocator@PAUtagQUESTREWARD@@@std@@@std@@YAXPAPAUtagQUESTREWARD@@0AAV?$allocator@PAUtagQUESTREWARD@@@0@U_Scalar_ptr_iterator_tag@0@@Z
_TEXT	SEGMENT PARA USE32 PUBLIC 'CODE'
_TEXT	ENDS
;	COMDAT ??$_Ptr_cat@UtagQUESTTERM@@@std@@YA?AU_Scalar_ptr_iterator_tag@0@PAPAUtagQUESTTERM@@0@Z
_TEXT	SEGMENT PARA USE32 PUBLIC 'CODE'
_TEXT	ENDS
;	COMDAT ??$_Destroy_range@PAUtagQUESTTERM@@V?$allocator@PAUtagQUESTTERM@@@std@@@std@@YAXPAPAUtagQUESTTERM@@0AAV?$allocator@PAUtagQUESTTERM@@@0@U_Scalar_ptr_iterator_tag@0@@Z
_TEXT	SEGMENT PARA USE32 PUBLIC 'CODE'
_TEXT	ENDS
;	COMDAT ??$_Ptr_cat@PAUtagTCASHITMSALE@@PAU1@@std@@YA?AU_Nonscalar_ptr_iterator_tag@0@AAPAUtagTCASHITMSALE@@0@Z
_TEXT	SEGMENT PARA USE32 PUBLIC 'CODE'
_TEXT	ENDS
;	COMDAT ??$_Uninit_fill_n@PAUtagTCASHITMSALE@@IU1@V?$allocator@UtagTCASHITMSALE@@@std@@@std@@YAXPAUtagTCASHITMSALE@@IABU1@AAV?$allocator@UtagTCASHITMSALE@@@0@U_Nonscalar_ptr_iterator_tag@0@@Z
_TEXT	SEGMENT PARA USE32 PUBLIC 'CODE'
_TEXT	ENDS
;	COMDAT ??$_Ptr_cat@PAUtagMONREGEN@@PAU1@@std@@YA?AU_Nonscalar_ptr_iterator_tag@0@AAPAUtagMONREGEN@@0@Z
_TEXT	SEGMENT PARA USE32 PUBLIC 'CODE'
_TEXT	ENDS
;	COMDAT ??$_Uninit_fill_n@PAUtagMONREGEN@@IU1@V?$allocator@UtagMONREGEN@@@std@@@std@@YAXPAUtagMONREGEN@@IABU1@AAV?$allocator@UtagMONREGEN@@@0@U_Nonscalar_ptr_iterator_tag@0@@Z
_TEXT	SEGMENT PARA USE32 PUBLIC 'CODE'
_TEXT	ENDS
;	COMDAT ??$_Ptr_cat@PAUtagLOTTERY@@PAU1@@std@@YA?AU_Nonscalar_ptr_iterator_tag@0@AAPAUtagLOTTERY@@0@Z
_TEXT	SEGMENT PARA USE32 PUBLIC 'CODE'
_TEXT	ENDS
;	COMDAT ??$_Uninit_fill_n@PAUtagLOTTERY@@IU1@V?$allocator@UtagLOTTERY@@@std@@@std@@YAXPAUtagLOTTERY@@IABU1@AAV?$allocator@UtagLOTTERY@@@0@U_Nonscalar_ptr_iterator_tag@0@@Z
_TEXT	SEGMENT PARA USE32 PUBLIC 'CODE'
_TEXT	ENDS
;	COMDAT ??$_Destroy_range@GV?$allocator@G@std@@@std@@YAXPAG0AAV?$allocator@G@0@U_Scalar_ptr_iterator_tag@0@@Z
_TEXT	SEGMENT PARA USE32 PUBLIC 'CODE'
_TEXT	ENDS
;	COMDAT ??$_Uninitialized_copy@PAGPAGV?$allocator@G@std@@@std@@YAPAGPAG00AAV?$allocator@G@0@@Z
_TEXT	SEGMENT PARA USE32 PUBLIC 'CODE'
_TEXT	ENDS
;	COMDAT ??$_Copy_backward_opt@PAGPAG@std@@YAPAGPAG00U_Scalar_ptr_iterator_tag@0@@Z
_TEXT	SEGMENT PARA USE32 PUBLIC 'CODE'
_TEXT	ENDS
;	COMDAT ??$_Ptr_cat@VCTPlayer@@@std@@YA?AU_Scalar_ptr_iterator_tag@0@PAPAVCTPlayer@@0@Z
_TEXT	SEGMENT PARA USE32 PUBLIC 'CODE'
_TEXT	ENDS
;	COMDAT ??$_Destroy_range@PAVCTPlayer@@V?$allocator@PAVCTPlayer@@@std@@@std@@YAXPAPAVCTPlayer@@0AAV?$allocator@PAVCTPlayer@@@0@U_Scalar_ptr_iterator_tag@0@@Z
_TEXT	SEGMENT PARA USE32 PUBLIC 'CODE'
_TEXT	ENDS
;	COMDAT ??$_Destroy_range@UtagTCASHITMSALE@@V?$allocator@UtagTCASHITMSALE@@@std@@@std@@YAXPAUtagTCASHITMSALE@@0AAV?$allocator@UtagTCASHITMSALE@@@0@U_Nonscalar_ptr_iterator_tag@0@@Z
_TEXT	SEGMENT PARA USE32 PUBLIC 'CODE'
_TEXT	ENDS
;	COMDAT ??$_Uninitialized_copy@PAUtagTCASHITMSALE@@PAU1@V?$allocator@UtagTCASHITMSALE@@@std@@@std@@YAPAUtagTCASHITMSALE@@PAU1@00AAV?$allocator@UtagTCASHITMSALE@@@0@@Z
_TEXT	SEGMENT PARA USE32 PUBLIC 'CODE'
_TEXT	ENDS
;	COMDAT ??$_Copy_backward_opt@PAUtagTCASHITMSALE@@PAU1@@std@@YAPAUtagTCASHITMSALE@@PAU1@00U_Nonscalar_ptr_iterator_tag@0@@Z
_TEXT	SEGMENT PARA USE32 PUBLIC 'CODE'
_TEXT	ENDS
;	COMDAT ??$_Destroy_range@UtagMONREGEN@@V?$allocator@UtagMONREGEN@@@std@@@std@@YAXPAUtagMONREGEN@@0AAV?$allocator@UtagMONREGEN@@@0@U_Nonscalar_ptr_iterator_tag@0@@Z
_TEXT	SEGMENT PARA USE32 PUBLIC 'CODE'
_TEXT	ENDS
;	COMDAT ??$_Uninitialized_copy@PAUtagMONREGEN@@PAU1@V?$allocator@UtagMONREGEN@@@std@@@std@@YAPAUtagMONREGEN@@PAU1@00AAV?$allocator@UtagMONREGEN@@@0@@Z
_TEXT	SEGMENT PARA USE32 PUBLIC 'CODE'
_TEXT	ENDS
;	COMDAT ??$_Copy_backward_opt@PAUtagMONREGEN@@PAU1@@std@@YAPAUtagMONREGEN@@PAU1@00U_Nonscalar_ptr_iterator_tag@0@@Z
_TEXT	SEGMENT PARA USE32 PUBLIC 'CODE'
_TEXT	ENDS
;	COMDAT ??$_Destroy_range@UtagLOTTERY@@V?$allocator@UtagLOTTERY@@@std@@@std@@YAXPAUtagLOTTERY@@0AAV?$allocator@UtagLOTTERY@@@0@U_Nonscalar_ptr_iterator_tag@0@@Z
_TEXT	SEGMENT PARA USE32 PUBLIC 'CODE'
_TEXT	ENDS
;	COMDAT ??$_Uninitialized_copy@PAUtagLOTTERY@@PAU1@V?$allocator@UtagLOTTERY@@@std@@@std@@YAPAUtagLOTTERY@@PAU1@00AAV?$allocator@UtagLOTTERY@@@0@@Z
_TEXT	SEGMENT PARA USE32 PUBLIC 'CODE'
_TEXT	ENDS
;	COMDAT ??$_Copy_backward_opt@PAUtagLOTTERY@@PAU1@@std@@YAPAUtagLOTTERY@@PAU1@00U_Nonscalar_ptr_iterator_tag@0@@Z
_TEXT	SEGMENT PARA USE32 PUBLIC 'CODE'
_TEXT	ENDS
;	COMDAT ?construct@?$allocator@UtagTCASHITMSALE@@@std@@QAEXPAUtagTCASHITMSALE@@ABU3@@Z
_TEXT	SEGMENT PARA USE32 PUBLIC 'CODE'
_TEXT	ENDS
;	COMDAT ?destroy@?$allocator@UtagTCASHITMSALE@@@std@@QAEXPAUtagTCASHITMSALE@@@Z
_TEXT	SEGMENT PARA USE32 PUBLIC 'CODE'
_TEXT	ENDS
;	COMDAT ?construct@?$allocator@UtagMONREGEN@@@std@@QAEXPAUtagMONREGEN@@ABU3@@Z
_TEXT	SEGMENT PARA USE32 PUBLIC 'CODE'
_TEXT	ENDS
;	COMDAT ?destroy@?$allocator@UtagMONREGEN@@@std@@QAEXPAUtagMONREGEN@@@Z
_TEXT	SEGMENT PARA USE32 PUBLIC 'CODE'
_TEXT	ENDS
;	COMDAT ?construct@?$allocator@UtagLOTTERY@@@std@@QAEXPAUtagLOTTERY@@ABU3@@Z
_TEXT	SEGMENT PARA USE32 PUBLIC 'CODE'
_TEXT	ENDS
;	COMDAT ?destroy@?$allocator@UtagLOTTERY@@@std@@QAEXPAUtagLOTTERY@@@Z
_TEXT	SEGMENT PARA USE32 PUBLIC 'CODE'
_TEXT	ENDS
;	COMDAT ??$fill_n@PAGIG@std@@YAXPAGIABG@Z
_TEXT	SEGMENT PARA USE32 PUBLIC 'CODE'
_TEXT	ENDS
;	COMDAT ??$_Uninit_copy@GG@std@@YAPAGPAG00AAV?$allocator@G@0@U_Scalar_ptr_iterator_tag@0@@Z
_TEXT	SEGMENT PARA USE32 PUBLIC 'CODE'
_TEXT	ENDS
;	COMDAT ??$_Uninit_copy@PAUtagTCASHITMSALE@@PAU1@V?$allocator@UtagTCASHITMSALE@@@std@@@std@@YAPAUtagTCASHITMSALE@@PAU1@00AAV?$allocator@UtagTCASHITMSALE@@@0@U_Nonscalar_ptr_iterator_tag@0@@Z
_TEXT	SEGMENT PARA USE32 PUBLIC 'CODE'
_TEXT	ENDS
;	COMDAT ??$_Uninit_copy@PAUtagMONREGEN@@PAU1@V?$allocator@UtagMONREGEN@@@std@@@std@@YAPAUtagMONREGEN@@PAU1@00AAV?$allocator@UtagMONREGEN@@@0@U_Nonscalar_ptr_iterator_tag@0@@Z
_TEXT	SEGMENT PARA USE32 PUBLIC 'CODE'
_TEXT	ENDS
;	COMDAT ??$_Uninit_copy@PAUtagLOTTERY@@PAU1@V?$allocator@UtagLOTTERY@@@std@@@std@@YAPAUtagLOTTERY@@PAU1@00AAV?$allocator@UtagLOTTERY@@@0@U_Nonscalar_ptr_iterator_tag@0@@Z
_TEXT	SEGMENT PARA USE32 PUBLIC 'CODE'
_TEXT	ENDS
;	COMDAT ??$_Construct@UtagTCASHITMSALE@@U1@@std@@YAXPAUtagTCASHITMSALE@@ABU1@@Z
_TEXT	SEGMENT PARA USE32 PUBLIC 'CODE'
_TEXT	ENDS
;	COMDAT ??$_Destroy@UtagTCASHITMSALE@@@std@@YAXPAUtagTCASHITMSALE@@@Z
_TEXT	SEGMENT PARA USE32 PUBLIC 'CODE'
_TEXT	ENDS
;	COMDAT ??$_Construct@UtagMONREGEN@@U1@@std@@YAXPAUtagMONREGEN@@ABU1@@Z
_TEXT	SEGMENT PARA USE32 PUBLIC 'CODE'
_TEXT	ENDS
;	COMDAT ??$_Destroy@UtagMONREGEN@@@std@@YAXPAUtagMONREGEN@@@Z
_TEXT	SEGMENT PARA USE32 PUBLIC 'CODE'
_TEXT	ENDS
;	COMDAT ??$_Construct@UtagLOTTERY@@U1@@std@@YAXPAUtagLOTTERY@@ABU1@@Z
_TEXT	SEGMENT PARA USE32 PUBLIC 'CODE'
_TEXT	ENDS
;	COMDAT ??$_Destroy@UtagLOTTERY@@@std@@YAXPAUtagLOTTERY@@@Z
_TEXT	SEGMENT PARA USE32 PUBLIC 'CODE'
_TEXT	ENDS
;	COMDAT ?GetGITPtr@CAtlModule@ATL@@UAEJPAPAUIGlobalInterfaceTable@@@Z
_TEXT	SEGMENT PARA USE32 PUBLIC 'CODE'
_TEXT	ENDS
;	COMDAT __GUID_00000146_0000_0000_c000_000000000046
CONST	SEGMENT DWORD USE32 PUBLIC 'CONST'
CONST	ENDS
;	COMDAT _CLSID_StdGlobalInterfaceTable
CONST	SEGMENT DWORD USE32 PUBLIC 'CONST'
CONST	ENDS
;	COMDAT ?GetLockCount@CAtlModule@ATL@@UAEJXZ
_TEXT	SEGMENT PARA USE32 PUBLIC 'CODE'
_TEXT	ENDS
;	COMDAT ?Lock@CAtlModule@ATL@@UAEJXZ
_TEXT	SEGMENT PARA USE32 PUBLIC 'CODE'
_TEXT	ENDS
;	COMDAT ?Increment@CComMultiThreadModel@ATL@@SGKPAJ@Z
_TEXT	SEGMENT PARA USE32 PUBLIC 'CODE'
_TEXT	ENDS
;	COMDAT ??2@YAPAXIPAX@Z
_TEXT	SEGMENT PARA USE32 PUBLIC 'CODE'
_TEXT	ENDS
;	COMDAT ?_Ptr_cat@std@@YA?AU_Scalar_ptr_iterator_tag@1@PAG0@Z
_TEXT	SEGMENT PARA USE32 PUBLIC 'CODE'
_TEXT	ENDS
;	COMDAT ?_Psave@?$_Facetptr@V?$ctype@G@std@@@std@@2PBVfacet@locale@2@B
_DATA	SEGMENT DWORD USE32 PUBLIC 'DATA'
_DATA	ENDS
;	COMDAT ?_Psave@?$_Facetptr@V?$ctype@D@std@@@std@@2PBVfacet@locale@2@B
_DATA	SEGMENT DWORD USE32 PUBLIC 'DATA'
_DATA	ENDS
;	COMDAT ?Unlock@CComCriticalSection@ATL@@QAEJXZ
_TEXT	SEGMENT PARA USE32 PUBLIC 'CODE'
_TEXT	ENDS
;	COMDAT ?CopyChars@?$CSimpleStringT@D$0A@@ATL@@SAXPADPBDH@Z
_TEXT	SEGMENT PARA USE32 PUBLIC 'CODE'
_TEXT	ENDS
;	COMDAT ?SetLength@?$CSimpleStringT@D$0A@@ATL@@AAEXH@Z
_TEXT	SEGMENT PARA USE32 PUBLIC 'CODE'
_TEXT	ENDS
;	COMDAT ?Attach@?$CSimpleStringT@D$0A@@ATL@@AAEXPAUCStringData@2@@Z
_TEXT	SEGMENT PARA USE32 PUBLIC 'CODE'
_TEXT	ENDS
;	COMDAT ?data@CStringData@ATL@@QAEPAXXZ
_TEXT	SEGMENT PARA USE32 PUBLIC 'CODE'
_TEXT	ENDS
;	COMDAT ?ThrowMemoryException@?$CSimpleStringT@D$0A@@ATL@@KAXXZ
_TEXT	SEGMENT PARA USE32 PUBLIC 'CODE'
_TEXT	ENDS
;	COMDAT ??Yiterator@?$vector@PAUtagQUESTTERM@@V?$allocator@PAUtagQUESTTERM@@@std@@@std@@QAEAAV012@H@Z
_TEXT	SEGMENT PARA USE32 PUBLIC 'CODE'
_TEXT	ENDS
;	COMDAT ??0iterator@?$vector@PAUtagQUESTTERM@@V?$allocator@PAUtagQUESTTERM@@@std@@@std@@QAE@PAPAUtagQUESTTERM@@@Z
_TEXT	SEGMENT PARA USE32 PUBLIC 'CODE'
_TEXT	ENDS
;	COMDAT ??0const_iterator@?$vector@PAUtagQUESTTERM@@V?$allocator@PAUtagQUESTTERM@@@std@@@std@@QAE@PAPAUtagQUESTTERM@@@Z
_TEXT	SEGMENT PARA USE32 PUBLIC 'CODE'
_TEXT	ENDS
;	COMDAT ?GetData@?$CSimpleStringT@D$0A@@ATL@@ABEPAUCStringData@2@XZ
_TEXT	SEGMENT PARA USE32 PUBLIC 'CODE'
_TEXT	ENDS
;	COMDAT ?ReleaseBufferSetLength@?$CSimpleStringT@D$0A@@ATL@@QAEXH@Z
_TEXT	SEGMENT PARA USE32 PUBLIC 'CODE'
_TEXT	ENDS
;	COMDAT ?Format@?$ChTraitsCRT@D@ATL@@SAHPADPBD0@Z
_TEXT	SEGMENT PARA USE32 PUBLIC 'CODE'
_TEXT	ENDS
;	COMDAT ?GetBuffer@?$CSimpleStringT@D$0A@@ATL@@QAEPADH@Z
_TEXT	SEGMENT PARA USE32 PUBLIC 'CODE'
_TEXT	ENDS
;	COMDAT ?PrepareWrite@?$CSimpleStringT@D$0A@@ATL@@AAEPADH@Z
_TEXT	SEGMENT PARA USE32 PUBLIC 'CODE'
_TEXT	ENDS
;	COMDAT ?PrepareWrite2@?$CSimpleStringT@D$0A@@ATL@@AAEXH@Z
_TEXT	SEGMENT PARA USE32 PUBLIC 'CODE'
_TEXT	ENDS
;	COMDAT ?IsShared@CStringData@ATL@@QBE_NXZ
_TEXT	SEGMENT PARA USE32 PUBLIC 'CODE'
_TEXT	ENDS
;	COMDAT ?Fork@?$CSimpleStringT@D$0A@@ATL@@AAEXH@Z
_TEXT	SEGMENT PARA USE32 PUBLIC 'CODE'
_TEXT	ENDS
;	COMDAT ?Release@CStringData@ATL@@QAEXXZ
_TEXT	SEGMENT PARA USE32 PUBLIC 'CODE'
_TEXT	ENDS
;	COMDAT ?Reallocate@?$CSimpleStringT@D$0A@@ATL@@AAEXH@Z
_TEXT	SEGMENT PARA USE32 PUBLIC 'CODE'
_TEXT	ENDS
;	COMDAT ?GetFormattedLength@?$ChTraitsCRT@D@ATL@@SAHPBDPAD@Z
_TEXT	SEGMENT PARA USE32 PUBLIC 'CODE'
_TEXT	ENDS
;	COMDAT ??1?$CSimpleStringT@D$0A@@ATL@@QAE@XZ
_TEXT	SEGMENT PARA USE32 PUBLIC 'CODE'
_TEXT	ENDS
;	COMDAT ??0?$CSimpleStringT@D$0A@@ATL@@QAE@PAUIAtlStringMgr@1@@Z
_TEXT	SEGMENT PARA USE32 PUBLIC 'CODE'
_TEXT	ENDS
;	COMDAT ??1CAtlModule@ATL@@UAE@XZ
_TEXT	SEGMENT PARA USE32 PUBLIC 'CODE'
_TEXT	ENDS
;	COMDAT ?_pPerfUnRegFunc@ATL@@3P6AJXZA
_DATA	SEGMENT DWORD USE32 PUBLIC 'DATA'
_DATA	ENDS
;	COMDAT ?_pPerfRegFunc@ATL@@3P6AJPAUHINSTANCE__@@@ZA
_DATA	SEGMENT DWORD USE32 PUBLIC 'DATA'
_DATA	ENDS
;	COMDAT ?Decrement@CComMultiThreadModel@ATL@@SGKPAJ@Z
_TEXT	SEGMENT PARA USE32 PUBLIC 'CODE'
_TEXT	ENDS
;	COMDAT ?Term@CAtlModule@ATL@@QAEXXZ
_TEXT	SEGMENT PARA USE32 PUBLIC 'CODE'
_TEXT	ENDS
;	COMDAT ?AtlCallTermFunc@ATL@@YGXPAU_ATL_MODULE70@1@@Z
_TEXT	SEGMENT PARA USE32 PUBLIC 'CODE'
_TEXT	ENDS
;	COMDAT ?_AtlRaiseException@ATL@@YAXKK@Z
_TEXT	SEGMENT PARA USE32 PUBLIC 'CODE'
_TEXT	ENDS
;	COMDAT ?Term@CComCriticalSection@ATL@@QAEJXZ
_TEXT	SEGMENT PARA USE32 PUBLIC 'CODE'
_TEXT	ENDS
;	COMDAT ?Unlock@CAtlModule@ATL@@UAEJXZ
_TEXT	SEGMENT PARA USE32 PUBLIC 'CODE'
_TEXT	ENDS
;	COMDAT ??Diterator@?$vector@PAUtagQUESTTERM@@V?$allocator@PAUtagQUESTTERM@@@std@@@std@@QBEAAPAUtagQUESTTERM@@XZ
_TEXT	SEGMENT PARA USE32 PUBLIC 'CODE'
_TEXT	ENDS
;	COMDAT ??Dconst_iterator@?$vector@PAUtagQUESTTERM@@V?$allocator@PAUtagQUESTTERM@@@std@@@std@@QBEABQAUtagQUESTTERM@@XZ
_TEXT	SEGMENT PARA USE32 PUBLIC 'CODE'
_TEXT	ENDS
;	COMDAT ?GetLength@?$CSimpleStringT@D$0A@@ATL@@QBEHXZ
_TEXT	SEGMENT PARA USE32 PUBLIC 'CODE'
_TEXT	ENDS
;	COMDAT ?GetString@?$CSimpleStringT@D$0A@@ATL@@QBEPBDXZ
_TEXT	SEGMENT PARA USE32 PUBLIC 'CODE'
_TEXT	ENDS
;	COMDAT ??0?$CStringT@DV?$StrTraitATL@DV?$ChTraitsCRT@D@ATL@@@ATL@@@ATL@@QAE@ABV01@@Z
_TEXT	SEGMENT PARA USE32 PUBLIC 'CODE'
_TEXT	ENDS
;	COMDAT ??0?$CSimpleStringT@D$0A@@ATL@@QAE@ABV01@@Z
_TEXT	SEGMENT PARA USE32 PUBLIC 'CODE'
_TEXT	ENDS
;	COMDAT ?CloneData@?$CSimpleStringT@D$0A@@ATL@@CAPAUCStringData@2@PAU32@@Z
_TEXT	SEGMENT PARA USE32 PUBLIC 'CODE'
_TEXT	ENDS
;	COMDAT ?IsLocked@CStringData@ATL@@QBE_NXZ
_TEXT	SEGMENT PARA USE32 PUBLIC 'CODE'
_TEXT	ENDS
;	COMDAT ?AddRef@CStringData@ATL@@QAEXXZ
_TEXT	SEGMENT PARA USE32 PUBLIC 'CODE'
_TEXT	ENDS
;	COMDAT ?AtlThrow@ATL@@YGXJ@Z
_TEXT	SEGMENT PARA USE32 PUBLIC 'CODE'
_TEXT	ENDS
;	COMDAT ??0CAtlException@ATL@@QAE@J@Z
_TEXT	SEGMENT PARA USE32 PUBLIC 'CODE'
_TEXT	ENDS
;	COMDAT __TI1?AVCAtlException@ATL@@
xdata$x	SEGMENT DWORD USE32 PUBLIC 'CONST'
xdata$x	ENDS
;	COMDAT __CTA1?AVCAtlException@ATL@@
xdata$x	SEGMENT DWORD USE32 PUBLIC 'CONST'
xdata$x	ENDS
;	COMDAT __CT??_R0?AVCAtlException@ATL@@@84
xdata$x	SEGMENT DWORD USE32 PUBLIC 'CONST'
xdata$x	ENDS
;	COMDAT ??_R0?AVCAtlException@ATL@@@8
_DATA	SEGMENT DWORD USE32 PUBLIC 'DATA'
_DATA	ENDS
;	COMDAT ?size@?$vector@PAUtagQUESTTERM@@V?$allocator@PAUtagQUESTTERM@@@std@@@std@@QBEIXZ
_TEXT	SEGMENT PARA USE32 PUBLIC 'CODE'
_TEXT	ENDS
;	COMDAT ??_7CQuestSpawnMon@@6B@
CONST	SEGMENT DWORD USE32 PUBLIC 'CONST'
CONST	ENDS
;	COMDAT ?AtlLoadString@ATL@@YAHIPADH@Z
_TEXT	SEGMENT PARA USE32 PUBLIC 'CODE'
_TEXT	ENDS
;	COMDAT ??0?$CStringT@DV?$StrTraitATL@DV?$ChTraitsCRT@D@ATL@@@ATL@@@ATL@@QAE@XZ
_TEXT	SEGMENT PARA USE32 PUBLIC 'CODE'
_TEXT	ENDS
;	COMDAT ?GetDefaultManager@?$StrTraitATL@DV?$ChTraitsCRT@D@ATL@@@ATL@@SAPAUIAtlStringMgr@2@XZ
_TEXT	SEGMENT PARA USE32 PUBLIC 'CODE'
_TEXT	ENDS
;	COMDAT ??B?$CSimpleStringT@D$0A@@ATL@@QBEPBDXZ
_TEXT	SEGMENT PARA USE32 PUBLIC 'CODE'
_TEXT	ENDS
;	COMDAT ??4?$CStringT@DV?$StrTraitATL@DV?$ChTraitsCRT@D@ATL@@@ATL@@@ATL@@QAEAAV01@ABV01@@Z
_TEXT	SEGMENT PARA USE32 PUBLIC 'CODE'
_TEXT	ENDS
;	COMDAT ??4?$CSimpleStringT@D$0A@@ATL@@QAEAAV01@ABV01@@Z
_TEXT	SEGMENT PARA USE32 PUBLIC 'CODE'
_TEXT	ENDS
;	COMDAT ?SetString@?$CSimpleStringT@D$0A@@ATL@@QAEXPBDH@Z
_TEXT	SEGMENT PARA USE32 PUBLIC 'CODE'
_TEXT	ENDS
;	COMDAT ?Empty@?$CSimpleStringT@D$0A@@ATL@@QAEXXZ
_TEXT	SEGMENT PARA USE32 PUBLIC 'CODE'
_TEXT	ENDS
;	COMDAT ?CopyCharsOverlapped@?$CSimpleStringT@D$0A@@ATL@@SAXPADPBDH@Z
_TEXT	SEGMENT PARA USE32 PUBLIC 'CODE'
_TEXT	ENDS
;	COMDAT ??1?$CStringT@DV?$StrTraitATL@DV?$ChTraitsCRT@D@ATL@@@ATL@@@ATL@@QAE@XZ
_TEXT	SEGMENT PARA USE32 PUBLIC 'CODE'
_TEXT	ENDS
;	COMDAT ??0?$CStringT@DV?$StrTraitATL@DV?$ChTraitsCRT@D@ATL@@@ATL@@@ATL@@QAE@PBD@Z
_TEXT	SEGMENT PARA USE32 PUBLIC 'CODE'
_TEXT	ENDS
;	COMDAT ?CheckImplicitLoad@?$CStringT@DV?$StrTraitATL@DV?$ChTraitsCRT@D@ATL@@@ATL@@@ATL@@AAE_NPBX@Z
_TEXT	SEGMENT PARA USE32 PUBLIC 'CODE'
_TEXT	ENDS
;	COMDAT ?LoadStringA@?$CStringT@DV?$StrTraitATL@DV?$ChTraitsCRT@D@ATL@@@ATL@@@ATL@@QAEHI@Z
_TEXT	SEGMENT PARA USE32 PUBLIC 'CODE'
_TEXT	ENDS
;	COMDAT ?FindStringResourceInstance@?$StrTraitATL@DV?$ChTraitsCRT@D@ATL@@@ATL@@SAPAUHINSTANCE__@@I@Z
_TEXT	SEGMENT PARA USE32 PUBLIC 'CODE'
_TEXT	ENDS
;	COMDAT ?AtlFindStringResourceInstance@ATL@@YAPAUHINSTANCE__@@IG@Z
_TEXT	SEGMENT PARA USE32 PUBLIC 'CODE'
_TEXT	ENDS
;	COMDAT ?AtlGetStringResourceImage@ATL@@YAPBUATLSTRINGRESOURCEIMAGE@1@PAUHINSTANCE__@@IG@Z
_TEXT	SEGMENT PARA USE32 PUBLIC 'CODE'
_TEXT	ENDS
;	COMDAT ?_AtlGetStringResourceImage@ATL@@YAPBUATLSTRINGRESOURCEIMAGE@1@PAUHINSTANCE__@@PAUHRSRC__@@I@Z
_TEXT	SEGMENT PARA USE32 PUBLIC 'CODE'
_TEXT	ENDS
;	COMDAT ?LoadStringA@?$CStringT@DV?$StrTraitATL@DV?$ChTraitsCRT@D@ATL@@@ATL@@@ATL@@QAEHPAUHINSTANCE__@@I@Z
_TEXT	SEGMENT PARA USE32 PUBLIC 'CODE'
_TEXT	ENDS
;	COMDAT ?AtlGetStringResourceImage@ATL@@YAPBUATLSTRINGRESOURCEIMAGE@1@PAUHINSTANCE__@@I@Z
_TEXT	SEGMENT PARA USE32 PUBLIC 'CODE'
_TEXT	ENDS
;	COMDAT ?GetBaseTypeLength@?$ChTraitsCRT@D@ATL@@SAHPBGH@Z
_TEXT	SEGMENT PARA USE32 PUBLIC 'CODE'
_TEXT	ENDS
;	COMDAT ?_AtlGetConversionACP@ATL@@YGIXZ
_TEXT	SEGMENT PARA USE32 PUBLIC 'CODE'
_TEXT	ENDS
;	COMDAT ?g_pfnGetThreadACP@ATL@@3P6GIXZA
_DATA	SEGMENT DWORD USE32 PUBLIC 'DATA'
_DATA	ENDS
;	COMDAT ?_AtlGetThreadACPThunk@ATL@@YGIXZ
_TEXT	SEGMENT PARA USE32 PUBLIC 'CODE'
_TEXT	ENDS
;	COMDAT ?_AtlGetThreadACPReal@ATL@@YGIXZ
_TEXT	SEGMENT PARA USE32 PUBLIC 'CODE'
_TEXT	ENDS
;	COMDAT ?_AtlGetThreadACPFake@ATL@@YGIXZ
_TEXT	SEGMENT PARA USE32 PUBLIC 'CODE'
_TEXT	ENDS
;	COMDAT ?InterlockedExchangePointer@@YGPAXPAPAXPAX@Z
_TEXT	SEGMENT PARA USE32 PUBLIC 'CODE'
_TEXT	ENDS
;	COMDAT ?ConvertToBaseType@?$ChTraitsCRT@D@ATL@@SAXPADHPBGH@Z
_TEXT	SEGMENT PARA USE32 PUBLIC 'CODE'
_TEXT	ENDS
;	COMDAT ??4?$CStringT@DV?$StrTraitATL@DV?$ChTraitsCRT@D@ATL@@@ATL@@@ATL@@QAEAAV01@PBD@Z
_TEXT	SEGMENT PARA USE32 PUBLIC 'CODE'
_TEXT	ENDS
;	COMDAT ??4?$CSimpleStringT@D$0A@@ATL@@QAEAAV01@PBD@Z
_TEXT	SEGMENT PARA USE32 PUBLIC 'CODE'
_TEXT	ENDS
;	COMDAT ?SetString@?$CSimpleStringT@D$0A@@ATL@@QAEXPBD@Z
_TEXT	SEGMENT PARA USE32 PUBLIC 'CODE'
_TEXT	ENDS
;	COMDAT ?StringLength@?$CSimpleStringT@D$0A@@ATL@@SAHPBD@Z
_TEXT	SEGMENT PARA USE32 PUBLIC 'CODE'
_TEXT	ENDS
;	COMDAT ?WordCmpI@CAtlModule@ATL@@SAHPBD0@Z
_TEXT	SEGMENT PARA USE32 PUBLIC 'CODE'
_TEXT	ENDS
;	COMDAT ?FindOneOf@CAtlModule@ATL@@SAPBDPBD0@Z
_TEXT	SEGMENT PARA USE32 PUBLIC 'CODE'
_TEXT	ENDS
;	COMDAT ?SetStringValue@CRegKey@ATL@@QAEJPBD0K@Z
_TEXT	SEGMENT PARA USE32 PUBLIC 'CODE'
_TEXT	ENDS
;	COMDAT ?DeleteValue@CRegKey@ATL@@QAEJPBD@Z
_TEXT	SEGMENT PARA USE32 PUBLIC 'CODE'
_TEXT	ENDS
;	COMDAT ??BCRegKey@ATL@@QBEPAUHKEY__@@XZ
_TEXT	SEGMENT PARA USE32 PUBLIC 'CODE'
_TEXT	ENDS
;	COMDAT ?Create@CRegKey@ATL@@QAEJPAUHKEY__@@PBDPADKKPAU_SECURITY_ATTRIBUTES@@PAK@Z
_TEXT	SEGMENT PARA USE32 PUBLIC 'CODE'
_TEXT	ENDS
;	COMDAT ?Close@CRegKey@ATL@@QAEJXZ
_TEXT	SEGMENT PARA USE32 PUBLIC 'CODE'
_TEXT	ENDS
;	COMDAT ?AtlHresultFromWin32@ATL@@YAJK@Z
_TEXT	SEGMENT PARA USE32 PUBLIC 'CODE'
_TEXT	ENDS
;	COMDAT ??_C@_05PDIKPLII@AppID?$AA@
CONST	SEGMENT DWORD USE32 PUBLIC 'CONST'
CONST	ENDS
;	COMDAT ?Open@CRegKey@ATL@@QAEJPAUHKEY__@@PBDK@Z
_TEXT	SEGMENT PARA USE32 PUBLIC 'CODE'
_TEXT	ENDS
;	COMDAT ??1CRegKey@ATL@@QAE@XZ
_TEXT	SEGMENT PARA USE32 PUBLIC 'CODE'
_TEXT	ENDS
;	COMDAT ??0CRegKey@ATL@@QAE@XZ
_TEXT	SEGMENT PARA USE32 PUBLIC 'CODE'
_TEXT	ENDS
;	COMDAT ?_pAtlModule@ATL@@3PAVCAtlModule@1@A
_DATA	SEGMENT DWORD USE32 PUBLIC 'DATA'
_DATA	ENDS
;	COMDAT ?UpdateRegistryFromResourceS@CAtlModule@ATL@@QAGJIHPAU_ATL_REGMAP_ENTRY@2@@Z
_TEXT	SEGMENT PARA USE32 PUBLIC 'CODE'
_TEXT	ENDS
;	COMDAT ??0CRegObject@ATL@@QAE@XZ
_TEXT	SEGMENT PARA USE32 PUBLIC 'CODE'
_TEXT	ENDS
;	COMDAT ??0IRegistrarBase@@QAE@XZ
_TEXT	SEGMENT PARA USE32 PUBLIC 'CODE'
_TEXT	ENDS
;	COMDAT ??0IUnknown@@QAE@XZ
_TEXT	SEGMENT PARA USE32 PUBLIC 'CODE'
_TEXT	ENDS
;	COMDAT ??_7CRegObject@ATL@@6B@
CONST	SEGMENT DWORD USE32 PUBLIC 'CONST'
CONST	ENDS
;	COMDAT ?QueryInterface@CRegObject@ATL@@UAGJABU_GUID@@PAPAX@Z
_TEXT	SEGMENT PARA USE32 PUBLIC 'CODE'
_TEXT	ENDS
;	COMDAT ?AddRef@CRegObject@ATL@@UAGKXZ
_TEXT	SEGMENT PARA USE32 PUBLIC 'CODE'
_TEXT	ENDS
;	COMDAT ?Release@CRegObject@ATL@@UAGKXZ
_TEXT	SEGMENT PARA USE32 PUBLIC 'CODE'
_TEXT	ENDS
;	COMDAT ?ClearReplacements@CRegObject@ATL@@UAGJXZ
_TEXT	SEGMENT PARA USE32 PUBLIC 'CODE'
_TEXT	ENDS
;	COMDAT ?Lock@CComFakeCriticalSection@ATL@@QAEJXZ
_TEXT	SEGMENT PARA USE32 PUBLIC 'CODE'
_TEXT	ENDS
;	COMDAT ?ClearReplacements@CExpansionVector@ATL@@QAEJXZ
_TEXT	SEGMENT PARA USE32 PUBLIC 'CODE'
_TEXT	ENDS
;	COMDAT ?GetSize@?$CSimpleMap@PADPAGVCExpansionVectorEqualHelper@ATL@@@ATL@@QBEHXZ
_TEXT	SEGMENT PARA USE32 PUBLIC 'CODE'
_TEXT	ENDS
;	COMDAT ?GetKeyAt@?$CSimpleMap@PADPAGVCExpansionVectorEqualHelper@ATL@@@ATL@@QBEAAPADH@Z
_TEXT	SEGMENT PARA USE32 PUBLIC 'CODE'
_TEXT	ENDS
;	COMDAT ?GetValueAt@?$CSimpleMap@PADPAGVCExpansionVectorEqualHelper@ATL@@@ATL@@QBEAAPAGH@Z
_TEXT	SEGMENT PARA USE32 PUBLIC 'CODE'
_TEXT	ENDS
;	COMDAT ?RemoveAll@?$CSimpleMap@PADPAGVCExpansionVectorEqualHelper@ATL@@@ATL@@QAEXXZ
_TEXT	SEGMENT PARA USE32 PUBLIC 'CODE'
_TEXT	ENDS
;	COMDAT ?Unlock@CComFakeCriticalSection@ATL@@QAEJXZ
_TEXT	SEGMENT PARA USE32 PUBLIC 'CODE'
_TEXT	ENDS
;	COMDAT ??_GCRegObject@ATL@@UAEPAXI@Z
_TEXT	SEGMENT PARA USE32 PUBLIC 'CODE'
_TEXT	ENDS
;	COMDAT ??0CExpansionVector@ATL@@QAE@XZ
_TEXT	SEGMENT PARA USE32 PUBLIC 'CODE'
_TEXT	ENDS
;	COMDAT ??0?$CSimpleMap@PADPAGVCExpansionVectorEqualHelper@ATL@@@ATL@@QAE@XZ
_TEXT	SEGMENT PARA USE32 PUBLIC 'CODE'
_TEXT	ENDS
;	COMDAT ??1?$CSimpleMap@PADPAGVCExpansionVectorEqualHelper@ATL@@@ATL@@QAE@XZ
_TEXT	SEGMENT PARA USE32 PUBLIC 'CODE'
_TEXT	ENDS
;	COMDAT ??1CExpansionVector@ATL@@QAE@XZ
_TEXT	SEGMENT PARA USE32 PUBLIC 'CODE'
_TEXT	ENDS
;	COMDAT ??1CRegObject@ATL@@UAE@XZ
_TEXT	SEGMENT PARA USE32 PUBLIC 'CODE'
_TEXT	ENDS
;	COMDAT ??0?$CAtlSafeAllocBufferManager@VCCRTAllocator@ATL@@@_ATL_SAFE_ALLOCA_IMPL@ATL@@QAE@XZ
_TEXT	SEGMENT PARA USE32 PUBLIC 'CODE'
_TEXT	ENDS
;	COMDAT ??1?$CAtlSafeAllocBufferManager@VCCRTAllocator@ATL@@@_ATL_SAFE_ALLOCA_IMPL@ATL@@QAE@XZ
_TEXT	SEGMENT PARA USE32 PUBLIC 'CODE'
_TEXT	ENDS
;	COMDAT ?Free@CCRTAllocator@ATL@@SAXPAX@Z
_TEXT	SEGMENT PARA USE32 PUBLIC 'CODE'
_TEXT	ENDS
;	COMDAT ?GetModuleInstance@CAtlBaseModule@ATL@@QAEPAUHINSTANCE__@@XZ
_TEXT	SEGMENT PARA USE32 PUBLIC 'CODE'
_TEXT	ENDS
;	COMDAT ?AtlHresultFromLastError@ATL@@YAJXZ
_TEXT	SEGMENT PARA USE32 PUBLIC 'CODE'
_TEXT	ENDS
;	COMDAT ?AtlA2WHelper@@YGPAGPAGPBDHI@Z
_TEXT	SEGMENT PARA USE32 PUBLIC 'CODE'
_TEXT	ENDS
;	COMDAT ?_AtlVerifyStackAvailable@_ATL_SAFE_ALLOCA_IMPL@ATL@@YA_NK@Z
_TEXT	SEGMENT PARA USE32 PUBLIC 'CODE'
_TEXT	ENDS
;	COMDAT ?Allocate@?$CAtlSafeAllocBufferManager@VCCRTAllocator@ATL@@@_ATL_SAFE_ALLOCA_IMPL@ATL@@QAEPAXK@Z
_TEXT	SEGMENT PARA USE32 PUBLIC 'CODE'
_TEXT	ENDS
;	COMDAT ?Allocate@CCRTAllocator@ATL@@SAPAXI@Z
_TEXT	SEGMENT PARA USE32 PUBLIC 'CODE'
_TEXT	ENDS
;	COMDAT ?GetData@CAtlSafeAllocBufferNode@?$CAtlSafeAllocBufferManager@VCCRTAllocator@ATL@@@_ATL_SAFE_ALLOCA_IMPL@ATL@@QAEPAXXZ
_TEXT	SEGMENT PARA USE32 PUBLIC 'CODE'
_TEXT	ENDS
;	COMDAT ?EscapeSingleQuote@CAtlModule@ATL@@SAXPAGPBG@Z
_TEXT	SEGMENT PARA USE32 PUBLIC 'CODE'
_TEXT	ENDS
;	COMDAT ?ocscpy@@YAPAGPAGPBG@Z
_TEXT	SEGMENT PARA USE32 PUBLIC 'CODE'
_TEXT	ENDS
;	COMDAT ?ocslen@@YAHPBG@Z
_TEXT	SEGMENT PARA USE32 PUBLIC 'CODE'
_TEXT	ENDS
;	COMDAT ??_C@_1O@MNLDABAF@?$AAM?$AAo?$AAd?$AAu?$AAl?$AAe?$AA?$AA@
CONST	SEGMENT DWORD USE32 PUBLIC 'CONST'
CONST	ENDS
;	COMDAT ?AddReplacement@CRegObject@ATL@@UAGJPBG0@Z
_TEXT	SEGMENT PARA USE32 PUBLIC 'CODE'
_TEXT	ENDS
;	COMDAT ?AtlW2AHelper@@YGPADPADPBGHI@Z
_TEXT	SEGMENT PARA USE32 PUBLIC 'CODE'
_TEXT	ENDS
;	COMDAT ?Add@CExpansionVector@ATL@@QAEHPBDPBG@Z
_TEXT	SEGMENT PARA USE32 PUBLIC 'CODE'
_TEXT	ENDS
;	COMDAT ?Add@?$CSimpleMap@PADPAGVCExpansionVectorEqualHelper@ATL@@@ATL@@QAEHABQADABQAG@Z
_TEXT	SEGMENT PARA USE32 PUBLIC 'CODE'
_TEXT	ENDS
;	COMDAT ?InternalSetAtIndex@?$CSimpleMap@PADPAGVCExpansionVectorEqualHelper@ATL@@@ATL@@QAEXHABQADABQAG@Z
_TEXT	SEGMENT PARA USE32 PUBLIC 'CODE'
_TEXT	ENDS
;	COMDAT ??$?2PAD@?$Wrapper@PAD@?$CSimpleMap@PADPAGVCExpansionVectorEqualHelper@ATL@@@ATL@@SAPAXIPAPAD@Z
_TEXT	SEGMENT PARA USE32 PUBLIC 'CODE'
_TEXT	ENDS
;	COMDAT ??$?3PAD@?$Wrapper@PAD@?$CSimpleMap@PADPAGVCExpansionVectorEqualHelper@ATL@@@ATL@@SAXPAXPAPAD@Z
_TEXT	SEGMENT PARA USE32 PUBLIC 'CODE'
_TEXT	ENDS
;	COMDAT ??0?$Wrapper@PAD@?$CSimpleMap@PADPAGVCExpansionVectorEqualHelper@ATL@@@ATL@@QAE@ABQAD@Z
_TEXT	SEGMENT PARA USE32 PUBLIC 'CODE'
_TEXT	ENDS
;	COMDAT ??$?2PAG@?$Wrapper@PAG@?$CSimpleMap@PADPAGVCExpansionVectorEqualHelper@ATL@@@ATL@@SAPAXIPAPAG@Z
_TEXT	SEGMENT PARA USE32 PUBLIC 'CODE'
_TEXT	ENDS
;	COMDAT ??$?3PAG@?$Wrapper@PAG@?$CSimpleMap@PADPAGVCExpansionVectorEqualHelper@ATL@@@ATL@@SAXPAXPAPAG@Z
_TEXT	SEGMENT PARA USE32 PUBLIC 'CODE'
_TEXT	ENDS
;	COMDAT ??0?$Wrapper@PAG@?$CSimpleMap@PADPAGVCExpansionVectorEqualHelper@ATL@@@ATL@@QAE@ABQAG@Z
_TEXT	SEGMENT PARA USE32 PUBLIC 'CODE'
_TEXT	ENDS
;	COMDAT ??_C@_1BG@JBACFMF@?$AAM?$AAo?$AAd?$AAu?$AAl?$AAe?$AA_?$AAR?$AAa?$AAw?$AA?$AA@
CONST	SEGMENT DWORD USE32 PUBLIC 'CONST'
CONST	ENDS
;	COMDAT ??_C@_1BC@KAILKFFG@?$AAR?$AAE?$AAG?$AAI?$AAS?$AAT?$AAR?$AAY?$AA?$AA@
CONST	SEGMENT DWORD USE32 PUBLIC 'CONST'
CONST	ENDS
;	COMDAT ?ResourceRegister@CRegObject@ATL@@QAGJPBGI0@Z
_TEXT	SEGMENT PARA USE32 PUBLIC 'CODE'
_TEXT	ENDS
;	COMDAT ?RegisterFromResource@CRegObject@ATL@@IAEJPBGPBD1H@Z
_TEXT	SEGMENT PARA USE32 PUBLIC 'CODE'
_TEXT	ENDS
;	COMDAT ??0CRegParser@ATL@@QAE@PAVCRegObject@1@@Z
_TEXT	SEGMENT PARA USE32 PUBLIC 'CODE'
_TEXT	ENDS
;	COMDAT ??0?$CTempBuffer@D$0EAA@VCCRTAllocator@ATL@@@ATL@@QAE@XZ
_TEXT	SEGMENT PARA USE32 PUBLIC 'CODE'
_TEXT	ENDS
;	COMDAT ??1?$CTempBuffer@D$0EAA@VCCRTAllocator@ATL@@@ATL@@QAE@XZ
_TEXT	SEGMENT PARA USE32 PUBLIC 'CODE'
_TEXT	ENDS
;	COMDAT ?FreeHeap@?$CTempBuffer@D$0EAA@VCCRTAllocator@ATL@@@ATL@@AAEXXZ
_TEXT	SEGMENT PARA USE32 PUBLIC 'CODE'
_TEXT	ENDS
;	COMDAT ?Allocate@?$CTempBuffer@D$0EAA@VCCRTAllocator@ATL@@@ATL@@QAEPADI@Z
_TEXT	SEGMENT PARA USE32 PUBLIC 'CODE'
_TEXT	ENDS
;	COMDAT ?AllocateBytes@?$CTempBuffer@D$0EAA@VCCRTAllocator@ATL@@@ATL@@QAEPADI@Z
_TEXT	SEGMENT PARA USE32 PUBLIC 'CODE'
_TEXT	ENDS
;	COMDAT ?AllocateHeap@?$CTempBuffer@D$0EAA@VCCRTAllocator@ATL@@@ATL@@AAEXI@Z
_TEXT	SEGMENT PARA USE32 PUBLIC 'CODE'
_TEXT	ENDS
;	COMDAT ?RegisterBuffer@CRegParser@ATL@@QAEJPADH@Z
_TEXT	SEGMENT PARA USE32 PUBLIC 'CODE'
_TEXT	ENDS
;	COMDAT ?PreProcessBuffer@CRegParser@ATL@@QAEJPADPAPAD@Z
_TEXT	SEGMENT PARA USE32 PUBLIC 'CODE'
_TEXT	ENDS
;	COMDAT ??0CParseBuffer@CRegParser@ATL@@QAE@H@Z
_TEXT	SEGMENT PARA USE32 PUBLIC 'CODE'
_TEXT	ENDS
;	COMDAT ??1CParseBuffer@CRegParser@ATL@@QAE@XZ
_TEXT	SEGMENT PARA USE32 PUBLIC 'CODE'
_TEXT	ENDS
;	COMDAT ?StrChrA@CRegParser@ATL@@KAPADPADD@Z
_TEXT	SEGMENT PARA USE32 PUBLIC 'CODE'
_TEXT	ENDS
;	COMDAT ?StrFromMap@CRegObject@ATL@@QAEPBGPAD@Z
_TEXT	SEGMENT PARA USE32 PUBLIC 'CODE'
_TEXT	ENDS
;	COMDAT ?Lookup@?$CSimpleMap@PADPAGVCExpansionVectorEqualHelper@ATL@@@ATL@@QBEPAGABQAD@Z
_TEXT	SEGMENT PARA USE32 PUBLIC 'CODE'
_TEXT	ENDS
;	COMDAT ?FindKey@?$CSimpleMap@PADPAGVCExpansionVectorEqualHelper@ATL@@@ATL@@QBEHABQAD@Z
_TEXT	SEGMENT PARA USE32 PUBLIC 'CODE'
_TEXT	ENDS
;	COMDAT ?IsEqualKey@CExpansionVectorEqualHelper@ATL@@SA_NQAD0@Z
_TEXT	SEGMENT PARA USE32 PUBLIC 'CODE'
_TEXT	ENDS
;	COMDAT ?AddString@CParseBuffer@CRegParser@ATL@@QAEHPBG@Z
_TEXT	SEGMENT PARA USE32 PUBLIC 'CODE'
_TEXT	ENDS
;	COMDAT ?Append@CParseBuffer@CRegParser@ATL@@QAEHPBDH@Z
_TEXT	SEGMENT PARA USE32 PUBLIC 'CODE'
_TEXT	ENDS
;	COMDAT ?AddChar@CParseBuffer@CRegParser@ATL@@QAEHPBD@Z
_TEXT	SEGMENT PARA USE32 PUBLIC 'CODE'
_TEXT	ENDS
;	COMDAT ?Detach@CParseBuffer@CRegParser@ATL@@QAEPADXZ
_TEXT	SEGMENT PARA USE32 PUBLIC 'CODE'
_TEXT	ENDS
;	COMDAT ?HKeyFromString@CRegParser@ATL@@KAPAUHKEY__@@PAD@Z
_TEXT	SEGMENT PARA USE32 PUBLIC 'CODE'
_TEXT	ENDS
;	COMDAT ??_C@_04OHBKMIBJ@HKCR?$AA@
CONST	SEGMENT DWORD USE32 PUBLIC 'CONST'
CONST	ENDS
;	COMDAT ??_C@_04KIFLFONO@HKCU?$AA@
CONST	SEGMENT DWORD USE32 PUBLIC 'CONST'
CONST	ENDS
;	COMDAT ??_C@_04CBBMIBLK@HKLM?$AA@
CONST	SEGMENT DWORD USE32 PUBLIC 'CONST'
CONST	ENDS
;	COMDAT ??_C@_03DLBIJLAB@HKU?$AA@
CONST	SEGMENT DWORD USE32 PUBLIC 'CONST'
CONST	ENDS
;	COMDAT ??_C@_04OFOCGAOH@HKPD?$AA@
CONST	SEGMENT DWORD USE32 PUBLIC 'CONST'
CONST	ENDS
;	COMDAT ??_C@_04POMNGLEL@HKDD?$AA@
CONST	SEGMENT DWORD USE32 PUBLIC 'CONST'
CONST	ENDS
;	COMDAT ??_C@_04LEMDOLAJ@HKCC?$AA@
CONST	SEGMENT DWORD USE32 PUBLIC 'CONST'
CONST	ENDS
;	COMDAT ??_C@_0BC@JBJOLKMF@HKEY_CLASSES_ROOT?$AA@
CONST	SEGMENT DWORD USE32 PUBLIC 'CONST'
CONST	ENDS
;	COMDAT ??_C@_0BC@GMMMKLBI@HKEY_CURRENT_USER?$AA@
CONST	SEGMENT DWORD USE32 PUBLIC 'CONST'
CONST	ENDS
;	COMDAT ??_C@_0BD@GIIFIKDM@HKEY_LOCAL_MACHINE?$AA@
CONST	SEGMENT DWORD USE32 PUBLIC 'CONST'
CONST	ENDS
;	COMDAT ??_C@_0L@OEMMANAM@HKEY_USERS?$AA@
CONST	SEGMENT DWORD USE32 PUBLIC 'CONST'
CONST	ENDS
;	COMDAT ??_C@_0BG@IDBEHNDO@HKEY_PERFORMANCE_DATA?$AA@
CONST	SEGMENT DWORD USE32 PUBLIC 'CONST'
CONST	ENDS
;	COMDAT ??_C@_0O@MJDLIIGK@HKEY_DYN_DATA?$AA@
CONST	SEGMENT DWORD USE32 PUBLIC 'CONST'
CONST	ENDS
;	COMDAT ??_C@_0BE@NLNNHLLF@HKEY_CURRENT_CONFIG?$AA@
CONST	SEGMENT DWORD USE32 PUBLIC 'CONST'
CONST	ENDS
;	COMDAT ?map@?2??HKeyFromString@CRegParser@ATL@@KAPAUHKEY__@@PAD@Z@4QBUkeymap@23@B
CONST	SEGMENT DWORD USE32 PUBLIC 'CONST'
CONST	ENDS
;	COMDAT ?NextToken@CRegParser@ATL@@IAEJPAD@Z
_TEXT	SEGMENT PARA USE32 PUBLIC 'CODE'
_TEXT	ENDS
;	COMDAT ?EndOfVar@CRegParser@ATL@@IAEHXZ
_TEXT	SEGMENT PARA USE32 PUBLIC 'CODE'
_TEXT	ENDS
;	COMDAT ?IsSpace@CRegParser@ATL@@IAEHD@Z
_TEXT	SEGMENT PARA USE32 PUBLIC 'CODE'
_TEXT	ENDS
;	COMDAT ?GenerateError@CRegParser@ATL@@IAEJI@Z
_TEXT	SEGMENT PARA USE32 PUBLIC 'CODE'
_TEXT	ENDS
;	COMDAT ?RegisterSubkeys@CRegParser@ATL@@IAEJPADPAUHKEY__@@HH@Z
_TEXT	SEGMENT PARA USE32 PUBLIC 'CODE'
_TEXT	ENDS
;	COMDAT ??_C@_06JBKGCNBB@Delete?$AA@
CONST	SEGMENT DWORD USE32 PUBLIC 'CONST'
CONST	ENDS
;	COMDAT ??_C@_0M@DBGDLGLL@ForceRemove?$AA@
CONST	SEGMENT DWORD USE32 PUBLIC 'CONST'
CONST	ENDS
;	COMDAT ??_C@_08KAAPDIAN@NoRemove?$AA@
CONST	SEGMENT DWORD USE32 PUBLIC 'CONST'
CONST	ENDS
;	COMDAT ??_C@_03LAIAPFCB@Val?$AA@
CONST	SEGMENT DWORD USE32 PUBLIC 'CONST'
CONST	ENDS
;	COMDAT ?AddValue@CRegParser@ATL@@IAEJAAVCRegKey@2@PBDPAD@Z
_TEXT	SEGMENT PARA USE32 PUBLIC 'CODE'
_TEXT	ENDS
;	COMDAT ?VTFromRegType@CRegParser@ATL@@KAHPBDAAG@Z
_TEXT	SEGMENT PARA USE32 PUBLIC 'CODE'
_TEXT	ENDS
;	COMDAT ??_C@_01CPLAODJH@S?$AA@
CONST	SEGMENT DWORD USE32 PUBLIC 'CONST'
CONST	ENDS
;	COMDAT ??_C@_01PLPBNMEI@M?$AA@
CONST	SEGMENT DWORD USE32 PUBLIC 'CONST'
CONST	ENDS
;	COMDAT ??_C@_01CKDDGHAB@D?$AA@
CONST	SEGMENT DWORD USE32 PUBLIC 'CONST'
CONST	ENDS
;	COMDAT ??_C@_01HMGJMAIH@B?$AA@
CONST	SEGMENT DWORD USE32 PUBLIC 'CONST'
CONST	ENDS
;	COMDAT ?map@?2??VTFromRegType@CRegParser@ATL@@KAHPBDAAG@Z@4QBUtypemap@23@B
_DATA	SEGMENT DWORD USE32 PUBLIC 'DATA'
_DATA	ENDS
;	COMDAT ?$S4@?2??VTFromRegType@CRegParser@ATL@@KAHPBDAAG@Z@4IA
_BSS	SEGMENT DWORD USE32 PUBLIC 'BSS'
_BSS	ENDS
;	COMDAT ??0?$CTempBuffer@D$0BAA@VCCRTAllocator@ATL@@@ATL@@QAE@XZ
_TEXT	SEGMENT PARA USE32 PUBLIC 'CODE'
_TEXT	ENDS
;	COMDAT ??1?$CTempBuffer@D$0BAA@VCCRTAllocator@ATL@@@ATL@@QAE@XZ
_TEXT	SEGMENT PARA USE32 PUBLIC 'CODE'
_TEXT	ENDS
;	COMDAT ?FreeHeap@?$CTempBuffer@D$0BAA@VCCRTAllocator@ATL@@@ATL@@AAEXXZ
_TEXT	SEGMENT PARA USE32 PUBLIC 'CODE'
_TEXT	ENDS
;	COMDAT ?Allocate@?$CTempBuffer@D$0BAA@VCCRTAllocator@ATL@@@ATL@@QAEPADI@Z
_TEXT	SEGMENT PARA USE32 PUBLIC 'CODE'
_TEXT	ENDS
;	COMDAT ?AllocateBytes@?$CTempBuffer@D$0BAA@VCCRTAllocator@ATL@@@ATL@@QAEPADI@Z
_TEXT	SEGMENT PARA USE32 PUBLIC 'CODE'
_TEXT	ENDS
;	COMDAT ?AllocateHeap@?$CTempBuffer@D$0BAA@VCCRTAllocator@ATL@@@ATL@@AAEXI@Z
_TEXT	SEGMENT PARA USE32 PUBLIC 'CODE'
_TEXT	ENDS
;	COMDAT ?SetMultiStringValue@CRegKey@ATL@@QAEJPBD0@Z
_TEXT	SEGMENT PARA USE32 PUBLIC 'CODE'
_TEXT	ENDS
;	COMDAT ??B?$CTempBuffer@D$0BAA@VCCRTAllocator@ATL@@@ATL@@QBEPADXZ
_TEXT	SEGMENT PARA USE32 PUBLIC 'CODE'
_TEXT	ENDS
;	COMDAT ?SetDWORDValue@CRegKey@ATL@@QAEJPBDK@Z
_TEXT	SEGMENT PARA USE32 PUBLIC 'CODE'
_TEXT	ENDS
;	COMDAT ??0?$CTempBuffer@E$0BAA@VCCRTAllocator@ATL@@@ATL@@QAE@XZ
_TEXT	SEGMENT PARA USE32 PUBLIC 'CODE'
_TEXT	ENDS
;	COMDAT ??1?$CTempBuffer@E$0BAA@VCCRTAllocator@ATL@@@ATL@@QAE@XZ
_TEXT	SEGMENT PARA USE32 PUBLIC 'CODE'
_TEXT	ENDS
;	COMDAT ?FreeHeap@?$CTempBuffer@E$0BAA@VCCRTAllocator@ATL@@@ATL@@AAEXXZ
_TEXT	SEGMENT PARA USE32 PUBLIC 'CODE'
_TEXT	ENDS
;	COMDAT ?Allocate@?$CTempBuffer@E$0BAA@VCCRTAllocator@ATL@@@ATL@@QAEPAEI@Z
_TEXT	SEGMENT PARA USE32 PUBLIC 'CODE'
_TEXT	ENDS
;	COMDAT ?AllocateBytes@?$CTempBuffer@E$0BAA@VCCRTAllocator@ATL@@@ATL@@QAEPAEI@Z
_TEXT	SEGMENT PARA USE32 PUBLIC 'CODE'
_TEXT	ENDS
;	COMDAT ?AllocateHeap@?$CTempBuffer@E$0BAA@VCCRTAllocator@ATL@@@ATL@@AAEXI@Z
_TEXT	SEGMENT PARA USE32 PUBLIC 'CODE'
_TEXT	ENDS
;	COMDAT ?ChToByte@CRegParser@ATL@@KAED@Z
_TEXT	SEGMENT PARA USE32 PUBLIC 'CODE'
_TEXT	ENDS
;	COMDAT ??B?$CTempBuffer@E$0BAA@VCCRTAllocator@ATL@@@ATL@@QBEPAEXZ
_TEXT	SEGMENT PARA USE32 PUBLIC 'CODE'
_TEXT	ENDS
;	COMDAT ?SkipAssignment@CRegParser@ATL@@IAEJPAD@Z
_TEXT	SEGMENT PARA USE32 PUBLIC 'CODE'
_TEXT	ENDS
;	COMDAT ?HasSubKeys@CRegParser@ATL@@IAEHPAUHKEY__@@@Z
_TEXT	SEGMENT PARA USE32 PUBLIC 'CODE'
_TEXT	ENDS
;	COMDAT ?CanForceRemoveKey@CRegParser@ATL@@IAEHPBD@Z
_TEXT	SEGMENT PARA USE32 PUBLIC 'CODE'
_TEXT	ENDS
;	COMDAT ?rgszNeverDelete@CRegParser@ATL@@1QBQBDB
CONST	SEGMENT DWORD USE32 PUBLIC 'CONST'
CONST	ENDS
;	COMDAT ??_C@_05GIBEAPNE@CLSID?$AA@
CONST	SEGMENT DWORD USE32 PUBLIC 'CONST'
CONST	ENDS
;	COMDAT ??_C@_0BF@HDDNNDFH@Component?5Categories?$AA@
CONST	SEGMENT DWORD USE32 PUBLIC 'CONST'
CONST	ENDS
;	COMDAT ??_C@_08PICKODJL@FileType?$AA@
CONST	SEGMENT DWORD USE32 PUBLIC 'CONST'
CONST	ENDS
;	COMDAT ??_C@_09JKPGEJCH@Interface?$AA@
CONST	SEGMENT DWORD USE32 PUBLIC 'CONST'
CONST	ENDS
;	COMDAT ??_C@_08PPIOJEA@Hardware?$AA@
CONST	SEGMENT DWORD USE32 PUBLIC 'CONST'
CONST	ENDS
;	COMDAT ??_C@_04IHBFOLAC@Mime?$AA@
CONST	SEGMENT DWORD USE32 PUBLIC 'CONST'
CONST	ENDS
;	COMDAT ??_C@_03DDIMFGBA@SAM?$AA@
CONST	SEGMENT DWORD USE32 PUBLIC 'CONST'
CONST	ENDS
;	COMDAT ??_C@_08LOPHEHKG@SECURITY?$AA@
CONST	SEGMENT DWORD USE32 PUBLIC 'CONST'
CONST	ENDS
;	COMDAT ??_C@_06FDHFNJBJ@SYSTEM?$AA@
CONST	SEGMENT DWORD USE32 PUBLIC 'CONST'
CONST	ENDS
;	COMDAT ??_C@_08KEKAJNJI@Software?$AA@
CONST	SEGMENT DWORD USE32 PUBLIC 'CONST'
CONST	ENDS
;	COMDAT ??_C@_07KJLOKDKB@TypeLib?$AA@
CONST	SEGMENT DWORD USE32 PUBLIC 'CONST'
CONST	ENDS
;	COMDAT ?RecurseDeleteKey@CRegKey@ATL@@QAEJPBD@Z
_TEXT	SEGMENT PARA USE32 PUBLIC 'CODE'
_TEXT	ENDS
;	COMDAT ?Attach@CRegKey@ATL@@QAEXPAUHKEY__@@@Z
_TEXT	SEGMENT PARA USE32 PUBLIC 'CODE'
_TEXT	ENDS
;	COMDAT ?DeleteSubKey@CRegKey@ATL@@QAEJPBD@Z
_TEXT	SEGMENT PARA USE32 PUBLIC 'CODE'
_TEXT	ENDS
;	COMDAT ?Detach@CRegKey@ATL@@QAEPAUHKEY__@@XZ
_TEXT	SEGMENT PARA USE32 PUBLIC 'CODE'
_TEXT	ENDS
;	COMDAT ?SkipWhiteSpace@CRegParser@ATL@@IAEXXZ
_TEXT	SEGMENT PARA USE32 PUBLIC 'CODE'
_TEXT	ENDS
;	COMDAT ??B?$CTempBuffer@D$0EAA@VCCRTAllocator@ATL@@@ATL@@QBEPADXZ
_TEXT	SEGMENT PARA USE32 PUBLIC 'CODE'
_TEXT	ENDS
;	COMDAT ?ResourceUnregister@CRegObject@ATL@@QAGJPBGI0@Z
_TEXT	SEGMENT PARA USE32 PUBLIC 'CODE'
_TEXT	ENDS
;	COMDAT ??_C@_1M@PPPPCDEP@?$AAA?$AAP?$AAP?$AAI?$AAD?$AA?$AA@
CONST	SEGMENT DWORD USE32 PUBLIC 'CONST'
CONST	ENDS
;	COMDAT ?m_libid@CAtlModule@ATL@@2U_GUID@@A
_DATA	SEGMENT DWORD USE32 PUBLIC 'DATA'
_DATA	ENDS
sxdata	SEGMENT DWORD USE32 'SXDATA'
sxdata	ENDS
FLAT	GROUP _DATA, CONST, _BSS
	ASSUME	CS: FLAT, DS: FLAT, SS: FLAT
endif

INCLUDELIB LIBCMT
INCLUDELIB OLDNAMES

PUBLIC	?rgszNeverDelete@CRegParser@ATL@@1QBQBDB	; ATL::CRegParser::rgszNeverDelete
PUBLIC	?g_pfnGetThreadACP@ATL@@3P6GIXZA		; ATL::g_pfnGetThreadACP
PUBLIC	?_AtlGetThreadACPThunk@ATL@@YGIXZ		; ATL::_AtlGetThreadACPThunk
PUBLIC	??_C@_0BF@HDDNNDFH@Component?5Categories?$AA@	; `string'
PUBLIC	??_C@_08PICKODJL@FileType?$AA@			; `string'
PUBLIC	??_C@_09JKPGEJCH@Interface?$AA@			; `string'
PUBLIC	??_C@_08PPIOJEA@Hardware?$AA@			; `string'
PUBLIC	??_C@_04IHBFOLAC@Mime?$AA@			; `string'
PUBLIC	??_C@_03DDIMFGBA@SAM?$AA@			; `string'
PUBLIC	??_C@_08LOPHEHKG@SECURITY?$AA@			; `string'
PUBLIC	??_C@_06FDHFNJBJ@SYSTEM?$AA@			; `string'
PUBLIC	??_C@_08KEKAJNJI@Software?$AA@			; `string'
PUBLIC	??_C@_07KJLOKDKB@TypeLib?$AA@			; `string'
PUBLIC	?_pAtlModule@ATL@@3PAVCAtlModule@1@A		; ATL::_pAtlModule
PUBLIC	?m_libid@CAtlModule@ATL@@2U_GUID@@A		; ATL::CAtlModule::m_libid
PUBLIC	_CLSID_StdGlobalInterfaceTable
PUBLIC	??_C@_05GIBEAPNE@CLSID?$AA@			; `string'
PUBLIC	??_C@_05PDIKPLII@AppID?$AA@			; `string'
PUBLIC	??_C@_01CPLAODJH@S?$AA@				; `string'
PUBLIC	??_C@_01PLPBNMEI@M?$AA@				; `string'
PUBLIC	??_C@_01CKDDGHAB@D?$AA@				; `string'
PUBLIC	??_C@_01HMGJMAIH@B?$AA@				; `string'
PUBLIC	??_C@_03LAIAPFCB@Val?$AA@			; `string'
PUBLIC	??_C@_0M@DBGDLGLL@ForceRemove?$AA@		; `string'
PUBLIC	??_C@_08KAAPDIAN@NoRemove?$AA@			; `string'
PUBLIC	??_C@_06JBKGCNBB@Delete?$AA@			; `string'
PUBLIC	?_pPerfRegFunc@ATL@@3P6AJPAUHINSTANCE__@@@ZA	; ATL::_pPerfRegFunc
PUBLIC	?_pPerfUnRegFunc@ATL@@3P6AJXZA			; ATL::_pPerfUnRegFunc
;	COMDAT ?_pAtlModule@ATL@@3PAVCAtlModule@1@A
_BSS	SEGMENT
?_pAtlModule@ATL@@3PAVCAtlModule@1@A DD 01H DUP (?)	; ATL::_pAtlModule
_BSS	ENDS
;	COMDAT ?m_libid@CAtlModule@ATL@@2U_GUID@@A
_BSS	SEGMENT
?m_libid@CAtlModule@ATL@@2U_GUID@@A DB 010H DUP (?)	; ATL::CAtlModule::m_libid
_BSS	ENDS
;	COMDAT ?_pPerfRegFunc@ATL@@3P6AJPAUHINSTANCE__@@@ZA
_BSS	SEGMENT
?_pPerfRegFunc@ATL@@3P6AJPAUHINSTANCE__@@@ZA DD 01H DUP (?) ; ATL::_pPerfRegFunc
_BSS	ENDS
;	COMDAT ?_pPerfUnRegFunc@ATL@@3P6AJXZA
_BSS	SEGMENT
?_pPerfUnRegFunc@ATL@@3P6AJXZA DD 01H DUP (?)		; ATL::_pPerfUnRegFunc
_BSS	ENDS
;	COMDAT ?g_pfnGetThreadACP@ATL@@3P6GIXZA
_DATA	SEGMENT
?g_pfnGetThreadACP@ATL@@3P6GIXZA DD FLAT:?_AtlGetThreadACPThunk@ATL@@YGIXZ ; ATL::g_pfnGetThreadACP
_DATA	ENDS
;	COMDAT _CLSID_StdGlobalInterfaceTable
CONST	SEGMENT
_CLSID_StdGlobalInterfaceTable DD 0323H
	DW	00H
	DW	00H
	DB	0c0H
	DB	00H
	DB	00H
	DB	00H
	DB	00H
	DB	00H
	DB	00H
	DB	046H
CONST	ENDS
;	COMDAT ??_C@_01CPLAODJH@S?$AA@
CONST	SEGMENT
??_C@_01CPLAODJH@S?$AA@ DB 'S', 00H			; `string'
CONST	ENDS
CONST	SEGMENT
_szStringVal DD	FLAT:??_C@_01CPLAODJH@S?$AA@
CONST	ENDS
;	COMDAT ??_C@_01PLPBNMEI@M?$AA@
CONST	SEGMENT
??_C@_01PLPBNMEI@M?$AA@ DB 'M', 00H			; `string'
CONST	ENDS
CONST	SEGMENT
_multiszStringVal DD FLAT:??_C@_01PLPBNMEI@M?$AA@
CONST	ENDS
;	COMDAT ??_C@_01CKDDGHAB@D?$AA@
CONST	SEGMENT
??_C@_01CKDDGHAB@D?$AA@ DB 'D', 00H			; `string'
CONST	ENDS
CONST	SEGMENT
_szDwordVal DD	FLAT:??_C@_01CKDDGHAB@D?$AA@
CONST	ENDS
;	COMDAT ??_C@_01HMGJMAIH@B?$AA@
CONST	SEGMENT
??_C@_01HMGJMAIH@B?$AA@ DB 'B', 00H			; `string'
CONST	ENDS
CONST	SEGMENT
_szBinaryVal DD	FLAT:??_C@_01HMGJMAIH@B?$AA@
CONST	ENDS
;	COMDAT ??_C@_03LAIAPFCB@Val?$AA@
CONST	SEGMENT
??_C@_03LAIAPFCB@Val?$AA@ DB 'Val', 00H			; `string'
CONST	ENDS
CONST	SEGMENT
_szValToken DD	FLAT:??_C@_03LAIAPFCB@Val?$AA@
CONST	ENDS
;	COMDAT ??_C@_0M@DBGDLGLL@ForceRemove?$AA@
CONST	SEGMENT
??_C@_0M@DBGDLGLL@ForceRemove?$AA@ DB 'ForceRemove', 00H ; `string'
CONST	ENDS
CONST	SEGMENT
_szForceRemove DD FLAT:??_C@_0M@DBGDLGLL@ForceRemove?$AA@
CONST	ENDS
;	COMDAT ??_C@_08KAAPDIAN@NoRemove?$AA@
CONST	SEGMENT
??_C@_08KAAPDIAN@NoRemove?$AA@ DB 'NoRemove', 00H	; `string'
CONST	ENDS
CONST	SEGMENT
_szNoRemove DD	FLAT:??_C@_08KAAPDIAN@NoRemove?$AA@
CONST	ENDS
;	COMDAT ??_C@_06JBKGCNBB@Delete?$AA@
CONST	SEGMENT
??_C@_06JBKGCNBB@Delete?$AA@ DB 'Delete', 00H		; `string'
CONST	ENDS
CONST	SEGMENT
_szDelete DD	FLAT:??_C@_06JBKGCNBB@Delete?$AA@
CONST	ENDS
;	COMDAT ??_C@_05PDIKPLII@AppID?$AA@
CONST	SEGMENT
??_C@_05PDIKPLII@AppID?$AA@ DB 'AppID', 00H		; `string'
CONST	ENDS
;	COMDAT ??_C@_05GIBEAPNE@CLSID?$AA@
CONST	SEGMENT
??_C@_05GIBEAPNE@CLSID?$AA@ DB 'CLSID', 00H		; `string'
CONST	ENDS
;	COMDAT ??_C@_0BF@HDDNNDFH@Component?5Categories?$AA@
CONST	SEGMENT
??_C@_0BF@HDDNNDFH@Component?5Categories?$AA@ DB 'Component Categories', 00H ; `string'
CONST	ENDS
;	COMDAT ??_C@_08PICKODJL@FileType?$AA@
CONST	SEGMENT
??_C@_08PICKODJL@FileType?$AA@ DB 'FileType', 00H	; `string'
CONST	ENDS
;	COMDAT ??_C@_09JKPGEJCH@Interface?$AA@
CONST	SEGMENT
??_C@_09JKPGEJCH@Interface?$AA@ DB 'Interface', 00H	; `string'
CONST	ENDS
;	COMDAT ??_C@_08PPIOJEA@Hardware?$AA@
CONST	SEGMENT
??_C@_08PPIOJEA@Hardware?$AA@ DB 'Hardware', 00H	; `string'
CONST	ENDS
;	COMDAT ??_C@_04IHBFOLAC@Mime?$AA@
CONST	SEGMENT
??_C@_04IHBFOLAC@Mime?$AA@ DB 'Mime', 00H		; `string'
CONST	ENDS
;	COMDAT ??_C@_03DDIMFGBA@SAM?$AA@
CONST	SEGMENT
??_C@_03DDIMFGBA@SAM?$AA@ DB 'SAM', 00H			; `string'
CONST	ENDS
;	COMDAT ??_C@_08LOPHEHKG@SECURITY?$AA@
CONST	SEGMENT
??_C@_08LOPHEHKG@SECURITY?$AA@ DB 'SECURITY', 00H	; `string'
CONST	ENDS
;	COMDAT ??_C@_06FDHFNJBJ@SYSTEM?$AA@
CONST	SEGMENT
??_C@_06FDHFNJBJ@SYSTEM?$AA@ DB 'SYSTEM', 00H		; `string'
CONST	ENDS
;	COMDAT ??_C@_08KEKAJNJI@Software?$AA@
CONST	SEGMENT
??_C@_08KEKAJNJI@Software?$AA@ DB 'Software', 00H	; `string'
CONST	ENDS
;	COMDAT ??_C@_07KJLOKDKB@TypeLib?$AA@
CONST	SEGMENT
??_C@_07KJLOKDKB@TypeLib?$AA@ DB 'TypeLib', 00H		; `string'
CONST	ENDS
;	COMDAT ?rgszNeverDelete@CRegParser@ATL@@1QBQBDB
CONST	SEGMENT
?rgszNeverDelete@CRegParser@ATL@@1QBQBDB DD FLAT:??_C@_05PDIKPLII@AppID?$AA@ ; ATL::CRegParser::rgszNeverDelete
	DD	FLAT:??_C@_05GIBEAPNE@CLSID?$AA@
	DD	FLAT:??_C@_0BF@HDDNNDFH@Component?5Categories?$AA@
	DD	FLAT:??_C@_08PICKODJL@FileType?$AA@
	DD	FLAT:??_C@_09JKPGEJCH@Interface?$AA@
	DD	FLAT:??_C@_08PPIOJEA@Hardware?$AA@
	DD	FLAT:??_C@_04IHBFOLAC@Mime?$AA@
	DD	FLAT:??_C@_03DDIMFGBA@SAM?$AA@
	DD	FLAT:??_C@_08LOPHEHKG@SECURITY?$AA@
	DD	FLAT:??_C@_06FDHFNJBJ@SYSTEM?$AA@
	DD	FLAT:??_C@_08KEKAJNJI@Software?$AA@
	DD	FLAT:??_C@_07KJLOKDKB@TypeLib?$AA@
CONST	ENDS
PUBLIC	?ExecQuest@CQuestSpawnMon@@UAEXPAVCTPlayer@@KPAV?$map@EPAV?$map@KPAV?$vector@PAUtagQUESTTEMP@@V?$allocator@PAUtagQUESTTEMP@@@std@@@std@@U?$less@K@2@V?$allocator@U?$pair@$$CBKPAV?$vector@PAUtagQUESTTEMP@@V?$allocator@PAUtagQUESTTEMP@@@std@@@std@@@std@@@2@@std@@U?$less@E@2@V?$allocator@U?$pair@$$CBEPAV?$map@KPAV?$vector@PAUtagQUESTTEMP@@V?$allocator@PAUtagQUESTTEMP@@@std@@@std@@U?$less@K@2@V?$allocator@U?$pair@$$CBKPAV?$vector@PAUtagQUESTTEMP@@V?$allocator@PAUtagQUESTTEMP@@@std@@@std@@@std@@@2@@std@@@std@@@2@@std@@PAV?$map@KPAUtagQUESTTEMP@@U?$less@K@std@@V?$allocator@U?$pair@$$CBKPAUtagQUESTTEMP@@@std@@@3@@4@PAV?$map@GPAUtagTITEM@@U?$less@G@std@@V?$allocator@U?$pair@$$CBGPAUtagTITEM@@@std@@@3@@4@PAV?$map@GPAVCTSkillTemp@@U?$less@G@std@@V?$allocator@U?$pair@$$CBGPAVCTSkillTemp@@@std@@@3@@4@PAV?$map@GPAUtagTMONSTER@@U?$less@G@std@@V?$allocator@U?$pair@$$CBGPAUtagTMONSTER@@@std@@@3@@4@PAV?$map@EPAUtagTSTAT@@U?$less@E@std@@V?$allocator@U?$pair@$$CBEPAUtagTSTAT@@@std@@@3@@4@@Z ; CQuestSpawnMon::ExecQuest
PUBLIC	??0CQuestSpawnMon@@QAE@XZ			; CQuestSpawnMon::CQuestSpawnMon
PUBLIC	??_7CQuestSpawnMon@@6B@				; CQuestSpawnMon::`vftable'
PUBLIC	??_GCQuestSpawnMon@@UAEPAXI@Z			; CQuestSpawnMon::`scalar deleting destructor'
EXTRN	?CheckComplete@CQuest@@UAEPAUtagQUESTTERM@@PAVCTPlayer@@K@Z:NEAR ; CQuest::CheckComplete
EXTRN	?CheckComplete@CQuest@@UAEEPAVCTPlayer@@KPAUtagQUESTTERM@@@Z:NEAR ; CQuest::CheckComplete
EXTRN	??0CQuest@@QAE@XZ:NEAR				; CQuest::CQuest
EXTRN	??_ECQuestSpawnMon@@UAEPAXI@Z:NEAR		; CQuestSpawnMon::`vector deleting destructor'
;	COMDAT ??_7CQuestSpawnMon@@6B@
; File c:\users\pierr\desktop\4story - oldschool\sources\tserver\tmapsvr\questspawnmon.cpp
CONST	SEGMENT
??_7CQuestSpawnMon@@6B@ DD FLAT:?CheckComplete@CQuest@@UAEEPAVCTPlayer@@KPAUtagQUESTTERM@@@Z ; CQuestSpawnMon::`vftable'
	DD	FLAT:?CheckComplete@CQuest@@UAEPAUtagQUESTTERM@@PAVCTPlayer@@K@Z
	DD	FLAT:?ExecQuest@CQuestSpawnMon@@UAEXPAVCTPlayer@@KPAV?$map@EPAV?$map@KPAV?$vector@PAUtagQUESTTEMP@@V?$allocator@PAUtagQUESTTEMP@@@std@@@std@@U?$less@K@2@V?$allocator@U?$pair@$$CBKPAV?$vector@PAUtagQUESTTEMP@@V?$allocator@PAUtagQUESTTEMP@@@std@@@std@@@std@@@2@@std@@U?$less@E@2@V?$allocator@U?$pair@$$CBEPAV?$map@KPAV?$vector@PAUtagQUESTTEMP@@V?$allocator@PAUtagQUESTTEMP@@@std@@@std@@U?$less@K@2@V?$allocator@U?$pair@$$CBKPAV?$vector@PAUtagQUESTTEMP@@V?$allocator@PAUtagQUESTTEMP@@@std@@@std@@@std@@@2@@std@@@std@@@2@@std@@PAV?$map@KPAUtagQUESTTEMP@@U?$less@K@std@@V?$allocator@U?$pair@$$CBKPAUtagQUESTTEMP@@@std@@@3@@4@PAV?$map@GPAUtagTITEM@@U?$less@G@std@@V?$allocator@U?$pair@$$CBGPAUtagTITEM@@@std@@@3@@4@PAV?$map@GPAVCTSkillTemp@@U?$less@G@std@@V?$allocator@U?$pair@$$CBGPAVCTSkillTemp@@@std@@@3@@4@PAV?$map@GPAUtagTMONSTER@@U?$less@G@std@@V?$allocator@U?$pair@$$CBGPAUtagTMONSTER@@@std@@@3@@4@PAV?$map@EPAUtagTSTAT@@U?$less@E@std@@V?$allocator@U?$pair@$$CBEPAUtagTSTAT@@@std@@@3@@4@@Z
	DD	FLAT:??_ECQuestSpawnMon@@UAEPAXI@Z
; Function compile flags: /Ogty
CONST	ENDS
;	COMDAT ??0CQuestSpawnMon@@QAE@XZ
_TEXT	SEGMENT
??0CQuestSpawnMon@@QAE@XZ PROC NEAR			; CQuestSpawnMon::CQuestSpawnMon, COMDAT
; _this$ = ecx

; 14   : {

  00000	56		 push	 esi
  00001	8b f1		 mov	 esi, ecx
  00003	e8 00 00 00 00	 call	 ??0CQuest@@QAE@XZ	; CQuest::CQuest
  00008	c7 06 00 00 00
	00		 mov	 DWORD PTR [esi], OFFSET FLAT:??_7CQuestSpawnMon@@6B@

; 15   : }

  0000e	8b c6		 mov	 eax, esi
  00010	5e		 pop	 esi
  00011	c3		 ret	 0
??0CQuestSpawnMon@@QAE@XZ ENDP				; CQuestSpawnMon::CQuestSpawnMon
_TEXT	ENDS
PUBLIC	??1CQuestSpawnMon@@UAE@XZ			; CQuestSpawnMon::~CQuestSpawnMon
EXTRN	??1CQuest@@UAE@XZ:NEAR				; CQuest::~CQuest
; Function compile flags: /Ogty
;	COMDAT ??1CQuestSpawnMon@@UAE@XZ
_TEXT	SEGMENT
??1CQuestSpawnMon@@UAE@XZ PROC NEAR			; CQuestSpawnMon::~CQuestSpawnMon, COMDAT
; _this$ = ecx

; 18   : {

  00000	c7 01 00 00 00
	00		 mov	 DWORD PTR [ecx], OFFSET FLAT:??_7CQuestSpawnMon@@6B@

; 19   : }

  00006	e9 00 00 00 00	 jmp	 ??1CQuest@@UAE@XZ	; CQuest::~CQuest
??1CQuestSpawnMon@@UAE@XZ ENDP				; CQuestSpawnMon::~CQuestSpawnMon
_TEXT	ENDS
PUBLIC	?InterlockedExchangePointer@@YGPAXPAPAXPAX@Z	; InterlockedExchangePointer
EXTRN	__imp__InterlockedExchange@8:NEAR
; Function compile flags: /Ogty
; File c:\program files (x86)\microsoft visual studio .net 2003\vc7\atlmfc\include\atlconv.h
;	COMDAT ?InterlockedExchangePointer@@YGPAXPAPAXPAX@Z
_TEXT	SEGMENT
_pp$ = 8						; size = 4
_pNew$ = 12						; size = 4
?InterlockedExchangePointer@@YGPAXPAPAXPAX@Z PROC NEAR	; InterlockedExchangePointer, COMDAT

; 92   : 	return( reinterpret_cast<void*>(static_cast<LONG_PTR>(::InterlockedExchange(reinterpret_cast<LONG*>(pp), static_cast<LONG>(reinterpret_cast<LONG_PTR>(pNew))))) );

  00000	ff 25 00 00 00
	00		 jmp	 DWORD PTR __imp__InterlockedExchange@8
?InterlockedExchangePointer@@YGPAXPAPAXPAX@Z ENDP	; InterlockedExchangePointer
_TEXT	ENDS
PUBLIC	?_AtlGetThreadACPFake@ATL@@YGIXZ		; ATL::_AtlGetThreadACPFake
EXTRN	___security_cookie:DWORD
EXTRN	@__security_check_cookie@4:NEAR
EXTRN	__imp__GetACP@0:NEAR
EXTRN	__imp__GetLocaleInfoA@16:NEAR
EXTRN	__imp__GetThreadLocale@0:NEAR
; Function compile flags: /Ogty
;	COMDAT ?_AtlGetThreadACPFake@ATL@@YGIXZ
_TEXT	SEGMENT
_szACP$ = -12						; size = 7
__$ArrayPad$ = -4					; size = 4
__$ReturnAddr$ = 4					; size = 4
?_AtlGetThreadACPFake@ATL@@YGIXZ PROC NEAR		; ATL::_AtlGetThreadACPFake, COMDAT

; 101  : {

  00000	83 ec 0c	 sub	 esp, 12			; 0000000cH
  00003	a1 00 00 00 00	 mov	 eax, DWORD PTR ___security_cookie
  00008	56		 push	 esi
  00009	89 44 24 0c	 mov	 DWORD PTR __$ArrayPad$[esp+16], eax

; 102  : 	UINT nACP = 0;

  0000d	33 f6		 xor	 esi, esi

; 103  : 
; 104  : 	LCID lcidThread = ::GetThreadLocale();

  0000f	ff 15 00 00 00
	00		 call	 DWORD PTR __imp__GetThreadLocale@0

; 105  : 
; 106  : 	char szACP[7];
; 107  : 	// GetLocaleInfoA will fail for a Unicode-only LCID, but those are only supported on 
; 108  : 	// Windows 2000.  Since Windows 2000 supports CP_THREAD_ACP, this code path is never
; 109  : 	// executed on Windows 2000.
; 110  : 	if (::GetLocaleInfoA(lcidThread, LOCALE_IDEFAULTANSICODEPAGE, szACP, 7) != 0)

  00015	6a 07		 push	 7
  00017	8d 4c 24 08	 lea	 ecx, DWORD PTR _szACP$[esp+20]
  0001b	51		 push	 ecx
  0001c	68 04 10 00 00	 push	 4100			; 00001004H
  00021	50		 push	 eax
  00022	ff 15 00 00 00
	00		 call	 DWORD PTR __imp__GetLocaleInfoA@16
  00028	85 c0		 test	 eax, eax
  0002a	74 21		 je	 SHORT $L176372

; 111  : 	{
; 112  : 		char* pch = szACP;
; 113  : 		while (*pch != '\0')

  0002c	8a 44 24 04	 mov	 al, BYTE PTR _szACP$[esp+16]
  00030	84 c0		 test	 al, al
  00032	8d 4c 24 04	 lea	 ecx, DWORD PTR _szACP$[esp+16]
  00036	74 15		 je	 SHORT $L176372
$L58550:

; 114  : 		{
; 115  : 			nACP *= 10;
; 116  : 			nACP += *pch++ - '0';

  00038	0f be c0	 movsx	 eax, al
  0003b	8d 14 b6	 lea	 edx, DWORD PTR [esi+esi*4]
  0003e	41		 inc	 ecx
  0003f	8d 74 50 d0	 lea	 esi, DWORD PTR [eax+edx*2-48]
  00043	8a 01		 mov	 al, BYTE PTR [ecx]
  00045	84 c0		 test	 al, al
  00047	75 ef		 jne	 SHORT $L58550

; 117  : 		}
; 118  : 	}
; 119  : 	// Use the Default ANSI Code Page if we were unable to get the thread ACP or if one does not exist.
; 120  : 	if (nACP == 0)

  00049	85 f6		 test	 esi, esi
  0004b	75 14		 jne	 SHORT $L176373
$L176372:

; 121  : 		nACP = ::GetACP();

  0004d	ff 15 00 00 00
	00		 call	 DWORD PTR __imp__GetACP@0
  00053	5e		 pop	 esi

; 122  : 
; 123  : 	return nACP;
; 124  : }

  00054	8b 4c 24 08	 mov	 ecx, DWORD PTR __$ArrayPad$[esp+12]
  00058	e8 00 00 00 00	 call	 @__security_check_cookie@4
  0005d	83 c4 0c	 add	 esp, 12			; 0000000cH
  00060	c3		 ret	 0
$L176373:
  00061	8b 4c 24 0c	 mov	 ecx, DWORD PTR __$ArrayPad$[esp+16]
  00065	8b c6		 mov	 eax, esi
  00067	5e		 pop	 esi
  00068	e8 00 00 00 00	 call	 @__security_check_cookie@4
  0006d	83 c4 0c	 add	 esp, 12			; 0000000cH
  00070	c3		 ret	 0
?_AtlGetThreadACPFake@ATL@@YGIXZ ENDP			; ATL::_AtlGetThreadACPFake
_TEXT	ENDS
PUBLIC	?_AtlGetThreadACPReal@ATL@@YGIXZ		; ATL::_AtlGetThreadACPReal
; Function compile flags: /Ogty
;	COMDAT ?_AtlGetThreadACPReal@ATL@@YGIXZ
_TEXT	SEGMENT
?_AtlGetThreadACPReal@ATL@@YGIXZ PROC NEAR		; ATL::_AtlGetThreadACPReal, COMDAT

; 128  : 	return( CP_THREAD_ACP );

  00000	b8 03 00 00 00	 mov	 eax, 3

; 129  : }

  00005	c3		 ret	 0
?_AtlGetThreadACPReal@ATL@@YGIXZ ENDP			; ATL::_AtlGetThreadACPReal
_TEXT	ENDS
EXTRN	__imp__GetVersionExA@4:NEAR
; Function compile flags: /Ogty
;	COMDAT ?_AtlGetThreadACPThunk@ATL@@YGIXZ
_TEXT	SEGMENT
_ver$ = -152						; size = 148
__$ArrayPad$ = -4					; size = 4
__$ReturnAddr$ = 4					; size = 4
?_AtlGetThreadACPThunk@ATL@@YGIXZ PROC NEAR		; ATL::_AtlGetThreadACPThunk, COMDAT

; 134  : {

  00000	81 ec 98 00 00
	00		 sub	 esp, 152		; 00000098H
  00006	a1 00 00 00 00	 mov	 eax, DWORD PTR ___security_cookie
  0000b	89 84 24 94 00
	00 00		 mov	 DWORD PTR __$ArrayPad$[esp+152], eax

; 135  : 	OSVERSIONINFO ver;
; 136  : 	ATLGETTHREADACP pfnGetThreadACP;
; 137  : 
; 138  : 	ver.dwOSVersionInfoSize = sizeof( ver );
; 139  : 	::GetVersionEx( &ver );

  00012	8d 04 24	 lea	 eax, DWORD PTR _ver$[esp+152]
  00015	50		 push	 eax
  00016	c7 44 24 04 94
	00 00 00	 mov	 DWORD PTR _ver$[esp+156], 148 ; 00000094H
  0001e	ff 15 00 00 00
	00		 call	 DWORD PTR __imp__GetVersionExA@4

; 140  : 	if( (ver.dwPlatformId == VER_PLATFORM_WIN32_NT) && (ver.dwMajorVersion >= 5) )

  00024	83 7c 24 10 02	 cmp	 DWORD PTR _ver$[esp+168], 2
  00029	75 0c		 jne	 SHORT $L58560
  0002b	83 7c 24 04 05	 cmp	 DWORD PTR _ver$[esp+156], 5

; 141  : 	{
; 142  : 		// On Win2K, CP_THREAD_ACP is supported
; 143  : 		pfnGetThreadACP = _AtlGetThreadACPReal;

  00030	b8 00 00 00 00	 mov	 eax, OFFSET FLAT:?_AtlGetThreadACPReal@ATL@@YGIXZ ; ATL::_AtlGetThreadACPReal
  00035	73 05		 jae	 SHORT $L58561
$L58560:

; 144  : 	}
; 145  : 	else
; 146  : 	{
; 147  : 		pfnGetThreadACP = _AtlGetThreadACPFake;

  00037	b8 00 00 00 00	 mov	 eax, OFFSET FLAT:?_AtlGetThreadACPFake@ATL@@YGIXZ ; ATL::_AtlGetThreadACPFake
$L58561:

; 148  : 	}
; 149  : 	InterlockedExchangePointer( reinterpret_cast< void** >(&g_pfnGetThreadACP), pfnGetThreadACP );

  0003c	50		 push	 eax
  0003d	68 00 00 00 00	 push	 OFFSET FLAT:?g_pfnGetThreadACP@ATL@@3P6GIXZA ; ATL::g_pfnGetThreadACP
  00042	ff 15 00 00 00
	00		 call	 DWORD PTR __imp__InterlockedExchange@8

; 150  : 
; 151  : 	return( g_pfnGetThreadACP() );

  00048	ff 15 00 00 00
	00		 call	 DWORD PTR ?g_pfnGetThreadACP@ATL@@3P6GIXZA ; ATL::g_pfnGetThreadACP

; 152  : }

  0004e	8b 8c 24 94 00
	00 00		 mov	 ecx, DWORD PTR __$ArrayPad$[esp+152]
  00055	e8 00 00 00 00	 call	 @__security_check_cookie@4
  0005a	81 c4 98 00 00
	00		 add	 esp, 152		; 00000098H
  00060	c3		 ret	 0
?_AtlGetThreadACPThunk@ATL@@YGIXZ ENDP			; ATL::_AtlGetThreadACPThunk
_TEXT	ENDS
PUBLIC	??R?$less@G@std@@QBE_NABG0@Z			; std::less<unsigned short>::operator()
; Function compile flags: /Ogty
; File c:\program files (x86)\microsoft visual studio .net 2003\vc7\include\functional
;	COMDAT ??R?$less@G@std@@QBE_NABG0@Z
_TEXT	SEGMENT
__Left$ = 8						; size = 4
__Right$ = 12						; size = 4
??R?$less@G@std@@QBE_NABG0@Z PROC NEAR			; std::less<unsigned short>::operator(), COMDAT
; _this$ = ecx

; 139  : 		return (_Left < _Right);

  00000	8b 44 24 04	 mov	 eax, DWORD PTR __Left$[esp-4]
  00004	66 8b 08	 mov	 cx, WORD PTR [eax]
  00007	8b 54 24 08	 mov	 edx, DWORD PTR __Right$[esp-4]
  0000b	66 3b 0a	 cmp	 cx, WORD PTR [edx]
  0000e	1b c0		 sbb	 eax, eax
  00010	f7 d8		 neg	 eax

; 140  : 		}

  00012	c2 08 00	 ret	 8
??R?$less@G@std@@QBE_NABG0@Z ENDP			; std::less<unsigned short>::operator()
_TEXT	ENDS
PUBLIC	??8const_iterator@?$_Tree@V?$_Tmap_traits@GPAUtagTMONSPAWN@@U?$less@G@std@@V?$allocator@U?$pair@$$CBGPAUtagTMONSPAWN@@@std@@@3@$0A@@std@@@std@@QBE_NABV012@@Z ; std::_Tree<std::_Tmap_traits<unsigned short,tagTMONSPAWN *,std::less<unsigned short>,std::allocator<std::pair<unsigned short const ,tagTMONSPAWN *> >,0> >::const_iterator::operator==
; Function compile flags: /Ogty
; File c:\program files (x86)\microsoft visual studio .net 2003\vc7\include\xtree
;	COMDAT ??8const_iterator@?$_Tree@V?$_Tmap_traits@GPAUtagTMONSPAWN@@U?$less@G@std@@V?$allocator@U?$pair@$$CBGPAUtagTMONSPAWN@@@std@@@3@$0A@@std@@@std@@QBE_NABV012@@Z
_TEXT	SEGMENT
__Right$ = 8						; size = 4
??8const_iterator@?$_Tree@V?$_Tmap_traits@GPAUtagTMONSPAWN@@U?$less@G@std@@V?$allocator@U?$pair@$$CBGPAUtagTMONSPAWN@@@std@@@3@$0A@@std@@@std@@QBE_NABV012@@Z PROC NEAR ; std::_Tree<std::_Tmap_traits<unsigned short,tagTMONSPAWN *,std::less<unsigned short>,std::allocator<std::pair<unsigned short const ,tagTMONSPAWN *> >,0> >::const_iterator::operator==, COMDAT
; _this$ = ecx

; 241  : 			return (_Ptr == _Right._Ptr);

  00000	8b 01		 mov	 eax, DWORD PTR [ecx]
  00002	8b 4c 24 04	 mov	 ecx, DWORD PTR __Right$[esp-4]
  00006	2b 01		 sub	 eax, DWORD PTR [ecx]
  00008	f7 d8		 neg	 eax
  0000a	1b c0		 sbb	 eax, eax
  0000c	40		 inc	 eax

; 242  : 			}

  0000d	c2 04 00	 ret	 4
??8const_iterator@?$_Tree@V?$_Tmap_traits@GPAUtagTMONSPAWN@@U?$less@G@std@@V?$allocator@U?$pair@$$CBGPAUtagTMONSPAWN@@@std@@@3@$0A@@std@@@std@@QBE_NABV012@@Z ENDP ; std::_Tree<std::_Tmap_traits<unsigned short,tagTMONSPAWN *,std::less<unsigned short>,std::allocator<std::pair<unsigned short const ,tagTMONSPAWN *> >,0> >::const_iterator::operator==
_TEXT	ENDS
PUBLIC	?_Mynode@const_iterator@?$_Tree@V?$_Tmap_traits@GPAUtagTMONSPAWN@@U?$less@G@std@@V?$allocator@U?$pair@$$CBGPAUtagTMONSPAWN@@@std@@@3@$0A@@std@@@std@@QBEPAU_Node@?$_Tree_nod@V?$_Tmap_traits@GPAUtagTMONSPAWN@@U?$less@G@std@@V?$allocator@U?$pair@$$CBGPAUtagTMONSPAWN@@@std@@@3@$0A@@std@@@3@XZ ; std::_Tree<std::_Tmap_traits<unsigned short,tagTMONSPAWN *,std::less<unsigned short>,std::allocator<std::pair<unsigned short const ,tagTMONSPAWN *> >,0> >::const_iterator::_Mynode
; Function compile flags: /Ogty
;	COMDAT ?_Mynode@const_iterator@?$_Tree@V?$_Tmap_traits@GPAUtagTMONSPAWN@@U?$less@G@std@@V?$allocator@U?$pair@$$CBGPAUtagTMONSPAWN@@@std@@@3@$0A@@std@@@std@@QBEPAU_Node@?$_Tree_nod@V?$_Tmap_traits@GPAUtagTMONSPAWN@@U?$less@G@std@@V?$allocator@U?$pair@$$CBGPAUtagTMONSPAWN@@@std@@@3@$0A@@std@@@3@XZ
_TEXT	SEGMENT
?_Mynode@const_iterator@?$_Tree@V?$_Tmap_traits@GPAUtagTMONSPAWN@@U?$less@G@std@@V?$allocator@U?$pair@$$CBGPAUtagTMONSPAWN@@@std@@@3@$0A@@std@@@std@@QBEPAU_Node@?$_Tree_nod@V?$_Tmap_traits@GPAUtagTMONSPAWN@@U?$less@G@std@@V?$allocator@U?$pair@$$CBGPAUtagTMONSPAWN@@@std@@@3@$0A@@std@@@3@XZ PROC NEAR ; std::_Tree<std::_Tmap_traits<unsigned short,tagTMONSPAWN *,std::less<unsigned short>,std::allocator<std::pair<unsigned short const ,tagTMONSPAWN *> >,0> >::const_iterator::_Mynode, COMDAT
; _this$ = ecx

; 284  : 			return (_Ptr);

  00000	8b 01		 mov	 eax, DWORD PTR [ecx]

; 285  : 			}

  00002	c3		 ret	 0
?_Mynode@const_iterator@?$_Tree@V?$_Tmap_traits@GPAUtagTMONSPAWN@@U?$less@G@std@@V?$allocator@U?$pair@$$CBGPAUtagTMONSPAWN@@@std@@@3@$0A@@std@@@std@@QBEPAU_Node@?$_Tree_nod@V?$_Tmap_traits@GPAUtagTMONSPAWN@@U?$less@G@std@@V?$allocator@U?$pair@$$CBGPAUtagTMONSPAWN@@@std@@@3@$0A@@std@@@3@XZ ENDP ; std::_Tree<std::_Tmap_traits<unsigned short,tagTMONSPAWN *,std::less<unsigned short>,std::allocator<std::pair<unsigned short const ,tagTMONSPAWN *> >,0> >::const_iterator::_Mynode
_TEXT	ENDS
PUBLIC	?_Myval@?$_Tree@V?$_Tmap_traits@GPAUtagTMONSPAWN@@U?$less@G@std@@V?$allocator@U?$pair@$$CBGPAUtagTMONSPAWN@@@std@@@3@$0A@@std@@@std@@KAAAU?$pair@$$CBGPAUtagTMONSPAWN@@@2@PAU_Node@?$_Tree_nod@V?$_Tmap_traits@GPAUtagTMONSPAWN@@U?$less@G@std@@V?$allocator@U?$pair@$$CBGPAUtagTMONSPAWN@@@std@@@3@$0A@@std@@@2@@Z ; std::_Tree<std::_Tmap_traits<unsigned short,tagTMONSPAWN *,std::less<unsigned short>,std::allocator<std::pair<unsigned short const ,tagTMONSPAWN *> >,0> >::_Myval
; Function compile flags: /Ogty
;	COMDAT ?_Myval@?$_Tree@V?$_Tmap_traits@GPAUtagTMONSPAWN@@U?$less@G@std@@V?$allocator@U?$pair@$$CBGPAUtagTMONSPAWN@@@std@@@3@$0A@@std@@@std@@KAAAU?$pair@$$CBGPAUtagTMONSPAWN@@@2@PAU_Node@?$_Tree_nod@V?$_Tmap_traits@GPAUtagTMONSPAWN@@U?$less@G@std@@V?$allocator@U?$pair@$$CBGPAUtagTMONSPAWN@@@std@@@3@$0A@@std@@@2@@Z
_TEXT	SEGMENT
__Pnode$ = 8						; size = 4
?_Myval@?$_Tree@V?$_Tmap_traits@GPAUtagTMONSPAWN@@U?$less@G@std@@V?$allocator@U?$pair@$$CBGPAUtagTMONSPAWN@@@std@@@3@$0A@@std@@@std@@KAAAU?$pair@$$CBGPAUtagTMONSPAWN@@@2@PAU_Node@?$_Tree_nod@V?$_Tmap_traits@GPAUtagTMONSPAWN@@U?$less@G@std@@V?$allocator@U?$pair@$$CBGPAUtagTMONSPAWN@@@std@@@3@$0A@@std@@@2@@Z PROC NEAR ; std::_Tree<std::_Tmap_traits<unsigned short,tagTMONSPAWN *,std::less<unsigned short>,std::allocator<std::pair<unsigned short const ,tagTMONSPAWN *> >,0> >::_Myval, COMDAT

; 162  : 		return ((_Vref)(*_Pnode)._Myval);

  00000	8b 44 24 04	 mov	 eax, DWORD PTR __Pnode$[esp-4]
  00004	83 c0 0c	 add	 eax, 12			; 0000000cH

; 163  : 		}

  00007	c3		 ret	 0
?_Myval@?$_Tree@V?$_Tmap_traits@GPAUtagTMONSPAWN@@U?$less@G@std@@V?$allocator@U?$pair@$$CBGPAUtagTMONSPAWN@@@std@@@3@$0A@@std@@@std@@KAAAU?$pair@$$CBGPAUtagTMONSPAWN@@@2@PAU_Node@?$_Tree_nod@V?$_Tmap_traits@GPAUtagTMONSPAWN@@U?$less@G@std@@V?$allocator@U?$pair@$$CBGPAUtagTMONSPAWN@@@std@@@3@$0A@@std@@@2@@Z ENDP ; std::_Tree<std::_Tmap_traits<unsigned short,tagTMONSPAWN *,std::less<unsigned short>,std::allocator<std::pair<unsigned short const ,tagTMONSPAWN *> >,0> >::_Myval
_TEXT	ENDS
PUBLIC	?_Kfn@?$_Tmap_traits@GPAUtagTMONSPAWN@@U?$less@G@std@@V?$allocator@U?$pair@$$CBGPAUtagTMONSPAWN@@@std@@@3@$0A@@std@@SAABGABU?$pair@$$CBGPAUtagTMONSPAWN@@@2@@Z ; std::_Tmap_traits<unsigned short,tagTMONSPAWN *,std::less<unsigned short>,std::allocator<std::pair<unsigned short const ,tagTMONSPAWN *> >,0>::_Kfn
; Function compile flags: /Ogty
; File c:\program files (x86)\microsoft visual studio .net 2003\vc7\include\map
;	COMDAT ?_Kfn@?$_Tmap_traits@GPAUtagTMONSPAWN@@U?$less@G@std@@V?$allocator@U?$pair@$$CBGPAUtagTMONSPAWN@@@std@@@3@$0A@@std@@SAABGABU?$pair@$$CBGPAUtagTMONSPAWN@@@2@@Z
_TEXT	SEGMENT
__Val$ = 8						; size = 4
?_Kfn@?$_Tmap_traits@GPAUtagTMONSPAWN@@U?$less@G@std@@V?$allocator@U?$pair@$$CBGPAUtagTMONSPAWN@@@std@@@3@$0A@@std@@SAABGABU?$pair@$$CBGPAUtagTMONSPAWN@@@2@@Z PROC NEAR ; std::_Tmap_traits<unsigned short,tagTMONSPAWN *,std::less<unsigned short>,std::allocator<std::pair<unsigned short const ,tagTMONSPAWN *> >,0>::_Kfn, COMDAT

; 64   : 		return (_Val.first);

  00000	8b 44 24 04	 mov	 eax, DWORD PTR __Val$[esp-4]

; 65   : 		}

  00004	c3		 ret	 0
?_Kfn@?$_Tmap_traits@GPAUtagTMONSPAWN@@U?$less@G@std@@V?$allocator@U?$pair@$$CBGPAUtagTMONSPAWN@@@std@@@3@$0A@@std@@SAABGABU?$pair@$$CBGPAUtagTMONSPAWN@@@2@@Z ENDP ; std::_Tmap_traits<unsigned short,tagTMONSPAWN *,std::less<unsigned short>,std::allocator<std::pair<unsigned short const ,tagTMONSPAWN *> >,0>::_Kfn
_TEXT	ENDS
PUBLIC	??0const_iterator@?$_Tree@V?$_Tmap_traits@GPAUtagTMONSPAWN@@U?$less@G@std@@V?$allocator@U?$pair@$$CBGPAUtagTMONSPAWN@@@std@@@3@$0A@@std@@@std@@QAE@PAU_Node@?$_Tree_nod@V?$_Tmap_traits@GPAUtagTMONSPAWN@@U?$less@G@std@@V?$allocator@U?$pair@$$CBGPAUtagTMONSPAWN@@@std@@@3@$0A@@std@@@2@@Z ; std::_Tree<std::_Tmap_traits<unsigned short,tagTMONSPAWN *,std::less<unsigned short>,std::allocator<std::pair<unsigned short const ,tagTMONSPAWN *> >,0> >::const_iterator::const_iterator
; Function compile flags: /Ogty
; File c:\program files (x86)\microsoft visual studio .net 2003\vc7\include\xtree
;	COMDAT ??0const_iterator@?$_Tree@V?$_Tmap_traits@GPAUtagTMONSPAWN@@U?$less@G@std@@V?$allocator@U?$pair@$$CBGPAUtagTMONSPAWN@@@std@@@3@$0A@@std@@@std@@QAE@PAU_Node@?$_Tree_nod@V?$_Tmap_traits@GPAUtagTMONSPAWN@@U?$less@G@std@@V?$allocator@U?$pair@$$CBGPAUtagTMONSPAWN@@@std@@@3@$0A@@std@@@2@@Z
_TEXT	SEGMENT
__Pnode$ = 8						; size = 4
??0const_iterator@?$_Tree@V?$_Tmap_traits@GPAUtagTMONSPAWN@@U?$less@G@std@@V?$allocator@U?$pair@$$CBGPAUtagTMONSPAWN@@@std@@@3@$0A@@std@@@std@@QAE@PAU_Node@?$_Tree_nod@V?$_Tmap_traits@GPAUtagTMONSPAWN@@U?$less@G@std@@V?$allocator@U?$pair@$$CBGPAUtagTMONSPAWN@@@std@@@3@$0A@@std@@@2@@Z PROC NEAR ; std::_Tree<std::_Tmap_traits<unsigned short,tagTMONSPAWN *,std::less<unsigned short>,std::allocator<std::pair<unsigned short const ,tagTMONSPAWN *> >,0> >::const_iterator::const_iterator, COMDAT
; _this$ = ecx

; 200  : 			{	// construct with node pointer _Pnode

  00000	8b c1		 mov	 eax, ecx
  00002	8b 4c 24 04	 mov	 ecx, DWORD PTR __Pnode$[esp-4]
  00006	89 08		 mov	 DWORD PTR [eax], ecx

; 201  : 			}

  00008	c2 04 00	 ret	 4
??0const_iterator@?$_Tree@V?$_Tmap_traits@GPAUtagTMONSPAWN@@U?$less@G@std@@V?$allocator@U?$pair@$$CBGPAUtagTMONSPAWN@@@std@@@3@$0A@@std@@@std@@QAE@PAU_Node@?$_Tree_nod@V?$_Tmap_traits@GPAUtagTMONSPAWN@@U?$less@G@std@@V?$allocator@U?$pair@$$CBGPAUtagTMONSPAWN@@@std@@@3@$0A@@std@@@2@@Z ENDP ; std::_Tree<std::_Tmap_traits<unsigned short,tagTMONSPAWN *,std::less<unsigned short>,std::allocator<std::pair<unsigned short const ,tagTMONSPAWN *> >,0> >::const_iterator::const_iterator
_TEXT	ENDS
PUBLIC	?_Isnil@?$_Tree@V?$_Tmap_traits@GPAUtagTMONSPAWN@@U?$less@G@std@@V?$allocator@U?$pair@$$CBGPAUtagTMONSPAWN@@@std@@@3@$0A@@std@@@std@@KAAADPAU_Node@?$_Tree_nod@V?$_Tmap_traits@GPAUtagTMONSPAWN@@U?$less@G@std@@V?$allocator@U?$pair@$$CBGPAUtagTMONSPAWN@@@std@@@3@$0A@@std@@@2@@Z ; std::_Tree<std::_Tmap_traits<unsigned short,tagTMONSPAWN *,std::less<unsigned short>,std::allocator<std::pair<unsigned short const ,tagTMONSPAWN *> >,0> >::_Isnil
; Function compile flags: /Ogty
;	COMDAT ?_Isnil@?$_Tree@V?$_Tmap_traits@GPAUtagTMONSPAWN@@U?$less@G@std@@V?$allocator@U?$pair@$$CBGPAUtagTMONSPAWN@@@std@@@3@$0A@@std@@@std@@KAAADPAU_Node@?$_Tree_nod@V?$_Tmap_traits@GPAUtagTMONSPAWN@@U?$less@G@std@@V?$allocator@U?$pair@$$CBGPAUtagTMONSPAWN@@@std@@@3@$0A@@std@@@2@@Z
_TEXT	SEGMENT
__Pnode$ = 8						; size = 4
?_Isnil@?$_Tree@V?$_Tmap_traits@GPAUtagTMONSPAWN@@U?$less@G@std@@V?$allocator@U?$pair@$$CBGPAUtagTMONSPAWN@@@std@@@3@$0A@@std@@@std@@KAAADPAU_Node@?$_Tree_nod@V?$_Tmap_traits@GPAUtagTMONSPAWN@@U?$less@G@std@@V?$allocator@U?$pair@$$CBGPAUtagTMONSPAWN@@@std@@@3@$0A@@std@@@2@@Z PROC NEAR ; std::_Tree<std::_Tmap_traits<unsigned short,tagTMONSPAWN *,std::less<unsigned short>,std::allocator<std::pair<unsigned short const ,tagTMONSPAWN *> >,0> >::_Isnil, COMDAT

; 137  : 		return ((_Charref)(*_Pnode)._Isnil);

  00000	8b 44 24 04	 mov	 eax, DWORD PTR __Pnode$[esp-4]
  00004	83 c0 15	 add	 eax, 21			; 00000015H

; 138  : 		}

  00007	c3		 ret	 0
?_Isnil@?$_Tree@V?$_Tmap_traits@GPAUtagTMONSPAWN@@U?$less@G@std@@V?$allocator@U?$pair@$$CBGPAUtagTMONSPAWN@@@std@@@3@$0A@@std@@@std@@KAAADPAU_Node@?$_Tree_nod@V?$_Tmap_traits@GPAUtagTMONSPAWN@@U?$less@G@std@@V?$allocator@U?$pair@$$CBGPAUtagTMONSPAWN@@@std@@@3@$0A@@std@@@2@@Z ENDP ; std::_Tree<std::_Tmap_traits<unsigned short,tagTMONSPAWN *,std::less<unsigned short>,std::allocator<std::pair<unsigned short const ,tagTMONSPAWN *> >,0> >::_Isnil
_TEXT	ENDS
PUBLIC	?_Left@?$_Tree@V?$_Tmap_traits@GPAUtagTMONSPAWN@@U?$less@G@std@@V?$allocator@U?$pair@$$CBGPAUtagTMONSPAWN@@@std@@@3@$0A@@std@@@std@@KAAAPAU_Node@?$_Tree_nod@V?$_Tmap_traits@GPAUtagTMONSPAWN@@U?$less@G@std@@V?$allocator@U?$pair@$$CBGPAUtagTMONSPAWN@@@std@@@3@$0A@@std@@@2@PAU342@@Z ; std::_Tree<std::_Tmap_traits<unsigned short,tagTMONSPAWN *,std::less<unsigned short>,std::allocator<std::pair<unsigned short const ,tagTMONSPAWN *> >,0> >::_Left
; Function compile flags: /Ogty
;	COMDAT ?_Left@?$_Tree@V?$_Tmap_traits@GPAUtagTMONSPAWN@@U?$less@G@std@@V?$allocator@U?$pair@$$CBGPAUtagTMONSPAWN@@@std@@@3@$0A@@std@@@std@@KAAAPAU_Node@?$_Tree_nod@V?$_Tmap_traits@GPAUtagTMONSPAWN@@U?$less@G@std@@V?$allocator@U?$pair@$$CBGPAUtagTMONSPAWN@@@std@@@3@$0A@@std@@@2@PAU342@@Z
_TEXT	SEGMENT
__Pnode$ = 8						; size = 4
?_Left@?$_Tree@V?$_Tmap_traits@GPAUtagTMONSPAWN@@U?$less@G@std@@V?$allocator@U?$pair@$$CBGPAUtagTMONSPAWN@@@std@@@3@$0A@@std@@@std@@KAAAPAU_Node@?$_Tree_nod@V?$_Tmap_traits@GPAUtagTMONSPAWN@@U?$less@G@std@@V?$allocator@U?$pair@$$CBGPAUtagTMONSPAWN@@@std@@@3@$0A@@std@@@2@PAU342@@Z PROC NEAR ; std::_Tree<std::_Tmap_traits<unsigned short,tagTMONSPAWN *,std::less<unsigned short>,std::allocator<std::pair<unsigned short const ,tagTMONSPAWN *> >,0> >::_Left, COMDAT

; 147  : 		return ((_Nodepref)(*_Pnode)._Left);

  00000	8b 44 24 04	 mov	 eax, DWORD PTR __Pnode$[esp-4]

; 148  : 		}

  00004	c3		 ret	 0
?_Left@?$_Tree@V?$_Tmap_traits@GPAUtagTMONSPAWN@@U?$less@G@std@@V?$allocator@U?$pair@$$CBGPAUtagTMONSPAWN@@@std@@@3@$0A@@std@@@std@@KAAAPAU_Node@?$_Tree_nod@V?$_Tmap_traits@GPAUtagTMONSPAWN@@U?$less@G@std@@V?$allocator@U?$pair@$$CBGPAUtagTMONSPAWN@@@std@@@3@$0A@@std@@@2@PAU342@@Z ENDP ; std::_Tree<std::_Tmap_traits<unsigned short,tagTMONSPAWN *,std::less<unsigned short>,std::allocator<std::pair<unsigned short const ,tagTMONSPAWN *> >,0> >::_Left
_TEXT	ENDS
PUBLIC	?_Right@?$_Tree@V?$_Tmap_traits@GPAUtagTMONSPAWN@@U?$less@G@std@@V?$allocator@U?$pair@$$CBGPAUtagTMONSPAWN@@@std@@@3@$0A@@std@@@std@@KAAAPAU_Node@?$_Tree_nod@V?$_Tmap_traits@GPAUtagTMONSPAWN@@U?$less@G@std@@V?$allocator@U?$pair@$$CBGPAUtagTMONSPAWN@@@std@@@3@$0A@@std@@@2@PAU342@@Z ; std::_Tree<std::_Tmap_traits<unsigned short,tagTMONSPAWN *,std::less<unsigned short>,std::allocator<std::pair<unsigned short const ,tagTMONSPAWN *> >,0> >::_Right
; Function compile flags: /Ogty
;	COMDAT ?_Right@?$_Tree@V?$_Tmap_traits@GPAUtagTMONSPAWN@@U?$less@G@std@@V?$allocator@U?$pair@$$CBGPAUtagTMONSPAWN@@@std@@@3@$0A@@std@@@std@@KAAAPAU_Node@?$_Tree_nod@V?$_Tmap_traits@GPAUtagTMONSPAWN@@U?$less@G@std@@V?$allocator@U?$pair@$$CBGPAUtagTMONSPAWN@@@std@@@3@$0A@@std@@@2@PAU342@@Z
_TEXT	SEGMENT
__Pnode$ = 8						; size = 4
?_Right@?$_Tree@V?$_Tmap_traits@GPAUtagTMONSPAWN@@U?$less@G@std@@V?$allocator@U?$pair@$$CBGPAUtagTMONSPAWN@@@std@@@3@$0A@@std@@@std@@KAAAPAU_Node@?$_Tree_nod@V?$_Tmap_traits@GPAUtagTMONSPAWN@@U?$less@G@std@@V?$allocator@U?$pair@$$CBGPAUtagTMONSPAWN@@@std@@@3@$0A@@std@@@2@PAU342@@Z PROC NEAR ; std::_Tree<std::_Tmap_traits<unsigned short,tagTMONSPAWN *,std::less<unsigned short>,std::allocator<std::pair<unsigned short const ,tagTMONSPAWN *> >,0> >::_Right, COMDAT

; 157  : 		return ((_Nodepref)(*_Pnode)._Right);

  00000	8b 44 24 04	 mov	 eax, DWORD PTR __Pnode$[esp-4]
  00004	83 c0 08	 add	 eax, 8

; 158  : 		}

  00007	c3		 ret	 0
?_Right@?$_Tree@V?$_Tmap_traits@GPAUtagTMONSPAWN@@U?$less@G@std@@V?$allocator@U?$pair@$$CBGPAUtagTMONSPAWN@@@std@@@3@$0A@@std@@@std@@KAAAPAU_Node@?$_Tree_nod@V?$_Tmap_traits@GPAUtagTMONSPAWN@@U?$less@G@std@@V?$allocator@U?$pair@$$CBGPAUtagTMONSPAWN@@@std@@@3@$0A@@std@@@2@PAU342@@Z ENDP ; std::_Tree<std::_Tmap_traits<unsigned short,tagTMONSPAWN *,std::less<unsigned short>,std::allocator<std::pair<unsigned short const ,tagTMONSPAWN *> >,0> >::_Right
_TEXT	ENDS
PUBLIC	?_Parent@?$_Tree@V?$_Tmap_traits@GPAUtagTMONSPAWN@@U?$less@G@std@@V?$allocator@U?$pair@$$CBGPAUtagTMONSPAWN@@@std@@@3@$0A@@std@@@std@@KAAAPAU_Node@?$_Tree_nod@V?$_Tmap_traits@GPAUtagTMONSPAWN@@U?$less@G@std@@V?$allocator@U?$pair@$$CBGPAUtagTMONSPAWN@@@std@@@3@$0A@@std@@@2@PAU342@@Z ; std::_Tree<std::_Tmap_traits<unsigned short,tagTMONSPAWN *,std::less<unsigned short>,std::allocator<std::pair<unsigned short const ,tagTMONSPAWN *> >,0> >::_Parent
; Function compile flags: /Ogty
;	COMDAT ?_Parent@?$_Tree@V?$_Tmap_traits@GPAUtagTMONSPAWN@@U?$less@G@std@@V?$allocator@U?$pair@$$CBGPAUtagTMONSPAWN@@@std@@@3@$0A@@std@@@std@@KAAAPAU_Node@?$_Tree_nod@V?$_Tmap_traits@GPAUtagTMONSPAWN@@U?$less@G@std@@V?$allocator@U?$pair@$$CBGPAUtagTMONSPAWN@@@std@@@3@$0A@@std@@@2@PAU342@@Z
_TEXT	SEGMENT
__Pnode$ = 8						; size = 4
?_Parent@?$_Tree@V?$_Tmap_traits@GPAUtagTMONSPAWN@@U?$less@G@std@@V?$allocator@U?$pair@$$CBGPAUtagTMONSPAWN@@@std@@@3@$0A@@std@@@std@@KAAAPAU_Node@?$_Tree_nod@V?$_Tmap_traits@GPAUtagTMONSPAWN@@U?$less@G@std@@V?$allocator@U?$pair@$$CBGPAUtagTMONSPAWN@@@std@@@3@$0A@@std@@@2@PAU342@@Z PROC NEAR ; std::_Tree<std::_Tmap_traits<unsigned short,tagTMONSPAWN *,std::less<unsigned short>,std::allocator<std::pair<unsigned short const ,tagTMONSPAWN *> >,0> >::_Parent, COMDAT

; 152  : 		return ((_Nodepref)(*_Pnode)._Parent);

  00000	8b 44 24 04	 mov	 eax, DWORD PTR __Pnode$[esp-4]
  00004	83 c0 04	 add	 eax, 4

; 153  : 		}

  00007	c3		 ret	 0
?_Parent@?$_Tree@V?$_Tmap_traits@GPAUtagTMONSPAWN@@U?$less@G@std@@V?$allocator@U?$pair@$$CBGPAUtagTMONSPAWN@@@std@@@3@$0A@@std@@@std@@KAAAPAU_Node@?$_Tree_nod@V?$_Tmap_traits@GPAUtagTMONSPAWN@@U?$less@G@std@@V?$allocator@U?$pair@$$CBGPAUtagTMONSPAWN@@@std@@@3@$0A@@std@@@2@PAU342@@Z ENDP ; std::_Tree<std::_Tmap_traits<unsigned short,tagTMONSPAWN *,std::less<unsigned short>,std::allocator<std::pair<unsigned short const ,tagTMONSPAWN *> >,0> >::_Parent
_TEXT	ENDS
PUBLIC	?size@?$vector@PAUtagQUESTTERM@@V?$allocator@PAUtagQUESTTERM@@@std@@@std@@QBEIXZ ; std::vector<tagQUESTTERM *,std::allocator<tagQUESTTERM *> >::size
; Function compile flags: /Ogty
; File c:\program files (x86)\microsoft visual studio .net 2003\vc7\include\vector
;	COMDAT ?size@?$vector@PAUtagQUESTTERM@@V?$allocator@PAUtagQUESTTERM@@@std@@@std@@QBEIXZ
_TEXT	SEGMENT
?size@?$vector@PAUtagQUESTTERM@@V?$allocator@PAUtagQUESTTERM@@@std@@@std@@QBEIXZ PROC NEAR ; std::vector<tagQUESTTERM *,std::allocator<tagQUESTTERM *> >::size, COMDAT
; _this$ = ecx

; 516  : 		return (_Myfirst == 0 ? 0 : _Mylast - _Myfirst);

  00000	8b 51 04	 mov	 edx, DWORD PTR [ecx+4]
  00003	85 d2		 test	 edx, edx
  00005	75 03		 jne	 SHORT $L176421
  00007	33 c0		 xor	 eax, eax

; 517  : 		}

  00009	c3		 ret	 0
$L176421:

; 516  : 		return (_Myfirst == 0 ? 0 : _Mylast - _Myfirst);

  0000a	8b 41 08	 mov	 eax, DWORD PTR [ecx+8]
  0000d	2b c2		 sub	 eax, edx
  0000f	c1 f8 02	 sar	 eax, 2

; 517  : 		}

  00012	c3		 ret	 0
?size@?$vector@PAUtagQUESTTERM@@V?$allocator@PAUtagQUESTTERM@@@std@@@std@@QBEIXZ ENDP ; std::vector<tagQUESTTERM *,std::allocator<tagQUESTTERM *> >::size
_TEXT	ENDS
PUBLIC	??Dconst_iterator@?$vector@PAUtagQUESTTERM@@V?$allocator@PAUtagQUESTTERM@@@std@@@std@@QBEABQAUtagQUESTTERM@@XZ ; std::vector<tagQUESTTERM *,std::allocator<tagQUESTTERM *> >::const_iterator::operator*
; Function compile flags: /Ogty
;	COMDAT ??Dconst_iterator@?$vector@PAUtagQUESTTERM@@V?$allocator@PAUtagQUESTTERM@@@std@@@std@@QBEABQAUtagQUESTTERM@@XZ
_TEXT	SEGMENT
??Dconst_iterator@?$vector@PAUtagQUESTTERM@@V?$allocator@PAUtagQUESTTERM@@@std@@@std@@QBEABQAUtagQUESTTERM@@XZ PROC NEAR ; std::vector<tagQUESTTERM *,std::allocator<tagQUESTTERM *> >::const_iterator::operator*, COMDAT
; _this$ = ecx

; 80   : 
; 81   : 
; 82   : 			return (*_Myptr);

  00000	8b 01		 mov	 eax, DWORD PTR [ecx]

; 83   : 			}

  00002	c3		 ret	 0
??Dconst_iterator@?$vector@PAUtagQUESTTERM@@V?$allocator@PAUtagQUESTTERM@@@std@@@std@@QBEABQAUtagQUESTTERM@@XZ ENDP ; std::vector<tagQUESTTERM *,std::allocator<tagQUESTTERM *> >::const_iterator::operator*
_TEXT	ENDS
PUBLIC	??Yiterator@?$vector@PAUtagQUESTTERM@@V?$allocator@PAUtagQUESTTERM@@@std@@@std@@QAEAAV012@H@Z ; std::vector<tagQUESTTERM *,std::allocator<tagQUESTTERM *> >::iterator::operator+=
; Function compile flags: /Ogty
;	COMDAT ??Yiterator@?$vector@PAUtagQUESTTERM@@V?$allocator@PAUtagQUESTTERM@@@std@@@std@@QAEAAV012@H@Z
_TEXT	SEGMENT
__Off$ = 8						; size = 4
??Yiterator@?$vector@PAUtagQUESTTERM@@V?$allocator@PAUtagQUESTTERM@@@std@@@std@@QAEAAV012@H@Z PROC NEAR ; std::vector<tagQUESTTERM *,std::allocator<tagQUESTTERM *> >::iterator::operator+=, COMDAT
; _this$ = ecx

; 255  : 			{	// increment by integer

  00000	8b c1		 mov	 eax, ecx

; 256  : 			this->_Myptr += _Off;

  00002	8b 4c 24 04	 mov	 ecx, DWORD PTR __Off$[esp-4]
  00006	8d 14 8d 00 00
	00 00		 lea	 edx, DWORD PTR [ecx*4]
  0000d	01 10		 add	 DWORD PTR [eax], edx

; 257  : 			return (*this);
; 258  : 			}

  0000f	c2 04 00	 ret	 4
??Yiterator@?$vector@PAUtagQUESTTERM@@V?$allocator@PAUtagQUESTTERM@@@std@@@std@@QAEAAV012@H@Z ENDP ; std::vector<tagQUESTTERM *,std::allocator<tagQUESTTERM *> >::iterator::operator+=
_TEXT	ENDS
PUBLIC	??0const_iterator@?$vector@PAUtagQUESTTERM@@V?$allocator@PAUtagQUESTTERM@@@std@@@std@@QAE@PAPAUtagQUESTTERM@@@Z ; std::vector<tagQUESTTERM *,std::allocator<tagQUESTTERM *> >::const_iterator::const_iterator
; Function compile flags: /Ogty
;	COMDAT ??0const_iterator@?$vector@PAUtagQUESTTERM@@V?$allocator@PAUtagQUESTTERM@@@std@@@std@@QAE@PAPAUtagQUESTTERM@@@Z
_TEXT	SEGMENT
__Ptr$ = 8						; size = 4
??0const_iterator@?$vector@PAUtagQUESTTERM@@V?$allocator@PAUtagQUESTTERM@@@std@@@std@@QAE@PAPAUtagQUESTTERM@@@Z PROC NEAR ; std::vector<tagQUESTTERM *,std::allocator<tagQUESTTERM *> >::const_iterator::const_iterator, COMDAT
; _this$ = ecx

; 73   : 		const_iterator(_Tptr _Ptr)

  00000	8b c1		 mov	 eax, ecx

; 74   : 			{	// construct with pointer _Ptr
; 75   : 			_Myptr = _Ptr;

  00002	8b 4c 24 04	 mov	 ecx, DWORD PTR __Ptr$[esp-4]
  00006	89 08		 mov	 DWORD PTR [eax], ecx

; 76   : 			}

  00008	c2 04 00	 ret	 4
??0const_iterator@?$vector@PAUtagQUESTTERM@@V?$allocator@PAUtagQUESTTERM@@@std@@@std@@QAE@PAPAUtagQUESTTERM@@@Z ENDP ; std::vector<tagQUESTTERM *,std::allocator<tagQUESTTERM *> >::const_iterator::const_iterator
_TEXT	ENDS
EXTRN	??3@YAXPAX@Z:NEAR				; operator delete
; Function compile flags: /Ogty
;	COMDAT ??_GCQuestSpawnMon@@UAEPAXI@Z
_TEXT	SEGMENT
___flags$ = 8						; size = 4
??_GCQuestSpawnMon@@UAEPAXI@Z PROC NEAR			; CQuestSpawnMon::`scalar deleting destructor', COMDAT
; _this$ = ecx
  00000	56		 push	 esi
  00001	8b f1		 mov	 esi, ecx
  00003	e8 00 00 00 00	 call	 ??1CQuestSpawnMon@@UAE@XZ ; CQuestSpawnMon::~CQuestSpawnMon
  00008	f6 44 24 08 01	 test	 BYTE PTR ___flags$[esp], 1
  0000d	74 09		 je	 SHORT $L176435
  0000f	56		 push	 esi
  00010	e8 00 00 00 00	 call	 ??3@YAXPAX@Z		; operator delete
  00015	83 c4 04	 add	 esp, 4
$L176435:
  00018	8b c6		 mov	 eax, esi
  0001a	5e		 pop	 esi
  0001b	c2 04 00	 ret	 4
??_GCQuestSpawnMon@@UAEPAXI@Z ENDP			; CQuestSpawnMon::`scalar deleting destructor'
_TEXT	ENDS
PUBLIC	??9const_iterator@?$_Tree@V?$_Tmap_traits@GPAUtagTMONSPAWN@@U?$less@G@std@@V?$allocator@U?$pair@$$CBGPAUtagTMONSPAWN@@@std@@@3@$0A@@std@@@std@@QBE_NABV012@@Z ; std::_Tree<std::_Tmap_traits<unsigned short,tagTMONSPAWN *,std::less<unsigned short>,std::allocator<std::pair<unsigned short const ,tagTMONSPAWN *> >,0> >::const_iterator::operator!=
; Function compile flags: /Ogty
; File c:\program files (x86)\microsoft visual studio .net 2003\vc7\include\xtree
;	COMDAT ??9const_iterator@?$_Tree@V?$_Tmap_traits@GPAUtagTMONSPAWN@@U?$less@G@std@@V?$allocator@U?$pair@$$CBGPAUtagTMONSPAWN@@@std@@@3@$0A@@std@@@std@@QBE_NABV012@@Z
_TEXT	SEGMENT
__Right$ = 8						; size = 4
??9const_iterator@?$_Tree@V?$_Tmap_traits@GPAUtagTMONSPAWN@@U?$less@G@std@@V?$allocator@U?$pair@$$CBGPAUtagTMONSPAWN@@@std@@@3@$0A@@std@@@std@@QBE_NABV012@@Z PROC NEAR ; std::_Tree<std::_Tmap_traits<unsigned short,tagTMONSPAWN *,std::less<unsigned short>,std::allocator<std::pair<unsigned short const ,tagTMONSPAWN *> >,0> >::const_iterator::operator!=, COMDAT
; _this$ = ecx

; 246  : 			return (!(*this == _Right));

  00000	8b 01		 mov	 eax, DWORD PTR [ecx]
  00002	8b 54 24 04	 mov	 edx, DWORD PTR __Right$[esp-4]
  00006	56		 push	 esi
  00007	8b 32		 mov	 esi, DWORD PTR [edx]
  00009	33 c9		 xor	 ecx, ecx
  0000b	3b c6		 cmp	 eax, esi
  0000d	0f 95 c1	 setne	 cl
  00010	8a c1		 mov	 al, cl
  00012	5e		 pop	 esi

; 247  : 			}

  00013	c2 04 00	 ret	 4
??9const_iterator@?$_Tree@V?$_Tmap_traits@GPAUtagTMONSPAWN@@U?$less@G@std@@V?$allocator@U?$pair@$$CBGPAUtagTMONSPAWN@@@std@@@3@$0A@@std@@@std@@QBE_NABV012@@Z ENDP ; std::_Tree<std::_Tmap_traits<unsigned short,tagTMONSPAWN *,std::less<unsigned short>,std::allocator<std::pair<unsigned short const ,tagTMONSPAWN *> >,0> >::const_iterator::operator!=
_TEXT	ENDS
PUBLIC	??Hiterator@?$vector@PAUtagQUESTTERM@@V?$allocator@PAUtagQUESTTERM@@@std@@@std@@QBE?AV012@H@Z ; std::vector<tagQUESTTERM *,std::allocator<tagQUESTTERM *> >::iterator::operator+
; Function compile flags: /Ogty
; File c:\program files (x86)\microsoft visual studio .net 2003\vc7\include\vector
;	COMDAT ??Hiterator@?$vector@PAUtagQUESTTERM@@V?$allocator@PAUtagQUESTTERM@@@std@@@std@@QBE?AV012@H@Z
_TEXT	SEGMENT
___$ReturnUdt$ = 8					; size = 4
__Off$ = 12						; size = 4
??Hiterator@?$vector@PAUtagQUESTTERM@@V?$allocator@PAUtagQUESTTERM@@@std@@@std@@QBE?AV012@H@Z PROC NEAR ; std::vector<tagQUESTTERM *,std::allocator<tagQUESTTERM *> >::iterator::operator+, COMDAT
; _this$ = ecx

; 262  : 			iterator _Tmp = *this;
; 263  : 			return (_Tmp += _Off);

  00000	8b 01		 mov	 eax, DWORD PTR [ecx]
  00002	8b 4c 24 08	 mov	 ecx, DWORD PTR __Off$[esp-4]
  00006	8d 14 88	 lea	 edx, DWORD PTR [eax+ecx*4]
  00009	8b 44 24 04	 mov	 eax, DWORD PTR ___$ReturnUdt$[esp-4]
  0000d	89 10		 mov	 DWORD PTR [eax], edx

; 264  : 			}

  0000f	c2 08 00	 ret	 8
??Hiterator@?$vector@PAUtagQUESTTERM@@V?$allocator@PAUtagQUESTTERM@@@std@@@std@@QBE?AV012@H@Z ENDP ; std::vector<tagQUESTTERM *,std::allocator<tagQUESTTERM *> >::iterator::operator+
_TEXT	ENDS
PUBLIC	?_Key@?$_Tree@V?$_Tmap_traits@GPAUtagTMONSPAWN@@U?$less@G@std@@V?$allocator@U?$pair@$$CBGPAUtagTMONSPAWN@@@std@@@3@$0A@@std@@@std@@KAABGPAU_Node@?$_Tree_nod@V?$_Tmap_traits@GPAUtagTMONSPAWN@@U?$less@G@std@@V?$allocator@U?$pair@$$CBGPAUtagTMONSPAWN@@@std@@@3@$0A@@std@@@2@@Z ; std::_Tree<std::_Tmap_traits<unsigned short,tagTMONSPAWN *,std::less<unsigned short>,std::allocator<std::pair<unsigned short const ,tagTMONSPAWN *> >,0> >::_Key
; Function compile flags: /Ogty
; File c:\program files (x86)\microsoft visual studio .net 2003\vc7\include\xtree
;	COMDAT ?_Key@?$_Tree@V?$_Tmap_traits@GPAUtagTMONSPAWN@@U?$less@G@std@@V?$allocator@U?$pair@$$CBGPAUtagTMONSPAWN@@@std@@@3@$0A@@std@@@std@@KAABGPAU_Node@?$_Tree_nod@V?$_Tmap_traits@GPAUtagTMONSPAWN@@U?$less@G@std@@V?$allocator@U?$pair@$$CBGPAUtagTMONSPAWN@@@std@@@3@$0A@@std@@@2@@Z
_TEXT	SEGMENT
__Pnode$ = 8						; size = 4
?_Key@?$_Tree@V?$_Tmap_traits@GPAUtagTMONSPAWN@@U?$less@G@std@@V?$allocator@U?$pair@$$CBGPAUtagTMONSPAWN@@@std@@@3@$0A@@std@@@std@@KAABGPAU_Node@?$_Tree_nod@V?$_Tmap_traits@GPAUtagTMONSPAWN@@U?$less@G@std@@V?$allocator@U?$pair@$$CBGPAUtagTMONSPAWN@@@std@@@3@$0A@@std@@@2@@Z PROC NEAR ; std::_Tree<std::_Tmap_traits<unsigned short,tagTMONSPAWN *,std::less<unsigned short>,std::allocator<std::pair<unsigned short const ,tagTMONSPAWN *> >,0> >::_Key, COMDAT

; 142  : 		return (_Mybase::_Kfn(_Myval(_Pnode)));

  00000	8b 44 24 04	 mov	 eax, DWORD PTR __Pnode$[esp-4]
  00004	83 c0 0c	 add	 eax, 12			; 0000000cH

; 143  : 		}

  00007	c3		 ret	 0
?_Key@?$_Tree@V?$_Tmap_traits@GPAUtagTMONSPAWN@@U?$less@G@std@@V?$allocator@U?$pair@$$CBGPAUtagTMONSPAWN@@@std@@@3@$0A@@std@@@std@@KAABGPAU_Node@?$_Tree_nod@V?$_Tmap_traits@GPAUtagTMONSPAWN@@U?$less@G@std@@V?$allocator@U?$pair@$$CBGPAUtagTMONSPAWN@@@std@@@3@$0A@@std@@@2@@Z ENDP ; std::_Tree<std::_Tmap_traits<unsigned short,tagTMONSPAWN *,std::less<unsigned short>,std::allocator<std::pair<unsigned short const ,tagTMONSPAWN *> >,0> >::_Key
_TEXT	ENDS
PUBLIC	??0iterator@?$_Tree@V?$_Tmap_traits@GPAUtagTMONSPAWN@@U?$less@G@std@@V?$allocator@U?$pair@$$CBGPAUtagTMONSPAWN@@@std@@@3@$0A@@std@@@std@@QAE@PAU_Node@?$_Tree_nod@V?$_Tmap_traits@GPAUtagTMONSPAWN@@U?$less@G@std@@V?$allocator@U?$pair@$$CBGPAUtagTMONSPAWN@@@std@@@3@$0A@@std@@@2@@Z ; std::_Tree<std::_Tmap_traits<unsigned short,tagTMONSPAWN *,std::less<unsigned short>,std::allocator<std::pair<unsigned short const ,tagTMONSPAWN *> >,0> >::iterator::iterator
; Function compile flags: /Ogty
;	COMDAT ??0iterator@?$_Tree@V?$_Tmap_traits@GPAUtagTMONSPAWN@@U?$less@G@std@@V?$allocator@U?$pair@$$CBGPAUtagTMONSPAWN@@@std@@@3@$0A@@std@@@std@@QAE@PAU_Node@?$_Tree_nod@V?$_Tmap_traits@GPAUtagTMONSPAWN@@U?$less@G@std@@V?$allocator@U?$pair@$$CBGPAUtagTMONSPAWN@@@std@@@3@$0A@@std@@@2@@Z
_TEXT	SEGMENT
__Pnode$ = 8						; size = 4
??0iterator@?$_Tree@V?$_Tmap_traits@GPAUtagTMONSPAWN@@U?$less@G@std@@V?$allocator@U?$pair@$$CBGPAUtagTMONSPAWN@@@std@@@3@$0A@@std@@@std@@QAE@PAU_Node@?$_Tree_nod@V?$_Tmap_traits@GPAUtagTMONSPAWN@@U?$less@G@std@@V?$allocator@U?$pair@$$CBGPAUtagTMONSPAWN@@@std@@@3@$0A@@std@@@2@@Z PROC NEAR ; std::_Tree<std::_Tmap_traits<unsigned short,tagTMONSPAWN *,std::less<unsigned short>,std::allocator<std::pair<unsigned short const ,tagTMONSPAWN *> >,0> >::iterator::iterator, COMDAT
; _this$ = ecx

; 312  : 			{	// construct with node pointer _Pnode

  00000	8b c1		 mov	 eax, ecx
  00002	8b 4c 24 04	 mov	 ecx, DWORD PTR __Pnode$[esp-4]
  00006	89 08		 mov	 DWORD PTR [eax], ecx

; 313  : 			}

  00008	c2 04 00	 ret	 4
??0iterator@?$_Tree@V?$_Tmap_traits@GPAUtagTMONSPAWN@@U?$less@G@std@@V?$allocator@U?$pair@$$CBGPAUtagTMONSPAWN@@@std@@@3@$0A@@std@@@std@@QAE@PAU_Node@?$_Tree_nod@V?$_Tmap_traits@GPAUtagTMONSPAWN@@U?$less@G@std@@V?$allocator@U?$pair@$$CBGPAUtagTMONSPAWN@@@std@@@3@$0A@@std@@@2@@Z ENDP ; std::_Tree<std::_Tmap_traits<unsigned short,tagTMONSPAWN *,std::less<unsigned short>,std::allocator<std::pair<unsigned short const ,tagTMONSPAWN *> >,0> >::iterator::iterator
_TEXT	ENDS
PUBLIC	??Dconst_iterator@?$_Tree@V?$_Tmap_traits@GPAUtagTMONSPAWN@@U?$less@G@std@@V?$allocator@U?$pair@$$CBGPAUtagTMONSPAWN@@@std@@@3@$0A@@std@@@std@@QBEABU?$pair@$$CBGPAUtagTMONSPAWN@@@2@XZ ; std::_Tree<std::_Tmap_traits<unsigned short,tagTMONSPAWN *,std::less<unsigned short>,std::allocator<std::pair<unsigned short const ,tagTMONSPAWN *> >,0> >::const_iterator::operator*
; Function compile flags: /Ogty
;	COMDAT ??Dconst_iterator@?$_Tree@V?$_Tmap_traits@GPAUtagTMONSPAWN@@U?$less@G@std@@V?$allocator@U?$pair@$$CBGPAUtagTMONSPAWN@@@std@@@3@$0A@@std@@@std@@QBEABU?$pair@$$CBGPAUtagTMONSPAWN@@@2@XZ
_TEXT	SEGMENT
??Dconst_iterator@?$_Tree@V?$_Tmap_traits@GPAUtagTMONSPAWN@@U?$less@G@std@@V?$allocator@U?$pair@$$CBGPAUtagTMONSPAWN@@@std@@@3@$0A@@std@@@std@@QBEABU?$pair@$$CBGPAUtagTMONSPAWN@@@2@XZ PROC NEAR ; std::_Tree<std::_Tmap_traits<unsigned short,tagTMONSPAWN *,std::less<unsigned short>,std::allocator<std::pair<unsigned short const ,tagTMONSPAWN *> >,0> >::const_iterator::operator*, COMDAT
; _this$ = ecx

; 205  : 			return (_Myval(_Ptr));

  00000	8b 01		 mov	 eax, DWORD PTR [ecx]
  00002	83 c0 0c	 add	 eax, 12			; 0000000cH

; 206  : 			}

  00005	c3		 ret	 0
??Dconst_iterator@?$_Tree@V?$_Tmap_traits@GPAUtagTMONSPAWN@@U?$less@G@std@@V?$allocator@U?$pair@$$CBGPAUtagTMONSPAWN@@@std@@@3@$0A@@std@@@std@@QBEABU?$pair@$$CBGPAUtagTMONSPAWN@@@2@XZ ENDP ; std::_Tree<std::_Tmap_traits<unsigned short,tagTMONSPAWN *,std::less<unsigned short>,std::allocator<std::pair<unsigned short const ,tagTMONSPAWN *> >,0> >::const_iterator::operator*
_TEXT	ENDS
PUBLIC	?_Root@?$_Tree@V?$_Tmap_traits@GPAUtagTMONSPAWN@@U?$less@G@std@@V?$allocator@U?$pair@$$CBGPAUtagTMONSPAWN@@@std@@@3@$0A@@std@@@std@@IBEAAPAU_Node@?$_Tree_nod@V?$_Tmap_traits@GPAUtagTMONSPAWN@@U?$less@G@std@@V?$allocator@U?$pair@$$CBGPAUtagTMONSPAWN@@@std@@@3@$0A@@std@@@2@XZ ; std::_Tree<std::_Tmap_traits<unsigned short,tagTMONSPAWN *,std::less<unsigned short>,std::allocator<std::pair<unsigned short const ,tagTMONSPAWN *> >,0> >::_Root
; Function compile flags: /Ogty
;	COMDAT ?_Root@?$_Tree@V?$_Tmap_traits@GPAUtagTMONSPAWN@@U?$less@G@std@@V?$allocator@U?$pair@$$CBGPAUtagTMONSPAWN@@@std@@@3@$0A@@std@@@std@@IBEAAPAU_Node@?$_Tree_nod@V?$_Tmap_traits@GPAUtagTMONSPAWN@@U?$less@G@std@@V?$allocator@U?$pair@$$CBGPAUtagTMONSPAWN@@@std@@@3@$0A@@std@@@2@XZ
_TEXT	SEGMENT
?_Root@?$_Tree@V?$_Tmap_traits@GPAUtagTMONSPAWN@@U?$less@G@std@@V?$allocator@U?$pair@$$CBGPAUtagTMONSPAWN@@@std@@@3@$0A@@std@@@std@@IBEAAPAU_Node@?$_Tree_nod@V?$_Tmap_traits@GPAUtagTMONSPAWN@@U?$less@G@std@@V?$allocator@U?$pair@$$CBGPAUtagTMONSPAWN@@@std@@@3@$0A@@std@@@2@XZ PROC NEAR ; std::_Tree<std::_Tmap_traits<unsigned short,tagTMONSPAWN *,std::less<unsigned short>,std::allocator<std::pair<unsigned short const ,tagTMONSPAWN *> >,0> >::_Root, COMDAT
; _this$ = ecx

; 1064 : 		return (_Parent(_Myhead));

  00000	8b 41 04	 mov	 eax, DWORD PTR [ecx+4]
  00003	83 c0 04	 add	 eax, 4

; 1065 : 		}

  00006	c3		 ret	 0
?_Root@?$_Tree@V?$_Tmap_traits@GPAUtagTMONSPAWN@@U?$less@G@std@@V?$allocator@U?$pair@$$CBGPAUtagTMONSPAWN@@@std@@@3@$0A@@std@@@std@@IBEAAPAU_Node@?$_Tree_nod@V?$_Tmap_traits@GPAUtagTMONSPAWN@@U?$less@G@std@@V?$allocator@U?$pair@$$CBGPAUtagTMONSPAWN@@@std@@@3@$0A@@std@@@2@XZ ENDP ; std::_Tree<std::_Tmap_traits<unsigned short,tagTMONSPAWN *,std::less<unsigned short>,std::allocator<std::pair<unsigned short const ,tagTMONSPAWN *> >,0> >::_Root
_TEXT	ENDS
PUBLIC	??Diterator@?$vector@PAUtagQUESTTERM@@V?$allocator@PAUtagQUESTTERM@@@std@@@std@@QBEAAPAUtagQUESTTERM@@XZ ; std::vector<tagQUESTTERM *,std::allocator<tagQUESTTERM *> >::iterator::operator*
; Function compile flags: /Ogty
; File c:\program files (x86)\microsoft visual studio .net 2003\vc7\include\vector
;	COMDAT ??Diterator@?$vector@PAUtagQUESTTERM@@V?$allocator@PAUtagQUESTTERM@@@std@@@std@@QBEAAPAUtagQUESTTERM@@XZ
_TEXT	SEGMENT
??Diterator@?$vector@PAUtagQUESTTERM@@V?$allocator@PAUtagQUESTTERM@@@std@@@std@@QBEAAPAUtagQUESTTERM@@XZ PROC NEAR ; std::vector<tagQUESTTERM *,std::allocator<tagQUESTTERM *> >::iterator::operator*, COMDAT
; _this$ = ecx

; 220  : 			return ((reference)**(const_iterator *)this);

  00000	8b 01		 mov	 eax, DWORD PTR [ecx]

; 221  : 			}

  00002	c3		 ret	 0
??Diterator@?$vector@PAUtagQUESTTERM@@V?$allocator@PAUtagQUESTTERM@@@std@@@std@@QBEAAPAUtagQUESTTERM@@XZ ENDP ; std::vector<tagQUESTTERM *,std::allocator<tagQUESTTERM *> >::iterator::operator*
_TEXT	ENDS
PUBLIC	??0iterator@?$vector@PAUtagQUESTTERM@@V?$allocator@PAUtagQUESTTERM@@@std@@@std@@QAE@PAPAUtagQUESTTERM@@@Z ; std::vector<tagQUESTTERM *,std::allocator<tagQUESTTERM *> >::iterator::iterator
; Function compile flags: /Ogty
;	COMDAT ??0iterator@?$vector@PAUtagQUESTTERM@@V?$allocator@PAUtagQUESTTERM@@@std@@@std@@QAE@PAPAUtagQUESTTERM@@@Z
_TEXT	SEGMENT
__Ptr$ = 8						; size = 4
??0iterator@?$vector@PAUtagQUESTTERM@@V?$allocator@PAUtagQUESTTERM@@@std@@@std@@QAE@PAPAUtagQUESTTERM@@@Z PROC NEAR ; std::vector<tagQUESTTERM *,std::allocator<tagQUESTTERM *> >::iterator::iterator, COMDAT
; _this$ = ecx

; 215  : 			{	// construct with pointer _Ptr

  00000	8b c1		 mov	 eax, ecx
  00002	8b 4c 24 04	 mov	 ecx, DWORD PTR __Ptr$[esp-4]
  00006	89 08		 mov	 DWORD PTR [eax], ecx

; 216  : 			}

  00008	c2 04 00	 ret	 4
??0iterator@?$vector@PAUtagQUESTTERM@@V?$allocator@PAUtagQUESTTERM@@@std@@@std@@QAE@PAPAUtagQUESTTERM@@@Z ENDP ; std::vector<tagQUESTTERM *,std::allocator<tagQUESTTERM *> >::iterator::iterator
_TEXT	ENDS
PUBLIC	?end@?$_Tree@V?$_Tmap_traits@GPAUtagTMONSPAWN@@U?$less@G@std@@V?$allocator@U?$pair@$$CBGPAUtagTMONSPAWN@@@std@@@3@$0A@@std@@@std@@QAE?AViterator@12@XZ ; std::_Tree<std::_Tmap_traits<unsigned short,tagTMONSPAWN *,std::less<unsigned short>,std::allocator<std::pair<unsigned short const ,tagTMONSPAWN *> >,0> >::end
; Function compile flags: /Ogty
; File c:\program files (x86)\microsoft visual studio .net 2003\vc7\include\xtree
;	COMDAT ?end@?$_Tree@V?$_Tmap_traits@GPAUtagTMONSPAWN@@U?$less@G@std@@V?$allocator@U?$pair@$$CBGPAUtagTMONSPAWN@@@std@@@3@$0A@@std@@@std@@QAE?AViterator@12@XZ
_TEXT	SEGMENT
___$ReturnUdt$ = 8					; size = 4
?end@?$_Tree@V?$_Tmap_traits@GPAUtagTMONSPAWN@@U?$less@G@std@@V?$allocator@U?$pair@$$CBGPAUtagTMONSPAWN@@@std@@@3@$0A@@std@@@std@@QAE?AViterator@12@XZ PROC NEAR ; std::_Tree<std::_Tmap_traits<unsigned short,tagTMONSPAWN *,std::less<unsigned short>,std::allocator<std::pair<unsigned short const ,tagTMONSPAWN *> >,0> >::end, COMDAT
; _this$ = ecx

; 418  : 		return (_TREE_ITERATOR(_Myhead));

  00000	8b 49 04	 mov	 ecx, DWORD PTR [ecx+4]
  00003	8b 44 24 04	 mov	 eax, DWORD PTR ___$ReturnUdt$[esp-4]
  00007	89 08		 mov	 DWORD PTR [eax], ecx

; 419  : 		}

  00009	c2 04 00	 ret	 4
?end@?$_Tree@V?$_Tmap_traits@GPAUtagTMONSPAWN@@U?$less@G@std@@V?$allocator@U?$pair@$$CBGPAUtagTMONSPAWN@@@std@@@3@$0A@@std@@@std@@QAE?AViterator@12@XZ ENDP ; std::_Tree<std::_Tmap_traits<unsigned short,tagTMONSPAWN *,std::less<unsigned short>,std::allocator<std::pair<unsigned short const ,tagTMONSPAWN *> >,0> >::end
_TEXT	ENDS
PUBLIC	??Diterator@?$_Tree@V?$_Tmap_traits@GPAUtagTMONSPAWN@@U?$less@G@std@@V?$allocator@U?$pair@$$CBGPAUtagTMONSPAWN@@@std@@@3@$0A@@std@@@std@@QBEAAU?$pair@$$CBGPAUtagTMONSPAWN@@@2@XZ ; std::_Tree<std::_Tmap_traits<unsigned short,tagTMONSPAWN *,std::less<unsigned short>,std::allocator<std::pair<unsigned short const ,tagTMONSPAWN *> >,0> >::iterator::operator*
; Function compile flags: /Ogty
;	COMDAT ??Diterator@?$_Tree@V?$_Tmap_traits@GPAUtagTMONSPAWN@@U?$less@G@std@@V?$allocator@U?$pair@$$CBGPAUtagTMONSPAWN@@@std@@@3@$0A@@std@@@std@@QBEAAU?$pair@$$CBGPAUtagTMONSPAWN@@@2@XZ
_TEXT	SEGMENT
??Diterator@?$_Tree@V?$_Tmap_traits@GPAUtagTMONSPAWN@@U?$less@G@std@@V?$allocator@U?$pair@$$CBGPAUtagTMONSPAWN@@@std@@@3@$0A@@std@@@std@@QBEAAU?$pair@$$CBGPAUtagTMONSPAWN@@@2@XZ PROC NEAR ; std::_Tree<std::_Tmap_traits<unsigned short,tagTMONSPAWN *,std::less<unsigned short>,std::allocator<std::pair<unsigned short const ,tagTMONSPAWN *> >,0> >::iterator::operator*, COMDAT
; _this$ = ecx

; 317  : 			return ((reference)**(const_iterator *)this);

  00000	8b 01		 mov	 eax, DWORD PTR [ecx]
  00002	83 c0 0c	 add	 eax, 12			; 0000000cH

; 318  : 			}

  00005	c3		 ret	 0
??Diterator@?$_Tree@V?$_Tmap_traits@GPAUtagTMONSPAWN@@U?$less@G@std@@V?$allocator@U?$pair@$$CBGPAUtagTMONSPAWN@@@std@@@3@$0A@@std@@@std@@QBEAAU?$pair@$$CBGPAUtagTMONSPAWN@@@2@XZ ENDP ; std::_Tree<std::_Tmap_traits<unsigned short,tagTMONSPAWN *,std::less<unsigned short>,std::allocator<std::pair<unsigned short const ,tagTMONSPAWN *> >,0> >::iterator::operator*
_TEXT	ENDS
PUBLIC	?begin@?$vector@PAUtagQUESTTERM@@V?$allocator@PAUtagQUESTTERM@@@std@@@std@@QAE?AViterator@12@XZ ; std::vector<tagQUESTTERM *,std::allocator<tagQUESTTERM *> >::begin
; Function compile flags: /Ogty
; File c:\program files (x86)\microsoft visual studio .net 2003\vc7\include\vector
;	COMDAT ?begin@?$vector@PAUtagQUESTTERM@@V?$allocator@PAUtagQUESTTERM@@@std@@@std@@QAE?AViterator@12@XZ
_TEXT	SEGMENT
___$ReturnUdt$ = 8					; size = 4
?begin@?$vector@PAUtagQUESTTERM@@V?$allocator@PAUtagQUESTTERM@@@std@@@std@@QAE?AViterator@12@XZ PROC NEAR ; std::vector<tagQUESTTERM *,std::allocator<tagQUESTTERM *> >::begin, COMDAT
; _this$ = ecx

; 463  : 		return (iterator(_Myfirst));

  00000	8b 49 04	 mov	 ecx, DWORD PTR [ecx+4]
  00003	8b 44 24 04	 mov	 eax, DWORD PTR ___$ReturnUdt$[esp-4]
  00007	89 08		 mov	 DWORD PTR [eax], ecx

; 464  : 		}

  00009	c2 04 00	 ret	 4
?begin@?$vector@PAUtagQUESTTERM@@V?$allocator@PAUtagQUESTTERM@@@std@@@std@@QAE?AViterator@12@XZ ENDP ; std::vector<tagQUESTTERM *,std::allocator<tagQUESTTERM *> >::begin
_TEXT	ENDS
PUBLIC	?_Lbound@?$_Tree@V?$_Tmap_traits@GPAUtagTMONSPAWN@@U?$less@G@std@@V?$allocator@U?$pair@$$CBGPAUtagTMONSPAWN@@@std@@@3@$0A@@std@@@std@@IBEPAU_Node@?$_Tree_nod@V?$_Tmap_traits@GPAUtagTMONSPAWN@@U?$less@G@std@@V?$allocator@U?$pair@$$CBGPAUtagTMONSPAWN@@@std@@@3@$0A@@std@@@2@ABG@Z ; std::_Tree<std::_Tmap_traits<unsigned short,tagTMONSPAWN *,std::less<unsigned short>,std::allocator<std::pair<unsigned short const ,tagTMONSPAWN *> >,0> >::_Lbound
; Function compile flags: /Ogty
; File c:\program files (x86)\microsoft visual studio .net 2003\vc7\include\xtree
;	COMDAT ?_Lbound@?$_Tree@V?$_Tmap_traits@GPAUtagTMONSPAWN@@U?$less@G@std@@V?$allocator@U?$pair@$$CBGPAUtagTMONSPAWN@@@std@@@3@$0A@@std@@@std@@IBEPAU_Node@?$_Tree_nod@V?$_Tmap_traits@GPAUtagTMONSPAWN@@U?$less@G@std@@V?$allocator@U?$pair@$$CBGPAUtagTMONSPAWN@@@std@@@3@$0A@@std@@@2@ABG@Z
_TEXT	SEGMENT
__Keyval$ = 8						; size = 4
?_Lbound@?$_Tree@V?$_Tmap_traits@GPAUtagTMONSPAWN@@U?$less@G@std@@V?$allocator@U?$pair@$$CBGPAUtagTMONSPAWN@@@std@@@3@$0A@@std@@@std@@IBEPAU_Node@?$_Tree_nod@V?$_Tmap_traits@GPAUtagTMONSPAWN@@U?$less@G@std@@V?$allocator@U?$pair@$$CBGPAUtagTMONSPAWN@@@std@@@3@$0A@@std@@@2@ABG@Z PROC NEAR ; std::_Tree<std::_Tmap_traits<unsigned short,tagTMONSPAWN *,std::less<unsigned short>,std::allocator<std::pair<unsigned short const ,tagTMONSPAWN *> >,0> >::_Lbound, COMDAT
; _this$ = ecx

; 988  : 		_Nodeptr _Pnode = _Root();

  00000	8b 41 04	 mov	 eax, DWORD PTR [ecx+4]
  00003	8b 48 04	 mov	 ecx, DWORD PTR [eax+4]

; 989  : 		_Nodeptr _Wherenode = _Myhead;	// end() if search fails
; 990  : 
; 991  : 		while (!_Isnil(_Pnode))

  00006	8a 51 15	 mov	 dl, BYTE PTR [ecx+21]
  00009	84 d2		 test	 dl, dl
  0000b	75 1f		 jne	 SHORT $L175544
  0000d	8b 54 24 04	 mov	 edx, DWORD PTR __Keyval$[esp-4]
  00011	66 8b 12	 mov	 dx, WORD PTR [edx]
  00014	53		 push	 ebx
$L175543:

; 992  : 			if (this->comp(_Key(_Pnode), _Keyval))

  00015	66 39 51 0c	 cmp	 WORD PTR [ecx+12], dx
  00019	73 05		 jae	 SHORT $L175545

; 993  : 				_Pnode = _Right(_Pnode);	// descend right subtree

  0001b	8b 49 08	 mov	 ecx, DWORD PTR [ecx+8]

; 994  : 			else

  0001e	eb 04		 jmp	 SHORT $L175546
$L175545:

; 995  : 				{	// _Pnode not less than _Keyval, remember it
; 996  : 				_Wherenode = _Pnode;

  00020	8b c1		 mov	 eax, ecx

; 997  : 				_Pnode = _Left(_Pnode);	// descend left subtree

  00022	8b 09		 mov	 ecx, DWORD PTR [ecx]
$L175546:
  00024	8a 59 15	 mov	 bl, BYTE PTR [ecx+21]
  00027	84 db		 test	 bl, bl
  00029	74 ea		 je	 SHORT $L175543
  0002b	5b		 pop	 ebx
$L175544:

; 998  : 				}
; 999  : 
; 1000 : 		return (_Wherenode);	// return best remembered candidate
; 1001 : 		}

  0002c	c2 04 00	 ret	 4
?_Lbound@?$_Tree@V?$_Tmap_traits@GPAUtagTMONSPAWN@@U?$less@G@std@@V?$allocator@U?$pair@$$CBGPAUtagTMONSPAWN@@@std@@@3@$0A@@std@@@std@@IBEPAU_Node@?$_Tree_nod@V?$_Tmap_traits@GPAUtagTMONSPAWN@@U?$less@G@std@@V?$allocator@U?$pair@$$CBGPAUtagTMONSPAWN@@@std@@@3@$0A@@std@@@2@ABG@Z ENDP ; std::_Tree<std::_Tmap_traits<unsigned short,tagTMONSPAWN *,std::less<unsigned short>,std::allocator<std::pair<unsigned short const ,tagTMONSPAWN *> >,0> >::_Lbound
_TEXT	ENDS
PUBLIC	??A?$vector@PAUtagQUESTTERM@@V?$allocator@PAUtagQUESTTERM@@@std@@@std@@QAEAAPAUtagQUESTTERM@@I@Z ; std::vector<tagQUESTTERM *,std::allocator<tagQUESTTERM *> >::operator[]
; Function compile flags: /Ogty
; File c:\program files (x86)\microsoft visual studio .net 2003\vc7\include\vector
;	COMDAT ??A?$vector@PAUtagQUESTTERM@@V?$allocator@PAUtagQUESTTERM@@@std@@@std@@QAEAAPAUtagQUESTTERM@@I@Z
_TEXT	SEGMENT
__Pos$ = 8						; size = 4
??A?$vector@PAUtagQUESTTERM@@V?$allocator@PAUtagQUESTTERM@@@std@@@std@@QAEAAPAUtagQUESTTERM@@I@Z PROC NEAR ; std::vector<tagQUESTTERM *,std::allocator<tagQUESTTERM *> >::operator[], COMDAT
; _this$ = ecx

; 555  : 		return (*(begin() + _Pos));

  00000	8b 41 04	 mov	 eax, DWORD PTR [ecx+4]
  00003	8b 4c 24 04	 mov	 ecx, DWORD PTR __Pos$[esp-4]
  00007	8d 04 88	 lea	 eax, DWORD PTR [eax+ecx*4]

; 556  : 		}

  0000a	c2 04 00	 ret	 4
??A?$vector@PAUtagQUESTTERM@@V?$allocator@PAUtagQUESTTERM@@@std@@@std@@QAEAAPAUtagQUESTTERM@@I@Z ENDP ; std::vector<tagQUESTTERM *,std::allocator<tagQUESTTERM *> >::operator[]
_TEXT	ENDS
PUBLIC	?lower_bound@?$_Tree@V?$_Tmap_traits@GPAUtagTMONSPAWN@@U?$less@G@std@@V?$allocator@U?$pair@$$CBGPAUtagTMONSPAWN@@@std@@@3@$0A@@std@@@std@@QAE?AViterator@12@ABG@Z ; std::_Tree<std::_Tmap_traits<unsigned short,tagTMONSPAWN *,std::less<unsigned short>,std::allocator<std::pair<unsigned short const ,tagTMONSPAWN *> >,0> >::lower_bound
; Function compile flags: /Ogty
; File c:\program files (x86)\microsoft visual studio .net 2003\vc7\include\xtree
;	COMDAT ?lower_bound@?$_Tree@V?$_Tmap_traits@GPAUtagTMONSPAWN@@U?$less@G@std@@V?$allocator@U?$pair@$$CBGPAUtagTMONSPAWN@@@std@@@3@$0A@@std@@@std@@QAE?AViterator@12@ABG@Z
_TEXT	SEGMENT
___$ReturnUdt$ = 8					; size = 4
__Keyval$ = 12						; size = 4
?lower_bound@?$_Tree@V?$_Tmap_traits@GPAUtagTMONSPAWN@@U?$less@G@std@@V?$allocator@U?$pair@$$CBGPAUtagTMONSPAWN@@@std@@@3@$0A@@std@@@std@@QAE?AViterator@12@ABG@Z PROC NEAR ; std::_Tree<std::_Tmap_traits<unsigned short,tagTMONSPAWN *,std::less<unsigned short>,std::allocator<std::pair<unsigned short const ,tagTMONSPAWN *> >,0> >::lower_bound, COMDAT
; _this$ = ecx

; 810  : 		return (_TREE_ITERATOR(_Lbound(_Keyval)));

  00000	8b 49 04	 mov	 ecx, DWORD PTR [ecx+4]
  00003	8b 41 04	 mov	 eax, DWORD PTR [ecx+4]
  00006	8a 50 15	 mov	 dl, BYTE PTR [eax+21]
  00009	84 d2		 test	 dl, dl
  0000b	75 1f		 jne	 SHORT $L176671
  0000d	8b 54 24 08	 mov	 edx, DWORD PTR __Keyval$[esp-4]
  00011	66 8b 12	 mov	 dx, WORD PTR [edx]
  00014	53		 push	 ebx
$L176639:
  00015	66 39 50 0c	 cmp	 WORD PTR [eax+12], dx
  00019	73 05		 jae	 SHORT $L176641
  0001b	8b 40 08	 mov	 eax, DWORD PTR [eax+8]
  0001e	eb 04		 jmp	 SHORT $L176642
$L176641:
  00020	8b c8		 mov	 ecx, eax
  00022	8b 00		 mov	 eax, DWORD PTR [eax]
$L176642:
  00024	8a 58 15	 mov	 bl, BYTE PTR [eax+21]
  00027	84 db		 test	 bl, bl
  00029	74 ea		 je	 SHORT $L176639
  0002b	5b		 pop	 ebx
$L176671:
  0002c	8b 44 24 04	 mov	 eax, DWORD PTR ___$ReturnUdt$[esp-4]
  00030	89 08		 mov	 DWORD PTR [eax], ecx

; 811  : 		}

  00032	c2 08 00	 ret	 8
?lower_bound@?$_Tree@V?$_Tmap_traits@GPAUtagTMONSPAWN@@U?$less@G@std@@V?$allocator@U?$pair@$$CBGPAUtagTMONSPAWN@@@std@@@3@$0A@@std@@@std@@QAE?AViterator@12@ABG@Z ENDP ; std::_Tree<std::_Tmap_traits<unsigned short,tagTMONSPAWN *,std::less<unsigned short>,std::allocator<std::pair<unsigned short const ,tagTMONSPAWN *> >,0> >::lower_bound
_TEXT	ENDS
PUBLIC	?find@?$_Tree@V?$_Tmap_traits@GPAUtagTMONSPAWN@@U?$less@G@std@@V?$allocator@U?$pair@$$CBGPAUtagTMONSPAWN@@@std@@@3@$0A@@std@@@std@@QAE?AViterator@12@ABG@Z ; std::_Tree<std::_Tmap_traits<unsigned short,tagTMONSPAWN *,std::less<unsigned short>,std::allocator<std::pair<unsigned short const ,tagTMONSPAWN *> >,0> >::find
; Function compile flags: /Ogty
;	COMDAT ?find@?$_Tree@V?$_Tmap_traits@GPAUtagTMONSPAWN@@U?$less@G@std@@V?$allocator@U?$pair@$$CBGPAUtagTMONSPAWN@@@std@@@3@$0A@@std@@@std@@QAE?AViterator@12@ABG@Z
_TEXT	SEGMENT
$T176678 = -4						; size = 4
___$ReturnUdt$ = 8					; size = 4
__Where$ = 12						; size = 4
__Keyval$ = 12						; size = 4
?find@?$_Tree@V?$_Tmap_traits@GPAUtagTMONSPAWN@@U?$less@G@std@@V?$allocator@U?$pair@$$CBGPAUtagTMONSPAWN@@@std@@@3@$0A@@std@@@std@@QAE?AViterator@12@ABG@Z PROC NEAR ; std::_Tree<std::_Tmap_traits<unsigned short,tagTMONSPAWN *,std::less<unsigned short>,std::allocator<std::pair<unsigned short const ,tagTMONSPAWN *> >,0> >::find, COMDAT
; _this$ = ecx

; 787  : 		{	// find an element in mutable sequence that matches _Keyval

  00000	51		 push	 ecx

; 788  : 		iterator _Where = lower_bound(_Keyval);

  00001	8b 51 04	 mov	 edx, DWORD PTR [ecx+4]
  00004	8b 42 04	 mov	 eax, DWORD PTR [edx+4]
  00007	53		 push	 ebx
  00008	8a 58 15	 mov	 bl, BYTE PTR [eax+21]
  0000b	84 db		 test	 bl, bl
  0000d	57		 push	 edi
  0000e	8b 7c 24 14	 mov	 edi, DWORD PTR __Keyval$[esp+8]
  00012	75 1b		 jne	 SHORT $L176755
  00014	56		 push	 esi
  00015	66 8b 37	 mov	 si, WORD PTR [edi]
$L176754:
  00018	66 39 70 0c	 cmp	 WORD PTR [eax+12], si
  0001c	73 05		 jae	 SHORT $L176756
  0001e	8b 40 08	 mov	 eax, DWORD PTR [eax+8]
  00021	eb 04		 jmp	 SHORT $L176757
$L176756:
  00023	8b d0		 mov	 edx, eax
  00025	8b 00		 mov	 eax, DWORD PTR [eax]
$L176757:
  00027	8a 58 15	 mov	 bl, BYTE PTR [eax+21]
  0002a	84 db		 test	 bl, bl
  0002c	74 ea		 je	 SHORT $L176754
  0002e	5e		 pop	 esi
$L176755:

; 789  : 		return (_Where == end() || this->comp(_Keyval, _Key(_Where._Mynode()))
; 790  : 			? end() : _Where);

  0002f	8b 41 04	 mov	 eax, DWORD PTR [ecx+4]
  00032	3b d0		 cmp	 edx, eax
  00034	89 54 24 14	 mov	 DWORD PTR __Where$[esp+8], edx
  00038	74 1b		 je	 SHORT $L176677
  0003a	66 8b 0f	 mov	 cx, WORD PTR [edi]
  0003d	66 3b 4a 0c	 cmp	 cx, WORD PTR [edx+12]
  00041	72 12		 jb	 SHORT $L176677
  00043	8d 44 24 14	 lea	 eax, DWORD PTR __Where$[esp+8]
  00047	8b 10		 mov	 edx, DWORD PTR [eax]
  00049	8b 44 24 10	 mov	 eax, DWORD PTR ___$ReturnUdt$[esp+8]
  0004d	5f		 pop	 edi
  0004e	89 10		 mov	 DWORD PTR [eax], edx
  00050	5b		 pop	 ebx

; 791  : 		}

  00051	59		 pop	 ecx
  00052	c2 08 00	 ret	 8
$L176677:

; 789  : 		return (_Where == end() || this->comp(_Keyval, _Key(_Where._Mynode()))
; 790  : 			? end() : _Where);

  00055	89 44 24 08	 mov	 DWORD PTR $T176678[esp+12], eax
  00059	8d 44 24 08	 lea	 eax, DWORD PTR $T176678[esp+12]
  0005d	8b 10		 mov	 edx, DWORD PTR [eax]
  0005f	8b 44 24 10	 mov	 eax, DWORD PTR ___$ReturnUdt$[esp+8]
  00063	5f		 pop	 edi
  00064	89 10		 mov	 DWORD PTR [eax], edx
  00066	5b		 pop	 ebx

; 791  : 		}

  00067	59		 pop	 ecx
  00068	c2 08 00	 ret	 8
?find@?$_Tree@V?$_Tmap_traits@GPAUtagTMONSPAWN@@U?$less@G@std@@V?$allocator@U?$pair@$$CBGPAUtagTMONSPAWN@@@std@@@3@$0A@@std@@@std@@QAE?AViterator@12@ABG@Z ENDP ; std::_Tree<std::_Tmap_traits<unsigned short,tagTMONSPAWN *,std::less<unsigned short>,std::allocator<std::pair<unsigned short const ,tagTMONSPAWN *> >,0> >::find
_TEXT	ENDS
EXTRN	?_AtlModule@@3VCTMapSvrModule@@A:BYTE		; _AtlModule
EXTRN	?AddTimelimitedMon@CTMap@@QAEPAVCTMonSpawn@@PAUtagTMONSPAWN@@EEE@Z:NEAR ; CTMap::AddTimelimitedMon
EXTRN	?CanRunQuest@CTPlayer@@QAEEPAUtagQUESTTEMP@@KAAE@Z:NEAR ; CTPlayer::CanRunQuest
EXTRN	?ExecQuest@CQuest@@UAEXPAVCTPlayer@@KPAV?$map@EPAV?$map@KPAV?$vector@PAUtagQUESTTEMP@@V?$allocator@PAUtagQUESTTEMP@@@std@@@std@@U?$less@K@2@V?$allocator@U?$pair@$$CBKPAV?$vector@PAUtagQUESTTEMP@@V?$allocator@PAUtagQUESTTEMP@@@std@@@std@@@std@@@2@@std@@U?$less@E@2@V?$allocator@U?$pair@$$CBEPAV?$map@KPAV?$vector@PAUtagQUESTTEMP@@V?$allocator@PAUtagQUESTTEMP@@@std@@@std@@U?$less@K@2@V?$allocator@U?$pair@$$CBKPAV?$vector@PAUtagQUESTTEMP@@V?$allocator@PAUtagQUESTTEMP@@@std@@@std@@@std@@@2@@std@@@std@@@2@@std@@PAV?$map@KPAUtagQUESTTEMP@@U?$less@K@std@@V?$allocator@U?$pair@$$CBKPAUtagQUESTTEMP@@@std@@@3@@4@PAV?$map@GPAUtagTITEM@@U?$less@G@std@@V?$allocator@U?$pair@$$CBGPAUtagTITEM@@@std@@@3@@4@PAV?$map@GPAVCTSkillTemp@@U?$less@G@std@@V?$allocator@U?$pair@$$CBGPAVCTSkillTemp@@@std@@@3@@4@PAV?$map@GPAUtagTMONSTER@@U?$less@G@std@@V?$allocator@U?$pair@$$CBGPAUtagTMONSTER@@@std@@@3@@4@PAV?$map@EPAUtagTSTAT@@U?$less@E@std@@V?$allocator@U?$pair@$$CBEPAUtagTSTAT@@@std@@@3@@4@@Z:NEAR ; CQuest::ExecQuest
; Function compile flags: /Ogty
; File c:\users\pierr\desktop\4story - oldschool\sources\tserver\tmapsvr\questspawnmon.cpp
;	COMDAT ?ExecQuest@CQuestSpawnMon@@UAEXPAVCTPlayer@@KPAV?$map@EPAV?$map@KPAV?$vector@PAUtagQUESTTEMP@@V?$allocator@PAUtagQUESTTEMP@@@std@@@std@@U?$less@K@2@V?$allocator@U?$pair@$$CBKPAV?$vector@PAUtagQUESTTEMP@@V?$allocator@PAUtagQUESTTEMP@@@std@@@std@@@std@@@2@@std@@U?$less@E@2@V?$allocator@U?$pair@$$CBEPAV?$map@KPAV?$vector@PAUtagQUESTTEMP@@V?$allocator@PAUtagQUESTTEMP@@@std@@@std@@U?$less@K@2@V?$allocator@U?$pair@$$CBKPAV?$vector@PAUtagQUESTTEMP@@V?$allocator@PAUtagQUESTTEMP@@@std@@@std@@@std@@@2@@std@@@std@@@2@@std@@PAV?$map@KPAUtagQUESTTEMP@@U?$less@K@std@@V?$allocator@U?$pair@$$CBKPAUtagQUESTTEMP@@@std@@@3@@4@PAV?$map@GPAUtagTITEM@@U?$less@G@std@@V?$allocator@U?$pair@$$CBGPAUtagTITEM@@@std@@@3@@4@PAV?$map@GPAVCTSkillTemp@@U?$less@G@std@@V?$allocator@U?$pair@$$CBGPAVCTSkillTemp@@@std@@@3@@4@PAV?$map@GPAUtagTMONSTER@@U?$less@G@std@@V?$allocator@U?$pair@$$CBGPAUtagTMONSTER@@@std@@@3@@4@PAV?$map@EPAUtagTSTAT@@U?$less@E@std@@V?$allocator@U?$pair@$$CBEPAUtagTSTAT@@@std@@@3@@4@@Z
_TEXT	SEGMENT
_bLevel$ = -9						; size = 1
_wSpawnID$175233 = -8					; size = 2
_it$175317 = -4						; size = 4
_bCanSpawn$ = 8						; size = 1
_pPlayer$ = 8						; size = 4
_dwTick$ = 12						; size = 4
_pTRIGGER$ = 16						; size = 4
_pQUESTTEMP$ = 20					; size = 4
_pITEMTEMP$ = 24					; size = 4
_pSKILLTEMP$ = 28					; size = 4
_pMONTEMP$ = 32						; size = 4
_pCLASS$ = 36						; size = 4
?ExecQuest@CQuestSpawnMon@@UAEXPAVCTPlayer@@KPAV?$map@EPAV?$map@KPAV?$vector@PAUtagQUESTTEMP@@V?$allocator@PAUtagQUESTTEMP@@@std@@@std@@U?$less@K@2@V?$allocator@U?$pair@$$CBKPAV?$vector@PAUtagQUESTTEMP@@V?$allocator@PAUtagQUESTTEMP@@@std@@@std@@@std@@@2@@std@@U?$less@E@2@V?$allocator@U?$pair@$$CBEPAV?$map@KPAV?$vector@PAUtagQUESTTEMP@@V?$allocator@PAUtagQUESTTEMP@@@std@@@std@@U?$less@K@2@V?$allocator@U?$pair@$$CBKPAV?$vector@PAUtagQUESTTEMP@@V?$allocator@PAUtagQUESTTEMP@@@std@@@std@@@std@@@2@@std@@@std@@@2@@std@@PAV?$map@KPAUtagQUESTTEMP@@U?$less@K@std@@V?$allocator@U?$pair@$$CBKPAUtagQUESTTEMP@@@std@@@3@@4@PAV?$map@GPAUtagTITEM@@U?$less@G@std@@V?$allocator@U?$pair@$$CBGPAUtagTITEM@@@std@@@3@@4@PAV?$map@GPAVCTSkillTemp@@U?$less@G@std@@V?$allocator@U?$pair@$$CBGPAVCTSkillTemp@@@std@@@3@@4@PAV?$map@GPAUtagTMONSTER@@U?$less@G@std@@V?$allocator@U?$pair@$$CBGPAUtagTMONSTER@@@std@@@3@@4@PAV?$map@EPAUtagTSTAT@@U?$less@E@std@@V?$allocator@U?$pair@$$CBEPAUtagTSTAT@@@std@@@3@@4@@Z PROC NEAR ; CQuestSpawnMon::ExecQuest, COMDAT
; _this$ = ecx

; 29   : {

  00000	83 ec 0c	 sub	 esp, 12			; 0000000cH
  00003	53		 push	 ebx
  00004	57		 push	 edi

; 30   : 	if(!pPlayer->m_pMAP)

  00005	8b 7c 24 18	 mov	 edi, DWORD PTR _pPlayer$[esp+16]
  00009	8b 87 40 01 01
	00		 mov	 eax, DWORD PTR [edi+65856]
  0000f	85 c0		 test	 eax, eax
  00011	8b d9		 mov	 ebx, ecx
  00013	0f 84 e0 00 00
	00		 je	 $L175340

; 31   : 		return;
; 32   : 
; 33   : 	LPTMONSPAWN pSPAWN = NULL;
; 34   : 
; 35   : 	BYTE bCanSpawn = FALSE;
; 36   : 	BYTE bLevel;
; 37   : 	if(!pPlayer->CanRunQuest( m_pQUEST, dwTick, bLevel))

  00019	8b 4c 24 1c	 mov	 ecx, DWORD PTR _dwTick$[esp+16]
  0001d	8b 53 04	 mov	 edx, DWORD PTR [ebx+4]
  00020	8d 44 24 0b	 lea	 eax, DWORD PTR _bLevel$[esp+20]
  00024	50		 push	 eax
  00025	51		 push	 ecx
  00026	52		 push	 edx
  00027	8b cf		 mov	 ecx, edi
  00029	c6 44 24 24 00	 mov	 BYTE PTR _bCanSpawn$[esp+28], 0
  0002e	e8 00 00 00 00	 call	 ?CanRunQuest@CTPlayer@@QAEEPAUtagQUESTTEMP@@KAAE@Z ; CTPlayer::CanRunQuest
  00033	84 c0		 test	 al, al
  00035	0f 85 be 00 00
	00		 jne	 $L175340
  0003b	55		 push	 ebp
  0003c	56		 push	 esi

; 38   : 	{
; 39   : 		WORD wSpawnID;
; 40   : 		for( int i=0; i<INT(m_pQUEST->m_vTerm.size()); i++)

  0003d	33 ed		 xor	 ebp, ebp
  0003f	90		 npad	 1
$L175235:
  00040	8b 4b 04	 mov	 ecx, DWORD PTR [ebx+4]
  00043	8b 51 24	 mov	 edx, DWORD PTR [ecx+36]
  00046	85 d2		 test	 edx, edx
  00048	75 04		 jne	 SHORT $L176844
  0004a	33 c0		 xor	 eax, eax
  0004c	eb 08		 jmp	 SHORT $L176845
$L176844:
  0004e	8b 41 28	 mov	 eax, DWORD PTR [ecx+40]
  00051	2b c2		 sub	 eax, edx
  00053	c1 f8 02	 sar	 eax, 2
$L176845:
  00056	3b e8		 cmp	 ebp, eax
  00058	7d 6a		 jge	 SHORT $L175237
  0005a	8b 41 24	 mov	 eax, DWORD PTR [ecx+36]

; 41   : 			if( m_pQUEST->m_vTerm[i]->m_bTermType == QTT_SPAWNID )

  0005d	8b 0c a8	 mov	 ecx, DWORD PTR [eax+ebp*4]
  00060	8d 34 a8	 lea	 esi, DWORD PTR [eax+ebp*4]
  00063	80 79 04 10	 cmp	 BYTE PTR [ecx+4], 16	; 00000010H
  00067	75 55		 jne	 SHORT $L175236

; 42   : 			{
; 43   : 				wSpawnID = (WORD)m_pQUEST->m_vTerm[i]->m_dwTermID;

  00069	8b d1		 mov	 edx, ecx
  0006b	33 c0		 xor	 eax, eax
  0006d	66 8b 02	 mov	 ax, WORD PTR [edx]

; 44   : 				MAPTMONSPAWNTEMP::iterator it = _AtlModule.m_mapTMONSPAWN.find(wSpawnID);

  00070	8d 4c 24 14	 lea	 ecx, DWORD PTR _wSpawnID$175233[esp+28]
  00074	51		 push	 ecx
  00075	8d 54 24 1c	 lea	 edx, DWORD PTR _it$175317[esp+32]
  00079	52		 push	 edx
  0007a	b9 84 01 00 00	 mov	 ecx, OFFSET FLAT:?_AtlModule@@3VCTMapSvrModule@@A+388
  0007f	89 44 24 1c	 mov	 DWORD PTR _wSpawnID$175233[esp+36], eax
  00083	e8 00 00 00 00	 call	 ?find@?$_Tree@V?$_Tmap_traits@GPAUtagTMONSPAWN@@U?$less@G@std@@V?$allocator@U?$pair@$$CBGPAUtagTMONSPAWN@@@std@@@3@$0A@@std@@@std@@QAE?AViterator@12@ABG@Z ; std::_Tree<std::_Tmap_traits<unsigned short,tagTMONSPAWN *,std::less<unsigned short>,std::allocator<std::pair<unsigned short const ,tagTMONSPAWN *> >,0> >::find

; 45   : 				if(it!=_AtlModule.m_mapTMONSPAWN.end())

  00088	8b 44 24 18	 mov	 eax, DWORD PTR _it$175317[esp+28]
  0008c	3b 05 88 01 00
	00		 cmp	 eax, DWORD PTR ?_AtlModule@@3VCTMapSvrModule@@A+392
  00092	74 2a		 je	 SHORT $L175236

; 46   : 				{
; 47   : 					pSPAWN = (*it).second;
; 48   : 					if(pPlayer->m_pMAP->AddTimelimitedMon( pSPAWN, pPlayer->m_pMAP->m_bChannel, TCONTRY_N, m_pQUEST->m_vTerm[i]->m_bCount))

  00094	8b 16		 mov	 edx, DWORD PTR [esi]
  00096	0f b6 52 05	 movzx	 edx, BYTE PTR [edx+5]
  0009a	8b 8f 40 01 01
	00		 mov	 ecx, DWORD PTR [edi+65856]
  000a0	8b 40 10	 mov	 eax, DWORD PTR [eax+16]
  000a3	52		 push	 edx
  000a4	33 d2		 xor	 edx, edx
  000a6	8a 91 8d 00 00
	00		 mov	 dl, BYTE PTR [ecx+141]
  000ac	6a 03		 push	 3
  000ae	52		 push	 edx
  000af	50		 push	 eax
  000b0	e8 00 00 00 00	 call	 ?AddTimelimitedMon@CTMap@@QAEPAVCTMonSpawn@@PAUtagTMONSPAWN@@EEE@Z ; CTMap::AddTimelimitedMon
  000b5	85 c0		 test	 eax, eax
  000b7	74 05		 je	 SHORT $L175236

; 49   : 						bCanSpawn = TRUE;

  000b9	c6 44 24 20 01	 mov	 BYTE PTR _bCanSpawn$[esp+24], 1
$L175236:

; 38   : 	{
; 39   : 		WORD wSpawnID;
; 40   : 		for( int i=0; i<INT(m_pQUEST->m_vTerm.size()); i++)

  000be	45		 inc	 ebp
  000bf	e9 7c ff ff ff	 jmp	 $L175235
$L175237:

; 50   : 				}
; 51   : 			}
; 52   : 
; 53   : 		if(bCanSpawn)

  000c4	8a 44 24 20	 mov	 al, BYTE PTR _bCanSpawn$[esp+24]
  000c8	84 c0		 test	 al, al
  000ca	5e		 pop	 esi
  000cb	5d		 pop	 ebp
  000cc	74 2b		 je	 SHORT $L175340

; 54   : 			CQuest::ExecQuest(
; 55   : 				pPlayer,
; 56   : 				dwTick,
; 57   : 				pTRIGGER,
; 58   : 				pQUESTTEMP,
; 59   : 				pITEMTEMP,
; 60   : 				pSKILLTEMP,
; 61   : 				pMONTEMP,
; 62   : 				pCLASS);

  000ce	8b 44 24 34	 mov	 eax, DWORD PTR _pCLASS$[esp+16]
  000d2	8b 4c 24 30	 mov	 ecx, DWORD PTR _pMONTEMP$[esp+16]
  000d6	8b 54 24 2c	 mov	 edx, DWORD PTR _pSKILLTEMP$[esp+16]
  000da	50		 push	 eax
  000db	8b 44 24 2c	 mov	 eax, DWORD PTR _pITEMTEMP$[esp+20]
  000df	51		 push	 ecx
  000e0	8b 4c 24 2c	 mov	 ecx, DWORD PTR _pQUESTTEMP$[esp+24]
  000e4	52		 push	 edx
  000e5	8b 54 24 2c	 mov	 edx, DWORD PTR _pTRIGGER$[esp+28]
  000e9	50		 push	 eax
  000ea	8b 44 24 2c	 mov	 eax, DWORD PTR _dwTick$[esp+32]
  000ee	51		 push	 ecx
  000ef	52		 push	 edx
  000f0	50		 push	 eax
  000f1	57		 push	 edi
  000f2	8b cb		 mov	 ecx, ebx
  000f4	e8 00 00 00 00	 call	 ?ExecQuest@CQuest@@UAEXPAVCTPlayer@@KPAV?$map@EPAV?$map@KPAV?$vector@PAUtagQUESTTEMP@@V?$allocator@PAUtagQUESTTEMP@@@std@@@std@@U?$less@K@2@V?$allocator@U?$pair@$$CBKPAV?$vector@PAUtagQUESTTEMP@@V?$allocator@PAUtagQUESTTEMP@@@std@@@std@@@std@@@2@@std@@U?$less@E@2@V?$allocator@U?$pair@$$CBEPAV?$map@KPAV?$vector@PAUtagQUESTTEMP@@V?$allocator@PAUtagQUESTTEMP@@@std@@@std@@U?$less@K@2@V?$allocator@U?$pair@$$CBKPAV?$vector@PAUtagQUESTTEMP@@V?$allocator@PAUtagQUESTTEMP@@@std@@@std@@@std@@@2@@std@@@std@@@2@@std@@PAV?$map@KPAUtagQUESTTEMP@@U?$less@K@std@@V?$allocator@U?$pair@$$CBKPAUtagQUESTTEMP@@@std@@@3@@4@PAV?$map@GPAUtagTITEM@@U?$less@G@std@@V?$allocator@U?$pair@$$CBGPAUtagTITEM@@@std@@@3@@4@PAV?$map@GPAVCTSkillTemp@@U?$less@G@std@@V?$allocator@U?$pair@$$CBGPAVCTSkillTemp@@@std@@@3@@4@PAV?$map@GPAUtagTMONSTER@@U?$less@G@std@@V?$allocator@U?$pair@$$CBGPAUtagTMONSTER@@@std@@@3@@4@PAV?$map@EPAUtagTSTAT@@U?$less@E@std@@V?$allocator@U?$pair@$$CBEPAUtagTSTAT@@@std@@@3@@4@@Z ; CQuest::ExecQuest
$L175340:
  000f9	5f		 pop	 edi
  000fa	5b		 pop	 ebx

; 63   : 	}
; 64   : }

  000fb	83 c4 0c	 add	 esp, 12			; 0000000cH
  000fe	c2 20 00	 ret	 32			; 00000020H
?ExecQuest@CQuestSpawnMon@@UAEXPAVCTPlayer@@KPAV?$map@EPAV?$map@KPAV?$vector@PAUtagQUESTTEMP@@V?$allocator@PAUtagQUESTTEMP@@@std@@@std@@U?$less@K@2@V?$allocator@U?$pair@$$CBKPAV?$vector@PAUtagQUESTTEMP@@V?$allocator@PAUtagQUESTTEMP@@@std@@@std@@@std@@@2@@std@@U?$less@E@2@V?$allocator@U?$pair@$$CBEPAV?$map@KPAV?$vector@PAUtagQUESTTEMP@@V?$allocator@PAUtagQUESTTEMP@@@std@@@std@@U?$less@K@2@V?$allocator@U?$pair@$$CBKPAV?$vector@PAUtagQUESTTEMP@@V?$allocator@PAUtagQUESTTEMP@@@std@@@std@@@std@@@2@@std@@@std@@@2@@std@@PAV?$map@KPAUtagQUESTTEMP@@U?$less@K@std@@V?$allocator@U?$pair@$$CBKPAUtagQUESTTEMP@@@std@@@3@@4@PAV?$map@GPAUtagTITEM@@U?$less@G@std@@V?$allocator@U?$pair@$$CBGPAUtagTITEM@@@std@@@3@@4@PAV?$map@GPAVCTSkillTemp@@U?$less@G@std@@V?$allocator@U?$pair@$$CBGPAVCTSkillTemp@@@std@@@3@@4@PAV?$map@GPAUtagTMONSTER@@U?$less@G@std@@V?$allocator@U?$pair@$$CBGPAUtagTMONSTER@@@std@@@3@@4@PAV?$map@EPAUtagTSTAT@@U?$less@E@std@@V?$allocator@U?$pair@$$CBEPAUtagTSTAT@@@std@@@3@@4@@Z ENDP ; CQuestSpawnMon::ExecQuest
_TEXT	ENDS
END
