; Listing generated by Microsoft (R) Optimizing Compiler Version 13.10.3077 

	TITLE	.\QuestTeleport.cpp
	.386P
include listing.inc
if @Version gt 510
.model FLAT
else
_TEXT	SEGMENT PARA USE32 PUBLIC 'CODE'
_TEXT	ENDS
_DATA	SEGMENT DWORD USE32 PUBLIC 'DATA'
_DATA	ENDS
CONST	SEGMENT DWORD USE32 PUBLIC 'CONST'
CONST	ENDS
_BSS	SEGMENT DWORD USE32 PUBLIC 'BSS'
_BSS	ENDS
$$SYMBOLS	SEGMENT BYTE USE32 'DEBSYM'
$$SYMBOLS	ENDS
$$TYPES	SEGMENT BYTE USE32 'DEBTYP'
$$TYPES	ENDS
_TLS	SEGMENT DWORD USE32 PUBLIC 'TLS'
_TLS	ENDS
;	COMDAT ??_C@_1EO@BGAEGJFB@?$AA?$HL?$AA5?$AA1?$AAA?$AAB?$AA7?$AAA?$AA3?$AA0?$AA?9?$AA9?$AA9?$AA5?$AAA?$AA?9?$AA4?$AA4?$AAA?$AAB?$AA?9@
CONST	SEGMENT DWORD USE32 PUBLIC 'CONST'
CONST	ENDS
;	COMDAT ??_C@_0CH@JJOAEHDK@?$HL51AB7A30?9995A?944AB?9B869?97D79E92@
CONST	SEGMENT DWORD USE32 PUBLIC 'CONST'
CONST	ENDS
;	COMDAT ??_C@_0N@OGFEPDED@LocalService?$AA@
CONST	SEGMENT DWORD USE32 PUBLIC 'CONST'
CONST	ENDS
;	COMDAT ??_C@_02CCDHMLDD@?9?1?$AA@
CONST	SEGMENT DWORD USE32 PUBLIC 'CONST'
CONST	ENDS
;	COMDAT ??_C@_0M@MIGBKCMN@UnregServer?$AA@
CONST	SEGMENT DWORD USE32 PUBLIC 'CONST'
CONST	ENDS
;	COMDAT ??_C@_09LJBJJPCG@RegServer?$AA@
CONST	SEGMENT DWORD USE32 PUBLIC 'CONST'
CONST	ENDS
;	COMDAT ??_C@_07LMLHFMEG@Service?$AA@
CONST	SEGMENT DWORD USE32 PUBLIC 'CONST'
CONST	ENDS
;	COMDAT ??_C@_07PNHNHBAB@Install?$AA@
CONST	SEGMENT DWORD USE32 PUBLIC 'CONST'
CONST	ENDS
;	COMDAT ??_C@_09LAEJNBCE@UnInstall?$AA@
CONST	SEGMENT DWORD USE32 PUBLIC 'CONST'
CONST	ENDS
;	COMDAT ??_C@_04FABLJDN@Name?$AA@
CONST	SEGMENT DWORD USE32 PUBLIC 'CONST'
CONST	ENDS
;	COMDAT ??_C@_01CLKCMJKC@?5?$AA@
CONST	SEGMENT DWORD USE32 PUBLIC 'CONST'
CONST	ENDS
;	COMDAT ??_C@_0M@DBFDLFJJ@?$CFs?5?9Name?5?$CFs?$AA@
CONST	SEGMENT DWORD USE32 PUBLIC 'CONST'
CONST	ENDS
;	COMDAT ??_C@_0BP@GECJKCAK@Could?5not?5open?5Service?5Manager?$AA@
CONST	SEGMENT DWORD USE32 PUBLIC 'CONST'
CONST	ENDS
;	COMDAT ??_C@_06HCEGMCNE@RPCSS?$AA?$AA@
CONST	SEGMENT DWORD USE32 PUBLIC 'CONST'
CONST	ENDS
;	COMDAT ??_C@_0BI@HDJFCBEP@Could?5not?5start?5service?$AA@
CONST	SEGMENT DWORD USE32 PUBLIC 'CONST'
CONST	ENDS
;	COMDAT ??_C@_0BH@JMOCNDDL@Could?5not?5open?5service?$AA@
CONST	SEGMENT DWORD USE32 PUBLIC 'CONST'
CONST	ENDS
;	COMDAT ??_C@_0BH@GKJBBOLK@Could?5not?5stop?5service?$AA@
CONST	SEGMENT DWORD USE32 PUBLIC 'CONST'
CONST	ENDS
;	COMDAT ??_C@_0BJ@NMBIIKKI@Could?5not?5delete?5service?$AA@
CONST	SEGMENT DWORD USE32 PUBLIC 'CONST'
CONST	ENDS
text$yc	SEGMENT PARA USE32 PUBLIC 'CODE'
text$yc	ENDS
CRT$XCA	SEGMENT DWORD USE32 PUBLIC 'DATA'
CRT$XCA	ENDS
CRT$XCU	SEGMENT DWORD USE32 PUBLIC 'DATA'
CRT$XCU	ENDS
CRT$XCL	SEGMENT DWORD USE32 PUBLIC 'DATA'
CRT$XCL	ENDS
CRT$XCC	SEGMENT DWORD USE32 PUBLIC 'DATA'
CRT$XCC	ENDS
CRT$XCZ	SEGMENT DWORD USE32 PUBLIC 'DATA'
CRT$XCZ	ENDS
text$yd	SEGMENT PARA USE32 PUBLIC 'CODE'
text$yd	ENDS
ATL$__m	SEGMENT DWORD USE32 PUBLIC ''
ATL$__m	ENDS
ATL$__z	SEGMENT DWORD USE32 PUBLIC ''
ATL$__z	ENDS
ATL$__a	SEGMENT DWORD USE32 PUBLIC ''
ATL$__a	ENDS
xdata$x	SEGMENT DWORD USE32 PUBLIC 'CONST'
xdata$x	ENDS
;	COMDAT ?GetAppId@CTMapSvrModule@@SAPBGXZ
_TEXT	SEGMENT PARA USE32 PUBLIC 'CODE'
_TEXT	ENDS
;	COMDAT ?GetAppIdT@CTMapSvrModule@@SAPADXZ
_TEXT	SEGMENT PARA USE32 PUBLIC 'CODE'
_TEXT	ENDS
;	COMDAT ?UpdateRegistryAppId@CTMapSvrModule@@SGJH@Z
_TEXT	SEGMENT PARA USE32 PUBLIC 'CODE'
_TEXT	ENDS
;	COMDAT ?RegisterAppId@CTMapSvrModule@@QAEJ_N@Z
_TEXT	SEGMENT PARA USE32 PUBLIC 'CODE'
_TEXT	ENDS
;	COMDAT ?Install@CTMapSvrModule@@QAEHXZ
_TEXT	SEGMENT PARA USE32 PUBLIC 'CODE'
_TEXT	ENDS
;	COMDAT ??0CQuestTeleport@@QAE@XZ
_TEXT	SEGMENT PARA USE32 PUBLIC 'CODE'
_TEXT	ENDS
;	COMDAT ??_GCQuestTeleport@@UAEPAXI@Z
_TEXT	SEGMENT PARA USE32 PUBLIC 'CODE'
_TEXT	ENDS
;	COMDAT ??1CQuestTeleport@@UAE@XZ
_TEXT	SEGMENT PARA USE32 PUBLIC 'CODE'
_TEXT	ENDS
;	COMDAT ?ExecQuest@CQuestTeleport@@UAEXPAVCTPlayer@@KPAV?$map@EPAV?$map@KPAV?$vector@PAUtagQUESTTEMP@@V?$allocator@PAUtagQUESTTEMP@@@std@@@std@@U?$less@K@2@V?$allocator@U?$pair@$$CBKPAV?$vector@PAUtagQUESTTEMP@@V?$allocator@PAUtagQUESTTEMP@@@std@@@std@@@std@@@2@@std@@U?$less@E@2@V?$allocator@U?$pair@$$CBEPAV?$map@KPAV?$vector@PAUtagQUESTTEMP@@V?$allocator@PAUtagQUESTTEMP@@@std@@@std@@U?$less@K@2@V?$allocator@U?$pair@$$CBKPAV?$vector@PAUtagQUESTTEMP@@V?$allocator@PAUtagQUESTTEMP@@@std@@@std@@@std@@@2@@std@@@std@@@2@@std@@PAV?$map@KPAUtagQUESTTEMP@@U?$less@K@std@@V?$allocator@U?$pair@$$CBKPAUtagQUESTTEMP@@@std@@@3@@4@PAV?$map@GPAUtagTITEM@@U?$less@G@std@@V?$allocator@U?$pair@$$CBGPAUtagTITEM@@@std@@@3@@4@PAV?$map@GPAVCTSkillTemp@@U?$less@G@std@@V?$allocator@U?$pair@$$CBGPAVCTSkillTemp@@@std@@@3@@4@PAV?$map@GPAUtagTMONSTER@@U?$less@G@std@@V?$allocator@U?$pair@$$CBGPAUtagTMONSTER@@@std@@@3@@4@PAV?$map@EPAUtagTSTAT@@U?$less@E@std@@V?$allocator@U?$pair@$$CBEPAUtagTSTAT@@@std@@@3@@4@@Z
_TEXT	SEGMENT PARA USE32 PUBLIC 'CODE'
_TEXT	ENDS
;	COMDAT ?Tokenize@?$CStringT@DV?$StrTraitATL@DV?$ChTraitsCRT@D@ATL@@@ATL@@@ATL@@QBE?AV12@PBDAAH@Z
_TEXT	SEGMENT PARA USE32 PUBLIC 'CODE'
_TEXT	ENDS
;	COMDAT ?Format@?$CStringT@DV?$StrTraitATL@DV?$ChTraitsCRT@D@ATL@@@ATL@@@ATL@@QAAXPBDZZ
_TEXT	SEGMENT PARA USE32 PUBLIC 'CODE'
_TEXT	ENDS
;	COMDAT ??A?$vector@PAUtagQUESTTERM@@V?$allocator@PAUtagQUESTTERM@@@std@@@std@@QAEAAPAUtagQUESTTERM@@I@Z
_TEXT	SEGMENT PARA USE32 PUBLIC 'CODE'
_TEXT	ENDS
;	COMDAT ?UnregisterAppId@?$CAtlServiceModuleT@VCTMapSvrModule@@$0GE@@ATL@@QAEJXZ
_TEXT	SEGMENT PARA USE32 PUBLIC 'CODE'
_TEXT	ENDS
;	COMDAT ?IsInstalled@?$CAtlServiceModuleT@VCTMapSvrModule@@$0GE@@ATL@@QAEHXZ
_TEXT	SEGMENT PARA USE32 PUBLIC 'CODE'
_TEXT	ENDS
;	COMDAT ?Uninstall@?$CAtlServiceModuleT@VCTMapSvrModule@@$0GE@@ATL@@QAEHXZ
_TEXT	SEGMENT PARA USE32 PUBLIC 'CODE'
_TEXT	ENDS
;	COMDAT ??1?$CAtlExeModuleT@VCTMapSvrModule@@@ATL@@UAE@XZ
_TEXT	SEGMENT PARA USE32 PUBLIC 'CODE'
_TEXT	ENDS
;	COMDAT ?Unlock@?$CAtlExeModuleT@VCTMapSvrModule@@@ATL@@UAEJXZ
_TEXT	SEGMENT PARA USE32 PUBLIC 'CODE'
_TEXT	ENDS
;	COMDAT ?RegisterServer@?$CAtlModuleT@VCTMapSvrModule@@@ATL@@QAEJHPBU_GUID@@@Z
_TEXT	SEGMENT PARA USE32 PUBLIC 'CODE'
_TEXT	ENDS
;	COMDAT ?UnregisterServer@?$CAtlModuleT@VCTMapSvrModule@@@ATL@@QAEJHPBU_GUID@@@Z
_TEXT	SEGMENT PARA USE32 PUBLIC 'CODE'
_TEXT	ENDS
;	COMDAT ?AddCommonRGSReplacements@?$CAtlModuleT@VCTMapSvrModule@@@ATL@@UAEJPAUIRegistrarBase@@@Z
_TEXT	SEGMENT PARA USE32 PUBLIC 'CODE'
_TEXT	ENDS
;	COMDAT ??_G?$CAtlExeModuleT@VCTMapSvrModule@@@ATL@@UAEPAXI@Z
_TEXT	SEGMENT PARA USE32 PUBLIC 'CODE'
_TEXT	ENDS
;	COMDAT ??1?$CAtlModuleT@VCTMapSvrModule@@@ATL@@UAE@XZ
_TEXT	SEGMENT PARA USE32 PUBLIC 'CODE'
_TEXT	ENDS
;	COMDAT ??0?$CStringT@DV?$StrTraitATL@DV?$ChTraitsCRT@D@ATL@@@ATL@@@ATL@@QAE@PAUIAtlStringMgr@1@@Z
_TEXT	SEGMENT PARA USE32 PUBLIC 'CODE'
_TEXT	ENDS
;	COMDAT ?Mid@?$CStringT@DV?$StrTraitATL@DV?$ChTraitsCRT@D@ATL@@@ATL@@@ATL@@QBE?AV12@HH@Z
_TEXT	SEGMENT PARA USE32 PUBLIC 'CODE'
_TEXT	ENDS
;	COMDAT ?FormatV@?$CStringT@DV?$StrTraitATL@DV?$ChTraitsCRT@D@ATL@@@ATL@@@ATL@@QAEXPBDPAD@Z
_TEXT	SEGMENT PARA USE32 PUBLIC 'CODE'
_TEXT	ENDS
;	COMDAT ?GetManager@?$CSimpleStringT@D$0A@@ATL@@QBEPAUIAtlStringMgr@2@XZ
_TEXT	SEGMENT PARA USE32 PUBLIC 'CODE'
_TEXT	ENDS
;	COMDAT ?StringSpanIncluding@?$ChTraitsCRT@D@ATL@@SAHPBD0@Z
_TEXT	SEGMENT PARA USE32 PUBLIC 'CODE'
_TEXT	ENDS
;	COMDAT ?StringSpanExcluding@?$ChTraitsCRT@D@ATL@@SAHPBD0@Z
_TEXT	SEGMENT PARA USE32 PUBLIC 'CODE'
_TEXT	ENDS
;	COMDAT ?begin@?$vector@PAUtagQUESTTERM@@V?$allocator@PAUtagQUESTTERM@@@std@@@std@@QAE?AViterator@12@XZ
_TEXT	SEGMENT PARA USE32 PUBLIC 'CODE'
_TEXT	ENDS
;	COMDAT ??Hiterator@?$vector@PAUtagQUESTTERM@@V?$allocator@PAUtagQUESTTERM@@@std@@@std@@QBE?AV012@H@Z
_TEXT	SEGMENT PARA USE32 PUBLIC 'CODE'
_TEXT	ENDS
;	COMDAT ?UninitializeCom@?$CAtlExeModuleT@VCTMapSvrModule@@@ATL@@SAXXZ
_TEXT	SEGMENT PARA USE32 PUBLIC 'CODE'
_TEXT	ENDS
;	COMDAT ??0?$CStringT@DV?$StrTraitATL@DV?$ChTraitsCRT@D@ATL@@@ATL@@@ATL@@QAE@PBDHPAUIAtlStringMgr@1@@Z
_TEXT	SEGMENT PARA USE32 PUBLIC 'CODE'
_TEXT	ENDS
;	COMDAT ??0?$CSimpleStringT@D$0A@@ATL@@QAE@PBDHPAUIAtlStringMgr@1@@Z
_TEXT	SEGMENT PARA USE32 PUBLIC 'CODE'
_TEXT	ENDS
;	COMDAT ?Unlock@?$CComCritSecLock@VCComCriticalSection@ATL@@@ATL@@QAEXXZ
_TEXT	SEGMENT PARA USE32 PUBLIC 'CODE'
_TEXT	ENDS
;	COMDAT ??$_Uninit_fill_n@GIG@std@@YAXPAGIABGAAV?$allocator@G@0@U_Scalar_ptr_iterator_tag@0@@Z
_TEXT	SEGMENT PARA USE32 PUBLIC 'CODE'
_TEXT	ENDS
;	COMDAT ??$_Ptr_cat@UtagTAICONDITION@@@std@@YA?AU_Scalar_ptr_iterator_tag@0@PAPAUtagTAICONDITION@@0@Z
_TEXT	SEGMENT PARA USE32 PUBLIC 'CODE'
_TEXT	ENDS
;	COMDAT ??$_Destroy_range@PAUtagTAICONDITION@@V?$allocator@PAUtagTAICONDITION@@@std@@@std@@YAXPAPAUtagTAICONDITION@@0AAV?$allocator@PAUtagTAICONDITION@@@0@U_Scalar_ptr_iterator_tag@0@@Z
_TEXT	SEGMENT PARA USE32 PUBLIC 'CODE'
_TEXT	ENDS
;	COMDAT ??$_Ptr_cat@UtagTMONITEM@@@std@@YA?AU_Scalar_ptr_iterator_tag@0@PAPAUtagTMONITEM@@0@Z
_TEXT	SEGMENT PARA USE32 PUBLIC 'CODE'
_TEXT	ENDS
;	COMDAT ??$_Destroy_range@PAUtagTMONITEM@@V?$allocator@PAUtagTMONITEM@@@std@@@std@@YAXPAPAUtagTMONITEM@@0AAV?$allocator@PAUtagTMONITEM@@@0@U_Scalar_ptr_iterator_tag@0@@Z
_TEXT	SEGMENT PARA USE32 PUBLIC 'CODE'
_TEXT	ENDS
;	COMDAT ??$_Ptr_cat@UtagTMAPMON@@@std@@YA?AU_Scalar_ptr_iterator_tag@0@PAPAUtagTMAPMON@@0@Z
_TEXT	SEGMENT PARA USE32 PUBLIC 'CODE'
_TEXT	ENDS
;	COMDAT ??$_Destroy_range@PAUtagTMAPMON@@V?$allocator@PAUtagTMAPMON@@@std@@@std@@YAXPAPAUtagTMAPMON@@0AAV?$allocator@PAUtagTMAPMON@@@0@U_Scalar_ptr_iterator_tag@0@@Z
_TEXT	SEGMENT PARA USE32 PUBLIC 'CODE'
_TEXT	ENDS
;	COMDAT ??$_Ptr_cat@UtagPATHPOINT@@@std@@YA?AU_Scalar_ptr_iterator_tag@0@PAPAUtagPATHPOINT@@0@Z
_TEXT	SEGMENT PARA USE32 PUBLIC 'CODE'
_TEXT	ENDS
;	COMDAT ??$_Destroy_range@PAUtagPATHPOINT@@V?$allocator@PAUtagPATHPOINT@@@std@@@std@@YAXPAPAUtagPATHPOINT@@0AAV?$allocator@PAUtagPATHPOINT@@@0@U_Scalar_ptr_iterator_tag@0@@Z
_TEXT	SEGMENT PARA USE32 PUBLIC 'CODE'
_TEXT	ENDS
;	COMDAT ??$_Ptr_cat@UtagQUESTCONDITION@@@std@@YA?AU_Scalar_ptr_iterator_tag@0@PAPAUtagQUESTCONDITION@@0@Z
_TEXT	SEGMENT PARA USE32 PUBLIC 'CODE'
_TEXT	ENDS
;	COMDAT ??$_Destroy_range@PAUtagQUESTCONDITION@@V?$allocator@PAUtagQUESTCONDITION@@@std@@@std@@YAXPAPAUtagQUESTCONDITION@@0AAV?$allocator@PAUtagQUESTCONDITION@@@0@U_Scalar_ptr_iterator_tag@0@@Z
_TEXT	SEGMENT PARA USE32 PUBLIC 'CODE'
_TEXT	ENDS
;	COMDAT ??$_Ptr_cat@UtagQUESTREWARD@@@std@@YA?AU_Scalar_ptr_iterator_tag@0@PAPAUtagQUESTREWARD@@0@Z
_TEXT	SEGMENT PARA USE32 PUBLIC 'CODE'
_TEXT	ENDS
;	COMDAT ??$_Destroy_range@PAUtagQUESTREWARD@@V?$allocator@PAUtagQUESTREWARD@@@std@@@std@@YAXPAPAUtagQUESTREWARD@@0AAV?$allocator@PAUtagQUESTREWARD@@@0@U_Scalar_ptr_iterator_tag@0@@Z
_TEXT	SEGMENT PARA USE32 PUBLIC 'CODE'
_TEXT	ENDS
;	COMDAT ??$_Ptr_cat@UtagQUESTTERM@@@std@@YA?AU_Scalar_ptr_iterator_tag@0@PAPAUtagQUESTTERM@@0@Z
_TEXT	SEGMENT PARA USE32 PUBLIC 'CODE'
_TEXT	ENDS
;	COMDAT ??$_Destroy_range@PAUtagQUESTTERM@@V?$allocator@PAUtagQUESTTERM@@@std@@@std@@YAXPAPAUtagQUESTTERM@@0AAV?$allocator@PAUtagQUESTTERM@@@0@U_Scalar_ptr_iterator_tag@0@@Z
_TEXT	SEGMENT PARA USE32 PUBLIC 'CODE'
_TEXT	ENDS
;	COMDAT ??$_Ptr_cat@PAUtagTCASHITMSALE@@PAU1@@std@@YA?AU_Nonscalar_ptr_iterator_tag@0@AAPAUtagTCASHITMSALE@@0@Z
_TEXT	SEGMENT PARA USE32 PUBLIC 'CODE'
_TEXT	ENDS
;	COMDAT ??$_Uninit_fill_n@PAUtagTCASHITMSALE@@IU1@V?$allocator@UtagTCASHITMSALE@@@std@@@std@@YAXPAUtagTCASHITMSALE@@IABU1@AAV?$allocator@UtagTCASHITMSALE@@@0@U_Nonscalar_ptr_iterator_tag@0@@Z
_TEXT	SEGMENT PARA USE32 PUBLIC 'CODE'
_TEXT	ENDS
;	COMDAT ??$_Ptr_cat@PAUtagMONREGEN@@PAU1@@std@@YA?AU_Nonscalar_ptr_iterator_tag@0@AAPAUtagMONREGEN@@0@Z
_TEXT	SEGMENT PARA USE32 PUBLIC 'CODE'
_TEXT	ENDS
;	COMDAT ??$_Uninit_fill_n@PAUtagMONREGEN@@IU1@V?$allocator@UtagMONREGEN@@@std@@@std@@YAXPAUtagMONREGEN@@IABU1@AAV?$allocator@UtagMONREGEN@@@0@U_Nonscalar_ptr_iterator_tag@0@@Z
_TEXT	SEGMENT PARA USE32 PUBLIC 'CODE'
_TEXT	ENDS
;	COMDAT ??$_Ptr_cat@PAUtagLOTTERY@@PAU1@@std@@YA?AU_Nonscalar_ptr_iterator_tag@0@AAPAUtagLOTTERY@@0@Z
_TEXT	SEGMENT PARA USE32 PUBLIC 'CODE'
_TEXT	ENDS
;	COMDAT ??$_Uninit_fill_n@PAUtagLOTTERY@@IU1@V?$allocator@UtagLOTTERY@@@std@@@std@@YAXPAUtagLOTTERY@@IABU1@AAV?$allocator@UtagLOTTERY@@@0@U_Nonscalar_ptr_iterator_tag@0@@Z
_TEXT	SEGMENT PARA USE32 PUBLIC 'CODE'
_TEXT	ENDS
;	COMDAT ??$_Destroy_range@GV?$allocator@G@std@@@std@@YAXPAG0AAV?$allocator@G@0@U_Scalar_ptr_iterator_tag@0@@Z
_TEXT	SEGMENT PARA USE32 PUBLIC 'CODE'
_TEXT	ENDS
;	COMDAT ??$_Uninitialized_copy@PAGPAGV?$allocator@G@std@@@std@@YAPAGPAG00AAV?$allocator@G@0@@Z
_TEXT	SEGMENT PARA USE32 PUBLIC 'CODE'
_TEXT	ENDS
;	COMDAT ??$_Copy_backward_opt@PAGPAG@std@@YAPAGPAG00U_Scalar_ptr_iterator_tag@0@@Z
_TEXT	SEGMENT PARA USE32 PUBLIC 'CODE'
_TEXT	ENDS
;	COMDAT ??$_Ptr_cat@VCTPlayer@@@std@@YA?AU_Scalar_ptr_iterator_tag@0@PAPAVCTPlayer@@0@Z
_TEXT	SEGMENT PARA USE32 PUBLIC 'CODE'
_TEXT	ENDS
;	COMDAT ??$_Destroy_range@PAVCTPlayer@@V?$allocator@PAVCTPlayer@@@std@@@std@@YAXPAPAVCTPlayer@@0AAV?$allocator@PAVCTPlayer@@@0@U_Scalar_ptr_iterator_tag@0@@Z
_TEXT	SEGMENT PARA USE32 PUBLIC 'CODE'
_TEXT	ENDS
;	COMDAT ??$_Destroy_range@UtagTCASHITMSALE@@V?$allocator@UtagTCASHITMSALE@@@std@@@std@@YAXPAUtagTCASHITMSALE@@0AAV?$allocator@UtagTCASHITMSALE@@@0@U_Nonscalar_ptr_iterator_tag@0@@Z
_TEXT	SEGMENT PARA USE32 PUBLIC 'CODE'
_TEXT	ENDS
;	COMDAT ??$_Uninitialized_copy@PAUtagTCASHITMSALE@@PAU1@V?$allocator@UtagTCASHITMSALE@@@std@@@std@@YAPAUtagTCASHITMSALE@@PAU1@00AAV?$allocator@UtagTCASHITMSALE@@@0@@Z
_TEXT	SEGMENT PARA USE32 PUBLIC 'CODE'
_TEXT	ENDS
;	COMDAT ??$_Copy_backward_opt@PAUtagTCASHITMSALE@@PAU1@@std@@YAPAUtagTCASHITMSALE@@PAU1@00U_Nonscalar_ptr_iterator_tag@0@@Z
_TEXT	SEGMENT PARA USE32 PUBLIC 'CODE'
_TEXT	ENDS
;	COMDAT ??$_Destroy_range@UtagMONREGEN@@V?$allocator@UtagMONREGEN@@@std@@@std@@YAXPAUtagMONREGEN@@0AAV?$allocator@UtagMONREGEN@@@0@U_Nonscalar_ptr_iterator_tag@0@@Z
_TEXT	SEGMENT PARA USE32 PUBLIC 'CODE'
_TEXT	ENDS
;	COMDAT ??$_Uninitialized_copy@PAUtagMONREGEN@@PAU1@V?$allocator@UtagMONREGEN@@@std@@@std@@YAPAUtagMONREGEN@@PAU1@00AAV?$allocator@UtagMONREGEN@@@0@@Z
_TEXT	SEGMENT PARA USE32 PUBLIC 'CODE'
_TEXT	ENDS
;	COMDAT ??$_Copy_backward_opt@PAUtagMONREGEN@@PAU1@@std@@YAPAUtagMONREGEN@@PAU1@00U_Nonscalar_ptr_iterator_tag@0@@Z
_TEXT	SEGMENT PARA USE32 PUBLIC 'CODE'
_TEXT	ENDS
;	COMDAT ??$_Destroy_range@UtagLOTTERY@@V?$allocator@UtagLOTTERY@@@std@@@std@@YAXPAUtagLOTTERY@@0AAV?$allocator@UtagLOTTERY@@@0@U_Nonscalar_ptr_iterator_tag@0@@Z
_TEXT	SEGMENT PARA USE32 PUBLIC 'CODE'
_TEXT	ENDS
;	COMDAT ??$_Uninitialized_copy@PAUtagLOTTERY@@PAU1@V?$allocator@UtagLOTTERY@@@std@@@std@@YAPAUtagLOTTERY@@PAU1@00AAV?$allocator@UtagLOTTERY@@@0@@Z
_TEXT	SEGMENT PARA USE32 PUBLIC 'CODE'
_TEXT	ENDS
;	COMDAT ??$_Copy_backward_opt@PAUtagLOTTERY@@PAU1@@std@@YAPAUtagLOTTERY@@PAU1@00U_Nonscalar_ptr_iterator_tag@0@@Z
_TEXT	SEGMENT PARA USE32 PUBLIC 'CODE'
_TEXT	ENDS
;	COMDAT ?construct@?$allocator@UtagTCASHITMSALE@@@std@@QAEXPAUtagTCASHITMSALE@@ABU3@@Z
_TEXT	SEGMENT PARA USE32 PUBLIC 'CODE'
_TEXT	ENDS
;	COMDAT ?destroy@?$allocator@UtagTCASHITMSALE@@@std@@QAEXPAUtagTCASHITMSALE@@@Z
_TEXT	SEGMENT PARA USE32 PUBLIC 'CODE'
_TEXT	ENDS
;	COMDAT ?construct@?$allocator@UtagMONREGEN@@@std@@QAEXPAUtagMONREGEN@@ABU3@@Z
_TEXT	SEGMENT PARA USE32 PUBLIC 'CODE'
_TEXT	ENDS
;	COMDAT ?destroy@?$allocator@UtagMONREGEN@@@std@@QAEXPAUtagMONREGEN@@@Z
_TEXT	SEGMENT PARA USE32 PUBLIC 'CODE'
_TEXT	ENDS
;	COMDAT ?construct@?$allocator@UtagLOTTERY@@@std@@QAEXPAUtagLOTTERY@@ABU3@@Z
_TEXT	SEGMENT PARA USE32 PUBLIC 'CODE'
_TEXT	ENDS
;	COMDAT ?destroy@?$allocator@UtagLOTTERY@@@std@@QAEXPAUtagLOTTERY@@@Z
_TEXT	SEGMENT PARA USE32 PUBLIC 'CODE'
_TEXT	ENDS
;	COMDAT ??$fill_n@PAGIG@std@@YAXPAGIABG@Z
_TEXT	SEGMENT PARA USE32 PUBLIC 'CODE'
_TEXT	ENDS
;	COMDAT ??$_Uninit_copy@GG@std@@YAPAGPAG00AAV?$allocator@G@0@U_Scalar_ptr_iterator_tag@0@@Z
_TEXT	SEGMENT PARA USE32 PUBLIC 'CODE'
_TEXT	ENDS
;	COMDAT ??$_Uninit_copy@PAUtagTCASHITMSALE@@PAU1@V?$allocator@UtagTCASHITMSALE@@@std@@@std@@YAPAUtagTCASHITMSALE@@PAU1@00AAV?$allocator@UtagTCASHITMSALE@@@0@U_Nonscalar_ptr_iterator_tag@0@@Z
_TEXT	SEGMENT PARA USE32 PUBLIC 'CODE'
_TEXT	ENDS
;	COMDAT ??$_Uninit_copy@PAUtagMONREGEN@@PAU1@V?$allocator@UtagMONREGEN@@@std@@@std@@YAPAUtagMONREGEN@@PAU1@00AAV?$allocator@UtagMONREGEN@@@0@U_Nonscalar_ptr_iterator_tag@0@@Z
_TEXT	SEGMENT PARA USE32 PUBLIC 'CODE'
_TEXT	ENDS
;	COMDAT ??$_Uninit_copy@PAUtagLOTTERY@@PAU1@V?$allocator@UtagLOTTERY@@@std@@@std@@YAPAUtagLOTTERY@@PAU1@00AAV?$allocator@UtagLOTTERY@@@0@U_Nonscalar_ptr_iterator_tag@0@@Z
_TEXT	SEGMENT PARA USE32 PUBLIC 'CODE'
_TEXT	ENDS
;	COMDAT ??$_Construct@UtagTCASHITMSALE@@U1@@std@@YAXPAUtagTCASHITMSALE@@ABU1@@Z
_TEXT	SEGMENT PARA USE32 PUBLIC 'CODE'
_TEXT	ENDS
;	COMDAT ??$_Destroy@UtagTCASHITMSALE@@@std@@YAXPAUtagTCASHITMSALE@@@Z
_TEXT	SEGMENT PARA USE32 PUBLIC 'CODE'
_TEXT	ENDS
;	COMDAT ??$_Construct@UtagMONREGEN@@U1@@std@@YAXPAUtagMONREGEN@@ABU1@@Z
_TEXT	SEGMENT PARA USE32 PUBLIC 'CODE'
_TEXT	ENDS
;	COMDAT ??$_Destroy@UtagMONREGEN@@@std@@YAXPAUtagMONREGEN@@@Z
_TEXT	SEGMENT PARA USE32 PUBLIC 'CODE'
_TEXT	ENDS
;	COMDAT ??$_Construct@UtagLOTTERY@@U1@@std@@YAXPAUtagLOTTERY@@ABU1@@Z
_TEXT	SEGMENT PARA USE32 PUBLIC 'CODE'
_TEXT	ENDS
;	COMDAT ??$_Destroy@UtagLOTTERY@@@std@@YAXPAUtagLOTTERY@@@Z
_TEXT	SEGMENT PARA USE32 PUBLIC 'CODE'
_TEXT	ENDS
;	COMDAT ?GetGITPtr@CAtlModule@ATL@@UAEJPAPAUIGlobalInterfaceTable@@@Z
_TEXT	SEGMENT PARA USE32 PUBLIC 'CODE'
_TEXT	ENDS
;	COMDAT __GUID_00000146_0000_0000_c000_000000000046
CONST	SEGMENT DWORD USE32 PUBLIC 'CONST'
CONST	ENDS
;	COMDAT _CLSID_StdGlobalInterfaceTable
CONST	SEGMENT DWORD USE32 PUBLIC 'CONST'
CONST	ENDS
;	COMDAT ?GetLockCount@CAtlModule@ATL@@UAEJXZ
_TEXT	SEGMENT PARA USE32 PUBLIC 'CODE'
_TEXT	ENDS
;	COMDAT ?Lock@CAtlModule@ATL@@UAEJXZ
_TEXT	SEGMENT PARA USE32 PUBLIC 'CODE'
_TEXT	ENDS
;	COMDAT ?Increment@CComMultiThreadModel@ATL@@SGKPAJ@Z
_TEXT	SEGMENT PARA USE32 PUBLIC 'CODE'
_TEXT	ENDS
;	COMDAT ??2@YAPAXIPAX@Z
_TEXT	SEGMENT PARA USE32 PUBLIC 'CODE'
_TEXT	ENDS
;	COMDAT ?_Ptr_cat@std@@YA?AU_Scalar_ptr_iterator_tag@1@PAG0@Z
_TEXT	SEGMENT PARA USE32 PUBLIC 'CODE'
_TEXT	ENDS
;	COMDAT ?_Psave@?$_Facetptr@V?$ctype@G@std@@@std@@2PBVfacet@locale@2@B
_DATA	SEGMENT DWORD USE32 PUBLIC 'DATA'
_DATA	ENDS
;	COMDAT ?_Psave@?$_Facetptr@V?$ctype@D@std@@@std@@2PBVfacet@locale@2@B
_DATA	SEGMENT DWORD USE32 PUBLIC 'DATA'
_DATA	ENDS
;	COMDAT ?Unlock@CComCriticalSection@ATL@@QAEJXZ
_TEXT	SEGMENT PARA USE32 PUBLIC 'CODE'
_TEXT	ENDS
;	COMDAT ?CopyChars@?$CSimpleStringT@D$0A@@ATL@@SAXPADPBDH@Z
_TEXT	SEGMENT PARA USE32 PUBLIC 'CODE'
_TEXT	ENDS
;	COMDAT ?SetLength@?$CSimpleStringT@D$0A@@ATL@@AAEXH@Z
_TEXT	SEGMENT PARA USE32 PUBLIC 'CODE'
_TEXT	ENDS
;	COMDAT ?Attach@?$CSimpleStringT@D$0A@@ATL@@AAEXPAUCStringData@2@@Z
_TEXT	SEGMENT PARA USE32 PUBLIC 'CODE'
_TEXT	ENDS
;	COMDAT ?data@CStringData@ATL@@QAEPAXXZ
_TEXT	SEGMENT PARA USE32 PUBLIC 'CODE'
_TEXT	ENDS
;	COMDAT ?ThrowMemoryException@?$CSimpleStringT@D$0A@@ATL@@KAXXZ
_TEXT	SEGMENT PARA USE32 PUBLIC 'CODE'
_TEXT	ENDS
;	COMDAT ??Yiterator@?$vector@PAUtagQUESTTERM@@V?$allocator@PAUtagQUESTTERM@@@std@@@std@@QAEAAV012@H@Z
_TEXT	SEGMENT PARA USE32 PUBLIC 'CODE'
_TEXT	ENDS
;	COMDAT ??0iterator@?$vector@PAUtagQUESTTERM@@V?$allocator@PAUtagQUESTTERM@@@std@@@std@@QAE@PAPAUtagQUESTTERM@@@Z
_TEXT	SEGMENT PARA USE32 PUBLIC 'CODE'
_TEXT	ENDS
;	COMDAT ??0const_iterator@?$vector@PAUtagQUESTTERM@@V?$allocator@PAUtagQUESTTERM@@@std@@@std@@QAE@PAPAUtagQUESTTERM@@@Z
_TEXT	SEGMENT PARA USE32 PUBLIC 'CODE'
_TEXT	ENDS
;	COMDAT ?GetData@?$CSimpleStringT@D$0A@@ATL@@ABEPAUCStringData@2@XZ
_TEXT	SEGMENT PARA USE32 PUBLIC 'CODE'
_TEXT	ENDS
;	COMDAT ?ReleaseBufferSetLength@?$CSimpleStringT@D$0A@@ATL@@QAEXH@Z
_TEXT	SEGMENT PARA USE32 PUBLIC 'CODE'
_TEXT	ENDS
;	COMDAT ?Format@?$ChTraitsCRT@D@ATL@@SAHPADPBD0@Z
_TEXT	SEGMENT PARA USE32 PUBLIC 'CODE'
_TEXT	ENDS
;	COMDAT ?GetBuffer@?$CSimpleStringT@D$0A@@ATL@@QAEPADH@Z
_TEXT	SEGMENT PARA USE32 PUBLIC 'CODE'
_TEXT	ENDS
;	COMDAT ?PrepareWrite@?$CSimpleStringT@D$0A@@ATL@@AAEPADH@Z
_TEXT	SEGMENT PARA USE32 PUBLIC 'CODE'
_TEXT	ENDS
;	COMDAT ?PrepareWrite2@?$CSimpleStringT@D$0A@@ATL@@AAEXH@Z
_TEXT	SEGMENT PARA USE32 PUBLIC 'CODE'
_TEXT	ENDS
;	COMDAT ?IsShared@CStringData@ATL@@QBE_NXZ
_TEXT	SEGMENT PARA USE32 PUBLIC 'CODE'
_TEXT	ENDS
;	COMDAT ?Fork@?$CSimpleStringT@D$0A@@ATL@@AAEXH@Z
_TEXT	SEGMENT PARA USE32 PUBLIC 'CODE'
_TEXT	ENDS
;	COMDAT ?Release@CStringData@ATL@@QAEXXZ
_TEXT	SEGMENT PARA USE32 PUBLIC 'CODE'
_TEXT	ENDS
;	COMDAT ?Reallocate@?$CSimpleStringT@D$0A@@ATL@@AAEXH@Z
_TEXT	SEGMENT PARA USE32 PUBLIC 'CODE'
_TEXT	ENDS
;	COMDAT ?GetFormattedLength@?$ChTraitsCRT@D@ATL@@SAHPBDPAD@Z
_TEXT	SEGMENT PARA USE32 PUBLIC 'CODE'
_TEXT	ENDS
;	COMDAT ??1?$CSimpleStringT@D$0A@@ATL@@QAE@XZ
_TEXT	SEGMENT PARA USE32 PUBLIC 'CODE'
_TEXT	ENDS
;	COMDAT ??0?$CSimpleStringT@D$0A@@ATL@@QAE@PAUIAtlStringMgr@1@@Z
_TEXT	SEGMENT PARA USE32 PUBLIC 'CODE'
_TEXT	ENDS
;	COMDAT ??1CAtlModule@ATL@@UAE@XZ
_TEXT	SEGMENT PARA USE32 PUBLIC 'CODE'
_TEXT	ENDS
;	COMDAT ?_pPerfUnRegFunc@ATL@@3P6AJXZA
_DATA	SEGMENT DWORD USE32 PUBLIC 'DATA'
_DATA	ENDS
;	COMDAT ?_pPerfRegFunc@ATL@@3P6AJPAUHINSTANCE__@@@ZA
_DATA	SEGMENT DWORD USE32 PUBLIC 'DATA'
_DATA	ENDS
;	COMDAT ?Decrement@CComMultiThreadModel@ATL@@SGKPAJ@Z
_TEXT	SEGMENT PARA USE32 PUBLIC 'CODE'
_TEXT	ENDS
;	COMDAT ?Term@CAtlModule@ATL@@QAEXXZ
_TEXT	SEGMENT PARA USE32 PUBLIC 'CODE'
_TEXT	ENDS
;	COMDAT ?AtlCallTermFunc@ATL@@YGXPAU_ATL_MODULE70@1@@Z
_TEXT	SEGMENT PARA USE32 PUBLIC 'CODE'
_TEXT	ENDS
;	COMDAT ?_AtlRaiseException@ATL@@YAXKK@Z
_TEXT	SEGMENT PARA USE32 PUBLIC 'CODE'
_TEXT	ENDS
;	COMDAT ?Term@CComCriticalSection@ATL@@QAEJXZ
_TEXT	SEGMENT PARA USE32 PUBLIC 'CODE'
_TEXT	ENDS
;	COMDAT ?Unlock@CAtlModule@ATL@@UAEJXZ
_TEXT	SEGMENT PARA USE32 PUBLIC 'CODE'
_TEXT	ENDS
;	COMDAT ??Diterator@?$vector@PAUtagQUESTTERM@@V?$allocator@PAUtagQUESTTERM@@@std@@@std@@QBEAAPAUtagQUESTTERM@@XZ
_TEXT	SEGMENT PARA USE32 PUBLIC 'CODE'
_TEXT	ENDS
;	COMDAT ??Dconst_iterator@?$vector@PAUtagQUESTTERM@@V?$allocator@PAUtagQUESTTERM@@@std@@@std@@QBEABQAUtagQUESTTERM@@XZ
_TEXT	SEGMENT PARA USE32 PUBLIC 'CODE'
_TEXT	ENDS
;	COMDAT ?GetLength@?$CSimpleStringT@D$0A@@ATL@@QBEHXZ
_TEXT	SEGMENT PARA USE32 PUBLIC 'CODE'
_TEXT	ENDS
;	COMDAT ?GetString@?$CSimpleStringT@D$0A@@ATL@@QBEPBDXZ
_TEXT	SEGMENT PARA USE32 PUBLIC 'CODE'
_TEXT	ENDS
;	COMDAT ??0?$CStringT@DV?$StrTraitATL@DV?$ChTraitsCRT@D@ATL@@@ATL@@@ATL@@QAE@ABV01@@Z
_TEXT	SEGMENT PARA USE32 PUBLIC 'CODE'
_TEXT	ENDS
;	COMDAT ??0?$CSimpleStringT@D$0A@@ATL@@QAE@ABV01@@Z
_TEXT	SEGMENT PARA USE32 PUBLIC 'CODE'
_TEXT	ENDS
;	COMDAT ?CloneData@?$CSimpleStringT@D$0A@@ATL@@CAPAUCStringData@2@PAU32@@Z
_TEXT	SEGMENT PARA USE32 PUBLIC 'CODE'
_TEXT	ENDS
;	COMDAT ?IsLocked@CStringData@ATL@@QBE_NXZ
_TEXT	SEGMENT PARA USE32 PUBLIC 'CODE'
_TEXT	ENDS
;	COMDAT ?AddRef@CStringData@ATL@@QAEXXZ
_TEXT	SEGMENT PARA USE32 PUBLIC 'CODE'
_TEXT	ENDS
;	COMDAT ?AtlThrow@ATL@@YGXJ@Z
_TEXT	SEGMENT PARA USE32 PUBLIC 'CODE'
_TEXT	ENDS
;	COMDAT ??0CAtlException@ATL@@QAE@J@Z
_TEXT	SEGMENT PARA USE32 PUBLIC 'CODE'
_TEXT	ENDS
;	COMDAT __TI1?AVCAtlException@ATL@@
xdata$x	SEGMENT DWORD USE32 PUBLIC 'CONST'
xdata$x	ENDS
;	COMDAT __CTA1?AVCAtlException@ATL@@
xdata$x	SEGMENT DWORD USE32 PUBLIC 'CONST'
xdata$x	ENDS
;	COMDAT __CT??_R0?AVCAtlException@ATL@@@84
xdata$x	SEGMENT DWORD USE32 PUBLIC 'CONST'
xdata$x	ENDS
;	COMDAT ??_R0?AVCAtlException@ATL@@@8
_DATA	SEGMENT DWORD USE32 PUBLIC 'DATA'
_DATA	ENDS
;	COMDAT ?size@?$vector@PAUtagQUESTTERM@@V?$allocator@PAUtagQUESTTERM@@@std@@@std@@QBEIXZ
_TEXT	SEGMENT PARA USE32 PUBLIC 'CODE'
_TEXT	ENDS
;	COMDAT ??_7CQuestTeleport@@6B@
CONST	SEGMENT DWORD USE32 PUBLIC 'CONST'
CONST	ENDS
;	COMDAT ?AtlLoadString@ATL@@YAHIPADH@Z
_TEXT	SEGMENT PARA USE32 PUBLIC 'CODE'
_TEXT	ENDS
;	COMDAT ??0?$CStringT@DV?$StrTraitATL@DV?$ChTraitsCRT@D@ATL@@@ATL@@@ATL@@QAE@XZ
_TEXT	SEGMENT PARA USE32 PUBLIC 'CODE'
_TEXT	ENDS
;	COMDAT ?GetDefaultManager@?$StrTraitATL@DV?$ChTraitsCRT@D@ATL@@@ATL@@SAPAUIAtlStringMgr@2@XZ
_TEXT	SEGMENT PARA USE32 PUBLIC 'CODE'
_TEXT	ENDS
;	COMDAT ??B?$CSimpleStringT@D$0A@@ATL@@QBEPBDXZ
_TEXT	SEGMENT PARA USE32 PUBLIC 'CODE'
_TEXT	ENDS
;	COMDAT ??4?$CStringT@DV?$StrTraitATL@DV?$ChTraitsCRT@D@ATL@@@ATL@@@ATL@@QAEAAV01@ABV01@@Z
_TEXT	SEGMENT PARA USE32 PUBLIC 'CODE'
_TEXT	ENDS
;	COMDAT ??4?$CSimpleStringT@D$0A@@ATL@@QAEAAV01@ABV01@@Z
_TEXT	SEGMENT PARA USE32 PUBLIC 'CODE'
_TEXT	ENDS
;	COMDAT ?SetString@?$CSimpleStringT@D$0A@@ATL@@QAEXPBDH@Z
_TEXT	SEGMENT PARA USE32 PUBLIC 'CODE'
_TEXT	ENDS
;	COMDAT ?Empty@?$CSimpleStringT@D$0A@@ATL@@QAEXXZ
_TEXT	SEGMENT PARA USE32 PUBLIC 'CODE'
_TEXT	ENDS
;	COMDAT ?CopyCharsOverlapped@?$CSimpleStringT@D$0A@@ATL@@SAXPADPBDH@Z
_TEXT	SEGMENT PARA USE32 PUBLIC 'CODE'
_TEXT	ENDS
;	COMDAT ??1?$CStringT@DV?$StrTraitATL@DV?$ChTraitsCRT@D@ATL@@@ATL@@@ATL@@QAE@XZ
_TEXT	SEGMENT PARA USE32 PUBLIC 'CODE'
_TEXT	ENDS
;	COMDAT ??0?$CStringT@DV?$StrTraitATL@DV?$ChTraitsCRT@D@ATL@@@ATL@@@ATL@@QAE@PBD@Z
_TEXT	SEGMENT PARA USE32 PUBLIC 'CODE'
_TEXT	ENDS
;	COMDAT ?CheckImplicitLoad@?$CStringT@DV?$StrTraitATL@DV?$ChTraitsCRT@D@ATL@@@ATL@@@ATL@@AAE_NPBX@Z
_TEXT	SEGMENT PARA USE32 PUBLIC 'CODE'
_TEXT	ENDS
;	COMDAT ?LoadStringA@?$CStringT@DV?$StrTraitATL@DV?$ChTraitsCRT@D@ATL@@@ATL@@@ATL@@QAEHI@Z
_TEXT	SEGMENT PARA USE32 PUBLIC 'CODE'
_TEXT	ENDS
;	COMDAT ?FindStringResourceInstance@?$StrTraitATL@DV?$ChTraitsCRT@D@ATL@@@ATL@@SAPAUHINSTANCE__@@I@Z
_TEXT	SEGMENT PARA USE32 PUBLIC 'CODE'
_TEXT	ENDS
;	COMDAT ?AtlFindStringResourceInstance@ATL@@YAPAUHINSTANCE__@@IG@Z
_TEXT	SEGMENT PARA USE32 PUBLIC 'CODE'
_TEXT	ENDS
;	COMDAT ?AtlGetStringResourceImage@ATL@@YAPBUATLSTRINGRESOURCEIMAGE@1@PAUHINSTANCE__@@IG@Z
_TEXT	SEGMENT PARA USE32 PUBLIC 'CODE'
_TEXT	ENDS
;	COMDAT ?_AtlGetStringResourceImage@ATL@@YAPBUATLSTRINGRESOURCEIMAGE@1@PAUHINSTANCE__@@PAUHRSRC__@@I@Z
_TEXT	SEGMENT PARA USE32 PUBLIC 'CODE'
_TEXT	ENDS
;	COMDAT ?LoadStringA@?$CStringT@DV?$StrTraitATL@DV?$ChTraitsCRT@D@ATL@@@ATL@@@ATL@@QAEHPAUHINSTANCE__@@I@Z
_TEXT	SEGMENT PARA USE32 PUBLIC 'CODE'
_TEXT	ENDS
;	COMDAT ?AtlGetStringResourceImage@ATL@@YAPBUATLSTRINGRESOURCEIMAGE@1@PAUHINSTANCE__@@I@Z
_TEXT	SEGMENT PARA USE32 PUBLIC 'CODE'
_TEXT	ENDS
;	COMDAT ?GetBaseTypeLength@?$ChTraitsCRT@D@ATL@@SAHPBGH@Z
_TEXT	SEGMENT PARA USE32 PUBLIC 'CODE'
_TEXT	ENDS
;	COMDAT ?_AtlGetConversionACP@ATL@@YGIXZ
_TEXT	SEGMENT PARA USE32 PUBLIC 'CODE'
_TEXT	ENDS
;	COMDAT ?g_pfnGetThreadACP@ATL@@3P6GIXZA
_DATA	SEGMENT DWORD USE32 PUBLIC 'DATA'
_DATA	ENDS
;	COMDAT ?_AtlGetThreadACPThunk@ATL@@YGIXZ
_TEXT	SEGMENT PARA USE32 PUBLIC 'CODE'
_TEXT	ENDS
;	COMDAT ?_AtlGetThreadACPReal@ATL@@YGIXZ
_TEXT	SEGMENT PARA USE32 PUBLIC 'CODE'
_TEXT	ENDS
;	COMDAT ?_AtlGetThreadACPFake@ATL@@YGIXZ
_TEXT	SEGMENT PARA USE32 PUBLIC 'CODE'
_TEXT	ENDS
;	COMDAT ?InterlockedExchangePointer@@YGPAXPAPAXPAX@Z
_TEXT	SEGMENT PARA USE32 PUBLIC 'CODE'
_TEXT	ENDS
;	COMDAT ?ConvertToBaseType@?$ChTraitsCRT@D@ATL@@SAXPADHPBGH@Z
_TEXT	SEGMENT PARA USE32 PUBLIC 'CODE'
_TEXT	ENDS
;	COMDAT ??4?$CStringT@DV?$StrTraitATL@DV?$ChTraitsCRT@D@ATL@@@ATL@@@ATL@@QAEAAV01@PBD@Z
_TEXT	SEGMENT PARA USE32 PUBLIC 'CODE'
_TEXT	ENDS
;	COMDAT ??4?$CSimpleStringT@D$0A@@ATL@@QAEAAV01@PBD@Z
_TEXT	SEGMENT PARA USE32 PUBLIC 'CODE'
_TEXT	ENDS
;	COMDAT ?SetString@?$CSimpleStringT@D$0A@@ATL@@QAEXPBD@Z
_TEXT	SEGMENT PARA USE32 PUBLIC 'CODE'
_TEXT	ENDS
;	COMDAT ?StringLength@?$CSimpleStringT@D$0A@@ATL@@SAHPBD@Z
_TEXT	SEGMENT PARA USE32 PUBLIC 'CODE'
_TEXT	ENDS
;	COMDAT ?WordCmpI@CAtlModule@ATL@@SAHPBD0@Z
_TEXT	SEGMENT PARA USE32 PUBLIC 'CODE'
_TEXT	ENDS
;	COMDAT ?FindOneOf@CAtlModule@ATL@@SAPBDPBD0@Z
_TEXT	SEGMENT PARA USE32 PUBLIC 'CODE'
_TEXT	ENDS
;	COMDAT ?SetStringValue@CRegKey@ATL@@QAEJPBD0K@Z
_TEXT	SEGMENT PARA USE32 PUBLIC 'CODE'
_TEXT	ENDS
;	COMDAT ?DeleteValue@CRegKey@ATL@@QAEJPBD@Z
_TEXT	SEGMENT PARA USE32 PUBLIC 'CODE'
_TEXT	ENDS
;	COMDAT ??BCRegKey@ATL@@QBEPAUHKEY__@@XZ
_TEXT	SEGMENT PARA USE32 PUBLIC 'CODE'
_TEXT	ENDS
;	COMDAT ?Create@CRegKey@ATL@@QAEJPAUHKEY__@@PBDPADKKPAU_SECURITY_ATTRIBUTES@@PAK@Z
_TEXT	SEGMENT PARA USE32 PUBLIC 'CODE'
_TEXT	ENDS
;	COMDAT ?Close@CRegKey@ATL@@QAEJXZ
_TEXT	SEGMENT PARA USE32 PUBLIC 'CODE'
_TEXT	ENDS
;	COMDAT ?AtlHresultFromWin32@ATL@@YAJK@Z
_TEXT	SEGMENT PARA USE32 PUBLIC 'CODE'
_TEXT	ENDS
;	COMDAT ??_C@_05PDIKPLII@AppID?$AA@
CONST	SEGMENT DWORD USE32 PUBLIC 'CONST'
CONST	ENDS
;	COMDAT ?Open@CRegKey@ATL@@QAEJPAUHKEY__@@PBDK@Z
_TEXT	SEGMENT PARA USE32 PUBLIC 'CODE'
_TEXT	ENDS
;	COMDAT ??1CRegKey@ATL@@QAE@XZ
_TEXT	SEGMENT PARA USE32 PUBLIC 'CODE'
_TEXT	ENDS
;	COMDAT ??0CRegKey@ATL@@QAE@XZ
_TEXT	SEGMENT PARA USE32 PUBLIC 'CODE'
_TEXT	ENDS
;	COMDAT ?_pAtlModule@ATL@@3PAVCAtlModule@1@A
_DATA	SEGMENT DWORD USE32 PUBLIC 'DATA'
_DATA	ENDS
;	COMDAT ?UpdateRegistryFromResourceS@CAtlModule@ATL@@QAGJIHPAU_ATL_REGMAP_ENTRY@2@@Z
_TEXT	SEGMENT PARA USE32 PUBLIC 'CODE'
_TEXT	ENDS
;	COMDAT ??0CRegObject@ATL@@QAE@XZ
_TEXT	SEGMENT PARA USE32 PUBLIC 'CODE'
_TEXT	ENDS
;	COMDAT ??0IRegistrarBase@@QAE@XZ
_TEXT	SEGMENT PARA USE32 PUBLIC 'CODE'
_TEXT	ENDS
;	COMDAT ??0IUnknown@@QAE@XZ
_TEXT	SEGMENT PARA USE32 PUBLIC 'CODE'
_TEXT	ENDS
;	COMDAT ??_7CRegObject@ATL@@6B@
CONST	SEGMENT DWORD USE32 PUBLIC 'CONST'
CONST	ENDS
;	COMDAT ?QueryInterface@CRegObject@ATL@@UAGJABU_GUID@@PAPAX@Z
_TEXT	SEGMENT PARA USE32 PUBLIC 'CODE'
_TEXT	ENDS
;	COMDAT ?AddRef@CRegObject@ATL@@UAGKXZ
_TEXT	SEGMENT PARA USE32 PUBLIC 'CODE'
_TEXT	ENDS
;	COMDAT ?Release@CRegObject@ATL@@UAGKXZ
_TEXT	SEGMENT PARA USE32 PUBLIC 'CODE'
_TEXT	ENDS
;	COMDAT ?ClearReplacements@CRegObject@ATL@@UAGJXZ
_TEXT	SEGMENT PARA USE32 PUBLIC 'CODE'
_TEXT	ENDS
;	COMDAT ?Lock@CComFakeCriticalSection@ATL@@QAEJXZ
_TEXT	SEGMENT PARA USE32 PUBLIC 'CODE'
_TEXT	ENDS
;	COMDAT ?ClearReplacements@CExpansionVector@ATL@@QAEJXZ
_TEXT	SEGMENT PARA USE32 PUBLIC 'CODE'
_TEXT	ENDS
;	COMDAT ?GetSize@?$CSimpleMap@PADPAGVCExpansionVectorEqualHelper@ATL@@@ATL@@QBEHXZ
_TEXT	SEGMENT PARA USE32 PUBLIC 'CODE'
_TEXT	ENDS
;	COMDAT ?GetKeyAt@?$CSimpleMap@PADPAGVCExpansionVectorEqualHelper@ATL@@@ATL@@QBEAAPADH@Z
_TEXT	SEGMENT PARA USE32 PUBLIC 'CODE'
_TEXT	ENDS
;	COMDAT ?GetValueAt@?$CSimpleMap@PADPAGVCExpansionVectorEqualHelper@ATL@@@ATL@@QBEAAPAGH@Z
_TEXT	SEGMENT PARA USE32 PUBLIC 'CODE'
_TEXT	ENDS
;	COMDAT ?RemoveAll@?$CSimpleMap@PADPAGVCExpansionVectorEqualHelper@ATL@@@ATL@@QAEXXZ
_TEXT	SEGMENT PARA USE32 PUBLIC 'CODE'
_TEXT	ENDS
;	COMDAT ?Unlock@CComFakeCriticalSection@ATL@@QAEJXZ
_TEXT	SEGMENT PARA USE32 PUBLIC 'CODE'
_TEXT	ENDS
;	COMDAT ??_GCRegObject@ATL@@UAEPAXI@Z
_TEXT	SEGMENT PARA USE32 PUBLIC 'CODE'
_TEXT	ENDS
;	COMDAT ??0CExpansionVector@ATL@@QAE@XZ
_TEXT	SEGMENT PARA USE32 PUBLIC 'CODE'
_TEXT	ENDS
;	COMDAT ??0?$CSimpleMap@PADPAGVCExpansionVectorEqualHelper@ATL@@@ATL@@QAE@XZ
_TEXT	SEGMENT PARA USE32 PUBLIC 'CODE'
_TEXT	ENDS
;	COMDAT ??1?$CSimpleMap@PADPAGVCExpansionVectorEqualHelper@ATL@@@ATL@@QAE@XZ
_TEXT	SEGMENT PARA USE32 PUBLIC 'CODE'
_TEXT	ENDS
;	COMDAT ??1CExpansionVector@ATL@@QAE@XZ
_TEXT	SEGMENT PARA USE32 PUBLIC 'CODE'
_TEXT	ENDS
;	COMDAT ??1CRegObject@ATL@@UAE@XZ
_TEXT	SEGMENT PARA USE32 PUBLIC 'CODE'
_TEXT	ENDS
;	COMDAT ??0?$CAtlSafeAllocBufferManager@VCCRTAllocator@ATL@@@_ATL_SAFE_ALLOCA_IMPL@ATL@@QAE@XZ
_TEXT	SEGMENT PARA USE32 PUBLIC 'CODE'
_TEXT	ENDS
;	COMDAT ??1?$CAtlSafeAllocBufferManager@VCCRTAllocator@ATL@@@_ATL_SAFE_ALLOCA_IMPL@ATL@@QAE@XZ
_TEXT	SEGMENT PARA USE32 PUBLIC 'CODE'
_TEXT	ENDS
;	COMDAT ?Free@CCRTAllocator@ATL@@SAXPAX@Z
_TEXT	SEGMENT PARA USE32 PUBLIC 'CODE'
_TEXT	ENDS
;	COMDAT ?GetModuleInstance@CAtlBaseModule@ATL@@QAEPAUHINSTANCE__@@XZ
_TEXT	SEGMENT PARA USE32 PUBLIC 'CODE'
_TEXT	ENDS
;	COMDAT ?AtlHresultFromLastError@ATL@@YAJXZ
_TEXT	SEGMENT PARA USE32 PUBLIC 'CODE'
_TEXT	ENDS
;	COMDAT ?AtlA2WHelper@@YGPAGPAGPBDHI@Z
_TEXT	SEGMENT PARA USE32 PUBLIC 'CODE'
_TEXT	ENDS
;	COMDAT ?_AtlVerifyStackAvailable@_ATL_SAFE_ALLOCA_IMPL@ATL@@YA_NK@Z
_TEXT	SEGMENT PARA USE32 PUBLIC 'CODE'
_TEXT	ENDS
;	COMDAT ?Allocate@?$CAtlSafeAllocBufferManager@VCCRTAllocator@ATL@@@_ATL_SAFE_ALLOCA_IMPL@ATL@@QAEPAXK@Z
_TEXT	SEGMENT PARA USE32 PUBLIC 'CODE'
_TEXT	ENDS
;	COMDAT ?Allocate@CCRTAllocator@ATL@@SAPAXI@Z
_TEXT	SEGMENT PARA USE32 PUBLIC 'CODE'
_TEXT	ENDS
;	COMDAT ?GetData@CAtlSafeAllocBufferNode@?$CAtlSafeAllocBufferManager@VCCRTAllocator@ATL@@@_ATL_SAFE_ALLOCA_IMPL@ATL@@QAEPAXXZ
_TEXT	SEGMENT PARA USE32 PUBLIC 'CODE'
_TEXT	ENDS
;	COMDAT ?EscapeSingleQuote@CAtlModule@ATL@@SAXPAGPBG@Z
_TEXT	SEGMENT PARA USE32 PUBLIC 'CODE'
_TEXT	ENDS
;	COMDAT ?ocscpy@@YAPAGPAGPBG@Z
_TEXT	SEGMENT PARA USE32 PUBLIC 'CODE'
_TEXT	ENDS
;	COMDAT ?ocslen@@YAHPBG@Z
_TEXT	SEGMENT PARA USE32 PUBLIC 'CODE'
_TEXT	ENDS
;	COMDAT ??_C@_1O@MNLDABAF@?$AAM?$AAo?$AAd?$AAu?$AAl?$AAe?$AA?$AA@
CONST	SEGMENT DWORD USE32 PUBLIC 'CONST'
CONST	ENDS
;	COMDAT ?AddReplacement@CRegObject@ATL@@UAGJPBG0@Z
_TEXT	SEGMENT PARA USE32 PUBLIC 'CODE'
_TEXT	ENDS
;	COMDAT ?AtlW2AHelper@@YGPADPADPBGHI@Z
_TEXT	SEGMENT PARA USE32 PUBLIC 'CODE'
_TEXT	ENDS
;	COMDAT ?Add@CExpansionVector@ATL@@QAEHPBDPBG@Z
_TEXT	SEGMENT PARA USE32 PUBLIC 'CODE'
_TEXT	ENDS
;	COMDAT ?Add@?$CSimpleMap@PADPAGVCExpansionVectorEqualHelper@ATL@@@ATL@@QAEHABQADABQAG@Z
_TEXT	SEGMENT PARA USE32 PUBLIC 'CODE'
_TEXT	ENDS
;	COMDAT ?InternalSetAtIndex@?$CSimpleMap@PADPAGVCExpansionVectorEqualHelper@ATL@@@ATL@@QAEXHABQADABQAG@Z
_TEXT	SEGMENT PARA USE32 PUBLIC 'CODE'
_TEXT	ENDS
;	COMDAT ??$?2PAD@?$Wrapper@PAD@?$CSimpleMap@PADPAGVCExpansionVectorEqualHelper@ATL@@@ATL@@SAPAXIPAPAD@Z
_TEXT	SEGMENT PARA USE32 PUBLIC 'CODE'
_TEXT	ENDS
;	COMDAT ??$?3PAD@?$Wrapper@PAD@?$CSimpleMap@PADPAGVCExpansionVectorEqualHelper@ATL@@@ATL@@SAXPAXPAPAD@Z
_TEXT	SEGMENT PARA USE32 PUBLIC 'CODE'
_TEXT	ENDS
;	COMDAT ??0?$Wrapper@PAD@?$CSimpleMap@PADPAGVCExpansionVectorEqualHelper@ATL@@@ATL@@QAE@ABQAD@Z
_TEXT	SEGMENT PARA USE32 PUBLIC 'CODE'
_TEXT	ENDS
;	COMDAT ??$?2PAG@?$Wrapper@PAG@?$CSimpleMap@PADPAGVCExpansionVectorEqualHelper@ATL@@@ATL@@SAPAXIPAPAG@Z
_TEXT	SEGMENT PARA USE32 PUBLIC 'CODE'
_TEXT	ENDS
;	COMDAT ??$?3PAG@?$Wrapper@PAG@?$CSimpleMap@PADPAGVCExpansionVectorEqualHelper@ATL@@@ATL@@SAXPAXPAPAG@Z
_TEXT	SEGMENT PARA USE32 PUBLIC 'CODE'
_TEXT	ENDS
;	COMDAT ??0?$Wrapper@PAG@?$CSimpleMap@PADPAGVCExpansionVectorEqualHelper@ATL@@@ATL@@QAE@ABQAG@Z
_TEXT	SEGMENT PARA USE32 PUBLIC 'CODE'
_TEXT	ENDS
;	COMDAT ??_C@_1BG@JBACFMF@?$AAM?$AAo?$AAd?$AAu?$AAl?$AAe?$AA_?$AAR?$AAa?$AAw?$AA?$AA@
CONST	SEGMENT DWORD USE32 PUBLIC 'CONST'
CONST	ENDS
;	COMDAT ??_C@_1BC@KAILKFFG@?$AAR?$AAE?$AAG?$AAI?$AAS?$AAT?$AAR?$AAY?$AA?$AA@
CONST	SEGMENT DWORD USE32 PUBLIC 'CONST'
CONST	ENDS
;	COMDAT ?ResourceRegister@CRegObject@ATL@@QAGJPBGI0@Z
_TEXT	SEGMENT PARA USE32 PUBLIC 'CODE'
_TEXT	ENDS
;	COMDAT ?RegisterFromResource@CRegObject@ATL@@IAEJPBGPBD1H@Z
_TEXT	SEGMENT PARA USE32 PUBLIC 'CODE'
_TEXT	ENDS
;	COMDAT ??0CRegParser@ATL@@QAE@PAVCRegObject@1@@Z
_TEXT	SEGMENT PARA USE32 PUBLIC 'CODE'
_TEXT	ENDS
;	COMDAT ??0?$CTempBuffer@D$0EAA@VCCRTAllocator@ATL@@@ATL@@QAE@XZ
_TEXT	SEGMENT PARA USE32 PUBLIC 'CODE'
_TEXT	ENDS
;	COMDAT ??1?$CTempBuffer@D$0EAA@VCCRTAllocator@ATL@@@ATL@@QAE@XZ
_TEXT	SEGMENT PARA USE32 PUBLIC 'CODE'
_TEXT	ENDS
;	COMDAT ?FreeHeap@?$CTempBuffer@D$0EAA@VCCRTAllocator@ATL@@@ATL@@AAEXXZ
_TEXT	SEGMENT PARA USE32 PUBLIC 'CODE'
_TEXT	ENDS
;	COMDAT ?Allocate@?$CTempBuffer@D$0EAA@VCCRTAllocator@ATL@@@ATL@@QAEPADI@Z
_TEXT	SEGMENT PARA USE32 PUBLIC 'CODE'
_TEXT	ENDS
;	COMDAT ?AllocateBytes@?$CTempBuffer@D$0EAA@VCCRTAllocator@ATL@@@ATL@@QAEPADI@Z
_TEXT	SEGMENT PARA USE32 PUBLIC 'CODE'
_TEXT	ENDS
;	COMDAT ?AllocateHeap@?$CTempBuffer@D$0EAA@VCCRTAllocator@ATL@@@ATL@@AAEXI@Z
_TEXT	SEGMENT PARA USE32 PUBLIC 'CODE'
_TEXT	ENDS
;	COMDAT ?RegisterBuffer@CRegParser@ATL@@QAEJPADH@Z
_TEXT	SEGMENT PARA USE32 PUBLIC 'CODE'
_TEXT	ENDS
;	COMDAT ?PreProcessBuffer@CRegParser@ATL@@QAEJPADPAPAD@Z
_TEXT	SEGMENT PARA USE32 PUBLIC 'CODE'
_TEXT	ENDS
;	COMDAT ??0CParseBuffer@CRegParser@ATL@@QAE@H@Z
_TEXT	SEGMENT PARA USE32 PUBLIC 'CODE'
_TEXT	ENDS
;	COMDAT ??1CParseBuffer@CRegParser@ATL@@QAE@XZ
_TEXT	SEGMENT PARA USE32 PUBLIC 'CODE'
_TEXT	ENDS
;	COMDAT ?StrChrA@CRegParser@ATL@@KAPADPADD@Z
_TEXT	SEGMENT PARA USE32 PUBLIC 'CODE'
_TEXT	ENDS
;	COMDAT ?StrFromMap@CRegObject@ATL@@QAEPBGPAD@Z
_TEXT	SEGMENT PARA USE32 PUBLIC 'CODE'
_TEXT	ENDS
;	COMDAT ?Lookup@?$CSimpleMap@PADPAGVCExpansionVectorEqualHelper@ATL@@@ATL@@QBEPAGABQAD@Z
_TEXT	SEGMENT PARA USE32 PUBLIC 'CODE'
_TEXT	ENDS
;	COMDAT ?FindKey@?$CSimpleMap@PADPAGVCExpansionVectorEqualHelper@ATL@@@ATL@@QBEHABQAD@Z
_TEXT	SEGMENT PARA USE32 PUBLIC 'CODE'
_TEXT	ENDS
;	COMDAT ?IsEqualKey@CExpansionVectorEqualHelper@ATL@@SA_NQAD0@Z
_TEXT	SEGMENT PARA USE32 PUBLIC 'CODE'
_TEXT	ENDS
;	COMDAT ?AddString@CParseBuffer@CRegParser@ATL@@QAEHPBG@Z
_TEXT	SEGMENT PARA USE32 PUBLIC 'CODE'
_TEXT	ENDS
;	COMDAT ?Append@CParseBuffer@CRegParser@ATL@@QAEHPBDH@Z
_TEXT	SEGMENT PARA USE32 PUBLIC 'CODE'
_TEXT	ENDS
;	COMDAT ?AddChar@CParseBuffer@CRegParser@ATL@@QAEHPBD@Z
_TEXT	SEGMENT PARA USE32 PUBLIC 'CODE'
_TEXT	ENDS
;	COMDAT ?Detach@CParseBuffer@CRegParser@ATL@@QAEPADXZ
_TEXT	SEGMENT PARA USE32 PUBLIC 'CODE'
_TEXT	ENDS
;	COMDAT ?HKeyFromString@CRegParser@ATL@@KAPAUHKEY__@@PAD@Z
_TEXT	SEGMENT PARA USE32 PUBLIC 'CODE'
_TEXT	ENDS
;	COMDAT ??_C@_04OHBKMIBJ@HKCR?$AA@
CONST	SEGMENT DWORD USE32 PUBLIC 'CONST'
CONST	ENDS
;	COMDAT ??_C@_04KIFLFONO@HKCU?$AA@
CONST	SEGMENT DWORD USE32 PUBLIC 'CONST'
CONST	ENDS
;	COMDAT ??_C@_04CBBMIBLK@HKLM?$AA@
CONST	SEGMENT DWORD USE32 PUBLIC 'CONST'
CONST	ENDS
;	COMDAT ??_C@_03DLBIJLAB@HKU?$AA@
CONST	SEGMENT DWORD USE32 PUBLIC 'CONST'
CONST	ENDS
;	COMDAT ??_C@_04OFOCGAOH@HKPD?$AA@
CONST	SEGMENT DWORD USE32 PUBLIC 'CONST'
CONST	ENDS
;	COMDAT ??_C@_04POMNGLEL@HKDD?$AA@
CONST	SEGMENT DWORD USE32 PUBLIC 'CONST'
CONST	ENDS
;	COMDAT ??_C@_04LEMDOLAJ@HKCC?$AA@
CONST	SEGMENT DWORD USE32 PUBLIC 'CONST'
CONST	ENDS
;	COMDAT ??_C@_0BC@JBJOLKMF@HKEY_CLASSES_ROOT?$AA@
CONST	SEGMENT DWORD USE32 PUBLIC 'CONST'
CONST	ENDS
;	COMDAT ??_C@_0BC@GMMMKLBI@HKEY_CURRENT_USER?$AA@
CONST	SEGMENT DWORD USE32 PUBLIC 'CONST'
CONST	ENDS
;	COMDAT ??_C@_0BD@GIIFIKDM@HKEY_LOCAL_MACHINE?$AA@
CONST	SEGMENT DWORD USE32 PUBLIC 'CONST'
CONST	ENDS
;	COMDAT ??_C@_0L@OEMMANAM@HKEY_USERS?$AA@
CONST	SEGMENT DWORD USE32 PUBLIC 'CONST'
CONST	ENDS
;	COMDAT ??_C@_0BG@IDBEHNDO@HKEY_PERFORMANCE_DATA?$AA@
CONST	SEGMENT DWORD USE32 PUBLIC 'CONST'
CONST	ENDS
;	COMDAT ??_C@_0O@MJDLIIGK@HKEY_DYN_DATA?$AA@
CONST	SEGMENT DWORD USE32 PUBLIC 'CONST'
CONST	ENDS
;	COMDAT ??_C@_0BE@NLNNHLLF@HKEY_CURRENT_CONFIG?$AA@
CONST	SEGMENT DWORD USE32 PUBLIC 'CONST'
CONST	ENDS
;	COMDAT ?map@?2??HKeyFromString@CRegParser@ATL@@KAPAUHKEY__@@PAD@Z@4QBUkeymap@23@B
CONST	SEGMENT DWORD USE32 PUBLIC 'CONST'
CONST	ENDS
;	COMDAT ?NextToken@CRegParser@ATL@@IAEJPAD@Z
_TEXT	SEGMENT PARA USE32 PUBLIC 'CODE'
_TEXT	ENDS
;	COMDAT ?EndOfVar@CRegParser@ATL@@IAEHXZ
_TEXT	SEGMENT PARA USE32 PUBLIC 'CODE'
_TEXT	ENDS
;	COMDAT ?IsSpace@CRegParser@ATL@@IAEHD@Z
_TEXT	SEGMENT PARA USE32 PUBLIC 'CODE'
_TEXT	ENDS
;	COMDAT ?GenerateError@CRegParser@ATL@@IAEJI@Z
_TEXT	SEGMENT PARA USE32 PUBLIC 'CODE'
_TEXT	ENDS
;	COMDAT ?RegisterSubkeys@CRegParser@ATL@@IAEJPADPAUHKEY__@@HH@Z
_TEXT	SEGMENT PARA USE32 PUBLIC 'CODE'
_TEXT	ENDS
;	COMDAT ??_C@_06JBKGCNBB@Delete?$AA@
CONST	SEGMENT DWORD USE32 PUBLIC 'CONST'
CONST	ENDS
;	COMDAT ??_C@_0M@DBGDLGLL@ForceRemove?$AA@
CONST	SEGMENT DWORD USE32 PUBLIC 'CONST'
CONST	ENDS
;	COMDAT ??_C@_08KAAPDIAN@NoRemove?$AA@
CONST	SEGMENT DWORD USE32 PUBLIC 'CONST'
CONST	ENDS
;	COMDAT ??_C@_03LAIAPFCB@Val?$AA@
CONST	SEGMENT DWORD USE32 PUBLIC 'CONST'
CONST	ENDS
;	COMDAT ?AddValue@CRegParser@ATL@@IAEJAAVCRegKey@2@PBDPAD@Z
_TEXT	SEGMENT PARA USE32 PUBLIC 'CODE'
_TEXT	ENDS
;	COMDAT ?VTFromRegType@CRegParser@ATL@@KAHPBDAAG@Z
_TEXT	SEGMENT PARA USE32 PUBLIC 'CODE'
_TEXT	ENDS
;	COMDAT ??_C@_01CPLAODJH@S?$AA@
CONST	SEGMENT DWORD USE32 PUBLIC 'CONST'
CONST	ENDS
;	COMDAT ??_C@_01PLPBNMEI@M?$AA@
CONST	SEGMENT DWORD USE32 PUBLIC 'CONST'
CONST	ENDS
;	COMDAT ??_C@_01CKDDGHAB@D?$AA@
CONST	SEGMENT DWORD USE32 PUBLIC 'CONST'
CONST	ENDS
;	COMDAT ??_C@_01HMGJMAIH@B?$AA@
CONST	SEGMENT DWORD USE32 PUBLIC 'CONST'
CONST	ENDS
;	COMDAT ?map@?2??VTFromRegType@CRegParser@ATL@@KAHPBDAAG@Z@4QBUtypemap@23@B
_DATA	SEGMENT DWORD USE32 PUBLIC 'DATA'
_DATA	ENDS
;	COMDAT ?$S4@?2??VTFromRegType@CRegParser@ATL@@KAHPBDAAG@Z@4IA
_BSS	SEGMENT DWORD USE32 PUBLIC 'BSS'
_BSS	ENDS
;	COMDAT ??0?$CTempBuffer@D$0BAA@VCCRTAllocator@ATL@@@ATL@@QAE@XZ
_TEXT	SEGMENT PARA USE32 PUBLIC 'CODE'
_TEXT	ENDS
;	COMDAT ??1?$CTempBuffer@D$0BAA@VCCRTAllocator@ATL@@@ATL@@QAE@XZ
_TEXT	SEGMENT PARA USE32 PUBLIC 'CODE'
_TEXT	ENDS
;	COMDAT ?FreeHeap@?$CTempBuffer@D$0BAA@VCCRTAllocator@ATL@@@ATL@@AAEXXZ
_TEXT	SEGMENT PARA USE32 PUBLIC 'CODE'
_TEXT	ENDS
;	COMDAT ?Allocate@?$CTempBuffer@D$0BAA@VCCRTAllocator@ATL@@@ATL@@QAEPADI@Z
_TEXT	SEGMENT PARA USE32 PUBLIC 'CODE'
_TEXT	ENDS
;	COMDAT ?AllocateBytes@?$CTempBuffer@D$0BAA@VCCRTAllocator@ATL@@@ATL@@QAEPADI@Z
_TEXT	SEGMENT PARA USE32 PUBLIC 'CODE'
_TEXT	ENDS
;	COMDAT ?AllocateHeap@?$CTempBuffer@D$0BAA@VCCRTAllocator@ATL@@@ATL@@AAEXI@Z
_TEXT	SEGMENT PARA USE32 PUBLIC 'CODE'
_TEXT	ENDS
;	COMDAT ?SetMultiStringValue@CRegKey@ATL@@QAEJPBD0@Z
_TEXT	SEGMENT PARA USE32 PUBLIC 'CODE'
_TEXT	ENDS
;	COMDAT ??B?$CTempBuffer@D$0BAA@VCCRTAllocator@ATL@@@ATL@@QBEPADXZ
_TEXT	SEGMENT PARA USE32 PUBLIC 'CODE'
_TEXT	ENDS
;	COMDAT ?SetDWORDValue@CRegKey@ATL@@QAEJPBDK@Z
_TEXT	SEGMENT PARA USE32 PUBLIC 'CODE'
_TEXT	ENDS
;	COMDAT ??0?$CTempBuffer@E$0BAA@VCCRTAllocator@ATL@@@ATL@@QAE@XZ
_TEXT	SEGMENT PARA USE32 PUBLIC 'CODE'
_TEXT	ENDS
;	COMDAT ??1?$CTempBuffer@E$0BAA@VCCRTAllocator@ATL@@@ATL@@QAE@XZ
_TEXT	SEGMENT PARA USE32 PUBLIC 'CODE'
_TEXT	ENDS
;	COMDAT ?FreeHeap@?$CTempBuffer@E$0BAA@VCCRTAllocator@ATL@@@ATL@@AAEXXZ
_TEXT	SEGMENT PARA USE32 PUBLIC 'CODE'
_TEXT	ENDS
;	COMDAT ?Allocate@?$CTempBuffer@E$0BAA@VCCRTAllocator@ATL@@@ATL@@QAEPAEI@Z
_TEXT	SEGMENT PARA USE32 PUBLIC 'CODE'
_TEXT	ENDS
;	COMDAT ?AllocateBytes@?$CTempBuffer@E$0BAA@VCCRTAllocator@ATL@@@ATL@@QAEPAEI@Z
_TEXT	SEGMENT PARA USE32 PUBLIC 'CODE'
_TEXT	ENDS
;	COMDAT ?AllocateHeap@?$CTempBuffer@E$0BAA@VCCRTAllocator@ATL@@@ATL@@AAEXI@Z
_TEXT	SEGMENT PARA USE32 PUBLIC 'CODE'
_TEXT	ENDS
;	COMDAT ?ChToByte@CRegParser@ATL@@KAED@Z
_TEXT	SEGMENT PARA USE32 PUBLIC 'CODE'
_TEXT	ENDS
;	COMDAT ??B?$CTempBuffer@E$0BAA@VCCRTAllocator@ATL@@@ATL@@QBEPAEXZ
_TEXT	SEGMENT PARA USE32 PUBLIC 'CODE'
_TEXT	ENDS
;	COMDAT ?SkipAssignment@CRegParser@ATL@@IAEJPAD@Z
_TEXT	SEGMENT PARA USE32 PUBLIC 'CODE'
_TEXT	ENDS
;	COMDAT ?HasSubKeys@CRegParser@ATL@@IAEHPAUHKEY__@@@Z
_TEXT	SEGMENT PARA USE32 PUBLIC 'CODE'
_TEXT	ENDS
;	COMDAT ?CanForceRemoveKey@CRegParser@ATL@@IAEHPBD@Z
_TEXT	SEGMENT PARA USE32 PUBLIC 'CODE'
_TEXT	ENDS
;	COMDAT ?rgszNeverDelete@CRegParser@ATL@@1QBQBDB
CONST	SEGMENT DWORD USE32 PUBLIC 'CONST'
CONST	ENDS
;	COMDAT ??_C@_05GIBEAPNE@CLSID?$AA@
CONST	SEGMENT DWORD USE32 PUBLIC 'CONST'
CONST	ENDS
;	COMDAT ??_C@_0BF@HDDNNDFH@Component?5Categories?$AA@
CONST	SEGMENT DWORD USE32 PUBLIC 'CONST'
CONST	ENDS
;	COMDAT ??_C@_08PICKODJL@FileType?$AA@
CONST	SEGMENT DWORD USE32 PUBLIC 'CONST'
CONST	ENDS
;	COMDAT ??_C@_09JKPGEJCH@Interface?$AA@
CONST	SEGMENT DWORD USE32 PUBLIC 'CONST'
CONST	ENDS
;	COMDAT ??_C@_08PPIOJEA@Hardware?$AA@
CONST	SEGMENT DWORD USE32 PUBLIC 'CONST'
CONST	ENDS
;	COMDAT ??_C@_04IHBFOLAC@Mime?$AA@
CONST	SEGMENT DWORD USE32 PUBLIC 'CONST'
CONST	ENDS
;	COMDAT ??_C@_03DDIMFGBA@SAM?$AA@
CONST	SEGMENT DWORD USE32 PUBLIC 'CONST'
CONST	ENDS
;	COMDAT ??_C@_08LOPHEHKG@SECURITY?$AA@
CONST	SEGMENT DWORD USE32 PUBLIC 'CONST'
CONST	ENDS
;	COMDAT ??_C@_06FDHFNJBJ@SYSTEM?$AA@
CONST	SEGMENT DWORD USE32 PUBLIC 'CONST'
CONST	ENDS
;	COMDAT ??_C@_08KEKAJNJI@Software?$AA@
CONST	SEGMENT DWORD USE32 PUBLIC 'CONST'
CONST	ENDS
;	COMDAT ??_C@_07KJLOKDKB@TypeLib?$AA@
CONST	SEGMENT DWORD USE32 PUBLIC 'CONST'
CONST	ENDS
;	COMDAT ?RecurseDeleteKey@CRegKey@ATL@@QAEJPBD@Z
_TEXT	SEGMENT PARA USE32 PUBLIC 'CODE'
_TEXT	ENDS
;	COMDAT ?Attach@CRegKey@ATL@@QAEXPAUHKEY__@@@Z
_TEXT	SEGMENT PARA USE32 PUBLIC 'CODE'
_TEXT	ENDS
;	COMDAT ?DeleteSubKey@CRegKey@ATL@@QAEJPBD@Z
_TEXT	SEGMENT PARA USE32 PUBLIC 'CODE'
_TEXT	ENDS
;	COMDAT ?Detach@CRegKey@ATL@@QAEPAUHKEY__@@XZ
_TEXT	SEGMENT PARA USE32 PUBLIC 'CODE'
_TEXT	ENDS
;	COMDAT ?SkipWhiteSpace@CRegParser@ATL@@IAEXXZ
_TEXT	SEGMENT PARA USE32 PUBLIC 'CODE'
_TEXT	ENDS
;	COMDAT ??B?$CTempBuffer@D$0EAA@VCCRTAllocator@ATL@@@ATL@@QBEPADXZ
_TEXT	SEGMENT PARA USE32 PUBLIC 'CODE'
_TEXT	ENDS
;	COMDAT ?ResourceUnregister@CRegObject@ATL@@QAGJPBGI0@Z
_TEXT	SEGMENT PARA USE32 PUBLIC 'CODE'
_TEXT	ENDS
;	COMDAT ??_C@_1M@PPPPCDEP@?$AAA?$AAP?$AAP?$AAI?$AAD?$AA?$AA@
CONST	SEGMENT DWORD USE32 PUBLIC 'CONST'
CONST	ENDS
;	COMDAT ?m_libid@CAtlModule@ATL@@2U_GUID@@A
_DATA	SEGMENT DWORD USE32 PUBLIC 'DATA'
_DATA	ENDS
sxdata	SEGMENT DWORD USE32 'SXDATA'
sxdata	ENDS
FLAT	GROUP _DATA, CONST, _BSS
	ASSUME	CS: FLAT, DS: FLAT, SS: FLAT
endif

INCLUDELIB LIBCMT
INCLUDELIB OLDNAMES

PUBLIC	?rgszNeverDelete@CRegParser@ATL@@1QBQBDB	; ATL::CRegParser::rgszNeverDelete
PUBLIC	?g_pfnGetThreadACP@ATL@@3P6GIXZA		; ATL::g_pfnGetThreadACP
PUBLIC	?_AtlGetThreadACPThunk@ATL@@YGIXZ		; ATL::_AtlGetThreadACPThunk
PUBLIC	??_C@_0BF@HDDNNDFH@Component?5Categories?$AA@	; `string'
PUBLIC	??_C@_08PICKODJL@FileType?$AA@			; `string'
PUBLIC	??_C@_09JKPGEJCH@Interface?$AA@			; `string'
PUBLIC	??_C@_08PPIOJEA@Hardware?$AA@			; `string'
PUBLIC	??_C@_04IHBFOLAC@Mime?$AA@			; `string'
PUBLIC	??_C@_03DDIMFGBA@SAM?$AA@			; `string'
PUBLIC	??_C@_08LOPHEHKG@SECURITY?$AA@			; `string'
PUBLIC	??_C@_06FDHFNJBJ@SYSTEM?$AA@			; `string'
PUBLIC	??_C@_08KEKAJNJI@Software?$AA@			; `string'
PUBLIC	??_C@_07KJLOKDKB@TypeLib?$AA@			; `string'
PUBLIC	?_pAtlModule@ATL@@3PAVCAtlModule@1@A		; ATL::_pAtlModule
PUBLIC	?m_libid@CAtlModule@ATL@@2U_GUID@@A		; ATL::CAtlModule::m_libid
PUBLIC	_CLSID_StdGlobalInterfaceTable
PUBLIC	??_C@_05GIBEAPNE@CLSID?$AA@			; `string'
PUBLIC	??_C@_05PDIKPLII@AppID?$AA@			; `string'
PUBLIC	??_C@_01CPLAODJH@S?$AA@				; `string'
PUBLIC	??_C@_01PLPBNMEI@M?$AA@				; `string'
PUBLIC	??_C@_01CKDDGHAB@D?$AA@				; `string'
PUBLIC	??_C@_01HMGJMAIH@B?$AA@				; `string'
PUBLIC	??_C@_03LAIAPFCB@Val?$AA@			; `string'
PUBLIC	??_C@_0M@DBGDLGLL@ForceRemove?$AA@		; `string'
PUBLIC	??_C@_08KAAPDIAN@NoRemove?$AA@			; `string'
PUBLIC	??_C@_06JBKGCNBB@Delete?$AA@			; `string'
PUBLIC	?_pPerfRegFunc@ATL@@3P6AJPAUHINSTANCE__@@@ZA	; ATL::_pPerfRegFunc
PUBLIC	?_pPerfUnRegFunc@ATL@@3P6AJXZA			; ATL::_pPerfUnRegFunc
;	COMDAT ?_pAtlModule@ATL@@3PAVCAtlModule@1@A
_BSS	SEGMENT
?_pAtlModule@ATL@@3PAVCAtlModule@1@A DD 01H DUP (?)	; ATL::_pAtlModule
_BSS	ENDS
;	COMDAT ?m_libid@CAtlModule@ATL@@2U_GUID@@A
_BSS	SEGMENT
?m_libid@CAtlModule@ATL@@2U_GUID@@A DB 010H DUP (?)	; ATL::CAtlModule::m_libid
_BSS	ENDS
;	COMDAT ?_pPerfRegFunc@ATL@@3P6AJPAUHINSTANCE__@@@ZA
_BSS	SEGMENT
?_pPerfRegFunc@ATL@@3P6AJPAUHINSTANCE__@@@ZA DD 01H DUP (?) ; ATL::_pPerfRegFunc
_BSS	ENDS
;	COMDAT ?_pPerfUnRegFunc@ATL@@3P6AJXZA
_BSS	SEGMENT
?_pPerfUnRegFunc@ATL@@3P6AJXZA DD 01H DUP (?)		; ATL::_pPerfUnRegFunc
_BSS	ENDS
;	COMDAT ?g_pfnGetThreadACP@ATL@@3P6GIXZA
_DATA	SEGMENT
?g_pfnGetThreadACP@ATL@@3P6GIXZA DD FLAT:?_AtlGetThreadACPThunk@ATL@@YGIXZ ; ATL::g_pfnGetThreadACP
_DATA	ENDS
;	COMDAT _CLSID_StdGlobalInterfaceTable
CONST	SEGMENT
_CLSID_StdGlobalInterfaceTable DD 0323H
	DW	00H
	DW	00H
	DB	0c0H
	DB	00H
	DB	00H
	DB	00H
	DB	00H
	DB	00H
	DB	00H
	DB	046H
CONST	ENDS
;	COMDAT ??_C@_01CPLAODJH@S?$AA@
CONST	SEGMENT
??_C@_01CPLAODJH@S?$AA@ DB 'S', 00H			; `string'
CONST	ENDS
CONST	SEGMENT
_szStringVal DD	FLAT:??_C@_01CPLAODJH@S?$AA@
CONST	ENDS
;	COMDAT ??_C@_01PLPBNMEI@M?$AA@
CONST	SEGMENT
??_C@_01PLPBNMEI@M?$AA@ DB 'M', 00H			; `string'
CONST	ENDS
CONST	SEGMENT
_multiszStringVal DD FLAT:??_C@_01PLPBNMEI@M?$AA@
CONST	ENDS
;	COMDAT ??_C@_01CKDDGHAB@D?$AA@
CONST	SEGMENT
??_C@_01CKDDGHAB@D?$AA@ DB 'D', 00H			; `string'
CONST	ENDS
CONST	SEGMENT
_szDwordVal DD	FLAT:??_C@_01CKDDGHAB@D?$AA@
CONST	ENDS
;	COMDAT ??_C@_01HMGJMAIH@B?$AA@
CONST	SEGMENT
??_C@_01HMGJMAIH@B?$AA@ DB 'B', 00H			; `string'
CONST	ENDS
CONST	SEGMENT
_szBinaryVal DD	FLAT:??_C@_01HMGJMAIH@B?$AA@
CONST	ENDS
;	COMDAT ??_C@_03LAIAPFCB@Val?$AA@
CONST	SEGMENT
??_C@_03LAIAPFCB@Val?$AA@ DB 'Val', 00H			; `string'
CONST	ENDS
CONST	SEGMENT
_szValToken DD	FLAT:??_C@_03LAIAPFCB@Val?$AA@
CONST	ENDS
;	COMDAT ??_C@_0M@DBGDLGLL@ForceRemove?$AA@
CONST	SEGMENT
??_C@_0M@DBGDLGLL@ForceRemove?$AA@ DB 'ForceRemove', 00H ; `string'
CONST	ENDS
CONST	SEGMENT
_szForceRemove DD FLAT:??_C@_0M@DBGDLGLL@ForceRemove?$AA@
CONST	ENDS
;	COMDAT ??_C@_08KAAPDIAN@NoRemove?$AA@
CONST	SEGMENT
??_C@_08KAAPDIAN@NoRemove?$AA@ DB 'NoRemove', 00H	; `string'
CONST	ENDS
CONST	SEGMENT
_szNoRemove DD	FLAT:??_C@_08KAAPDIAN@NoRemove?$AA@
CONST	ENDS
;	COMDAT ??_C@_06JBKGCNBB@Delete?$AA@
CONST	SEGMENT
??_C@_06JBKGCNBB@Delete?$AA@ DB 'Delete', 00H		; `string'
CONST	ENDS
CONST	SEGMENT
_szDelete DD	FLAT:??_C@_06JBKGCNBB@Delete?$AA@
CONST	ENDS
;	COMDAT ??_C@_05PDIKPLII@AppID?$AA@
CONST	SEGMENT
??_C@_05PDIKPLII@AppID?$AA@ DB 'AppID', 00H		; `string'
CONST	ENDS
;	COMDAT ??_C@_05GIBEAPNE@CLSID?$AA@
CONST	SEGMENT
??_C@_05GIBEAPNE@CLSID?$AA@ DB 'CLSID', 00H		; `string'
CONST	ENDS
;	COMDAT ??_C@_0BF@HDDNNDFH@Component?5Categories?$AA@
CONST	SEGMENT
??_C@_0BF@HDDNNDFH@Component?5Categories?$AA@ DB 'Component Categories', 00H ; `string'
CONST	ENDS
;	COMDAT ??_C@_08PICKODJL@FileType?$AA@
CONST	SEGMENT
??_C@_08PICKODJL@FileType?$AA@ DB 'FileType', 00H	; `string'
CONST	ENDS
;	COMDAT ??_C@_09JKPGEJCH@Interface?$AA@
CONST	SEGMENT
??_C@_09JKPGEJCH@Interface?$AA@ DB 'Interface', 00H	; `string'
CONST	ENDS
;	COMDAT ??_C@_08PPIOJEA@Hardware?$AA@
CONST	SEGMENT
??_C@_08PPIOJEA@Hardware?$AA@ DB 'Hardware', 00H	; `string'
CONST	ENDS
;	COMDAT ??_C@_04IHBFOLAC@Mime?$AA@
CONST	SEGMENT
??_C@_04IHBFOLAC@Mime?$AA@ DB 'Mime', 00H		; `string'
CONST	ENDS
;	COMDAT ??_C@_03DDIMFGBA@SAM?$AA@
CONST	SEGMENT
??_C@_03DDIMFGBA@SAM?$AA@ DB 'SAM', 00H			; `string'
CONST	ENDS
;	COMDAT ??_C@_08LOPHEHKG@SECURITY?$AA@
CONST	SEGMENT
??_C@_08LOPHEHKG@SECURITY?$AA@ DB 'SECURITY', 00H	; `string'
CONST	ENDS
;	COMDAT ??_C@_06FDHFNJBJ@SYSTEM?$AA@
CONST	SEGMENT
??_C@_06FDHFNJBJ@SYSTEM?$AA@ DB 'SYSTEM', 00H		; `string'
CONST	ENDS
;	COMDAT ??_C@_08KEKAJNJI@Software?$AA@
CONST	SEGMENT
??_C@_08KEKAJNJI@Software?$AA@ DB 'Software', 00H	; `string'
CONST	ENDS
;	COMDAT ??_C@_07KJLOKDKB@TypeLib?$AA@
CONST	SEGMENT
??_C@_07KJLOKDKB@TypeLib?$AA@ DB 'TypeLib', 00H		; `string'
CONST	ENDS
;	COMDAT ?rgszNeverDelete@CRegParser@ATL@@1QBQBDB
CONST	SEGMENT
?rgszNeverDelete@CRegParser@ATL@@1QBQBDB DD FLAT:??_C@_05PDIKPLII@AppID?$AA@ ; ATL::CRegParser::rgszNeverDelete
	DD	FLAT:??_C@_05GIBEAPNE@CLSID?$AA@
	DD	FLAT:??_C@_0BF@HDDNNDFH@Component?5Categories?$AA@
	DD	FLAT:??_C@_08PICKODJL@FileType?$AA@
	DD	FLAT:??_C@_09JKPGEJCH@Interface?$AA@
	DD	FLAT:??_C@_08PPIOJEA@Hardware?$AA@
	DD	FLAT:??_C@_04IHBFOLAC@Mime?$AA@
	DD	FLAT:??_C@_03DDIMFGBA@SAM?$AA@
	DD	FLAT:??_C@_08LOPHEHKG@SECURITY?$AA@
	DD	FLAT:??_C@_06FDHFNJBJ@SYSTEM?$AA@
	DD	FLAT:??_C@_08KEKAJNJI@Software?$AA@
	DD	FLAT:??_C@_07KJLOKDKB@TypeLib?$AA@
CONST	ENDS
PUBLIC	?ExecQuest@CQuestTeleport@@UAEXPAVCTPlayer@@KPAV?$map@EPAV?$map@KPAV?$vector@PAUtagQUESTTEMP@@V?$allocator@PAUtagQUESTTEMP@@@std@@@std@@U?$less@K@2@V?$allocator@U?$pair@$$CBKPAV?$vector@PAUtagQUESTTEMP@@V?$allocator@PAUtagQUESTTEMP@@@std@@@std@@@std@@@2@@std@@U?$less@E@2@V?$allocator@U?$pair@$$CBEPAV?$map@KPAV?$vector@PAUtagQUESTTEMP@@V?$allocator@PAUtagQUESTTEMP@@@std@@@std@@U?$less@K@2@V?$allocator@U?$pair@$$CBKPAV?$vector@PAUtagQUESTTEMP@@V?$allocator@PAUtagQUESTTEMP@@@std@@@std@@@std@@@2@@std@@@std@@@2@@std@@PAV?$map@KPAUtagQUESTTEMP@@U?$less@K@std@@V?$allocator@U?$pair@$$CBKPAUtagQUESTTEMP@@@std@@@3@@4@PAV?$map@GPAUtagTITEM@@U?$less@G@std@@V?$allocator@U?$pair@$$CBGPAUtagTITEM@@@std@@@3@@4@PAV?$map@GPAVCTSkillTemp@@U?$less@G@std@@V?$allocator@U?$pair@$$CBGPAVCTSkillTemp@@@std@@@3@@4@PAV?$map@GPAUtagTMONSTER@@U?$less@G@std@@V?$allocator@U?$pair@$$CBGPAUtagTMONSTER@@@std@@@3@@4@PAV?$map@EPAUtagTSTAT@@U?$less@E@std@@V?$allocator@U?$pair@$$CBEPAUtagTSTAT@@@std@@@3@@4@@Z ; CQuestTeleport::ExecQuest
PUBLIC	??0CQuestTeleport@@QAE@XZ			; CQuestTeleport::CQuestTeleport
PUBLIC	??_7CQuestTeleport@@6B@				; CQuestTeleport::`vftable'
PUBLIC	??_GCQuestTeleport@@UAEPAXI@Z			; CQuestTeleport::`scalar deleting destructor'
EXTRN	?CheckComplete@CQuest@@UAEPAUtagQUESTTERM@@PAVCTPlayer@@K@Z:NEAR ; CQuest::CheckComplete
EXTRN	?CheckComplete@CQuest@@UAEEPAVCTPlayer@@KPAUtagQUESTTERM@@@Z:NEAR ; CQuest::CheckComplete
EXTRN	??0CQuest@@QAE@XZ:NEAR				; CQuest::CQuest
EXTRN	??_ECQuestTeleport@@UAEPAXI@Z:NEAR		; CQuestTeleport::`vector deleting destructor'
;	COMDAT ??_7CQuestTeleport@@6B@
; File c:\users\pierr\desktop\4story - oldschool\sources\tserver\tmapsvr\questteleport.cpp
CONST	SEGMENT
??_7CQuestTeleport@@6B@ DD FLAT:?CheckComplete@CQuest@@UAEEPAVCTPlayer@@KPAUtagQUESTTERM@@@Z ; CQuestTeleport::`vftable'
	DD	FLAT:?CheckComplete@CQuest@@UAEPAUtagQUESTTERM@@PAVCTPlayer@@K@Z
	DD	FLAT:?ExecQuest@CQuestTeleport@@UAEXPAVCTPlayer@@KPAV?$map@EPAV?$map@KPAV?$vector@PAUtagQUESTTEMP@@V?$allocator@PAUtagQUESTTEMP@@@std@@@std@@U?$less@K@2@V?$allocator@U?$pair@$$CBKPAV?$vector@PAUtagQUESTTEMP@@V?$allocator@PAUtagQUESTTEMP@@@std@@@std@@@std@@@2@@std@@U?$less@E@2@V?$allocator@U?$pair@$$CBEPAV?$map@KPAV?$vector@PAUtagQUESTTEMP@@V?$allocator@PAUtagQUESTTEMP@@@std@@@std@@U?$less@K@2@V?$allocator@U?$pair@$$CBKPAV?$vector@PAUtagQUESTTEMP@@V?$allocator@PAUtagQUESTTEMP@@@std@@@std@@@std@@@2@@std@@@std@@@2@@std@@PAV?$map@KPAUtagQUESTTEMP@@U?$less@K@std@@V?$allocator@U?$pair@$$CBKPAUtagQUESTTEMP@@@std@@@3@@4@PAV?$map@GPAUtagTITEM@@U?$less@G@std@@V?$allocator@U?$pair@$$CBGPAUtagTITEM@@@std@@@3@@4@PAV?$map@GPAVCTSkillTemp@@U?$less@G@std@@V?$allocator@U?$pair@$$CBGPAVCTSkillTemp@@@std@@@3@@4@PAV?$map@GPAUtagTMONSTER@@U?$less@G@std@@V?$allocator@U?$pair@$$CBGPAUtagTMONSTER@@@std@@@3@@4@PAV?$map@EPAUtagTSTAT@@U?$less@E@std@@V?$allocator@U?$pair@$$CBEPAUtagTSTAT@@@std@@@3@@4@@Z
	DD	FLAT:??_ECQuestTeleport@@UAEPAXI@Z
; Function compile flags: /Ogty
CONST	ENDS
;	COMDAT ??0CQuestTeleport@@QAE@XZ
_TEXT	SEGMENT
??0CQuestTeleport@@QAE@XZ PROC NEAR			; CQuestTeleport::CQuestTeleport, COMDAT
; _this$ = ecx

; 15   : {

  00000	56		 push	 esi
  00001	8b f1		 mov	 esi, ecx
  00003	e8 00 00 00 00	 call	 ??0CQuest@@QAE@XZ	; CQuest::CQuest
  00008	c7 06 00 00 00
	00		 mov	 DWORD PTR [esi], OFFSET FLAT:??_7CQuestTeleport@@6B@

; 16   : }

  0000e	8b c6		 mov	 eax, esi
  00010	5e		 pop	 esi
  00011	c3		 ret	 0
??0CQuestTeleport@@QAE@XZ ENDP				; CQuestTeleport::CQuestTeleport
_TEXT	ENDS
PUBLIC	??1CQuestTeleport@@UAE@XZ			; CQuestTeleport::~CQuestTeleport
EXTRN	??1CQuest@@UAE@XZ:NEAR				; CQuest::~CQuest
; Function compile flags: /Ogty
;	COMDAT ??1CQuestTeleport@@UAE@XZ
_TEXT	SEGMENT
??1CQuestTeleport@@UAE@XZ PROC NEAR			; CQuestTeleport::~CQuestTeleport, COMDAT
; _this$ = ecx

; 19   : {

  00000	c7 01 00 00 00
	00		 mov	 DWORD PTR [ecx], OFFSET FLAT:??_7CQuestTeleport@@6B@

; 20   : }

  00006	e9 00 00 00 00	 jmp	 ??1CQuest@@UAE@XZ	; CQuest::~CQuest
??1CQuestTeleport@@UAE@XZ ENDP				; CQuestTeleport::~CQuestTeleport
_TEXT	ENDS
PUBLIC	?InterlockedExchangePointer@@YGPAXPAPAXPAX@Z	; InterlockedExchangePointer
EXTRN	__imp__InterlockedExchange@8:NEAR
; Function compile flags: /Ogty
; File c:\program files (x86)\microsoft visual studio .net 2003\vc7\atlmfc\include\atlconv.h
;	COMDAT ?InterlockedExchangePointer@@YGPAXPAPAXPAX@Z
_TEXT	SEGMENT
_pp$ = 8						; size = 4
_pNew$ = 12						; size = 4
?InterlockedExchangePointer@@YGPAXPAPAXPAX@Z PROC NEAR	; InterlockedExchangePointer, COMDAT

; 92   : 	return( reinterpret_cast<void*>(static_cast<LONG_PTR>(::InterlockedExchange(reinterpret_cast<LONG*>(pp), static_cast<LONG>(reinterpret_cast<LONG_PTR>(pNew))))) );

  00000	ff 25 00 00 00
	00		 jmp	 DWORD PTR __imp__InterlockedExchange@8
?InterlockedExchangePointer@@YGPAXPAPAXPAX@Z ENDP	; InterlockedExchangePointer
_TEXT	ENDS
PUBLIC	?_AtlGetThreadACPFake@ATL@@YGIXZ		; ATL::_AtlGetThreadACPFake
EXTRN	___security_cookie:DWORD
EXTRN	@__security_check_cookie@4:NEAR
EXTRN	__imp__GetACP@0:NEAR
EXTRN	__imp__GetLocaleInfoA@16:NEAR
EXTRN	__imp__GetThreadLocale@0:NEAR
; Function compile flags: /Ogty
;	COMDAT ?_AtlGetThreadACPFake@ATL@@YGIXZ
_TEXT	SEGMENT
_szACP$ = -12						; size = 7
__$ArrayPad$ = -4					; size = 4
__$ReturnAddr$ = 4					; size = 4
?_AtlGetThreadACPFake@ATL@@YGIXZ PROC NEAR		; ATL::_AtlGetThreadACPFake, COMDAT

; 101  : {

  00000	83 ec 0c	 sub	 esp, 12			; 0000000cH
  00003	a1 00 00 00 00	 mov	 eax, DWORD PTR ___security_cookie
  00008	56		 push	 esi
  00009	89 44 24 0c	 mov	 DWORD PTR __$ArrayPad$[esp+16], eax

; 102  : 	UINT nACP = 0;

  0000d	33 f6		 xor	 esi, esi

; 103  : 
; 104  : 	LCID lcidThread = ::GetThreadLocale();

  0000f	ff 15 00 00 00
	00		 call	 DWORD PTR __imp__GetThreadLocale@0

; 105  : 
; 106  : 	char szACP[7];
; 107  : 	// GetLocaleInfoA will fail for a Unicode-only LCID, but those are only supported on 
; 108  : 	// Windows 2000.  Since Windows 2000 supports CP_THREAD_ACP, this code path is never
; 109  : 	// executed on Windows 2000.
; 110  : 	if (::GetLocaleInfoA(lcidThread, LOCALE_IDEFAULTANSICODEPAGE, szACP, 7) != 0)

  00015	6a 07		 push	 7
  00017	8d 4c 24 08	 lea	 ecx, DWORD PTR _szACP$[esp+20]
  0001b	51		 push	 ecx
  0001c	68 04 10 00 00	 push	 4100			; 00001004H
  00021	50		 push	 eax
  00022	ff 15 00 00 00
	00		 call	 DWORD PTR __imp__GetLocaleInfoA@16
  00028	85 c0		 test	 eax, eax
  0002a	74 21		 je	 SHORT $L176189

; 111  : 	{
; 112  : 		char* pch = szACP;
; 113  : 		while (*pch != '\0')

  0002c	8a 44 24 04	 mov	 al, BYTE PTR _szACP$[esp+16]
  00030	84 c0		 test	 al, al
  00032	8d 4c 24 04	 lea	 ecx, DWORD PTR _szACP$[esp+16]
  00036	74 15		 je	 SHORT $L176189
$L58550:

; 114  : 		{
; 115  : 			nACP *= 10;
; 116  : 			nACP += *pch++ - '0';

  00038	0f be c0	 movsx	 eax, al
  0003b	8d 14 b6	 lea	 edx, DWORD PTR [esi+esi*4]
  0003e	41		 inc	 ecx
  0003f	8d 74 50 d0	 lea	 esi, DWORD PTR [eax+edx*2-48]
  00043	8a 01		 mov	 al, BYTE PTR [ecx]
  00045	84 c0		 test	 al, al
  00047	75 ef		 jne	 SHORT $L58550

; 117  : 		}
; 118  : 	}
; 119  : 	// Use the Default ANSI Code Page if we were unable to get the thread ACP or if one does not exist.
; 120  : 	if (nACP == 0)

  00049	85 f6		 test	 esi, esi
  0004b	75 14		 jne	 SHORT $L176190
$L176189:

; 121  : 		nACP = ::GetACP();

  0004d	ff 15 00 00 00
	00		 call	 DWORD PTR __imp__GetACP@0
  00053	5e		 pop	 esi

; 122  : 
; 123  : 	return nACP;
; 124  : }

  00054	8b 4c 24 08	 mov	 ecx, DWORD PTR __$ArrayPad$[esp+12]
  00058	e8 00 00 00 00	 call	 @__security_check_cookie@4
  0005d	83 c4 0c	 add	 esp, 12			; 0000000cH
  00060	c3		 ret	 0
$L176190:
  00061	8b 4c 24 0c	 mov	 ecx, DWORD PTR __$ArrayPad$[esp+16]
  00065	8b c6		 mov	 eax, esi
  00067	5e		 pop	 esi
  00068	e8 00 00 00 00	 call	 @__security_check_cookie@4
  0006d	83 c4 0c	 add	 esp, 12			; 0000000cH
  00070	c3		 ret	 0
?_AtlGetThreadACPFake@ATL@@YGIXZ ENDP			; ATL::_AtlGetThreadACPFake
_TEXT	ENDS
PUBLIC	?_AtlGetThreadACPReal@ATL@@YGIXZ		; ATL::_AtlGetThreadACPReal
; Function compile flags: /Ogty
;	COMDAT ?_AtlGetThreadACPReal@ATL@@YGIXZ
_TEXT	SEGMENT
?_AtlGetThreadACPReal@ATL@@YGIXZ PROC NEAR		; ATL::_AtlGetThreadACPReal, COMDAT

; 128  : 	return( CP_THREAD_ACP );

  00000	b8 03 00 00 00	 mov	 eax, 3

; 129  : }

  00005	c3		 ret	 0
?_AtlGetThreadACPReal@ATL@@YGIXZ ENDP			; ATL::_AtlGetThreadACPReal
_TEXT	ENDS
EXTRN	__imp__GetVersionExA@4:NEAR
; Function compile flags: /Ogty
;	COMDAT ?_AtlGetThreadACPThunk@ATL@@YGIXZ
_TEXT	SEGMENT
_ver$ = -152						; size = 148
__$ArrayPad$ = -4					; size = 4
__$ReturnAddr$ = 4					; size = 4
?_AtlGetThreadACPThunk@ATL@@YGIXZ PROC NEAR		; ATL::_AtlGetThreadACPThunk, COMDAT

; 134  : {

  00000	81 ec 98 00 00
	00		 sub	 esp, 152		; 00000098H
  00006	a1 00 00 00 00	 mov	 eax, DWORD PTR ___security_cookie
  0000b	89 84 24 94 00
	00 00		 mov	 DWORD PTR __$ArrayPad$[esp+152], eax

; 135  : 	OSVERSIONINFO ver;
; 136  : 	ATLGETTHREADACP pfnGetThreadACP;
; 137  : 
; 138  : 	ver.dwOSVersionInfoSize = sizeof( ver );
; 139  : 	::GetVersionEx( &ver );

  00012	8d 04 24	 lea	 eax, DWORD PTR _ver$[esp+152]
  00015	50		 push	 eax
  00016	c7 44 24 04 94
	00 00 00	 mov	 DWORD PTR _ver$[esp+156], 148 ; 00000094H
  0001e	ff 15 00 00 00
	00		 call	 DWORD PTR __imp__GetVersionExA@4

; 140  : 	if( (ver.dwPlatformId == VER_PLATFORM_WIN32_NT) && (ver.dwMajorVersion >= 5) )

  00024	83 7c 24 10 02	 cmp	 DWORD PTR _ver$[esp+168], 2
  00029	75 0c		 jne	 SHORT $L58560
  0002b	83 7c 24 04 05	 cmp	 DWORD PTR _ver$[esp+156], 5

; 141  : 	{
; 142  : 		// On Win2K, CP_THREAD_ACP is supported
; 143  : 		pfnGetThreadACP = _AtlGetThreadACPReal;

  00030	b8 00 00 00 00	 mov	 eax, OFFSET FLAT:?_AtlGetThreadACPReal@ATL@@YGIXZ ; ATL::_AtlGetThreadACPReal
  00035	73 05		 jae	 SHORT $L58561
$L58560:

; 144  : 	}
; 145  : 	else
; 146  : 	{
; 147  : 		pfnGetThreadACP = _AtlGetThreadACPFake;

  00037	b8 00 00 00 00	 mov	 eax, OFFSET FLAT:?_AtlGetThreadACPFake@ATL@@YGIXZ ; ATL::_AtlGetThreadACPFake
$L58561:

; 148  : 	}
; 149  : 	InterlockedExchangePointer( reinterpret_cast< void** >(&g_pfnGetThreadACP), pfnGetThreadACP );

  0003c	50		 push	 eax
  0003d	68 00 00 00 00	 push	 OFFSET FLAT:?g_pfnGetThreadACP@ATL@@3P6GIXZA ; ATL::g_pfnGetThreadACP
  00042	ff 15 00 00 00
	00		 call	 DWORD PTR __imp__InterlockedExchange@8

; 150  : 
; 151  : 	return( g_pfnGetThreadACP() );

  00048	ff 15 00 00 00
	00		 call	 DWORD PTR ?g_pfnGetThreadACP@ATL@@3P6GIXZA ; ATL::g_pfnGetThreadACP

; 152  : }

  0004e	8b 8c 24 94 00
	00 00		 mov	 ecx, DWORD PTR __$ArrayPad$[esp+152]
  00055	e8 00 00 00 00	 call	 @__security_check_cookie@4
  0005a	81 c4 98 00 00
	00		 add	 esp, 152		; 00000098H
  00060	c3		 ret	 0
?_AtlGetThreadACPThunk@ATL@@YGIXZ ENDP			; ATL::_AtlGetThreadACPThunk
_TEXT	ENDS
PUBLIC	?size@?$vector@PAUtagQUESTTERM@@V?$allocator@PAUtagQUESTTERM@@@std@@@std@@QBEIXZ ; std::vector<tagQUESTTERM *,std::allocator<tagQUESTTERM *> >::size
; Function compile flags: /Ogty
; File c:\program files (x86)\microsoft visual studio .net 2003\vc7\include\vector
;	COMDAT ?size@?$vector@PAUtagQUESTTERM@@V?$allocator@PAUtagQUESTTERM@@@std@@@std@@QBEIXZ
_TEXT	SEGMENT
?size@?$vector@PAUtagQUESTTERM@@V?$allocator@PAUtagQUESTTERM@@@std@@@std@@QBEIXZ PROC NEAR ; std::vector<tagQUESTTERM *,std::allocator<tagQUESTTERM *> >::size, COMDAT
; _this$ = ecx

; 516  : 		return (_Myfirst == 0 ? 0 : _Mylast - _Myfirst);

  00000	8b 51 04	 mov	 edx, DWORD PTR [ecx+4]
  00003	85 d2		 test	 edx, edx
  00005	75 03		 jne	 SHORT $L176208
  00007	33 c0		 xor	 eax, eax

; 517  : 		}

  00009	c3		 ret	 0
$L176208:

; 516  : 		return (_Myfirst == 0 ? 0 : _Mylast - _Myfirst);

  0000a	8b 41 08	 mov	 eax, DWORD PTR [ecx+8]
  0000d	2b c2		 sub	 eax, edx
  0000f	c1 f8 02	 sar	 eax, 2

; 517  : 		}

  00012	c3		 ret	 0
?size@?$vector@PAUtagQUESTTERM@@V?$allocator@PAUtagQUESTTERM@@@std@@@std@@QBEIXZ ENDP ; std::vector<tagQUESTTERM *,std::allocator<tagQUESTTERM *> >::size
_TEXT	ENDS
PUBLIC	??Dconst_iterator@?$vector@PAUtagQUESTTERM@@V?$allocator@PAUtagQUESTTERM@@@std@@@std@@QBEABQAUtagQUESTTERM@@XZ ; std::vector<tagQUESTTERM *,std::allocator<tagQUESTTERM *> >::const_iterator::operator*
; Function compile flags: /Ogty
;	COMDAT ??Dconst_iterator@?$vector@PAUtagQUESTTERM@@V?$allocator@PAUtagQUESTTERM@@@std@@@std@@QBEABQAUtagQUESTTERM@@XZ
_TEXT	SEGMENT
??Dconst_iterator@?$vector@PAUtagQUESTTERM@@V?$allocator@PAUtagQUESTTERM@@@std@@@std@@QBEABQAUtagQUESTTERM@@XZ PROC NEAR ; std::vector<tagQUESTTERM *,std::allocator<tagQUESTTERM *> >::const_iterator::operator*, COMDAT
; _this$ = ecx

; 80   : 
; 81   : 
; 82   : 			return (*_Myptr);

  00000	8b 01		 mov	 eax, DWORD PTR [ecx]

; 83   : 			}

  00002	c3		 ret	 0
??Dconst_iterator@?$vector@PAUtagQUESTTERM@@V?$allocator@PAUtagQUESTTERM@@@std@@@std@@QBEABQAUtagQUESTTERM@@XZ ENDP ; std::vector<tagQUESTTERM *,std::allocator<tagQUESTTERM *> >::const_iterator::operator*
_TEXT	ENDS
PUBLIC	??Yiterator@?$vector@PAUtagQUESTTERM@@V?$allocator@PAUtagQUESTTERM@@@std@@@std@@QAEAAV012@H@Z ; std::vector<tagQUESTTERM *,std::allocator<tagQUESTTERM *> >::iterator::operator+=
; Function compile flags: /Ogty
;	COMDAT ??Yiterator@?$vector@PAUtagQUESTTERM@@V?$allocator@PAUtagQUESTTERM@@@std@@@std@@QAEAAV012@H@Z
_TEXT	SEGMENT
__Off$ = 8						; size = 4
??Yiterator@?$vector@PAUtagQUESTTERM@@V?$allocator@PAUtagQUESTTERM@@@std@@@std@@QAEAAV012@H@Z PROC NEAR ; std::vector<tagQUESTTERM *,std::allocator<tagQUESTTERM *> >::iterator::operator+=, COMDAT
; _this$ = ecx

; 255  : 			{	// increment by integer

  00000	8b c1		 mov	 eax, ecx

; 256  : 			this->_Myptr += _Off;

  00002	8b 4c 24 04	 mov	 ecx, DWORD PTR __Off$[esp-4]
  00006	8d 14 8d 00 00
	00 00		 lea	 edx, DWORD PTR [ecx*4]
  0000d	01 10		 add	 DWORD PTR [eax], edx

; 257  : 			return (*this);
; 258  : 			}

  0000f	c2 04 00	 ret	 4
??Yiterator@?$vector@PAUtagQUESTTERM@@V?$allocator@PAUtagQUESTTERM@@@std@@@std@@QAEAAV012@H@Z ENDP ; std::vector<tagQUESTTERM *,std::allocator<tagQUESTTERM *> >::iterator::operator+=
_TEXT	ENDS
PUBLIC	??0const_iterator@?$vector@PAUtagQUESTTERM@@V?$allocator@PAUtagQUESTTERM@@@std@@@std@@QAE@PAPAUtagQUESTTERM@@@Z ; std::vector<tagQUESTTERM *,std::allocator<tagQUESTTERM *> >::const_iterator::const_iterator
; Function compile flags: /Ogty
;	COMDAT ??0const_iterator@?$vector@PAUtagQUESTTERM@@V?$allocator@PAUtagQUESTTERM@@@std@@@std@@QAE@PAPAUtagQUESTTERM@@@Z
_TEXT	SEGMENT
__Ptr$ = 8						; size = 4
??0const_iterator@?$vector@PAUtagQUESTTERM@@V?$allocator@PAUtagQUESTTERM@@@std@@@std@@QAE@PAPAUtagQUESTTERM@@@Z PROC NEAR ; std::vector<tagQUESTTERM *,std::allocator<tagQUESTTERM *> >::const_iterator::const_iterator, COMDAT
; _this$ = ecx

; 73   : 		const_iterator(_Tptr _Ptr)

  00000	8b c1		 mov	 eax, ecx

; 74   : 			{	// construct with pointer _Ptr
; 75   : 			_Myptr = _Ptr;

  00002	8b 4c 24 04	 mov	 ecx, DWORD PTR __Ptr$[esp-4]
  00006	89 08		 mov	 DWORD PTR [eax], ecx

; 76   : 			}

  00008	c2 04 00	 ret	 4
??0const_iterator@?$vector@PAUtagQUESTTERM@@V?$allocator@PAUtagQUESTTERM@@@std@@@std@@QAE@PAPAUtagQUESTTERM@@@Z ENDP ; std::vector<tagQUESTTERM *,std::allocator<tagQUESTTERM *> >::const_iterator::const_iterator
_TEXT	ENDS
EXTRN	??3@YAXPAX@Z:NEAR				; operator delete
; Function compile flags: /Ogty
;	COMDAT ??_GCQuestTeleport@@UAEPAXI@Z
_TEXT	SEGMENT
___flags$ = 8						; size = 4
??_GCQuestTeleport@@UAEPAXI@Z PROC NEAR			; CQuestTeleport::`scalar deleting destructor', COMDAT
; _this$ = ecx
  00000	56		 push	 esi
  00001	8b f1		 mov	 esi, ecx
  00003	e8 00 00 00 00	 call	 ??1CQuestTeleport@@UAE@XZ ; CQuestTeleport::~CQuestTeleport
  00008	f6 44 24 08 01	 test	 BYTE PTR ___flags$[esp], 1
  0000d	74 09		 je	 SHORT $L176222
  0000f	56		 push	 esi
  00010	e8 00 00 00 00	 call	 ??3@YAXPAX@Z		; operator delete
  00015	83 c4 04	 add	 esp, 4
$L176222:
  00018	8b c6		 mov	 eax, esi
  0001a	5e		 pop	 esi
  0001b	c2 04 00	 ret	 4
??_GCQuestTeleport@@UAEPAXI@Z ENDP			; CQuestTeleport::`scalar deleting destructor'
_TEXT	ENDS
PUBLIC	??Hiterator@?$vector@PAUtagQUESTTERM@@V?$allocator@PAUtagQUESTTERM@@@std@@@std@@QBE?AV012@H@Z ; std::vector<tagQUESTTERM *,std::allocator<tagQUESTTERM *> >::iterator::operator+
; Function compile flags: /Ogty
;	COMDAT ??Hiterator@?$vector@PAUtagQUESTTERM@@V?$allocator@PAUtagQUESTTERM@@@std@@@std@@QBE?AV012@H@Z
_TEXT	SEGMENT
___$ReturnUdt$ = 8					; size = 4
__Off$ = 12						; size = 4
??Hiterator@?$vector@PAUtagQUESTTERM@@V?$allocator@PAUtagQUESTTERM@@@std@@@std@@QBE?AV012@H@Z PROC NEAR ; std::vector<tagQUESTTERM *,std::allocator<tagQUESTTERM *> >::iterator::operator+, COMDAT
; _this$ = ecx

; 262  : 			iterator _Tmp = *this;
; 263  : 			return (_Tmp += _Off);

  00000	8b 01		 mov	 eax, DWORD PTR [ecx]
  00002	8b 4c 24 08	 mov	 ecx, DWORD PTR __Off$[esp-4]
  00006	8d 14 88	 lea	 edx, DWORD PTR [eax+ecx*4]
  00009	8b 44 24 04	 mov	 eax, DWORD PTR ___$ReturnUdt$[esp-4]
  0000d	89 10		 mov	 DWORD PTR [eax], edx

; 264  : 			}

  0000f	c2 08 00	 ret	 8
??Hiterator@?$vector@PAUtagQUESTTERM@@V?$allocator@PAUtagQUESTTERM@@@std@@@std@@QBE?AV012@H@Z ENDP ; std::vector<tagQUESTTERM *,std::allocator<tagQUESTTERM *> >::iterator::operator+
_TEXT	ENDS
PUBLIC	??Diterator@?$vector@PAUtagQUESTTERM@@V?$allocator@PAUtagQUESTTERM@@@std@@@std@@QBEAAPAUtagQUESTTERM@@XZ ; std::vector<tagQUESTTERM *,std::allocator<tagQUESTTERM *> >::iterator::operator*
; Function compile flags: /Ogty
;	COMDAT ??Diterator@?$vector@PAUtagQUESTTERM@@V?$allocator@PAUtagQUESTTERM@@@std@@@std@@QBEAAPAUtagQUESTTERM@@XZ
_TEXT	SEGMENT
??Diterator@?$vector@PAUtagQUESTTERM@@V?$allocator@PAUtagQUESTTERM@@@std@@@std@@QBEAAPAUtagQUESTTERM@@XZ PROC NEAR ; std::vector<tagQUESTTERM *,std::allocator<tagQUESTTERM *> >::iterator::operator*, COMDAT
; _this$ = ecx

; 220  : 			return ((reference)**(const_iterator *)this);

  00000	8b 01		 mov	 eax, DWORD PTR [ecx]

; 221  : 			}

  00002	c3		 ret	 0
??Diterator@?$vector@PAUtagQUESTTERM@@V?$allocator@PAUtagQUESTTERM@@@std@@@std@@QBEAAPAUtagQUESTTERM@@XZ ENDP ; std::vector<tagQUESTTERM *,std::allocator<tagQUESTTERM *> >::iterator::operator*
_TEXT	ENDS
PUBLIC	??0iterator@?$vector@PAUtagQUESTTERM@@V?$allocator@PAUtagQUESTTERM@@@std@@@std@@QAE@PAPAUtagQUESTTERM@@@Z ; std::vector<tagQUESTTERM *,std::allocator<tagQUESTTERM *> >::iterator::iterator
; Function compile flags: /Ogty
;	COMDAT ??0iterator@?$vector@PAUtagQUESTTERM@@V?$allocator@PAUtagQUESTTERM@@@std@@@std@@QAE@PAPAUtagQUESTTERM@@@Z
_TEXT	SEGMENT
__Ptr$ = 8						; size = 4
??0iterator@?$vector@PAUtagQUESTTERM@@V?$allocator@PAUtagQUESTTERM@@@std@@@std@@QAE@PAPAUtagQUESTTERM@@@Z PROC NEAR ; std::vector<tagQUESTTERM *,std::allocator<tagQUESTTERM *> >::iterator::iterator, COMDAT
; _this$ = ecx

; 215  : 			{	// construct with pointer _Ptr

  00000	8b c1		 mov	 eax, ecx
  00002	8b 4c 24 04	 mov	 ecx, DWORD PTR __Ptr$[esp-4]
  00006	89 08		 mov	 DWORD PTR [eax], ecx

; 216  : 			}

  00008	c2 04 00	 ret	 4
??0iterator@?$vector@PAUtagQUESTTERM@@V?$allocator@PAUtagQUESTTERM@@@std@@@std@@QAE@PAPAUtagQUESTTERM@@@Z ENDP ; std::vector<tagQUESTTERM *,std::allocator<tagQUESTTERM *> >::iterator::iterator
_TEXT	ENDS
PUBLIC	?begin@?$vector@PAUtagQUESTTERM@@V?$allocator@PAUtagQUESTTERM@@@std@@@std@@QAE?AViterator@12@XZ ; std::vector<tagQUESTTERM *,std::allocator<tagQUESTTERM *> >::begin
; Function compile flags: /Ogty
;	COMDAT ?begin@?$vector@PAUtagQUESTTERM@@V?$allocator@PAUtagQUESTTERM@@@std@@@std@@QAE?AViterator@12@XZ
_TEXT	SEGMENT
___$ReturnUdt$ = 8					; size = 4
?begin@?$vector@PAUtagQUESTTERM@@V?$allocator@PAUtagQUESTTERM@@@std@@@std@@QAE?AViterator@12@XZ PROC NEAR ; std::vector<tagQUESTTERM *,std::allocator<tagQUESTTERM *> >::begin, COMDAT
; _this$ = ecx

; 463  : 		return (iterator(_Myfirst));

  00000	8b 49 04	 mov	 ecx, DWORD PTR [ecx+4]
  00003	8b 44 24 04	 mov	 eax, DWORD PTR ___$ReturnUdt$[esp-4]
  00007	89 08		 mov	 DWORD PTR [eax], ecx

; 464  : 		}

  00009	c2 04 00	 ret	 4
?begin@?$vector@PAUtagQUESTTERM@@V?$allocator@PAUtagQUESTTERM@@@std@@@std@@QAE?AViterator@12@XZ ENDP ; std::vector<tagQUESTTERM *,std::allocator<tagQUESTTERM *> >::begin
_TEXT	ENDS
PUBLIC	??A?$vector@PAUtagQUESTTERM@@V?$allocator@PAUtagQUESTTERM@@@std@@@std@@QAEAAPAUtagQUESTTERM@@I@Z ; std::vector<tagQUESTTERM *,std::allocator<tagQUESTTERM *> >::operator[]
; Function compile flags: /Ogty
;	COMDAT ??A?$vector@PAUtagQUESTTERM@@V?$allocator@PAUtagQUESTTERM@@@std@@@std@@QAEAAPAUtagQUESTTERM@@I@Z
_TEXT	SEGMENT
__Pos$ = 8						; size = 4
??A?$vector@PAUtagQUESTTERM@@V?$allocator@PAUtagQUESTTERM@@@std@@@std@@QAEAAPAUtagQUESTTERM@@I@Z PROC NEAR ; std::vector<tagQUESTTERM *,std::allocator<tagQUESTTERM *> >::operator[], COMDAT
; _this$ = ecx

; 555  : 		return (*(begin() + _Pos));

  00000	8b 41 04	 mov	 eax, DWORD PTR [ecx+4]
  00003	8b 4c 24 04	 mov	 ecx, DWORD PTR __Pos$[esp-4]
  00007	8d 04 88	 lea	 eax, DWORD PTR [eax+ecx*4]

; 556  : 		}

  0000a	c2 04 00	 ret	 4
??A?$vector@PAUtagQUESTTERM@@V?$allocator@PAUtagQUESTTERM@@@std@@@std@@QAEAAPAUtagQUESTTERM@@I@Z ENDP ; std::vector<tagQUESTTERM *,std::allocator<tagQUESTTERM *> >::operator[]
_TEXT	ENDS
PUBLIC	__real@4f800000
EXTRN	?_AtlModule@@3VCTMapSvrModule@@A:BYTE		; _AtlModule
EXTRN	?CanRunQuest@CTPlayer@@QAEEPAUtagQUESTTEMP@@KAAE@Z:NEAR ; CTPlayer::CanRunQuest
EXTRN	__fltused:NEAR
EXTRN	?ExecQuest@CQuest@@UAEXPAVCTPlayer@@KPAV?$map@EPAV?$map@KPAV?$vector@PAUtagQUESTTEMP@@V?$allocator@PAUtagQUESTTEMP@@@std@@@std@@U?$less@K@2@V?$allocator@U?$pair@$$CBKPAV?$vector@PAUtagQUESTTEMP@@V?$allocator@PAUtagQUESTTEMP@@@std@@@std@@@std@@@2@@std@@U?$less@E@2@V?$allocator@U?$pair@$$CBEPAV?$map@KPAV?$vector@PAUtagQUESTTEMP@@V?$allocator@PAUtagQUESTTEMP@@@std@@@std@@U?$less@K@2@V?$allocator@U?$pair@$$CBKPAV?$vector@PAUtagQUESTTEMP@@V?$allocator@PAUtagQUESTTEMP@@@std@@@std@@@std@@@2@@std@@@std@@@2@@std@@PAV?$map@KPAUtagQUESTTEMP@@U?$less@K@std@@V?$allocator@U?$pair@$$CBKPAUtagQUESTTEMP@@@std@@@3@@4@PAV?$map@GPAUtagTITEM@@U?$less@G@std@@V?$allocator@U?$pair@$$CBGPAUtagTITEM@@@std@@@3@@4@PAV?$map@GPAVCTSkillTemp@@U?$less@G@std@@V?$allocator@U?$pair@$$CBGPAVCTSkillTemp@@@std@@@3@@4@PAV?$map@GPAUtagTMONSTER@@U?$less@G@std@@V?$allocator@U?$pair@$$CBGPAUtagTMONSTER@@@std@@@3@@4@PAV?$map@EPAUtagTSTAT@@U?$less@E@std@@V?$allocator@U?$pair@$$CBEPAUtagTSTAT@@@std@@@3@@4@@Z:NEAR ; CQuest::ExecQuest
EXTRN	?Teleport@CTMapSvrModule@@QAEEPAVCTPlayer@@EGMMM@Z:NEAR ; CTMapSvrModule::Teleport
;	COMDAT __real@4f800000
CONST	SEGMENT
__real@4f800000 DD 04f800000r			; 4.29497e+009
; Function compile flags: /Ogty
; File c:\users\pierr\desktop\4story - oldschool\sources\tserver\tmapsvr\questteleport.cpp
CONST	ENDS
;	COMDAT ?ExecQuest@CQuestTeleport@@UAEXPAVCTPlayer@@KPAV?$map@EPAV?$map@KPAV?$vector@PAUtagQUESTTEMP@@V?$allocator@PAUtagQUESTTEMP@@@std@@@std@@U?$less@K@2@V?$allocator@U?$pair@$$CBKPAV?$vector@PAUtagQUESTTEMP@@V?$allocator@PAUtagQUESTTEMP@@@std@@@std@@@std@@@2@@std@@U?$less@E@2@V?$allocator@U?$pair@$$CBEPAV?$map@KPAV?$vector@PAUtagQUESTTEMP@@V?$allocator@PAUtagQUESTTEMP@@@std@@@std@@U?$less@K@2@V?$allocator@U?$pair@$$CBKPAV?$vector@PAUtagQUESTTEMP@@V?$allocator@PAUtagQUESTTEMP@@@std@@@std@@@std@@@2@@std@@@std@@@2@@std@@PAV?$map@KPAUtagQUESTTEMP@@U?$less@K@std@@V?$allocator@U?$pair@$$CBKPAUtagQUESTTEMP@@@std@@@3@@4@PAV?$map@GPAUtagTITEM@@U?$less@G@std@@V?$allocator@U?$pair@$$CBGPAUtagTITEM@@@std@@@3@@4@PAV?$map@GPAVCTSkillTemp@@U?$less@G@std@@V?$allocator@U?$pair@$$CBGPAVCTSkillTemp@@@std@@@3@@4@PAV?$map@GPAUtagTMONSTER@@U?$less@G@std@@V?$allocator@U?$pair@$$CBGPAUtagTMONSTER@@@std@@@3@@4@PAV?$map@EPAUtagTSTAT@@U?$less@E@std@@V?$allocator@U?$pair@$$CBEPAUtagTSTAT@@@std@@@3@@4@@Z
_TEXT	SEGMENT
_bLevel$ = -13						; size = 1
tv377 = -12						; size = 4
_fPosZ$175232 = -12					; size = 4
tv379 = -8						; size = 4
_fPosY$175231 = -8					; size = 4
tv381 = -4						; size = 4
_fPosX$175230 = -4					; size = 4
_pPlayer$ = 8						; size = 4
_dwTick$ = 12						; size = 4
_pTRIGGER$ = 16						; size = 4
_pQUESTTEMP$ = 20					; size = 4
_pITEMTEMP$ = 24					; size = 4
_pSKILLTEMP$ = 28					; size = 4
_pMONTEMP$ = 32						; size = 4
_pCLASS$ = 36						; size = 4
?ExecQuest@CQuestTeleport@@UAEXPAVCTPlayer@@KPAV?$map@EPAV?$map@KPAV?$vector@PAUtagQUESTTEMP@@V?$allocator@PAUtagQUESTTEMP@@@std@@@std@@U?$less@K@2@V?$allocator@U?$pair@$$CBKPAV?$vector@PAUtagQUESTTEMP@@V?$allocator@PAUtagQUESTTEMP@@@std@@@std@@@std@@@2@@std@@U?$less@E@2@V?$allocator@U?$pair@$$CBEPAV?$map@KPAV?$vector@PAUtagQUESTTEMP@@V?$allocator@PAUtagQUESTTEMP@@@std@@@std@@U?$less@K@2@V?$allocator@U?$pair@$$CBKPAV?$vector@PAUtagQUESTTEMP@@V?$allocator@PAUtagQUESTTEMP@@@std@@@std@@@std@@@2@@std@@@std@@@2@@std@@PAV?$map@KPAUtagQUESTTEMP@@U?$less@K@std@@V?$allocator@U?$pair@$$CBKPAUtagQUESTTEMP@@@std@@@3@@4@PAV?$map@GPAUtagTITEM@@U?$less@G@std@@V?$allocator@U?$pair@$$CBGPAUtagTITEM@@@std@@@3@@4@PAV?$map@GPAVCTSkillTemp@@U?$less@G@std@@V?$allocator@U?$pair@$$CBGPAVCTSkillTemp@@@std@@@3@@4@PAV?$map@GPAUtagTMONSTER@@U?$less@G@std@@V?$allocator@U?$pair@$$CBGPAUtagTMONSTER@@@std@@@3@@4@PAV?$map@EPAUtagTSTAT@@U?$less@E@std@@V?$allocator@U?$pair@$$CBEPAUtagTSTAT@@@std@@@3@@4@@Z PROC NEAR ; CQuestTeleport::ExecQuest, COMDAT
; _this$ = ecx

; 30   : {

  00000	83 ec 10	 sub	 esp, 16			; 00000010H
  00003	55		 push	 ebp
  00004	8b e9		 mov	 ebp, ecx

; 31   : 	BYTE bLevel;
; 32   : 	if(!pPlayer->CanRunQuest( m_pQUEST, dwTick, bLevel))

  00006	8b 4c 24 1c	 mov	 ecx, DWORD PTR _dwTick$[esp+16]
  0000a	8b 55 04	 mov	 edx, DWORD PTR [ebp+4]
  0000d	8d 44 24 07	 lea	 eax, DWORD PTR _bLevel$[esp+20]
  00011	50		 push	 eax
  00012	51		 push	 ecx
  00013	8b 4c 24 20	 mov	 ecx, DWORD PTR _pPlayer$[esp+24]
  00017	52		 push	 edx
  00018	e8 00 00 00 00	 call	 ?CanRunQuest@CTPlayer@@QAEEPAUtagQUESTTEMP@@KAAE@Z ; CTPlayer::CanRunQuest
  0001d	84 c0		 test	 al, al
  0001f	0f 85 fe 00 00
	00		 jne	 $L175229
  00025	8b 55 04	 mov	 edx, DWORD PTR [ebp+4]
  00028	53		 push	 ebx
  00029	56		 push	 esi
  0002a	57		 push	 edi
  0002b	8b 7a 24	 mov	 edi, DWORD PTR [edx+36]

; 33   : 	{
; 34   : 		FLOAT fPosX = 0;
; 35   : 		FLOAT fPosY = 0;
; 36   : 		FLOAT fPosZ = 0;
; 37   : 		WORD wMapID = 0;

  0002e	33 db		 xor	 ebx, ebx
  00030	c7 44 24 1c 00
	00 00 00	 mov	 DWORD PTR _fPosX$175230[esp+32], 0
  00038	c7 44 24 18 00
	00 00 00	 mov	 DWORD PTR _fPosY$175231[esp+32], 0
  00040	c7 44 24 14 00
	00 00 00	 mov	 DWORD PTR _fPosZ$175232[esp+32], 0

; 38   : 
; 39   : 		for( int i=0; i<INT(m_pQUEST->m_vTerm.size()); i++)

  00048	33 f6		 xor	 esi, esi
  0004a	8d 9b 00 00 00
	00		 npad	 6
$L175235:
  00050	85 ff		 test	 edi, edi
  00052	75 04		 jne	 SHORT $L176299
  00054	33 c0		 xor	 eax, eax
  00056	eb 08		 jmp	 SHORT $L176300
$L176299:
  00058	8b 42 28	 mov	 eax, DWORD PTR [edx+40]
  0005b	2b c7		 sub	 eax, edi
  0005d	c1 f8 02	 sar	 eax, 2
$L176300:
  00060	3b f0		 cmp	 esi, eax
  00062	7d 69		 jge	 SHORT $L175237
  00064	8b 42 24	 mov	 eax, DWORD PTR [edx+36]

; 40   : 			switch(m_pQUEST->m_vTerm[i]->m_bTermType)

  00067	8b 0c b0	 mov	 ecx, DWORD PTR [eax+esi*4]
  0006a	0f b6 49 04	 movzx	 ecx, BYTE PTR [ecx+4]
  0006e	8d 04 b0	 lea	 eax, DWORD PTR [eax+esi*4]
  00071	83 c1 f8	 add	 ecx, -8			; fffffff8H
  00074	83 f9 06	 cmp	 ecx, 6
  00077	77 51		 ja	 SHORT $L175236
  00079	ff 24 8d 00 00
	00 00		 jmp	 DWORD PTR $L176591[ecx*4]
$L175242:

; 41   : 			{
; 42   : 			case QTT_MAPID	: wMapID = (WORD) m_pQUEST->m_vTerm[i]->m_dwTermID; break;

  00080	8b 00		 mov	 eax, DWORD PTR [eax]
  00082	66 8b 18	 mov	 bx, WORD PTR [eax]
  00085	46		 inc	 esi
  00086	eb c8		 jmp	 SHORT $L175235
$L175244:

; 43   : 			case QTT_LEFT	: fPosX = (FLOAT) m_pQUEST->m_vTerm[i]->m_dwTermID; break;

  00088	8b 08		 mov	 ecx, DWORD PTR [eax]
  0008a	8b 01		 mov	 eax, DWORD PTR [ecx]
  0008c	db 01		 fild	 DWORD PTR [ecx]
  0008e	85 c0		 test	 eax, eax
  00090	7d 06		 jge	 SHORT $L176586
  00092	d8 05 00 00 00
	00		 fadd	 DWORD PTR __real@4f800000
$L176586:
  00098	d9 5c 24 1c	 fstp	 DWORD PTR _fPosX$175230[esp+32]
  0009c	46		 inc	 esi
  0009d	eb b1		 jmp	 SHORT $L175235
$L175246:

; 44   : 			case QTT_HEIGHT	: fPosY = (FLOAT) m_pQUEST->m_vTerm[i]->m_dwTermID; break;

  0009f	8b 08		 mov	 ecx, DWORD PTR [eax]
  000a1	8b 01		 mov	 eax, DWORD PTR [ecx]
  000a3	db 01		 fild	 DWORD PTR [ecx]
  000a5	85 c0		 test	 eax, eax
  000a7	7d 06		 jge	 SHORT $L176589
  000a9	d8 05 00 00 00
	00		 fadd	 DWORD PTR __real@4f800000
$L176589:
  000af	d9 5c 24 18	 fstp	 DWORD PTR _fPosY$175231[esp+32]
  000b3	46		 inc	 esi
  000b4	eb 9a		 jmp	 SHORT $L175235
$L175248:

; 45   : 			case QTT_TOP	: fPosZ = (FLOAT) m_pQUEST->m_vTerm[i]->m_dwTermID; break;

  000b6	8b 08		 mov	 ecx, DWORD PTR [eax]
  000b8	8b 01		 mov	 eax, DWORD PTR [ecx]
  000ba	db 01		 fild	 DWORD PTR [ecx]
  000bc	85 c0		 test	 eax, eax
  000be	7d 06		 jge	 SHORT $L176590
  000c0	d8 05 00 00 00
	00		 fadd	 DWORD PTR __real@4f800000
$L176590:
  000c6	d9 5c 24 14	 fstp	 DWORD PTR _fPosZ$175232[esp+32]
$L175236:

; 38   : 
; 39   : 		for( int i=0; i<INT(m_pQUEST->m_vTerm.size()); i++)

  000ca	46		 inc	 esi
  000cb	eb 83		 jmp	 SHORT $L175235
$L175237:

; 46   : 			}
; 47   : 
; 48   : 		_AtlModule.Teleport(
; 49   : 			pPlayer,
; 50   : 			pPlayer->m_bChannel,
; 51   : 			wMapID,
; 52   : 			fPosX,
; 53   : 			fPosY,
; 54   : 			fPosZ);

  000cd	8b 4c 24 14	 mov	 ecx, DWORD PTR _fPosZ$175232[esp+32]
  000d1	8b 74 24 24	 mov	 esi, DWORD PTR _pPlayer$[esp+28]
  000d5	8b 54 24 18	 mov	 edx, DWORD PTR _fPosY$175231[esp+32]
  000d9	8b 44 24 1c	 mov	 eax, DWORD PTR _fPosX$175230[esp+32]
  000dd	51		 push	 ecx
  000de	33 c9		 xor	 ecx, ecx
  000e0	8a 8e 74 01 01
	00		 mov	 cl, BYTE PTR [esi+65908]
  000e6	52		 push	 edx
  000e7	50		 push	 eax
  000e8	53		 push	 ebx
  000e9	51		 push	 ecx
  000ea	56		 push	 esi
  000eb	b9 00 00 00 00	 mov	 ecx, OFFSET FLAT:?_AtlModule@@3VCTMapSvrModule@@A
  000f0	e8 00 00 00 00	 call	 ?Teleport@CTMapSvrModule@@QAEEPAVCTPlayer@@EGMMM@Z ; CTMapSvrModule::Teleport

; 55   : 
; 56   : 		CQuest::ExecQuest(
; 57   : 			pPlayer,
; 58   : 			dwTick,
; 59   : 			pTRIGGER,
; 60   : 			pQUESTTEMP,
; 61   : 			pITEMTEMP,
; 62   : 			pSKILLTEMP,
; 63   : 			pMONTEMP,
; 64   : 			pCLASS);

  000f5	8b 54 24 40	 mov	 edx, DWORD PTR _pCLASS$[esp+28]
  000f9	8b 44 24 3c	 mov	 eax, DWORD PTR _pMONTEMP$[esp+28]
  000fd	8b 4c 24 38	 mov	 ecx, DWORD PTR _pSKILLTEMP$[esp+28]
  00101	52		 push	 edx
  00102	8b 54 24 38	 mov	 edx, DWORD PTR _pITEMTEMP$[esp+32]
  00106	50		 push	 eax
  00107	8b 44 24 38	 mov	 eax, DWORD PTR _pQUESTTEMP$[esp+36]
  0010b	51		 push	 ecx
  0010c	8b 4c 24 38	 mov	 ecx, DWORD PTR _pTRIGGER$[esp+40]
  00110	52		 push	 edx
  00111	8b 54 24 38	 mov	 edx, DWORD PTR _dwTick$[esp+44]
  00115	50		 push	 eax
  00116	51		 push	 ecx
  00117	52		 push	 edx
  00118	56		 push	 esi
  00119	8b cd		 mov	 ecx, ebp
  0011b	e8 00 00 00 00	 call	 ?ExecQuest@CQuest@@UAEXPAVCTPlayer@@KPAV?$map@EPAV?$map@KPAV?$vector@PAUtagQUESTTEMP@@V?$allocator@PAUtagQUESTTEMP@@@std@@@std@@U?$less@K@2@V?$allocator@U?$pair@$$CBKPAV?$vector@PAUtagQUESTTEMP@@V?$allocator@PAUtagQUESTTEMP@@@std@@@std@@@std@@@2@@std@@U?$less@E@2@V?$allocator@U?$pair@$$CBEPAV?$map@KPAV?$vector@PAUtagQUESTTEMP@@V?$allocator@PAUtagQUESTTEMP@@@std@@@std@@U?$less@K@2@V?$allocator@U?$pair@$$CBKPAV?$vector@PAUtagQUESTTEMP@@V?$allocator@PAUtagQUESTTEMP@@@std@@@std@@@std@@@2@@std@@@std@@@2@@std@@PAV?$map@KPAUtagQUESTTEMP@@U?$less@K@std@@V?$allocator@U?$pair@$$CBKPAUtagQUESTTEMP@@@std@@@3@@4@PAV?$map@GPAUtagTITEM@@U?$less@G@std@@V?$allocator@U?$pair@$$CBGPAUtagTITEM@@@std@@@3@@4@PAV?$map@GPAVCTSkillTemp@@U?$less@G@std@@V?$allocator@U?$pair@$$CBGPAVCTSkillTemp@@@std@@@3@@4@PAV?$map@GPAUtagTMONSTER@@U?$less@G@std@@V?$allocator@U?$pair@$$CBGPAUtagTMONSTER@@@std@@@3@@4@PAV?$map@EPAUtagTSTAT@@U?$less@E@std@@V?$allocator@U?$pair@$$CBEPAUtagTSTAT@@@std@@@3@@4@@Z ; CQuest::ExecQuest
  00120	5f		 pop	 edi
  00121	5e		 pop	 esi
  00122	5b		 pop	 ebx
$L175229:
  00123	5d		 pop	 ebp

; 65   : 	}
; 66   : }

  00124	83 c4 10	 add	 esp, 16			; 00000010H
  00127	c2 20 00	 ret	 32			; 00000020H
  0012a	8b ff		 npad	 2
$L176591:
  0012c	00 00 00 00	 DD	 $L175242
  00130	00 00 00 00	 DD	 $L175244
  00134	00 00 00 00	 DD	 $L175248
  00138	00 00 00 00	 DD	 $L175236
  0013c	00 00 00 00	 DD	 $L175236
  00140	00 00 00 00	 DD	 $L175236
  00144	00 00 00 00	 DD	 $L175246
?ExecQuest@CQuestTeleport@@UAEXPAVCTPlayer@@KPAV?$map@EPAV?$map@KPAV?$vector@PAUtagQUESTTEMP@@V?$allocator@PAUtagQUESTTEMP@@@std@@@std@@U?$less@K@2@V?$allocator@U?$pair@$$CBKPAV?$vector@PAUtagQUESTTEMP@@V?$allocator@PAUtagQUESTTEMP@@@std@@@std@@@std@@@2@@std@@U?$less@E@2@V?$allocator@U?$pair@$$CBEPAV?$map@KPAV?$vector@PAUtagQUESTTEMP@@V?$allocator@PAUtagQUESTTEMP@@@std@@@std@@U?$less@K@2@V?$allocator@U?$pair@$$CBKPAV?$vector@PAUtagQUESTTEMP@@V?$allocator@PAUtagQUESTTEMP@@@std@@@std@@@std@@@2@@std@@@std@@@2@@std@@PAV?$map@KPAUtagQUESTTEMP@@U?$less@K@std@@V?$allocator@U?$pair@$$CBKPAUtagQUESTTEMP@@@std@@@3@@4@PAV?$map@GPAUtagTITEM@@U?$less@G@std@@V?$allocator@U?$pair@$$CBGPAUtagTITEM@@@std@@@3@@4@PAV?$map@GPAVCTSkillTemp@@U?$less@G@std@@V?$allocator@U?$pair@$$CBGPAVCTSkillTemp@@@std@@@3@@4@PAV?$map@GPAUtagTMONSTER@@U?$less@G@std@@V?$allocator@U?$pair@$$CBGPAUtagTMONSTER@@@std@@@3@@4@PAV?$map@EPAUtagTSTAT@@U?$less@E@std@@V?$allocator@U?$pair@$$CBEPAUtagTSTAT@@@std@@@3@@4@@Z ENDP ; CQuestTeleport::ExecQuest
_TEXT	ENDS
END
