; Listing generated by Microsoft (R) Optimizing Compiler Version 13.10.3077 

	TITLE	.\Quest.cpp
	.386P
include listing.inc
if @Version gt 510
.model FLAT
else
_TEXT	SEGMENT PARA USE32 PUBLIC 'CODE'
_TEXT	ENDS
_DATA	SEGMENT DWORD USE32 PUBLIC 'DATA'
_DATA	ENDS
CONST	SEGMENT DWORD USE32 PUBLIC 'CONST'
CONST	ENDS
_BSS	SEGMENT DWORD USE32 PUBLIC 'BSS'
_BSS	ENDS
$$SYMBOLS	SEGMENT BYTE USE32 'DEBSYM'
$$SYMBOLS	ENDS
$$TYPES	SEGMENT BYTE USE32 'DEBTYP'
$$TYPES	ENDS
_TLS	SEGMENT DWORD USE32 PUBLIC 'TLS'
_TLS	ENDS
text$yc	SEGMENT PARA USE32 PUBLIC 'CODE'
text$yc	ENDS
CRT$XCA	SEGMENT DWORD USE32 PUBLIC 'DATA'
CRT$XCA	ENDS
CRT$XCU	SEGMENT DWORD USE32 PUBLIC 'DATA'
CRT$XCU	ENDS
CRT$XCL	SEGMENT DWORD USE32 PUBLIC 'DATA'
CRT$XCL	ENDS
CRT$XCC	SEGMENT DWORD USE32 PUBLIC 'DATA'
CRT$XCC	ENDS
CRT$XCZ	SEGMENT DWORD USE32 PUBLIC 'DATA'
CRT$XCZ	ENDS
text$yd	SEGMENT PARA USE32 PUBLIC 'CODE'
text$yd	ENDS
ATL$__m	SEGMENT DWORD USE32 PUBLIC ''
ATL$__m	ENDS
ATL$__z	SEGMENT DWORD USE32 PUBLIC ''
ATL$__z	ENDS
ATL$__a	SEGMENT DWORD USE32 PUBLIC ''
ATL$__a	ENDS
xdata$x	SEGMENT DWORD USE32 PUBLIC 'CONST'
xdata$x	ENDS
;	COMDAT ??0CQuest@@QAE@XZ
_TEXT	SEGMENT PARA USE32 PUBLIC 'CODE'
_TEXT	ENDS
;	COMDAT ??_GCQuest@@UAEPAXI@Z
_TEXT	SEGMENT PARA USE32 PUBLIC 'CODE'
_TEXT	ENDS
;	COMDAT ??1CQuest@@UAE@XZ
_TEXT	SEGMENT PARA USE32 PUBLIC 'CODE'
_TEXT	ENDS
;	COMDAT ?CreateQuest@CQuest@@SAPAV1@PAUtagQUESTTEMP@@@Z
_TEXT	SEGMENT PARA USE32 PUBLIC 'CODE'
_TEXT	ENDS
;	COMDAT ?ExecQuest@CQuest@@UAEXPAVCTPlayer@@KPAV?$map@EPAV?$map@KPAV?$vector@PAUtagQUESTTEMP@@V?$allocator@PAUtagQUESTTEMP@@@std@@@std@@U?$less@K@2@V?$allocator@U?$pair@$$CBKPAV?$vector@PAUtagQUESTTEMP@@V?$allocator@PAUtagQUESTTEMP@@@std@@@std@@@std@@@2@@std@@U?$less@E@2@V?$allocator@U?$pair@$$CBEPAV?$map@KPAV?$vector@PAUtagQUESTTEMP@@V?$allocator@PAUtagQUESTTEMP@@@std@@@std@@U?$less@K@2@V?$allocator@U?$pair@$$CBKPAV?$vector@PAUtagQUESTTEMP@@V?$allocator@PAUtagQUESTTEMP@@@std@@@std@@@std@@@2@@std@@@std@@@2@@std@@PAV?$map@KPAUtagQUESTTEMP@@U?$less@K@std@@V?$allocator@U?$pair@$$CBKPAUtagQUESTTEMP@@@std@@@3@@4@PAV?$map@GPAUtagTITEM@@U?$less@G@std@@V?$allocator@U?$pair@$$CBGPAUtagTITEM@@@std@@@3@@4@PAV?$map@GPAVCTSkillTemp@@U?$less@G@std@@V?$allocator@U?$pair@$$CBGPAVCTSkillTemp@@@std@@@3@@4@PAV?$map@GPAUtagTMONSTER@@U?$less@G@std@@V?$allocator@U?$pair@$$CBGPAUtagTMONSTER@@@std@@@3@@4@PAV?$map@EPAUtagTSTAT@@U?$less@E@std@@V?$allocator@U?$pair@$$CBEPAUtagTSTAT@@@std@@@3@@4@@Z
_TEXT	SEGMENT PARA USE32 PUBLIC 'CODE'
_TEXT	ENDS
;	COMDAT ?CheckComplete@CQuest@@UAEPAUtagQUESTTERM@@PAVCTPlayer@@K@Z
_TEXT	SEGMENT PARA USE32 PUBLIC 'CODE'
_TEXT	ENDS
;	COMDAT ?CheckComplete@CQuest@@UAEEPAVCTPlayer@@KPAUtagQUESTTERM@@@Z
_TEXT	SEGMENT PARA USE32 PUBLIC 'CODE'
_TEXT	ENDS
;	COMDAT ?FindRunningTerm@CQuest@@QAEPAUtagQUESTTERM@@KE@Z
_TEXT	SEGMENT PARA USE32 PUBLIC 'CODE'
_TEXT	ENDS
;	COMDAT ?FindTerm@CQuest@@QAEPAUtagQUESTTERM@@KE@Z
_TEXT	SEGMENT PARA USE32 PUBLIC 'CODE'
_TEXT	ENDS
;	COMDAT ??A?$vector@PAUtagQUESTTERM@@V?$allocator@PAUtagQUESTTERM@@@std@@@std@@QAEAAPAUtagQUESTTERM@@I@Z
_TEXT	SEGMENT PARA USE32 PUBLIC 'CODE'
_TEXT	ENDS
;	COMDAT ?push_back@?$vector@PAUtagQUESTTERM@@V?$allocator@PAUtagQUESTTERM@@@std@@@std@@QAEXABQAUtagQUESTTERM@@@Z
_TEXT	SEGMENT PARA USE32 PUBLIC 'CODE'
_TEXT	ENDS
;	COMDAT ?begin@?$_Tree@V?$_Tmap_traits@EPAVCTInven@@U?$less@E@std@@V?$allocator@U?$pair@$$CBEPAVCTInven@@@std@@@3@$0A@@std@@@std@@QAE?AViterator@12@XZ
_TEXT	SEGMENT PARA USE32 PUBLIC 'CODE'
_TEXT	ENDS
;	COMDAT ?end@?$_Tree@V?$_Tmap_traits@EPAVCTInven@@U?$less@E@std@@V?$allocator@U?$pair@$$CBEPAVCTInven@@@std@@@3@$0A@@std@@@std@@QAE?AViterator@12@XZ
_TEXT	SEGMENT PARA USE32 PUBLIC 'CODE'
_TEXT	ENDS
;	COMDAT ?begin@?$_Tree@V?$_Tmap_traits@EPAVCTItem@@U?$less@E@std@@V?$allocator@U?$pair@$$CBEPAVCTItem@@@std@@@3@$0A@@std@@@std@@QAE?AViterator@12@XZ
_TEXT	SEGMENT PARA USE32 PUBLIC 'CODE'
_TEXT	ENDS
;	COMDAT ?end@?$_Tree@V?$_Tmap_traits@EPAVCTItem@@U?$less@E@std@@V?$allocator@U?$pair@$$CBEPAVCTItem@@@std@@@3@$0A@@std@@@std@@QAE?AViterator@12@XZ
_TEXT	SEGMENT PARA USE32 PUBLIC 'CODE'
_TEXT	ENDS
;	COMDAT ?end@?$_Tree@V?$_Tmap_traits@EPAV?$map@KPAV?$vector@PAUtagQUESTTEMP@@V?$allocator@PAUtagQUESTTEMP@@@std@@@std@@U?$less@K@2@V?$allocator@U?$pair@$$CBKPAV?$vector@PAUtagQUESTTEMP@@V?$allocator@PAUtagQUESTTEMP@@@std@@@std@@@std@@@2@@std@@U?$less@E@2@V?$allocator@U?$pair@$$CBEPAV?$map@KPAV?$vector@PAUtagQUESTTEMP@@V?$allocator@PAUtagQUESTTEMP@@@std@@@std@@U?$less@K@2@V?$allocator@U?$pair@$$CBKPAV?$vector@PAUtagQUESTTEMP@@V?$allocator@PAUtagQUESTTEMP@@@std@@@std@@@std@@@2@@std@@@std@@@2@$0A@@std@@@std@@QAE?AViterator@12@XZ
_TEXT	SEGMENT PARA USE32 PUBLIC 'CODE'
_TEXT	ENDS
;	COMDAT ?find@?$_Tree@V?$_Tmap_traits@EPAV?$map@KPAV?$vector@PAUtagQUESTTEMP@@V?$allocator@PAUtagQUESTTEMP@@@std@@@std@@U?$less@K@2@V?$allocator@U?$pair@$$CBKPAV?$vector@PAUtagQUESTTEMP@@V?$allocator@PAUtagQUESTTEMP@@@std@@@std@@@std@@@2@@std@@U?$less@E@2@V?$allocator@U?$pair@$$CBEPAV?$map@KPAV?$vector@PAUtagQUESTTEMP@@V?$allocator@PAUtagQUESTTEMP@@@std@@@std@@U?$less@K@2@V?$allocator@U?$pair@$$CBKPAV?$vector@PAUtagQUESTTEMP@@V?$allocator@PAUtagQUESTTEMP@@@std@@@std@@@std@@@2@@std@@@std@@@2@$0A@@std@@@std@@QAE?AViterator@12@ABE@Z
_TEXT	SEGMENT PARA USE32 PUBLIC 'CODE'
_TEXT	ENDS
;	COMDAT ??Diterator@?$_Tree@V?$_Tmap_traits@EPAV?$map@KPAV?$vector@PAUtagQUESTTEMP@@V?$allocator@PAUtagQUESTTEMP@@@std@@@std@@U?$less@K@2@V?$allocator@U?$pair@$$CBKPAV?$vector@PAUtagQUESTTEMP@@V?$allocator@PAUtagQUESTTEMP@@@std@@@std@@@std@@@2@@std@@U?$less@E@2@V?$allocator@U?$pair@$$CBEPAV?$map@KPAV?$vector@PAUtagQUESTTEMP@@V?$allocator@PAUtagQUESTTEMP@@@std@@@std@@U?$less@K@2@V?$allocator@U?$pair@$$CBKPAV?$vector@PAUtagQUESTTEMP@@V?$allocator@PAUtagQUESTTEMP@@@std@@@std@@@std@@@2@@std@@@std@@@2@$0A@@std@@@std@@QBEAAU?$pair@$$CBEPAV?$map@KPAV?$vector@PAUtagQUESTTEMP@@V?$allocator@PAUtagQUESTTEMP@@@std@@@std@@U?$less@K@2@V?$allocator@U?$pair@$$CBKPAV?$vector@PAUtagQUESTTEMP@@V?$allocator@PAUtagQUESTTEMP@@@std@@@std@@@std@@@2@@std@@@2@XZ
_TEXT	SEGMENT PARA USE32 PUBLIC 'CODE'
_TEXT	ENDS
;	COMDAT ??9const_iterator@?$_Tree@V?$_Tmap_traits@EPAV?$map@KPAV?$vector@PAUtagQUESTTEMP@@V?$allocator@PAUtagQUESTTEMP@@@std@@@std@@U?$less@K@2@V?$allocator@U?$pair@$$CBKPAV?$vector@PAUtagQUESTTEMP@@V?$allocator@PAUtagQUESTTEMP@@@std@@@std@@@std@@@2@@std@@U?$less@E@2@V?$allocator@U?$pair@$$CBEPAV?$map@KPAV?$vector@PAUtagQUESTTEMP@@V?$allocator@PAUtagQUESTTEMP@@@std@@@std@@U?$less@K@2@V?$allocator@U?$pair@$$CBKPAV?$vector@PAUtagQUESTTEMP@@V?$allocator@PAUtagQUESTTEMP@@@std@@@std@@@std@@@2@@std@@@std@@@2@$0A@@std@@@std@@QBE_NABV012@@Z
_TEXT	SEGMENT PARA USE32 PUBLIC 'CODE'
_TEXT	ENDS
;	COMDAT ?end@?$_Tree@V?$_Tmap_traits@KPAV?$vector@PAUtagQUESTTEMP@@V?$allocator@PAUtagQUESTTEMP@@@std@@@std@@U?$less@K@2@V?$allocator@U?$pair@$$CBKPAV?$vector@PAUtagQUESTTEMP@@V?$allocator@PAUtagQUESTTEMP@@@std@@@std@@@std@@@2@$0A@@std@@@std@@QAE?AViterator@12@XZ
_TEXT	SEGMENT PARA USE32 PUBLIC 'CODE'
_TEXT	ENDS
;	COMDAT ?find@?$_Tree@V?$_Tmap_traits@KPAV?$vector@PAUtagQUESTTEMP@@V?$allocator@PAUtagQUESTTEMP@@@std@@@std@@U?$less@K@2@V?$allocator@U?$pair@$$CBKPAV?$vector@PAUtagQUESTTEMP@@V?$allocator@PAUtagQUESTTEMP@@@std@@@std@@@std@@@2@$0A@@std@@@std@@QAE?AViterator@12@ABK@Z
_TEXT	SEGMENT PARA USE32 PUBLIC 'CODE'
_TEXT	ENDS
;	COMDAT ??Diterator@?$_Tree@V?$_Tmap_traits@KPAV?$vector@PAUtagQUESTTEMP@@V?$allocator@PAUtagQUESTTEMP@@@std@@@std@@U?$less@K@2@V?$allocator@U?$pair@$$CBKPAV?$vector@PAUtagQUESTTEMP@@V?$allocator@PAUtagQUESTTEMP@@@std@@@std@@@std@@@2@$0A@@std@@@std@@QBEAAU?$pair@$$CBKPAV?$vector@PAUtagQUESTTEMP@@V?$allocator@PAUtagQUESTTEMP@@@std@@@std@@@2@XZ
_TEXT	SEGMENT PARA USE32 PUBLIC 'CODE'
_TEXT	ENDS
;	COMDAT ??9const_iterator@?$_Tree@V?$_Tmap_traits@KPAV?$vector@PAUtagQUESTTEMP@@V?$allocator@PAUtagQUESTTEMP@@@std@@@std@@U?$less@K@2@V?$allocator@U?$pair@$$CBKPAV?$vector@PAUtagQUESTTEMP@@V?$allocator@PAUtagQUESTTEMP@@@std@@@std@@@std@@@2@$0A@@std@@@std@@QBE_NABV012@@Z
_TEXT	SEGMENT PARA USE32 PUBLIC 'CODE'
_TEXT	ENDS
;	COMDAT ?size@?$vector@PAUtagQUESTTEMP@@V?$allocator@PAUtagQUESTTEMP@@@std@@@std@@QBEIXZ
_TEXT	SEGMENT PARA USE32 PUBLIC 'CODE'
_TEXT	ENDS
;	COMDAT ??A?$vector@PAUtagQUESTTEMP@@V?$allocator@PAUtagQUESTTEMP@@@std@@@std@@QAEAAPAUtagQUESTTEMP@@I@Z
_TEXT	SEGMENT PARA USE32 PUBLIC 'CODE'
_TEXT	ENDS
;	COMDAT ??0iterator@?$_Tree@V?$_Tmap_traits@EPAVCTInven@@U?$less@E@std@@V?$allocator@U?$pair@$$CBEPAVCTInven@@@std@@@3@$0A@@std@@@std@@QAE@XZ
_TEXT	SEGMENT PARA USE32 PUBLIC 'CODE'
_TEXT	ENDS
;	COMDAT ??Diterator@?$_Tree@V?$_Tmap_traits@EPAVCTInven@@U?$less@E@std@@V?$allocator@U?$pair@$$CBEPAVCTInven@@@std@@@3@$0A@@std@@@std@@QBEAAU?$pair@$$CBEPAVCTInven@@@2@XZ
_TEXT	SEGMENT PARA USE32 PUBLIC 'CODE'
_TEXT	ENDS
;	COMDAT ??Eiterator@?$_Tree@V?$_Tmap_traits@EPAVCTInven@@U?$less@E@std@@V?$allocator@U?$pair@$$CBEPAVCTInven@@@std@@@3@$0A@@std@@@std@@QAE?AV012@H@Z
_TEXT	SEGMENT PARA USE32 PUBLIC 'CODE'
_TEXT	ENDS
;	COMDAT ??9const_iterator@?$_Tree@V?$_Tmap_traits@EPAVCTInven@@U?$less@E@std@@V?$allocator@U?$pair@$$CBEPAVCTInven@@@std@@@3@$0A@@std@@@std@@QBE_NABV012@@Z
_TEXT	SEGMENT PARA USE32 PUBLIC 'CODE'
_TEXT	ENDS
;	COMDAT ??0iterator@?$_Tree@V?$_Tmap_traits@EPAVCTItem@@U?$less@E@std@@V?$allocator@U?$pair@$$CBEPAVCTItem@@@std@@@3@$0A@@std@@@std@@QAE@XZ
_TEXT	SEGMENT PARA USE32 PUBLIC 'CODE'
_TEXT	ENDS
;	COMDAT ??Diterator@?$_Tree@V?$_Tmap_traits@EPAVCTItem@@U?$less@E@std@@V?$allocator@U?$pair@$$CBEPAVCTItem@@@std@@@3@$0A@@std@@@std@@QBEAAU?$pair@$$CBEPAVCTItem@@@2@XZ
_TEXT	SEGMENT PARA USE32 PUBLIC 'CODE'
_TEXT	ENDS
;	COMDAT ??Eiterator@?$_Tree@V?$_Tmap_traits@EPAVCTItem@@U?$less@E@std@@V?$allocator@U?$pair@$$CBEPAVCTItem@@@std@@@3@$0A@@std@@@std@@QAE?AV012@H@Z
_TEXT	SEGMENT PARA USE32 PUBLIC 'CODE'
_TEXT	ENDS
;	COMDAT ??9const_iterator@?$_Tree@V?$_Tmap_traits@EPAVCTItem@@U?$less@E@std@@V?$allocator@U?$pair@$$CBEPAVCTItem@@@std@@@3@$0A@@std@@@std@@QBE_NABV012@@Z
_TEXT	SEGMENT PARA USE32 PUBLIC 'CODE'
_TEXT	ENDS
;	COMDAT ??R?$less@K@std@@QBE_NABK0@Z
_TEXT	SEGMENT PARA USE32 PUBLIC 'CODE'
_TEXT	ENDS
;	COMDAT ?capacity@?$vector@PAUtagQUESTTERM@@V?$allocator@PAUtagQUESTTERM@@@std@@@std@@QBEIXZ
_TEXT	SEGMENT PARA USE32 PUBLIC 'CODE'
_TEXT	ENDS
;	COMDAT ?begin@?$vector@PAUtagQUESTTERM@@V?$allocator@PAUtagQUESTTERM@@@std@@@std@@QAE?AViterator@12@XZ
_TEXT	SEGMENT PARA USE32 PUBLIC 'CODE'
_TEXT	ENDS
;	COMDAT ?insert@?$vector@PAUtagQUESTTERM@@V?$allocator@PAUtagQUESTTERM@@@std@@@std@@QAE?AViterator@12@V312@ABQAUtagQUESTTERM@@@Z
_TEXT	SEGMENT PARA USE32 PUBLIC 'CODE'
_TEXT	ENDS
;	COMDAT ?_Ufill@?$vector@PAUtagQUESTTERM@@V?$allocator@PAUtagQUESTTERM@@@std@@@std@@IAEPAPAUtagQUESTTERM@@PAPAU3@IABQAU3@@Z
_TEXT	SEGMENT PARA USE32 PUBLIC 'CODE'
_TEXT	ENDS
;	COMDAT ??R?$less@E@std@@QBE_NABE0@Z
_TEXT	SEGMENT PARA USE32 PUBLIC 'CODE'
_TEXT	ENDS
;	COMDAT ?_Lmost@?$_Tree@V?$_Tmap_traits@EPAVCTInven@@U?$less@E@std@@V?$allocator@U?$pair@$$CBEPAVCTInven@@@std@@@3@$0A@@std@@@std@@IAEAAPAU_Node@?$_Tree_nod@V?$_Tmap_traits@EPAVCTInven@@U?$less@E@std@@V?$allocator@U?$pair@$$CBEPAVCTInven@@@std@@@3@$0A@@std@@@2@XZ
_TEXT	SEGMENT PARA USE32 PUBLIC 'CODE'
_TEXT	ENDS
;	COMDAT ?_Lmost@?$_Tree@V?$_Tmap_traits@EPAVCTItem@@U?$less@E@std@@V?$allocator@U?$pair@$$CBEPAVCTItem@@@std@@@3@$0A@@std@@@std@@IAEAAPAU_Node@?$_Tree_nod@V?$_Tmap_traits@EPAVCTItem@@U?$less@E@std@@V?$allocator@U?$pair@$$CBEPAVCTItem@@@std@@@3@$0A@@std@@@2@XZ
_TEXT	SEGMENT PARA USE32 PUBLIC 'CODE'
_TEXT	ENDS
;	COMDAT ??Hiterator@?$vector@PAUtagQUESTTERM@@V?$allocator@PAUtagQUESTTERM@@@std@@@std@@QBE?AV012@H@Z
_TEXT	SEGMENT PARA USE32 PUBLIC 'CODE'
_TEXT	ENDS
;	COMDAT ?_Key@?$_Tree@V?$_Tmap_traits@EPAV?$map@KPAV?$vector@PAUtagQUESTTEMP@@V?$allocator@PAUtagQUESTTEMP@@@std@@@std@@U?$less@K@2@V?$allocator@U?$pair@$$CBKPAV?$vector@PAUtagQUESTTEMP@@V?$allocator@PAUtagQUESTTEMP@@@std@@@std@@@std@@@2@@std@@U?$less@E@2@V?$allocator@U?$pair@$$CBEPAV?$map@KPAV?$vector@PAUtagQUESTTEMP@@V?$allocator@PAUtagQUESTTEMP@@@std@@@std@@U?$less@K@2@V?$allocator@U?$pair@$$CBKPAV?$vector@PAUtagQUESTTEMP@@V?$allocator@PAUtagQUESTTEMP@@@std@@@std@@@std@@@2@@std@@@std@@@2@$0A@@std@@@std@@KAABEPAU_Node@?$_Tree_nod@V?$_Tmap_traits@EPAV?$map@KPAV?$vector@PAUtagQUESTTEMP@@V?$allocator@PAUtagQUESTTEMP@@@std@@@std@@U?$less@K@2@V?$allocator@U?$pair@$$CBKPAV?$vector@PAUtagQUESTTEMP@@V?$allocator@PAUtagQUESTTEMP@@@std@@@std@@@std@@@2@@std@@U?$less@E@2@V?$allocator@U?$pair@$$CBEPAV?$map@KPAV?$vector@PAUtagQUESTTEMP@@V?$allocator@PAUtagQUESTTEMP@@@std@@@std@@U?$less@K@2@V?$allocator@U?$pair@$$CBKPAV?$vector@PAUtagQUESTTEMP@@V?$allocator@PAUtagQUESTTEMP@@@std@@@std@@@std@@@2@@std@@@std@@@2@$0A@@std@@@2@@Z
_TEXT	SEGMENT PARA USE32 PUBLIC 'CODE'
_TEXT	ENDS
;	COMDAT ?lower_bound@?$_Tree@V?$_Tmap_traits@EPAV?$map@KPAV?$vector@PAUtagQUESTTEMP@@V?$allocator@PAUtagQUESTTEMP@@@std@@@std@@U?$less@K@2@V?$allocator@U?$pair@$$CBKPAV?$vector@PAUtagQUESTTEMP@@V?$allocator@PAUtagQUESTTEMP@@@std@@@std@@@std@@@2@@std@@U?$less@E@2@V?$allocator@U?$pair@$$CBEPAV?$map@KPAV?$vector@PAUtagQUESTTEMP@@V?$allocator@PAUtagQUESTTEMP@@@std@@@std@@U?$less@K@2@V?$allocator@U?$pair@$$CBKPAV?$vector@PAUtagQUESTTEMP@@V?$allocator@PAUtagQUESTTEMP@@@std@@@std@@@std@@@2@@std@@@std@@@2@$0A@@std@@@std@@QAE?AViterator@12@ABE@Z
_TEXT	SEGMENT PARA USE32 PUBLIC 'CODE'
_TEXT	ENDS
;	COMDAT ??0iterator@?$_Tree@V?$_Tmap_traits@EPAV?$map@KPAV?$vector@PAUtagQUESTTEMP@@V?$allocator@PAUtagQUESTTEMP@@@std@@@std@@U?$less@K@2@V?$allocator@U?$pair@$$CBKPAV?$vector@PAUtagQUESTTEMP@@V?$allocator@PAUtagQUESTTEMP@@@std@@@std@@@std@@@2@@std@@U?$less@E@2@V?$allocator@U?$pair@$$CBEPAV?$map@KPAV?$vector@PAUtagQUESTTEMP@@V?$allocator@PAUtagQUESTTEMP@@@std@@@std@@U?$less@K@2@V?$allocator@U?$pair@$$CBKPAV?$vector@PAUtagQUESTTEMP@@V?$allocator@PAUtagQUESTTEMP@@@std@@@std@@@std@@@2@@std@@@std@@@2@$0A@@std@@@std@@QAE@PAU_Node@?$_Tree_nod@V?$_Tmap_traits@EPAV?$map@KPAV?$vector@PAUtagQUESTTEMP@@V?$allocator@PAUtagQUESTTEMP@@@std@@@std@@U?$less@K@2@V?$allocator@U?$pair@$$CBKPAV?$vector@PAUtagQUESTTEMP@@V?$allocator@PAUtagQUESTTEMP@@@std@@@std@@@std@@@2@@std@@U?$less@E@2@V?$allocator@U?$pair@$$CBEPAV?$map@KPAV?$vector@PAUtagQUESTTEMP@@V?$allocator@PAUtagQUESTTEMP@@@std@@@std@@U?$less@K@2@V?$allocator@U?$pair@$$CBKPAV?$vector@PAUtagQUESTTEMP@@V?$allocator@PAUtagQUESTTEMP@@@std@@@std@@@std@@@2@@std@@@std@@@2@$0A@@std@@@2@@Z
_TEXT	SEGMENT PARA USE32 PUBLIC 'CODE'
_TEXT	ENDS
;	COMDAT ??Dconst_iterator@?$_Tree@V?$_Tmap_traits@EPAV?$map@KPAV?$vector@PAUtagQUESTTEMP@@V?$allocator@PAUtagQUESTTEMP@@@std@@@std@@U?$less@K@2@V?$allocator@U?$pair@$$CBKPAV?$vector@PAUtagQUESTTEMP@@V?$allocator@PAUtagQUESTTEMP@@@std@@@std@@@std@@@2@@std@@U?$less@E@2@V?$allocator@U?$pair@$$CBEPAV?$map@KPAV?$vector@PAUtagQUESTTEMP@@V?$allocator@PAUtagQUESTTEMP@@@std@@@std@@U?$less@K@2@V?$allocator@U?$pair@$$CBKPAV?$vector@PAUtagQUESTTEMP@@V?$allocator@PAUtagQUESTTEMP@@@std@@@std@@@std@@@2@@std@@@std@@@2@$0A@@std@@@std@@QBEABU?$pair@$$CBEPAV?$map@KPAV?$vector@PAUtagQUESTTEMP@@V?$allocator@PAUtagQUESTTEMP@@@std@@@std@@U?$less@K@2@V?$allocator@U?$pair@$$CBKPAV?$vector@PAUtagQUESTTEMP@@V?$allocator@PAUtagQUESTTEMP@@@std@@@std@@@std@@@2@@std@@@2@XZ
_TEXT	SEGMENT PARA USE32 PUBLIC 'CODE'
_TEXT	ENDS
;	COMDAT ??8const_iterator@?$_Tree@V?$_Tmap_traits@EPAV?$map@KPAV?$vector@PAUtagQUESTTEMP@@V?$allocator@PAUtagQUESTTEMP@@@std@@@std@@U?$less@K@2@V?$allocator@U?$pair@$$CBKPAV?$vector@PAUtagQUESTTEMP@@V?$allocator@PAUtagQUESTTEMP@@@std@@@std@@@std@@@2@@std@@U?$less@E@2@V?$allocator@U?$pair@$$CBEPAV?$map@KPAV?$vector@PAUtagQUESTTEMP@@V?$allocator@PAUtagQUESTTEMP@@@std@@@std@@U?$less@K@2@V?$allocator@U?$pair@$$CBKPAV?$vector@PAUtagQUESTTEMP@@V?$allocator@PAUtagQUESTTEMP@@@std@@@std@@@std@@@2@@std@@@std@@@2@$0A@@std@@@std@@QBE_NABV012@@Z
_TEXT	SEGMENT PARA USE32 PUBLIC 'CODE'
_TEXT	ENDS
;	COMDAT ?_Mynode@const_iterator@?$_Tree@V?$_Tmap_traits@EPAV?$map@KPAV?$vector@PAUtagQUESTTEMP@@V?$allocator@PAUtagQUESTTEMP@@@std@@@std@@U?$less@K@2@V?$allocator@U?$pair@$$CBKPAV?$vector@PAUtagQUESTTEMP@@V?$allocator@PAUtagQUESTTEMP@@@std@@@std@@@std@@@2@@std@@U?$less@E@2@V?$allocator@U?$pair@$$CBEPAV?$map@KPAV?$vector@PAUtagQUESTTEMP@@V?$allocator@PAUtagQUESTTEMP@@@std@@@std@@U?$less@K@2@V?$allocator@U?$pair@$$CBKPAV?$vector@PAUtagQUESTTEMP@@V?$allocator@PAUtagQUESTTEMP@@@std@@@std@@@std@@@2@@std@@@std@@@2@$0A@@std@@@std@@QBEPAU_Node@?$_Tree_nod@V?$_Tmap_traits@EPAV?$map@KPAV?$vector@PAUtagQUESTTEMP@@V?$allocator@PAUtagQUESTTEMP@@@std@@@std@@U?$less@K@2@V?$allocator@U?$pair@$$CBKPAV?$vector@PAUtagQUESTTEMP@@V?$allocator@PAUtagQUESTTEMP@@@std@@@std@@@std@@@2@@std@@U?$less@E@2@V?$allocator@U?$pair@$$CBEPAV?$map@KPAV?$vector@PAUtagQUESTTEMP@@V?$allocator@PAUtagQUESTTEMP@@@std@@@std@@U?$less@K@2@V?$allocator@U?$pair@$$CBKPAV?$vector@PAUtagQUESTTEMP@@V?$allocator@PAUtagQUESTTEMP@@@std@@@std@@@std@@@2@@std@@@std@@@2@$0A@@std@@@3@XZ
_TEXT	SEGMENT PARA USE32 PUBLIC 'CODE'
_TEXT	ENDS
;	COMDAT ?_Key@?$_Tree@V?$_Tmap_traits@KPAV?$vector@PAUtagQUESTTEMP@@V?$allocator@PAUtagQUESTTEMP@@@std@@@std@@U?$less@K@2@V?$allocator@U?$pair@$$CBKPAV?$vector@PAUtagQUESTTEMP@@V?$allocator@PAUtagQUESTTEMP@@@std@@@std@@@std@@@2@$0A@@std@@@std@@KAABKPAU_Node@?$_Tree_nod@V?$_Tmap_traits@KPAV?$vector@PAUtagQUESTTEMP@@V?$allocator@PAUtagQUESTTEMP@@@std@@@std@@U?$less@K@2@V?$allocator@U?$pair@$$CBKPAV?$vector@PAUtagQUESTTEMP@@V?$allocator@PAUtagQUESTTEMP@@@std@@@std@@@std@@@2@$0A@@std@@@2@@Z
_TEXT	SEGMENT PARA USE32 PUBLIC 'CODE'
_TEXT	ENDS
;	COMDAT ?lower_bound@?$_Tree@V?$_Tmap_traits@KPAV?$vector@PAUtagQUESTTEMP@@V?$allocator@PAUtagQUESTTEMP@@@std@@@std@@U?$less@K@2@V?$allocator@U?$pair@$$CBKPAV?$vector@PAUtagQUESTTEMP@@V?$allocator@PAUtagQUESTTEMP@@@std@@@std@@@std@@@2@$0A@@std@@@std@@QAE?AViterator@12@ABK@Z
_TEXT	SEGMENT PARA USE32 PUBLIC 'CODE'
_TEXT	ENDS
;	COMDAT ??0iterator@?$_Tree@V?$_Tmap_traits@KPAV?$vector@PAUtagQUESTTEMP@@V?$allocator@PAUtagQUESTTEMP@@@std@@@std@@U?$less@K@2@V?$allocator@U?$pair@$$CBKPAV?$vector@PAUtagQUESTTEMP@@V?$allocator@PAUtagQUESTTEMP@@@std@@@std@@@std@@@2@$0A@@std@@@std@@QAE@PAU_Node@?$_Tree_nod@V?$_Tmap_traits@KPAV?$vector@PAUtagQUESTTEMP@@V?$allocator@PAUtagQUESTTEMP@@@std@@@std@@U?$less@K@2@V?$allocator@U?$pair@$$CBKPAV?$vector@PAUtagQUESTTEMP@@V?$allocator@PAUtagQUESTTEMP@@@std@@@std@@@std@@@2@$0A@@std@@@2@@Z
_TEXT	SEGMENT PARA USE32 PUBLIC 'CODE'
_TEXT	ENDS
;	COMDAT ??Dconst_iterator@?$_Tree@V?$_Tmap_traits@KPAV?$vector@PAUtagQUESTTEMP@@V?$allocator@PAUtagQUESTTEMP@@@std@@@std@@U?$less@K@2@V?$allocator@U?$pair@$$CBKPAV?$vector@PAUtagQUESTTEMP@@V?$allocator@PAUtagQUESTTEMP@@@std@@@std@@@std@@@2@$0A@@std@@@std@@QBEABU?$pair@$$CBKPAV?$vector@PAUtagQUESTTEMP@@V?$allocator@PAUtagQUESTTEMP@@@std@@@std@@@2@XZ
_TEXT	SEGMENT PARA USE32 PUBLIC 'CODE'
_TEXT	ENDS
;	COMDAT ??8const_iterator@?$_Tree@V?$_Tmap_traits@KPAV?$vector@PAUtagQUESTTEMP@@V?$allocator@PAUtagQUESTTEMP@@@std@@@std@@U?$less@K@2@V?$allocator@U?$pair@$$CBKPAV?$vector@PAUtagQUESTTEMP@@V?$allocator@PAUtagQUESTTEMP@@@std@@@std@@@std@@@2@$0A@@std@@@std@@QBE_NABV012@@Z
_TEXT	SEGMENT PARA USE32 PUBLIC 'CODE'
_TEXT	ENDS
;	COMDAT ?_Mynode@const_iterator@?$_Tree@V?$_Tmap_traits@KPAV?$vector@PAUtagQUESTTEMP@@V?$allocator@PAUtagQUESTTEMP@@@std@@@std@@U?$less@K@2@V?$allocator@U?$pair@$$CBKPAV?$vector@PAUtagQUESTTEMP@@V?$allocator@PAUtagQUESTTEMP@@@std@@@std@@@std@@@2@$0A@@std@@@std@@QBEPAU_Node@?$_Tree_nod@V?$_Tmap_traits@KPAV?$vector@PAUtagQUESTTEMP@@V?$allocator@PAUtagQUESTTEMP@@@std@@@std@@U?$less@K@2@V?$allocator@U?$pair@$$CBKPAV?$vector@PAUtagQUESTTEMP@@V?$allocator@PAUtagQUESTTEMP@@@std@@@std@@@std@@@2@$0A@@std@@@3@XZ
_TEXT	SEGMENT PARA USE32 PUBLIC 'CODE'
_TEXT	ENDS
;	COMDAT ?begin@?$vector@PAUtagQUESTTEMP@@V?$allocator@PAUtagQUESTTEMP@@@std@@@std@@QAE?AViterator@12@XZ
_TEXT	SEGMENT PARA USE32 PUBLIC 'CODE'
_TEXT	ENDS
;	COMDAT ??0iterator@?$_Tree@V?$_Tmap_traits@EPAVCTInven@@U?$less@E@std@@V?$allocator@U?$pair@$$CBEPAVCTInven@@@std@@@3@$0A@@std@@@std@@QAE@PAU_Node@?$_Tree_nod@V?$_Tmap_traits@EPAVCTInven@@U?$less@E@std@@V?$allocator@U?$pair@$$CBEPAVCTInven@@@std@@@3@$0A@@std@@@2@@Z
_TEXT	SEGMENT PARA USE32 PUBLIC 'CODE'
_TEXT	ENDS
;	COMDAT ??Eiterator@?$_Tree@V?$_Tmap_traits@EPAVCTInven@@U?$less@E@std@@V?$allocator@U?$pair@$$CBEPAVCTInven@@@std@@@3@$0A@@std@@@std@@QAEAAV012@XZ
_TEXT	SEGMENT PARA USE32 PUBLIC 'CODE'
_TEXT	ENDS
;	COMDAT ??0const_iterator@?$_Tree@V?$_Tmap_traits@EPAVCTInven@@U?$less@E@std@@V?$allocator@U?$pair@$$CBEPAVCTInven@@@std@@@3@$0A@@std@@@std@@QAE@XZ
_TEXT	SEGMENT PARA USE32 PUBLIC 'CODE'
_TEXT	ENDS
;	COMDAT ??Dconst_iterator@?$_Tree@V?$_Tmap_traits@EPAVCTInven@@U?$less@E@std@@V?$allocator@U?$pair@$$CBEPAVCTInven@@@std@@@3@$0A@@std@@@std@@QBEABU?$pair@$$CBEPAVCTInven@@@2@XZ
_TEXT	SEGMENT PARA USE32 PUBLIC 'CODE'
_TEXT	ENDS
;	COMDAT ??8const_iterator@?$_Tree@V?$_Tmap_traits@EPAVCTInven@@U?$less@E@std@@V?$allocator@U?$pair@$$CBEPAVCTInven@@@std@@@3@$0A@@std@@@std@@QBE_NABV012@@Z
_TEXT	SEGMENT PARA USE32 PUBLIC 'CODE'
_TEXT	ENDS
;	COMDAT ??0iterator@?$_Tree@V?$_Tmap_traits@EPAVCTItem@@U?$less@E@std@@V?$allocator@U?$pair@$$CBEPAVCTItem@@@std@@@3@$0A@@std@@@std@@QAE@PAU_Node@?$_Tree_nod@V?$_Tmap_traits@EPAVCTItem@@U?$less@E@std@@V?$allocator@U?$pair@$$CBEPAVCTItem@@@std@@@3@$0A@@std@@@2@@Z
_TEXT	SEGMENT PARA USE32 PUBLIC 'CODE'
_TEXT	ENDS
;	COMDAT ??Eiterator@?$_Tree@V?$_Tmap_traits@EPAVCTItem@@U?$less@E@std@@V?$allocator@U?$pair@$$CBEPAVCTItem@@@std@@@3@$0A@@std@@@std@@QAEAAV012@XZ
_TEXT	SEGMENT PARA USE32 PUBLIC 'CODE'
_TEXT	ENDS
;	COMDAT ??0const_iterator@?$_Tree@V?$_Tmap_traits@EPAVCTItem@@U?$less@E@std@@V?$allocator@U?$pair@$$CBEPAVCTItem@@@std@@@3@$0A@@std@@@std@@QAE@XZ
_TEXT	SEGMENT PARA USE32 PUBLIC 'CODE'
_TEXT	ENDS
;	COMDAT ??Dconst_iterator@?$_Tree@V?$_Tmap_traits@EPAVCTItem@@U?$less@E@std@@V?$allocator@U?$pair@$$CBEPAVCTItem@@@std@@@3@$0A@@std@@@std@@QBEABU?$pair@$$CBEPAVCTItem@@@2@XZ
_TEXT	SEGMENT PARA USE32 PUBLIC 'CODE'
_TEXT	ENDS
;	COMDAT ??8const_iterator@?$_Tree@V?$_Tmap_traits@EPAVCTItem@@U?$less@E@std@@V?$allocator@U?$pair@$$CBEPAVCTItem@@@std@@@3@$0A@@std@@@std@@QBE_NABV012@@Z
_TEXT	SEGMENT PARA USE32 PUBLIC 'CODE'
_TEXT	ENDS
;	COMDAT ??Diterator@?$vector@PAUtagQUESTTEMP@@V?$allocator@PAUtagQUESTTEMP@@@std@@@std@@QBEAAPAUtagQUESTTEMP@@XZ
_TEXT	SEGMENT PARA USE32 PUBLIC 'CODE'
_TEXT	ENDS
;	COMDAT ??Hiterator@?$vector@PAUtagQUESTTEMP@@V?$allocator@PAUtagQUESTTEMP@@@std@@@std@@QBE?AV012@H@Z
_TEXT	SEGMENT PARA USE32 PUBLIC 'CODE'
_TEXT	ENDS
;	COMDAT ?_Insert_n@?$vector@PAUtagQUESTTERM@@V?$allocator@PAUtagQUESTTERM@@@std@@@std@@IAEXViterator@12@IABQAUtagQUESTTERM@@@Z
_TEXT	SEGMENT PARA USE32 PUBLIC 'CODE'
_TEXT	ENDS
;	COMDAT ?_Left@?$_Tree@V?$_Tmap_traits@EPAVCTInven@@U?$less@E@std@@V?$allocator@U?$pair@$$CBEPAVCTInven@@@std@@@3@$0A@@std@@@std@@KAAAPAU_Node@?$_Tree_nod@V?$_Tmap_traits@EPAVCTInven@@U?$less@E@std@@V?$allocator@U?$pair@$$CBEPAVCTInven@@@std@@@3@$0A@@std@@@2@PAU342@@Z
_TEXT	SEGMENT PARA USE32 PUBLIC 'CODE'
_TEXT	ENDS
;	COMDAT ?_Myval@?$_Tree@V?$_Tmap_traits@EPAVCTInven@@U?$less@E@std@@V?$allocator@U?$pair@$$CBEPAVCTInven@@@std@@@3@$0A@@std@@@std@@KAAAU?$pair@$$CBEPAVCTInven@@@2@PAU_Node@?$_Tree_nod@V?$_Tmap_traits@EPAVCTInven@@U?$less@E@std@@V?$allocator@U?$pair@$$CBEPAVCTInven@@@std@@@3@$0A@@std@@@2@@Z
_TEXT	SEGMENT PARA USE32 PUBLIC 'CODE'
_TEXT	ENDS
;	COMDAT ?_Left@?$_Tree@V?$_Tmap_traits@EPAVCTItem@@U?$less@E@std@@V?$allocator@U?$pair@$$CBEPAVCTItem@@@std@@@3@$0A@@std@@@std@@KAAAPAU_Node@?$_Tree_nod@V?$_Tmap_traits@EPAVCTItem@@U?$less@E@std@@V?$allocator@U?$pair@$$CBEPAVCTItem@@@std@@@3@$0A@@std@@@2@PAU342@@Z
_TEXT	SEGMENT PARA USE32 PUBLIC 'CODE'
_TEXT	ENDS
;	COMDAT ?_Myval@?$_Tree@V?$_Tmap_traits@EPAVCTItem@@U?$less@E@std@@V?$allocator@U?$pair@$$CBEPAVCTItem@@@std@@@3@$0A@@std@@@std@@KAAAU?$pair@$$CBEPAVCTItem@@@2@PAU_Node@?$_Tree_nod@V?$_Tmap_traits@EPAVCTItem@@U?$less@E@std@@V?$allocator@U?$pair@$$CBEPAVCTItem@@@std@@@3@$0A@@std@@@2@@Z
_TEXT	SEGMENT PARA USE32 PUBLIC 'CODE'
_TEXT	ENDS
;	COMDAT ??Giterator@?$vector@PAUtagQUESTTERM@@V?$allocator@PAUtagQUESTTERM@@@std@@@std@@QBEHABVconst_iterator@12@@Z
_TEXT	SEGMENT PARA USE32 PUBLIC 'CODE'
_TEXT	ENDS
;	COMDAT ?_Myval@?$_Tree@V?$_Tmap_traits@EPAV?$map@KPAV?$vector@PAUtagQUESTTEMP@@V?$allocator@PAUtagQUESTTEMP@@@std@@@std@@U?$less@K@2@V?$allocator@U?$pair@$$CBKPAV?$vector@PAUtagQUESTTEMP@@V?$allocator@PAUtagQUESTTEMP@@@std@@@std@@@std@@@2@@std@@U?$less@E@2@V?$allocator@U?$pair@$$CBEPAV?$map@KPAV?$vector@PAUtagQUESTTEMP@@V?$allocator@PAUtagQUESTTEMP@@@std@@@std@@U?$less@K@2@V?$allocator@U?$pair@$$CBKPAV?$vector@PAUtagQUESTTEMP@@V?$allocator@PAUtagQUESTTEMP@@@std@@@std@@@std@@@2@@std@@@std@@@2@$0A@@std@@@std@@KAAAU?$pair@$$CBEPAV?$map@KPAV?$vector@PAUtagQUESTTEMP@@V?$allocator@PAUtagQUESTTEMP@@@std@@@std@@U?$less@K@2@V?$allocator@U?$pair@$$CBKPAV?$vector@PAUtagQUESTTEMP@@V?$allocator@PAUtagQUESTTEMP@@@std@@@std@@@std@@@2@@std@@@2@PAU_Node@?$_Tree_nod@V?$_Tmap_traits@EPAV?$map@KPAV?$vector@PAUtagQUESTTEMP@@V?$allocator@PAUtagQUESTTEMP@@@std@@@std@@U?$less@K@2@V?$allocator@U?$pair@$$CBKPAV?$vector@PAUtagQUESTTEMP@@V?$allocator@PAUtagQUESTTEMP@@@std@@@std@@@std@@@2@@std@@U?$less@E@2@V?$allocator@U?$pair@$$CBEPAV?$map@KPAV?$vector@PAUtagQUESTTEMP@@V?$allocator@PAUtagQUESTTEMP@@@std@@@std@@U?$less@K@2@V?$allocator@U?$pair@$$CBKPAV?$vector@PAUtagQUESTTEMP@@V?$allocator@PAUtagQUESTTEMP@@@std@@@std@@@std@@@2@@std@@@std@@@2@$0A@@std@@@2@@Z
_TEXT	SEGMENT PARA USE32 PUBLIC 'CODE'
_TEXT	ENDS
;	COMDAT ?_Lbound@?$_Tree@V?$_Tmap_traits@EPAV?$map@KPAV?$vector@PAUtagQUESTTEMP@@V?$allocator@PAUtagQUESTTEMP@@@std@@@std@@U?$less@K@2@V?$allocator@U?$pair@$$CBKPAV?$vector@PAUtagQUESTTEMP@@V?$allocator@PAUtagQUESTTEMP@@@std@@@std@@@std@@@2@@std@@U?$less@E@2@V?$allocator@U?$pair@$$CBEPAV?$map@KPAV?$vector@PAUtagQUESTTEMP@@V?$allocator@PAUtagQUESTTEMP@@@std@@@std@@U?$less@K@2@V?$allocator@U?$pair@$$CBKPAV?$vector@PAUtagQUESTTEMP@@V?$allocator@PAUtagQUESTTEMP@@@std@@@std@@@std@@@2@@std@@@std@@@2@$0A@@std@@@std@@IBEPAU_Node@?$_Tree_nod@V?$_Tmap_traits@EPAV?$map@KPAV?$vector@PAUtagQUESTTEMP@@V?$allocator@PAUtagQUESTTEMP@@@std@@@std@@U?$less@K@2@V?$allocator@U?$pair@$$CBKPAV?$vector@PAUtagQUESTTEMP@@V?$allocator@PAUtagQUESTTEMP@@@std@@@std@@@std@@@2@@std@@U?$less@E@2@V?$allocator@U?$pair@$$CBEPAV?$map@KPAV?$vector@PAUtagQUESTTEMP@@V?$allocator@PAUtagQUESTTEMP@@@std@@@std@@U?$less@K@2@V?$allocator@U?$pair@$$CBKPAV?$vector@PAUtagQUESTTEMP@@V?$allocator@PAUtagQUESTTEMP@@@std@@@std@@@std@@@2@@std@@@std@@@2@$0A@@std@@@2@ABE@Z
_TEXT	SEGMENT PARA USE32 PUBLIC 'CODE'
_TEXT	ENDS
;	COMDAT ?_Kfn@?$_Tmap_traits@EPAV?$map@KPAV?$vector@PAUtagQUESTTEMP@@V?$allocator@PAUtagQUESTTEMP@@@std@@@std@@U?$less@K@2@V?$allocator@U?$pair@$$CBKPAV?$vector@PAUtagQUESTTEMP@@V?$allocator@PAUtagQUESTTEMP@@@std@@@std@@@std@@@2@@std@@U?$less@E@2@V?$allocator@U?$pair@$$CBEPAV?$map@KPAV?$vector@PAUtagQUESTTEMP@@V?$allocator@PAUtagQUESTTEMP@@@std@@@std@@U?$less@K@2@V?$allocator@U?$pair@$$CBKPAV?$vector@PAUtagQUESTTEMP@@V?$allocator@PAUtagQUESTTEMP@@@std@@@std@@@std@@@2@@std@@@std@@@2@$0A@@std@@SAABEABU?$pair@$$CBEPAV?$map@KPAV?$vector@PAUtagQUESTTEMP@@V?$allocator@PAUtagQUESTTEMP@@@std@@@std@@U?$less@K@2@V?$allocator@U?$pair@$$CBKPAV?$vector@PAUtagQUESTTEMP@@V?$allocator@PAUtagQUESTTEMP@@@std@@@std@@@std@@@2@@std@@@2@@Z
_TEXT	SEGMENT PARA USE32 PUBLIC 'CODE'
_TEXT	ENDS
;	COMDAT ??0const_iterator@?$_Tree@V?$_Tmap_traits@EPAV?$map@KPAV?$vector@PAUtagQUESTTEMP@@V?$allocator@PAUtagQUESTTEMP@@@std@@@std@@U?$less@K@2@V?$allocator@U?$pair@$$CBKPAV?$vector@PAUtagQUESTTEMP@@V?$allocator@PAUtagQUESTTEMP@@@std@@@std@@@std@@@2@@std@@U?$less@E@2@V?$allocator@U?$pair@$$CBEPAV?$map@KPAV?$vector@PAUtagQUESTTEMP@@V?$allocator@PAUtagQUESTTEMP@@@std@@@std@@U?$less@K@2@V?$allocator@U?$pair@$$CBKPAV?$vector@PAUtagQUESTTEMP@@V?$allocator@PAUtagQUESTTEMP@@@std@@@std@@@std@@@2@@std@@@std@@@2@$0A@@std@@@std@@QAE@PAU_Node@?$_Tree_nod@V?$_Tmap_traits@EPAV?$map@KPAV?$vector@PAUtagQUESTTEMP@@V?$allocator@PAUtagQUESTTEMP@@@std@@@std@@U?$less@K@2@V?$allocator@U?$pair@$$CBKPAV?$vector@PAUtagQUESTTEMP@@V?$allocator@PAUtagQUESTTEMP@@@std@@@std@@@std@@@2@@std@@U?$less@E@2@V?$allocator@U?$pair@$$CBEPAV?$map@KPAV?$vector@PAUtagQUESTTEMP@@V?$allocator@PAUtagQUESTTEMP@@@std@@@std@@U?$less@K@2@V?$allocator@U?$pair@$$CBKPAV?$vector@PAUtagQUESTTEMP@@V?$allocator@PAUtagQUESTTEMP@@@std@@@std@@@std@@@2@@std@@@std@@@2@$0A@@std@@@2@@Z
_TEXT	SEGMENT PARA USE32 PUBLIC 'CODE'
_TEXT	ENDS
;	COMDAT ?_Myval@?$_Tree@V?$_Tmap_traits@KPAV?$vector@PAUtagQUESTTEMP@@V?$allocator@PAUtagQUESTTEMP@@@std@@@std@@U?$less@K@2@V?$allocator@U?$pair@$$CBKPAV?$vector@PAUtagQUESTTEMP@@V?$allocator@PAUtagQUESTTEMP@@@std@@@std@@@std@@@2@$0A@@std@@@std@@KAAAU?$pair@$$CBKPAV?$vector@PAUtagQUESTTEMP@@V?$allocator@PAUtagQUESTTEMP@@@std@@@std@@@2@PAU_Node@?$_Tree_nod@V?$_Tmap_traits@KPAV?$vector@PAUtagQUESTTEMP@@V?$allocator@PAUtagQUESTTEMP@@@std@@@std@@U?$less@K@2@V?$allocator@U?$pair@$$CBKPAV?$vector@PAUtagQUESTTEMP@@V?$allocator@PAUtagQUESTTEMP@@@std@@@std@@@std@@@2@$0A@@std@@@2@@Z
_TEXT	SEGMENT PARA USE32 PUBLIC 'CODE'
_TEXT	ENDS
;	COMDAT ?_Lbound@?$_Tree@V?$_Tmap_traits@KPAV?$vector@PAUtagQUESTTEMP@@V?$allocator@PAUtagQUESTTEMP@@@std@@@std@@U?$less@K@2@V?$allocator@U?$pair@$$CBKPAV?$vector@PAUtagQUESTTEMP@@V?$allocator@PAUtagQUESTTEMP@@@std@@@std@@@std@@@2@$0A@@std@@@std@@IBEPAU_Node@?$_Tree_nod@V?$_Tmap_traits@KPAV?$vector@PAUtagQUESTTEMP@@V?$allocator@PAUtagQUESTTEMP@@@std@@@std@@U?$less@K@2@V?$allocator@U?$pair@$$CBKPAV?$vector@PAUtagQUESTTEMP@@V?$allocator@PAUtagQUESTTEMP@@@std@@@std@@@std@@@2@$0A@@std@@@2@ABK@Z
_TEXT	SEGMENT PARA USE32 PUBLIC 'CODE'
_TEXT	ENDS
;	COMDAT ?_Kfn@?$_Tmap_traits@KPAV?$vector@PAUtagQUESTTEMP@@V?$allocator@PAUtagQUESTTEMP@@@std@@@std@@U?$less@K@2@V?$allocator@U?$pair@$$CBKPAV?$vector@PAUtagQUESTTEMP@@V?$allocator@PAUtagQUESTTEMP@@@std@@@std@@@std@@@2@$0A@@std@@SAABKABU?$pair@$$CBKPAV?$vector@PAUtagQUESTTEMP@@V?$allocator@PAUtagQUESTTEMP@@@std@@@std@@@2@@Z
_TEXT	SEGMENT PARA USE32 PUBLIC 'CODE'
_TEXT	ENDS
;	COMDAT ??0const_iterator@?$_Tree@V?$_Tmap_traits@KPAV?$vector@PAUtagQUESTTEMP@@V?$allocator@PAUtagQUESTTEMP@@@std@@@std@@U?$less@K@2@V?$allocator@U?$pair@$$CBKPAV?$vector@PAUtagQUESTTEMP@@V?$allocator@PAUtagQUESTTEMP@@@std@@@std@@@std@@@2@$0A@@std@@@std@@QAE@PAU_Node@?$_Tree_nod@V?$_Tmap_traits@KPAV?$vector@PAUtagQUESTTEMP@@V?$allocator@PAUtagQUESTTEMP@@@std@@@std@@U?$less@K@2@V?$allocator@U?$pair@$$CBKPAV?$vector@PAUtagQUESTTEMP@@V?$allocator@PAUtagQUESTTEMP@@@std@@@std@@@std@@@2@$0A@@std@@@2@@Z
_TEXT	SEGMENT PARA USE32 PUBLIC 'CODE'
_TEXT	ENDS
;	COMDAT ??0const_iterator@?$_Tree@V?$_Tmap_traits@EPAVCTInven@@U?$less@E@std@@V?$allocator@U?$pair@$$CBEPAVCTInven@@@std@@@3@$0A@@std@@@std@@QAE@PAU_Node@?$_Tree_nod@V?$_Tmap_traits@EPAVCTInven@@U?$less@E@std@@V?$allocator@U?$pair@$$CBEPAVCTInven@@@std@@@3@$0A@@std@@@2@@Z
_TEXT	SEGMENT PARA USE32 PUBLIC 'CODE'
_TEXT	ENDS
;	COMDAT ??Econst_iterator@?$_Tree@V?$_Tmap_traits@EPAVCTInven@@U?$less@E@std@@V?$allocator@U?$pair@$$CBEPAVCTInven@@@std@@@3@$0A@@std@@@std@@QAEAAV012@XZ
_TEXT	SEGMENT PARA USE32 PUBLIC 'CODE'
_TEXT	ENDS
;	COMDAT ??0const_iterator@?$_Tree@V?$_Tmap_traits@EPAVCTItem@@U?$less@E@std@@V?$allocator@U?$pair@$$CBEPAVCTItem@@@std@@@3@$0A@@std@@@std@@QAE@PAU_Node@?$_Tree_nod@V?$_Tmap_traits@EPAVCTItem@@U?$less@E@std@@V?$allocator@U?$pair@$$CBEPAVCTItem@@@std@@@3@$0A@@std@@@2@@Z
_TEXT	SEGMENT PARA USE32 PUBLIC 'CODE'
_TEXT	ENDS
;	COMDAT ??Econst_iterator@?$_Tree@V?$_Tmap_traits@EPAVCTItem@@U?$less@E@std@@V?$allocator@U?$pair@$$CBEPAVCTItem@@@std@@@3@$0A@@std@@@std@@QAEAAV012@XZ
_TEXT	SEGMENT PARA USE32 PUBLIC 'CODE'
_TEXT	ENDS
;	COMDAT ??0iterator@?$vector@PAUtagQUESTTEMP@@V?$allocator@PAUtagQUESTTEMP@@@std@@@std@@QAE@PAPAUtagQUESTTEMP@@@Z
_TEXT	SEGMENT PARA USE32 PUBLIC 'CODE'
_TEXT	ENDS
;	COMDAT ??Yiterator@?$vector@PAUtagQUESTTEMP@@V?$allocator@PAUtagQUESTTEMP@@@std@@@std@@QAEAAV012@H@Z
_TEXT	SEGMENT PARA USE32 PUBLIC 'CODE'
_TEXT	ENDS
;	COMDAT ??Dconst_iterator@?$vector@PAUtagQUESTTEMP@@V?$allocator@PAUtagQUESTTEMP@@@std@@@std@@QBEABQAUtagQUESTTEMP@@XZ
_TEXT	SEGMENT PARA USE32 PUBLIC 'CODE'
_TEXT	ENDS
;	COMDAT ??Gconst_iterator@?$vector@PAUtagQUESTTERM@@V?$allocator@PAUtagQUESTTERM@@@std@@@std@@QBEHABV012@@Z
_TEXT	SEGMENT PARA USE32 PUBLIC 'CODE'
_TEXT	ENDS
;	COMDAT ?_Isnil@?$_Tree@V?$_Tmap_traits@EPAV?$map@KPAV?$vector@PAUtagQUESTTEMP@@V?$allocator@PAUtagQUESTTEMP@@@std@@@std@@U?$less@K@2@V?$allocator@U?$pair@$$CBKPAV?$vector@PAUtagQUESTTEMP@@V?$allocator@PAUtagQUESTTEMP@@@std@@@std@@@std@@@2@@std@@U?$less@E@2@V?$allocator@U?$pair@$$CBEPAV?$map@KPAV?$vector@PAUtagQUESTTEMP@@V?$allocator@PAUtagQUESTTEMP@@@std@@@std@@U?$less@K@2@V?$allocator@U?$pair@$$CBKPAV?$vector@PAUtagQUESTTEMP@@V?$allocator@PAUtagQUESTTEMP@@@std@@@std@@@std@@@2@@std@@@std@@@2@$0A@@std@@@std@@KAAADPAU_Node@?$_Tree_nod@V?$_Tmap_traits@EPAV?$map@KPAV?$vector@PAUtagQUESTTEMP@@V?$allocator@PAUtagQUESTTEMP@@@std@@@std@@U?$less@K@2@V?$allocator@U?$pair@$$CBKPAV?$vector@PAUtagQUESTTEMP@@V?$allocator@PAUtagQUESTTEMP@@@std@@@std@@@std@@@2@@std@@U?$less@E@2@V?$allocator@U?$pair@$$CBEPAV?$map@KPAV?$vector@PAUtagQUESTTEMP@@V?$allocator@PAUtagQUESTTEMP@@@std@@@std@@U?$less@K@2@V?$allocator@U?$pair@$$CBKPAV?$vector@PAUtagQUESTTEMP@@V?$allocator@PAUtagQUESTTEMP@@@std@@@std@@@std@@@2@@std@@@std@@@2@$0A@@std@@@2@@Z
_TEXT	SEGMENT PARA USE32 PUBLIC 'CODE'
_TEXT	ENDS
;	COMDAT ?_Left@?$_Tree@V?$_Tmap_traits@EPAV?$map@KPAV?$vector@PAUtagQUESTTEMP@@V?$allocator@PAUtagQUESTTEMP@@@std@@@std@@U?$less@K@2@V?$allocator@U?$pair@$$CBKPAV?$vector@PAUtagQUESTTEMP@@V?$allocator@PAUtagQUESTTEMP@@@std@@@std@@@std@@@2@@std@@U?$less@E@2@V?$allocator@U?$pair@$$CBEPAV?$map@KPAV?$vector@PAUtagQUESTTEMP@@V?$allocator@PAUtagQUESTTEMP@@@std@@@std@@U?$less@K@2@V?$allocator@U?$pair@$$CBKPAV?$vector@PAUtagQUESTTEMP@@V?$allocator@PAUtagQUESTTEMP@@@std@@@std@@@std@@@2@@std@@@std@@@2@$0A@@std@@@std@@KAAAPAU_Node@?$_Tree_nod@V?$_Tmap_traits@EPAV?$map@KPAV?$vector@PAUtagQUESTTEMP@@V?$allocator@PAUtagQUESTTEMP@@@std@@@std@@U?$less@K@2@V?$allocator@U?$pair@$$CBKPAV?$vector@PAUtagQUESTTEMP@@V?$allocator@PAUtagQUESTTEMP@@@std@@@std@@@std@@@2@@std@@U?$less@E@2@V?$allocator@U?$pair@$$CBEPAV?$map@KPAV?$vector@PAUtagQUESTTEMP@@V?$allocator@PAUtagQUESTTEMP@@@std@@@std@@U?$less@K@2@V?$allocator@U?$pair@$$CBKPAV?$vector@PAUtagQUESTTEMP@@V?$allocator@PAUtagQUESTTEMP@@@std@@@std@@@std@@@2@@std@@@std@@@2@$0A@@std@@@2@PAU342@@Z
_TEXT	SEGMENT PARA USE32 PUBLIC 'CODE'
_TEXT	ENDS
;	COMDAT ?_Right@?$_Tree@V?$_Tmap_traits@EPAV?$map@KPAV?$vector@PAUtagQUESTTEMP@@V?$allocator@PAUtagQUESTTEMP@@@std@@@std@@U?$less@K@2@V?$allocator@U?$pair@$$CBKPAV?$vector@PAUtagQUESTTEMP@@V?$allocator@PAUtagQUESTTEMP@@@std@@@std@@@std@@@2@@std@@U?$less@E@2@V?$allocator@U?$pair@$$CBEPAV?$map@KPAV?$vector@PAUtagQUESTTEMP@@V?$allocator@PAUtagQUESTTEMP@@@std@@@std@@U?$less@K@2@V?$allocator@U?$pair@$$CBKPAV?$vector@PAUtagQUESTTEMP@@V?$allocator@PAUtagQUESTTEMP@@@std@@@std@@@std@@@2@@std@@@std@@@2@$0A@@std@@@std@@KAAAPAU_Node@?$_Tree_nod@V?$_Tmap_traits@EPAV?$map@KPAV?$vector@PAUtagQUESTTEMP@@V?$allocator@PAUtagQUESTTEMP@@@std@@@std@@U?$less@K@2@V?$allocator@U?$pair@$$CBKPAV?$vector@PAUtagQUESTTEMP@@V?$allocator@PAUtagQUESTTEMP@@@std@@@std@@@std@@@2@@std@@U?$less@E@2@V?$allocator@U?$pair@$$CBEPAV?$map@KPAV?$vector@PAUtagQUESTTEMP@@V?$allocator@PAUtagQUESTTEMP@@@std@@@std@@U?$less@K@2@V?$allocator@U?$pair@$$CBKPAV?$vector@PAUtagQUESTTEMP@@V?$allocator@PAUtagQUESTTEMP@@@std@@@std@@@std@@@2@@std@@@std@@@2@$0A@@std@@@2@PAU342@@Z
_TEXT	SEGMENT PARA USE32 PUBLIC 'CODE'
_TEXT	ENDS
;	COMDAT ?_Root@?$_Tree@V?$_Tmap_traits@EPAV?$map@KPAV?$vector@PAUtagQUESTTEMP@@V?$allocator@PAUtagQUESTTEMP@@@std@@@std@@U?$less@K@2@V?$allocator@U?$pair@$$CBKPAV?$vector@PAUtagQUESTTEMP@@V?$allocator@PAUtagQUESTTEMP@@@std@@@std@@@std@@@2@@std@@U?$less@E@2@V?$allocator@U?$pair@$$CBEPAV?$map@KPAV?$vector@PAUtagQUESTTEMP@@V?$allocator@PAUtagQUESTTEMP@@@std@@@std@@U?$less@K@2@V?$allocator@U?$pair@$$CBKPAV?$vector@PAUtagQUESTTEMP@@V?$allocator@PAUtagQUESTTEMP@@@std@@@std@@@std@@@2@@std@@@std@@@2@$0A@@std@@@std@@IBEAAPAU_Node@?$_Tree_nod@V?$_Tmap_traits@EPAV?$map@KPAV?$vector@PAUtagQUESTTEMP@@V?$allocator@PAUtagQUESTTEMP@@@std@@@std@@U?$less@K@2@V?$allocator@U?$pair@$$CBKPAV?$vector@PAUtagQUESTTEMP@@V?$allocator@PAUtagQUESTTEMP@@@std@@@std@@@std@@@2@@std@@U?$less@E@2@V?$allocator@U?$pair@$$CBEPAV?$map@KPAV?$vector@PAUtagQUESTTEMP@@V?$allocator@PAUtagQUESTTEMP@@@std@@@std@@U?$less@K@2@V?$allocator@U?$pair@$$CBKPAV?$vector@PAUtagQUESTTEMP@@V?$allocator@PAUtagQUESTTEMP@@@std@@@std@@@std@@@2@@std@@@std@@@2@$0A@@std@@@2@XZ
_TEXT	SEGMENT PARA USE32 PUBLIC 'CODE'
_TEXT	ENDS
;	COMDAT ?_Isnil@?$_Tree@V?$_Tmap_traits@KPAV?$vector@PAUtagQUESTTEMP@@V?$allocator@PAUtagQUESTTEMP@@@std@@@std@@U?$less@K@2@V?$allocator@U?$pair@$$CBKPAV?$vector@PAUtagQUESTTEMP@@V?$allocator@PAUtagQUESTTEMP@@@std@@@std@@@std@@@2@$0A@@std@@@std@@KAAADPAU_Node@?$_Tree_nod@V?$_Tmap_traits@KPAV?$vector@PAUtagQUESTTEMP@@V?$allocator@PAUtagQUESTTEMP@@@std@@@std@@U?$less@K@2@V?$allocator@U?$pair@$$CBKPAV?$vector@PAUtagQUESTTEMP@@V?$allocator@PAUtagQUESTTEMP@@@std@@@std@@@std@@@2@$0A@@std@@@2@@Z
_TEXT	SEGMENT PARA USE32 PUBLIC 'CODE'
_TEXT	ENDS
;	COMDAT ?_Left@?$_Tree@V?$_Tmap_traits@KPAV?$vector@PAUtagQUESTTEMP@@V?$allocator@PAUtagQUESTTEMP@@@std@@@std@@U?$less@K@2@V?$allocator@U?$pair@$$CBKPAV?$vector@PAUtagQUESTTEMP@@V?$allocator@PAUtagQUESTTEMP@@@std@@@std@@@std@@@2@$0A@@std@@@std@@KAAAPAU_Node@?$_Tree_nod@V?$_Tmap_traits@KPAV?$vector@PAUtagQUESTTEMP@@V?$allocator@PAUtagQUESTTEMP@@@std@@@std@@U?$less@K@2@V?$allocator@U?$pair@$$CBKPAV?$vector@PAUtagQUESTTEMP@@V?$allocator@PAUtagQUESTTEMP@@@std@@@std@@@std@@@2@$0A@@std@@@2@PAU342@@Z
_TEXT	SEGMENT PARA USE32 PUBLIC 'CODE'
_TEXT	ENDS
;	COMDAT ?_Right@?$_Tree@V?$_Tmap_traits@KPAV?$vector@PAUtagQUESTTEMP@@V?$allocator@PAUtagQUESTTEMP@@@std@@@std@@U?$less@K@2@V?$allocator@U?$pair@$$CBKPAV?$vector@PAUtagQUESTTEMP@@V?$allocator@PAUtagQUESTTEMP@@@std@@@std@@@std@@@2@$0A@@std@@@std@@KAAAPAU_Node@?$_Tree_nod@V?$_Tmap_traits@KPAV?$vector@PAUtagQUESTTEMP@@V?$allocator@PAUtagQUESTTEMP@@@std@@@std@@U?$less@K@2@V?$allocator@U?$pair@$$CBKPAV?$vector@PAUtagQUESTTEMP@@V?$allocator@PAUtagQUESTTEMP@@@std@@@std@@@std@@@2@$0A@@std@@@2@PAU342@@Z
_TEXT	SEGMENT PARA USE32 PUBLIC 'CODE'
_TEXT	ENDS
;	COMDAT ?_Root@?$_Tree@V?$_Tmap_traits@KPAV?$vector@PAUtagQUESTTEMP@@V?$allocator@PAUtagQUESTTEMP@@@std@@@std@@U?$less@K@2@V?$allocator@U?$pair@$$CBKPAV?$vector@PAUtagQUESTTEMP@@V?$allocator@PAUtagQUESTTEMP@@@std@@@std@@@std@@@2@$0A@@std@@@std@@IBEAAPAU_Node@?$_Tree_nod@V?$_Tmap_traits@KPAV?$vector@PAUtagQUESTTEMP@@V?$allocator@PAUtagQUESTTEMP@@@std@@@std@@U?$less@K@2@V?$allocator@U?$pair@$$CBKPAV?$vector@PAUtagQUESTTEMP@@V?$allocator@PAUtagQUESTTEMP@@@std@@@std@@@std@@@2@$0A@@std@@@2@XZ
_TEXT	SEGMENT PARA USE32 PUBLIC 'CODE'
_TEXT	ENDS
;	COMDAT ?_Inc@const_iterator@?$_Tree@V?$_Tmap_traits@EPAVCTInven@@U?$less@E@std@@V?$allocator@U?$pair@$$CBEPAVCTInven@@@std@@@3@$0A@@std@@@std@@QAEXXZ
_TEXT	SEGMENT PARA USE32 PUBLIC 'CODE'
_TEXT	ENDS
;	COMDAT ?_Inc@const_iterator@?$_Tree@V?$_Tmap_traits@EPAVCTItem@@U?$less@E@std@@V?$allocator@U?$pair@$$CBEPAVCTItem@@@std@@@3@$0A@@std@@@std@@QAEXXZ
_TEXT	SEGMENT PARA USE32 PUBLIC 'CODE'
_TEXT	ENDS
;	COMDAT ??0const_iterator@?$vector@PAUtagQUESTTEMP@@V?$allocator@PAUtagQUESTTEMP@@@std@@@std@@QAE@PAPAUtagQUESTTEMP@@@Z
_TEXT	SEGMENT PARA USE32 PUBLIC 'CODE'
_TEXT	ENDS
;	COMDAT ?_Isnil@?$_Tree@V?$_Tmap_traits@EPAVCTInven@@U?$less@E@std@@V?$allocator@U?$pair@$$CBEPAVCTInven@@@std@@@3@$0A@@std@@@std@@KAAADPAU_Node@?$_Tree_nod@V?$_Tmap_traits@EPAVCTInven@@U?$less@E@std@@V?$allocator@U?$pair@$$CBEPAVCTInven@@@std@@@3@$0A@@std@@@2@@Z
_TEXT	SEGMENT PARA USE32 PUBLIC 'CODE'
_TEXT	ENDS
;	COMDAT ?_Parent@?$_Tree@V?$_Tmap_traits@EPAVCTInven@@U?$less@E@std@@V?$allocator@U?$pair@$$CBEPAVCTInven@@@std@@@3@$0A@@std@@@std@@KAAAPAU_Node@?$_Tree_nod@V?$_Tmap_traits@EPAVCTInven@@U?$less@E@std@@V?$allocator@U?$pair@$$CBEPAVCTInven@@@std@@@3@$0A@@std@@@2@PAU342@@Z
_TEXT	SEGMENT PARA USE32 PUBLIC 'CODE'
_TEXT	ENDS
;	COMDAT ?_Right@?$_Tree@V?$_Tmap_traits@EPAVCTInven@@U?$less@E@std@@V?$allocator@U?$pair@$$CBEPAVCTInven@@@std@@@3@$0A@@std@@@std@@KAAAPAU_Node@?$_Tree_nod@V?$_Tmap_traits@EPAVCTInven@@U?$less@E@std@@V?$allocator@U?$pair@$$CBEPAVCTInven@@@std@@@3@$0A@@std@@@2@PAU342@@Z
_TEXT	SEGMENT PARA USE32 PUBLIC 'CODE'
_TEXT	ENDS
;	COMDAT ?_Min@?$_Tree@V?$_Tmap_traits@EPAVCTInven@@U?$less@E@std@@V?$allocator@U?$pair@$$CBEPAVCTInven@@@std@@@3@$0A@@std@@@std@@KAPAU_Node@?$_Tree_nod@V?$_Tmap_traits@EPAVCTInven@@U?$less@E@std@@V?$allocator@U?$pair@$$CBEPAVCTInven@@@std@@@3@$0A@@std@@@2@PAU342@@Z
_TEXT	SEGMENT PARA USE32 PUBLIC 'CODE'
_TEXT	ENDS
;	COMDAT ?_Isnil@?$_Tree@V?$_Tmap_traits@EPAVCTItem@@U?$less@E@std@@V?$allocator@U?$pair@$$CBEPAVCTItem@@@std@@@3@$0A@@std@@@std@@KAAADPAU_Node@?$_Tree_nod@V?$_Tmap_traits@EPAVCTItem@@U?$less@E@std@@V?$allocator@U?$pair@$$CBEPAVCTItem@@@std@@@3@$0A@@std@@@2@@Z
_TEXT	SEGMENT PARA USE32 PUBLIC 'CODE'
_TEXT	ENDS
;	COMDAT ?_Parent@?$_Tree@V?$_Tmap_traits@EPAVCTItem@@U?$less@E@std@@V?$allocator@U?$pair@$$CBEPAVCTItem@@@std@@@3@$0A@@std@@@std@@KAAAPAU_Node@?$_Tree_nod@V?$_Tmap_traits@EPAVCTItem@@U?$less@E@std@@V?$allocator@U?$pair@$$CBEPAVCTItem@@@std@@@3@$0A@@std@@@2@PAU342@@Z
_TEXT	SEGMENT PARA USE32 PUBLIC 'CODE'
_TEXT	ENDS
;	COMDAT ?_Right@?$_Tree@V?$_Tmap_traits@EPAVCTItem@@U?$less@E@std@@V?$allocator@U?$pair@$$CBEPAVCTItem@@@std@@@3@$0A@@std@@@std@@KAAAPAU_Node@?$_Tree_nod@V?$_Tmap_traits@EPAVCTItem@@U?$less@E@std@@V?$allocator@U?$pair@$$CBEPAVCTItem@@@std@@@3@$0A@@std@@@2@PAU342@@Z
_TEXT	SEGMENT PARA USE32 PUBLIC 'CODE'
_TEXT	ENDS
;	COMDAT ?_Min@?$_Tree@V?$_Tmap_traits@EPAVCTItem@@U?$less@E@std@@V?$allocator@U?$pair@$$CBEPAVCTItem@@@std@@@3@$0A@@std@@@std@@KAPAU_Node@?$_Tree_nod@V?$_Tmap_traits@EPAVCTItem@@U?$less@E@std@@V?$allocator@U?$pair@$$CBEPAVCTItem@@@std@@@3@$0A@@std@@@2@PAU342@@Z
_TEXT	SEGMENT PARA USE32 PUBLIC 'CODE'
_TEXT	ENDS
;	COMDAT ?_Parent@?$_Tree@V?$_Tmap_traits@EPAV?$map@KPAV?$vector@PAUtagQUESTTEMP@@V?$allocator@PAUtagQUESTTEMP@@@std@@@std@@U?$less@K@2@V?$allocator@U?$pair@$$CBKPAV?$vector@PAUtagQUESTTEMP@@V?$allocator@PAUtagQUESTTEMP@@@std@@@std@@@std@@@2@@std@@U?$less@E@2@V?$allocator@U?$pair@$$CBEPAV?$map@KPAV?$vector@PAUtagQUESTTEMP@@V?$allocator@PAUtagQUESTTEMP@@@std@@@std@@U?$less@K@2@V?$allocator@U?$pair@$$CBKPAV?$vector@PAUtagQUESTTEMP@@V?$allocator@PAUtagQUESTTEMP@@@std@@@std@@@std@@@2@@std@@@std@@@2@$0A@@std@@@std@@KAAAPAU_Node@?$_Tree_nod@V?$_Tmap_traits@EPAV?$map@KPAV?$vector@PAUtagQUESTTEMP@@V?$allocator@PAUtagQUESTTEMP@@@std@@@std@@U?$less@K@2@V?$allocator@U?$pair@$$CBKPAV?$vector@PAUtagQUESTTEMP@@V?$allocator@PAUtagQUESTTEMP@@@std@@@std@@@std@@@2@@std@@U?$less@E@2@V?$allocator@U?$pair@$$CBEPAV?$map@KPAV?$vector@PAUtagQUESTTEMP@@V?$allocator@PAUtagQUESTTEMP@@@std@@@std@@U?$less@K@2@V?$allocator@U?$pair@$$CBKPAV?$vector@PAUtagQUESTTEMP@@V?$allocator@PAUtagQUESTTEMP@@@std@@@std@@@std@@@2@@std@@@std@@@2@$0A@@std@@@2@PAU342@@Z
_TEXT	SEGMENT PARA USE32 PUBLIC 'CODE'
_TEXT	ENDS
;	COMDAT ?_Parent@?$_Tree@V?$_Tmap_traits@KPAV?$vector@PAUtagQUESTTEMP@@V?$allocator@PAUtagQUESTTEMP@@@std@@@std@@U?$less@K@2@V?$allocator@U?$pair@$$CBKPAV?$vector@PAUtagQUESTTEMP@@V?$allocator@PAUtagQUESTTEMP@@@std@@@std@@@std@@@2@$0A@@std@@@std@@KAAAPAU_Node@?$_Tree_nod@V?$_Tmap_traits@KPAV?$vector@PAUtagQUESTTEMP@@V?$allocator@PAUtagQUESTTEMP@@@std@@@std@@U?$less@K@2@V?$allocator@U?$pair@$$CBKPAV?$vector@PAUtagQUESTTEMP@@V?$allocator@PAUtagQUESTTEMP@@@std@@@std@@@std@@@2@$0A@@std@@@2@PAU342@@Z
_TEXT	SEGMENT PARA USE32 PUBLIC 'CODE'
_TEXT	ENDS
;	COMDAT ?Unlock@?$CComCritSecLock@VCComCriticalSection@ATL@@@ATL@@QAEXXZ
_TEXT	SEGMENT PARA USE32 PUBLIC 'CODE'
_TEXT	ENDS
;	COMDAT ??$_Uninit_fill_n@GIG@std@@YAXPAGIABGAAV?$allocator@G@0@U_Scalar_ptr_iterator_tag@0@@Z
_TEXT	SEGMENT PARA USE32 PUBLIC 'CODE'
_TEXT	ENDS
;	COMDAT ??$_Ptr_cat@UtagTAICONDITION@@@std@@YA?AU_Scalar_ptr_iterator_tag@0@PAPAUtagTAICONDITION@@0@Z
_TEXT	SEGMENT PARA USE32 PUBLIC 'CODE'
_TEXT	ENDS
;	COMDAT ??$_Destroy_range@PAUtagTAICONDITION@@V?$allocator@PAUtagTAICONDITION@@@std@@@std@@YAXPAPAUtagTAICONDITION@@0AAV?$allocator@PAUtagTAICONDITION@@@0@U_Scalar_ptr_iterator_tag@0@@Z
_TEXT	SEGMENT PARA USE32 PUBLIC 'CODE'
_TEXT	ENDS
;	COMDAT ??$_Ptr_cat@UtagTMONITEM@@@std@@YA?AU_Scalar_ptr_iterator_tag@0@PAPAUtagTMONITEM@@0@Z
_TEXT	SEGMENT PARA USE32 PUBLIC 'CODE'
_TEXT	ENDS
;	COMDAT ??$_Destroy_range@PAUtagTMONITEM@@V?$allocator@PAUtagTMONITEM@@@std@@@std@@YAXPAPAUtagTMONITEM@@0AAV?$allocator@PAUtagTMONITEM@@@0@U_Scalar_ptr_iterator_tag@0@@Z
_TEXT	SEGMENT PARA USE32 PUBLIC 'CODE'
_TEXT	ENDS
;	COMDAT ??$_Ptr_cat@UtagTMAPMON@@@std@@YA?AU_Scalar_ptr_iterator_tag@0@PAPAUtagTMAPMON@@0@Z
_TEXT	SEGMENT PARA USE32 PUBLIC 'CODE'
_TEXT	ENDS
;	COMDAT ??$_Destroy_range@PAUtagTMAPMON@@V?$allocator@PAUtagTMAPMON@@@std@@@std@@YAXPAPAUtagTMAPMON@@0AAV?$allocator@PAUtagTMAPMON@@@0@U_Scalar_ptr_iterator_tag@0@@Z
_TEXT	SEGMENT PARA USE32 PUBLIC 'CODE'
_TEXT	ENDS
;	COMDAT ??$_Ptr_cat@UtagPATHPOINT@@@std@@YA?AU_Scalar_ptr_iterator_tag@0@PAPAUtagPATHPOINT@@0@Z
_TEXT	SEGMENT PARA USE32 PUBLIC 'CODE'
_TEXT	ENDS
;	COMDAT ??$_Destroy_range@PAUtagPATHPOINT@@V?$allocator@PAUtagPATHPOINT@@@std@@@std@@YAXPAPAUtagPATHPOINT@@0AAV?$allocator@PAUtagPATHPOINT@@@0@U_Scalar_ptr_iterator_tag@0@@Z
_TEXT	SEGMENT PARA USE32 PUBLIC 'CODE'
_TEXT	ENDS
;	COMDAT ??$_Ptr_cat@UtagQUESTCONDITION@@@std@@YA?AU_Scalar_ptr_iterator_tag@0@PAPAUtagQUESTCONDITION@@0@Z
_TEXT	SEGMENT PARA USE32 PUBLIC 'CODE'
_TEXT	ENDS
;	COMDAT ??$_Destroy_range@PAUtagQUESTCONDITION@@V?$allocator@PAUtagQUESTCONDITION@@@std@@@std@@YAXPAPAUtagQUESTCONDITION@@0AAV?$allocator@PAUtagQUESTCONDITION@@@0@U_Scalar_ptr_iterator_tag@0@@Z
_TEXT	SEGMENT PARA USE32 PUBLIC 'CODE'
_TEXT	ENDS
;	COMDAT ??$_Ptr_cat@UtagQUESTREWARD@@@std@@YA?AU_Scalar_ptr_iterator_tag@0@PAPAUtagQUESTREWARD@@0@Z
_TEXT	SEGMENT PARA USE32 PUBLIC 'CODE'
_TEXT	ENDS
;	COMDAT ??$_Destroy_range@PAUtagQUESTREWARD@@V?$allocator@PAUtagQUESTREWARD@@@std@@@std@@YAXPAPAUtagQUESTREWARD@@0AAV?$allocator@PAUtagQUESTREWARD@@@0@U_Scalar_ptr_iterator_tag@0@@Z
_TEXT	SEGMENT PARA USE32 PUBLIC 'CODE'
_TEXT	ENDS
;	COMDAT ??$_Ptr_cat@UtagQUESTTERM@@@std@@YA?AU_Scalar_ptr_iterator_tag@0@PAPAUtagQUESTTERM@@0@Z
_TEXT	SEGMENT PARA USE32 PUBLIC 'CODE'
_TEXT	ENDS
;	COMDAT ??$_Destroy_range@PAUtagQUESTTERM@@V?$allocator@PAUtagQUESTTERM@@@std@@@std@@YAXPAPAUtagQUESTTERM@@0AAV?$allocator@PAUtagQUESTTERM@@@0@U_Scalar_ptr_iterator_tag@0@@Z
_TEXT	SEGMENT PARA USE32 PUBLIC 'CODE'
_TEXT	ENDS
;	COMDAT ??$_Ptr_cat@PAUtagTCASHITMSALE@@PAU1@@std@@YA?AU_Nonscalar_ptr_iterator_tag@0@AAPAUtagTCASHITMSALE@@0@Z
_TEXT	SEGMENT PARA USE32 PUBLIC 'CODE'
_TEXT	ENDS
;	COMDAT ??$_Uninit_fill_n@PAUtagTCASHITMSALE@@IU1@V?$allocator@UtagTCASHITMSALE@@@std@@@std@@YAXPAUtagTCASHITMSALE@@IABU1@AAV?$allocator@UtagTCASHITMSALE@@@0@U_Nonscalar_ptr_iterator_tag@0@@Z
_TEXT	SEGMENT PARA USE32 PUBLIC 'CODE'
_TEXT	ENDS
;	COMDAT ??$_Ptr_cat@PAUtagMONREGEN@@PAU1@@std@@YA?AU_Nonscalar_ptr_iterator_tag@0@AAPAUtagMONREGEN@@0@Z
_TEXT	SEGMENT PARA USE32 PUBLIC 'CODE'
_TEXT	ENDS
;	COMDAT ??$_Uninit_fill_n@PAUtagMONREGEN@@IU1@V?$allocator@UtagMONREGEN@@@std@@@std@@YAXPAUtagMONREGEN@@IABU1@AAV?$allocator@UtagMONREGEN@@@0@U_Nonscalar_ptr_iterator_tag@0@@Z
_TEXT	SEGMENT PARA USE32 PUBLIC 'CODE'
_TEXT	ENDS
;	COMDAT ??$_Ptr_cat@PAUtagLOTTERY@@PAU1@@std@@YA?AU_Nonscalar_ptr_iterator_tag@0@AAPAUtagLOTTERY@@0@Z
_TEXT	SEGMENT PARA USE32 PUBLIC 'CODE'
_TEXT	ENDS
;	COMDAT ??$_Uninit_fill_n@PAUtagLOTTERY@@IU1@V?$allocator@UtagLOTTERY@@@std@@@std@@YAXPAUtagLOTTERY@@IABU1@AAV?$allocator@UtagLOTTERY@@@0@U_Nonscalar_ptr_iterator_tag@0@@Z
_TEXT	SEGMENT PARA USE32 PUBLIC 'CODE'
_TEXT	ENDS
;	COMDAT ??$_Destroy_range@GV?$allocator@G@std@@@std@@YAXPAG0AAV?$allocator@G@0@U_Scalar_ptr_iterator_tag@0@@Z
_TEXT	SEGMENT PARA USE32 PUBLIC 'CODE'
_TEXT	ENDS
;	COMDAT ??$_Uninitialized_copy@PAGPAGV?$allocator@G@std@@@std@@YAPAGPAG00AAV?$allocator@G@0@@Z
_TEXT	SEGMENT PARA USE32 PUBLIC 'CODE'
_TEXT	ENDS
;	COMDAT ??$_Copy_backward_opt@PAGPAG@std@@YAPAGPAG00U_Scalar_ptr_iterator_tag@0@@Z
_TEXT	SEGMENT PARA USE32 PUBLIC 'CODE'
_TEXT	ENDS
;	COMDAT ??$_Ptr_cat@VCTPlayer@@@std@@YA?AU_Scalar_ptr_iterator_tag@0@PAPAVCTPlayer@@0@Z
_TEXT	SEGMENT PARA USE32 PUBLIC 'CODE'
_TEXT	ENDS
;	COMDAT ??$_Destroy_range@PAVCTPlayer@@V?$allocator@PAVCTPlayer@@@std@@@std@@YAXPAPAVCTPlayer@@0AAV?$allocator@PAVCTPlayer@@@0@U_Scalar_ptr_iterator_tag@0@@Z
_TEXT	SEGMENT PARA USE32 PUBLIC 'CODE'
_TEXT	ENDS
;	COMDAT ??$_Destroy_range@UtagTCASHITMSALE@@V?$allocator@UtagTCASHITMSALE@@@std@@@std@@YAXPAUtagTCASHITMSALE@@0AAV?$allocator@UtagTCASHITMSALE@@@0@U_Nonscalar_ptr_iterator_tag@0@@Z
_TEXT	SEGMENT PARA USE32 PUBLIC 'CODE'
_TEXT	ENDS
;	COMDAT ??$_Uninitialized_copy@PAUtagTCASHITMSALE@@PAU1@V?$allocator@UtagTCASHITMSALE@@@std@@@std@@YAPAUtagTCASHITMSALE@@PAU1@00AAV?$allocator@UtagTCASHITMSALE@@@0@@Z
_TEXT	SEGMENT PARA USE32 PUBLIC 'CODE'
_TEXT	ENDS
;	COMDAT ??$_Copy_backward_opt@PAUtagTCASHITMSALE@@PAU1@@std@@YAPAUtagTCASHITMSALE@@PAU1@00U_Nonscalar_ptr_iterator_tag@0@@Z
_TEXT	SEGMENT PARA USE32 PUBLIC 'CODE'
_TEXT	ENDS
;	COMDAT ??$_Destroy_range@UtagMONREGEN@@V?$allocator@UtagMONREGEN@@@std@@@std@@YAXPAUtagMONREGEN@@0AAV?$allocator@UtagMONREGEN@@@0@U_Nonscalar_ptr_iterator_tag@0@@Z
_TEXT	SEGMENT PARA USE32 PUBLIC 'CODE'
_TEXT	ENDS
;	COMDAT ??$_Uninitialized_copy@PAUtagMONREGEN@@PAU1@V?$allocator@UtagMONREGEN@@@std@@@std@@YAPAUtagMONREGEN@@PAU1@00AAV?$allocator@UtagMONREGEN@@@0@@Z
_TEXT	SEGMENT PARA USE32 PUBLIC 'CODE'
_TEXT	ENDS
;	COMDAT ??$_Copy_backward_opt@PAUtagMONREGEN@@PAU1@@std@@YAPAUtagMONREGEN@@PAU1@00U_Nonscalar_ptr_iterator_tag@0@@Z
_TEXT	SEGMENT PARA USE32 PUBLIC 'CODE'
_TEXT	ENDS
;	COMDAT ??$_Destroy_range@UtagLOTTERY@@V?$allocator@UtagLOTTERY@@@std@@@std@@YAXPAUtagLOTTERY@@0AAV?$allocator@UtagLOTTERY@@@0@U_Nonscalar_ptr_iterator_tag@0@@Z
_TEXT	SEGMENT PARA USE32 PUBLIC 'CODE'
_TEXT	ENDS
;	COMDAT ??$_Uninitialized_copy@PAUtagLOTTERY@@PAU1@V?$allocator@UtagLOTTERY@@@std@@@std@@YAPAUtagLOTTERY@@PAU1@00AAV?$allocator@UtagLOTTERY@@@0@@Z
_TEXT	SEGMENT PARA USE32 PUBLIC 'CODE'
_TEXT	ENDS
;	COMDAT ??$_Copy_backward_opt@PAUtagLOTTERY@@PAU1@@std@@YAPAUtagLOTTERY@@PAU1@00U_Nonscalar_ptr_iterator_tag@0@@Z
_TEXT	SEGMENT PARA USE32 PUBLIC 'CODE'
_TEXT	ENDS
;	COMDAT ??$_Uninitialized_fill_n@PAPAUtagQUESTTERM@@IPAU1@V?$allocator@PAUtagQUESTTERM@@@std@@@std@@YAXPAPAUtagQUESTTERM@@IABQAU1@AAV?$allocator@PAUtagQUESTTERM@@@0@@Z
_TEXT	SEGMENT PARA USE32 PUBLIC 'CODE'
_TEXT	ENDS
;	COMDAT ??$_Ucopy@PAPAUtagQUESTTERM@@@?$vector@PAUtagQUESTTERM@@V?$allocator@PAUtagQUESTTERM@@@std@@@std@@IAEPAPAUtagQUESTTERM@@PAPAU2@00@Z
_TEXT	SEGMENT PARA USE32 PUBLIC 'CODE'
_TEXT	ENDS
;	COMDAT ??$fill@PAPAUtagQUESTTERM@@PAU1@@std@@YAXPAPAUtagQUESTTERM@@0ABQAU1@@Z
_TEXT	SEGMENT PARA USE32 PUBLIC 'CODE'
_TEXT	ENDS
;	COMDAT ??$copy_backward@PAPAUtagQUESTTERM@@PAPAU1@@std@@YAPAPAUtagQUESTTERM@@PAPAU1@00@Z
_TEXT	SEGMENT PARA USE32 PUBLIC 'CODE'
_TEXT	ENDS
;	COMDAT ?construct@?$allocator@UtagTCASHITMSALE@@@std@@QAEXPAUtagTCASHITMSALE@@ABU3@@Z
_TEXT	SEGMENT PARA USE32 PUBLIC 'CODE'
_TEXT	ENDS
;	COMDAT ?destroy@?$allocator@UtagTCASHITMSALE@@@std@@QAEXPAUtagTCASHITMSALE@@@Z
_TEXT	SEGMENT PARA USE32 PUBLIC 'CODE'
_TEXT	ENDS
;	COMDAT ?construct@?$allocator@UtagMONREGEN@@@std@@QAEXPAUtagMONREGEN@@ABU3@@Z
_TEXT	SEGMENT PARA USE32 PUBLIC 'CODE'
_TEXT	ENDS
;	COMDAT ?destroy@?$allocator@UtagMONREGEN@@@std@@QAEXPAUtagMONREGEN@@@Z
_TEXT	SEGMENT PARA USE32 PUBLIC 'CODE'
_TEXT	ENDS
;	COMDAT ?construct@?$allocator@UtagLOTTERY@@@std@@QAEXPAUtagLOTTERY@@ABU3@@Z
_TEXT	SEGMENT PARA USE32 PUBLIC 'CODE'
_TEXT	ENDS
;	COMDAT ?destroy@?$allocator@UtagLOTTERY@@@std@@QAEXPAUtagLOTTERY@@@Z
_TEXT	SEGMENT PARA USE32 PUBLIC 'CODE'
_TEXT	ENDS
;	COMDAT ??$fill_n@PAGIG@std@@YAXPAGIABG@Z
_TEXT	SEGMENT PARA USE32 PUBLIC 'CODE'
_TEXT	ENDS
;	COMDAT ??$_Uninit_copy@GG@std@@YAPAGPAG00AAV?$allocator@G@0@U_Scalar_ptr_iterator_tag@0@@Z
_TEXT	SEGMENT PARA USE32 PUBLIC 'CODE'
_TEXT	ENDS
;	COMDAT ??$_Uninit_copy@PAUtagTCASHITMSALE@@PAU1@V?$allocator@UtagTCASHITMSALE@@@std@@@std@@YAPAUtagTCASHITMSALE@@PAU1@00AAV?$allocator@UtagTCASHITMSALE@@@0@U_Nonscalar_ptr_iterator_tag@0@@Z
_TEXT	SEGMENT PARA USE32 PUBLIC 'CODE'
_TEXT	ENDS
;	COMDAT ??$_Uninit_copy@PAUtagMONREGEN@@PAU1@V?$allocator@UtagMONREGEN@@@std@@@std@@YAPAUtagMONREGEN@@PAU1@00AAV?$allocator@UtagMONREGEN@@@0@U_Nonscalar_ptr_iterator_tag@0@@Z
_TEXT	SEGMENT PARA USE32 PUBLIC 'CODE'
_TEXT	ENDS
;	COMDAT ??$_Uninit_copy@PAUtagLOTTERY@@PAU1@V?$allocator@UtagLOTTERY@@@std@@@std@@YAPAUtagLOTTERY@@PAU1@00AAV?$allocator@UtagLOTTERY@@@0@U_Nonscalar_ptr_iterator_tag@0@@Z
_TEXT	SEGMENT PARA USE32 PUBLIC 'CODE'
_TEXT	ENDS
;	COMDAT ??$_Uninit_fill_n@PAUtagQUESTTERM@@IPAU1@@std@@YAXPAPAUtagQUESTTERM@@IABQAU1@AAV?$allocator@PAUtagQUESTTERM@@@0@U_Scalar_ptr_iterator_tag@0@@Z
_TEXT	SEGMENT PARA USE32 PUBLIC 'CODE'
_TEXT	ENDS
;	COMDAT ??$_Uninitialized_copy@PAPAUtagQUESTTERM@@PAPAU1@V?$allocator@PAUtagQUESTTERM@@@std@@@std@@YAPAPAUtagQUESTTERM@@PAPAU1@00AAV?$allocator@PAUtagQUESTTERM@@@0@@Z
_TEXT	SEGMENT PARA USE32 PUBLIC 'CODE'
_TEXT	ENDS
;	COMDAT ??$_Copy_backward_opt@PAPAUtagQUESTTERM@@PAPAU1@@std@@YAPAPAUtagQUESTTERM@@PAPAU1@00U_Scalar_ptr_iterator_tag@0@@Z
_TEXT	SEGMENT PARA USE32 PUBLIC 'CODE'
_TEXT	ENDS
;	COMDAT ??$_Construct@UtagTCASHITMSALE@@U1@@std@@YAXPAUtagTCASHITMSALE@@ABU1@@Z
_TEXT	SEGMENT PARA USE32 PUBLIC 'CODE'
_TEXT	ENDS
;	COMDAT ??$_Destroy@UtagTCASHITMSALE@@@std@@YAXPAUtagTCASHITMSALE@@@Z
_TEXT	SEGMENT PARA USE32 PUBLIC 'CODE'
_TEXT	ENDS
;	COMDAT ??$_Construct@UtagMONREGEN@@U1@@std@@YAXPAUtagMONREGEN@@ABU1@@Z
_TEXT	SEGMENT PARA USE32 PUBLIC 'CODE'
_TEXT	ENDS
;	COMDAT ??$_Destroy@UtagMONREGEN@@@std@@YAXPAUtagMONREGEN@@@Z
_TEXT	SEGMENT PARA USE32 PUBLIC 'CODE'
_TEXT	ENDS
;	COMDAT ??$_Construct@UtagLOTTERY@@U1@@std@@YAXPAUtagLOTTERY@@ABU1@@Z
_TEXT	SEGMENT PARA USE32 PUBLIC 'CODE'
_TEXT	ENDS
;	COMDAT ??$_Destroy@UtagLOTTERY@@@std@@YAXPAUtagLOTTERY@@@Z
_TEXT	SEGMENT PARA USE32 PUBLIC 'CODE'
_TEXT	ENDS
;	COMDAT ??$fill_n@PAPAUtagQUESTTERM@@IPAU1@@std@@YAXPAPAUtagQUESTTERM@@IABQAU1@@Z
_TEXT	SEGMENT PARA USE32 PUBLIC 'CODE'
_TEXT	ENDS
;	COMDAT ??$_Uninit_copy@PAUtagQUESTTERM@@PAU1@@std@@YAPAPAUtagQUESTTERM@@PAPAU1@00AAV?$allocator@PAUtagQUESTTERM@@@0@U_Scalar_ptr_iterator_tag@0@@Z
_TEXT	SEGMENT PARA USE32 PUBLIC 'CODE'
_TEXT	ENDS
;	COMDAT ??2@YAPAXIPAX@Z
_TEXT	SEGMENT PARA USE32 PUBLIC 'CODE'
_TEXT	ENDS
;	COMDAT ?_Ptr_cat@std@@YA?AU_Scalar_ptr_iterator_tag@1@PAG0@Z
_TEXT	SEGMENT PARA USE32 PUBLIC 'CODE'
_TEXT	ENDS
;	COMDAT ?_Psave@?$_Facetptr@V?$ctype@G@std@@@std@@2PBVfacet@locale@2@B
_DATA	SEGMENT DWORD USE32 PUBLIC 'DATA'
_DATA	ENDS
;	COMDAT ?_Psave@?$_Facetptr@V?$ctype@D@std@@@std@@2PBVfacet@locale@2@B
_DATA	SEGMENT DWORD USE32 PUBLIC 'DATA'
_DATA	ENDS
;	COMDAT ?Unlock@CComCriticalSection@ATL@@QAEJXZ
_TEXT	SEGMENT PARA USE32 PUBLIC 'CODE'
_TEXT	ENDS
;	COMDAT ?deallocate@?$allocator@PAUtagQUESTTERM@@@std@@QAEXPAPAUtagQUESTTERM@@I@Z
_TEXT	SEGMENT PARA USE32 PUBLIC 'CODE'
_TEXT	ENDS
;	COMDAT ?_Destroy@?$vector@PAUtagQUESTTERM@@V?$allocator@PAUtagQUESTTERM@@@std@@@std@@IAEXPAPAUtagQUESTTERM@@0@Z
_TEXT	SEGMENT PARA USE32 PUBLIC 'CODE'
_TEXT	ENDS
;	COMDAT ??$_Destroy_range@PAUtagQUESTTERM@@V?$allocator@PAUtagQUESTTERM@@@std@@@std@@YAXPAPAUtagQUESTTERM@@0AAV?$allocator@PAUtagQUESTTERM@@@0@@Z
_TEXT	SEGMENT PARA USE32 PUBLIC 'CODE'
_TEXT	ENDS
;	COMDAT ?allocate@?$allocator@PAUtagQUESTTERM@@@std@@QAEPAPAUtagQUESTTERM@@I@Z
_TEXT	SEGMENT PARA USE32 PUBLIC 'CODE'
_TEXT	ENDS
;	COMDAT ??$_Allocate@PAUtagQUESTTERM@@@std@@YAPAPAUtagQUESTTERM@@IPAPAU1@@Z
_TEXT	SEGMENT PARA USE32 PUBLIC 'CODE'
_TEXT	ENDS
;	COMDAT ?_Xlen@?$vector@PAUtagQUESTTERM@@V?$allocator@PAUtagQUESTTERM@@@std@@@std@@IBEXXZ
_TEXT	SEGMENT PARA USE32 PUBLIC 'CODE'
_TEXT	ENDS
;	COMDAT ??0length_error@std@@QAE@ABV?$basic_string@DU?$char_traits@D@std@@V?$allocator@D@2@@1@@Z
_TEXT	SEGMENT PARA USE32 PUBLIC 'CODE'
_TEXT	ENDS
;	COMDAT ??0logic_error@std@@QAE@ABV?$basic_string@DU?$char_traits@D@std@@V?$allocator@D@2@@1@@Z
_TEXT	SEGMENT PARA USE32 PUBLIC 'CODE'
_TEXT	ENDS
;	COMDAT ??_7logic_error@std@@6B@
CONST	SEGMENT DWORD USE32 PUBLIC 'CONST'
CONST	ENDS
;	COMDAT ??_Glogic_error@std@@UAEPAXI@Z
_TEXT	SEGMENT PARA USE32 PUBLIC 'CODE'
_TEXT	ENDS
;	COMDAT ?what@logic_error@std@@UBEPBDXZ
_TEXT	SEGMENT PARA USE32 PUBLIC 'CODE'
_TEXT	ENDS
;	COMDAT ?c_str@?$basic_string@DU?$char_traits@D@std@@V?$allocator@D@2@@std@@QBEPBDXZ
_TEXT	SEGMENT PARA USE32 PUBLIC 'CODE'
_TEXT	ENDS
;	COMDAT ?_Myptr@?$basic_string@DU?$char_traits@D@std@@V?$allocator@D@2@@std@@QBEPBDXZ
_TEXT	SEGMENT PARA USE32 PUBLIC 'CODE'
_TEXT	ENDS
;	COMDAT ??0?$basic_string@DU?$char_traits@D@std@@V?$allocator@D@2@@std@@QAE@ABV01@@Z
_TEXT	SEGMENT PARA USE32 PUBLIC 'CODE'
_TEXT	ENDS
;	COMDAT ??0?$_String_val@DV?$allocator@D@std@@@std@@IAE@V?$allocator@D@1@@Z
_TEXT	SEGMENT PARA USE32 PUBLIC 'CODE'
_TEXT	ENDS
;	COMDAT ??0?$allocator@D@std@@QAE@ABV01@@Z
_TEXT	SEGMENT PARA USE32 PUBLIC 'CODE'
_TEXT	ENDS
;	COMDAT ?_Tidy@?$basic_string@DU?$char_traits@D@std@@V?$allocator@D@2@@std@@IAEX_NI@Z
_TEXT	SEGMENT PARA USE32 PUBLIC 'CODE'
_TEXT	ENDS
;	COMDAT ?copy@?$char_traits@D@std@@SAPADPADPBDI@Z
_TEXT	SEGMENT PARA USE32 PUBLIC 'CODE'
_TEXT	ENDS
;	COMDAT ?deallocate@?$allocator@D@std@@QAEXPADI@Z
_TEXT	SEGMENT PARA USE32 PUBLIC 'CODE'
_TEXT	ENDS
;	COMDAT ?_Eos@?$basic_string@DU?$char_traits@D@std@@V?$allocator@D@2@@std@@IAEXI@Z
_TEXT	SEGMENT PARA USE32 PUBLIC 'CODE'
_TEXT	ENDS
;	COMDAT ?assign@?$char_traits@D@std@@SAXAADABD@Z
_TEXT	SEGMENT PARA USE32 PUBLIC 'CODE'
_TEXT	ENDS
;	COMDAT ?_Myptr@?$basic_string@DU?$char_traits@D@std@@V?$allocator@D@2@@std@@QAEPADXZ
_TEXT	SEGMENT PARA USE32 PUBLIC 'CODE'
_TEXT	ENDS
;	COMDAT ?assign@?$basic_string@DU?$char_traits@D@std@@V?$allocator@D@2@@std@@QAEAAV12@ABV12@II@Z
_TEXT	SEGMENT PARA USE32 PUBLIC 'CODE'
_TEXT	ENDS
;	COMDAT ?size@?$basic_string@DU?$char_traits@D@std@@V?$allocator@D@2@@std@@QBEIXZ
_TEXT	SEGMENT PARA USE32 PUBLIC 'CODE'
_TEXT	ENDS
;	COMDAT ?erase@?$basic_string@DU?$char_traits@D@std@@V?$allocator@D@2@@std@@QAEAAV12@II@Z
_TEXT	SEGMENT PARA USE32 PUBLIC 'CODE'
_TEXT	ENDS
;	COMDAT ?move@?$char_traits@D@std@@SAPADPADPBDI@Z
_TEXT	SEGMENT PARA USE32 PUBLIC 'CODE'
_TEXT	ENDS
;	COMDAT ?_Grow@?$basic_string@DU?$char_traits@D@std@@V?$allocator@D@2@@std@@IAE_NI_N@Z
_TEXT	SEGMENT PARA USE32 PUBLIC 'CODE'
_TEXT	ENDS
;	COMDAT ?max_size@?$basic_string@DU?$char_traits@D@std@@V?$allocator@D@2@@std@@QBEIXZ
_TEXT	SEGMENT PARA USE32 PUBLIC 'CODE'
_TEXT	ENDS
;	COMDAT ?max_size@?$allocator@D@std@@QBEIXZ
_TEXT	SEGMENT PARA USE32 PUBLIC 'CODE'
_TEXT	ENDS
;	COMDAT ?_Copy@?$basic_string@DU?$char_traits@D@std@@V?$allocator@D@2@@std@@IAEXII@Z
_TEXT	SEGMENT PARA USE32 PUBLIC 'CODE'
_TEXT	ENDS
;	COMDAT ?allocate@?$allocator@D@std@@QAEPADI@Z
_TEXT	SEGMENT PARA USE32 PUBLIC 'CODE'
_TEXT	ENDS
;	COMDAT ??$_Allocate@D@std@@YAPADIPAD@Z
_TEXT	SEGMENT PARA USE32 PUBLIC 'CODE'
_TEXT	ENDS
;	COMDAT ?npos@?$basic_string@DU?$char_traits@D@std@@V?$allocator@D@2@@std@@2IB
CONST	SEGMENT DWORD USE32 PUBLIC 'CONST'
CONST	ENDS
;	COMDAT ??1logic_error@std@@UAE@XZ
_TEXT	SEGMENT PARA USE32 PUBLIC 'CODE'
_TEXT	ENDS
;	COMDAT ??_7length_error@std@@6B@
CONST	SEGMENT DWORD USE32 PUBLIC 'CONST'
CONST	ENDS
;	COMDAT ??_Glength_error@std@@UAEPAXI@Z
_TEXT	SEGMENT PARA USE32 PUBLIC 'CODE'
_TEXT	ENDS
;	COMDAT ??1length_error@std@@UAE@XZ
_TEXT	SEGMENT PARA USE32 PUBLIC 'CODE'
_TEXT	ENDS
;	COMDAT ??0?$basic_string@DU?$char_traits@D@std@@V?$allocator@D@2@@std@@QAE@PBD@Z
_TEXT	SEGMENT PARA USE32 PUBLIC 'CODE'
_TEXT	ENDS
;	COMDAT ??0?$allocator@D@std@@QAE@XZ
_TEXT	SEGMENT PARA USE32 PUBLIC 'CODE'
_TEXT	ENDS
;	COMDAT ?assign@?$basic_string@DU?$char_traits@D@std@@V?$allocator@D@2@@std@@QAEAAV12@PBD@Z
_TEXT	SEGMENT PARA USE32 PUBLIC 'CODE'
_TEXT	ENDS
;	COMDAT ?assign@?$basic_string@DU?$char_traits@D@std@@V?$allocator@D@2@@std@@QAEAAV12@PBDI@Z
_TEXT	SEGMENT PARA USE32 PUBLIC 'CODE'
_TEXT	ENDS
;	COMDAT ?_Inside@?$basic_string@DU?$char_traits@D@std@@V?$allocator@D@2@@std@@IAE_NPBD@Z
_TEXT	SEGMENT PARA USE32 PUBLIC 'CODE'
_TEXT	ENDS
;	COMDAT ?length@?$char_traits@D@std@@SAIPBD@Z
_TEXT	SEGMENT PARA USE32 PUBLIC 'CODE'
_TEXT	ENDS
;	COMDAT ??_C@_0BD@OLBABOEK@vector?$DMT?$DO?5too?5long?$AA@
CONST	SEGMENT DWORD USE32 PUBLIC 'CONST'
CONST	ENDS
;	COMDAT ??1?$basic_string@DU?$char_traits@D@std@@V?$allocator@D@2@@std@@QAE@XZ
_TEXT	SEGMENT PARA USE32 PUBLIC 'CODE'
_TEXT	ENDS
;	COMDAT __TI3?AVlength_error@std@@
xdata$x	SEGMENT DWORD USE32 PUBLIC 'CONST'
xdata$x	ENDS
;	COMDAT __CTA3?AVlength_error@std@@
xdata$x	SEGMENT DWORD USE32 PUBLIC 'CONST'
xdata$x	ENDS
;	COMDAT __CT??_R0?AVlength_error@std@@@8??0length_error@std@@QAE@ABV01@@Z40
xdata$x	SEGMENT DWORD USE32 PUBLIC 'CONST'
xdata$x	ENDS
;	COMDAT ??_R0?AVlength_error@std@@@8
_DATA	SEGMENT DWORD USE32 PUBLIC 'DATA'
_DATA	ENDS
;	COMDAT ??0length_error@std@@QAE@ABV01@@Z
_TEXT	SEGMENT PARA USE32 PUBLIC 'CODE'
_TEXT	ENDS
;	COMDAT ??0logic_error@std@@QAE@ABV01@@Z
_TEXT	SEGMENT PARA USE32 PUBLIC 'CODE'
_TEXT	ENDS
;	COMDAT __CT??_R0?AVlogic_error@std@@@8??0logic_error@std@@QAE@ABV01@@Z40
xdata$x	SEGMENT DWORD USE32 PUBLIC 'CONST'
xdata$x	ENDS
;	COMDAT ??_R0?AVlogic_error@std@@@8
_DATA	SEGMENT DWORD USE32 PUBLIC 'DATA'
_DATA	ENDS
;	COMDAT __CT??_R0?AVexception@@@8??0exception@@QAE@ABV0@@Z12
xdata$x	SEGMENT DWORD USE32 PUBLIC 'CONST'
xdata$x	ENDS
;	COMDAT ??_R0?AVexception@@@8
_DATA	SEGMENT DWORD USE32 PUBLIC 'DATA'
_DATA	ENDS
;	COMDAT ?max_size@?$vector@PAUtagQUESTTERM@@V?$allocator@PAUtagQUESTTERM@@@std@@@std@@QBEIXZ
_TEXT	SEGMENT PARA USE32 PUBLIC 'CODE'
_TEXT	ENDS
;	COMDAT ?max_size@?$allocator@PAUtagQUESTTERM@@@std@@QBEIXZ
_TEXT	SEGMENT PARA USE32 PUBLIC 'CODE'
_TEXT	ENDS
;	COMDAT ??Yiterator@?$vector@PAUtagQUESTTERM@@V?$allocator@PAUtagQUESTTERM@@@std@@@std@@QAEAAV012@H@Z
_TEXT	SEGMENT PARA USE32 PUBLIC 'CODE'
_TEXT	ENDS
;	COMDAT ??0iterator@?$vector@PAUtagQUESTTERM@@V?$allocator@PAUtagQUESTTERM@@@std@@@std@@QAE@PAPAUtagQUESTTERM@@@Z
_TEXT	SEGMENT PARA USE32 PUBLIC 'CODE'
_TEXT	ENDS
;	COMDAT ??0const_iterator@?$vector@PAUtagQUESTTERM@@V?$allocator@PAUtagQUESTTERM@@@std@@@std@@QAE@PAPAUtagQUESTTERM@@@Z
_TEXT	SEGMENT PARA USE32 PUBLIC 'CODE'
_TEXT	ENDS
;	COMDAT ?end@?$vector@PAUtagQUESTTERM@@V?$allocator@PAUtagQUESTTERM@@@std@@@std@@QAE?AViterator@12@XZ
_TEXT	SEGMENT PARA USE32 PUBLIC 'CODE'
_TEXT	ENDS
;	COMDAT ??Diterator@?$vector@PAUtagQUESTTERM@@V?$allocator@PAUtagQUESTTERM@@@std@@@std@@QBEAAPAUtagQUESTTERM@@XZ
_TEXT	SEGMENT PARA USE32 PUBLIC 'CODE'
_TEXT	ENDS
;	COMDAT ??Dconst_iterator@?$vector@PAUtagQUESTTERM@@V?$allocator@PAUtagQUESTTERM@@@std@@@std@@QBEABQAUtagQUESTTERM@@XZ
_TEXT	SEGMENT PARA USE32 PUBLIC 'CODE'
_TEXT	ENDS
;	COMDAT ?size@?$vector@PAUtagQUESTTERM@@V?$allocator@PAUtagQUESTTERM@@@std@@@std@@QBEIXZ
_TEXT	SEGMENT PARA USE32 PUBLIC 'CODE'
_TEXT	ENDS
;	COMDAT ?pop_back@?$vector@PAUtagQUESTTERM@@V?$allocator@PAUtagQUESTTERM@@@std@@@std@@QAEXXZ
_TEXT	SEGMENT PARA USE32 PUBLIC 'CODE'
_TEXT	ENDS
;	COMDAT ?back@?$vector@PAUtagQUESTTERM@@V?$allocator@PAUtagQUESTTERM@@@std@@@std@@QAEAAPAUtagQUESTTERM@@XZ
_TEXT	SEGMENT PARA USE32 PUBLIC 'CODE'
_TEXT	ENDS
;	COMDAT ??Giterator@?$vector@PAUtagQUESTTERM@@V?$allocator@PAUtagQUESTTERM@@@std@@@std@@QBE?AV012@H@Z
_TEXT	SEGMENT PARA USE32 PUBLIC 'CODE'
_TEXT	ENDS
;	COMDAT ??Ziterator@?$vector@PAUtagQUESTTERM@@V?$allocator@PAUtagQUESTTERM@@@std@@@std@@QAEAAV012@H@Z
_TEXT	SEGMENT PARA USE32 PUBLIC 'CODE'
_TEXT	ENDS
;	COMDAT ?empty@?$vector@PAUtagQUESTTERM@@V?$allocator@PAUtagQUESTTERM@@@std@@@std@@QBE_NXZ
_TEXT	SEGMENT PARA USE32 PUBLIC 'CODE'
_TEXT	ENDS
;	COMDAT ?clear@?$vector@PAUtagQUESTTERM@@V?$allocator@PAUtagQUESTTERM@@@std@@@std@@QAEXXZ
_TEXT	SEGMENT PARA USE32 PUBLIC 'CODE'
_TEXT	ENDS
;	COMDAT ?_Tidy@?$vector@PAUtagQUESTTERM@@V?$allocator@PAUtagQUESTTERM@@@std@@@std@@IAEXXZ
_TEXT	SEGMENT PARA USE32 PUBLIC 'CODE'
_TEXT	ENDS
;	COMDAT ??1?$vector@PAUtagQUESTTERM@@V?$allocator@PAUtagQUESTTERM@@@std@@@std@@QAE@XZ
_TEXT	SEGMENT PARA USE32 PUBLIC 'CODE'
_TEXT	ENDS
;	COMDAT ??0?$vector@PAUtagQUESTTERM@@V?$allocator@PAUtagQUESTTERM@@@std@@@std@@QAE@XZ
_TEXT	SEGMENT PARA USE32 PUBLIC 'CODE'
_TEXT	ENDS
;	COMDAT ??0?$_Vector_val@PAUtagQUESTTERM@@V?$allocator@PAUtagQUESTTERM@@@std@@@std@@IAE@V?$allocator@PAUtagQUESTTERM@@@1@@Z
_TEXT	SEGMENT PARA USE32 PUBLIC 'CODE'
_TEXT	ENDS
;	COMDAT ??0?$allocator@PAUtagQUESTTERM@@@std@@QAE@ABV01@@Z
_TEXT	SEGMENT PARA USE32 PUBLIC 'CODE'
_TEXT	ENDS
;	COMDAT ??0?$allocator@PAUtagQUESTTERM@@@std@@QAE@XZ
_TEXT	SEGMENT PARA USE32 PUBLIC 'CODE'
_TEXT	ENDS
;	COMDAT ?_Buy@?$vector@PAUtagQUESTTERM@@V?$allocator@PAUtagQUESTTERM@@@std@@@std@@IAE_NI@Z
_TEXT	SEGMENT PARA USE32 PUBLIC 'CODE'
_TEXT	ENDS
;	COMDAT ??_7CQuest@@6B@
CONST	SEGMENT DWORD USE32 PUBLIC 'CONST'
CONST	ENDS
sxdata	SEGMENT DWORD USE32 'SXDATA'
sxdata	ENDS
FLAT	GROUP _DATA, CONST, _BSS
	ASSUME	CS: FLAT, DS: FLAT, SS: FLAT
endif

INCLUDELIB LIBCMT
INCLUDELIB OLDNAMES

PUBLIC	?size@?$vector@PAUtagQUESTTEMP@@V?$allocator@PAUtagQUESTTEMP@@@std@@@std@@QBEIXZ ; std::vector<tagQUESTTEMP *,std::allocator<tagQUESTTEMP *> >::size
; Function compile flags: /Ogty
; File c:\program files (x86)\microsoft visual studio .net 2003\vc7\include\vector
;	COMDAT ?size@?$vector@PAUtagQUESTTEMP@@V?$allocator@PAUtagQUESTTEMP@@@std@@@std@@QBEIXZ
_TEXT	SEGMENT
?size@?$vector@PAUtagQUESTTEMP@@V?$allocator@PAUtagQUESTTEMP@@@std@@@std@@QBEIXZ PROC NEAR ; std::vector<tagQUESTTEMP *,std::allocator<tagQUESTTEMP *> >::size, COMDAT
; _this$ = ecx

; 516  : 		return (_Myfirst == 0 ? 0 : _Mylast - _Myfirst);

  00000	8b 51 04	 mov	 edx, DWORD PTR [ecx+4]
  00003	85 d2		 test	 edx, edx
  00005	75 03		 jne	 SHORT $L155364
  00007	33 c0		 xor	 eax, eax

; 517  : 		}

  00009	c3		 ret	 0
$L155364:

; 516  : 		return (_Myfirst == 0 ? 0 : _Mylast - _Myfirst);

  0000a	8b 41 08	 mov	 eax, DWORD PTR [ecx+8]
  0000d	2b c2		 sub	 eax, edx
  0000f	c1 f8 02	 sar	 eax, 2

; 517  : 		}

  00012	c3		 ret	 0
?size@?$vector@PAUtagQUESTTEMP@@V?$allocator@PAUtagQUESTTEMP@@@std@@@std@@QBEIXZ ENDP ; std::vector<tagQUESTTEMP *,std::allocator<tagQUESTTEMP *> >::size
_TEXT	ENDS
PUBLIC	??R?$less@K@std@@QBE_NABK0@Z			; std::less<unsigned long>::operator()
; Function compile flags: /Ogty
; File c:\program files (x86)\microsoft visual studio .net 2003\vc7\include\functional
;	COMDAT ??R?$less@K@std@@QBE_NABK0@Z
_TEXT	SEGMENT
__Left$ = 8						; size = 4
__Right$ = 12						; size = 4
??R?$less@K@std@@QBE_NABK0@Z PROC NEAR			; std::less<unsigned long>::operator(), COMDAT
; _this$ = ecx

; 139  : 		return (_Left < _Right);

  00000	8b 44 24 04	 mov	 eax, DWORD PTR __Left$[esp-4]
  00004	8b 08		 mov	 ecx, DWORD PTR [eax]
  00006	8b 54 24 08	 mov	 edx, DWORD PTR __Right$[esp-4]
  0000a	3b 0a		 cmp	 ecx, DWORD PTR [edx]
  0000c	1b c0		 sbb	 eax, eax
  0000e	f7 d8		 neg	 eax

; 140  : 		}

  00010	c2 08 00	 ret	 8
??R?$less@K@std@@QBE_NABK0@Z ENDP			; std::less<unsigned long>::operator()
_TEXT	ENDS
PUBLIC	?capacity@?$vector@PAUtagQUESTTERM@@V?$allocator@PAUtagQUESTTERM@@@std@@@std@@QBEIXZ ; std::vector<tagQUESTTERM *,std::allocator<tagQUESTTERM *> >::capacity
; Function compile flags: /Ogty
; File c:\program files (x86)\microsoft visual studio .net 2003\vc7\include\vector
;	COMDAT ?capacity@?$vector@PAUtagQUESTTERM@@V?$allocator@PAUtagQUESTTERM@@@std@@@std@@QBEIXZ
_TEXT	SEGMENT
?capacity@?$vector@PAUtagQUESTTERM@@V?$allocator@PAUtagQUESTTERM@@@std@@@std@@QBEIXZ PROC NEAR ; std::vector<tagQUESTTERM *,std::allocator<tagQUESTTERM *> >::capacity, COMDAT
; _this$ = ecx

; 458  : 		return (_Myfirst == 0 ? 0 : _Myend - _Myfirst);

  00000	8b 51 04	 mov	 edx, DWORD PTR [ecx+4]
  00003	85 d2		 test	 edx, edx
  00005	75 03		 jne	 SHORT $L155374
  00007	33 c0		 xor	 eax, eax

; 459  : 		}

  00009	c3		 ret	 0
$L155374:

; 458  : 		return (_Myfirst == 0 ? 0 : _Myend - _Myfirst);

  0000a	8b 41 0c	 mov	 eax, DWORD PTR [ecx+12]
  0000d	2b c2		 sub	 eax, edx
  0000f	c1 f8 02	 sar	 eax, 2

; 459  : 		}

  00012	c3		 ret	 0
?capacity@?$vector@PAUtagQUESTTERM@@V?$allocator@PAUtagQUESTTERM@@@std@@@std@@QBEIXZ ENDP ; std::vector<tagQUESTTERM *,std::allocator<tagQUESTTERM *> >::capacity
_TEXT	ENDS
PUBLIC	??R?$less@E@std@@QBE_NABE0@Z			; std::less<unsigned char>::operator()
; Function compile flags: /Ogty
; File c:\program files (x86)\microsoft visual studio .net 2003\vc7\include\functional
;	COMDAT ??R?$less@E@std@@QBE_NABE0@Z
_TEXT	SEGMENT
__Left$ = 8						; size = 4
__Right$ = 12						; size = 4
??R?$less@E@std@@QBE_NABE0@Z PROC NEAR			; std::less<unsigned char>::operator(), COMDAT
; _this$ = ecx

; 139  : 		return (_Left < _Right);

  00000	8b 44 24 04	 mov	 eax, DWORD PTR __Left$[esp-4]
  00004	8a 08		 mov	 cl, BYTE PTR [eax]
  00006	8b 54 24 08	 mov	 edx, DWORD PTR __Right$[esp-4]
  0000a	33 c0		 xor	 eax, eax
  0000c	3a 0a		 cmp	 cl, BYTE PTR [edx]
  0000e	1b c0		 sbb	 eax, eax
  00010	f7 d8		 neg	 eax

; 140  : 		}

  00012	c2 08 00	 ret	 8
??R?$less@E@std@@QBE_NABE0@Z ENDP			; std::less<unsigned char>::operator()
_TEXT	ENDS
PUBLIC	??8const_iterator@?$_Tree@V?$_Tmap_traits@EPAV?$map@KPAV?$vector@PAUtagQUESTTEMP@@V?$allocator@PAUtagQUESTTEMP@@@std@@@std@@U?$less@K@2@V?$allocator@U?$pair@$$CBKPAV?$vector@PAUtagQUESTTEMP@@V?$allocator@PAUtagQUESTTEMP@@@std@@@std@@@std@@@2@@std@@U?$less@E@2@V?$allocator@U?$pair@$$CBEPAV?$map@KPAV?$vector@PAUtagQUESTTEMP@@V?$allocator@PAUtagQUESTTEMP@@@std@@@std@@U?$less@K@2@V?$allocator@U?$pair@$$CBKPAV?$vector@PAUtagQUESTTEMP@@V?$allocator@PAUtagQUESTTEMP@@@std@@@std@@@std@@@2@@std@@@std@@@2@$0A@@std@@@std@@QBE_NABV012@@Z ; std::_Tree<std::_Tmap_traits<unsigned char,std::map<unsigned long,std::vector<tagQUESTTEMP *,std::allocator<tagQUESTTEMP *> > *,std::less<unsigned long>,std::allocator<std::pair<unsigned long const ,std::vector<tagQUESTTEMP *,std::allocator<tagQUESTTEMP *> > *> > > *,std::less<unsigned char>,std::allocator<std::pair<unsigned char const ,std::map<unsigned long,std::vector<tagQUESTTEMP *,std::allocator<tagQUESTTEMP *> > *,std::less<unsigned long>,std::allocator<std::pair<unsigned long const ,std::vector<tagQUESTTEMP *,std::allocator<tagQUESTTEMP *> > *> > > *> >,0> >::const_iterator::operator==
; Function compile flags: /Ogty
; File c:\program files (x86)\microsoft visual studio .net 2003\vc7\include\xtree
;	COMDAT ??8const_iterator@?$_Tree@V?$_Tmap_traits@EPAV?$map@KPAV?$vector@PAUtagQUESTTEMP@@V?$allocator@PAUtagQUESTTEMP@@@std@@@std@@U?$less@K@2@V?$allocator@U?$pair@$$CBKPAV?$vector@PAUtagQUESTTEMP@@V?$allocator@PAUtagQUESTTEMP@@@std@@@std@@@std@@@2@@std@@U?$less@E@2@V?$allocator@U?$pair@$$CBEPAV?$map@KPAV?$vector@PAUtagQUESTTEMP@@V?$allocator@PAUtagQUESTTEMP@@@std@@@std@@U?$less@K@2@V?$allocator@U?$pair@$$CBKPAV?$vector@PAUtagQUESTTEMP@@V?$allocator@PAUtagQUESTTEMP@@@std@@@std@@@std@@@2@@std@@@std@@@2@$0A@@std@@@std@@QBE_NABV012@@Z
_TEXT	SEGMENT
__Right$ = 8						; size = 4
??8const_iterator@?$_Tree@V?$_Tmap_traits@EPAV?$map@KPAV?$vector@PAUtagQUESTTEMP@@V?$allocator@PAUtagQUESTTEMP@@@std@@@std@@U?$less@K@2@V?$allocator@U?$pair@$$CBKPAV?$vector@PAUtagQUESTTEMP@@V?$allocator@PAUtagQUESTTEMP@@@std@@@std@@@std@@@2@@std@@U?$less@E@2@V?$allocator@U?$pair@$$CBEPAV?$map@KPAV?$vector@PAUtagQUESTTEMP@@V?$allocator@PAUtagQUESTTEMP@@@std@@@std@@U?$less@K@2@V?$allocator@U?$pair@$$CBKPAV?$vector@PAUtagQUESTTEMP@@V?$allocator@PAUtagQUESTTEMP@@@std@@@std@@@std@@@2@@std@@@std@@@2@$0A@@std@@@std@@QBE_NABV012@@Z PROC NEAR ; std::_Tree<std::_Tmap_traits<unsigned char,std::map<unsigned long,std::vector<tagQUESTTEMP *,std::allocator<tagQUESTTEMP *> > *,std::less<unsigned long>,std::allocator<std::pair<unsigned long const ,std::vector<tagQUESTTEMP *,std::allocator<tagQUESTTEMP *> > *> > > *,std::less<unsigned char>,std::allocator<std::pair<unsigned char const ,std::map<unsigned long,std::vector<tagQUESTTEMP *,std::allocator<tagQUESTTEMP *> > *,std::less<unsigned long>,std::allocator<std::pair<unsigned long const ,std::vector<tagQUESTTEMP *,std::allocator<tagQUESTTEMP *> > *> > > *> >,0> >::const_iterator::operator==, COMDAT
; _this$ = ecx

; 241  : 			return (_Ptr == _Right._Ptr);

  00000	8b 01		 mov	 eax, DWORD PTR [ecx]
  00002	8b 4c 24 04	 mov	 ecx, DWORD PTR __Right$[esp-4]
  00006	2b 01		 sub	 eax, DWORD PTR [ecx]
  00008	f7 d8		 neg	 eax
  0000a	1b c0		 sbb	 eax, eax
  0000c	40		 inc	 eax

; 242  : 			}

  0000d	c2 04 00	 ret	 4
??8const_iterator@?$_Tree@V?$_Tmap_traits@EPAV?$map@KPAV?$vector@PAUtagQUESTTEMP@@V?$allocator@PAUtagQUESTTEMP@@@std@@@std@@U?$less@K@2@V?$allocator@U?$pair@$$CBKPAV?$vector@PAUtagQUESTTEMP@@V?$allocator@PAUtagQUESTTEMP@@@std@@@std@@@std@@@2@@std@@U?$less@E@2@V?$allocator@U?$pair@$$CBEPAV?$map@KPAV?$vector@PAUtagQUESTTEMP@@V?$allocator@PAUtagQUESTTEMP@@@std@@@std@@U?$less@K@2@V?$allocator@U?$pair@$$CBKPAV?$vector@PAUtagQUESTTEMP@@V?$allocator@PAUtagQUESTTEMP@@@std@@@std@@@std@@@2@@std@@@std@@@2@$0A@@std@@@std@@QBE_NABV012@@Z ENDP ; std::_Tree<std::_Tmap_traits<unsigned char,std::map<unsigned long,std::vector<tagQUESTTEMP *,std::allocator<tagQUESTTEMP *> > *,std::less<unsigned long>,std::allocator<std::pair<unsigned long const ,std::vector<tagQUESTTEMP *,std::allocator<tagQUESTTEMP *> > *> > > *,std::less<unsigned char>,std::allocator<std::pair<unsigned char const ,std::map<unsigned long,std::vector<tagQUESTTEMP *,std::allocator<tagQUESTTEMP *> > *,std::less<unsigned long>,std::allocator<std::pair<unsigned long const ,std::vector<tagQUESTTEMP *,std::allocator<tagQUESTTEMP *> > *> > > *> >,0> >::const_iterator::operator==
_TEXT	ENDS
PUBLIC	?_Mynode@const_iterator@?$_Tree@V?$_Tmap_traits@EPAV?$map@KPAV?$vector@PAUtagQUESTTEMP@@V?$allocator@PAUtagQUESTTEMP@@@std@@@std@@U?$less@K@2@V?$allocator@U?$pair@$$CBKPAV?$vector@PAUtagQUESTTEMP@@V?$allocator@PAUtagQUESTTEMP@@@std@@@std@@@std@@@2@@std@@U?$less@E@2@V?$allocator@U?$pair@$$CBEPAV?$map@KPAV?$vector@PAUtagQUESTTEMP@@V?$allocator@PAUtagQUESTTEMP@@@std@@@std@@U?$less@K@2@V?$allocator@U?$pair@$$CBKPAV?$vector@PAUtagQUESTTEMP@@V?$allocator@PAUtagQUESTTEMP@@@std@@@std@@@std@@@2@@std@@@std@@@2@$0A@@std@@@std@@QBEPAU_Node@?$_Tree_nod@V?$_Tmap_traits@EPAV?$map@KPAV?$vector@PAUtagQUESTTEMP@@V?$allocator@PAUtagQUESTTEMP@@@std@@@std@@U?$less@K@2@V?$allocator@U?$pair@$$CBKPAV?$vector@PAUtagQUESTTEMP@@V?$allocator@PAUtagQUESTTEMP@@@std@@@std@@@std@@@2@@std@@U?$less@E@2@V?$allocator@U?$pair@$$CBEPAV?$map@KPAV?$vector@PAUtagQUESTTEMP@@V?$allocator@PAUtagQUESTTEMP@@@std@@@std@@U?$less@K@2@V?$allocator@U?$pair@$$CBKPAV?$vector@PAUtagQUESTTEMP@@V?$allocator@PAUtagQUESTTEMP@@@std@@@std@@@std@@@2@@std@@@std@@@2@$0A@@std@@@3@XZ ; std::_Tree<std::_Tmap_traits<unsigned char,std::map<unsigned long,std::vector<tagQUESTTEMP *,std::allocator<tagQUESTTEMP *> > *,std::less<unsigned long>,std::allocator<std::pair<unsigned long const ,std::vector<tagQUESTTEMP *,std::allocator<tagQUESTTEMP *> > *> > > *,std::less<unsigned char>,std::allocator<std::pair<unsigned char const ,std::map<unsigned long,std::vector<tagQUESTTEMP *,std::allocator<tagQUESTTEMP *> > *,std::less<unsigned long>,std::allocator<std::pair<unsigned long const ,std::vector<tagQUESTTEMP *,std::allocator<tagQUESTTEMP *> > *> > > *> >,0> >::const_iterator::_Mynode
; Function compile flags: /Ogty
;	COMDAT ?_Mynode@const_iterator@?$_Tree@V?$_Tmap_traits@EPAV?$map@KPAV?$vector@PAUtagQUESTTEMP@@V?$allocator@PAUtagQUESTTEMP@@@std@@@std@@U?$less@K@2@V?$allocator@U?$pair@$$CBKPAV?$vector@PAUtagQUESTTEMP@@V?$allocator@PAUtagQUESTTEMP@@@std@@@std@@@std@@@2@@std@@U?$less@E@2@V?$allocator@U?$pair@$$CBEPAV?$map@KPAV?$vector@PAUtagQUESTTEMP@@V?$allocator@PAUtagQUESTTEMP@@@std@@@std@@U?$less@K@2@V?$allocator@U?$pair@$$CBKPAV?$vector@PAUtagQUESTTEMP@@V?$allocator@PAUtagQUESTTEMP@@@std@@@std@@@std@@@2@@std@@@std@@@2@$0A@@std@@@std@@QBEPAU_Node@?$_Tree_nod@V?$_Tmap_traits@EPAV?$map@KPAV?$vector@PAUtagQUESTTEMP@@V?$allocator@PAUtagQUESTTEMP@@@std@@@std@@U?$less@K@2@V?$allocator@U?$pair@$$CBKPAV?$vector@PAUtagQUESTTEMP@@V?$allocator@PAUtagQUESTTEMP@@@std@@@std@@@std@@@2@@std@@U?$less@E@2@V?$allocator@U?$pair@$$CBEPAV?$map@KPAV?$vector@PAUtagQUESTTEMP@@V?$allocator@PAUtagQUESTTEMP@@@std@@@std@@U?$less@K@2@V?$allocator@U?$pair@$$CBKPAV?$vector@PAUtagQUESTTEMP@@V?$allocator@PAUtagQUESTTEMP@@@std@@@std@@@std@@@2@@std@@@std@@@2@$0A@@std@@@3@XZ
_TEXT	SEGMENT
?_Mynode@const_iterator@?$_Tree@V?$_Tmap_traits@EPAV?$map@KPAV?$vector@PAUtagQUESTTEMP@@V?$allocator@PAUtagQUESTTEMP@@@std@@@std@@U?$less@K@2@V?$allocator@U?$pair@$$CBKPAV?$vector@PAUtagQUESTTEMP@@V?$allocator@PAUtagQUESTTEMP@@@std@@@std@@@std@@@2@@std@@U?$less@E@2@V?$allocator@U?$pair@$$CBEPAV?$map@KPAV?$vector@PAUtagQUESTTEMP@@V?$allocator@PAUtagQUESTTEMP@@@std@@@std@@U?$less@K@2@V?$allocator@U?$pair@$$CBKPAV?$vector@PAUtagQUESTTEMP@@V?$allocator@PAUtagQUESTTEMP@@@std@@@std@@@std@@@2@@std@@@std@@@2@$0A@@std@@@std@@QBEPAU_Node@?$_Tree_nod@V?$_Tmap_traits@EPAV?$map@KPAV?$vector@PAUtagQUESTTEMP@@V?$allocator@PAUtagQUESTTEMP@@@std@@@std@@U?$less@K@2@V?$allocator@U?$pair@$$CBKPAV?$vector@PAUtagQUESTTEMP@@V?$allocator@PAUtagQUESTTEMP@@@std@@@std@@@std@@@2@@std@@U?$less@E@2@V?$allocator@U?$pair@$$CBEPAV?$map@KPAV?$vector@PAUtagQUESTTEMP@@V?$allocator@PAUtagQUESTTEMP@@@std@@@std@@U?$less@K@2@V?$allocator@U?$pair@$$CBKPAV?$vector@PAUtagQUESTTEMP@@V?$allocator@PAUtagQUESTTEMP@@@std@@@std@@@std@@@2@@std@@@std@@@2@$0A@@std@@@3@XZ PROC NEAR ; std::_Tree<std::_Tmap_traits<unsigned char,std::map<unsigned long,std::vector<tagQUESTTEMP *,std::allocator<tagQUESTTEMP *> > *,std::less<unsigned long>,std::allocator<std::pair<unsigned long const ,std::vector<tagQUESTTEMP *,std::allocator<tagQUESTTEMP *> > *> > > *,std::less<unsigned char>,std::allocator<std::pair<unsigned char const ,std::map<unsigned long,std::vector<tagQUESTTEMP *,std::allocator<tagQUESTTEMP *> > *,std::less<unsigned long>,std::allocator<std::pair<unsigned long const ,std::vector<tagQUESTTEMP *,std::allocator<tagQUESTTEMP *> > *> > > *> >,0> >::const_iterator::_Mynode, COMDAT
; _this$ = ecx

; 284  : 			return (_Ptr);

  00000	8b 01		 mov	 eax, DWORD PTR [ecx]

; 285  : 			}

  00002	c3		 ret	 0
?_Mynode@const_iterator@?$_Tree@V?$_Tmap_traits@EPAV?$map@KPAV?$vector@PAUtagQUESTTEMP@@V?$allocator@PAUtagQUESTTEMP@@@std@@@std@@U?$less@K@2@V?$allocator@U?$pair@$$CBKPAV?$vector@PAUtagQUESTTEMP@@V?$allocator@PAUtagQUESTTEMP@@@std@@@std@@@std@@@2@@std@@U?$less@E@2@V?$allocator@U?$pair@$$CBEPAV?$map@KPAV?$vector@PAUtagQUESTTEMP@@V?$allocator@PAUtagQUESTTEMP@@@std@@@std@@U?$less@K@2@V?$allocator@U?$pair@$$CBKPAV?$vector@PAUtagQUESTTEMP@@V?$allocator@PAUtagQUESTTEMP@@@std@@@std@@@std@@@2@@std@@@std@@@2@$0A@@std@@@std@@QBEPAU_Node@?$_Tree_nod@V?$_Tmap_traits@EPAV?$map@KPAV?$vector@PAUtagQUESTTEMP@@V?$allocator@PAUtagQUESTTEMP@@@std@@@std@@U?$less@K@2@V?$allocator@U?$pair@$$CBKPAV?$vector@PAUtagQUESTTEMP@@V?$allocator@PAUtagQUESTTEMP@@@std@@@std@@@std@@@2@@std@@U?$less@E@2@V?$allocator@U?$pair@$$CBEPAV?$map@KPAV?$vector@PAUtagQUESTTEMP@@V?$allocator@PAUtagQUESTTEMP@@@std@@@std@@U?$less@K@2@V?$allocator@U?$pair@$$CBKPAV?$vector@PAUtagQUESTTEMP@@V?$allocator@PAUtagQUESTTEMP@@@std@@@std@@@std@@@2@@std@@@std@@@2@$0A@@std@@@3@XZ ENDP ; std::_Tree<std::_Tmap_traits<unsigned char,std::map<unsigned long,std::vector<tagQUESTTEMP *,std::allocator<tagQUESTTEMP *> > *,std::less<unsigned long>,std::allocator<std::pair<unsigned long const ,std::vector<tagQUESTTEMP *,std::allocator<tagQUESTTEMP *> > *> > > *,std::less<unsigned char>,std::allocator<std::pair<unsigned char const ,std::map<unsigned long,std::vector<tagQUESTTEMP *,std::allocator<tagQUESTTEMP *> > *,std::less<unsigned long>,std::allocator<std::pair<unsigned long const ,std::vector<tagQUESTTEMP *,std::allocator<tagQUESTTEMP *> > *> > > *> >,0> >::const_iterator::_Mynode
_TEXT	ENDS
PUBLIC	??8const_iterator@?$_Tree@V?$_Tmap_traits@KPAV?$vector@PAUtagQUESTTEMP@@V?$allocator@PAUtagQUESTTEMP@@@std@@@std@@U?$less@K@2@V?$allocator@U?$pair@$$CBKPAV?$vector@PAUtagQUESTTEMP@@V?$allocator@PAUtagQUESTTEMP@@@std@@@std@@@std@@@2@$0A@@std@@@std@@QBE_NABV012@@Z ; std::_Tree<std::_Tmap_traits<unsigned long,std::vector<tagQUESTTEMP *,std::allocator<tagQUESTTEMP *> > *,std::less<unsigned long>,std::allocator<std::pair<unsigned long const ,std::vector<tagQUESTTEMP *,std::allocator<tagQUESTTEMP *> > *> >,0> >::const_iterator::operator==
; Function compile flags: /Ogty
;	COMDAT ??8const_iterator@?$_Tree@V?$_Tmap_traits@KPAV?$vector@PAUtagQUESTTEMP@@V?$allocator@PAUtagQUESTTEMP@@@std@@@std@@U?$less@K@2@V?$allocator@U?$pair@$$CBKPAV?$vector@PAUtagQUESTTEMP@@V?$allocator@PAUtagQUESTTEMP@@@std@@@std@@@std@@@2@$0A@@std@@@std@@QBE_NABV012@@Z
_TEXT	SEGMENT
__Right$ = 8						; size = 4
??8const_iterator@?$_Tree@V?$_Tmap_traits@KPAV?$vector@PAUtagQUESTTEMP@@V?$allocator@PAUtagQUESTTEMP@@@std@@@std@@U?$less@K@2@V?$allocator@U?$pair@$$CBKPAV?$vector@PAUtagQUESTTEMP@@V?$allocator@PAUtagQUESTTEMP@@@std@@@std@@@std@@@2@$0A@@std@@@std@@QBE_NABV012@@Z PROC NEAR ; std::_Tree<std::_Tmap_traits<unsigned long,std::vector<tagQUESTTEMP *,std::allocator<tagQUESTTEMP *> > *,std::less<unsigned long>,std::allocator<std::pair<unsigned long const ,std::vector<tagQUESTTEMP *,std::allocator<tagQUESTTEMP *> > *> >,0> >::const_iterator::operator==, COMDAT
; _this$ = ecx

; 241  : 			return (_Ptr == _Right._Ptr);

  00000	8b 01		 mov	 eax, DWORD PTR [ecx]
  00002	8b 4c 24 04	 mov	 ecx, DWORD PTR __Right$[esp-4]
  00006	2b 01		 sub	 eax, DWORD PTR [ecx]
  00008	f7 d8		 neg	 eax
  0000a	1b c0		 sbb	 eax, eax
  0000c	40		 inc	 eax

; 242  : 			}

  0000d	c2 04 00	 ret	 4
??8const_iterator@?$_Tree@V?$_Tmap_traits@KPAV?$vector@PAUtagQUESTTEMP@@V?$allocator@PAUtagQUESTTEMP@@@std@@@std@@U?$less@K@2@V?$allocator@U?$pair@$$CBKPAV?$vector@PAUtagQUESTTEMP@@V?$allocator@PAUtagQUESTTEMP@@@std@@@std@@@std@@@2@$0A@@std@@@std@@QBE_NABV012@@Z ENDP ; std::_Tree<std::_Tmap_traits<unsigned long,std::vector<tagQUESTTEMP *,std::allocator<tagQUESTTEMP *> > *,std::less<unsigned long>,std::allocator<std::pair<unsigned long const ,std::vector<tagQUESTTEMP *,std::allocator<tagQUESTTEMP *> > *> >,0> >::const_iterator::operator==
_TEXT	ENDS
PUBLIC	?_Mynode@const_iterator@?$_Tree@V?$_Tmap_traits@KPAV?$vector@PAUtagQUESTTEMP@@V?$allocator@PAUtagQUESTTEMP@@@std@@@std@@U?$less@K@2@V?$allocator@U?$pair@$$CBKPAV?$vector@PAUtagQUESTTEMP@@V?$allocator@PAUtagQUESTTEMP@@@std@@@std@@@std@@@2@$0A@@std@@@std@@QBEPAU_Node@?$_Tree_nod@V?$_Tmap_traits@KPAV?$vector@PAUtagQUESTTEMP@@V?$allocator@PAUtagQUESTTEMP@@@std@@@std@@U?$less@K@2@V?$allocator@U?$pair@$$CBKPAV?$vector@PAUtagQUESTTEMP@@V?$allocator@PAUtagQUESTTEMP@@@std@@@std@@@std@@@2@$0A@@std@@@3@XZ ; std::_Tree<std::_Tmap_traits<unsigned long,std::vector<tagQUESTTEMP *,std::allocator<tagQUESTTEMP *> > *,std::less<unsigned long>,std::allocator<std::pair<unsigned long const ,std::vector<tagQUESTTEMP *,std::allocator<tagQUESTTEMP *> > *> >,0> >::const_iterator::_Mynode
; Function compile flags: /Ogty
;	COMDAT ?_Mynode@const_iterator@?$_Tree@V?$_Tmap_traits@KPAV?$vector@PAUtagQUESTTEMP@@V?$allocator@PAUtagQUESTTEMP@@@std@@@std@@U?$less@K@2@V?$allocator@U?$pair@$$CBKPAV?$vector@PAUtagQUESTTEMP@@V?$allocator@PAUtagQUESTTEMP@@@std@@@std@@@std@@@2@$0A@@std@@@std@@QBEPAU_Node@?$_Tree_nod@V?$_Tmap_traits@KPAV?$vector@PAUtagQUESTTEMP@@V?$allocator@PAUtagQUESTTEMP@@@std@@@std@@U?$less@K@2@V?$allocator@U?$pair@$$CBKPAV?$vector@PAUtagQUESTTEMP@@V?$allocator@PAUtagQUESTTEMP@@@std@@@std@@@std@@@2@$0A@@std@@@3@XZ
_TEXT	SEGMENT
?_Mynode@const_iterator@?$_Tree@V?$_Tmap_traits@KPAV?$vector@PAUtagQUESTTEMP@@V?$allocator@PAUtagQUESTTEMP@@@std@@@std@@U?$less@K@2@V?$allocator@U?$pair@$$CBKPAV?$vector@PAUtagQUESTTEMP@@V?$allocator@PAUtagQUESTTEMP@@@std@@@std@@@std@@@2@$0A@@std@@@std@@QBEPAU_Node@?$_Tree_nod@V?$_Tmap_traits@KPAV?$vector@PAUtagQUESTTEMP@@V?$allocator@PAUtagQUESTTEMP@@@std@@@std@@U?$less@K@2@V?$allocator@U?$pair@$$CBKPAV?$vector@PAUtagQUESTTEMP@@V?$allocator@PAUtagQUESTTEMP@@@std@@@std@@@std@@@2@$0A@@std@@@3@XZ PROC NEAR ; std::_Tree<std::_Tmap_traits<unsigned long,std::vector<tagQUESTTEMP *,std::allocator<tagQUESTTEMP *> > *,std::less<unsigned long>,std::allocator<std::pair<unsigned long const ,std::vector<tagQUESTTEMP *,std::allocator<tagQUESTTEMP *> > *> >,0> >::const_iterator::_Mynode, COMDAT
; _this$ = ecx

; 284  : 			return (_Ptr);

  00000	8b 01		 mov	 eax, DWORD PTR [ecx]

; 285  : 			}

  00002	c3		 ret	 0
?_Mynode@const_iterator@?$_Tree@V?$_Tmap_traits@KPAV?$vector@PAUtagQUESTTEMP@@V?$allocator@PAUtagQUESTTEMP@@@std@@@std@@U?$less@K@2@V?$allocator@U?$pair@$$CBKPAV?$vector@PAUtagQUESTTEMP@@V?$allocator@PAUtagQUESTTEMP@@@std@@@std@@@std@@@2@$0A@@std@@@std@@QBEPAU_Node@?$_Tree_nod@V?$_Tmap_traits@KPAV?$vector@PAUtagQUESTTEMP@@V?$allocator@PAUtagQUESTTEMP@@@std@@@std@@U?$less@K@2@V?$allocator@U?$pair@$$CBKPAV?$vector@PAUtagQUESTTEMP@@V?$allocator@PAUtagQUESTTEMP@@@std@@@std@@@std@@@2@$0A@@std@@@3@XZ ENDP ; std::_Tree<std::_Tmap_traits<unsigned long,std::vector<tagQUESTTEMP *,std::allocator<tagQUESTTEMP *> > *,std::less<unsigned long>,std::allocator<std::pair<unsigned long const ,std::vector<tagQUESTTEMP *,std::allocator<tagQUESTTEMP *> > *> >,0> >::const_iterator::_Mynode
_TEXT	ENDS
PUBLIC	??0const_iterator@?$_Tree@V?$_Tmap_traits@EPAVCTInven@@U?$less@E@std@@V?$allocator@U?$pair@$$CBEPAVCTInven@@@std@@@3@$0A@@std@@@std@@QAE@XZ ; std::_Tree<std::_Tmap_traits<unsigned char,CTInven *,std::less<unsigned char>,std::allocator<std::pair<unsigned char const ,CTInven *> >,0> >::const_iterator::const_iterator
; Function compile flags: /Ogty
;	COMDAT ??0const_iterator@?$_Tree@V?$_Tmap_traits@EPAVCTInven@@U?$less@E@std@@V?$allocator@U?$pair@$$CBEPAVCTInven@@@std@@@3@$0A@@std@@@std@@QAE@XZ
_TEXT	SEGMENT
??0const_iterator@?$_Tree@V?$_Tmap_traits@EPAVCTInven@@U?$less@E@std@@V?$allocator@U?$pair@$$CBEPAVCTInven@@@std@@@3@$0A@@std@@@std@@QAE@XZ PROC NEAR ; std::_Tree<std::_Tmap_traits<unsigned char,CTInven *,std::less<unsigned char>,std::allocator<std::pair<unsigned char const ,CTInven *> >,0> >::const_iterator::const_iterator, COMDAT
; _this$ = ecx

; 193  : 			{	// construct with null node pointer

  00000	8b c1		 mov	 eax, ecx
  00002	c7 00 00 00 00
	00		 mov	 DWORD PTR [eax], 0

; 194  : 			}

  00008	c3		 ret	 0
??0const_iterator@?$_Tree@V?$_Tmap_traits@EPAVCTInven@@U?$less@E@std@@V?$allocator@U?$pair@$$CBEPAVCTInven@@@std@@@3@$0A@@std@@@std@@QAE@XZ ENDP ; std::_Tree<std::_Tmap_traits<unsigned char,CTInven *,std::less<unsigned char>,std::allocator<std::pair<unsigned char const ,CTInven *> >,0> >::const_iterator::const_iterator
_TEXT	ENDS
PUBLIC	??8const_iterator@?$_Tree@V?$_Tmap_traits@EPAVCTInven@@U?$less@E@std@@V?$allocator@U?$pair@$$CBEPAVCTInven@@@std@@@3@$0A@@std@@@std@@QBE_NABV012@@Z ; std::_Tree<std::_Tmap_traits<unsigned char,CTInven *,std::less<unsigned char>,std::allocator<std::pair<unsigned char const ,CTInven *> >,0> >::const_iterator::operator==
; Function compile flags: /Ogty
;	COMDAT ??8const_iterator@?$_Tree@V?$_Tmap_traits@EPAVCTInven@@U?$less@E@std@@V?$allocator@U?$pair@$$CBEPAVCTInven@@@std@@@3@$0A@@std@@@std@@QBE_NABV012@@Z
_TEXT	SEGMENT
__Right$ = 8						; size = 4
??8const_iterator@?$_Tree@V?$_Tmap_traits@EPAVCTInven@@U?$less@E@std@@V?$allocator@U?$pair@$$CBEPAVCTInven@@@std@@@3@$0A@@std@@@std@@QBE_NABV012@@Z PROC NEAR ; std::_Tree<std::_Tmap_traits<unsigned char,CTInven *,std::less<unsigned char>,std::allocator<std::pair<unsigned char const ,CTInven *> >,0> >::const_iterator::operator==, COMDAT
; _this$ = ecx

; 241  : 			return (_Ptr == _Right._Ptr);

  00000	8b 01		 mov	 eax, DWORD PTR [ecx]
  00002	8b 4c 24 04	 mov	 ecx, DWORD PTR __Right$[esp-4]
  00006	2b 01		 sub	 eax, DWORD PTR [ecx]
  00008	f7 d8		 neg	 eax
  0000a	1b c0		 sbb	 eax, eax
  0000c	40		 inc	 eax

; 242  : 			}

  0000d	c2 04 00	 ret	 4
??8const_iterator@?$_Tree@V?$_Tmap_traits@EPAVCTInven@@U?$less@E@std@@V?$allocator@U?$pair@$$CBEPAVCTInven@@@std@@@3@$0A@@std@@@std@@QBE_NABV012@@Z ENDP ; std::_Tree<std::_Tmap_traits<unsigned char,CTInven *,std::less<unsigned char>,std::allocator<std::pair<unsigned char const ,CTInven *> >,0> >::const_iterator::operator==
_TEXT	ENDS
PUBLIC	??0const_iterator@?$_Tree@V?$_Tmap_traits@EPAVCTItem@@U?$less@E@std@@V?$allocator@U?$pair@$$CBEPAVCTItem@@@std@@@3@$0A@@std@@@std@@QAE@XZ ; std::_Tree<std::_Tmap_traits<unsigned char,CTItem *,std::less<unsigned char>,std::allocator<std::pair<unsigned char const ,CTItem *> >,0> >::const_iterator::const_iterator
; Function compile flags: /Ogty
;	COMDAT ??0const_iterator@?$_Tree@V?$_Tmap_traits@EPAVCTItem@@U?$less@E@std@@V?$allocator@U?$pair@$$CBEPAVCTItem@@@std@@@3@$0A@@std@@@std@@QAE@XZ
_TEXT	SEGMENT
??0const_iterator@?$_Tree@V?$_Tmap_traits@EPAVCTItem@@U?$less@E@std@@V?$allocator@U?$pair@$$CBEPAVCTItem@@@std@@@3@$0A@@std@@@std@@QAE@XZ PROC NEAR ; std::_Tree<std::_Tmap_traits<unsigned char,CTItem *,std::less<unsigned char>,std::allocator<std::pair<unsigned char const ,CTItem *> >,0> >::const_iterator::const_iterator, COMDAT
; _this$ = ecx

; 193  : 			{	// construct with null node pointer

  00000	8b c1		 mov	 eax, ecx
  00002	c7 00 00 00 00
	00		 mov	 DWORD PTR [eax], 0

; 194  : 			}

  00008	c3		 ret	 0
??0const_iterator@?$_Tree@V?$_Tmap_traits@EPAVCTItem@@U?$less@E@std@@V?$allocator@U?$pair@$$CBEPAVCTItem@@@std@@@3@$0A@@std@@@std@@QAE@XZ ENDP ; std::_Tree<std::_Tmap_traits<unsigned char,CTItem *,std::less<unsigned char>,std::allocator<std::pair<unsigned char const ,CTItem *> >,0> >::const_iterator::const_iterator
_TEXT	ENDS
PUBLIC	??8const_iterator@?$_Tree@V?$_Tmap_traits@EPAVCTItem@@U?$less@E@std@@V?$allocator@U?$pair@$$CBEPAVCTItem@@@std@@@3@$0A@@std@@@std@@QBE_NABV012@@Z ; std::_Tree<std::_Tmap_traits<unsigned char,CTItem *,std::less<unsigned char>,std::allocator<std::pair<unsigned char const ,CTItem *> >,0> >::const_iterator::operator==
; Function compile flags: /Ogty
;	COMDAT ??8const_iterator@?$_Tree@V?$_Tmap_traits@EPAVCTItem@@U?$less@E@std@@V?$allocator@U?$pair@$$CBEPAVCTItem@@@std@@@3@$0A@@std@@@std@@QBE_NABV012@@Z
_TEXT	SEGMENT
__Right$ = 8						; size = 4
??8const_iterator@?$_Tree@V?$_Tmap_traits@EPAVCTItem@@U?$less@E@std@@V?$allocator@U?$pair@$$CBEPAVCTItem@@@std@@@3@$0A@@std@@@std@@QBE_NABV012@@Z PROC NEAR ; std::_Tree<std::_Tmap_traits<unsigned char,CTItem *,std::less<unsigned char>,std::allocator<std::pair<unsigned char const ,CTItem *> >,0> >::const_iterator::operator==, COMDAT
; _this$ = ecx

; 241  : 			return (_Ptr == _Right._Ptr);

  00000	8b 01		 mov	 eax, DWORD PTR [ecx]
  00002	8b 4c 24 04	 mov	 ecx, DWORD PTR __Right$[esp-4]
  00006	2b 01		 sub	 eax, DWORD PTR [ecx]
  00008	f7 d8		 neg	 eax
  0000a	1b c0		 sbb	 eax, eax
  0000c	40		 inc	 eax

; 242  : 			}

  0000d	c2 04 00	 ret	 4
??8const_iterator@?$_Tree@V?$_Tmap_traits@EPAVCTItem@@U?$less@E@std@@V?$allocator@U?$pair@$$CBEPAVCTItem@@@std@@@3@$0A@@std@@@std@@QBE_NABV012@@Z ENDP ; std::_Tree<std::_Tmap_traits<unsigned char,CTItem *,std::less<unsigned char>,std::allocator<std::pair<unsigned char const ,CTItem *> >,0> >::const_iterator::operator==
_TEXT	ENDS
PUBLIC	?_Left@?$_Tree@V?$_Tmap_traits@EPAVCTInven@@U?$less@E@std@@V?$allocator@U?$pair@$$CBEPAVCTInven@@@std@@@3@$0A@@std@@@std@@KAAAPAU_Node@?$_Tree_nod@V?$_Tmap_traits@EPAVCTInven@@U?$less@E@std@@V?$allocator@U?$pair@$$CBEPAVCTInven@@@std@@@3@$0A@@std@@@2@PAU342@@Z ; std::_Tree<std::_Tmap_traits<unsigned char,CTInven *,std::less<unsigned char>,std::allocator<std::pair<unsigned char const ,CTInven *> >,0> >::_Left
; Function compile flags: /Ogty
;	COMDAT ?_Left@?$_Tree@V?$_Tmap_traits@EPAVCTInven@@U?$less@E@std@@V?$allocator@U?$pair@$$CBEPAVCTInven@@@std@@@3@$0A@@std@@@std@@KAAAPAU_Node@?$_Tree_nod@V?$_Tmap_traits@EPAVCTInven@@U?$less@E@std@@V?$allocator@U?$pair@$$CBEPAVCTInven@@@std@@@3@$0A@@std@@@2@PAU342@@Z
_TEXT	SEGMENT
__Pnode$ = 8						; size = 4
?_Left@?$_Tree@V?$_Tmap_traits@EPAVCTInven@@U?$less@E@std@@V?$allocator@U?$pair@$$CBEPAVCTInven@@@std@@@3@$0A@@std@@@std@@KAAAPAU_Node@?$_Tree_nod@V?$_Tmap_traits@EPAVCTInven@@U?$less@E@std@@V?$allocator@U?$pair@$$CBEPAVCTInven@@@std@@@3@$0A@@std@@@2@PAU342@@Z PROC NEAR ; std::_Tree<std::_Tmap_traits<unsigned char,CTInven *,std::less<unsigned char>,std::allocator<std::pair<unsigned char const ,CTInven *> >,0> >::_Left, COMDAT

; 147  : 		return ((_Nodepref)(*_Pnode)._Left);

  00000	8b 44 24 04	 mov	 eax, DWORD PTR __Pnode$[esp-4]

; 148  : 		}

  00004	c3		 ret	 0
?_Left@?$_Tree@V?$_Tmap_traits@EPAVCTInven@@U?$less@E@std@@V?$allocator@U?$pair@$$CBEPAVCTInven@@@std@@@3@$0A@@std@@@std@@KAAAPAU_Node@?$_Tree_nod@V?$_Tmap_traits@EPAVCTInven@@U?$less@E@std@@V?$allocator@U?$pair@$$CBEPAVCTInven@@@std@@@3@$0A@@std@@@2@PAU342@@Z ENDP ; std::_Tree<std::_Tmap_traits<unsigned char,CTInven *,std::less<unsigned char>,std::allocator<std::pair<unsigned char const ,CTInven *> >,0> >::_Left
_TEXT	ENDS
PUBLIC	?_Myval@?$_Tree@V?$_Tmap_traits@EPAVCTInven@@U?$less@E@std@@V?$allocator@U?$pair@$$CBEPAVCTInven@@@std@@@3@$0A@@std@@@std@@KAAAU?$pair@$$CBEPAVCTInven@@@2@PAU_Node@?$_Tree_nod@V?$_Tmap_traits@EPAVCTInven@@U?$less@E@std@@V?$allocator@U?$pair@$$CBEPAVCTInven@@@std@@@3@$0A@@std@@@2@@Z ; std::_Tree<std::_Tmap_traits<unsigned char,CTInven *,std::less<unsigned char>,std::allocator<std::pair<unsigned char const ,CTInven *> >,0> >::_Myval
; Function compile flags: /Ogty
;	COMDAT ?_Myval@?$_Tree@V?$_Tmap_traits@EPAVCTInven@@U?$less@E@std@@V?$allocator@U?$pair@$$CBEPAVCTInven@@@std@@@3@$0A@@std@@@std@@KAAAU?$pair@$$CBEPAVCTInven@@@2@PAU_Node@?$_Tree_nod@V?$_Tmap_traits@EPAVCTInven@@U?$less@E@std@@V?$allocator@U?$pair@$$CBEPAVCTInven@@@std@@@3@$0A@@std@@@2@@Z
_TEXT	SEGMENT
__Pnode$ = 8						; size = 4
?_Myval@?$_Tree@V?$_Tmap_traits@EPAVCTInven@@U?$less@E@std@@V?$allocator@U?$pair@$$CBEPAVCTInven@@@std@@@3@$0A@@std@@@std@@KAAAU?$pair@$$CBEPAVCTInven@@@2@PAU_Node@?$_Tree_nod@V?$_Tmap_traits@EPAVCTInven@@U?$less@E@std@@V?$allocator@U?$pair@$$CBEPAVCTInven@@@std@@@3@$0A@@std@@@2@@Z PROC NEAR ; std::_Tree<std::_Tmap_traits<unsigned char,CTInven *,std::less<unsigned char>,std::allocator<std::pair<unsigned char const ,CTInven *> >,0> >::_Myval, COMDAT

; 162  : 		return ((_Vref)(*_Pnode)._Myval);

  00000	8b 44 24 04	 mov	 eax, DWORD PTR __Pnode$[esp-4]
  00004	83 c0 0c	 add	 eax, 12			; 0000000cH

; 163  : 		}

  00007	c3		 ret	 0
?_Myval@?$_Tree@V?$_Tmap_traits@EPAVCTInven@@U?$less@E@std@@V?$allocator@U?$pair@$$CBEPAVCTInven@@@std@@@3@$0A@@std@@@std@@KAAAU?$pair@$$CBEPAVCTInven@@@2@PAU_Node@?$_Tree_nod@V?$_Tmap_traits@EPAVCTInven@@U?$less@E@std@@V?$allocator@U?$pair@$$CBEPAVCTInven@@@std@@@3@$0A@@std@@@2@@Z ENDP ; std::_Tree<std::_Tmap_traits<unsigned char,CTInven *,std::less<unsigned char>,std::allocator<std::pair<unsigned char const ,CTInven *> >,0> >::_Myval
_TEXT	ENDS
PUBLIC	?_Left@?$_Tree@V?$_Tmap_traits@EPAVCTItem@@U?$less@E@std@@V?$allocator@U?$pair@$$CBEPAVCTItem@@@std@@@3@$0A@@std@@@std@@KAAAPAU_Node@?$_Tree_nod@V?$_Tmap_traits@EPAVCTItem@@U?$less@E@std@@V?$allocator@U?$pair@$$CBEPAVCTItem@@@std@@@3@$0A@@std@@@2@PAU342@@Z ; std::_Tree<std::_Tmap_traits<unsigned char,CTItem *,std::less<unsigned char>,std::allocator<std::pair<unsigned char const ,CTItem *> >,0> >::_Left
; Function compile flags: /Ogty
;	COMDAT ?_Left@?$_Tree@V?$_Tmap_traits@EPAVCTItem@@U?$less@E@std@@V?$allocator@U?$pair@$$CBEPAVCTItem@@@std@@@3@$0A@@std@@@std@@KAAAPAU_Node@?$_Tree_nod@V?$_Tmap_traits@EPAVCTItem@@U?$less@E@std@@V?$allocator@U?$pair@$$CBEPAVCTItem@@@std@@@3@$0A@@std@@@2@PAU342@@Z
_TEXT	SEGMENT
__Pnode$ = 8						; size = 4
?_Left@?$_Tree@V?$_Tmap_traits@EPAVCTItem@@U?$less@E@std@@V?$allocator@U?$pair@$$CBEPAVCTItem@@@std@@@3@$0A@@std@@@std@@KAAAPAU_Node@?$_Tree_nod@V?$_Tmap_traits@EPAVCTItem@@U?$less@E@std@@V?$allocator@U?$pair@$$CBEPAVCTItem@@@std@@@3@$0A@@std@@@2@PAU342@@Z PROC NEAR ; std::_Tree<std::_Tmap_traits<unsigned char,CTItem *,std::less<unsigned char>,std::allocator<std::pair<unsigned char const ,CTItem *> >,0> >::_Left, COMDAT

; 147  : 		return ((_Nodepref)(*_Pnode)._Left);

  00000	8b 44 24 04	 mov	 eax, DWORD PTR __Pnode$[esp-4]

; 148  : 		}

  00004	c3		 ret	 0
?_Left@?$_Tree@V?$_Tmap_traits@EPAVCTItem@@U?$less@E@std@@V?$allocator@U?$pair@$$CBEPAVCTItem@@@std@@@3@$0A@@std@@@std@@KAAAPAU_Node@?$_Tree_nod@V?$_Tmap_traits@EPAVCTItem@@U?$less@E@std@@V?$allocator@U?$pair@$$CBEPAVCTItem@@@std@@@3@$0A@@std@@@2@PAU342@@Z ENDP ; std::_Tree<std::_Tmap_traits<unsigned char,CTItem *,std::less<unsigned char>,std::allocator<std::pair<unsigned char const ,CTItem *> >,0> >::_Left
_TEXT	ENDS
PUBLIC	?_Myval@?$_Tree@V?$_Tmap_traits@EPAVCTItem@@U?$less@E@std@@V?$allocator@U?$pair@$$CBEPAVCTItem@@@std@@@3@$0A@@std@@@std@@KAAAU?$pair@$$CBEPAVCTItem@@@2@PAU_Node@?$_Tree_nod@V?$_Tmap_traits@EPAVCTItem@@U?$less@E@std@@V?$allocator@U?$pair@$$CBEPAVCTItem@@@std@@@3@$0A@@std@@@2@@Z ; std::_Tree<std::_Tmap_traits<unsigned char,CTItem *,std::less<unsigned char>,std::allocator<std::pair<unsigned char const ,CTItem *> >,0> >::_Myval
; Function compile flags: /Ogty
;	COMDAT ?_Myval@?$_Tree@V?$_Tmap_traits@EPAVCTItem@@U?$less@E@std@@V?$allocator@U?$pair@$$CBEPAVCTItem@@@std@@@3@$0A@@std@@@std@@KAAAU?$pair@$$CBEPAVCTItem@@@2@PAU_Node@?$_Tree_nod@V?$_Tmap_traits@EPAVCTItem@@U?$less@E@std@@V?$allocator@U?$pair@$$CBEPAVCTItem@@@std@@@3@$0A@@std@@@2@@Z
_TEXT	SEGMENT
__Pnode$ = 8						; size = 4
?_Myval@?$_Tree@V?$_Tmap_traits@EPAVCTItem@@U?$less@E@std@@V?$allocator@U?$pair@$$CBEPAVCTItem@@@std@@@3@$0A@@std@@@std@@KAAAU?$pair@$$CBEPAVCTItem@@@2@PAU_Node@?$_Tree_nod@V?$_Tmap_traits@EPAVCTItem@@U?$less@E@std@@V?$allocator@U?$pair@$$CBEPAVCTItem@@@std@@@3@$0A@@std@@@2@@Z PROC NEAR ; std::_Tree<std::_Tmap_traits<unsigned char,CTItem *,std::less<unsigned char>,std::allocator<std::pair<unsigned char const ,CTItem *> >,0> >::_Myval, COMDAT

; 162  : 		return ((_Vref)(*_Pnode)._Myval);

  00000	8b 44 24 04	 mov	 eax, DWORD PTR __Pnode$[esp-4]
  00004	83 c0 0c	 add	 eax, 12			; 0000000cH

; 163  : 		}

  00007	c3		 ret	 0
?_Myval@?$_Tree@V?$_Tmap_traits@EPAVCTItem@@U?$less@E@std@@V?$allocator@U?$pair@$$CBEPAVCTItem@@@std@@@3@$0A@@std@@@std@@KAAAU?$pair@$$CBEPAVCTItem@@@2@PAU_Node@?$_Tree_nod@V?$_Tmap_traits@EPAVCTItem@@U?$less@E@std@@V?$allocator@U?$pair@$$CBEPAVCTItem@@@std@@@3@$0A@@std@@@2@@Z ENDP ; std::_Tree<std::_Tmap_traits<unsigned char,CTItem *,std::less<unsigned char>,std::allocator<std::pair<unsigned char const ,CTItem *> >,0> >::_Myval
_TEXT	ENDS
PUBLIC	?_Myval@?$_Tree@V?$_Tmap_traits@EPAV?$map@KPAV?$vector@PAUtagQUESTTEMP@@V?$allocator@PAUtagQUESTTEMP@@@std@@@std@@U?$less@K@2@V?$allocator@U?$pair@$$CBKPAV?$vector@PAUtagQUESTTEMP@@V?$allocator@PAUtagQUESTTEMP@@@std@@@std@@@std@@@2@@std@@U?$less@E@2@V?$allocator@U?$pair@$$CBEPAV?$map@KPAV?$vector@PAUtagQUESTTEMP@@V?$allocator@PAUtagQUESTTEMP@@@std@@@std@@U?$less@K@2@V?$allocator@U?$pair@$$CBKPAV?$vector@PAUtagQUESTTEMP@@V?$allocator@PAUtagQUESTTEMP@@@std@@@std@@@std@@@2@@std@@@std@@@2@$0A@@std@@@std@@KAAAU?$pair@$$CBEPAV?$map@KPAV?$vector@PAUtagQUESTTEMP@@V?$allocator@PAUtagQUESTTEMP@@@std@@@std@@U?$less@K@2@V?$allocator@U?$pair@$$CBKPAV?$vector@PAUtagQUESTTEMP@@V?$allocator@PAUtagQUESTTEMP@@@std@@@std@@@std@@@2@@std@@@2@PAU_Node@?$_Tree_nod@V?$_Tmap_traits@EPAV?$map@KPAV?$vector@PAUtagQUESTTEMP@@V?$allocator@PAUtagQUESTTEMP@@@std@@@std@@U?$less@K@2@V?$allocator@U?$pair@$$CBKPAV?$vector@PAUtagQUESTTEMP@@V?$allocator@PAUtagQUESTTEMP@@@std@@@std@@@std@@@2@@std@@U?$less@E@2@V?$allocator@U?$pair@$$CBEPAV?$map@KPAV?$vector@PAUtagQUESTTEMP@@V?$allocator@PAUtagQUESTTEMP@@@std@@@std@@U?$less@K@2@V?$allocator@U?$pair@$$CBKPAV?$vector@PAUtagQUESTTEMP@@V?$allocator@PAUtagQUESTTEMP@@@std@@@std@@@std@@@2@@std@@@std@@@2@$0A@@std@@@2@@Z ; std::_Tree<std::_Tmap_traits<unsigned char,std::map<unsigned long,std::vector<tagQUESTTEMP *,std::allocator<tagQUESTTEMP *> > *,std::less<unsigned long>,std::allocator<std::pair<unsigned long const ,std::vector<tagQUESTTEMP *,std::allocator<tagQUESTTEMP *> > *> > > *,std::less<unsigned char>,std::allocator<std::pair<unsigned char const ,std::map<unsigned long,std::vector<tagQUESTTEMP *,std::allocator<tagQUESTTEMP *> > *,std::less<unsigned long>,std::allocator<std::pair<unsigned long const ,std::vector<tagQUESTTEMP *,std::allocator<tagQUESTTEMP *> > *> > > *> >,0> >::_Myval
; Function compile flags: /Ogty
;	COMDAT ?_Myval@?$_Tree@V?$_Tmap_traits@EPAV?$map@KPAV?$vector@PAUtagQUESTTEMP@@V?$allocator@PAUtagQUESTTEMP@@@std@@@std@@U?$less@K@2@V?$allocator@U?$pair@$$CBKPAV?$vector@PAUtagQUESTTEMP@@V?$allocator@PAUtagQUESTTEMP@@@std@@@std@@@std@@@2@@std@@U?$less@E@2@V?$allocator@U?$pair@$$CBEPAV?$map@KPAV?$vector@PAUtagQUESTTEMP@@V?$allocator@PAUtagQUESTTEMP@@@std@@@std@@U?$less@K@2@V?$allocator@U?$pair@$$CBKPAV?$vector@PAUtagQUESTTEMP@@V?$allocator@PAUtagQUESTTEMP@@@std@@@std@@@std@@@2@@std@@@std@@@2@$0A@@std@@@std@@KAAAU?$pair@$$CBEPAV?$map@KPAV?$vector@PAUtagQUESTTEMP@@V?$allocator@PAUtagQUESTTEMP@@@std@@@std@@U?$less@K@2@V?$allocator@U?$pair@$$CBKPAV?$vector@PAUtagQUESTTEMP@@V?$allocator@PAUtagQUESTTEMP@@@std@@@std@@@std@@@2@@std@@@2@PAU_Node@?$_Tree_nod@V?$_Tmap_traits@EPAV?$map@KPAV?$vector@PAUtagQUESTTEMP@@V?$allocator@PAUtagQUESTTEMP@@@std@@@std@@U?$less@K@2@V?$allocator@U?$pair@$$CBKPAV?$vector@PAUtagQUESTTEMP@@V?$allocator@PAUtagQUESTTEMP@@@std@@@std@@@std@@@2@@std@@U?$less@E@2@V?$allocator@U?$pair@$$CBEPAV?$map@KPAV?$vector@PAUtagQUESTTEMP@@V?$allocator@PAUtagQUESTTEMP@@@std@@@std@@U?$less@K@2@V?$allocator@U?$pair@$$CBKPAV?$vector@PAUtagQUESTTEMP@@V?$allocator@PAUtagQUESTTEMP@@@std@@@std@@@std@@@2@@std@@@std@@@2@$0A@@std@@@2@@Z
_TEXT	SEGMENT
__Pnode$ = 8						; size = 4
?_Myval@?$_Tree@V?$_Tmap_traits@EPAV?$map@KPAV?$vector@PAUtagQUESTTEMP@@V?$allocator@PAUtagQUESTTEMP@@@std@@@std@@U?$less@K@2@V?$allocator@U?$pair@$$CBKPAV?$vector@PAUtagQUESTTEMP@@V?$allocator@PAUtagQUESTTEMP@@@std@@@std@@@std@@@2@@std@@U?$less@E@2@V?$allocator@U?$pair@$$CBEPAV?$map@KPAV?$vector@PAUtagQUESTTEMP@@V?$allocator@PAUtagQUESTTEMP@@@std@@@std@@U?$less@K@2@V?$allocator@U?$pair@$$CBKPAV?$vector@PAUtagQUESTTEMP@@V?$allocator@PAUtagQUESTTEMP@@@std@@@std@@@std@@@2@@std@@@std@@@2@$0A@@std@@@std@@KAAAU?$pair@$$CBEPAV?$map@KPAV?$vector@PAUtagQUESTTEMP@@V?$allocator@PAUtagQUESTTEMP@@@std@@@std@@U?$less@K@2@V?$allocator@U?$pair@$$CBKPAV?$vector@PAUtagQUESTTEMP@@V?$allocator@PAUtagQUESTTEMP@@@std@@@std@@@std@@@2@@std@@@2@PAU_Node@?$_Tree_nod@V?$_Tmap_traits@EPAV?$map@KPAV?$vector@PAUtagQUESTTEMP@@V?$allocator@PAUtagQUESTTEMP@@@std@@@std@@U?$less@K@2@V?$allocator@U?$pair@$$CBKPAV?$vector@PAUtagQUESTTEMP@@V?$allocator@PAUtagQUESTTEMP@@@std@@@std@@@std@@@2@@std@@U?$less@E@2@V?$allocator@U?$pair@$$CBEPAV?$map@KPAV?$vector@PAUtagQUESTTEMP@@V?$allocator@PAUtagQUESTTEMP@@@std@@@std@@U?$less@K@2@V?$allocator@U?$pair@$$CBKPAV?$vector@PAUtagQUESTTEMP@@V?$allocator@PAUtagQUESTTEMP@@@std@@@std@@@std@@@2@@std@@@std@@@2@$0A@@std@@@2@@Z PROC NEAR ; std::_Tree<std::_Tmap_traits<unsigned char,std::map<unsigned long,std::vector<tagQUESTTEMP *,std::allocator<tagQUESTTEMP *> > *,std::less<unsigned long>,std::allocator<std::pair<unsigned long const ,std::vector<tagQUESTTEMP *,std::allocator<tagQUESTTEMP *> > *> > > *,std::less<unsigned char>,std::allocator<std::pair<unsigned char const ,std::map<unsigned long,std::vector<tagQUESTTEMP *,std::allocator<tagQUESTTEMP *> > *,std::less<unsigned long>,std::allocator<std::pair<unsigned long const ,std::vector<tagQUESTTEMP *,std::allocator<tagQUESTTEMP *> > *> > > *> >,0> >::_Myval, COMDAT

; 162  : 		return ((_Vref)(*_Pnode)._Myval);

  00000	8b 44 24 04	 mov	 eax, DWORD PTR __Pnode$[esp-4]
  00004	83 c0 0c	 add	 eax, 12			; 0000000cH

; 163  : 		}

  00007	c3		 ret	 0
?_Myval@?$_Tree@V?$_Tmap_traits@EPAV?$map@KPAV?$vector@PAUtagQUESTTEMP@@V?$allocator@PAUtagQUESTTEMP@@@std@@@std@@U?$less@K@2@V?$allocator@U?$pair@$$CBKPAV?$vector@PAUtagQUESTTEMP@@V?$allocator@PAUtagQUESTTEMP@@@std@@@std@@@std@@@2@@std@@U?$less@E@2@V?$allocator@U?$pair@$$CBEPAV?$map@KPAV?$vector@PAUtagQUESTTEMP@@V?$allocator@PAUtagQUESTTEMP@@@std@@@std@@U?$less@K@2@V?$allocator@U?$pair@$$CBKPAV?$vector@PAUtagQUESTTEMP@@V?$allocator@PAUtagQUESTTEMP@@@std@@@std@@@std@@@2@@std@@@std@@@2@$0A@@std@@@std@@KAAAU?$pair@$$CBEPAV?$map@KPAV?$vector@PAUtagQUESTTEMP@@V?$allocator@PAUtagQUESTTEMP@@@std@@@std@@U?$less@K@2@V?$allocator@U?$pair@$$CBKPAV?$vector@PAUtagQUESTTEMP@@V?$allocator@PAUtagQUESTTEMP@@@std@@@std@@@std@@@2@@std@@@2@PAU_Node@?$_Tree_nod@V?$_Tmap_traits@EPAV?$map@KPAV?$vector@PAUtagQUESTTEMP@@V?$allocator@PAUtagQUESTTEMP@@@std@@@std@@U?$less@K@2@V?$allocator@U?$pair@$$CBKPAV?$vector@PAUtagQUESTTEMP@@V?$allocator@PAUtagQUESTTEMP@@@std@@@std@@@std@@@2@@std@@U?$less@E@2@V?$allocator@U?$pair@$$CBEPAV?$map@KPAV?$vector@PAUtagQUESTTEMP@@V?$allocator@PAUtagQUESTTEMP@@@std@@@std@@U?$less@K@2@V?$allocator@U?$pair@$$CBKPAV?$vector@PAUtagQUESTTEMP@@V?$allocator@PAUtagQUESTTEMP@@@std@@@std@@@std@@@2@@std@@@std@@@2@$0A@@std@@@2@@Z ENDP ; std::_Tree<std::_Tmap_traits<unsigned char,std::map<unsigned long,std::vector<tagQUESTTEMP *,std::allocator<tagQUESTTEMP *> > *,std::less<unsigned long>,std::allocator<std::pair<unsigned long const ,std::vector<tagQUESTTEMP *,std::allocator<tagQUESTTEMP *> > *> > > *,std::less<unsigned char>,std::allocator<std::pair<unsigned char const ,std::map<unsigned long,std::vector<tagQUESTTEMP *,std::allocator<tagQUESTTEMP *> > *,std::less<unsigned long>,std::allocator<std::pair<unsigned long const ,std::vector<tagQUESTTEMP *,std::allocator<tagQUESTTEMP *> > *> > > *> >,0> >::_Myval
_TEXT	ENDS
PUBLIC	?_Kfn@?$_Tmap_traits@EPAV?$map@KPAV?$vector@PAUtagQUESTTEMP@@V?$allocator@PAUtagQUESTTEMP@@@std@@@std@@U?$less@K@2@V?$allocator@U?$pair@$$CBKPAV?$vector@PAUtagQUESTTEMP@@V?$allocator@PAUtagQUESTTEMP@@@std@@@std@@@std@@@2@@std@@U?$less@E@2@V?$allocator@U?$pair@$$CBEPAV?$map@KPAV?$vector@PAUtagQUESTTEMP@@V?$allocator@PAUtagQUESTTEMP@@@std@@@std@@U?$less@K@2@V?$allocator@U?$pair@$$CBKPAV?$vector@PAUtagQUESTTEMP@@V?$allocator@PAUtagQUESTTEMP@@@std@@@std@@@std@@@2@@std@@@std@@@2@$0A@@std@@SAABEABU?$pair@$$CBEPAV?$map@KPAV?$vector@PAUtagQUESTTEMP@@V?$allocator@PAUtagQUESTTEMP@@@std@@@std@@U?$less@K@2@V?$allocator@U?$pair@$$CBKPAV?$vector@PAUtagQUESTTEMP@@V?$allocator@PAUtagQUESTTEMP@@@std@@@std@@@std@@@2@@std@@@2@@Z ; std::_Tmap_traits<unsigned char,std::map<unsigned long,std::vector<tagQUESTTEMP *,std::allocator<tagQUESTTEMP *> > *,std::less<unsigned long>,std::allocator<std::pair<unsigned long const ,std::vector<tagQUESTTEMP *,std::allocator<tagQUESTTEMP *> > *> > > *,std::less<unsigned char>,std::allocator<std::pair<unsigned char const ,std::map<unsigned long,std::vector<tagQUESTTEMP *,std::allocator<tagQUESTTEMP *> > *,std::less<unsigned long>,std::allocator<std::pair<unsigned long const ,std::vector<tagQUESTTEMP *,std::allocator<tagQUESTTEMP *> > *> > > *> >,0>::_Kfn
; Function compile flags: /Ogty
; File c:\program files (x86)\microsoft visual studio .net 2003\vc7\include\map
;	COMDAT ?_Kfn@?$_Tmap_traits@EPAV?$map@KPAV?$vector@PAUtagQUESTTEMP@@V?$allocator@PAUtagQUESTTEMP@@@std@@@std@@U?$less@K@2@V?$allocator@U?$pair@$$CBKPAV?$vector@PAUtagQUESTTEMP@@V?$allocator@PAUtagQUESTTEMP@@@std@@@std@@@std@@@2@@std@@U?$less@E@2@V?$allocator@U?$pair@$$CBEPAV?$map@KPAV?$vector@PAUtagQUESTTEMP@@V?$allocator@PAUtagQUESTTEMP@@@std@@@std@@U?$less@K@2@V?$allocator@U?$pair@$$CBKPAV?$vector@PAUtagQUESTTEMP@@V?$allocator@PAUtagQUESTTEMP@@@std@@@std@@@std@@@2@@std@@@std@@@2@$0A@@std@@SAABEABU?$pair@$$CBEPAV?$map@KPAV?$vector@PAUtagQUESTTEMP@@V?$allocator@PAUtagQUESTTEMP@@@std@@@std@@U?$less@K@2@V?$allocator@U?$pair@$$CBKPAV?$vector@PAUtagQUESTTEMP@@V?$allocator@PAUtagQUESTTEMP@@@std@@@std@@@std@@@2@@std@@@2@@Z
_TEXT	SEGMENT
__Val$ = 8						; size = 4
?_Kfn@?$_Tmap_traits@EPAV?$map@KPAV?$vector@PAUtagQUESTTEMP@@V?$allocator@PAUtagQUESTTEMP@@@std@@@std@@U?$less@K@2@V?$allocator@U?$pair@$$CBKPAV?$vector@PAUtagQUESTTEMP@@V?$allocator@PAUtagQUESTTEMP@@@std@@@std@@@std@@@2@@std@@U?$less@E@2@V?$allocator@U?$pair@$$CBEPAV?$map@KPAV?$vector@PAUtagQUESTTEMP@@V?$allocator@PAUtagQUESTTEMP@@@std@@@std@@U?$less@K@2@V?$allocator@U?$pair@$$CBKPAV?$vector@PAUtagQUESTTEMP@@V?$allocator@PAUtagQUESTTEMP@@@std@@@std@@@std@@@2@@std@@@std@@@2@$0A@@std@@SAABEABU?$pair@$$CBEPAV?$map@KPAV?$vector@PAUtagQUESTTEMP@@V?$allocator@PAUtagQUESTTEMP@@@std@@@std@@U?$less@K@2@V?$allocator@U?$pair@$$CBKPAV?$vector@PAUtagQUESTTEMP@@V?$allocator@PAUtagQUESTTEMP@@@std@@@std@@@std@@@2@@std@@@2@@Z PROC NEAR ; std::_Tmap_traits<unsigned char,std::map<unsigned long,std::vector<tagQUESTTEMP *,std::allocator<tagQUESTTEMP *> > *,std::less<unsigned long>,std::allocator<std::pair<unsigned long const ,std::vector<tagQUESTTEMP *,std::allocator<tagQUESTTEMP *> > *> > > *,std::less<unsigned char>,std::allocator<std::pair<unsigned char const ,std::map<unsigned long,std::vector<tagQUESTTEMP *,std::allocator<tagQUESTTEMP *> > *,std::less<unsigned long>,std::allocator<std::pair<unsigned long const ,std::vector<tagQUESTTEMP *,std::allocator<tagQUESTTEMP *> > *> > > *> >,0>::_Kfn, COMDAT

; 64   : 		return (_Val.first);

  00000	8b 44 24 04	 mov	 eax, DWORD PTR __Val$[esp-4]

; 65   : 		}

  00004	c3		 ret	 0
?_Kfn@?$_Tmap_traits@EPAV?$map@KPAV?$vector@PAUtagQUESTTEMP@@V?$allocator@PAUtagQUESTTEMP@@@std@@@std@@U?$less@K@2@V?$allocator@U?$pair@$$CBKPAV?$vector@PAUtagQUESTTEMP@@V?$allocator@PAUtagQUESTTEMP@@@std@@@std@@@std@@@2@@std@@U?$less@E@2@V?$allocator@U?$pair@$$CBEPAV?$map@KPAV?$vector@PAUtagQUESTTEMP@@V?$allocator@PAUtagQUESTTEMP@@@std@@@std@@U?$less@K@2@V?$allocator@U?$pair@$$CBKPAV?$vector@PAUtagQUESTTEMP@@V?$allocator@PAUtagQUESTTEMP@@@std@@@std@@@std@@@2@@std@@@std@@@2@$0A@@std@@SAABEABU?$pair@$$CBEPAV?$map@KPAV?$vector@PAUtagQUESTTEMP@@V?$allocator@PAUtagQUESTTEMP@@@std@@@std@@U?$less@K@2@V?$allocator@U?$pair@$$CBKPAV?$vector@PAUtagQUESTTEMP@@V?$allocator@PAUtagQUESTTEMP@@@std@@@std@@@std@@@2@@std@@@2@@Z ENDP ; std::_Tmap_traits<unsigned char,std::map<unsigned long,std::vector<tagQUESTTEMP *,std::allocator<tagQUESTTEMP *> > *,std::less<unsigned long>,std::allocator<std::pair<unsigned long const ,std::vector<tagQUESTTEMP *,std::allocator<tagQUESTTEMP *> > *> > > *,std::less<unsigned char>,std::allocator<std::pair<unsigned char const ,std::map<unsigned long,std::vector<tagQUESTTEMP *,std::allocator<tagQUESTTEMP *> > *,std::less<unsigned long>,std::allocator<std::pair<unsigned long const ,std::vector<tagQUESTTEMP *,std::allocator<tagQUESTTEMP *> > *> > > *> >,0>::_Kfn
_TEXT	ENDS
PUBLIC	??0const_iterator@?$_Tree@V?$_Tmap_traits@EPAV?$map@KPAV?$vector@PAUtagQUESTTEMP@@V?$allocator@PAUtagQUESTTEMP@@@std@@@std@@U?$less@K@2@V?$allocator@U?$pair@$$CBKPAV?$vector@PAUtagQUESTTEMP@@V?$allocator@PAUtagQUESTTEMP@@@std@@@std@@@std@@@2@@std@@U?$less@E@2@V?$allocator@U?$pair@$$CBEPAV?$map@KPAV?$vector@PAUtagQUESTTEMP@@V?$allocator@PAUtagQUESTTEMP@@@std@@@std@@U?$less@K@2@V?$allocator@U?$pair@$$CBKPAV?$vector@PAUtagQUESTTEMP@@V?$allocator@PAUtagQUESTTEMP@@@std@@@std@@@std@@@2@@std@@@std@@@2@$0A@@std@@@std@@QAE@PAU_Node@?$_Tree_nod@V?$_Tmap_traits@EPAV?$map@KPAV?$vector@PAUtagQUESTTEMP@@V?$allocator@PAUtagQUESTTEMP@@@std@@@std@@U?$less@K@2@V?$allocator@U?$pair@$$CBKPAV?$vector@PAUtagQUESTTEMP@@V?$allocator@PAUtagQUESTTEMP@@@std@@@std@@@std@@@2@@std@@U?$less@E@2@V?$allocator@U?$pair@$$CBEPAV?$map@KPAV?$vector@PAUtagQUESTTEMP@@V?$allocator@PAUtagQUESTTEMP@@@std@@@std@@U?$less@K@2@V?$allocator@U?$pair@$$CBKPAV?$vector@PAUtagQUESTTEMP@@V?$allocator@PAUtagQUESTTEMP@@@std@@@std@@@std@@@2@@std@@@std@@@2@$0A@@std@@@2@@Z ; std::_Tree<std::_Tmap_traits<unsigned char,std::map<unsigned long,std::vector<tagQUESTTEMP *,std::allocator<tagQUESTTEMP *> > *,std::less<unsigned long>,std::allocator<std::pair<unsigned long const ,std::vector<tagQUESTTEMP *,std::allocator<tagQUESTTEMP *> > *> > > *,std::less<unsigned char>,std::allocator<std::pair<unsigned char const ,std::map<unsigned long,std::vector<tagQUESTTEMP *,std::allocator<tagQUESTTEMP *> > *,std::less<unsigned long>,std::allocator<std::pair<unsigned long const ,std::vector<tagQUESTTEMP *,std::allocator<tagQUESTTEMP *> > *> > > *> >,0> >::const_iterator::const_iterator
; Function compile flags: /Ogty
; File c:\program files (x86)\microsoft visual studio .net 2003\vc7\include\xtree
;	COMDAT ??0const_iterator@?$_Tree@V?$_Tmap_traits@EPAV?$map@KPAV?$vector@PAUtagQUESTTEMP@@V?$allocator@PAUtagQUESTTEMP@@@std@@@std@@U?$less@K@2@V?$allocator@U?$pair@$$CBKPAV?$vector@PAUtagQUESTTEMP@@V?$allocator@PAUtagQUESTTEMP@@@std@@@std@@@std@@@2@@std@@U?$less@E@2@V?$allocator@U?$pair@$$CBEPAV?$map@KPAV?$vector@PAUtagQUESTTEMP@@V?$allocator@PAUtagQUESTTEMP@@@std@@@std@@U?$less@K@2@V?$allocator@U?$pair@$$CBKPAV?$vector@PAUtagQUESTTEMP@@V?$allocator@PAUtagQUESTTEMP@@@std@@@std@@@std@@@2@@std@@@std@@@2@$0A@@std@@@std@@QAE@PAU_Node@?$_Tree_nod@V?$_Tmap_traits@EPAV?$map@KPAV?$vector@PAUtagQUESTTEMP@@V?$allocator@PAUtagQUESTTEMP@@@std@@@std@@U?$less@K@2@V?$allocator@U?$pair@$$CBKPAV?$vector@PAUtagQUESTTEMP@@V?$allocator@PAUtagQUESTTEMP@@@std@@@std@@@std@@@2@@std@@U?$less@E@2@V?$allocator@U?$pair@$$CBEPAV?$map@KPAV?$vector@PAUtagQUESTTEMP@@V?$allocator@PAUtagQUESTTEMP@@@std@@@std@@U?$less@K@2@V?$allocator@U?$pair@$$CBKPAV?$vector@PAUtagQUESTTEMP@@V?$allocator@PAUtagQUESTTEMP@@@std@@@std@@@std@@@2@@std@@@std@@@2@$0A@@std@@@2@@Z
_TEXT	SEGMENT
__Pnode$ = 8						; size = 4
??0const_iterator@?$_Tree@V?$_Tmap_traits@EPAV?$map@KPAV?$vector@PAUtagQUESTTEMP@@V?$allocator@PAUtagQUESTTEMP@@@std@@@std@@U?$less@K@2@V?$allocator@U?$pair@$$CBKPAV?$vector@PAUtagQUESTTEMP@@V?$allocator@PAUtagQUESTTEMP@@@std@@@std@@@std@@@2@@std@@U?$less@E@2@V?$allocator@U?$pair@$$CBEPAV?$map@KPAV?$vector@PAUtagQUESTTEMP@@V?$allocator@PAUtagQUESTTEMP@@@std@@@std@@U?$less@K@2@V?$allocator@U?$pair@$$CBKPAV?$vector@PAUtagQUESTTEMP@@V?$allocator@PAUtagQUESTTEMP@@@std@@@std@@@std@@@2@@std@@@std@@@2@$0A@@std@@@std@@QAE@PAU_Node@?$_Tree_nod@V?$_Tmap_traits@EPAV?$map@KPAV?$vector@PAUtagQUESTTEMP@@V?$allocator@PAUtagQUESTTEMP@@@std@@@std@@U?$less@K@2@V?$allocator@U?$pair@$$CBKPAV?$vector@PAUtagQUESTTEMP@@V?$allocator@PAUtagQUESTTEMP@@@std@@@std@@@std@@@2@@std@@U?$less@E@2@V?$allocator@U?$pair@$$CBEPAV?$map@KPAV?$vector@PAUtagQUESTTEMP@@V?$allocator@PAUtagQUESTTEMP@@@std@@@std@@U?$less@K@2@V?$allocator@U?$pair@$$CBKPAV?$vector@PAUtagQUESTTEMP@@V?$allocator@PAUtagQUESTTEMP@@@std@@@std@@@std@@@2@@std@@@std@@@2@$0A@@std@@@2@@Z PROC NEAR ; std::_Tree<std::_Tmap_traits<unsigned char,std::map<unsigned long,std::vector<tagQUESTTEMP *,std::allocator<tagQUESTTEMP *> > *,std::less<unsigned long>,std::allocator<std::pair<unsigned long const ,std::vector<tagQUESTTEMP *,std::allocator<tagQUESTTEMP *> > *> > > *,std::less<unsigned char>,std::allocator<std::pair<unsigned char const ,std::map<unsigned long,std::vector<tagQUESTTEMP *,std::allocator<tagQUESTTEMP *> > *,std::less<unsigned long>,std::allocator<std::pair<unsigned long const ,std::vector<tagQUESTTEMP *,std::allocator<tagQUESTTEMP *> > *> > > *> >,0> >::const_iterator::const_iterator, COMDAT
; _this$ = ecx

; 200  : 			{	// construct with node pointer _Pnode

  00000	8b c1		 mov	 eax, ecx
  00002	8b 4c 24 04	 mov	 ecx, DWORD PTR __Pnode$[esp-4]
  00006	89 08		 mov	 DWORD PTR [eax], ecx

; 201  : 			}

  00008	c2 04 00	 ret	 4
??0const_iterator@?$_Tree@V?$_Tmap_traits@EPAV?$map@KPAV?$vector@PAUtagQUESTTEMP@@V?$allocator@PAUtagQUESTTEMP@@@std@@@std@@U?$less@K@2@V?$allocator@U?$pair@$$CBKPAV?$vector@PAUtagQUESTTEMP@@V?$allocator@PAUtagQUESTTEMP@@@std@@@std@@@std@@@2@@std@@U?$less@E@2@V?$allocator@U?$pair@$$CBEPAV?$map@KPAV?$vector@PAUtagQUESTTEMP@@V?$allocator@PAUtagQUESTTEMP@@@std@@@std@@U?$less@K@2@V?$allocator@U?$pair@$$CBKPAV?$vector@PAUtagQUESTTEMP@@V?$allocator@PAUtagQUESTTEMP@@@std@@@std@@@std@@@2@@std@@@std@@@2@$0A@@std@@@std@@QAE@PAU_Node@?$_Tree_nod@V?$_Tmap_traits@EPAV?$map@KPAV?$vector@PAUtagQUESTTEMP@@V?$allocator@PAUtagQUESTTEMP@@@std@@@std@@U?$less@K@2@V?$allocator@U?$pair@$$CBKPAV?$vector@PAUtagQUESTTEMP@@V?$allocator@PAUtagQUESTTEMP@@@std@@@std@@@std@@@2@@std@@U?$less@E@2@V?$allocator@U?$pair@$$CBEPAV?$map@KPAV?$vector@PAUtagQUESTTEMP@@V?$allocator@PAUtagQUESTTEMP@@@std@@@std@@U?$less@K@2@V?$allocator@U?$pair@$$CBKPAV?$vector@PAUtagQUESTTEMP@@V?$allocator@PAUtagQUESTTEMP@@@std@@@std@@@std@@@2@@std@@@std@@@2@$0A@@std@@@2@@Z ENDP ; std::_Tree<std::_Tmap_traits<unsigned char,std::map<unsigned long,std::vector<tagQUESTTEMP *,std::allocator<tagQUESTTEMP *> > *,std::less<unsigned long>,std::allocator<std::pair<unsigned long const ,std::vector<tagQUESTTEMP *,std::allocator<tagQUESTTEMP *> > *> > > *,std::less<unsigned char>,std::allocator<std::pair<unsigned char const ,std::map<unsigned long,std::vector<tagQUESTTEMP *,std::allocator<tagQUESTTEMP *> > *,std::less<unsigned long>,std::allocator<std::pair<unsigned long const ,std::vector<tagQUESTTEMP *,std::allocator<tagQUESTTEMP *> > *> > > *> >,0> >::const_iterator::const_iterator
_TEXT	ENDS
PUBLIC	?_Myval@?$_Tree@V?$_Tmap_traits@KPAV?$vector@PAUtagQUESTTEMP@@V?$allocator@PAUtagQUESTTEMP@@@std@@@std@@U?$less@K@2@V?$allocator@U?$pair@$$CBKPAV?$vector@PAUtagQUESTTEMP@@V?$allocator@PAUtagQUESTTEMP@@@std@@@std@@@std@@@2@$0A@@std@@@std@@KAAAU?$pair@$$CBKPAV?$vector@PAUtagQUESTTEMP@@V?$allocator@PAUtagQUESTTEMP@@@std@@@std@@@2@PAU_Node@?$_Tree_nod@V?$_Tmap_traits@KPAV?$vector@PAUtagQUESTTEMP@@V?$allocator@PAUtagQUESTTEMP@@@std@@@std@@U?$less@K@2@V?$allocator@U?$pair@$$CBKPAV?$vector@PAUtagQUESTTEMP@@V?$allocator@PAUtagQUESTTEMP@@@std@@@std@@@std@@@2@$0A@@std@@@2@@Z ; std::_Tree<std::_Tmap_traits<unsigned long,std::vector<tagQUESTTEMP *,std::allocator<tagQUESTTEMP *> > *,std::less<unsigned long>,std::allocator<std::pair<unsigned long const ,std::vector<tagQUESTTEMP *,std::allocator<tagQUESTTEMP *> > *> >,0> >::_Myval
; Function compile flags: /Ogty
;	COMDAT ?_Myval@?$_Tree@V?$_Tmap_traits@KPAV?$vector@PAUtagQUESTTEMP@@V?$allocator@PAUtagQUESTTEMP@@@std@@@std@@U?$less@K@2@V?$allocator@U?$pair@$$CBKPAV?$vector@PAUtagQUESTTEMP@@V?$allocator@PAUtagQUESTTEMP@@@std@@@std@@@std@@@2@$0A@@std@@@std@@KAAAU?$pair@$$CBKPAV?$vector@PAUtagQUESTTEMP@@V?$allocator@PAUtagQUESTTEMP@@@std@@@std@@@2@PAU_Node@?$_Tree_nod@V?$_Tmap_traits@KPAV?$vector@PAUtagQUESTTEMP@@V?$allocator@PAUtagQUESTTEMP@@@std@@@std@@U?$less@K@2@V?$allocator@U?$pair@$$CBKPAV?$vector@PAUtagQUESTTEMP@@V?$allocator@PAUtagQUESTTEMP@@@std@@@std@@@std@@@2@$0A@@std@@@2@@Z
_TEXT	SEGMENT
__Pnode$ = 8						; size = 4
?_Myval@?$_Tree@V?$_Tmap_traits@KPAV?$vector@PAUtagQUESTTEMP@@V?$allocator@PAUtagQUESTTEMP@@@std@@@std@@U?$less@K@2@V?$allocator@U?$pair@$$CBKPAV?$vector@PAUtagQUESTTEMP@@V?$allocator@PAUtagQUESTTEMP@@@std@@@std@@@std@@@2@$0A@@std@@@std@@KAAAU?$pair@$$CBKPAV?$vector@PAUtagQUESTTEMP@@V?$allocator@PAUtagQUESTTEMP@@@std@@@std@@@2@PAU_Node@?$_Tree_nod@V?$_Tmap_traits@KPAV?$vector@PAUtagQUESTTEMP@@V?$allocator@PAUtagQUESTTEMP@@@std@@@std@@U?$less@K@2@V?$allocator@U?$pair@$$CBKPAV?$vector@PAUtagQUESTTEMP@@V?$allocator@PAUtagQUESTTEMP@@@std@@@std@@@std@@@2@$0A@@std@@@2@@Z PROC NEAR ; std::_Tree<std::_Tmap_traits<unsigned long,std::vector<tagQUESTTEMP *,std::allocator<tagQUESTTEMP *> > *,std::less<unsigned long>,std::allocator<std::pair<unsigned long const ,std::vector<tagQUESTTEMP *,std::allocator<tagQUESTTEMP *> > *> >,0> >::_Myval, COMDAT

; 162  : 		return ((_Vref)(*_Pnode)._Myval);

  00000	8b 44 24 04	 mov	 eax, DWORD PTR __Pnode$[esp-4]
  00004	83 c0 0c	 add	 eax, 12			; 0000000cH

; 163  : 		}

  00007	c3		 ret	 0
?_Myval@?$_Tree@V?$_Tmap_traits@KPAV?$vector@PAUtagQUESTTEMP@@V?$allocator@PAUtagQUESTTEMP@@@std@@@std@@U?$less@K@2@V?$allocator@U?$pair@$$CBKPAV?$vector@PAUtagQUESTTEMP@@V?$allocator@PAUtagQUESTTEMP@@@std@@@std@@@std@@@2@$0A@@std@@@std@@KAAAU?$pair@$$CBKPAV?$vector@PAUtagQUESTTEMP@@V?$allocator@PAUtagQUESTTEMP@@@std@@@std@@@2@PAU_Node@?$_Tree_nod@V?$_Tmap_traits@KPAV?$vector@PAUtagQUESTTEMP@@V?$allocator@PAUtagQUESTTEMP@@@std@@@std@@U?$less@K@2@V?$allocator@U?$pair@$$CBKPAV?$vector@PAUtagQUESTTEMP@@V?$allocator@PAUtagQUESTTEMP@@@std@@@std@@@std@@@2@$0A@@std@@@2@@Z ENDP ; std::_Tree<std::_Tmap_traits<unsigned long,std::vector<tagQUESTTEMP *,std::allocator<tagQUESTTEMP *> > *,std::less<unsigned long>,std::allocator<std::pair<unsigned long const ,std::vector<tagQUESTTEMP *,std::allocator<tagQUESTTEMP *> > *> >,0> >::_Myval
_TEXT	ENDS
PUBLIC	?_Kfn@?$_Tmap_traits@KPAV?$vector@PAUtagQUESTTEMP@@V?$allocator@PAUtagQUESTTEMP@@@std@@@std@@U?$less@K@2@V?$allocator@U?$pair@$$CBKPAV?$vector@PAUtagQUESTTEMP@@V?$allocator@PAUtagQUESTTEMP@@@std@@@std@@@std@@@2@$0A@@std@@SAABKABU?$pair@$$CBKPAV?$vector@PAUtagQUESTTEMP@@V?$allocator@PAUtagQUESTTEMP@@@std@@@std@@@2@@Z ; std::_Tmap_traits<unsigned long,std::vector<tagQUESTTEMP *,std::allocator<tagQUESTTEMP *> > *,std::less<unsigned long>,std::allocator<std::pair<unsigned long const ,std::vector<tagQUESTTEMP *,std::allocator<tagQUESTTEMP *> > *> >,0>::_Kfn
; Function compile flags: /Ogty
; File c:\program files (x86)\microsoft visual studio .net 2003\vc7\include\map
;	COMDAT ?_Kfn@?$_Tmap_traits@KPAV?$vector@PAUtagQUESTTEMP@@V?$allocator@PAUtagQUESTTEMP@@@std@@@std@@U?$less@K@2@V?$allocator@U?$pair@$$CBKPAV?$vector@PAUtagQUESTTEMP@@V?$allocator@PAUtagQUESTTEMP@@@std@@@std@@@std@@@2@$0A@@std@@SAABKABU?$pair@$$CBKPAV?$vector@PAUtagQUESTTEMP@@V?$allocator@PAUtagQUESTTEMP@@@std@@@std@@@2@@Z
_TEXT	SEGMENT
__Val$ = 8						; size = 4
?_Kfn@?$_Tmap_traits@KPAV?$vector@PAUtagQUESTTEMP@@V?$allocator@PAUtagQUESTTEMP@@@std@@@std@@U?$less@K@2@V?$allocator@U?$pair@$$CBKPAV?$vector@PAUtagQUESTTEMP@@V?$allocator@PAUtagQUESTTEMP@@@std@@@std@@@std@@@2@$0A@@std@@SAABKABU?$pair@$$CBKPAV?$vector@PAUtagQUESTTEMP@@V?$allocator@PAUtagQUESTTEMP@@@std@@@std@@@2@@Z PROC NEAR ; std::_Tmap_traits<unsigned long,std::vector<tagQUESTTEMP *,std::allocator<tagQUESTTEMP *> > *,std::less<unsigned long>,std::allocator<std::pair<unsigned long const ,std::vector<tagQUESTTEMP *,std::allocator<tagQUESTTEMP *> > *> >,0>::_Kfn, COMDAT

; 64   : 		return (_Val.first);

  00000	8b 44 24 04	 mov	 eax, DWORD PTR __Val$[esp-4]

; 65   : 		}

  00004	c3		 ret	 0
?_Kfn@?$_Tmap_traits@KPAV?$vector@PAUtagQUESTTEMP@@V?$allocator@PAUtagQUESTTEMP@@@std@@@std@@U?$less@K@2@V?$allocator@U?$pair@$$CBKPAV?$vector@PAUtagQUESTTEMP@@V?$allocator@PAUtagQUESTTEMP@@@std@@@std@@@std@@@2@$0A@@std@@SAABKABU?$pair@$$CBKPAV?$vector@PAUtagQUESTTEMP@@V?$allocator@PAUtagQUESTTEMP@@@std@@@std@@@2@@Z ENDP ; std::_Tmap_traits<unsigned long,std::vector<tagQUESTTEMP *,std::allocator<tagQUESTTEMP *> > *,std::less<unsigned long>,std::allocator<std::pair<unsigned long const ,std::vector<tagQUESTTEMP *,std::allocator<tagQUESTTEMP *> > *> >,0>::_Kfn
_TEXT	ENDS
PUBLIC	??0const_iterator@?$_Tree@V?$_Tmap_traits@KPAV?$vector@PAUtagQUESTTEMP@@V?$allocator@PAUtagQUESTTEMP@@@std@@@std@@U?$less@K@2@V?$allocator@U?$pair@$$CBKPAV?$vector@PAUtagQUESTTEMP@@V?$allocator@PAUtagQUESTTEMP@@@std@@@std@@@std@@@2@$0A@@std@@@std@@QAE@PAU_Node@?$_Tree_nod@V?$_Tmap_traits@KPAV?$vector@PAUtagQUESTTEMP@@V?$allocator@PAUtagQUESTTEMP@@@std@@@std@@U?$less@K@2@V?$allocator@U?$pair@$$CBKPAV?$vector@PAUtagQUESTTEMP@@V?$allocator@PAUtagQUESTTEMP@@@std@@@std@@@std@@@2@$0A@@std@@@2@@Z ; std::_Tree<std::_Tmap_traits<unsigned long,std::vector<tagQUESTTEMP *,std::allocator<tagQUESTTEMP *> > *,std::less<unsigned long>,std::allocator<std::pair<unsigned long const ,std::vector<tagQUESTTEMP *,std::allocator<tagQUESTTEMP *> > *> >,0> >::const_iterator::const_iterator
; Function compile flags: /Ogty
; File c:\program files (x86)\microsoft visual studio .net 2003\vc7\include\xtree
;	COMDAT ??0const_iterator@?$_Tree@V?$_Tmap_traits@KPAV?$vector@PAUtagQUESTTEMP@@V?$allocator@PAUtagQUESTTEMP@@@std@@@std@@U?$less@K@2@V?$allocator@U?$pair@$$CBKPAV?$vector@PAUtagQUESTTEMP@@V?$allocator@PAUtagQUESTTEMP@@@std@@@std@@@std@@@2@$0A@@std@@@std@@QAE@PAU_Node@?$_Tree_nod@V?$_Tmap_traits@KPAV?$vector@PAUtagQUESTTEMP@@V?$allocator@PAUtagQUESTTEMP@@@std@@@std@@U?$less@K@2@V?$allocator@U?$pair@$$CBKPAV?$vector@PAUtagQUESTTEMP@@V?$allocator@PAUtagQUESTTEMP@@@std@@@std@@@std@@@2@$0A@@std@@@2@@Z
_TEXT	SEGMENT
__Pnode$ = 8						; size = 4
??0const_iterator@?$_Tree@V?$_Tmap_traits@KPAV?$vector@PAUtagQUESTTEMP@@V?$allocator@PAUtagQUESTTEMP@@@std@@@std@@U?$less@K@2@V?$allocator@U?$pair@$$CBKPAV?$vector@PAUtagQUESTTEMP@@V?$allocator@PAUtagQUESTTEMP@@@std@@@std@@@std@@@2@$0A@@std@@@std@@QAE@PAU_Node@?$_Tree_nod@V?$_Tmap_traits@KPAV?$vector@PAUtagQUESTTEMP@@V?$allocator@PAUtagQUESTTEMP@@@std@@@std@@U?$less@K@2@V?$allocator@U?$pair@$$CBKPAV?$vector@PAUtagQUESTTEMP@@V?$allocator@PAUtagQUESTTEMP@@@std@@@std@@@std@@@2@$0A@@std@@@2@@Z PROC NEAR ; std::_Tree<std::_Tmap_traits<unsigned long,std::vector<tagQUESTTEMP *,std::allocator<tagQUESTTEMP *> > *,std::less<unsigned long>,std::allocator<std::pair<unsigned long const ,std::vector<tagQUESTTEMP *,std::allocator<tagQUESTTEMP *> > *> >,0> >::const_iterator::const_iterator, COMDAT
; _this$ = ecx

; 200  : 			{	// construct with node pointer _Pnode

  00000	8b c1		 mov	 eax, ecx
  00002	8b 4c 24 04	 mov	 ecx, DWORD PTR __Pnode$[esp-4]
  00006	89 08		 mov	 DWORD PTR [eax], ecx

; 201  : 			}

  00008	c2 04 00	 ret	 4
??0const_iterator@?$_Tree@V?$_Tmap_traits@KPAV?$vector@PAUtagQUESTTEMP@@V?$allocator@PAUtagQUESTTEMP@@@std@@@std@@U?$less@K@2@V?$allocator@U?$pair@$$CBKPAV?$vector@PAUtagQUESTTEMP@@V?$allocator@PAUtagQUESTTEMP@@@std@@@std@@@std@@@2@$0A@@std@@@std@@QAE@PAU_Node@?$_Tree_nod@V?$_Tmap_traits@KPAV?$vector@PAUtagQUESTTEMP@@V?$allocator@PAUtagQUESTTEMP@@@std@@@std@@U?$less@K@2@V?$allocator@U?$pair@$$CBKPAV?$vector@PAUtagQUESTTEMP@@V?$allocator@PAUtagQUESTTEMP@@@std@@@std@@@std@@@2@$0A@@std@@@2@@Z ENDP ; std::_Tree<std::_Tmap_traits<unsigned long,std::vector<tagQUESTTEMP *,std::allocator<tagQUESTTEMP *> > *,std::less<unsigned long>,std::allocator<std::pair<unsigned long const ,std::vector<tagQUESTTEMP *,std::allocator<tagQUESTTEMP *> > *> >,0> >::const_iterator::const_iterator
_TEXT	ENDS
PUBLIC	??0const_iterator@?$_Tree@V?$_Tmap_traits@EPAVCTInven@@U?$less@E@std@@V?$allocator@U?$pair@$$CBEPAVCTInven@@@std@@@3@$0A@@std@@@std@@QAE@PAU_Node@?$_Tree_nod@V?$_Tmap_traits@EPAVCTInven@@U?$less@E@std@@V?$allocator@U?$pair@$$CBEPAVCTInven@@@std@@@3@$0A@@std@@@2@@Z ; std::_Tree<std::_Tmap_traits<unsigned char,CTInven *,std::less<unsigned char>,std::allocator<std::pair<unsigned char const ,CTInven *> >,0> >::const_iterator::const_iterator
; Function compile flags: /Ogty
;	COMDAT ??0const_iterator@?$_Tree@V?$_Tmap_traits@EPAVCTInven@@U?$less@E@std@@V?$allocator@U?$pair@$$CBEPAVCTInven@@@std@@@3@$0A@@std@@@std@@QAE@PAU_Node@?$_Tree_nod@V?$_Tmap_traits@EPAVCTInven@@U?$less@E@std@@V?$allocator@U?$pair@$$CBEPAVCTInven@@@std@@@3@$0A@@std@@@2@@Z
_TEXT	SEGMENT
__Pnode$ = 8						; size = 4
??0const_iterator@?$_Tree@V?$_Tmap_traits@EPAVCTInven@@U?$less@E@std@@V?$allocator@U?$pair@$$CBEPAVCTInven@@@std@@@3@$0A@@std@@@std@@QAE@PAU_Node@?$_Tree_nod@V?$_Tmap_traits@EPAVCTInven@@U?$less@E@std@@V?$allocator@U?$pair@$$CBEPAVCTInven@@@std@@@3@$0A@@std@@@2@@Z PROC NEAR ; std::_Tree<std::_Tmap_traits<unsigned char,CTInven *,std::less<unsigned char>,std::allocator<std::pair<unsigned char const ,CTInven *> >,0> >::const_iterator::const_iterator, COMDAT
; _this$ = ecx

; 200  : 			{	// construct with node pointer _Pnode

  00000	8b c1		 mov	 eax, ecx
  00002	8b 4c 24 04	 mov	 ecx, DWORD PTR __Pnode$[esp-4]
  00006	89 08		 mov	 DWORD PTR [eax], ecx

; 201  : 			}

  00008	c2 04 00	 ret	 4
??0const_iterator@?$_Tree@V?$_Tmap_traits@EPAVCTInven@@U?$less@E@std@@V?$allocator@U?$pair@$$CBEPAVCTInven@@@std@@@3@$0A@@std@@@std@@QAE@PAU_Node@?$_Tree_nod@V?$_Tmap_traits@EPAVCTInven@@U?$less@E@std@@V?$allocator@U?$pair@$$CBEPAVCTInven@@@std@@@3@$0A@@std@@@2@@Z ENDP ; std::_Tree<std::_Tmap_traits<unsigned char,CTInven *,std::less<unsigned char>,std::allocator<std::pair<unsigned char const ,CTInven *> >,0> >::const_iterator::const_iterator
_TEXT	ENDS
PUBLIC	??0const_iterator@?$_Tree@V?$_Tmap_traits@EPAVCTItem@@U?$less@E@std@@V?$allocator@U?$pair@$$CBEPAVCTItem@@@std@@@3@$0A@@std@@@std@@QAE@PAU_Node@?$_Tree_nod@V?$_Tmap_traits@EPAVCTItem@@U?$less@E@std@@V?$allocator@U?$pair@$$CBEPAVCTItem@@@std@@@3@$0A@@std@@@2@@Z ; std::_Tree<std::_Tmap_traits<unsigned char,CTItem *,std::less<unsigned char>,std::allocator<std::pair<unsigned char const ,CTItem *> >,0> >::const_iterator::const_iterator
; Function compile flags: /Ogty
;	COMDAT ??0const_iterator@?$_Tree@V?$_Tmap_traits@EPAVCTItem@@U?$less@E@std@@V?$allocator@U?$pair@$$CBEPAVCTItem@@@std@@@3@$0A@@std@@@std@@QAE@PAU_Node@?$_Tree_nod@V?$_Tmap_traits@EPAVCTItem@@U?$less@E@std@@V?$allocator@U?$pair@$$CBEPAVCTItem@@@std@@@3@$0A@@std@@@2@@Z
_TEXT	SEGMENT
__Pnode$ = 8						; size = 4
??0const_iterator@?$_Tree@V?$_Tmap_traits@EPAVCTItem@@U?$less@E@std@@V?$allocator@U?$pair@$$CBEPAVCTItem@@@std@@@3@$0A@@std@@@std@@QAE@PAU_Node@?$_Tree_nod@V?$_Tmap_traits@EPAVCTItem@@U?$less@E@std@@V?$allocator@U?$pair@$$CBEPAVCTItem@@@std@@@3@$0A@@std@@@2@@Z PROC NEAR ; std::_Tree<std::_Tmap_traits<unsigned char,CTItem *,std::less<unsigned char>,std::allocator<std::pair<unsigned char const ,CTItem *> >,0> >::const_iterator::const_iterator, COMDAT
; _this$ = ecx

; 200  : 			{	// construct with node pointer _Pnode

  00000	8b c1		 mov	 eax, ecx
  00002	8b 4c 24 04	 mov	 ecx, DWORD PTR __Pnode$[esp-4]
  00006	89 08		 mov	 DWORD PTR [eax], ecx

; 201  : 			}

  00008	c2 04 00	 ret	 4
??0const_iterator@?$_Tree@V?$_Tmap_traits@EPAVCTItem@@U?$less@E@std@@V?$allocator@U?$pair@$$CBEPAVCTItem@@@std@@@3@$0A@@std@@@std@@QAE@PAU_Node@?$_Tree_nod@V?$_Tmap_traits@EPAVCTItem@@U?$less@E@std@@V?$allocator@U?$pair@$$CBEPAVCTItem@@@std@@@3@$0A@@std@@@2@@Z ENDP ; std::_Tree<std::_Tmap_traits<unsigned char,CTItem *,std::less<unsigned char>,std::allocator<std::pair<unsigned char const ,CTItem *> >,0> >::const_iterator::const_iterator
_TEXT	ENDS
PUBLIC	??Yiterator@?$vector@PAUtagQUESTTEMP@@V?$allocator@PAUtagQUESTTEMP@@@std@@@std@@QAEAAV012@H@Z ; std::vector<tagQUESTTEMP *,std::allocator<tagQUESTTEMP *> >::iterator::operator+=
; Function compile flags: /Ogty
; File c:\program files (x86)\microsoft visual studio .net 2003\vc7\include\vector
;	COMDAT ??Yiterator@?$vector@PAUtagQUESTTEMP@@V?$allocator@PAUtagQUESTTEMP@@@std@@@std@@QAEAAV012@H@Z
_TEXT	SEGMENT
__Off$ = 8						; size = 4
??Yiterator@?$vector@PAUtagQUESTTEMP@@V?$allocator@PAUtagQUESTTEMP@@@std@@@std@@QAEAAV012@H@Z PROC NEAR ; std::vector<tagQUESTTEMP *,std::allocator<tagQUESTTEMP *> >::iterator::operator+=, COMDAT
; _this$ = ecx

; 255  : 			{	// increment by integer

  00000	8b c1		 mov	 eax, ecx

; 256  : 			this->_Myptr += _Off;

  00002	8b 4c 24 04	 mov	 ecx, DWORD PTR __Off$[esp-4]
  00006	8d 14 8d 00 00
	00 00		 lea	 edx, DWORD PTR [ecx*4]
  0000d	01 10		 add	 DWORD PTR [eax], edx

; 257  : 			return (*this);
; 258  : 			}

  0000f	c2 04 00	 ret	 4
??Yiterator@?$vector@PAUtagQUESTTEMP@@V?$allocator@PAUtagQUESTTEMP@@@std@@@std@@QAEAAV012@H@Z ENDP ; std::vector<tagQUESTTEMP *,std::allocator<tagQUESTTEMP *> >::iterator::operator+=
_TEXT	ENDS
PUBLIC	??Dconst_iterator@?$vector@PAUtagQUESTTEMP@@V?$allocator@PAUtagQUESTTEMP@@@std@@@std@@QBEABQAUtagQUESTTEMP@@XZ ; std::vector<tagQUESTTEMP *,std::allocator<tagQUESTTEMP *> >::const_iterator::operator*
; Function compile flags: /Ogty
;	COMDAT ??Dconst_iterator@?$vector@PAUtagQUESTTEMP@@V?$allocator@PAUtagQUESTTEMP@@@std@@@std@@QBEABQAUtagQUESTTEMP@@XZ
_TEXT	SEGMENT
??Dconst_iterator@?$vector@PAUtagQUESTTEMP@@V?$allocator@PAUtagQUESTTEMP@@@std@@@std@@QBEABQAUtagQUESTTEMP@@XZ PROC NEAR ; std::vector<tagQUESTTEMP *,std::allocator<tagQUESTTEMP *> >::const_iterator::operator*, COMDAT
; _this$ = ecx

; 80   : 
; 81   : 
; 82   : 			return (*_Myptr);

  00000	8b 01		 mov	 eax, DWORD PTR [ecx]

; 83   : 			}

  00002	c3		 ret	 0
??Dconst_iterator@?$vector@PAUtagQUESTTEMP@@V?$allocator@PAUtagQUESTTEMP@@@std@@@std@@QBEABQAUtagQUESTTEMP@@XZ ENDP ; std::vector<tagQUESTTEMP *,std::allocator<tagQUESTTEMP *> >::const_iterator::operator*
_TEXT	ENDS
PUBLIC	??Gconst_iterator@?$vector@PAUtagQUESTTERM@@V?$allocator@PAUtagQUESTTERM@@@std@@@std@@QBEHABV012@@Z ; std::vector<tagQUESTTERM *,std::allocator<tagQUESTTERM *> >::const_iterator::operator-
; Function compile flags: /Ogty
;	COMDAT ??Gconst_iterator@?$vector@PAUtagQUESTTERM@@V?$allocator@PAUtagQUESTTERM@@@std@@@std@@QBEHABV012@@Z
_TEXT	SEGMENT
__Right$ = 8						; size = 4
??Gconst_iterator@?$vector@PAUtagQUESTTERM@@V?$allocator@PAUtagQUESTTERM@@@std@@@std@@QBEHABV012@@Z PROC NEAR ; std::vector<tagQUESTTERM *,std::allocator<tagQUESTTERM *> >::const_iterator::operator-, COMDAT
; _this$ = ecx

; 141  : 
; 142  : 
; 143  : 			return (_Myptr - _Right._Myptr);

  00000	8b 01		 mov	 eax, DWORD PTR [ecx]
  00002	8b 4c 24 04	 mov	 ecx, DWORD PTR __Right$[esp-4]
  00006	2b 01		 sub	 eax, DWORD PTR [ecx]
  00008	c1 f8 02	 sar	 eax, 2

; 144  : 			}

  0000b	c2 04 00	 ret	 4
??Gconst_iterator@?$vector@PAUtagQUESTTERM@@V?$allocator@PAUtagQUESTTERM@@@std@@@std@@QBEHABV012@@Z ENDP ; std::vector<tagQUESTTERM *,std::allocator<tagQUESTTERM *> >::const_iterator::operator-
_TEXT	ENDS
PUBLIC	?_Isnil@?$_Tree@V?$_Tmap_traits@EPAV?$map@KPAV?$vector@PAUtagQUESTTEMP@@V?$allocator@PAUtagQUESTTEMP@@@std@@@std@@U?$less@K@2@V?$allocator@U?$pair@$$CBKPAV?$vector@PAUtagQUESTTEMP@@V?$allocator@PAUtagQUESTTEMP@@@std@@@std@@@std@@@2@@std@@U?$less@E@2@V?$allocator@U?$pair@$$CBEPAV?$map@KPAV?$vector@PAUtagQUESTTEMP@@V?$allocator@PAUtagQUESTTEMP@@@std@@@std@@U?$less@K@2@V?$allocator@U?$pair@$$CBKPAV?$vector@PAUtagQUESTTEMP@@V?$allocator@PAUtagQUESTTEMP@@@std@@@std@@@std@@@2@@std@@@std@@@2@$0A@@std@@@std@@KAAADPAU_Node@?$_Tree_nod@V?$_Tmap_traits@EPAV?$map@KPAV?$vector@PAUtagQUESTTEMP@@V?$allocator@PAUtagQUESTTEMP@@@std@@@std@@U?$less@K@2@V?$allocator@U?$pair@$$CBKPAV?$vector@PAUtagQUESTTEMP@@V?$allocator@PAUtagQUESTTEMP@@@std@@@std@@@std@@@2@@std@@U?$less@E@2@V?$allocator@U?$pair@$$CBEPAV?$map@KPAV?$vector@PAUtagQUESTTEMP@@V?$allocator@PAUtagQUESTTEMP@@@std@@@std@@U?$less@K@2@V?$allocator@U?$pair@$$CBKPAV?$vector@PAUtagQUESTTEMP@@V?$allocator@PAUtagQUESTTEMP@@@std@@@std@@@std@@@2@@std@@@std@@@2@$0A@@std@@@2@@Z ; std::_Tree<std::_Tmap_traits<unsigned char,std::map<unsigned long,std::vector<tagQUESTTEMP *,std::allocator<tagQUESTTEMP *> > *,std::less<unsigned long>,std::allocator<std::pair<unsigned long const ,std::vector<tagQUESTTEMP *,std::allocator<tagQUESTTEMP *> > *> > > *,std::less<unsigned char>,std::allocator<std::pair<unsigned char const ,std::map<unsigned long,std::vector<tagQUESTTEMP *,std::allocator<tagQUESTTEMP *> > *,std::less<unsigned long>,std::allocator<std::pair<unsigned long const ,std::vector<tagQUESTTEMP *,std::allocator<tagQUESTTEMP *> > *> > > *> >,0> >::_Isnil
; Function compile flags: /Ogty
; File c:\program files (x86)\microsoft visual studio .net 2003\vc7\include\xtree
;	COMDAT ?_Isnil@?$_Tree@V?$_Tmap_traits@EPAV?$map@KPAV?$vector@PAUtagQUESTTEMP@@V?$allocator@PAUtagQUESTTEMP@@@std@@@std@@U?$less@K@2@V?$allocator@U?$pair@$$CBKPAV?$vector@PAUtagQUESTTEMP@@V?$allocator@PAUtagQUESTTEMP@@@std@@@std@@@std@@@2@@std@@U?$less@E@2@V?$allocator@U?$pair@$$CBEPAV?$map@KPAV?$vector@PAUtagQUESTTEMP@@V?$allocator@PAUtagQUESTTEMP@@@std@@@std@@U?$less@K@2@V?$allocator@U?$pair@$$CBKPAV?$vector@PAUtagQUESTTEMP@@V?$allocator@PAUtagQUESTTEMP@@@std@@@std@@@std@@@2@@std@@@std@@@2@$0A@@std@@@std@@KAAADPAU_Node@?$_Tree_nod@V?$_Tmap_traits@EPAV?$map@KPAV?$vector@PAUtagQUESTTEMP@@V?$allocator@PAUtagQUESTTEMP@@@std@@@std@@U?$less@K@2@V?$allocator@U?$pair@$$CBKPAV?$vector@PAUtagQUESTTEMP@@V?$allocator@PAUtagQUESTTEMP@@@std@@@std@@@std@@@2@@std@@U?$less@E@2@V?$allocator@U?$pair@$$CBEPAV?$map@KPAV?$vector@PAUtagQUESTTEMP@@V?$allocator@PAUtagQUESTTEMP@@@std@@@std@@U?$less@K@2@V?$allocator@U?$pair@$$CBKPAV?$vector@PAUtagQUESTTEMP@@V?$allocator@PAUtagQUESTTEMP@@@std@@@std@@@std@@@2@@std@@@std@@@2@$0A@@std@@@2@@Z
_TEXT	SEGMENT
__Pnode$ = 8						; size = 4
?_Isnil@?$_Tree@V?$_Tmap_traits@EPAV?$map@KPAV?$vector@PAUtagQUESTTEMP@@V?$allocator@PAUtagQUESTTEMP@@@std@@@std@@U?$less@K@2@V?$allocator@U?$pair@$$CBKPAV?$vector@PAUtagQUESTTEMP@@V?$allocator@PAUtagQUESTTEMP@@@std@@@std@@@std@@@2@@std@@U?$less@E@2@V?$allocator@U?$pair@$$CBEPAV?$map@KPAV?$vector@PAUtagQUESTTEMP@@V?$allocator@PAUtagQUESTTEMP@@@std@@@std@@U?$less@K@2@V?$allocator@U?$pair@$$CBKPAV?$vector@PAUtagQUESTTEMP@@V?$allocator@PAUtagQUESTTEMP@@@std@@@std@@@std@@@2@@std@@@std@@@2@$0A@@std@@@std@@KAAADPAU_Node@?$_Tree_nod@V?$_Tmap_traits@EPAV?$map@KPAV?$vector@PAUtagQUESTTEMP@@V?$allocator@PAUtagQUESTTEMP@@@std@@@std@@U?$less@K@2@V?$allocator@U?$pair@$$CBKPAV?$vector@PAUtagQUESTTEMP@@V?$allocator@PAUtagQUESTTEMP@@@std@@@std@@@std@@@2@@std@@U?$less@E@2@V?$allocator@U?$pair@$$CBEPAV?$map@KPAV?$vector@PAUtagQUESTTEMP@@V?$allocator@PAUtagQUESTTEMP@@@std@@@std@@U?$less@K@2@V?$allocator@U?$pair@$$CBKPAV?$vector@PAUtagQUESTTEMP@@V?$allocator@PAUtagQUESTTEMP@@@std@@@std@@@std@@@2@@std@@@std@@@2@$0A@@std@@@2@@Z PROC NEAR ; std::_Tree<std::_Tmap_traits<unsigned char,std::map<unsigned long,std::vector<tagQUESTTEMP *,std::allocator<tagQUESTTEMP *> > *,std::less<unsigned long>,std::allocator<std::pair<unsigned long const ,std::vector<tagQUESTTEMP *,std::allocator<tagQUESTTEMP *> > *> > > *,std::less<unsigned char>,std::allocator<std::pair<unsigned char const ,std::map<unsigned long,std::vector<tagQUESTTEMP *,std::allocator<tagQUESTTEMP *> > *,std::less<unsigned long>,std::allocator<std::pair<unsigned long const ,std::vector<tagQUESTTEMP *,std::allocator<tagQUESTTEMP *> > *> > > *> >,0> >::_Isnil, COMDAT

; 137  : 		return ((_Charref)(*_Pnode)._Isnil);

  00000	8b 44 24 04	 mov	 eax, DWORD PTR __Pnode$[esp-4]
  00004	83 c0 15	 add	 eax, 21			; 00000015H

; 138  : 		}

  00007	c3		 ret	 0
?_Isnil@?$_Tree@V?$_Tmap_traits@EPAV?$map@KPAV?$vector@PAUtagQUESTTEMP@@V?$allocator@PAUtagQUESTTEMP@@@std@@@std@@U?$less@K@2@V?$allocator@U?$pair@$$CBKPAV?$vector@PAUtagQUESTTEMP@@V?$allocator@PAUtagQUESTTEMP@@@std@@@std@@@std@@@2@@std@@U?$less@E@2@V?$allocator@U?$pair@$$CBEPAV?$map@KPAV?$vector@PAUtagQUESTTEMP@@V?$allocator@PAUtagQUESTTEMP@@@std@@@std@@U?$less@K@2@V?$allocator@U?$pair@$$CBKPAV?$vector@PAUtagQUESTTEMP@@V?$allocator@PAUtagQUESTTEMP@@@std@@@std@@@std@@@2@@std@@@std@@@2@$0A@@std@@@std@@KAAADPAU_Node@?$_Tree_nod@V?$_Tmap_traits@EPAV?$map@KPAV?$vector@PAUtagQUESTTEMP@@V?$allocator@PAUtagQUESTTEMP@@@std@@@std@@U?$less@K@2@V?$allocator@U?$pair@$$CBKPAV?$vector@PAUtagQUESTTEMP@@V?$allocator@PAUtagQUESTTEMP@@@std@@@std@@@std@@@2@@std@@U?$less@E@2@V?$allocator@U?$pair@$$CBEPAV?$map@KPAV?$vector@PAUtagQUESTTEMP@@V?$allocator@PAUtagQUESTTEMP@@@std@@@std@@U?$less@K@2@V?$allocator@U?$pair@$$CBKPAV?$vector@PAUtagQUESTTEMP@@V?$allocator@PAUtagQUESTTEMP@@@std@@@std@@@std@@@2@@std@@@std@@@2@$0A@@std@@@2@@Z ENDP ; std::_Tree<std::_Tmap_traits<unsigned char,std::map<unsigned long,std::vector<tagQUESTTEMP *,std::allocator<tagQUESTTEMP *> > *,std::less<unsigned long>,std::allocator<std::pair<unsigned long const ,std::vector<tagQUESTTEMP *,std::allocator<tagQUESTTEMP *> > *> > > *,std::less<unsigned char>,std::allocator<std::pair<unsigned char const ,std::map<unsigned long,std::vector<tagQUESTTEMP *,std::allocator<tagQUESTTEMP *> > *,std::less<unsigned long>,std::allocator<std::pair<unsigned long const ,std::vector<tagQUESTTEMP *,std::allocator<tagQUESTTEMP *> > *> > > *> >,0> >::_Isnil
_TEXT	ENDS
PUBLIC	?_Left@?$_Tree@V?$_Tmap_traits@EPAV?$map@KPAV?$vector@PAUtagQUESTTEMP@@V?$allocator@PAUtagQUESTTEMP@@@std@@@std@@U?$less@K@2@V?$allocator@U?$pair@$$CBKPAV?$vector@PAUtagQUESTTEMP@@V?$allocator@PAUtagQUESTTEMP@@@std@@@std@@@std@@@2@@std@@U?$less@E@2@V?$allocator@U?$pair@$$CBEPAV?$map@KPAV?$vector@PAUtagQUESTTEMP@@V?$allocator@PAUtagQUESTTEMP@@@std@@@std@@U?$less@K@2@V?$allocator@U?$pair@$$CBKPAV?$vector@PAUtagQUESTTEMP@@V?$allocator@PAUtagQUESTTEMP@@@std@@@std@@@std@@@2@@std@@@std@@@2@$0A@@std@@@std@@KAAAPAU_Node@?$_Tree_nod@V?$_Tmap_traits@EPAV?$map@KPAV?$vector@PAUtagQUESTTEMP@@V?$allocator@PAUtagQUESTTEMP@@@std@@@std@@U?$less@K@2@V?$allocator@U?$pair@$$CBKPAV?$vector@PAUtagQUESTTEMP@@V?$allocator@PAUtagQUESTTEMP@@@std@@@std@@@std@@@2@@std@@U?$less@E@2@V?$allocator@U?$pair@$$CBEPAV?$map@KPAV?$vector@PAUtagQUESTTEMP@@V?$allocator@PAUtagQUESTTEMP@@@std@@@std@@U?$less@K@2@V?$allocator@U?$pair@$$CBKPAV?$vector@PAUtagQUESTTEMP@@V?$allocator@PAUtagQUESTTEMP@@@std@@@std@@@std@@@2@@std@@@std@@@2@$0A@@std@@@2@PAU342@@Z ; std::_Tree<std::_Tmap_traits<unsigned char,std::map<unsigned long,std::vector<tagQUESTTEMP *,std::allocator<tagQUESTTEMP *> > *,std::less<unsigned long>,std::allocator<std::pair<unsigned long const ,std::vector<tagQUESTTEMP *,std::allocator<tagQUESTTEMP *> > *> > > *,std::less<unsigned char>,std::allocator<std::pair<unsigned char const ,std::map<unsigned long,std::vector<tagQUESTTEMP *,std::allocator<tagQUESTTEMP *> > *,std::less<unsigned long>,std::allocator<std::pair<unsigned long const ,std::vector<tagQUESTTEMP *,std::allocator<tagQUESTTEMP *> > *> > > *> >,0> >::_Left
; Function compile flags: /Ogty
;	COMDAT ?_Left@?$_Tree@V?$_Tmap_traits@EPAV?$map@KPAV?$vector@PAUtagQUESTTEMP@@V?$allocator@PAUtagQUESTTEMP@@@std@@@std@@U?$less@K@2@V?$allocator@U?$pair@$$CBKPAV?$vector@PAUtagQUESTTEMP@@V?$allocator@PAUtagQUESTTEMP@@@std@@@std@@@std@@@2@@std@@U?$less@E@2@V?$allocator@U?$pair@$$CBEPAV?$map@KPAV?$vector@PAUtagQUESTTEMP@@V?$allocator@PAUtagQUESTTEMP@@@std@@@std@@U?$less@K@2@V?$allocator@U?$pair@$$CBKPAV?$vector@PAUtagQUESTTEMP@@V?$allocator@PAUtagQUESTTEMP@@@std@@@std@@@std@@@2@@std@@@std@@@2@$0A@@std@@@std@@KAAAPAU_Node@?$_Tree_nod@V?$_Tmap_traits@EPAV?$map@KPAV?$vector@PAUtagQUESTTEMP@@V?$allocator@PAUtagQUESTTEMP@@@std@@@std@@U?$less@K@2@V?$allocator@U?$pair@$$CBKPAV?$vector@PAUtagQUESTTEMP@@V?$allocator@PAUtagQUESTTEMP@@@std@@@std@@@std@@@2@@std@@U?$less@E@2@V?$allocator@U?$pair@$$CBEPAV?$map@KPAV?$vector@PAUtagQUESTTEMP@@V?$allocator@PAUtagQUESTTEMP@@@std@@@std@@U?$less@K@2@V?$allocator@U?$pair@$$CBKPAV?$vector@PAUtagQUESTTEMP@@V?$allocator@PAUtagQUESTTEMP@@@std@@@std@@@std@@@2@@std@@@std@@@2@$0A@@std@@@2@PAU342@@Z
_TEXT	SEGMENT
__Pnode$ = 8						; size = 4
?_Left@?$_Tree@V?$_Tmap_traits@EPAV?$map@KPAV?$vector@PAUtagQUESTTEMP@@V?$allocator@PAUtagQUESTTEMP@@@std@@@std@@U?$less@K@2@V?$allocator@U?$pair@$$CBKPAV?$vector@PAUtagQUESTTEMP@@V?$allocator@PAUtagQUESTTEMP@@@std@@@std@@@std@@@2@@std@@U?$less@E@2@V?$allocator@U?$pair@$$CBEPAV?$map@KPAV?$vector@PAUtagQUESTTEMP@@V?$allocator@PAUtagQUESTTEMP@@@std@@@std@@U?$less@K@2@V?$allocator@U?$pair@$$CBKPAV?$vector@PAUtagQUESTTEMP@@V?$allocator@PAUtagQUESTTEMP@@@std@@@std@@@std@@@2@@std@@@std@@@2@$0A@@std@@@std@@KAAAPAU_Node@?$_Tree_nod@V?$_Tmap_traits@EPAV?$map@KPAV?$vector@PAUtagQUESTTEMP@@V?$allocator@PAUtagQUESTTEMP@@@std@@@std@@U?$less@K@2@V?$allocator@U?$pair@$$CBKPAV?$vector@PAUtagQUESTTEMP@@V?$allocator@PAUtagQUESTTEMP@@@std@@@std@@@std@@@2@@std@@U?$less@E@2@V?$allocator@U?$pair@$$CBEPAV?$map@KPAV?$vector@PAUtagQUESTTEMP@@V?$allocator@PAUtagQUESTTEMP@@@std@@@std@@U?$less@K@2@V?$allocator@U?$pair@$$CBKPAV?$vector@PAUtagQUESTTEMP@@V?$allocator@PAUtagQUESTTEMP@@@std@@@std@@@std@@@2@@std@@@std@@@2@$0A@@std@@@2@PAU342@@Z PROC NEAR ; std::_Tree<std::_Tmap_traits<unsigned char,std::map<unsigned long,std::vector<tagQUESTTEMP *,std::allocator<tagQUESTTEMP *> > *,std::less<unsigned long>,std::allocator<std::pair<unsigned long const ,std::vector<tagQUESTTEMP *,std::allocator<tagQUESTTEMP *> > *> > > *,std::less<unsigned char>,std::allocator<std::pair<unsigned char const ,std::map<unsigned long,std::vector<tagQUESTTEMP *,std::allocator<tagQUESTTEMP *> > *,std::less<unsigned long>,std::allocator<std::pair<unsigned long const ,std::vector<tagQUESTTEMP *,std::allocator<tagQUESTTEMP *> > *> > > *> >,0> >::_Left, COMDAT

; 147  : 		return ((_Nodepref)(*_Pnode)._Left);

  00000	8b 44 24 04	 mov	 eax, DWORD PTR __Pnode$[esp-4]

; 148  : 		}

  00004	c3		 ret	 0
?_Left@?$_Tree@V?$_Tmap_traits@EPAV?$map@KPAV?$vector@PAUtagQUESTTEMP@@V?$allocator@PAUtagQUESTTEMP@@@std@@@std@@U?$less@K@2@V?$allocator@U?$pair@$$CBKPAV?$vector@PAUtagQUESTTEMP@@V?$allocator@PAUtagQUESTTEMP@@@std@@@std@@@std@@@2@@std@@U?$less@E@2@V?$allocator@U?$pair@$$CBEPAV?$map@KPAV?$vector@PAUtagQUESTTEMP@@V?$allocator@PAUtagQUESTTEMP@@@std@@@std@@U?$less@K@2@V?$allocator@U?$pair@$$CBKPAV?$vector@PAUtagQUESTTEMP@@V?$allocator@PAUtagQUESTTEMP@@@std@@@std@@@std@@@2@@std@@@std@@@2@$0A@@std@@@std@@KAAAPAU_Node@?$_Tree_nod@V?$_Tmap_traits@EPAV?$map@KPAV?$vector@PAUtagQUESTTEMP@@V?$allocator@PAUtagQUESTTEMP@@@std@@@std@@U?$less@K@2@V?$allocator@U?$pair@$$CBKPAV?$vector@PAUtagQUESTTEMP@@V?$allocator@PAUtagQUESTTEMP@@@std@@@std@@@std@@@2@@std@@U?$less@E@2@V?$allocator@U?$pair@$$CBEPAV?$map@KPAV?$vector@PAUtagQUESTTEMP@@V?$allocator@PAUtagQUESTTEMP@@@std@@@std@@U?$less@K@2@V?$allocator@U?$pair@$$CBKPAV?$vector@PAUtagQUESTTEMP@@V?$allocator@PAUtagQUESTTEMP@@@std@@@std@@@std@@@2@@std@@@std@@@2@$0A@@std@@@2@PAU342@@Z ENDP ; std::_Tree<std::_Tmap_traits<unsigned char,std::map<unsigned long,std::vector<tagQUESTTEMP *,std::allocator<tagQUESTTEMP *> > *,std::less<unsigned long>,std::allocator<std::pair<unsigned long const ,std::vector<tagQUESTTEMP *,std::allocator<tagQUESTTEMP *> > *> > > *,std::less<unsigned char>,std::allocator<std::pair<unsigned char const ,std::map<unsigned long,std::vector<tagQUESTTEMP *,std::allocator<tagQUESTTEMP *> > *,std::less<unsigned long>,std::allocator<std::pair<unsigned long const ,std::vector<tagQUESTTEMP *,std::allocator<tagQUESTTEMP *> > *> > > *> >,0> >::_Left
_TEXT	ENDS
PUBLIC	?_Right@?$_Tree@V?$_Tmap_traits@EPAV?$map@KPAV?$vector@PAUtagQUESTTEMP@@V?$allocator@PAUtagQUESTTEMP@@@std@@@std@@U?$less@K@2@V?$allocator@U?$pair@$$CBKPAV?$vector@PAUtagQUESTTEMP@@V?$allocator@PAUtagQUESTTEMP@@@std@@@std@@@std@@@2@@std@@U?$less@E@2@V?$allocator@U?$pair@$$CBEPAV?$map@KPAV?$vector@PAUtagQUESTTEMP@@V?$allocator@PAUtagQUESTTEMP@@@std@@@std@@U?$less@K@2@V?$allocator@U?$pair@$$CBKPAV?$vector@PAUtagQUESTTEMP@@V?$allocator@PAUtagQUESTTEMP@@@std@@@std@@@std@@@2@@std@@@std@@@2@$0A@@std@@@std@@KAAAPAU_Node@?$_Tree_nod@V?$_Tmap_traits@EPAV?$map@KPAV?$vector@PAUtagQUESTTEMP@@V?$allocator@PAUtagQUESTTEMP@@@std@@@std@@U?$less@K@2@V?$allocator@U?$pair@$$CBKPAV?$vector@PAUtagQUESTTEMP@@V?$allocator@PAUtagQUESTTEMP@@@std@@@std@@@std@@@2@@std@@U?$less@E@2@V?$allocator@U?$pair@$$CBEPAV?$map@KPAV?$vector@PAUtagQUESTTEMP@@V?$allocator@PAUtagQUESTTEMP@@@std@@@std@@U?$less@K@2@V?$allocator@U?$pair@$$CBKPAV?$vector@PAUtagQUESTTEMP@@V?$allocator@PAUtagQUESTTEMP@@@std@@@std@@@std@@@2@@std@@@std@@@2@$0A@@std@@@2@PAU342@@Z ; std::_Tree<std::_Tmap_traits<unsigned char,std::map<unsigned long,std::vector<tagQUESTTEMP *,std::allocator<tagQUESTTEMP *> > *,std::less<unsigned long>,std::allocator<std::pair<unsigned long const ,std::vector<tagQUESTTEMP *,std::allocator<tagQUESTTEMP *> > *> > > *,std::less<unsigned char>,std::allocator<std::pair<unsigned char const ,std::map<unsigned long,std::vector<tagQUESTTEMP *,std::allocator<tagQUESTTEMP *> > *,std::less<unsigned long>,std::allocator<std::pair<unsigned long const ,std::vector<tagQUESTTEMP *,std::allocator<tagQUESTTEMP *> > *> > > *> >,0> >::_Right
; Function compile flags: /Ogty
;	COMDAT ?_Right@?$_Tree@V?$_Tmap_traits@EPAV?$map@KPAV?$vector@PAUtagQUESTTEMP@@V?$allocator@PAUtagQUESTTEMP@@@std@@@std@@U?$less@K@2@V?$allocator@U?$pair@$$CBKPAV?$vector@PAUtagQUESTTEMP@@V?$allocator@PAUtagQUESTTEMP@@@std@@@std@@@std@@@2@@std@@U?$less@E@2@V?$allocator@U?$pair@$$CBEPAV?$map@KPAV?$vector@PAUtagQUESTTEMP@@V?$allocator@PAUtagQUESTTEMP@@@std@@@std@@U?$less@K@2@V?$allocator@U?$pair@$$CBKPAV?$vector@PAUtagQUESTTEMP@@V?$allocator@PAUtagQUESTTEMP@@@std@@@std@@@std@@@2@@std@@@std@@@2@$0A@@std@@@std@@KAAAPAU_Node@?$_Tree_nod@V?$_Tmap_traits@EPAV?$map@KPAV?$vector@PAUtagQUESTTEMP@@V?$allocator@PAUtagQUESTTEMP@@@std@@@std@@U?$less@K@2@V?$allocator@U?$pair@$$CBKPAV?$vector@PAUtagQUESTTEMP@@V?$allocator@PAUtagQUESTTEMP@@@std@@@std@@@std@@@2@@std@@U?$less@E@2@V?$allocator@U?$pair@$$CBEPAV?$map@KPAV?$vector@PAUtagQUESTTEMP@@V?$allocator@PAUtagQUESTTEMP@@@std@@@std@@U?$less@K@2@V?$allocator@U?$pair@$$CBKPAV?$vector@PAUtagQUESTTEMP@@V?$allocator@PAUtagQUESTTEMP@@@std@@@std@@@std@@@2@@std@@@std@@@2@$0A@@std@@@2@PAU342@@Z
_TEXT	SEGMENT
__Pnode$ = 8						; size = 4
?_Right@?$_Tree@V?$_Tmap_traits@EPAV?$map@KPAV?$vector@PAUtagQUESTTEMP@@V?$allocator@PAUtagQUESTTEMP@@@std@@@std@@U?$less@K@2@V?$allocator@U?$pair@$$CBKPAV?$vector@PAUtagQUESTTEMP@@V?$allocator@PAUtagQUESTTEMP@@@std@@@std@@@std@@@2@@std@@U?$less@E@2@V?$allocator@U?$pair@$$CBEPAV?$map@KPAV?$vector@PAUtagQUESTTEMP@@V?$allocator@PAUtagQUESTTEMP@@@std@@@std@@U?$less@K@2@V?$allocator@U?$pair@$$CBKPAV?$vector@PAUtagQUESTTEMP@@V?$allocator@PAUtagQUESTTEMP@@@std@@@std@@@std@@@2@@std@@@std@@@2@$0A@@std@@@std@@KAAAPAU_Node@?$_Tree_nod@V?$_Tmap_traits@EPAV?$map@KPAV?$vector@PAUtagQUESTTEMP@@V?$allocator@PAUtagQUESTTEMP@@@std@@@std@@U?$less@K@2@V?$allocator@U?$pair@$$CBKPAV?$vector@PAUtagQUESTTEMP@@V?$allocator@PAUtagQUESTTEMP@@@std@@@std@@@std@@@2@@std@@U?$less@E@2@V?$allocator@U?$pair@$$CBEPAV?$map@KPAV?$vector@PAUtagQUESTTEMP@@V?$allocator@PAUtagQUESTTEMP@@@std@@@std@@U?$less@K@2@V?$allocator@U?$pair@$$CBKPAV?$vector@PAUtagQUESTTEMP@@V?$allocator@PAUtagQUESTTEMP@@@std@@@std@@@std@@@2@@std@@@std@@@2@$0A@@std@@@2@PAU342@@Z PROC NEAR ; std::_Tree<std::_Tmap_traits<unsigned char,std::map<unsigned long,std::vector<tagQUESTTEMP *,std::allocator<tagQUESTTEMP *> > *,std::less<unsigned long>,std::allocator<std::pair<unsigned long const ,std::vector<tagQUESTTEMP *,std::allocator<tagQUESTTEMP *> > *> > > *,std::less<unsigned char>,std::allocator<std::pair<unsigned char const ,std::map<unsigned long,std::vector<tagQUESTTEMP *,std::allocator<tagQUESTTEMP *> > *,std::less<unsigned long>,std::allocator<std::pair<unsigned long const ,std::vector<tagQUESTTEMP *,std::allocator<tagQUESTTEMP *> > *> > > *> >,0> >::_Right, COMDAT

; 157  : 		return ((_Nodepref)(*_Pnode)._Right);

  00000	8b 44 24 04	 mov	 eax, DWORD PTR __Pnode$[esp-4]
  00004	83 c0 08	 add	 eax, 8

; 158  : 		}

  00007	c3		 ret	 0
?_Right@?$_Tree@V?$_Tmap_traits@EPAV?$map@KPAV?$vector@PAUtagQUESTTEMP@@V?$allocator@PAUtagQUESTTEMP@@@std@@@std@@U?$less@K@2@V?$allocator@U?$pair@$$CBKPAV?$vector@PAUtagQUESTTEMP@@V?$allocator@PAUtagQUESTTEMP@@@std@@@std@@@std@@@2@@std@@U?$less@E@2@V?$allocator@U?$pair@$$CBEPAV?$map@KPAV?$vector@PAUtagQUESTTEMP@@V?$allocator@PAUtagQUESTTEMP@@@std@@@std@@U?$less@K@2@V?$allocator@U?$pair@$$CBKPAV?$vector@PAUtagQUESTTEMP@@V?$allocator@PAUtagQUESTTEMP@@@std@@@std@@@std@@@2@@std@@@std@@@2@$0A@@std@@@std@@KAAAPAU_Node@?$_Tree_nod@V?$_Tmap_traits@EPAV?$map@KPAV?$vector@PAUtagQUESTTEMP@@V?$allocator@PAUtagQUESTTEMP@@@std@@@std@@U?$less@K@2@V?$allocator@U?$pair@$$CBKPAV?$vector@PAUtagQUESTTEMP@@V?$allocator@PAUtagQUESTTEMP@@@std@@@std@@@std@@@2@@std@@U?$less@E@2@V?$allocator@U?$pair@$$CBEPAV?$map@KPAV?$vector@PAUtagQUESTTEMP@@V?$allocator@PAUtagQUESTTEMP@@@std@@@std@@U?$less@K@2@V?$allocator@U?$pair@$$CBKPAV?$vector@PAUtagQUESTTEMP@@V?$allocator@PAUtagQUESTTEMP@@@std@@@std@@@std@@@2@@std@@@std@@@2@$0A@@std@@@2@PAU342@@Z ENDP ; std::_Tree<std::_Tmap_traits<unsigned char,std::map<unsigned long,std::vector<tagQUESTTEMP *,std::allocator<tagQUESTTEMP *> > *,std::less<unsigned long>,std::allocator<std::pair<unsigned long const ,std::vector<tagQUESTTEMP *,std::allocator<tagQUESTTEMP *> > *> > > *,std::less<unsigned char>,std::allocator<std::pair<unsigned char const ,std::map<unsigned long,std::vector<tagQUESTTEMP *,std::allocator<tagQUESTTEMP *> > *,std::less<unsigned long>,std::allocator<std::pair<unsigned long const ,std::vector<tagQUESTTEMP *,std::allocator<tagQUESTTEMP *> > *> > > *> >,0> >::_Right
_TEXT	ENDS
PUBLIC	?_Isnil@?$_Tree@V?$_Tmap_traits@KPAV?$vector@PAUtagQUESTTEMP@@V?$allocator@PAUtagQUESTTEMP@@@std@@@std@@U?$less@K@2@V?$allocator@U?$pair@$$CBKPAV?$vector@PAUtagQUESTTEMP@@V?$allocator@PAUtagQUESTTEMP@@@std@@@std@@@std@@@2@$0A@@std@@@std@@KAAADPAU_Node@?$_Tree_nod@V?$_Tmap_traits@KPAV?$vector@PAUtagQUESTTEMP@@V?$allocator@PAUtagQUESTTEMP@@@std@@@std@@U?$less@K@2@V?$allocator@U?$pair@$$CBKPAV?$vector@PAUtagQUESTTEMP@@V?$allocator@PAUtagQUESTTEMP@@@std@@@std@@@std@@@2@$0A@@std@@@2@@Z ; std::_Tree<std::_Tmap_traits<unsigned long,std::vector<tagQUESTTEMP *,std::allocator<tagQUESTTEMP *> > *,std::less<unsigned long>,std::allocator<std::pair<unsigned long const ,std::vector<tagQUESTTEMP *,std::allocator<tagQUESTTEMP *> > *> >,0> >::_Isnil
; Function compile flags: /Ogty
;	COMDAT ?_Isnil@?$_Tree@V?$_Tmap_traits@KPAV?$vector@PAUtagQUESTTEMP@@V?$allocator@PAUtagQUESTTEMP@@@std@@@std@@U?$less@K@2@V?$allocator@U?$pair@$$CBKPAV?$vector@PAUtagQUESTTEMP@@V?$allocator@PAUtagQUESTTEMP@@@std@@@std@@@std@@@2@$0A@@std@@@std@@KAAADPAU_Node@?$_Tree_nod@V?$_Tmap_traits@KPAV?$vector@PAUtagQUESTTEMP@@V?$allocator@PAUtagQUESTTEMP@@@std@@@std@@U?$less@K@2@V?$allocator@U?$pair@$$CBKPAV?$vector@PAUtagQUESTTEMP@@V?$allocator@PAUtagQUESTTEMP@@@std@@@std@@@std@@@2@$0A@@std@@@2@@Z
_TEXT	SEGMENT
__Pnode$ = 8						; size = 4
?_Isnil@?$_Tree@V?$_Tmap_traits@KPAV?$vector@PAUtagQUESTTEMP@@V?$allocator@PAUtagQUESTTEMP@@@std@@@std@@U?$less@K@2@V?$allocator@U?$pair@$$CBKPAV?$vector@PAUtagQUESTTEMP@@V?$allocator@PAUtagQUESTTEMP@@@std@@@std@@@std@@@2@$0A@@std@@@std@@KAAADPAU_Node@?$_Tree_nod@V?$_Tmap_traits@KPAV?$vector@PAUtagQUESTTEMP@@V?$allocator@PAUtagQUESTTEMP@@@std@@@std@@U?$less@K@2@V?$allocator@U?$pair@$$CBKPAV?$vector@PAUtagQUESTTEMP@@V?$allocator@PAUtagQUESTTEMP@@@std@@@std@@@std@@@2@$0A@@std@@@2@@Z PROC NEAR ; std::_Tree<std::_Tmap_traits<unsigned long,std::vector<tagQUESTTEMP *,std::allocator<tagQUESTTEMP *> > *,std::less<unsigned long>,std::allocator<std::pair<unsigned long const ,std::vector<tagQUESTTEMP *,std::allocator<tagQUESTTEMP *> > *> >,0> >::_Isnil, COMDAT

; 137  : 		return ((_Charref)(*_Pnode)._Isnil);

  00000	8b 44 24 04	 mov	 eax, DWORD PTR __Pnode$[esp-4]
  00004	83 c0 15	 add	 eax, 21			; 00000015H

; 138  : 		}

  00007	c3		 ret	 0
?_Isnil@?$_Tree@V?$_Tmap_traits@KPAV?$vector@PAUtagQUESTTEMP@@V?$allocator@PAUtagQUESTTEMP@@@std@@@std@@U?$less@K@2@V?$allocator@U?$pair@$$CBKPAV?$vector@PAUtagQUESTTEMP@@V?$allocator@PAUtagQUESTTEMP@@@std@@@std@@@std@@@2@$0A@@std@@@std@@KAAADPAU_Node@?$_Tree_nod@V?$_Tmap_traits@KPAV?$vector@PAUtagQUESTTEMP@@V?$allocator@PAUtagQUESTTEMP@@@std@@@std@@U?$less@K@2@V?$allocator@U?$pair@$$CBKPAV?$vector@PAUtagQUESTTEMP@@V?$allocator@PAUtagQUESTTEMP@@@std@@@std@@@std@@@2@$0A@@std@@@2@@Z ENDP ; std::_Tree<std::_Tmap_traits<unsigned long,std::vector<tagQUESTTEMP *,std::allocator<tagQUESTTEMP *> > *,std::less<unsigned long>,std::allocator<std::pair<unsigned long const ,std::vector<tagQUESTTEMP *,std::allocator<tagQUESTTEMP *> > *> >,0> >::_Isnil
_TEXT	ENDS
PUBLIC	?_Left@?$_Tree@V?$_Tmap_traits@KPAV?$vector@PAUtagQUESTTEMP@@V?$allocator@PAUtagQUESTTEMP@@@std@@@std@@U?$less@K@2@V?$allocator@U?$pair@$$CBKPAV?$vector@PAUtagQUESTTEMP@@V?$allocator@PAUtagQUESTTEMP@@@std@@@std@@@std@@@2@$0A@@std@@@std@@KAAAPAU_Node@?$_Tree_nod@V?$_Tmap_traits@KPAV?$vector@PAUtagQUESTTEMP@@V?$allocator@PAUtagQUESTTEMP@@@std@@@std@@U?$less@K@2@V?$allocator@U?$pair@$$CBKPAV?$vector@PAUtagQUESTTEMP@@V?$allocator@PAUtagQUESTTEMP@@@std@@@std@@@std@@@2@$0A@@std@@@2@PAU342@@Z ; std::_Tree<std::_Tmap_traits<unsigned long,std::vector<tagQUESTTEMP *,std::allocator<tagQUESTTEMP *> > *,std::less<unsigned long>,std::allocator<std::pair<unsigned long const ,std::vector<tagQUESTTEMP *,std::allocator<tagQUESTTEMP *> > *> >,0> >::_Left
; Function compile flags: /Ogty
;	COMDAT ?_Left@?$_Tree@V?$_Tmap_traits@KPAV?$vector@PAUtagQUESTTEMP@@V?$allocator@PAUtagQUESTTEMP@@@std@@@std@@U?$less@K@2@V?$allocator@U?$pair@$$CBKPAV?$vector@PAUtagQUESTTEMP@@V?$allocator@PAUtagQUESTTEMP@@@std@@@std@@@std@@@2@$0A@@std@@@std@@KAAAPAU_Node@?$_Tree_nod@V?$_Tmap_traits@KPAV?$vector@PAUtagQUESTTEMP@@V?$allocator@PAUtagQUESTTEMP@@@std@@@std@@U?$less@K@2@V?$allocator@U?$pair@$$CBKPAV?$vector@PAUtagQUESTTEMP@@V?$allocator@PAUtagQUESTTEMP@@@std@@@std@@@std@@@2@$0A@@std@@@2@PAU342@@Z
_TEXT	SEGMENT
__Pnode$ = 8						; size = 4
?_Left@?$_Tree@V?$_Tmap_traits@KPAV?$vector@PAUtagQUESTTEMP@@V?$allocator@PAUtagQUESTTEMP@@@std@@@std@@U?$less@K@2@V?$allocator@U?$pair@$$CBKPAV?$vector@PAUtagQUESTTEMP@@V?$allocator@PAUtagQUESTTEMP@@@std@@@std@@@std@@@2@$0A@@std@@@std@@KAAAPAU_Node@?$_Tree_nod@V?$_Tmap_traits@KPAV?$vector@PAUtagQUESTTEMP@@V?$allocator@PAUtagQUESTTEMP@@@std@@@std@@U?$less@K@2@V?$allocator@U?$pair@$$CBKPAV?$vector@PAUtagQUESTTEMP@@V?$allocator@PAUtagQUESTTEMP@@@std@@@std@@@std@@@2@$0A@@std@@@2@PAU342@@Z PROC NEAR ; std::_Tree<std::_Tmap_traits<unsigned long,std::vector<tagQUESTTEMP *,std::allocator<tagQUESTTEMP *> > *,std::less<unsigned long>,std::allocator<std::pair<unsigned long const ,std::vector<tagQUESTTEMP *,std::allocator<tagQUESTTEMP *> > *> >,0> >::_Left, COMDAT

; 147  : 		return ((_Nodepref)(*_Pnode)._Left);

  00000	8b 44 24 04	 mov	 eax, DWORD PTR __Pnode$[esp-4]

; 148  : 		}

  00004	c3		 ret	 0
?_Left@?$_Tree@V?$_Tmap_traits@KPAV?$vector@PAUtagQUESTTEMP@@V?$allocator@PAUtagQUESTTEMP@@@std@@@std@@U?$less@K@2@V?$allocator@U?$pair@$$CBKPAV?$vector@PAUtagQUESTTEMP@@V?$allocator@PAUtagQUESTTEMP@@@std@@@std@@@std@@@2@$0A@@std@@@std@@KAAAPAU_Node@?$_Tree_nod@V?$_Tmap_traits@KPAV?$vector@PAUtagQUESTTEMP@@V?$allocator@PAUtagQUESTTEMP@@@std@@@std@@U?$less@K@2@V?$allocator@U?$pair@$$CBKPAV?$vector@PAUtagQUESTTEMP@@V?$allocator@PAUtagQUESTTEMP@@@std@@@std@@@std@@@2@$0A@@std@@@2@PAU342@@Z ENDP ; std::_Tree<std::_Tmap_traits<unsigned long,std::vector<tagQUESTTEMP *,std::allocator<tagQUESTTEMP *> > *,std::less<unsigned long>,std::allocator<std::pair<unsigned long const ,std::vector<tagQUESTTEMP *,std::allocator<tagQUESTTEMP *> > *> >,0> >::_Left
_TEXT	ENDS
PUBLIC	?_Right@?$_Tree@V?$_Tmap_traits@KPAV?$vector@PAUtagQUESTTEMP@@V?$allocator@PAUtagQUESTTEMP@@@std@@@std@@U?$less@K@2@V?$allocator@U?$pair@$$CBKPAV?$vector@PAUtagQUESTTEMP@@V?$allocator@PAUtagQUESTTEMP@@@std@@@std@@@std@@@2@$0A@@std@@@std@@KAAAPAU_Node@?$_Tree_nod@V?$_Tmap_traits@KPAV?$vector@PAUtagQUESTTEMP@@V?$allocator@PAUtagQUESTTEMP@@@std@@@std@@U?$less@K@2@V?$allocator@U?$pair@$$CBKPAV?$vector@PAUtagQUESTTEMP@@V?$allocator@PAUtagQUESTTEMP@@@std@@@std@@@std@@@2@$0A@@std@@@2@PAU342@@Z ; std::_Tree<std::_Tmap_traits<unsigned long,std::vector<tagQUESTTEMP *,std::allocator<tagQUESTTEMP *> > *,std::less<unsigned long>,std::allocator<std::pair<unsigned long const ,std::vector<tagQUESTTEMP *,std::allocator<tagQUESTTEMP *> > *> >,0> >::_Right
; Function compile flags: /Ogty
;	COMDAT ?_Right@?$_Tree@V?$_Tmap_traits@KPAV?$vector@PAUtagQUESTTEMP@@V?$allocator@PAUtagQUESTTEMP@@@std@@@std@@U?$less@K@2@V?$allocator@U?$pair@$$CBKPAV?$vector@PAUtagQUESTTEMP@@V?$allocator@PAUtagQUESTTEMP@@@std@@@std@@@std@@@2@$0A@@std@@@std@@KAAAPAU_Node@?$_Tree_nod@V?$_Tmap_traits@KPAV?$vector@PAUtagQUESTTEMP@@V?$allocator@PAUtagQUESTTEMP@@@std@@@std@@U?$less@K@2@V?$allocator@U?$pair@$$CBKPAV?$vector@PAUtagQUESTTEMP@@V?$allocator@PAUtagQUESTTEMP@@@std@@@std@@@std@@@2@$0A@@std@@@2@PAU342@@Z
_TEXT	SEGMENT
__Pnode$ = 8						; size = 4
?_Right@?$_Tree@V?$_Tmap_traits@KPAV?$vector@PAUtagQUESTTEMP@@V?$allocator@PAUtagQUESTTEMP@@@std@@@std@@U?$less@K@2@V?$allocator@U?$pair@$$CBKPAV?$vector@PAUtagQUESTTEMP@@V?$allocator@PAUtagQUESTTEMP@@@std@@@std@@@std@@@2@$0A@@std@@@std@@KAAAPAU_Node@?$_Tree_nod@V?$_Tmap_traits@KPAV?$vector@PAUtagQUESTTEMP@@V?$allocator@PAUtagQUESTTEMP@@@std@@@std@@U?$less@K@2@V?$allocator@U?$pair@$$CBKPAV?$vector@PAUtagQUESTTEMP@@V?$allocator@PAUtagQUESTTEMP@@@std@@@std@@@std@@@2@$0A@@std@@@2@PAU342@@Z PROC NEAR ; std::_Tree<std::_Tmap_traits<unsigned long,std::vector<tagQUESTTEMP *,std::allocator<tagQUESTTEMP *> > *,std::less<unsigned long>,std::allocator<std::pair<unsigned long const ,std::vector<tagQUESTTEMP *,std::allocator<tagQUESTTEMP *> > *> >,0> >::_Right, COMDAT

; 157  : 		return ((_Nodepref)(*_Pnode)._Right);

  00000	8b 44 24 04	 mov	 eax, DWORD PTR __Pnode$[esp-4]
  00004	83 c0 08	 add	 eax, 8

; 158  : 		}

  00007	c3		 ret	 0
?_Right@?$_Tree@V?$_Tmap_traits@KPAV?$vector@PAUtagQUESTTEMP@@V?$allocator@PAUtagQUESTTEMP@@@std@@@std@@U?$less@K@2@V?$allocator@U?$pair@$$CBKPAV?$vector@PAUtagQUESTTEMP@@V?$allocator@PAUtagQUESTTEMP@@@std@@@std@@@std@@@2@$0A@@std@@@std@@KAAAPAU_Node@?$_Tree_nod@V?$_Tmap_traits@KPAV?$vector@PAUtagQUESTTEMP@@V?$allocator@PAUtagQUESTTEMP@@@std@@@std@@U?$less@K@2@V?$allocator@U?$pair@$$CBKPAV?$vector@PAUtagQUESTTEMP@@V?$allocator@PAUtagQUESTTEMP@@@std@@@std@@@std@@@2@$0A@@std@@@2@PAU342@@Z ENDP ; std::_Tree<std::_Tmap_traits<unsigned long,std::vector<tagQUESTTEMP *,std::allocator<tagQUESTTEMP *> > *,std::less<unsigned long>,std::allocator<std::pair<unsigned long const ,std::vector<tagQUESTTEMP *,std::allocator<tagQUESTTEMP *> > *> >,0> >::_Right
_TEXT	ENDS
PUBLIC	??0const_iterator@?$vector@PAUtagQUESTTEMP@@V?$allocator@PAUtagQUESTTEMP@@@std@@@std@@QAE@PAPAUtagQUESTTEMP@@@Z ; std::vector<tagQUESTTEMP *,std::allocator<tagQUESTTEMP *> >::const_iterator::const_iterator
; Function compile flags: /Ogty
; File c:\program files (x86)\microsoft visual studio .net 2003\vc7\include\vector
;	COMDAT ??0const_iterator@?$vector@PAUtagQUESTTEMP@@V?$allocator@PAUtagQUESTTEMP@@@std@@@std@@QAE@PAPAUtagQUESTTEMP@@@Z
_TEXT	SEGMENT
__Ptr$ = 8						; size = 4
??0const_iterator@?$vector@PAUtagQUESTTEMP@@V?$allocator@PAUtagQUESTTEMP@@@std@@@std@@QAE@PAPAUtagQUESTTEMP@@@Z PROC NEAR ; std::vector<tagQUESTTEMP *,std::allocator<tagQUESTTEMP *> >::const_iterator::const_iterator, COMDAT
; _this$ = ecx

; 73   : 		const_iterator(_Tptr _Ptr)

  00000	8b c1		 mov	 eax, ecx

; 74   : 			{	// construct with pointer _Ptr
; 75   : 			_Myptr = _Ptr;

  00002	8b 4c 24 04	 mov	 ecx, DWORD PTR __Ptr$[esp-4]
  00006	89 08		 mov	 DWORD PTR [eax], ecx

; 76   : 			}

  00008	c2 04 00	 ret	 4
??0const_iterator@?$vector@PAUtagQUESTTEMP@@V?$allocator@PAUtagQUESTTEMP@@@std@@@std@@QAE@PAPAUtagQUESTTEMP@@@Z ENDP ; std::vector<tagQUESTTEMP *,std::allocator<tagQUESTTEMP *> >::const_iterator::const_iterator
_TEXT	ENDS
PUBLIC	?_Isnil@?$_Tree@V?$_Tmap_traits@EPAVCTInven@@U?$less@E@std@@V?$allocator@U?$pair@$$CBEPAVCTInven@@@std@@@3@$0A@@std@@@std@@KAAADPAU_Node@?$_Tree_nod@V?$_Tmap_traits@EPAVCTInven@@U?$less@E@std@@V?$allocator@U?$pair@$$CBEPAVCTInven@@@std@@@3@$0A@@std@@@2@@Z ; std::_Tree<std::_Tmap_traits<unsigned char,CTInven *,std::less<unsigned char>,std::allocator<std::pair<unsigned char const ,CTInven *> >,0> >::_Isnil
; Function compile flags: /Ogty
; File c:\program files (x86)\microsoft visual studio .net 2003\vc7\include\xtree
;	COMDAT ?_Isnil@?$_Tree@V?$_Tmap_traits@EPAVCTInven@@U?$less@E@std@@V?$allocator@U?$pair@$$CBEPAVCTInven@@@std@@@3@$0A@@std@@@std@@KAAADPAU_Node@?$_Tree_nod@V?$_Tmap_traits@EPAVCTInven@@U?$less@E@std@@V?$allocator@U?$pair@$$CBEPAVCTInven@@@std@@@3@$0A@@std@@@2@@Z
_TEXT	SEGMENT
__Pnode$ = 8						; size = 4
?_Isnil@?$_Tree@V?$_Tmap_traits@EPAVCTInven@@U?$less@E@std@@V?$allocator@U?$pair@$$CBEPAVCTInven@@@std@@@3@$0A@@std@@@std@@KAAADPAU_Node@?$_Tree_nod@V?$_Tmap_traits@EPAVCTInven@@U?$less@E@std@@V?$allocator@U?$pair@$$CBEPAVCTInven@@@std@@@3@$0A@@std@@@2@@Z PROC NEAR ; std::_Tree<std::_Tmap_traits<unsigned char,CTInven *,std::less<unsigned char>,std::allocator<std::pair<unsigned char const ,CTInven *> >,0> >::_Isnil, COMDAT

; 137  : 		return ((_Charref)(*_Pnode)._Isnil);

  00000	8b 44 24 04	 mov	 eax, DWORD PTR __Pnode$[esp-4]
  00004	83 c0 15	 add	 eax, 21			; 00000015H

; 138  : 		}

  00007	c3		 ret	 0
?_Isnil@?$_Tree@V?$_Tmap_traits@EPAVCTInven@@U?$less@E@std@@V?$allocator@U?$pair@$$CBEPAVCTInven@@@std@@@3@$0A@@std@@@std@@KAAADPAU_Node@?$_Tree_nod@V?$_Tmap_traits@EPAVCTInven@@U?$less@E@std@@V?$allocator@U?$pair@$$CBEPAVCTInven@@@std@@@3@$0A@@std@@@2@@Z ENDP ; std::_Tree<std::_Tmap_traits<unsigned char,CTInven *,std::less<unsigned char>,std::allocator<std::pair<unsigned char const ,CTInven *> >,0> >::_Isnil
_TEXT	ENDS
PUBLIC	?_Parent@?$_Tree@V?$_Tmap_traits@EPAVCTInven@@U?$less@E@std@@V?$allocator@U?$pair@$$CBEPAVCTInven@@@std@@@3@$0A@@std@@@std@@KAAAPAU_Node@?$_Tree_nod@V?$_Tmap_traits@EPAVCTInven@@U?$less@E@std@@V?$allocator@U?$pair@$$CBEPAVCTInven@@@std@@@3@$0A@@std@@@2@PAU342@@Z ; std::_Tree<std::_Tmap_traits<unsigned char,CTInven *,std::less<unsigned char>,std::allocator<std::pair<unsigned char const ,CTInven *> >,0> >::_Parent
; Function compile flags: /Ogty
;	COMDAT ?_Parent@?$_Tree@V?$_Tmap_traits@EPAVCTInven@@U?$less@E@std@@V?$allocator@U?$pair@$$CBEPAVCTInven@@@std@@@3@$0A@@std@@@std@@KAAAPAU_Node@?$_Tree_nod@V?$_Tmap_traits@EPAVCTInven@@U?$less@E@std@@V?$allocator@U?$pair@$$CBEPAVCTInven@@@std@@@3@$0A@@std@@@2@PAU342@@Z
_TEXT	SEGMENT
__Pnode$ = 8						; size = 4
?_Parent@?$_Tree@V?$_Tmap_traits@EPAVCTInven@@U?$less@E@std@@V?$allocator@U?$pair@$$CBEPAVCTInven@@@std@@@3@$0A@@std@@@std@@KAAAPAU_Node@?$_Tree_nod@V?$_Tmap_traits@EPAVCTInven@@U?$less@E@std@@V?$allocator@U?$pair@$$CBEPAVCTInven@@@std@@@3@$0A@@std@@@2@PAU342@@Z PROC NEAR ; std::_Tree<std::_Tmap_traits<unsigned char,CTInven *,std::less<unsigned char>,std::allocator<std::pair<unsigned char const ,CTInven *> >,0> >::_Parent, COMDAT

; 152  : 		return ((_Nodepref)(*_Pnode)._Parent);

  00000	8b 44 24 04	 mov	 eax, DWORD PTR __Pnode$[esp-4]
  00004	83 c0 04	 add	 eax, 4

; 153  : 		}

  00007	c3		 ret	 0
?_Parent@?$_Tree@V?$_Tmap_traits@EPAVCTInven@@U?$less@E@std@@V?$allocator@U?$pair@$$CBEPAVCTInven@@@std@@@3@$0A@@std@@@std@@KAAAPAU_Node@?$_Tree_nod@V?$_Tmap_traits@EPAVCTInven@@U?$less@E@std@@V?$allocator@U?$pair@$$CBEPAVCTInven@@@std@@@3@$0A@@std@@@2@PAU342@@Z ENDP ; std::_Tree<std::_Tmap_traits<unsigned char,CTInven *,std::less<unsigned char>,std::allocator<std::pair<unsigned char const ,CTInven *> >,0> >::_Parent
_TEXT	ENDS
PUBLIC	?_Right@?$_Tree@V?$_Tmap_traits@EPAVCTInven@@U?$less@E@std@@V?$allocator@U?$pair@$$CBEPAVCTInven@@@std@@@3@$0A@@std@@@std@@KAAAPAU_Node@?$_Tree_nod@V?$_Tmap_traits@EPAVCTInven@@U?$less@E@std@@V?$allocator@U?$pair@$$CBEPAVCTInven@@@std@@@3@$0A@@std@@@2@PAU342@@Z ; std::_Tree<std::_Tmap_traits<unsigned char,CTInven *,std::less<unsigned char>,std::allocator<std::pair<unsigned char const ,CTInven *> >,0> >::_Right
; Function compile flags: /Ogty
;	COMDAT ?_Right@?$_Tree@V?$_Tmap_traits@EPAVCTInven@@U?$less@E@std@@V?$allocator@U?$pair@$$CBEPAVCTInven@@@std@@@3@$0A@@std@@@std@@KAAAPAU_Node@?$_Tree_nod@V?$_Tmap_traits@EPAVCTInven@@U?$less@E@std@@V?$allocator@U?$pair@$$CBEPAVCTInven@@@std@@@3@$0A@@std@@@2@PAU342@@Z
_TEXT	SEGMENT
__Pnode$ = 8						; size = 4
?_Right@?$_Tree@V?$_Tmap_traits@EPAVCTInven@@U?$less@E@std@@V?$allocator@U?$pair@$$CBEPAVCTInven@@@std@@@3@$0A@@std@@@std@@KAAAPAU_Node@?$_Tree_nod@V?$_Tmap_traits@EPAVCTInven@@U?$less@E@std@@V?$allocator@U?$pair@$$CBEPAVCTInven@@@std@@@3@$0A@@std@@@2@PAU342@@Z PROC NEAR ; std::_Tree<std::_Tmap_traits<unsigned char,CTInven *,std::less<unsigned char>,std::allocator<std::pair<unsigned char const ,CTInven *> >,0> >::_Right, COMDAT

; 157  : 		return ((_Nodepref)(*_Pnode)._Right);

  00000	8b 44 24 04	 mov	 eax, DWORD PTR __Pnode$[esp-4]
  00004	83 c0 08	 add	 eax, 8

; 158  : 		}

  00007	c3		 ret	 0
?_Right@?$_Tree@V?$_Tmap_traits@EPAVCTInven@@U?$less@E@std@@V?$allocator@U?$pair@$$CBEPAVCTInven@@@std@@@3@$0A@@std@@@std@@KAAAPAU_Node@?$_Tree_nod@V?$_Tmap_traits@EPAVCTInven@@U?$less@E@std@@V?$allocator@U?$pair@$$CBEPAVCTInven@@@std@@@3@$0A@@std@@@2@PAU342@@Z ENDP ; std::_Tree<std::_Tmap_traits<unsigned char,CTInven *,std::less<unsigned char>,std::allocator<std::pair<unsigned char const ,CTInven *> >,0> >::_Right
_TEXT	ENDS
PUBLIC	?_Min@?$_Tree@V?$_Tmap_traits@EPAVCTInven@@U?$less@E@std@@V?$allocator@U?$pair@$$CBEPAVCTInven@@@std@@@3@$0A@@std@@@std@@KAPAU_Node@?$_Tree_nod@V?$_Tmap_traits@EPAVCTInven@@U?$less@E@std@@V?$allocator@U?$pair@$$CBEPAVCTInven@@@std@@@3@$0A@@std@@@2@PAU342@@Z ; std::_Tree<std::_Tmap_traits<unsigned char,CTInven *,std::less<unsigned char>,std::allocator<std::pair<unsigned char const ,CTInven *> >,0> >::_Min
; Function compile flags: /Ogty
;	COMDAT ?_Min@?$_Tree@V?$_Tmap_traits@EPAVCTInven@@U?$less@E@std@@V?$allocator@U?$pair@$$CBEPAVCTInven@@@std@@@3@$0A@@std@@@std@@KAPAU_Node@?$_Tree_nod@V?$_Tmap_traits@EPAVCTInven@@U?$less@E@std@@V?$allocator@U?$pair@$$CBEPAVCTInven@@@std@@@3@$0A@@std@@@2@PAU342@@Z
_TEXT	SEGMENT
__Pnode$ = 8						; size = 4
?_Min@?$_Tree@V?$_Tmap_traits@EPAVCTInven@@U?$less@E@std@@V?$allocator@U?$pair@$$CBEPAVCTInven@@@std@@@3@$0A@@std@@@std@@KAPAU_Node@?$_Tree_nod@V?$_Tmap_traits@EPAVCTInven@@U?$less@E@std@@V?$allocator@U?$pair@$$CBEPAVCTInven@@@std@@@3@$0A@@std@@@2@PAU342@@Z PROC NEAR ; std::_Tree<std::_Tmap_traits<unsigned char,CTInven *,std::less<unsigned char>,std::allocator<std::pair<unsigned char const ,CTInven *> >,0> >::_Min, COMDAT

; 1042 : 		while (!_Isnil(_Left(_Pnode)))

  00000	8b 44 24 04	 mov	 eax, DWORD PTR __Pnode$[esp-4]
  00004	8b 08		 mov	 ecx, DWORD PTR [eax]
  00006	8a 51 15	 mov	 dl, BYTE PTR [ecx+21]
  00009	84 d2		 test	 dl, dl
  0000b	75 0e		 jne	 SHORT $L154547
  0000d	8d 49 00	 npad	 3
$L154546:

; 1043 : 			_Pnode = _Left(_Pnode);

  00010	8b c1		 mov	 eax, ecx
  00012	8b 08		 mov	 ecx, DWORD PTR [eax]
  00014	8a 51 15	 mov	 dl, BYTE PTR [ecx+21]
  00017	84 d2		 test	 dl, dl
  00019	74 f5		 je	 SHORT $L154546
$L154547:

; 1044 : 		return (_Pnode);
; 1045 : 		}

  0001b	c3		 ret	 0
?_Min@?$_Tree@V?$_Tmap_traits@EPAVCTInven@@U?$less@E@std@@V?$allocator@U?$pair@$$CBEPAVCTInven@@@std@@@3@$0A@@std@@@std@@KAPAU_Node@?$_Tree_nod@V?$_Tmap_traits@EPAVCTInven@@U?$less@E@std@@V?$allocator@U?$pair@$$CBEPAVCTInven@@@std@@@3@$0A@@std@@@2@PAU342@@Z ENDP ; std::_Tree<std::_Tmap_traits<unsigned char,CTInven *,std::less<unsigned char>,std::allocator<std::pair<unsigned char const ,CTInven *> >,0> >::_Min
_TEXT	ENDS
PUBLIC	?_Isnil@?$_Tree@V?$_Tmap_traits@EPAVCTItem@@U?$less@E@std@@V?$allocator@U?$pair@$$CBEPAVCTItem@@@std@@@3@$0A@@std@@@std@@KAAADPAU_Node@?$_Tree_nod@V?$_Tmap_traits@EPAVCTItem@@U?$less@E@std@@V?$allocator@U?$pair@$$CBEPAVCTItem@@@std@@@3@$0A@@std@@@2@@Z ; std::_Tree<std::_Tmap_traits<unsigned char,CTItem *,std::less<unsigned char>,std::allocator<std::pair<unsigned char const ,CTItem *> >,0> >::_Isnil
; Function compile flags: /Ogty
;	COMDAT ?_Isnil@?$_Tree@V?$_Tmap_traits@EPAVCTItem@@U?$less@E@std@@V?$allocator@U?$pair@$$CBEPAVCTItem@@@std@@@3@$0A@@std@@@std@@KAAADPAU_Node@?$_Tree_nod@V?$_Tmap_traits@EPAVCTItem@@U?$less@E@std@@V?$allocator@U?$pair@$$CBEPAVCTItem@@@std@@@3@$0A@@std@@@2@@Z
_TEXT	SEGMENT
__Pnode$ = 8						; size = 4
?_Isnil@?$_Tree@V?$_Tmap_traits@EPAVCTItem@@U?$less@E@std@@V?$allocator@U?$pair@$$CBEPAVCTItem@@@std@@@3@$0A@@std@@@std@@KAAADPAU_Node@?$_Tree_nod@V?$_Tmap_traits@EPAVCTItem@@U?$less@E@std@@V?$allocator@U?$pair@$$CBEPAVCTItem@@@std@@@3@$0A@@std@@@2@@Z PROC NEAR ; std::_Tree<std::_Tmap_traits<unsigned char,CTItem *,std::less<unsigned char>,std::allocator<std::pair<unsigned char const ,CTItem *> >,0> >::_Isnil, COMDAT

; 137  : 		return ((_Charref)(*_Pnode)._Isnil);

  00000	8b 44 24 04	 mov	 eax, DWORD PTR __Pnode$[esp-4]
  00004	83 c0 15	 add	 eax, 21			; 00000015H

; 138  : 		}

  00007	c3		 ret	 0
?_Isnil@?$_Tree@V?$_Tmap_traits@EPAVCTItem@@U?$less@E@std@@V?$allocator@U?$pair@$$CBEPAVCTItem@@@std@@@3@$0A@@std@@@std@@KAAADPAU_Node@?$_Tree_nod@V?$_Tmap_traits@EPAVCTItem@@U?$less@E@std@@V?$allocator@U?$pair@$$CBEPAVCTItem@@@std@@@3@$0A@@std@@@2@@Z ENDP ; std::_Tree<std::_Tmap_traits<unsigned char,CTItem *,std::less<unsigned char>,std::allocator<std::pair<unsigned char const ,CTItem *> >,0> >::_Isnil
_TEXT	ENDS
PUBLIC	?_Parent@?$_Tree@V?$_Tmap_traits@EPAVCTItem@@U?$less@E@std@@V?$allocator@U?$pair@$$CBEPAVCTItem@@@std@@@3@$0A@@std@@@std@@KAAAPAU_Node@?$_Tree_nod@V?$_Tmap_traits@EPAVCTItem@@U?$less@E@std@@V?$allocator@U?$pair@$$CBEPAVCTItem@@@std@@@3@$0A@@std@@@2@PAU342@@Z ; std::_Tree<std::_Tmap_traits<unsigned char,CTItem *,std::less<unsigned char>,std::allocator<std::pair<unsigned char const ,CTItem *> >,0> >::_Parent
; Function compile flags: /Ogty
;	COMDAT ?_Parent@?$_Tree@V?$_Tmap_traits@EPAVCTItem@@U?$less@E@std@@V?$allocator@U?$pair@$$CBEPAVCTItem@@@std@@@3@$0A@@std@@@std@@KAAAPAU_Node@?$_Tree_nod@V?$_Tmap_traits@EPAVCTItem@@U?$less@E@std@@V?$allocator@U?$pair@$$CBEPAVCTItem@@@std@@@3@$0A@@std@@@2@PAU342@@Z
_TEXT	SEGMENT
__Pnode$ = 8						; size = 4
?_Parent@?$_Tree@V?$_Tmap_traits@EPAVCTItem@@U?$less@E@std@@V?$allocator@U?$pair@$$CBEPAVCTItem@@@std@@@3@$0A@@std@@@std@@KAAAPAU_Node@?$_Tree_nod@V?$_Tmap_traits@EPAVCTItem@@U?$less@E@std@@V?$allocator@U?$pair@$$CBEPAVCTItem@@@std@@@3@$0A@@std@@@2@PAU342@@Z PROC NEAR ; std::_Tree<std::_Tmap_traits<unsigned char,CTItem *,std::less<unsigned char>,std::allocator<std::pair<unsigned char const ,CTItem *> >,0> >::_Parent, COMDAT

; 152  : 		return ((_Nodepref)(*_Pnode)._Parent);

  00000	8b 44 24 04	 mov	 eax, DWORD PTR __Pnode$[esp-4]
  00004	83 c0 04	 add	 eax, 4

; 153  : 		}

  00007	c3		 ret	 0
?_Parent@?$_Tree@V?$_Tmap_traits@EPAVCTItem@@U?$less@E@std@@V?$allocator@U?$pair@$$CBEPAVCTItem@@@std@@@3@$0A@@std@@@std@@KAAAPAU_Node@?$_Tree_nod@V?$_Tmap_traits@EPAVCTItem@@U?$less@E@std@@V?$allocator@U?$pair@$$CBEPAVCTItem@@@std@@@3@$0A@@std@@@2@PAU342@@Z ENDP ; std::_Tree<std::_Tmap_traits<unsigned char,CTItem *,std::less<unsigned char>,std::allocator<std::pair<unsigned char const ,CTItem *> >,0> >::_Parent
_TEXT	ENDS
PUBLIC	?_Right@?$_Tree@V?$_Tmap_traits@EPAVCTItem@@U?$less@E@std@@V?$allocator@U?$pair@$$CBEPAVCTItem@@@std@@@3@$0A@@std@@@std@@KAAAPAU_Node@?$_Tree_nod@V?$_Tmap_traits@EPAVCTItem@@U?$less@E@std@@V?$allocator@U?$pair@$$CBEPAVCTItem@@@std@@@3@$0A@@std@@@2@PAU342@@Z ; std::_Tree<std::_Tmap_traits<unsigned char,CTItem *,std::less<unsigned char>,std::allocator<std::pair<unsigned char const ,CTItem *> >,0> >::_Right
; Function compile flags: /Ogty
;	COMDAT ?_Right@?$_Tree@V?$_Tmap_traits@EPAVCTItem@@U?$less@E@std@@V?$allocator@U?$pair@$$CBEPAVCTItem@@@std@@@3@$0A@@std@@@std@@KAAAPAU_Node@?$_Tree_nod@V?$_Tmap_traits@EPAVCTItem@@U?$less@E@std@@V?$allocator@U?$pair@$$CBEPAVCTItem@@@std@@@3@$0A@@std@@@2@PAU342@@Z
_TEXT	SEGMENT
__Pnode$ = 8						; size = 4
?_Right@?$_Tree@V?$_Tmap_traits@EPAVCTItem@@U?$less@E@std@@V?$allocator@U?$pair@$$CBEPAVCTItem@@@std@@@3@$0A@@std@@@std@@KAAAPAU_Node@?$_Tree_nod@V?$_Tmap_traits@EPAVCTItem@@U?$less@E@std@@V?$allocator@U?$pair@$$CBEPAVCTItem@@@std@@@3@$0A@@std@@@2@PAU342@@Z PROC NEAR ; std::_Tree<std::_Tmap_traits<unsigned char,CTItem *,std::less<unsigned char>,std::allocator<std::pair<unsigned char const ,CTItem *> >,0> >::_Right, COMDAT

; 157  : 		return ((_Nodepref)(*_Pnode)._Right);

  00000	8b 44 24 04	 mov	 eax, DWORD PTR __Pnode$[esp-4]
  00004	83 c0 08	 add	 eax, 8

; 158  : 		}

  00007	c3		 ret	 0
?_Right@?$_Tree@V?$_Tmap_traits@EPAVCTItem@@U?$less@E@std@@V?$allocator@U?$pair@$$CBEPAVCTItem@@@std@@@3@$0A@@std@@@std@@KAAAPAU_Node@?$_Tree_nod@V?$_Tmap_traits@EPAVCTItem@@U?$less@E@std@@V?$allocator@U?$pair@$$CBEPAVCTItem@@@std@@@3@$0A@@std@@@2@PAU342@@Z ENDP ; std::_Tree<std::_Tmap_traits<unsigned char,CTItem *,std::less<unsigned char>,std::allocator<std::pair<unsigned char const ,CTItem *> >,0> >::_Right
_TEXT	ENDS
PUBLIC	?_Min@?$_Tree@V?$_Tmap_traits@EPAVCTItem@@U?$less@E@std@@V?$allocator@U?$pair@$$CBEPAVCTItem@@@std@@@3@$0A@@std@@@std@@KAPAU_Node@?$_Tree_nod@V?$_Tmap_traits@EPAVCTItem@@U?$less@E@std@@V?$allocator@U?$pair@$$CBEPAVCTItem@@@std@@@3@$0A@@std@@@2@PAU342@@Z ; std::_Tree<std::_Tmap_traits<unsigned char,CTItem *,std::less<unsigned char>,std::allocator<std::pair<unsigned char const ,CTItem *> >,0> >::_Min
; Function compile flags: /Ogty
;	COMDAT ?_Min@?$_Tree@V?$_Tmap_traits@EPAVCTItem@@U?$less@E@std@@V?$allocator@U?$pair@$$CBEPAVCTItem@@@std@@@3@$0A@@std@@@std@@KAPAU_Node@?$_Tree_nod@V?$_Tmap_traits@EPAVCTItem@@U?$less@E@std@@V?$allocator@U?$pair@$$CBEPAVCTItem@@@std@@@3@$0A@@std@@@2@PAU342@@Z
_TEXT	SEGMENT
__Pnode$ = 8						; size = 4
?_Min@?$_Tree@V?$_Tmap_traits@EPAVCTItem@@U?$less@E@std@@V?$allocator@U?$pair@$$CBEPAVCTItem@@@std@@@3@$0A@@std@@@std@@KAPAU_Node@?$_Tree_nod@V?$_Tmap_traits@EPAVCTItem@@U?$less@E@std@@V?$allocator@U?$pair@$$CBEPAVCTItem@@@std@@@3@$0A@@std@@@2@PAU342@@Z PROC NEAR ; std::_Tree<std::_Tmap_traits<unsigned char,CTItem *,std::less<unsigned char>,std::allocator<std::pair<unsigned char const ,CTItem *> >,0> >::_Min, COMDAT

; 1042 : 		while (!_Isnil(_Left(_Pnode)))

  00000	8b 44 24 04	 mov	 eax, DWORD PTR __Pnode$[esp-4]
  00004	8b 08		 mov	 ecx, DWORD PTR [eax]
  00006	8a 51 15	 mov	 dl, BYTE PTR [ecx+21]
  00009	84 d2		 test	 dl, dl
  0000b	75 0e		 jne	 SHORT $L154557
  0000d	8d 49 00	 npad	 3
$L154556:

; 1043 : 			_Pnode = _Left(_Pnode);

  00010	8b c1		 mov	 eax, ecx
  00012	8b 08		 mov	 ecx, DWORD PTR [eax]
  00014	8a 51 15	 mov	 dl, BYTE PTR [ecx+21]
  00017	84 d2		 test	 dl, dl
  00019	74 f5		 je	 SHORT $L154556
$L154557:

; 1044 : 		return (_Pnode);
; 1045 : 		}

  0001b	c3		 ret	 0
?_Min@?$_Tree@V?$_Tmap_traits@EPAVCTItem@@U?$less@E@std@@V?$allocator@U?$pair@$$CBEPAVCTItem@@@std@@@3@$0A@@std@@@std@@KAPAU_Node@?$_Tree_nod@V?$_Tmap_traits@EPAVCTItem@@U?$less@E@std@@V?$allocator@U?$pair@$$CBEPAVCTItem@@@std@@@3@$0A@@std@@@2@PAU342@@Z ENDP ; std::_Tree<std::_Tmap_traits<unsigned char,CTItem *,std::less<unsigned char>,std::allocator<std::pair<unsigned char const ,CTItem *> >,0> >::_Min
_TEXT	ENDS
PUBLIC	?_Parent@?$_Tree@V?$_Tmap_traits@EPAV?$map@KPAV?$vector@PAUtagQUESTTEMP@@V?$allocator@PAUtagQUESTTEMP@@@std@@@std@@U?$less@K@2@V?$allocator@U?$pair@$$CBKPAV?$vector@PAUtagQUESTTEMP@@V?$allocator@PAUtagQUESTTEMP@@@std@@@std@@@std@@@2@@std@@U?$less@E@2@V?$allocator@U?$pair@$$CBEPAV?$map@KPAV?$vector@PAUtagQUESTTEMP@@V?$allocator@PAUtagQUESTTEMP@@@std@@@std@@U?$less@K@2@V?$allocator@U?$pair@$$CBKPAV?$vector@PAUtagQUESTTEMP@@V?$allocator@PAUtagQUESTTEMP@@@std@@@std@@@std@@@2@@std@@@std@@@2@$0A@@std@@@std@@KAAAPAU_Node@?$_Tree_nod@V?$_Tmap_traits@EPAV?$map@KPAV?$vector@PAUtagQUESTTEMP@@V?$allocator@PAUtagQUESTTEMP@@@std@@@std@@U?$less@K@2@V?$allocator@U?$pair@$$CBKPAV?$vector@PAUtagQUESTTEMP@@V?$allocator@PAUtagQUESTTEMP@@@std@@@std@@@std@@@2@@std@@U?$less@E@2@V?$allocator@U?$pair@$$CBEPAV?$map@KPAV?$vector@PAUtagQUESTTEMP@@V?$allocator@PAUtagQUESTTEMP@@@std@@@std@@U?$less@K@2@V?$allocator@U?$pair@$$CBKPAV?$vector@PAUtagQUESTTEMP@@V?$allocator@PAUtagQUESTTEMP@@@std@@@std@@@std@@@2@@std@@@std@@@2@$0A@@std@@@2@PAU342@@Z ; std::_Tree<std::_Tmap_traits<unsigned char,std::map<unsigned long,std::vector<tagQUESTTEMP *,std::allocator<tagQUESTTEMP *> > *,std::less<unsigned long>,std::allocator<std::pair<unsigned long const ,std::vector<tagQUESTTEMP *,std::allocator<tagQUESTTEMP *> > *> > > *,std::less<unsigned char>,std::allocator<std::pair<unsigned char const ,std::map<unsigned long,std::vector<tagQUESTTEMP *,std::allocator<tagQUESTTEMP *> > *,std::less<unsigned long>,std::allocator<std::pair<unsigned long const ,std::vector<tagQUESTTEMP *,std::allocator<tagQUESTTEMP *> > *> > > *> >,0> >::_Parent
; Function compile flags: /Ogty
;	COMDAT ?_Parent@?$_Tree@V?$_Tmap_traits@EPAV?$map@KPAV?$vector@PAUtagQUESTTEMP@@V?$allocator@PAUtagQUESTTEMP@@@std@@@std@@U?$less@K@2@V?$allocator@U?$pair@$$CBKPAV?$vector@PAUtagQUESTTEMP@@V?$allocator@PAUtagQUESTTEMP@@@std@@@std@@@std@@@2@@std@@U?$less@E@2@V?$allocator@U?$pair@$$CBEPAV?$map@KPAV?$vector@PAUtagQUESTTEMP@@V?$allocator@PAUtagQUESTTEMP@@@std@@@std@@U?$less@K@2@V?$allocator@U?$pair@$$CBKPAV?$vector@PAUtagQUESTTEMP@@V?$allocator@PAUtagQUESTTEMP@@@std@@@std@@@std@@@2@@std@@@std@@@2@$0A@@std@@@std@@KAAAPAU_Node@?$_Tree_nod@V?$_Tmap_traits@EPAV?$map@KPAV?$vector@PAUtagQUESTTEMP@@V?$allocator@PAUtagQUESTTEMP@@@std@@@std@@U?$less@K@2@V?$allocator@U?$pair@$$CBKPAV?$vector@PAUtagQUESTTEMP@@V?$allocator@PAUtagQUESTTEMP@@@std@@@std@@@std@@@2@@std@@U?$less@E@2@V?$allocator@U?$pair@$$CBEPAV?$map@KPAV?$vector@PAUtagQUESTTEMP@@V?$allocator@PAUtagQUESTTEMP@@@std@@@std@@U?$less@K@2@V?$allocator@U?$pair@$$CBKPAV?$vector@PAUtagQUESTTEMP@@V?$allocator@PAUtagQUESTTEMP@@@std@@@std@@@std@@@2@@std@@@std@@@2@$0A@@std@@@2@PAU342@@Z
_TEXT	SEGMENT
__Pnode$ = 8						; size = 4
?_Parent@?$_Tree@V?$_Tmap_traits@EPAV?$map@KPAV?$vector@PAUtagQUESTTEMP@@V?$allocator@PAUtagQUESTTEMP@@@std@@@std@@U?$less@K@2@V?$allocator@U?$pair@$$CBKPAV?$vector@PAUtagQUESTTEMP@@V?$allocator@PAUtagQUESTTEMP@@@std@@@std@@@std@@@2@@std@@U?$less@E@2@V?$allocator@U?$pair@$$CBEPAV?$map@KPAV?$vector@PAUtagQUESTTEMP@@V?$allocator@PAUtagQUESTTEMP@@@std@@@std@@U?$less@K@2@V?$allocator@U?$pair@$$CBKPAV?$vector@PAUtagQUESTTEMP@@V?$allocator@PAUtagQUESTTEMP@@@std@@@std@@@std@@@2@@std@@@std@@@2@$0A@@std@@@std@@KAAAPAU_Node@?$_Tree_nod@V?$_Tmap_traits@EPAV?$map@KPAV?$vector@PAUtagQUESTTEMP@@V?$allocator@PAUtagQUESTTEMP@@@std@@@std@@U?$less@K@2@V?$allocator@U?$pair@$$CBKPAV?$vector@PAUtagQUESTTEMP@@V?$allocator@PAUtagQUESTTEMP@@@std@@@std@@@std@@@2@@std@@U?$less@E@2@V?$allocator@U?$pair@$$CBEPAV?$map@KPAV?$vector@PAUtagQUESTTEMP@@V?$allocator@PAUtagQUESTTEMP@@@std@@@std@@U?$less@K@2@V?$allocator@U?$pair@$$CBKPAV?$vector@PAUtagQUESTTEMP@@V?$allocator@PAUtagQUESTTEMP@@@std@@@std@@@std@@@2@@std@@@std@@@2@$0A@@std@@@2@PAU342@@Z PROC NEAR ; std::_Tree<std::_Tmap_traits<unsigned char,std::map<unsigned long,std::vector<tagQUESTTEMP *,std::allocator<tagQUESTTEMP *> > *,std::less<unsigned long>,std::allocator<std::pair<unsigned long const ,std::vector<tagQUESTTEMP *,std::allocator<tagQUESTTEMP *> > *> > > *,std::less<unsigned char>,std::allocator<std::pair<unsigned char const ,std::map<unsigned long,std::vector<tagQUESTTEMP *,std::allocator<tagQUESTTEMP *> > *,std::less<unsigned long>,std::allocator<std::pair<unsigned long const ,std::vector<tagQUESTTEMP *,std::allocator<tagQUESTTEMP *> > *> > > *> >,0> >::_Parent, COMDAT

; 152  : 		return ((_Nodepref)(*_Pnode)._Parent);

  00000	8b 44 24 04	 mov	 eax, DWORD PTR __Pnode$[esp-4]
  00004	83 c0 04	 add	 eax, 4

; 153  : 		}

  00007	c3		 ret	 0
?_Parent@?$_Tree@V?$_Tmap_traits@EPAV?$map@KPAV?$vector@PAUtagQUESTTEMP@@V?$allocator@PAUtagQUESTTEMP@@@std@@@std@@U?$less@K@2@V?$allocator@U?$pair@$$CBKPAV?$vector@PAUtagQUESTTEMP@@V?$allocator@PAUtagQUESTTEMP@@@std@@@std@@@std@@@2@@std@@U?$less@E@2@V?$allocator@U?$pair@$$CBEPAV?$map@KPAV?$vector@PAUtagQUESTTEMP@@V?$allocator@PAUtagQUESTTEMP@@@std@@@std@@U?$less@K@2@V?$allocator@U?$pair@$$CBKPAV?$vector@PAUtagQUESTTEMP@@V?$allocator@PAUtagQUESTTEMP@@@std@@@std@@@std@@@2@@std@@@std@@@2@$0A@@std@@@std@@KAAAPAU_Node@?$_Tree_nod@V?$_Tmap_traits@EPAV?$map@KPAV?$vector@PAUtagQUESTTEMP@@V?$allocator@PAUtagQUESTTEMP@@@std@@@std@@U?$less@K@2@V?$allocator@U?$pair@$$CBKPAV?$vector@PAUtagQUESTTEMP@@V?$allocator@PAUtagQUESTTEMP@@@std@@@std@@@std@@@2@@std@@U?$less@E@2@V?$allocator@U?$pair@$$CBEPAV?$map@KPAV?$vector@PAUtagQUESTTEMP@@V?$allocator@PAUtagQUESTTEMP@@@std@@@std@@U?$less@K@2@V?$allocator@U?$pair@$$CBKPAV?$vector@PAUtagQUESTTEMP@@V?$allocator@PAUtagQUESTTEMP@@@std@@@std@@@std@@@2@@std@@@std@@@2@$0A@@std@@@2@PAU342@@Z ENDP ; std::_Tree<std::_Tmap_traits<unsigned char,std::map<unsigned long,std::vector<tagQUESTTEMP *,std::allocator<tagQUESTTEMP *> > *,std::less<unsigned long>,std::allocator<std::pair<unsigned long const ,std::vector<tagQUESTTEMP *,std::allocator<tagQUESTTEMP *> > *> > > *,std::less<unsigned char>,std::allocator<std::pair<unsigned char const ,std::map<unsigned long,std::vector<tagQUESTTEMP *,std::allocator<tagQUESTTEMP *> > *,std::less<unsigned long>,std::allocator<std::pair<unsigned long const ,std::vector<tagQUESTTEMP *,std::allocator<tagQUESTTEMP *> > *> > > *> >,0> >::_Parent
_TEXT	ENDS
PUBLIC	?_Parent@?$_Tree@V?$_Tmap_traits@KPAV?$vector@PAUtagQUESTTEMP@@V?$allocator@PAUtagQUESTTEMP@@@std@@@std@@U?$less@K@2@V?$allocator@U?$pair@$$CBKPAV?$vector@PAUtagQUESTTEMP@@V?$allocator@PAUtagQUESTTEMP@@@std@@@std@@@std@@@2@$0A@@std@@@std@@KAAAPAU_Node@?$_Tree_nod@V?$_Tmap_traits@KPAV?$vector@PAUtagQUESTTEMP@@V?$allocator@PAUtagQUESTTEMP@@@std@@@std@@U?$less@K@2@V?$allocator@U?$pair@$$CBKPAV?$vector@PAUtagQUESTTEMP@@V?$allocator@PAUtagQUESTTEMP@@@std@@@std@@@std@@@2@$0A@@std@@@2@PAU342@@Z ; std::_Tree<std::_Tmap_traits<unsigned long,std::vector<tagQUESTTEMP *,std::allocator<tagQUESTTEMP *> > *,std::less<unsigned long>,std::allocator<std::pair<unsigned long const ,std::vector<tagQUESTTEMP *,std::allocator<tagQUESTTEMP *> > *> >,0> >::_Parent
; Function compile flags: /Ogty
;	COMDAT ?_Parent@?$_Tree@V?$_Tmap_traits@KPAV?$vector@PAUtagQUESTTEMP@@V?$allocator@PAUtagQUESTTEMP@@@std@@@std@@U?$less@K@2@V?$allocator@U?$pair@$$CBKPAV?$vector@PAUtagQUESTTEMP@@V?$allocator@PAUtagQUESTTEMP@@@std@@@std@@@std@@@2@$0A@@std@@@std@@KAAAPAU_Node@?$_Tree_nod@V?$_Tmap_traits@KPAV?$vector@PAUtagQUESTTEMP@@V?$allocator@PAUtagQUESTTEMP@@@std@@@std@@U?$less@K@2@V?$allocator@U?$pair@$$CBKPAV?$vector@PAUtagQUESTTEMP@@V?$allocator@PAUtagQUESTTEMP@@@std@@@std@@@std@@@2@$0A@@std@@@2@PAU342@@Z
_TEXT	SEGMENT
__Pnode$ = 8						; size = 4
?_Parent@?$_Tree@V?$_Tmap_traits@KPAV?$vector@PAUtagQUESTTEMP@@V?$allocator@PAUtagQUESTTEMP@@@std@@@std@@U?$less@K@2@V?$allocator@U?$pair@$$CBKPAV?$vector@PAUtagQUESTTEMP@@V?$allocator@PAUtagQUESTTEMP@@@std@@@std@@@std@@@2@$0A@@std@@@std@@KAAAPAU_Node@?$_Tree_nod@V?$_Tmap_traits@KPAV?$vector@PAUtagQUESTTEMP@@V?$allocator@PAUtagQUESTTEMP@@@std@@@std@@U?$less@K@2@V?$allocator@U?$pair@$$CBKPAV?$vector@PAUtagQUESTTEMP@@V?$allocator@PAUtagQUESTTEMP@@@std@@@std@@@std@@@2@$0A@@std@@@2@PAU342@@Z PROC NEAR ; std::_Tree<std::_Tmap_traits<unsigned long,std::vector<tagQUESTTEMP *,std::allocator<tagQUESTTEMP *> > *,std::less<unsigned long>,std::allocator<std::pair<unsigned long const ,std::vector<tagQUESTTEMP *,std::allocator<tagQUESTTEMP *> > *> >,0> >::_Parent, COMDAT

; 152  : 		return ((_Nodepref)(*_Pnode)._Parent);

  00000	8b 44 24 04	 mov	 eax, DWORD PTR __Pnode$[esp-4]
  00004	83 c0 04	 add	 eax, 4

; 153  : 		}

  00007	c3		 ret	 0
?_Parent@?$_Tree@V?$_Tmap_traits@KPAV?$vector@PAUtagQUESTTEMP@@V?$allocator@PAUtagQUESTTEMP@@@std@@@std@@U?$less@K@2@V?$allocator@U?$pair@$$CBKPAV?$vector@PAUtagQUESTTEMP@@V?$allocator@PAUtagQUESTTEMP@@@std@@@std@@@std@@@2@$0A@@std@@@std@@KAAAPAU_Node@?$_Tree_nod@V?$_Tmap_traits@KPAV?$vector@PAUtagQUESTTEMP@@V?$allocator@PAUtagQUESTTEMP@@@std@@@std@@U?$less@K@2@V?$allocator@U?$pair@$$CBKPAV?$vector@PAUtagQUESTTEMP@@V?$allocator@PAUtagQUESTTEMP@@@std@@@std@@@std@@@2@$0A@@std@@@2@PAU342@@Z ENDP ; std::_Tree<std::_Tmap_traits<unsigned long,std::vector<tagQUESTTEMP *,std::allocator<tagQUESTTEMP *> > *,std::less<unsigned long>,std::allocator<std::pair<unsigned long const ,std::vector<tagQUESTTEMP *,std::allocator<tagQUESTTEMP *> > *> >,0> >::_Parent
_TEXT	ENDS
PUBLIC	??$_Ptr_cat@UtagQUESTTERM@@@std@@YA?AU_Scalar_ptr_iterator_tag@0@PAPAUtagQUESTTERM@@0@Z ; std::_Ptr_cat<tagQUESTTERM>
; Function compile flags: /Ogty
; File c:\program files (x86)\microsoft visual studio .net 2003\vc7\include\xutility
;	COMDAT ??$_Ptr_cat@UtagQUESTTERM@@@std@@YA?AU_Scalar_ptr_iterator_tag@0@PAPAUtagQUESTTERM@@0@Z
_TEXT	SEGMENT
__Cat$ = -1						; size = 1
___formal$ = 8						; size = 4
___formal$ = 12						; size = 4
??$_Ptr_cat@UtagQUESTTERM@@@std@@YA?AU_Scalar_ptr_iterator_tag@0@PAPAUtagQUESTTERM@@0@Z PROC NEAR ; std::_Ptr_cat<tagQUESTTERM>, COMDAT

; 218  : 	{	// return pointer category from pointer to pointer arguments

  00000	51		 push	 ecx

; 219  : 	_Scalar_ptr_iterator_tag _Cat;
; 220  : 	return (_Cat);

  00001	8a 44 24 03	 mov	 al, BYTE PTR __Cat$[esp+4]

; 221  : 	}

  00005	59		 pop	 ecx
  00006	c3		 ret	 0
??$_Ptr_cat@UtagQUESTTERM@@@std@@YA?AU_Scalar_ptr_iterator_tag@0@PAPAUtagQUESTTERM@@0@Z ENDP ; std::_Ptr_cat<tagQUESTTERM>
_TEXT	ENDS
PUBLIC	??$_Destroy_range@PAUtagQUESTTERM@@V?$allocator@PAUtagQUESTTERM@@@std@@@std@@YAXPAPAUtagQUESTTERM@@0AAV?$allocator@PAUtagQUESTTERM@@@0@U_Scalar_ptr_iterator_tag@0@@Z ; std::_Destroy_range<tagQUESTTERM *,std::allocator<tagQUESTTERM *> >
; Function compile flags: /Ogty
; File c:\program files (x86)\microsoft visual studio .net 2003\vc7\include\xmemory
;	COMDAT ??$_Destroy_range@PAUtagQUESTTERM@@V?$allocator@PAUtagQUESTTERM@@@std@@@std@@YAXPAPAUtagQUESTTERM@@0AAV?$allocator@PAUtagQUESTTERM@@@0@U_Scalar_ptr_iterator_tag@0@@Z
_TEXT	SEGMENT
__First$ = 8						; size = 4
__Last$ = 12						; size = 4
__Al$ = 16						; size = 4
___formal$ = 20						; size = 1
??$_Destroy_range@PAUtagQUESTTERM@@V?$allocator@PAUtagQUESTTERM@@@std@@@std@@YAXPAPAUtagQUESTTERM@@0AAV?$allocator@PAUtagQUESTTERM@@@0@U_Scalar_ptr_iterator_tag@0@@Z PROC NEAR ; std::_Destroy_range<tagQUESTTERM *,std::allocator<tagQUESTTERM *> >, COMDAT

; 234  : 	}

  00000	c3		 ret	 0
??$_Destroy_range@PAUtagQUESTTERM@@V?$allocator@PAUtagQUESTTERM@@@std@@@std@@YAXPAPAUtagQUESTTERM@@0AAV?$allocator@PAUtagQUESTTERM@@@0@U_Scalar_ptr_iterator_tag@0@@Z ENDP ; std::_Destroy_range<tagQUESTTERM *,std::allocator<tagQUESTTERM *> >
_TEXT	ENDS
PUBLIC	??$fill@PAPAUtagQUESTTERM@@PAU1@@std@@YAXPAPAUtagQUESTTERM@@0ABQAU1@@Z ; std::fill<tagQUESTTERM * *,tagQUESTTERM *>
; Function compile flags: /Ogty
; File c:\program files (x86)\microsoft visual studio .net 2003\vc7\include\xutility
;	COMDAT ??$fill@PAPAUtagQUESTTERM@@PAU1@@std@@YAXPAPAUtagQUESTTERM@@0ABQAU1@@Z
_TEXT	SEGMENT
__First$ = 8						; size = 4
__Last$ = 12						; size = 4
__Val$ = 16						; size = 4
??$fill@PAPAUtagQUESTTERM@@PAU1@@std@@YAXPAPAUtagQUESTTERM@@0ABQAU1@@Z PROC NEAR ; std::fill<tagQUESTTERM * *,tagQUESTTERM *>, COMDAT

; 1135 : 	for (; _First != _Last; ++_First)

  00000	8b 44 24 04	 mov	 eax, DWORD PTR __First$[esp-4]
  00004	8b 4c 24 08	 mov	 ecx, DWORD PTR __Last$[esp-4]
  00008	3b c1		 cmp	 eax, ecx
  0000a	74 11		 je	 SHORT $L154931
  0000c	8b 54 24 0c	 mov	 edx, DWORD PTR __Val$[esp-4]
  00010	56		 push	 esi
$L154929:

; 1136 : 		*_First = _Val;

  00011	8b 32		 mov	 esi, DWORD PTR [edx]
  00013	89 30		 mov	 DWORD PTR [eax], esi
  00015	83 c0 04	 add	 eax, 4
  00018	3b c1		 cmp	 eax, ecx
  0001a	75 f5		 jne	 SHORT $L154929
  0001c	5e		 pop	 esi
$L154931:

; 1137 : 	}

  0001d	c3		 ret	 0
??$fill@PAPAUtagQUESTTERM@@PAU1@@std@@YAXPAPAUtagQUESTTERM@@0ABQAU1@@Z ENDP ; std::fill<tagQUESTTERM * *,tagQUESTTERM *>
_TEXT	ENDS
PUBLIC	??$_Copy_backward_opt@PAPAUtagQUESTTERM@@PAPAU1@@std@@YAPAPAUtagQUESTTERM@@PAPAU1@00U_Scalar_ptr_iterator_tag@0@@Z ; std::_Copy_backward_opt<tagQUESTTERM * *,tagQUESTTERM * *>
EXTRN	_memmove:NEAR
; Function compile flags: /Ogty
;	COMDAT ??$_Copy_backward_opt@PAPAUtagQUESTTERM@@PAPAU1@@std@@YAPAPAUtagQUESTTERM@@PAPAU1@00U_Scalar_ptr_iterator_tag@0@@Z
_TEXT	SEGMENT
__First$ = 8						; size = 4
__Last$ = 12						; size = 4
__Dest$ = 16						; size = 4
___formal$ = 20						; size = 1
??$_Copy_backward_opt@PAPAUtagQUESTTERM@@PAPAU1@@std@@YAPAPAUtagQUESTTERM@@PAPAU1@00U_Scalar_ptr_iterator_tag@0@@Z PROC NEAR ; std::_Copy_backward_opt<tagQUESTTERM * *,tagQUESTTERM * *>, COMDAT

; 1059 : 	ptrdiff_t _Off = _Last - _First;	// NB: non-overlapping move

  00000	8b 4c 24 04	 mov	 ecx, DWORD PTR __First$[esp-4]
  00004	8b 44 24 08	 mov	 eax, DWORD PTR __Last$[esp-4]
  00008	2b c1		 sub	 eax, ecx
  0000a	c1 f8 02	 sar	 eax, 2

; 1060 : 	return ((_OutIt)memmove(&*_Dest - _Off, &*_First,
; 1061 : 		_Off * sizeof (*_First)));

  0000d	c1 e0 02	 shl	 eax, 2
  00010	50		 push	 eax
  00011	51		 push	 ecx
  00012	8b 4c 24 14	 mov	 ecx, DWORD PTR __Dest$[esp+4]
  00016	2b c8		 sub	 ecx, eax
  00018	51		 push	 ecx
  00019	e8 00 00 00 00	 call	 _memmove
  0001e	83 c4 0c	 add	 esp, 12			; 0000000cH

; 1062 : 	}

  00021	c3		 ret	 0
??$_Copy_backward_opt@PAPAUtagQUESTTERM@@PAPAU1@@std@@YAPAPAUtagQUESTTERM@@PAPAU1@00U_Scalar_ptr_iterator_tag@0@@Z ENDP ; std::_Copy_backward_opt<tagQUESTTERM * *,tagQUESTTERM * *>
_TEXT	ENDS
PUBLIC	??$fill_n@PAPAUtagQUESTTERM@@IPAU1@@std@@YAXPAPAUtagQUESTTERM@@IABQAU1@@Z ; std::fill_n<tagQUESTTERM * *,unsigned int,tagQUESTTERM *>
; Function compile flags: /Ogty
;	COMDAT ??$fill_n@PAPAUtagQUESTTERM@@IPAU1@@std@@YAXPAPAUtagQUESTTERM@@IABQAU1@@Z
_TEXT	SEGMENT
__First$ = 8						; size = 4
__Count$ = 12						; size = 4
__Val$ = 16						; size = 4
??$fill_n@PAPAUtagQUESTTERM@@IPAU1@@std@@YAXPAPAUtagQUESTTERM@@IABQAU1@@Z PROC NEAR ; std::fill_n<tagQUESTTERM * *,unsigned int,tagQUESTTERM *>, COMDAT

; 1160 : 	for (; 0 < _Count; --_Count, ++_First)

  00000	8b 4c 24 08	 mov	 ecx, DWORD PTR __Count$[esp-4]
  00004	85 c9		 test	 ecx, ecx
  00006	76 14		 jbe	 SHORT $L155097
  00008	8b 54 24 0c	 mov	 edx, DWORD PTR __Val$[esp-4]
  0000c	8b 44 24 04	 mov	 eax, DWORD PTR __First$[esp-4]
  00010	56		 push	 esi
$L155095:

; 1161 : 		*_First = _Val;

  00011	8b 32		 mov	 esi, DWORD PTR [edx]
  00013	89 30		 mov	 DWORD PTR [eax], esi
  00015	83 c0 04	 add	 eax, 4
  00018	49		 dec	 ecx
  00019	75 f6		 jne	 SHORT $L155095
  0001b	5e		 pop	 esi
$L155097:

; 1162 : 	}

  0001c	c3		 ret	 0
??$fill_n@PAPAUtagQUESTTERM@@IPAU1@@std@@YAXPAPAUtagQUESTTERM@@IABQAU1@@Z ENDP ; std::fill_n<tagQUESTTERM * *,unsigned int,tagQUESTTERM *>
_TEXT	ENDS
PUBLIC	??$_Uninit_copy@PAUtagQUESTTERM@@PAU1@@std@@YAPAPAUtagQUESTTERM@@PAPAU1@00AAV?$allocator@PAUtagQUESTTERM@@@0@U_Scalar_ptr_iterator_tag@0@@Z ; std::_Uninit_copy<tagQUESTTERM *,tagQUESTTERM *>
; Function compile flags: /Ogty
; File c:\program files (x86)\microsoft visual studio .net 2003\vc7\include\memory
;	COMDAT ??$_Uninit_copy@PAUtagQUESTTERM@@PAU1@@std@@YAPAPAUtagQUESTTERM@@PAPAU1@00AAV?$allocator@PAUtagQUESTTERM@@@0@U_Scalar_ptr_iterator_tag@0@@Z
_TEXT	SEGMENT
__First$ = 8						; size = 4
__Last$ = 12						; size = 4
__Dest$ = 16						; size = 4
___formal$ = 20						; size = 4
___formal$ = 24						; size = 1
??$_Uninit_copy@PAUtagQUESTTERM@@PAU1@@std@@YAPAPAUtagQUESTTERM@@PAPAU1@00AAV?$allocator@PAUtagQUESTTERM@@@0@U_Scalar_ptr_iterator_tag@0@@Z PROC NEAR ; std::_Uninit_copy<tagQUESTTERM *,tagQUESTTERM *>, COMDAT

; 106  : 	size_t _Count = (size_t)(_Last - _First);

  00000	8b 4c 24 04	 mov	 ecx, DWORD PTR __First$[esp-4]
  00004	8b 44 24 08	 mov	 eax, DWORD PTR __Last$[esp-4]
  00008	2b c1		 sub	 eax, ecx
  0000a	56		 push	 esi
  0000b	c1 f8 02	 sar	 eax, 2

; 107  : 	return ((_Ty2 *)memmove(&*_Dest, &*_First,
; 108  : 		_Count * sizeof (*_First)) + _Count);	// NB: non-overlapping move

  0000e	8d 34 85 00 00
	00 00		 lea	 esi, DWORD PTR [eax*4]
  00015	8b 44 24 10	 mov	 eax, DWORD PTR __Dest$[esp]
  00019	56		 push	 esi
  0001a	51		 push	 ecx
  0001b	50		 push	 eax
  0001c	e8 00 00 00 00	 call	 _memmove
  00021	83 c4 0c	 add	 esp, 12			; 0000000cH
  00024	03 c6		 add	 eax, esi
  00026	5e		 pop	 esi

; 109  : 	}

  00027	c3		 ret	 0
??$_Uninit_copy@PAUtagQUESTTERM@@PAU1@@std@@YAPAPAUtagQUESTTERM@@PAPAU1@00AAV?$allocator@PAUtagQUESTTERM@@@0@U_Scalar_ptr_iterator_tag@0@@Z ENDP ; std::_Uninit_copy<tagQUESTTERM *,tagQUESTTERM *>
_TEXT	ENDS
PUBLIC	?assign@?$char_traits@D@std@@SAXAADABD@Z	; std::char_traits<char>::assign
; Function compile flags: /Ogty
; File c:\program files (x86)\microsoft visual studio .net 2003\vc7\include\iosfwd
;	COMDAT ?assign@?$char_traits@D@std@@SAXAADABD@Z
_TEXT	SEGMENT
__Left$ = 8						; size = 4
__Right$ = 12						; size = 4
?assign@?$char_traits@D@std@@SAXAADABD@Z PROC NEAR	; std::char_traits<char>::assign, COMDAT

; 331  : 		_Left = _Right;

  00000	8b 44 24 08	 mov	 eax, DWORD PTR __Right$[esp-4]
  00004	8a 08		 mov	 cl, BYTE PTR [eax]
  00006	8b 54 24 04	 mov	 edx, DWORD PTR __Left$[esp-4]
  0000a	88 0a		 mov	 BYTE PTR [edx], cl

; 332  : 		}

  0000c	c3		 ret	 0
?assign@?$char_traits@D@std@@SAXAADABD@Z ENDP		; std::char_traits<char>::assign
_TEXT	ENDS
PUBLIC	?length@?$char_traits@D@std@@SAIPBD@Z		; std::char_traits<char>::length
; Function compile flags: /Ogty
;	COMDAT ?length@?$char_traits@D@std@@SAIPBD@Z
_TEXT	SEGMENT
__First$ = 8						; size = 4
?length@?$char_traits@D@std@@SAIPBD@Z PROC NEAR		; std::char_traits<char>::length, COMDAT

; 352  : 		return (::strlen(_First));

  00000	8b 44 24 04	 mov	 eax, DWORD PTR __First$[esp-4]
  00004	8d 50 01	 lea	 edx, DWORD PTR [eax+1]
$L155551:
  00007	8a 08		 mov	 cl, BYTE PTR [eax]
  00009	40		 inc	 eax
  0000a	84 c9		 test	 cl, cl
  0000c	75 f9		 jne	 SHORT $L155551
  0000e	2b c2		 sub	 eax, edx

; 353  : 		}

  00010	c3		 ret	 0
?length@?$char_traits@D@std@@SAIPBD@Z ENDP		; std::char_traits<char>::length
_TEXT	ENDS
PUBLIC	?copy@?$char_traits@D@std@@SAPADPADPBDI@Z	; std::char_traits<char>::copy
; Function compile flags: /Ogty
;	COMDAT ?copy@?$char_traits@D@std@@SAPADPADPBDI@Z
_TEXT	SEGMENT
__First1$ = 8						; size = 4
__First2$ = 12						; size = 4
__Count$ = 16						; size = 4
?copy@?$char_traits@D@std@@SAPADPADPBDI@Z PROC NEAR	; std::char_traits<char>::copy, COMDAT

; 358  : 		return ((_Elem *)::memcpy(_First1, _First2, _Count));

  00000	8b 4c 24 0c	 mov	 ecx, DWORD PTR __Count$[esp-4]
  00004	56		 push	 esi
  00005	8b 74 24 0c	 mov	 esi, DWORD PTR __First2$[esp]
  00009	57		 push	 edi
  0000a	8b 7c 24 0c	 mov	 edi, DWORD PTR __First1$[esp+4]
  0000e	8b c1		 mov	 eax, ecx
  00010	8b d7		 mov	 edx, edi
  00012	c1 e9 02	 shr	 ecx, 2
  00015	f3 a5		 rep movsd
  00017	8b c8		 mov	 ecx, eax
  00019	83 e1 03	 and	 ecx, 3
  0001c	f3 a4		 rep movsb
  0001e	5f		 pop	 edi
  0001f	8b c2		 mov	 eax, edx
  00021	5e		 pop	 esi

; 359  : 		}

  00022	c3		 ret	 0
?copy@?$char_traits@D@std@@SAPADPADPBDI@Z ENDP		; std::char_traits<char>::copy
_TEXT	ENDS
PUBLIC	?move@?$char_traits@D@std@@SAPADPADPBDI@Z	; std::char_traits<char>::move
; Function compile flags: /Ogty
;	COMDAT ?move@?$char_traits@D@std@@SAPADPADPBDI@Z
_TEXT	SEGMENT
__First1$ = 8						; size = 4
__First2$ = 12						; size = 4
__Count$ = 16						; size = 4
?move@?$char_traits@D@std@@SAPADPADPBDI@Z PROC NEAR	; std::char_traits<char>::move, COMDAT

; 370  : 		return ((_Elem *)::memmove(_First1, _First2, _Count));

  00000	e9 00 00 00 00	 jmp	 _memmove
?move@?$char_traits@D@std@@SAPADPADPBDI@Z ENDP		; std::char_traits<char>::move
_TEXT	ENDS
PUBLIC	?size@?$basic_string@DU?$char_traits@D@std@@V?$allocator@D@2@@std@@QBEIXZ ; std::basic_string<char,std::char_traits<char>,std::allocator<char> >::size
; Function compile flags: /Ogty
; File c:\program files (x86)\microsoft visual studio .net 2003\vc7\include\xstring
;	COMDAT ?size@?$basic_string@DU?$char_traits@D@std@@V?$allocator@D@2@@std@@QBEIXZ
_TEXT	SEGMENT
?size@?$basic_string@DU?$char_traits@D@std@@V?$allocator@D@2@@std@@QBEIXZ PROC NEAR ; std::basic_string<char,std::char_traits<char>,std::allocator<char> >::size, COMDAT
; _this$ = ecx

; 1109 : 		return (_Mysize);

  00000	8b 41 14	 mov	 eax, DWORD PTR [ecx+20]

; 1110 : 		}

  00003	c3		 ret	 0
?size@?$basic_string@DU?$char_traits@D@std@@V?$allocator@D@2@@std@@QBEIXZ ENDP ; std::basic_string<char,std::char_traits<char>,std::allocator<char> >::size
_TEXT	ENDS
PUBLIC	?_Myptr@?$basic_string@DU?$char_traits@D@std@@V?$allocator@D@2@@std@@QBEPBDXZ ; std::basic_string<char,std::char_traits<char>,std::allocator<char> >::_Myptr
; Function compile flags: /Ogty
;	COMDAT ?_Myptr@?$basic_string@DU?$char_traits@D@std@@V?$allocator@D@2@@std@@QBEPBDXZ
_TEXT	SEGMENT
?_Myptr@?$basic_string@DU?$char_traits@D@std@@V?$allocator@D@2@@std@@QBEPBDXZ PROC NEAR ; std::basic_string<char,std::char_traits<char>,std::allocator<char> >::_Myptr, COMDAT
; _this$ = ecx

; 1537 : 		return (_BUF_SIZE <= _Myres ? _Bx._Ptr : _Bx._Buf);

  00000	83 79 18 10	 cmp	 DWORD PTR [ecx+24], 16	; 00000010H
  00004	72 04		 jb	 SHORT $L155565
  00006	8b 41 04	 mov	 eax, DWORD PTR [ecx+4]

; 1538 : 		}

  00009	c3		 ret	 0
$L155565:

; 1537 : 		return (_BUF_SIZE <= _Myres ? _Bx._Ptr : _Bx._Buf);

  0000a	8d 41 04	 lea	 eax, DWORD PTR [ecx+4]

; 1538 : 		}

  0000d	c3		 ret	 0
?_Myptr@?$basic_string@DU?$char_traits@D@std@@V?$allocator@D@2@@std@@QBEPBDXZ ENDP ; std::basic_string<char,std::char_traits<char>,std::allocator<char> >::_Myptr
_TEXT	ENDS
PUBLIC	??0?$allocator@D@std@@QAE@ABV01@@Z		; std::allocator<char>::allocator<char>
; Function compile flags: /Ogty
; File c:\program files (x86)\microsoft visual studio .net 2003\vc7\include\xmemory
;	COMDAT ??0?$allocator@D@std@@QAE@ABV01@@Z
_TEXT	SEGMENT
___formal$ = 8						; size = 4
??0?$allocator@D@std@@QAE@ABV01@@Z PROC NEAR		; std::allocator<char>::allocator<char>, COMDAT
; _this$ = ecx

; 115  : 	allocator(const allocator<_Ty>&)

  00000	8b c1		 mov	 eax, ecx

; 116  : 		{	// construct by copying (do nothing)
; 117  : 		}

  00002	c2 04 00	 ret	 4
??0?$allocator@D@std@@QAE@ABV01@@Z ENDP			; std::allocator<char>::allocator<char>
_TEXT	ENDS
PUBLIC	?size@?$vector@PAUtagQUESTTERM@@V?$allocator@PAUtagQUESTTERM@@@std@@@std@@QBEIXZ ; std::vector<tagQUESTTERM *,std::allocator<tagQUESTTERM *> >::size
; Function compile flags: /Ogty
; File c:\program files (x86)\microsoft visual studio .net 2003\vc7\include\vector
;	COMDAT ?size@?$vector@PAUtagQUESTTERM@@V?$allocator@PAUtagQUESTTERM@@@std@@@std@@QBEIXZ
_TEXT	SEGMENT
?size@?$vector@PAUtagQUESTTERM@@V?$allocator@PAUtagQUESTTERM@@@std@@@std@@QBEIXZ PROC NEAR ; std::vector<tagQUESTTERM *,std::allocator<tagQUESTTERM *> >::size, COMDAT
; _this$ = ecx

; 516  : 		return (_Myfirst == 0 ? 0 : _Mylast - _Myfirst);

  00000	8b 51 04	 mov	 edx, DWORD PTR [ecx+4]
  00003	85 d2		 test	 edx, edx
  00005	75 03		 jne	 SHORT $L155573
  00007	33 c0		 xor	 eax, eax

; 517  : 		}

  00009	c3		 ret	 0
$L155573:

; 516  : 		return (_Myfirst == 0 ? 0 : _Mylast - _Myfirst);

  0000a	8b 41 08	 mov	 eax, DWORD PTR [ecx+8]
  0000d	2b c2		 sub	 eax, edx
  0000f	c1 f8 02	 sar	 eax, 2

; 517  : 		}

  00012	c3		 ret	 0
?size@?$vector@PAUtagQUESTTERM@@V?$allocator@PAUtagQUESTTERM@@@std@@@std@@QBEIXZ ENDP ; std::vector<tagQUESTTERM *,std::allocator<tagQUESTTERM *> >::size
_TEXT	ENDS
PUBLIC	??0?$allocator@PAUtagQUESTTERM@@@std@@QAE@XZ	; std::allocator<tagQUESTTERM *>::allocator<tagQUESTTERM *>
; Function compile flags: /Ogty
; File c:\program files (x86)\microsoft visual studio .net 2003\vc7\include\xmemory
;	COMDAT ??0?$allocator@PAUtagQUESTTERM@@@std@@QAE@XZ
_TEXT	SEGMENT
??0?$allocator@PAUtagQUESTTERM@@@std@@QAE@XZ PROC NEAR	; std::allocator<tagQUESTTERM *>::allocator<tagQUESTTERM *>, COMDAT
; _this$ = ecx

; 111  : 	allocator()

  00000	8b c1		 mov	 eax, ecx

; 112  : 		{	// construct default allocator (do nothing)
; 113  : 		}

  00002	c3		 ret	 0
??0?$allocator@PAUtagQUESTTERM@@@std@@QAE@XZ ENDP	; std::allocator<tagQUESTTERM *>::allocator<tagQUESTTERM *>
_TEXT	ENDS
PUBLIC	?_Myptr@?$basic_string@DU?$char_traits@D@std@@V?$allocator@D@2@@std@@QAEPADXZ ; std::basic_string<char,std::char_traits<char>,std::allocator<char> >::_Myptr
; Function compile flags: /Ogty
; File c:\program files (x86)\microsoft visual studio .net 2003\vc7\include\xstring
;	COMDAT ?_Myptr@?$basic_string@DU?$char_traits@D@std@@V?$allocator@D@2@@std@@QAEPADXZ
_TEXT	SEGMENT
?_Myptr@?$basic_string@DU?$char_traits@D@std@@V?$allocator@D@2@@std@@QAEPADXZ PROC NEAR ; std::basic_string<char,std::char_traits<char>,std::allocator<char> >::_Myptr, COMDAT
; _this$ = ecx

; 1532 : 		return (_BUF_SIZE <= _Myres ? _Bx._Ptr : _Bx._Buf);

  00000	83 79 18 10	 cmp	 DWORD PTR [ecx+24], 16	; 00000010H
  00004	72 04		 jb	 SHORT $L155581
  00006	8b 41 04	 mov	 eax, DWORD PTR [ecx+4]

; 1533 : 		}

  00009	c3		 ret	 0
$L155581:

; 1532 : 		return (_BUF_SIZE <= _Myres ? _Bx._Ptr : _Bx._Buf);

  0000a	8d 41 04	 lea	 eax, DWORD PTR [ecx+4]

; 1533 : 		}

  0000d	c3		 ret	 0
?_Myptr@?$basic_string@DU?$char_traits@D@std@@V?$allocator@D@2@@std@@QAEPADXZ ENDP ; std::basic_string<char,std::char_traits<char>,std::allocator<char> >::_Myptr
_TEXT	ENDS
PUBLIC	?deallocate@?$allocator@D@std@@QAEXPADI@Z	; std::allocator<char>::deallocate
EXTRN	??3@YAXPAX@Z:NEAR				; operator delete
; Function compile flags: /Ogty
; File c:\program files (x86)\microsoft visual studio .net 2003\vc7\include\xmemory
;	COMDAT ?deallocate@?$allocator@D@std@@QAEXPADI@Z
_TEXT	SEGMENT
__Ptr$ = 8						; size = 4
___formal$ = 12						; size = 4
?deallocate@?$allocator@D@std@@QAEXPADI@Z PROC NEAR	; std::allocator<char>::deallocate, COMDAT
; _this$ = ecx

; 132  : 		operator delete(_Ptr);

  00000	8b 44 24 04	 mov	 eax, DWORD PTR __Ptr$[esp-4]
  00004	50		 push	 eax
  00005	e8 00 00 00 00	 call	 ??3@YAXPAX@Z		; operator delete
  0000a	59		 pop	 ecx

; 133  : 		}

  0000b	c2 08 00	 ret	 8
?deallocate@?$allocator@D@std@@QAEXPADI@Z ENDP		; std::allocator<char>::deallocate
_TEXT	ENDS
PUBLIC	??0?$allocator@PAUtagQUESTTERM@@@std@@QAE@ABV01@@Z ; std::allocator<tagQUESTTERM *>::allocator<tagQUESTTERM *>
; Function compile flags: /Ogty
;	COMDAT ??0?$allocator@PAUtagQUESTTERM@@@std@@QAE@ABV01@@Z
_TEXT	SEGMENT
___formal$ = 8						; size = 4
??0?$allocator@PAUtagQUESTTERM@@@std@@QAE@ABV01@@Z PROC NEAR ; std::allocator<tagQUESTTERM *>::allocator<tagQUESTTERM *>, COMDAT
; _this$ = ecx

; 115  : 	allocator(const allocator<_Ty>&)

  00000	8b c1		 mov	 eax, ecx

; 116  : 		{	// construct by copying (do nothing)
; 117  : 		}

  00002	c2 04 00	 ret	 4
??0?$allocator@PAUtagQUESTTERM@@@std@@QAE@ABV01@@Z ENDP	; std::allocator<tagQUESTTERM *>::allocator<tagQUESTTERM *>
_TEXT	ENDS
PUBLIC	?deallocate@?$allocator@PAUtagQUESTTERM@@@std@@QAEXPAPAUtagQUESTTERM@@I@Z ; std::allocator<tagQUESTTERM *>::deallocate
; Function compile flags: /Ogty
;	COMDAT ?deallocate@?$allocator@PAUtagQUESTTERM@@@std@@QAEXPAPAUtagQUESTTERM@@I@Z
_TEXT	SEGMENT
__Ptr$ = 8						; size = 4
___formal$ = 12						; size = 4
?deallocate@?$allocator@PAUtagQUESTTERM@@@std@@QAEXPAPAUtagQUESTTERM@@I@Z PROC NEAR ; std::allocator<tagQUESTTERM *>::deallocate, COMDAT
; _this$ = ecx

; 132  : 		operator delete(_Ptr);

  00000	8b 44 24 04	 mov	 eax, DWORD PTR __Ptr$[esp-4]
  00004	50		 push	 eax
  00005	e8 00 00 00 00	 call	 ??3@YAXPAX@Z		; operator delete
  0000a	59		 pop	 ecx

; 133  : 		}

  0000b	c2 08 00	 ret	 8
?deallocate@?$allocator@PAUtagQUESTTERM@@@std@@QAEXPAPAUtagQUESTTERM@@I@Z ENDP ; std::allocator<tagQUESTTERM *>::deallocate
_TEXT	ENDS
PUBLIC	??Dconst_iterator@?$vector@PAUtagQUESTTERM@@V?$allocator@PAUtagQUESTTERM@@@std@@@std@@QBEABQAUtagQUESTTERM@@XZ ; std::vector<tagQUESTTERM *,std::allocator<tagQUESTTERM *> >::const_iterator::operator*
; Function compile flags: /Ogty
; File c:\program files (x86)\microsoft visual studio .net 2003\vc7\include\vector
;	COMDAT ??Dconst_iterator@?$vector@PAUtagQUESTTERM@@V?$allocator@PAUtagQUESTTERM@@@std@@@std@@QBEABQAUtagQUESTTERM@@XZ
_TEXT	SEGMENT
??Dconst_iterator@?$vector@PAUtagQUESTTERM@@V?$allocator@PAUtagQUESTTERM@@@std@@@std@@QBEABQAUtagQUESTTERM@@XZ PROC NEAR ; std::vector<tagQUESTTERM *,std::allocator<tagQUESTTERM *> >::const_iterator::operator*, COMDAT
; _this$ = ecx

; 80   : 
; 81   : 
; 82   : 			return (*_Myptr);

  00000	8b 01		 mov	 eax, DWORD PTR [ecx]

; 83   : 			}

  00002	c3		 ret	 0
??Dconst_iterator@?$vector@PAUtagQUESTTERM@@V?$allocator@PAUtagQUESTTERM@@@std@@@std@@QBEABQAUtagQUESTTERM@@XZ ENDP ; std::vector<tagQUESTTERM *,std::allocator<tagQUESTTERM *> >::const_iterator::operator*
_TEXT	ENDS
PUBLIC	?_Inside@?$basic_string@DU?$char_traits@D@std@@V?$allocator@D@2@@std@@IAE_NPBD@Z ; std::basic_string<char,std::char_traits<char>,std::allocator<char> >::_Inside
; Function compile flags: /Ogty
; File c:\program files (x86)\microsoft visual studio .net 2003\vc7\include\xstring
;	COMDAT ?_Inside@?$basic_string@DU?$char_traits@D@std@@V?$allocator@D@2@@std@@IAE_NPBD@Z
_TEXT	SEGMENT
__Ptr$ = 8						; size = 4
?_Inside@?$basic_string@DU?$char_traits@D@std@@V?$allocator@D@2@@std@@IAE_NPBD@Z PROC NEAR ; std::basic_string<char,std::char_traits<char>,std::allocator<char> >::_Inside, COMDAT
; _this$ = ecx

; 1494 : 		{	// test if _Ptr points inside string

  00000	56		 push	 esi

; 1495 : 		if (_Ptr < _Myptr() || _Myptr() + _Mysize <= _Ptr)

  00001	8b 71 18	 mov	 esi, DWORD PTR [ecx+24]
  00004	83 fe 10	 cmp	 esi, 16			; 00000010H
  00007	57		 push	 edi
  00008	8d 41 04	 lea	 eax, DWORD PTR [ecx+4]
  0000b	72 04		 jb	 SHORT $L155603
  0000d	8b 10		 mov	 edx, DWORD PTR [eax]
  0000f	eb 02		 jmp	 SHORT $L155604
$L155603:
  00011	8b d0		 mov	 edx, eax
$L155604:
  00013	8b 7c 24 0c	 mov	 edi, DWORD PTR __Ptr$[esp+4]
  00017	3b fa		 cmp	 edi, edx
  00019	72 17		 jb	 SHORT $L150517
  0001b	83 fe 10	 cmp	 esi, 16			; 00000010H
  0001e	72 02		 jb	 SHORT $L155611
  00020	8b 00		 mov	 eax, DWORD PTR [eax]
$L155611:
  00022	8b 49 14	 mov	 ecx, DWORD PTR [ecx+20]
  00025	03 c8		 add	 ecx, eax
  00027	3b cf		 cmp	 ecx, edi
  00029	76 07		 jbe	 SHORT $L150517
  0002b	5f		 pop	 edi

; 1497 : 		else
; 1498 : 			return (true);

  0002c	b0 01		 mov	 al, 1
  0002e	5e		 pop	 esi

; 1499 : 		}

  0002f	c2 04 00	 ret	 4
$L150517:
  00032	5f		 pop	 edi

; 1496 : 			return (false);	// don't ask

  00033	32 c0		 xor	 al, al
  00035	5e		 pop	 esi

; 1499 : 		}

  00036	c2 04 00	 ret	 4
?_Inside@?$basic_string@DU?$char_traits@D@std@@V?$allocator@D@2@@std@@IAE_NPBD@Z ENDP ; std::basic_string<char,std::char_traits<char>,std::allocator<char> >::_Inside
_TEXT	ENDS
PUBLIC	?max_size@?$allocator@PAUtagQUESTTERM@@@std@@QBEIXZ ; std::allocator<tagQUESTTERM *>::max_size
; Function compile flags: /Ogty
; File c:\program files (x86)\microsoft visual studio .net 2003\vc7\include\xmemory
;	COMDAT ?max_size@?$allocator@PAUtagQUESTTERM@@@std@@QBEIXZ
_TEXT	SEGMENT
?max_size@?$allocator@PAUtagQUESTTERM@@@std@@QBEIXZ PROC NEAR ; std::allocator<tagQUESTTERM *>::max_size, COMDAT
; _this$ = ecx

; 157  : 		_SIZT _Count = (_SIZT)(-1) / sizeof (_Ty);
; 158  : 		return (0 < _Count ? _Count : 1);

  00000	b8 ff ff ff 3f	 mov	 eax, 1073741823		; 3fffffffH

; 159  : 		}

  00005	c3		 ret	 0
?max_size@?$allocator@PAUtagQUESTTERM@@@std@@QBEIXZ ENDP ; std::allocator<tagQUESTTERM *>::max_size
_TEXT	ENDS
PUBLIC	??Yiterator@?$vector@PAUtagQUESTTERM@@V?$allocator@PAUtagQUESTTERM@@@std@@@std@@QAEAAV012@H@Z ; std::vector<tagQUESTTERM *,std::allocator<tagQUESTTERM *> >::iterator::operator+=
; Function compile flags: /Ogty
; File c:\program files (x86)\microsoft visual studio .net 2003\vc7\include\vector
;	COMDAT ??Yiterator@?$vector@PAUtagQUESTTERM@@V?$allocator@PAUtagQUESTTERM@@@std@@@std@@QAEAAV012@H@Z
_TEXT	SEGMENT
__Off$ = 8						; size = 4
??Yiterator@?$vector@PAUtagQUESTTERM@@V?$allocator@PAUtagQUESTTERM@@@std@@@std@@QAEAAV012@H@Z PROC NEAR ; std::vector<tagQUESTTERM *,std::allocator<tagQUESTTERM *> >::iterator::operator+=, COMDAT
; _this$ = ecx

; 255  : 			{	// increment by integer

  00000	8b c1		 mov	 eax, ecx

; 256  : 			this->_Myptr += _Off;

  00002	8b 4c 24 04	 mov	 ecx, DWORD PTR __Off$[esp-4]
  00006	8d 14 8d 00 00
	00 00		 lea	 edx, DWORD PTR [ecx*4]
  0000d	01 10		 add	 DWORD PTR [eax], edx

; 257  : 			return (*this);
; 258  : 			}

  0000f	c2 04 00	 ret	 4
??Yiterator@?$vector@PAUtagQUESTTERM@@V?$allocator@PAUtagQUESTTERM@@@std@@@std@@QAEAAV012@H@Z ENDP ; std::vector<tagQUESTTERM *,std::allocator<tagQUESTTERM *> >::iterator::operator+=
_TEXT	ENDS
PUBLIC	??0const_iterator@?$vector@PAUtagQUESTTERM@@V?$allocator@PAUtagQUESTTERM@@@std@@@std@@QAE@PAPAUtagQUESTTERM@@@Z ; std::vector<tagQUESTTERM *,std::allocator<tagQUESTTERM *> >::const_iterator::const_iterator
; Function compile flags: /Ogty
;	COMDAT ??0const_iterator@?$vector@PAUtagQUESTTERM@@V?$allocator@PAUtagQUESTTERM@@@std@@@std@@QAE@PAPAUtagQUESTTERM@@@Z
_TEXT	SEGMENT
__Ptr$ = 8						; size = 4
??0const_iterator@?$vector@PAUtagQUESTTERM@@V?$allocator@PAUtagQUESTTERM@@@std@@@std@@QAE@PAPAUtagQUESTTERM@@@Z PROC NEAR ; std::vector<tagQUESTTERM *,std::allocator<tagQUESTTERM *> >::const_iterator::const_iterator, COMDAT
; _this$ = ecx

; 73   : 		const_iterator(_Tptr _Ptr)

  00000	8b c1		 mov	 eax, ecx

; 74   : 			{	// construct with pointer _Ptr
; 75   : 			_Myptr = _Ptr;

  00002	8b 4c 24 04	 mov	 ecx, DWORD PTR __Ptr$[esp-4]
  00006	89 08		 mov	 DWORD PTR [eax], ecx

; 76   : 			}

  00008	c2 04 00	 ret	 4
??0const_iterator@?$vector@PAUtagQUESTTERM@@V?$allocator@PAUtagQUESTTERM@@@std@@@std@@QAE@PAPAUtagQUESTTERM@@@Z ENDP ; std::vector<tagQUESTTERM *,std::allocator<tagQUESTTERM *> >::const_iterator::const_iterator
_TEXT	ENDS
PUBLIC	??0?$allocator@D@std@@QAE@XZ			; std::allocator<char>::allocator<char>
; Function compile flags: /Ogty
; File c:\program files (x86)\microsoft visual studio .net 2003\vc7\include\xmemory
;	COMDAT ??0?$allocator@D@std@@QAE@XZ
_TEXT	SEGMENT
??0?$allocator@D@std@@QAE@XZ PROC NEAR			; std::allocator<char>::allocator<char>, COMDAT
; _this$ = ecx

; 111  : 	allocator()

  00000	8b c1		 mov	 eax, ecx

; 112  : 		{	// construct default allocator (do nothing)
; 113  : 		}

  00002	c3		 ret	 0
??0?$allocator@D@std@@QAE@XZ ENDP			; std::allocator<char>::allocator<char>
_TEXT	ENDS
PUBLIC	?max_size@?$allocator@D@std@@QBEIXZ		; std::allocator<char>::max_size
; Function compile flags: /Ogty
;	COMDAT ?max_size@?$allocator@D@std@@QBEIXZ
_TEXT	SEGMENT
?max_size@?$allocator@D@std@@QBEIXZ PROC NEAR		; std::allocator<char>::max_size, COMDAT
; _this$ = ecx

; 157  : 		_SIZT _Count = (_SIZT)(-1) / sizeof (_Ty);
; 158  : 		return (0 < _Count ? _Count : 1);

  00000	83 c8 ff	 or	 eax, -1

; 159  : 		}

  00003	c3		 ret	 0
?max_size@?$allocator@D@std@@QBEIXZ ENDP		; std::allocator<char>::max_size
_TEXT	ENDS
PUBLIC	??$_Destroy_range@PAUtagQUESTTERM@@V?$allocator@PAUtagQUESTTERM@@@std@@@std@@YAXPAPAUtagQUESTTERM@@0AAV?$allocator@PAUtagQUESTTERM@@@0@@Z ; std::_Destroy_range<tagQUESTTERM *,std::allocator<tagQUESTTERM *> >
; Function compile flags: /Ogty
;	COMDAT ??$_Destroy_range@PAUtagQUESTTERM@@V?$allocator@PAUtagQUESTTERM@@@std@@@std@@YAXPAPAUtagQUESTTERM@@0AAV?$allocator@PAUtagQUESTTERM@@@0@@Z
_TEXT	SEGMENT
__First$ = 8						; size = 4
__Last$ = 12						; size = 4
__Al$ = 16						; size = 4
??$_Destroy_range@PAUtagQUESTTERM@@V?$allocator@PAUtagQUESTTERM@@@std@@@std@@YAXPAPAUtagQUESTTERM@@0AAV?$allocator@PAUtagQUESTTERM@@@0@@Z PROC NEAR ; std::_Destroy_range<tagQUESTTERM *,std::allocator<tagQUESTTERM *> >, COMDAT

; 217  : 	_Destroy_range(_First, _Last, _Al, _Ptr_cat(_First, _Last));
; 218  : 	}

  00000	c3		 ret	 0
??$_Destroy_range@PAUtagQUESTTERM@@V?$allocator@PAUtagQUESTTERM@@@std@@@std@@YAXPAPAUtagQUESTTERM@@0AAV?$allocator@PAUtagQUESTTERM@@@0@@Z ENDP ; std::_Destroy_range<tagQUESTTERM *,std::allocator<tagQUESTTERM *> >
_TEXT	ENDS
PUBLIC	??$_Allocate@PAUtagQUESTTERM@@@std@@YAPAPAUtagQUESTTERM@@IPAPAU1@@Z ; std::_Allocate<tagQUESTTERM *>
EXTRN	??2@YAPAXI@Z:NEAR				; operator new
; Function compile flags: /Ogty
;	COMDAT ??$_Allocate@PAUtagQUESTTERM@@@std@@YAPAPAUtagQUESTTERM@@IPAPAU1@@Z
_TEXT	SEGMENT
__Count$ = 8						; size = 4
___formal$ = 12						; size = 4
??$_Allocate@PAUtagQUESTTERM@@@std@@YAPAPAUtagQUESTTERM@@IPAPAU1@@Z PROC NEAR ; std::_Allocate<tagQUESTTERM *>, COMDAT

; 34   : 	return ((_Ty _FARQ *)operator new(_Count * sizeof (_Ty)));

  00000	8b 44 24 04	 mov	 eax, DWORD PTR __Count$[esp-4]
  00004	8d 0c 85 00 00
	00 00		 lea	 ecx, DWORD PTR [eax*4]
  0000b	51		 push	 ecx
  0000c	e8 00 00 00 00	 call	 ??2@YAPAXI@Z		; operator new
  00011	83 c4 04	 add	 esp, 4

; 35   : 	}

  00014	c3		 ret	 0
??$_Allocate@PAUtagQUESTTERM@@@std@@YAPAPAUtagQUESTTERM@@IPAPAU1@@Z ENDP ; std::_Allocate<tagQUESTTERM *>
_TEXT	ENDS
PUBLIC	??$_Allocate@D@std@@YAPADIPAD@Z			; std::_Allocate<char>
; Function compile flags: /Ogty
;	COMDAT ??$_Allocate@D@std@@YAPADIPAD@Z
_TEXT	SEGMENT
__Count$ = 8						; size = 4
___formal$ = 12						; size = 4
??$_Allocate@D@std@@YAPADIPAD@Z PROC NEAR		; std::_Allocate<char>, COMDAT

; 34   : 	return ((_Ty _FARQ *)operator new(_Count * sizeof (_Ty)));

  00000	8b 44 24 04	 mov	 eax, DWORD PTR __Count$[esp-4]
  00004	50		 push	 eax
  00005	e8 00 00 00 00	 call	 ??2@YAPAXI@Z		; operator new
  0000a	83 c4 04	 add	 esp, 4

; 35   : 	}

  0000d	c3		 ret	 0
??$_Allocate@D@std@@YAPADIPAD@Z ENDP			; std::_Allocate<char>
_TEXT	ENDS
PUBLIC	??9const_iterator@?$_Tree@V?$_Tmap_traits@EPAV?$map@KPAV?$vector@PAUtagQUESTTEMP@@V?$allocator@PAUtagQUESTTEMP@@@std@@@std@@U?$less@K@2@V?$allocator@U?$pair@$$CBKPAV?$vector@PAUtagQUESTTEMP@@V?$allocator@PAUtagQUESTTEMP@@@std@@@std@@@std@@@2@@std@@U?$less@E@2@V?$allocator@U?$pair@$$CBEPAV?$map@KPAV?$vector@PAUtagQUESTTEMP@@V?$allocator@PAUtagQUESTTEMP@@@std@@@std@@U?$less@K@2@V?$allocator@U?$pair@$$CBKPAV?$vector@PAUtagQUESTTEMP@@V?$allocator@PAUtagQUESTTEMP@@@std@@@std@@@std@@@2@@std@@@std@@@2@$0A@@std@@@std@@QBE_NABV012@@Z ; std::_Tree<std::_Tmap_traits<unsigned char,std::map<unsigned long,std::vector<tagQUESTTEMP *,std::allocator<tagQUESTTEMP *> > *,std::less<unsigned long>,std::allocator<std::pair<unsigned long const ,std::vector<tagQUESTTEMP *,std::allocator<tagQUESTTEMP *> > *> > > *,std::less<unsigned char>,std::allocator<std::pair<unsigned char const ,std::map<unsigned long,std::vector<tagQUESTTEMP *,std::allocator<tagQUESTTEMP *> > *,std::less<unsigned long>,std::allocator<std::pair<unsigned long const ,std::vector<tagQUESTTEMP *,std::allocator<tagQUESTTEMP *> > *> > > *> >,0> >::const_iterator::operator!=
; Function compile flags: /Ogty
; File c:\program files (x86)\microsoft visual studio .net 2003\vc7\include\xtree
;	COMDAT ??9const_iterator@?$_Tree@V?$_Tmap_traits@EPAV?$map@KPAV?$vector@PAUtagQUESTTEMP@@V?$allocator@PAUtagQUESTTEMP@@@std@@@std@@U?$less@K@2@V?$allocator@U?$pair@$$CBKPAV?$vector@PAUtagQUESTTEMP@@V?$allocator@PAUtagQUESTTEMP@@@std@@@std@@@std@@@2@@std@@U?$less@E@2@V?$allocator@U?$pair@$$CBEPAV?$map@KPAV?$vector@PAUtagQUESTTEMP@@V?$allocator@PAUtagQUESTTEMP@@@std@@@std@@U?$less@K@2@V?$allocator@U?$pair@$$CBKPAV?$vector@PAUtagQUESTTEMP@@V?$allocator@PAUtagQUESTTEMP@@@std@@@std@@@std@@@2@@std@@@std@@@2@$0A@@std@@@std@@QBE_NABV012@@Z
_TEXT	SEGMENT
__Right$ = 8						; size = 4
??9const_iterator@?$_Tree@V?$_Tmap_traits@EPAV?$map@KPAV?$vector@PAUtagQUESTTEMP@@V?$allocator@PAUtagQUESTTEMP@@@std@@@std@@U?$less@K@2@V?$allocator@U?$pair@$$CBKPAV?$vector@PAUtagQUESTTEMP@@V?$allocator@PAUtagQUESTTEMP@@@std@@@std@@@std@@@2@@std@@U?$less@E@2@V?$allocator@U?$pair@$$CBEPAV?$map@KPAV?$vector@PAUtagQUESTTEMP@@V?$allocator@PAUtagQUESTTEMP@@@std@@@std@@U?$less@K@2@V?$allocator@U?$pair@$$CBKPAV?$vector@PAUtagQUESTTEMP@@V?$allocator@PAUtagQUESTTEMP@@@std@@@std@@@std@@@2@@std@@@std@@@2@$0A@@std@@@std@@QBE_NABV012@@Z PROC NEAR ; std::_Tree<std::_Tmap_traits<unsigned char,std::map<unsigned long,std::vector<tagQUESTTEMP *,std::allocator<tagQUESTTEMP *> > *,std::less<unsigned long>,std::allocator<std::pair<unsigned long const ,std::vector<tagQUESTTEMP *,std::allocator<tagQUESTTEMP *> > *> > > *,std::less<unsigned char>,std::allocator<std::pair<unsigned char const ,std::map<unsigned long,std::vector<tagQUESTTEMP *,std::allocator<tagQUESTTEMP *> > *,std::less<unsigned long>,std::allocator<std::pair<unsigned long const ,std::vector<tagQUESTTEMP *,std::allocator<tagQUESTTEMP *> > *> > > *> >,0> >::const_iterator::operator!=, COMDAT
; _this$ = ecx

; 246  : 			return (!(*this == _Right));

  00000	8b 01		 mov	 eax, DWORD PTR [ecx]
  00002	8b 54 24 04	 mov	 edx, DWORD PTR __Right$[esp-4]
  00006	56		 push	 esi
  00007	8b 32		 mov	 esi, DWORD PTR [edx]
  00009	33 c9		 xor	 ecx, ecx
  0000b	3b c6		 cmp	 eax, esi
  0000d	0f 95 c1	 setne	 cl
  00010	8a c1		 mov	 al, cl
  00012	5e		 pop	 esi

; 247  : 			}

  00013	c2 04 00	 ret	 4
??9const_iterator@?$_Tree@V?$_Tmap_traits@EPAV?$map@KPAV?$vector@PAUtagQUESTTEMP@@V?$allocator@PAUtagQUESTTEMP@@@std@@@std@@U?$less@K@2@V?$allocator@U?$pair@$$CBKPAV?$vector@PAUtagQUESTTEMP@@V?$allocator@PAUtagQUESTTEMP@@@std@@@std@@@std@@@2@@std@@U?$less@E@2@V?$allocator@U?$pair@$$CBEPAV?$map@KPAV?$vector@PAUtagQUESTTEMP@@V?$allocator@PAUtagQUESTTEMP@@@std@@@std@@U?$less@K@2@V?$allocator@U?$pair@$$CBKPAV?$vector@PAUtagQUESTTEMP@@V?$allocator@PAUtagQUESTTEMP@@@std@@@std@@@std@@@2@@std@@@std@@@2@$0A@@std@@@std@@QBE_NABV012@@Z ENDP ; std::_Tree<std::_Tmap_traits<unsigned char,std::map<unsigned long,std::vector<tagQUESTTEMP *,std::allocator<tagQUESTTEMP *> > *,std::less<unsigned long>,std::allocator<std::pair<unsigned long const ,std::vector<tagQUESTTEMP *,std::allocator<tagQUESTTEMP *> > *> > > *,std::less<unsigned char>,std::allocator<std::pair<unsigned char const ,std::map<unsigned long,std::vector<tagQUESTTEMP *,std::allocator<tagQUESTTEMP *> > *,std::less<unsigned long>,std::allocator<std::pair<unsigned long const ,std::vector<tagQUESTTEMP *,std::allocator<tagQUESTTEMP *> > *> > > *> >,0> >::const_iterator::operator!=
_TEXT	ENDS
PUBLIC	??9const_iterator@?$_Tree@V?$_Tmap_traits@KPAV?$vector@PAUtagQUESTTEMP@@V?$allocator@PAUtagQUESTTEMP@@@std@@@std@@U?$less@K@2@V?$allocator@U?$pair@$$CBKPAV?$vector@PAUtagQUESTTEMP@@V?$allocator@PAUtagQUESTTEMP@@@std@@@std@@@std@@@2@$0A@@std@@@std@@QBE_NABV012@@Z ; std::_Tree<std::_Tmap_traits<unsigned long,std::vector<tagQUESTTEMP *,std::allocator<tagQUESTTEMP *> > *,std::less<unsigned long>,std::allocator<std::pair<unsigned long const ,std::vector<tagQUESTTEMP *,std::allocator<tagQUESTTEMP *> > *> >,0> >::const_iterator::operator!=
; Function compile flags: /Ogty
;	COMDAT ??9const_iterator@?$_Tree@V?$_Tmap_traits@KPAV?$vector@PAUtagQUESTTEMP@@V?$allocator@PAUtagQUESTTEMP@@@std@@@std@@U?$less@K@2@V?$allocator@U?$pair@$$CBKPAV?$vector@PAUtagQUESTTEMP@@V?$allocator@PAUtagQUESTTEMP@@@std@@@std@@@std@@@2@$0A@@std@@@std@@QBE_NABV012@@Z
_TEXT	SEGMENT
__Right$ = 8						; size = 4
??9const_iterator@?$_Tree@V?$_Tmap_traits@KPAV?$vector@PAUtagQUESTTEMP@@V?$allocator@PAUtagQUESTTEMP@@@std@@@std@@U?$less@K@2@V?$allocator@U?$pair@$$CBKPAV?$vector@PAUtagQUESTTEMP@@V?$allocator@PAUtagQUESTTEMP@@@std@@@std@@@std@@@2@$0A@@std@@@std@@QBE_NABV012@@Z PROC NEAR ; std::_Tree<std::_Tmap_traits<unsigned long,std::vector<tagQUESTTEMP *,std::allocator<tagQUESTTEMP *> > *,std::less<unsigned long>,std::allocator<std::pair<unsigned long const ,std::vector<tagQUESTTEMP *,std::allocator<tagQUESTTEMP *> > *> >,0> >::const_iterator::operator!=, COMDAT
; _this$ = ecx

; 246  : 			return (!(*this == _Right));

  00000	8b 01		 mov	 eax, DWORD PTR [ecx]
  00002	8b 54 24 04	 mov	 edx, DWORD PTR __Right$[esp-4]
  00006	56		 push	 esi
  00007	8b 32		 mov	 esi, DWORD PTR [edx]
  00009	33 c9		 xor	 ecx, ecx
  0000b	3b c6		 cmp	 eax, esi
  0000d	0f 95 c1	 setne	 cl
  00010	8a c1		 mov	 al, cl
  00012	5e		 pop	 esi

; 247  : 			}

  00013	c2 04 00	 ret	 4
??9const_iterator@?$_Tree@V?$_Tmap_traits@KPAV?$vector@PAUtagQUESTTEMP@@V?$allocator@PAUtagQUESTTEMP@@@std@@@std@@U?$less@K@2@V?$allocator@U?$pair@$$CBKPAV?$vector@PAUtagQUESTTEMP@@V?$allocator@PAUtagQUESTTEMP@@@std@@@std@@@std@@@2@$0A@@std@@@std@@QBE_NABV012@@Z ENDP ; std::_Tree<std::_Tmap_traits<unsigned long,std::vector<tagQUESTTEMP *,std::allocator<tagQUESTTEMP *> > *,std::less<unsigned long>,std::allocator<std::pair<unsigned long const ,std::vector<tagQUESTTEMP *,std::allocator<tagQUESTTEMP *> > *> >,0> >::const_iterator::operator!=
_TEXT	ENDS
PUBLIC	??0iterator@?$_Tree@V?$_Tmap_traits@EPAVCTInven@@U?$less@E@std@@V?$allocator@U?$pair@$$CBEPAVCTInven@@@std@@@3@$0A@@std@@@std@@QAE@XZ ; std::_Tree<std::_Tmap_traits<unsigned char,CTInven *,std::less<unsigned char>,std::allocator<std::pair<unsigned char const ,CTInven *> >,0> >::iterator::iterator
; Function compile flags: /Ogty
;	COMDAT ??0iterator@?$_Tree@V?$_Tmap_traits@EPAVCTInven@@U?$less@E@std@@V?$allocator@U?$pair@$$CBEPAVCTInven@@@std@@@3@$0A@@std@@@std@@QAE@XZ
_TEXT	SEGMENT
??0iterator@?$_Tree@V?$_Tmap_traits@EPAVCTInven@@U?$less@E@std@@V?$allocator@U?$pair@$$CBEPAVCTInven@@@std@@@3@$0A@@std@@@std@@QAE@XZ PROC NEAR ; std::_Tree<std::_Tmap_traits<unsigned char,CTInven *,std::less<unsigned char>,std::allocator<std::pair<unsigned char const ,CTInven *> >,0> >::iterator::iterator, COMDAT
; _this$ = ecx

; 304  : 		iterator()

  00000	8b c1		 mov	 eax, ecx
  00002	c7 00 00 00 00
	00		 mov	 DWORD PTR [eax], 0

; 305  : 			{	// construct with null node pointer
; 306  : 			}

  00008	c3		 ret	 0
??0iterator@?$_Tree@V?$_Tmap_traits@EPAVCTInven@@U?$less@E@std@@V?$allocator@U?$pair@$$CBEPAVCTInven@@@std@@@3@$0A@@std@@@std@@QAE@XZ ENDP ; std::_Tree<std::_Tmap_traits<unsigned char,CTInven *,std::less<unsigned char>,std::allocator<std::pair<unsigned char const ,CTInven *> >,0> >::iterator::iterator
_TEXT	ENDS
PUBLIC	??9const_iterator@?$_Tree@V?$_Tmap_traits@EPAVCTInven@@U?$less@E@std@@V?$allocator@U?$pair@$$CBEPAVCTInven@@@std@@@3@$0A@@std@@@std@@QBE_NABV012@@Z ; std::_Tree<std::_Tmap_traits<unsigned char,CTInven *,std::less<unsigned char>,std::allocator<std::pair<unsigned char const ,CTInven *> >,0> >::const_iterator::operator!=
; Function compile flags: /Ogty
;	COMDAT ??9const_iterator@?$_Tree@V?$_Tmap_traits@EPAVCTInven@@U?$less@E@std@@V?$allocator@U?$pair@$$CBEPAVCTInven@@@std@@@3@$0A@@std@@@std@@QBE_NABV012@@Z
_TEXT	SEGMENT
__Right$ = 8						; size = 4
??9const_iterator@?$_Tree@V?$_Tmap_traits@EPAVCTInven@@U?$less@E@std@@V?$allocator@U?$pair@$$CBEPAVCTInven@@@std@@@3@$0A@@std@@@std@@QBE_NABV012@@Z PROC NEAR ; std::_Tree<std::_Tmap_traits<unsigned char,CTInven *,std::less<unsigned char>,std::allocator<std::pair<unsigned char const ,CTInven *> >,0> >::const_iterator::operator!=, COMDAT
; _this$ = ecx

; 246  : 			return (!(*this == _Right));

  00000	8b 01		 mov	 eax, DWORD PTR [ecx]
  00002	8b 54 24 04	 mov	 edx, DWORD PTR __Right$[esp-4]
  00006	56		 push	 esi
  00007	8b 32		 mov	 esi, DWORD PTR [edx]
  00009	33 c9		 xor	 ecx, ecx
  0000b	3b c6		 cmp	 eax, esi
  0000d	0f 95 c1	 setne	 cl
  00010	8a c1		 mov	 al, cl
  00012	5e		 pop	 esi

; 247  : 			}

  00013	c2 04 00	 ret	 4
??9const_iterator@?$_Tree@V?$_Tmap_traits@EPAVCTInven@@U?$less@E@std@@V?$allocator@U?$pair@$$CBEPAVCTInven@@@std@@@3@$0A@@std@@@std@@QBE_NABV012@@Z ENDP ; std::_Tree<std::_Tmap_traits<unsigned char,CTInven *,std::less<unsigned char>,std::allocator<std::pair<unsigned char const ,CTInven *> >,0> >::const_iterator::operator!=
_TEXT	ENDS
PUBLIC	??0iterator@?$_Tree@V?$_Tmap_traits@EPAVCTItem@@U?$less@E@std@@V?$allocator@U?$pair@$$CBEPAVCTItem@@@std@@@3@$0A@@std@@@std@@QAE@XZ ; std::_Tree<std::_Tmap_traits<unsigned char,CTItem *,std::less<unsigned char>,std::allocator<std::pair<unsigned char const ,CTItem *> >,0> >::iterator::iterator
; Function compile flags: /Ogty
;	COMDAT ??0iterator@?$_Tree@V?$_Tmap_traits@EPAVCTItem@@U?$less@E@std@@V?$allocator@U?$pair@$$CBEPAVCTItem@@@std@@@3@$0A@@std@@@std@@QAE@XZ
_TEXT	SEGMENT
??0iterator@?$_Tree@V?$_Tmap_traits@EPAVCTItem@@U?$less@E@std@@V?$allocator@U?$pair@$$CBEPAVCTItem@@@std@@@3@$0A@@std@@@std@@QAE@XZ PROC NEAR ; std::_Tree<std::_Tmap_traits<unsigned char,CTItem *,std::less<unsigned char>,std::allocator<std::pair<unsigned char const ,CTItem *> >,0> >::iterator::iterator, COMDAT
; _this$ = ecx

; 304  : 		iterator()

  00000	8b c1		 mov	 eax, ecx
  00002	c7 00 00 00 00
	00		 mov	 DWORD PTR [eax], 0

; 305  : 			{	// construct with null node pointer
; 306  : 			}

  00008	c3		 ret	 0
??0iterator@?$_Tree@V?$_Tmap_traits@EPAVCTItem@@U?$less@E@std@@V?$allocator@U?$pair@$$CBEPAVCTItem@@@std@@@3@$0A@@std@@@std@@QAE@XZ ENDP ; std::_Tree<std::_Tmap_traits<unsigned char,CTItem *,std::less<unsigned char>,std::allocator<std::pair<unsigned char const ,CTItem *> >,0> >::iterator::iterator
_TEXT	ENDS
PUBLIC	??9const_iterator@?$_Tree@V?$_Tmap_traits@EPAVCTItem@@U?$less@E@std@@V?$allocator@U?$pair@$$CBEPAVCTItem@@@std@@@3@$0A@@std@@@std@@QBE_NABV012@@Z ; std::_Tree<std::_Tmap_traits<unsigned char,CTItem *,std::less<unsigned char>,std::allocator<std::pair<unsigned char const ,CTItem *> >,0> >::const_iterator::operator!=
; Function compile flags: /Ogty
;	COMDAT ??9const_iterator@?$_Tree@V?$_Tmap_traits@EPAVCTItem@@U?$less@E@std@@V?$allocator@U?$pair@$$CBEPAVCTItem@@@std@@@3@$0A@@std@@@std@@QBE_NABV012@@Z
_TEXT	SEGMENT
__Right$ = 8						; size = 4
??9const_iterator@?$_Tree@V?$_Tmap_traits@EPAVCTItem@@U?$less@E@std@@V?$allocator@U?$pair@$$CBEPAVCTItem@@@std@@@3@$0A@@std@@@std@@QBE_NABV012@@Z PROC NEAR ; std::_Tree<std::_Tmap_traits<unsigned char,CTItem *,std::less<unsigned char>,std::allocator<std::pair<unsigned char const ,CTItem *> >,0> >::const_iterator::operator!=, COMDAT
; _this$ = ecx

; 246  : 			return (!(*this == _Right));

  00000	8b 01		 mov	 eax, DWORD PTR [ecx]
  00002	8b 54 24 04	 mov	 edx, DWORD PTR __Right$[esp-4]
  00006	56		 push	 esi
  00007	8b 32		 mov	 esi, DWORD PTR [edx]
  00009	33 c9		 xor	 ecx, ecx
  0000b	3b c6		 cmp	 eax, esi
  0000d	0f 95 c1	 setne	 cl
  00010	8a c1		 mov	 al, cl
  00012	5e		 pop	 esi

; 247  : 			}

  00013	c2 04 00	 ret	 4
??9const_iterator@?$_Tree@V?$_Tmap_traits@EPAVCTItem@@U?$less@E@std@@V?$allocator@U?$pair@$$CBEPAVCTItem@@@std@@@3@$0A@@std@@@std@@QBE_NABV012@@Z ENDP ; std::_Tree<std::_Tmap_traits<unsigned char,CTItem *,std::less<unsigned char>,std::allocator<std::pair<unsigned char const ,CTItem *> >,0> >::const_iterator::operator!=
_TEXT	ENDS
PUBLIC	?_Lmost@?$_Tree@V?$_Tmap_traits@EPAVCTInven@@U?$less@E@std@@V?$allocator@U?$pair@$$CBEPAVCTInven@@@std@@@3@$0A@@std@@@std@@IAEAAPAU_Node@?$_Tree_nod@V?$_Tmap_traits@EPAVCTInven@@U?$less@E@std@@V?$allocator@U?$pair@$$CBEPAVCTInven@@@std@@@3@$0A@@std@@@2@XZ ; std::_Tree<std::_Tmap_traits<unsigned char,CTInven *,std::less<unsigned char>,std::allocator<std::pair<unsigned char const ,CTInven *> >,0> >::_Lmost
; Function compile flags: /Ogty
;	COMDAT ?_Lmost@?$_Tree@V?$_Tmap_traits@EPAVCTInven@@U?$less@E@std@@V?$allocator@U?$pair@$$CBEPAVCTInven@@@std@@@3@$0A@@std@@@std@@IAEAAPAU_Node@?$_Tree_nod@V?$_Tmap_traits@EPAVCTInven@@U?$less@E@std@@V?$allocator@U?$pair@$$CBEPAVCTInven@@@std@@@3@$0A@@std@@@2@XZ
_TEXT	SEGMENT
?_Lmost@?$_Tree@V?$_Tmap_traits@EPAVCTInven@@U?$less@E@std@@V?$allocator@U?$pair@$$CBEPAVCTInven@@@std@@@3@$0A@@std@@@std@@IAEAAPAU_Node@?$_Tree_nod@V?$_Tmap_traits@EPAVCTInven@@U?$less@E@std@@V?$allocator@U?$pair@$$CBEPAVCTInven@@@std@@@3@$0A@@std@@@2@XZ PROC NEAR ; std::_Tree<std::_Tmap_traits<unsigned char,CTInven *,std::less<unsigned char>,std::allocator<std::pair<unsigned char const ,CTInven *> >,0> >::_Lmost, COMDAT
; _this$ = ecx

; 1005 : 		return (_Left(_Myhead));

  00000	8b 41 04	 mov	 eax, DWORD PTR [ecx+4]

; 1006 : 		}

  00003	c3		 ret	 0
?_Lmost@?$_Tree@V?$_Tmap_traits@EPAVCTInven@@U?$less@E@std@@V?$allocator@U?$pair@$$CBEPAVCTInven@@@std@@@3@$0A@@std@@@std@@IAEAAPAU_Node@?$_Tree_nod@V?$_Tmap_traits@EPAVCTInven@@U?$less@E@std@@V?$allocator@U?$pair@$$CBEPAVCTInven@@@std@@@3@$0A@@std@@@2@XZ ENDP ; std::_Tree<std::_Tmap_traits<unsigned char,CTInven *,std::less<unsigned char>,std::allocator<std::pair<unsigned char const ,CTInven *> >,0> >::_Lmost
_TEXT	ENDS
PUBLIC	?_Lmost@?$_Tree@V?$_Tmap_traits@EPAVCTItem@@U?$less@E@std@@V?$allocator@U?$pair@$$CBEPAVCTItem@@@std@@@3@$0A@@std@@@std@@IAEAAPAU_Node@?$_Tree_nod@V?$_Tmap_traits@EPAVCTItem@@U?$less@E@std@@V?$allocator@U?$pair@$$CBEPAVCTItem@@@std@@@3@$0A@@std@@@2@XZ ; std::_Tree<std::_Tmap_traits<unsigned char,CTItem *,std::less<unsigned char>,std::allocator<std::pair<unsigned char const ,CTItem *> >,0> >::_Lmost
; Function compile flags: /Ogty
;	COMDAT ?_Lmost@?$_Tree@V?$_Tmap_traits@EPAVCTItem@@U?$less@E@std@@V?$allocator@U?$pair@$$CBEPAVCTItem@@@std@@@3@$0A@@std@@@std@@IAEAAPAU_Node@?$_Tree_nod@V?$_Tmap_traits@EPAVCTItem@@U?$less@E@std@@V?$allocator@U?$pair@$$CBEPAVCTItem@@@std@@@3@$0A@@std@@@2@XZ
_TEXT	SEGMENT
?_Lmost@?$_Tree@V?$_Tmap_traits@EPAVCTItem@@U?$less@E@std@@V?$allocator@U?$pair@$$CBEPAVCTItem@@@std@@@3@$0A@@std@@@std@@IAEAAPAU_Node@?$_Tree_nod@V?$_Tmap_traits@EPAVCTItem@@U?$less@E@std@@V?$allocator@U?$pair@$$CBEPAVCTItem@@@std@@@3@$0A@@std@@@2@XZ PROC NEAR ; std::_Tree<std::_Tmap_traits<unsigned char,CTItem *,std::less<unsigned char>,std::allocator<std::pair<unsigned char const ,CTItem *> >,0> >::_Lmost, COMDAT
; _this$ = ecx

; 1005 : 		return (_Left(_Myhead));

  00000	8b 41 04	 mov	 eax, DWORD PTR [ecx+4]

; 1006 : 		}

  00003	c3		 ret	 0
?_Lmost@?$_Tree@V?$_Tmap_traits@EPAVCTItem@@U?$less@E@std@@V?$allocator@U?$pair@$$CBEPAVCTItem@@@std@@@3@$0A@@std@@@std@@IAEAAPAU_Node@?$_Tree_nod@V?$_Tmap_traits@EPAVCTItem@@U?$less@E@std@@V?$allocator@U?$pair@$$CBEPAVCTItem@@@std@@@3@$0A@@std@@@2@XZ ENDP ; std::_Tree<std::_Tmap_traits<unsigned char,CTItem *,std::less<unsigned char>,std::allocator<std::pair<unsigned char const ,CTItem *> >,0> >::_Lmost
_TEXT	ENDS
PUBLIC	??Hiterator@?$vector@PAUtagQUESTTERM@@V?$allocator@PAUtagQUESTTERM@@@std@@@std@@QBE?AV012@H@Z ; std::vector<tagQUESTTERM *,std::allocator<tagQUESTTERM *> >::iterator::operator+
; Function compile flags: /Ogty
; File c:\program files (x86)\microsoft visual studio .net 2003\vc7\include\vector
;	COMDAT ??Hiterator@?$vector@PAUtagQUESTTERM@@V?$allocator@PAUtagQUESTTERM@@@std@@@std@@QBE?AV012@H@Z
_TEXT	SEGMENT
___$ReturnUdt$ = 8					; size = 4
__Off$ = 12						; size = 4
??Hiterator@?$vector@PAUtagQUESTTERM@@V?$allocator@PAUtagQUESTTERM@@@std@@@std@@QBE?AV012@H@Z PROC NEAR ; std::vector<tagQUESTTERM *,std::allocator<tagQUESTTERM *> >::iterator::operator+, COMDAT
; _this$ = ecx

; 262  : 			iterator _Tmp = *this;
; 263  : 			return (_Tmp += _Off);

  00000	8b 01		 mov	 eax, DWORD PTR [ecx]
  00002	8b 4c 24 08	 mov	 ecx, DWORD PTR __Off$[esp-4]
  00006	8d 14 88	 lea	 edx, DWORD PTR [eax+ecx*4]
  00009	8b 44 24 04	 mov	 eax, DWORD PTR ___$ReturnUdt$[esp-4]
  0000d	89 10		 mov	 DWORD PTR [eax], edx

; 264  : 			}

  0000f	c2 08 00	 ret	 8
??Hiterator@?$vector@PAUtagQUESTTERM@@V?$allocator@PAUtagQUESTTERM@@@std@@@std@@QBE?AV012@H@Z ENDP ; std::vector<tagQUESTTERM *,std::allocator<tagQUESTTERM *> >::iterator::operator+
_TEXT	ENDS
PUBLIC	?_Key@?$_Tree@V?$_Tmap_traits@EPAV?$map@KPAV?$vector@PAUtagQUESTTEMP@@V?$allocator@PAUtagQUESTTEMP@@@std@@@std@@U?$less@K@2@V?$allocator@U?$pair@$$CBKPAV?$vector@PAUtagQUESTTEMP@@V?$allocator@PAUtagQUESTTEMP@@@std@@@std@@@std@@@2@@std@@U?$less@E@2@V?$allocator@U?$pair@$$CBEPAV?$map@KPAV?$vector@PAUtagQUESTTEMP@@V?$allocator@PAUtagQUESTTEMP@@@std@@@std@@U?$less@K@2@V?$allocator@U?$pair@$$CBKPAV?$vector@PAUtagQUESTTEMP@@V?$allocator@PAUtagQUESTTEMP@@@std@@@std@@@std@@@2@@std@@@std@@@2@$0A@@std@@@std@@KAABEPAU_Node@?$_Tree_nod@V?$_Tmap_traits@EPAV?$map@KPAV?$vector@PAUtagQUESTTEMP@@V?$allocator@PAUtagQUESTTEMP@@@std@@@std@@U?$less@K@2@V?$allocator@U?$pair@$$CBKPAV?$vector@PAUtagQUESTTEMP@@V?$allocator@PAUtagQUESTTEMP@@@std@@@std@@@std@@@2@@std@@U?$less@E@2@V?$allocator@U?$pair@$$CBEPAV?$map@KPAV?$vector@PAUtagQUESTTEMP@@V?$allocator@PAUtagQUESTTEMP@@@std@@@std@@U?$less@K@2@V?$allocator@U?$pair@$$CBKPAV?$vector@PAUtagQUESTTEMP@@V?$allocator@PAUtagQUESTTEMP@@@std@@@std@@@std@@@2@@std@@@std@@@2@$0A@@std@@@2@@Z ; std::_Tree<std::_Tmap_traits<unsigned char,std::map<unsigned long,std::vector<tagQUESTTEMP *,std::allocator<tagQUESTTEMP *> > *,std::less<unsigned long>,std::allocator<std::pair<unsigned long const ,std::vector<tagQUESTTEMP *,std::allocator<tagQUESTTEMP *> > *> > > *,std::less<unsigned char>,std::allocator<std::pair<unsigned char const ,std::map<unsigned long,std::vector<tagQUESTTEMP *,std::allocator<tagQUESTTEMP *> > *,std::less<unsigned long>,std::allocator<std::pair<unsigned long const ,std::vector<tagQUESTTEMP *,std::allocator<tagQUESTTEMP *> > *> > > *> >,0> >::_Key
; Function compile flags: /Ogty
; File c:\program files (x86)\microsoft visual studio .net 2003\vc7\include\xtree
;	COMDAT ?_Key@?$_Tree@V?$_Tmap_traits@EPAV?$map@KPAV?$vector@PAUtagQUESTTEMP@@V?$allocator@PAUtagQUESTTEMP@@@std@@@std@@U?$less@K@2@V?$allocator@U?$pair@$$CBKPAV?$vector@PAUtagQUESTTEMP@@V?$allocator@PAUtagQUESTTEMP@@@std@@@std@@@std@@@2@@std@@U?$less@E@2@V?$allocator@U?$pair@$$CBEPAV?$map@KPAV?$vector@PAUtagQUESTTEMP@@V?$allocator@PAUtagQUESTTEMP@@@std@@@std@@U?$less@K@2@V?$allocator@U?$pair@$$CBKPAV?$vector@PAUtagQUESTTEMP@@V?$allocator@PAUtagQUESTTEMP@@@std@@@std@@@std@@@2@@std@@@std@@@2@$0A@@std@@@std@@KAABEPAU_Node@?$_Tree_nod@V?$_Tmap_traits@EPAV?$map@KPAV?$vector@PAUtagQUESTTEMP@@V?$allocator@PAUtagQUESTTEMP@@@std@@@std@@U?$less@K@2@V?$allocator@U?$pair@$$CBKPAV?$vector@PAUtagQUESTTEMP@@V?$allocator@PAUtagQUESTTEMP@@@std@@@std@@@std@@@2@@std@@U?$less@E@2@V?$allocator@U?$pair@$$CBEPAV?$map@KPAV?$vector@PAUtagQUESTTEMP@@V?$allocator@PAUtagQUESTTEMP@@@std@@@std@@U?$less@K@2@V?$allocator@U?$pair@$$CBKPAV?$vector@PAUtagQUESTTEMP@@V?$allocator@PAUtagQUESTTEMP@@@std@@@std@@@std@@@2@@std@@@std@@@2@$0A@@std@@@2@@Z
_TEXT	SEGMENT
__Pnode$ = 8						; size = 4
?_Key@?$_Tree@V?$_Tmap_traits@EPAV?$map@KPAV?$vector@PAUtagQUESTTEMP@@V?$allocator@PAUtagQUESTTEMP@@@std@@@std@@U?$less@K@2@V?$allocator@U?$pair@$$CBKPAV?$vector@PAUtagQUESTTEMP@@V?$allocator@PAUtagQUESTTEMP@@@std@@@std@@@std@@@2@@std@@U?$less@E@2@V?$allocator@U?$pair@$$CBEPAV?$map@KPAV?$vector@PAUtagQUESTTEMP@@V?$allocator@PAUtagQUESTTEMP@@@std@@@std@@U?$less@K@2@V?$allocator@U?$pair@$$CBKPAV?$vector@PAUtagQUESTTEMP@@V?$allocator@PAUtagQUESTTEMP@@@std@@@std@@@std@@@2@@std@@@std@@@2@$0A@@std@@@std@@KAABEPAU_Node@?$_Tree_nod@V?$_Tmap_traits@EPAV?$map@KPAV?$vector@PAUtagQUESTTEMP@@V?$allocator@PAUtagQUESTTEMP@@@std@@@std@@U?$less@K@2@V?$allocator@U?$pair@$$CBKPAV?$vector@PAUtagQUESTTEMP@@V?$allocator@PAUtagQUESTTEMP@@@std@@@std@@@std@@@2@@std@@U?$less@E@2@V?$allocator@U?$pair@$$CBEPAV?$map@KPAV?$vector@PAUtagQUESTTEMP@@V?$allocator@PAUtagQUESTTEMP@@@std@@@std@@U?$less@K@2@V?$allocator@U?$pair@$$CBKPAV?$vector@PAUtagQUESTTEMP@@V?$allocator@PAUtagQUESTTEMP@@@std@@@std@@@std@@@2@@std@@@std@@@2@$0A@@std@@@2@@Z PROC NEAR ; std::_Tree<std::_Tmap_traits<unsigned char,std::map<unsigned long,std::vector<tagQUESTTEMP *,std::allocator<tagQUESTTEMP *> > *,std::less<unsigned long>,std::allocator<std::pair<unsigned long const ,std::vector<tagQUESTTEMP *,std::allocator<tagQUESTTEMP *> > *> > > *,std::less<unsigned char>,std::allocator<std::pair<unsigned char const ,std::map<unsigned long,std::vector<tagQUESTTEMP *,std::allocator<tagQUESTTEMP *> > *,std::less<unsigned long>,std::allocator<std::pair<unsigned long const ,std::vector<tagQUESTTEMP *,std::allocator<tagQUESTTEMP *> > *> > > *> >,0> >::_Key, COMDAT

; 142  : 		return (_Mybase::_Kfn(_Myval(_Pnode)));

  00000	8b 44 24 04	 mov	 eax, DWORD PTR __Pnode$[esp-4]
  00004	83 c0 0c	 add	 eax, 12			; 0000000cH

; 143  : 		}

  00007	c3		 ret	 0
?_Key@?$_Tree@V?$_Tmap_traits@EPAV?$map@KPAV?$vector@PAUtagQUESTTEMP@@V?$allocator@PAUtagQUESTTEMP@@@std@@@std@@U?$less@K@2@V?$allocator@U?$pair@$$CBKPAV?$vector@PAUtagQUESTTEMP@@V?$allocator@PAUtagQUESTTEMP@@@std@@@std@@@std@@@2@@std@@U?$less@E@2@V?$allocator@U?$pair@$$CBEPAV?$map@KPAV?$vector@PAUtagQUESTTEMP@@V?$allocator@PAUtagQUESTTEMP@@@std@@@std@@U?$less@K@2@V?$allocator@U?$pair@$$CBKPAV?$vector@PAUtagQUESTTEMP@@V?$allocator@PAUtagQUESTTEMP@@@std@@@std@@@std@@@2@@std@@@std@@@2@$0A@@std@@@std@@KAABEPAU_Node@?$_Tree_nod@V?$_Tmap_traits@EPAV?$map@KPAV?$vector@PAUtagQUESTTEMP@@V?$allocator@PAUtagQUESTTEMP@@@std@@@std@@U?$less@K@2@V?$allocator@U?$pair@$$CBKPAV?$vector@PAUtagQUESTTEMP@@V?$allocator@PAUtagQUESTTEMP@@@std@@@std@@@std@@@2@@std@@U?$less@E@2@V?$allocator@U?$pair@$$CBEPAV?$map@KPAV?$vector@PAUtagQUESTTEMP@@V?$allocator@PAUtagQUESTTEMP@@@std@@@std@@U?$less@K@2@V?$allocator@U?$pair@$$CBKPAV?$vector@PAUtagQUESTTEMP@@V?$allocator@PAUtagQUESTTEMP@@@std@@@std@@@std@@@2@@std@@@std@@@2@$0A@@std@@@2@@Z ENDP ; std::_Tree<std::_Tmap_traits<unsigned char,std::map<unsigned long,std::vector<tagQUESTTEMP *,std::allocator<tagQUESTTEMP *> > *,std::less<unsigned long>,std::allocator<std::pair<unsigned long const ,std::vector<tagQUESTTEMP *,std::allocator<tagQUESTTEMP *> > *> > > *,std::less<unsigned char>,std::allocator<std::pair<unsigned char const ,std::map<unsigned long,std::vector<tagQUESTTEMP *,std::allocator<tagQUESTTEMP *> > *,std::less<unsigned long>,std::allocator<std::pair<unsigned long const ,std::vector<tagQUESTTEMP *,std::allocator<tagQUESTTEMP *> > *> > > *> >,0> >::_Key
_TEXT	ENDS
PUBLIC	??0iterator@?$_Tree@V?$_Tmap_traits@EPAV?$map@KPAV?$vector@PAUtagQUESTTEMP@@V?$allocator@PAUtagQUESTTEMP@@@std@@@std@@U?$less@K@2@V?$allocator@U?$pair@$$CBKPAV?$vector@PAUtagQUESTTEMP@@V?$allocator@PAUtagQUESTTEMP@@@std@@@std@@@std@@@2@@std@@U?$less@E@2@V?$allocator@U?$pair@$$CBEPAV?$map@KPAV?$vector@PAUtagQUESTTEMP@@V?$allocator@PAUtagQUESTTEMP@@@std@@@std@@U?$less@K@2@V?$allocator@U?$pair@$$CBKPAV?$vector@PAUtagQUESTTEMP@@V?$allocator@PAUtagQUESTTEMP@@@std@@@std@@@std@@@2@@std@@@std@@@2@$0A@@std@@@std@@QAE@PAU_Node@?$_Tree_nod@V?$_Tmap_traits@EPAV?$map@KPAV?$vector@PAUtagQUESTTEMP@@V?$allocator@PAUtagQUESTTEMP@@@std@@@std@@U?$less@K@2@V?$allocator@U?$pair@$$CBKPAV?$vector@PAUtagQUESTTEMP@@V?$allocator@PAUtagQUESTTEMP@@@std@@@std@@@std@@@2@@std@@U?$less@E@2@V?$allocator@U?$pair@$$CBEPAV?$map@KPAV?$vector@PAUtagQUESTTEMP@@V?$allocator@PAUtagQUESTTEMP@@@std@@@std@@U?$less@K@2@V?$allocator@U?$pair@$$CBKPAV?$vector@PAUtagQUESTTEMP@@V?$allocator@PAUtagQUESTTEMP@@@std@@@std@@@std@@@2@@std@@@std@@@2@$0A@@std@@@2@@Z ; std::_Tree<std::_Tmap_traits<unsigned char,std::map<unsigned long,std::vector<tagQUESTTEMP *,std::allocator<tagQUESTTEMP *> > *,std::less<unsigned long>,std::allocator<std::pair<unsigned long const ,std::vector<tagQUESTTEMP *,std::allocator<tagQUESTTEMP *> > *> > > *,std::less<unsigned char>,std::allocator<std::pair<unsigned char const ,std::map<unsigned long,std::vector<tagQUESTTEMP *,std::allocator<tagQUESTTEMP *> > *,std::less<unsigned long>,std::allocator<std::pair<unsigned long const ,std::vector<tagQUESTTEMP *,std::allocator<tagQUESTTEMP *> > *> > > *> >,0> >::iterator::iterator
; Function compile flags: /Ogty
;	COMDAT ??0iterator@?$_Tree@V?$_Tmap_traits@EPAV?$map@KPAV?$vector@PAUtagQUESTTEMP@@V?$allocator@PAUtagQUESTTEMP@@@std@@@std@@U?$less@K@2@V?$allocator@U?$pair@$$CBKPAV?$vector@PAUtagQUESTTEMP@@V?$allocator@PAUtagQUESTTEMP@@@std@@@std@@@std@@@2@@std@@U?$less@E@2@V?$allocator@U?$pair@$$CBEPAV?$map@KPAV?$vector@PAUtagQUESTTEMP@@V?$allocator@PAUtagQUESTTEMP@@@std@@@std@@U?$less@K@2@V?$allocator@U?$pair@$$CBKPAV?$vector@PAUtagQUESTTEMP@@V?$allocator@PAUtagQUESTTEMP@@@std@@@std@@@std@@@2@@std@@@std@@@2@$0A@@std@@@std@@QAE@PAU_Node@?$_Tree_nod@V?$_Tmap_traits@EPAV?$map@KPAV?$vector@PAUtagQUESTTEMP@@V?$allocator@PAUtagQUESTTEMP@@@std@@@std@@U?$less@K@2@V?$allocator@U?$pair@$$CBKPAV?$vector@PAUtagQUESTTEMP@@V?$allocator@PAUtagQUESTTEMP@@@std@@@std@@@std@@@2@@std@@U?$less@E@2@V?$allocator@U?$pair@$$CBEPAV?$map@KPAV?$vector@PAUtagQUESTTEMP@@V?$allocator@PAUtagQUESTTEMP@@@std@@@std@@U?$less@K@2@V?$allocator@U?$pair@$$CBKPAV?$vector@PAUtagQUESTTEMP@@V?$allocator@PAUtagQUESTTEMP@@@std@@@std@@@std@@@2@@std@@@std@@@2@$0A@@std@@@2@@Z
_TEXT	SEGMENT
__Pnode$ = 8						; size = 4
??0iterator@?$_Tree@V?$_Tmap_traits@EPAV?$map@KPAV?$vector@PAUtagQUESTTEMP@@V?$allocator@PAUtagQUESTTEMP@@@std@@@std@@U?$less@K@2@V?$allocator@U?$pair@$$CBKPAV?$vector@PAUtagQUESTTEMP@@V?$allocator@PAUtagQUESTTEMP@@@std@@@std@@@std@@@2@@std@@U?$less@E@2@V?$allocator@U?$pair@$$CBEPAV?$map@KPAV?$vector@PAUtagQUESTTEMP@@V?$allocator@PAUtagQUESTTEMP@@@std@@@std@@U?$less@K@2@V?$allocator@U?$pair@$$CBKPAV?$vector@PAUtagQUESTTEMP@@V?$allocator@PAUtagQUESTTEMP@@@std@@@std@@@std@@@2@@std@@@std@@@2@$0A@@std@@@std@@QAE@PAU_Node@?$_Tree_nod@V?$_Tmap_traits@EPAV?$map@KPAV?$vector@PAUtagQUESTTEMP@@V?$allocator@PAUtagQUESTTEMP@@@std@@@std@@U?$less@K@2@V?$allocator@U?$pair@$$CBKPAV?$vector@PAUtagQUESTTEMP@@V?$allocator@PAUtagQUESTTEMP@@@std@@@std@@@std@@@2@@std@@U?$less@E@2@V?$allocator@U?$pair@$$CBEPAV?$map@KPAV?$vector@PAUtagQUESTTEMP@@V?$allocator@PAUtagQUESTTEMP@@@std@@@std@@U?$less@K@2@V?$allocator@U?$pair@$$CBKPAV?$vector@PAUtagQUESTTEMP@@V?$allocator@PAUtagQUESTTEMP@@@std@@@std@@@std@@@2@@std@@@std@@@2@$0A@@std@@@2@@Z PROC NEAR ; std::_Tree<std::_Tmap_traits<unsigned char,std::map<unsigned long,std::vector<tagQUESTTEMP *,std::allocator<tagQUESTTEMP *> > *,std::less<unsigned long>,std::allocator<std::pair<unsigned long const ,std::vector<tagQUESTTEMP *,std::allocator<tagQUESTTEMP *> > *> > > *,std::less<unsigned char>,std::allocator<std::pair<unsigned char const ,std::map<unsigned long,std::vector<tagQUESTTEMP *,std::allocator<tagQUESTTEMP *> > *,std::less<unsigned long>,std::allocator<std::pair<unsigned long const ,std::vector<tagQUESTTEMP *,std::allocator<tagQUESTTEMP *> > *> > > *> >,0> >::iterator::iterator, COMDAT
; _this$ = ecx

; 312  : 			{	// construct with node pointer _Pnode

  00000	8b c1		 mov	 eax, ecx
  00002	8b 4c 24 04	 mov	 ecx, DWORD PTR __Pnode$[esp-4]
  00006	89 08		 mov	 DWORD PTR [eax], ecx

; 313  : 			}

  00008	c2 04 00	 ret	 4
??0iterator@?$_Tree@V?$_Tmap_traits@EPAV?$map@KPAV?$vector@PAUtagQUESTTEMP@@V?$allocator@PAUtagQUESTTEMP@@@std@@@std@@U?$less@K@2@V?$allocator@U?$pair@$$CBKPAV?$vector@PAUtagQUESTTEMP@@V?$allocator@PAUtagQUESTTEMP@@@std@@@std@@@std@@@2@@std@@U?$less@E@2@V?$allocator@U?$pair@$$CBEPAV?$map@KPAV?$vector@PAUtagQUESTTEMP@@V?$allocator@PAUtagQUESTTEMP@@@std@@@std@@U?$less@K@2@V?$allocator@U?$pair@$$CBKPAV?$vector@PAUtagQUESTTEMP@@V?$allocator@PAUtagQUESTTEMP@@@std@@@std@@@std@@@2@@std@@@std@@@2@$0A@@std@@@std@@QAE@PAU_Node@?$_Tree_nod@V?$_Tmap_traits@EPAV?$map@KPAV?$vector@PAUtagQUESTTEMP@@V?$allocator@PAUtagQUESTTEMP@@@std@@@std@@U?$less@K@2@V?$allocator@U?$pair@$$CBKPAV?$vector@PAUtagQUESTTEMP@@V?$allocator@PAUtagQUESTTEMP@@@std@@@std@@@std@@@2@@std@@U?$less@E@2@V?$allocator@U?$pair@$$CBEPAV?$map@KPAV?$vector@PAUtagQUESTTEMP@@V?$allocator@PAUtagQUESTTEMP@@@std@@@std@@U?$less@K@2@V?$allocator@U?$pair@$$CBKPAV?$vector@PAUtagQUESTTEMP@@V?$allocator@PAUtagQUESTTEMP@@@std@@@std@@@std@@@2@@std@@@std@@@2@$0A@@std@@@2@@Z ENDP ; std::_Tree<std::_Tmap_traits<unsigned char,std::map<unsigned long,std::vector<tagQUESTTEMP *,std::allocator<tagQUESTTEMP *> > *,std::less<unsigned long>,std::allocator<std::pair<unsigned long const ,std::vector<tagQUESTTEMP *,std::allocator<tagQUESTTEMP *> > *> > > *,std::less<unsigned char>,std::allocator<std::pair<unsigned char const ,std::map<unsigned long,std::vector<tagQUESTTEMP *,std::allocator<tagQUESTTEMP *> > *,std::less<unsigned long>,std::allocator<std::pair<unsigned long const ,std::vector<tagQUESTTEMP *,std::allocator<tagQUESTTEMP *> > *> > > *> >,0> >::iterator::iterator
_TEXT	ENDS
PUBLIC	??Dconst_iterator@?$_Tree@V?$_Tmap_traits@EPAV?$map@KPAV?$vector@PAUtagQUESTTEMP@@V?$allocator@PAUtagQUESTTEMP@@@std@@@std@@U?$less@K@2@V?$allocator@U?$pair@$$CBKPAV?$vector@PAUtagQUESTTEMP@@V?$allocator@PAUtagQUESTTEMP@@@std@@@std@@@std@@@2@@std@@U?$less@E@2@V?$allocator@U?$pair@$$CBEPAV?$map@KPAV?$vector@PAUtagQUESTTEMP@@V?$allocator@PAUtagQUESTTEMP@@@std@@@std@@U?$less@K@2@V?$allocator@U?$pair@$$CBKPAV?$vector@PAUtagQUESTTEMP@@V?$allocator@PAUtagQUESTTEMP@@@std@@@std@@@std@@@2@@std@@@std@@@2@$0A@@std@@@std@@QBEABU?$pair@$$CBEPAV?$map@KPAV?$vector@PAUtagQUESTTEMP@@V?$allocator@PAUtagQUESTTEMP@@@std@@@std@@U?$less@K@2@V?$allocator@U?$pair@$$CBKPAV?$vector@PAUtagQUESTTEMP@@V?$allocator@PAUtagQUESTTEMP@@@std@@@std@@@std@@@2@@std@@@2@XZ ; std::_Tree<std::_Tmap_traits<unsigned char,std::map<unsigned long,std::vector<tagQUESTTEMP *,std::allocator<tagQUESTTEMP *> > *,std::less<unsigned long>,std::allocator<std::pair<unsigned long const ,std::vector<tagQUESTTEMP *,std::allocator<tagQUESTTEMP *> > *> > > *,std::less<unsigned char>,std::allocator<std::pair<unsigned char const ,std::map<unsigned long,std::vector<tagQUESTTEMP *,std::allocator<tagQUESTTEMP *> > *,std::less<unsigned long>,std::allocator<std::pair<unsigned long const ,std::vector<tagQUESTTEMP *,std::allocator<tagQUESTTEMP *> > *> > > *> >,0> >::const_iterator::operator*
; Function compile flags: /Ogty
;	COMDAT ??Dconst_iterator@?$_Tree@V?$_Tmap_traits@EPAV?$map@KPAV?$vector@PAUtagQUESTTEMP@@V?$allocator@PAUtagQUESTTEMP@@@std@@@std@@U?$less@K@2@V?$allocator@U?$pair@$$CBKPAV?$vector@PAUtagQUESTTEMP@@V?$allocator@PAUtagQUESTTEMP@@@std@@@std@@@std@@@2@@std@@U?$less@E@2@V?$allocator@U?$pair@$$CBEPAV?$map@KPAV?$vector@PAUtagQUESTTEMP@@V?$allocator@PAUtagQUESTTEMP@@@std@@@std@@U?$less@K@2@V?$allocator@U?$pair@$$CBKPAV?$vector@PAUtagQUESTTEMP@@V?$allocator@PAUtagQUESTTEMP@@@std@@@std@@@std@@@2@@std@@@std@@@2@$0A@@std@@@std@@QBEABU?$pair@$$CBEPAV?$map@KPAV?$vector@PAUtagQUESTTEMP@@V?$allocator@PAUtagQUESTTEMP@@@std@@@std@@U?$less@K@2@V?$allocator@U?$pair@$$CBKPAV?$vector@PAUtagQUESTTEMP@@V?$allocator@PAUtagQUESTTEMP@@@std@@@std@@@std@@@2@@std@@@2@XZ
_TEXT	SEGMENT
??Dconst_iterator@?$_Tree@V?$_Tmap_traits@EPAV?$map@KPAV?$vector@PAUtagQUESTTEMP@@V?$allocator@PAUtagQUESTTEMP@@@std@@@std@@U?$less@K@2@V?$allocator@U?$pair@$$CBKPAV?$vector@PAUtagQUESTTEMP@@V?$allocator@PAUtagQUESTTEMP@@@std@@@std@@@std@@@2@@std@@U?$less@E@2@V?$allocator@U?$pair@$$CBEPAV?$map@KPAV?$vector@PAUtagQUESTTEMP@@V?$allocator@PAUtagQUESTTEMP@@@std@@@std@@U?$less@K@2@V?$allocator@U?$pair@$$CBKPAV?$vector@PAUtagQUESTTEMP@@V?$allocator@PAUtagQUESTTEMP@@@std@@@std@@@std@@@2@@std@@@std@@@2@$0A@@std@@@std@@QBEABU?$pair@$$CBEPAV?$map@KPAV?$vector@PAUtagQUESTTEMP@@V?$allocator@PAUtagQUESTTEMP@@@std@@@std@@U?$less@K@2@V?$allocator@U?$pair@$$CBKPAV?$vector@PAUtagQUESTTEMP@@V?$allocator@PAUtagQUESTTEMP@@@std@@@std@@@std@@@2@@std@@@2@XZ PROC NEAR ; std::_Tree<std::_Tmap_traits<unsigned char,std::map<unsigned long,std::vector<tagQUESTTEMP *,std::allocator<tagQUESTTEMP *> > *,std::less<unsigned long>,std::allocator<std::pair<unsigned long const ,std::vector<tagQUESTTEMP *,std::allocator<tagQUESTTEMP *> > *> > > *,std::less<unsigned char>,std::allocator<std::pair<unsigned char const ,std::map<unsigned long,std::vector<tagQUESTTEMP *,std::allocator<tagQUESTTEMP *> > *,std::less<unsigned long>,std::allocator<std::pair<unsigned long const ,std::vector<tagQUESTTEMP *,std::allocator<tagQUESTTEMP *> > *> > > *> >,0> >::const_iterator::operator*, COMDAT
; _this$ = ecx

; 205  : 			return (_Myval(_Ptr));

  00000	8b 01		 mov	 eax, DWORD PTR [ecx]
  00002	83 c0 0c	 add	 eax, 12			; 0000000cH

; 206  : 			}

  00005	c3		 ret	 0
??Dconst_iterator@?$_Tree@V?$_Tmap_traits@EPAV?$map@KPAV?$vector@PAUtagQUESTTEMP@@V?$allocator@PAUtagQUESTTEMP@@@std@@@std@@U?$less@K@2@V?$allocator@U?$pair@$$CBKPAV?$vector@PAUtagQUESTTEMP@@V?$allocator@PAUtagQUESTTEMP@@@std@@@std@@@std@@@2@@std@@U?$less@E@2@V?$allocator@U?$pair@$$CBEPAV?$map@KPAV?$vector@PAUtagQUESTTEMP@@V?$allocator@PAUtagQUESTTEMP@@@std@@@std@@U?$less@K@2@V?$allocator@U?$pair@$$CBKPAV?$vector@PAUtagQUESTTEMP@@V?$allocator@PAUtagQUESTTEMP@@@std@@@std@@@std@@@2@@std@@@std@@@2@$0A@@std@@@std@@QBEABU?$pair@$$CBEPAV?$map@KPAV?$vector@PAUtagQUESTTEMP@@V?$allocator@PAUtagQUESTTEMP@@@std@@@std@@U?$less@K@2@V?$allocator@U?$pair@$$CBKPAV?$vector@PAUtagQUESTTEMP@@V?$allocator@PAUtagQUESTTEMP@@@std@@@std@@@std@@@2@@std@@@2@XZ ENDP ; std::_Tree<std::_Tmap_traits<unsigned char,std::map<unsigned long,std::vector<tagQUESTTEMP *,std::allocator<tagQUESTTEMP *> > *,std::less<unsigned long>,std::allocator<std::pair<unsigned long const ,std::vector<tagQUESTTEMP *,std::allocator<tagQUESTTEMP *> > *> > > *,std::less<unsigned char>,std::allocator<std::pair<unsigned char const ,std::map<unsigned long,std::vector<tagQUESTTEMP *,std::allocator<tagQUESTTEMP *> > *,std::less<unsigned long>,std::allocator<std::pair<unsigned long const ,std::vector<tagQUESTTEMP *,std::allocator<tagQUESTTEMP *> > *> > > *> >,0> >::const_iterator::operator*
_TEXT	ENDS
PUBLIC	?_Key@?$_Tree@V?$_Tmap_traits@KPAV?$vector@PAUtagQUESTTEMP@@V?$allocator@PAUtagQUESTTEMP@@@std@@@std@@U?$less@K@2@V?$allocator@U?$pair@$$CBKPAV?$vector@PAUtagQUESTTEMP@@V?$allocator@PAUtagQUESTTEMP@@@std@@@std@@@std@@@2@$0A@@std@@@std@@KAABKPAU_Node@?$_Tree_nod@V?$_Tmap_traits@KPAV?$vector@PAUtagQUESTTEMP@@V?$allocator@PAUtagQUESTTEMP@@@std@@@std@@U?$less@K@2@V?$allocator@U?$pair@$$CBKPAV?$vector@PAUtagQUESTTEMP@@V?$allocator@PAUtagQUESTTEMP@@@std@@@std@@@std@@@2@$0A@@std@@@2@@Z ; std::_Tree<std::_Tmap_traits<unsigned long,std::vector<tagQUESTTEMP *,std::allocator<tagQUESTTEMP *> > *,std::less<unsigned long>,std::allocator<std::pair<unsigned long const ,std::vector<tagQUESTTEMP *,std::allocator<tagQUESTTEMP *> > *> >,0> >::_Key
; Function compile flags: /Ogty
