; Listing generated by Microsoft (R) Optimizing Compiler Version 13.10.3077 

	TITLE	.\SSSender.cpp
	.386P
include listing.inc
if @Version gt 510
.model FLAT
else
_TEXT	SEGMENT PARA USE32 PUBLIC 'CODE'
_TEXT	ENDS
_DATA	SEGMENT DWORD USE32 PUBLIC 'DATA'
_DATA	ENDS
CONST	SEGMENT DWORD USE32 PUBLIC 'CONST'
CONST	ENDS
_BSS	SEGMENT DWORD USE32 PUBLIC 'BSS'
_BSS	ENDS
$$SYMBOLS	SEGMENT BYTE USE32 'DEBSYM'
$$SYMBOLS	ENDS
$$TYPES	SEGMENT BYTE USE32 'DEBTYP'
$$TYPES	ENDS
_TLS	SEGMENT DWORD USE32 PUBLIC 'TLS'
_TLS	ENDS
;	COMDAT ??_C@_1EO@BGAEGJFB@?$AA?$HL?$AA5?$AA1?$AAA?$AAB?$AA7?$AAA?$AA3?$AA0?$AA?9?$AA9?$AA9?$AA5?$AAA?$AA?9?$AA4?$AA4?$AAA?$AAB?$AA?9@
CONST	SEGMENT DWORD USE32 PUBLIC 'CONST'
CONST	ENDS
;	COMDAT ??_C@_0CH@JJOAEHDK@?$HL51AB7A30?9995A?944AB?9B869?97D79E92@
CONST	SEGMENT DWORD USE32 PUBLIC 'CONST'
CONST	ENDS
;	COMDAT ??_C@_0N@OGFEPDED@LocalService?$AA@
CONST	SEGMENT DWORD USE32 PUBLIC 'CONST'
CONST	ENDS
;	COMDAT ??_C@_02CCDHMLDD@?9?1?$AA@
CONST	SEGMENT DWORD USE32 PUBLIC 'CONST'
CONST	ENDS
;	COMDAT ??_C@_0M@MIGBKCMN@UnregServer?$AA@
CONST	SEGMENT DWORD USE32 PUBLIC 'CONST'
CONST	ENDS
;	COMDAT ??_C@_09LJBJJPCG@RegServer?$AA@
CONST	SEGMENT DWORD USE32 PUBLIC 'CONST'
CONST	ENDS
;	COMDAT ??_C@_07LMLHFMEG@Service?$AA@
CONST	SEGMENT DWORD USE32 PUBLIC 'CONST'
CONST	ENDS
;	COMDAT ??_C@_07PNHNHBAB@Install?$AA@
CONST	SEGMENT DWORD USE32 PUBLIC 'CONST'
CONST	ENDS
;	COMDAT ??_C@_09LAEJNBCE@UnInstall?$AA@
CONST	SEGMENT DWORD USE32 PUBLIC 'CONST'
CONST	ENDS
;	COMDAT ??_C@_04FABLJDN@Name?$AA@
CONST	SEGMENT DWORD USE32 PUBLIC 'CONST'
CONST	ENDS
;	COMDAT ??_C@_01CLKCMJKC@?5?$AA@
CONST	SEGMENT DWORD USE32 PUBLIC 'CONST'
CONST	ENDS
;	COMDAT ??_C@_0M@DBFDLFJJ@?$CFs?5?9Name?5?$CFs?$AA@
CONST	SEGMENT DWORD USE32 PUBLIC 'CONST'
CONST	ENDS
;	COMDAT ??_C@_0BP@GECJKCAK@Could?5not?5open?5Service?5Manager?$AA@
CONST	SEGMENT DWORD USE32 PUBLIC 'CONST'
CONST	ENDS
;	COMDAT ??_C@_06HCEGMCNE@RPCSS?$AA?$AA@
CONST	SEGMENT DWORD USE32 PUBLIC 'CONST'
CONST	ENDS
;	COMDAT ??_C@_0BI@HDJFCBEP@Could?5not?5start?5service?$AA@
CONST	SEGMENT DWORD USE32 PUBLIC 'CONST'
CONST	ENDS
;	COMDAT ??_C@_0BD@NGMHGENG@Char?5Save?5Error?5?$CFd?$AA@
CONST	SEGMENT DWORD USE32 PUBLIC 'CONST'
CONST	ENDS
;	COMDAT ??_C@_0BH@JMOCNDDL@Could?5not?5open?5service?$AA@
CONST	SEGMENT DWORD USE32 PUBLIC 'CONST'
CONST	ENDS
;	COMDAT ??_C@_0BH@GKJBBOLK@Could?5not?5stop?5service?$AA@
CONST	SEGMENT DWORD USE32 PUBLIC 'CONST'
CONST	ENDS
;	COMDAT ??_C@_0BJ@NMBIIKKI@Could?5not?5delete?5service?$AA@
CONST	SEGMENT DWORD USE32 PUBLIC 'CONST'
CONST	ENDS
text$yc	SEGMENT PARA USE32 PUBLIC 'CODE'
text$yc	ENDS
CRT$XCA	SEGMENT DWORD USE32 PUBLIC 'DATA'
CRT$XCA	ENDS
CRT$XCU	SEGMENT DWORD USE32 PUBLIC 'DATA'
CRT$XCU	ENDS
CRT$XCL	SEGMENT DWORD USE32 PUBLIC 'DATA'
CRT$XCL	ENDS
CRT$XCC	SEGMENT DWORD USE32 PUBLIC 'DATA'
CRT$XCC	ENDS
CRT$XCZ	SEGMENT DWORD USE32 PUBLIC 'DATA'
CRT$XCZ	ENDS
text$yd	SEGMENT PARA USE32 PUBLIC 'CODE'
text$yd	ENDS
ATL$__m	SEGMENT DWORD USE32 PUBLIC ''
ATL$__m	ENDS
ATL$__z	SEGMENT DWORD USE32 PUBLIC ''
ATL$__z	ENDS
ATL$__a	SEGMENT DWORD USE32 PUBLIC ''
ATL$__a	ENDS
xdata$x	SEGMENT DWORD USE32 PUBLIC 'CONST'
xdata$x	ENDS
;	COMDAT ?GetAppId@CTMapSvrModule@@SAPBGXZ
_TEXT	SEGMENT PARA USE32 PUBLIC 'CODE'
_TEXT	ENDS
;	COMDAT ?GetAppIdT@CTMapSvrModule@@SAPADXZ
_TEXT	SEGMENT PARA USE32 PUBLIC 'CODE'
_TEXT	ENDS
;	COMDAT ?UpdateRegistryAppId@CTMapSvrModule@@SGJH@Z
_TEXT	SEGMENT PARA USE32 PUBLIC 'CODE'
_TEXT	ENDS
;	COMDAT ?RegisterAppId@CTMapSvrModule@@QAEJ_N@Z
_TEXT	SEGMENT PARA USE32 PUBLIC 'CODE'
_TEXT	ENDS
;	COMDAT ?Install@CTMapSvrModule@@QAEHXZ
_TEXT	SEGMENT PARA USE32 PUBLIC 'CODE'
_TEXT	ENDS
;	COMDAT ?SendSM_AICMD_REQ@CTMapSvrModule@@QAEXKKKKEKKEGG@Z
_TEXT	SEGMENT PARA USE32 PUBLIC 'CODE'
_TEXT	ENDS
;	COMDAT ?SendSM_AICMD_ACK@CTMapSvrModule@@QAEXKKKKEKEGG@Z
_TEXT	SEGMENT PARA USE32 PUBLIC 'CODE'
_TEXT	ENDS
;	COMDAT ?SendSM_SWITCHSTART_REQ@CTMapSvrModule@@QAEXEGGKK@Z
_TEXT	SEGMENT PARA USE32 PUBLIC 'CODE'
_TEXT	ENDS
;	COMDAT ?SendSM_POSTBILL_REQ@CTMapSvrModule@@QAEXKK_J@Z
_TEXT	SEGMENT PARA USE32 PUBLIC 'CODE'
_TEXT	ENDS
;	COMDAT ?SendSM_POSTBILLERASE_REQ@CTMapSvrModule@@QAEXKK@Z
_TEXT	SEGMENT PARA USE32 PUBLIC 'CODE'
_TEXT	ENDS
;	COMDAT ?SendSM_DUELSTART_REQ@CTMapSvrModule@@QAEXKKV?$CStringT@DV?$StrTraitATL@DV?$ChTraitsCRT@D@ATL@@@ATL@@@ATL@@K0@Z
_TEXT	SEGMENT PARA USE32 PUBLIC 'CODE'
_TEXT	ENDS
;	COMDAT ?SendSM_DUELEND_REQ@CTMapSvrModule@@QAEXKK@Z
_TEXT	SEGMENT PARA USE32 PUBLIC 'CODE'
_TEXT	ENDS
;	COMDAT ?SendSM_RESETHOST_REQ@CTMapSvrModule@@QAEXEGGK@Z
_TEXT	SEGMENT PARA USE32 PUBLIC 'CODE'
_TEXT	ENDS
;	COMDAT ?SendSM_GODBALLCMD_REQ@CTMapSvrModule@@QAEXGEEGGKKV?$CStringT@DV?$StrTraitATL@DV?$ChTraitsCRT@D@ATL@@@ATL@@@ATL@@@Z
_TEXT	SEGMENT PARA USE32 PUBLIC 'CODE'
_TEXT	ENDS
;	COMDAT ?SendSM_GODBALLCMD_ACK@CTMapSvrModule@@QAEXGEKEGGV?$CStringT@DV?$StrTraitATL@DV?$ChTraitsCRT@D@ATL@@@ATL@@@ATL@@@Z
_TEXT	SEGMENT PARA USE32 PUBLIC 'CODE'
_TEXT	ENDS
;	COMDAT ?SendSM_AUCTIONCMD_REQ@CTMapSvrModule@@QAEXGK_J@Z
_TEXT	SEGMENT PARA USE32 PUBLIC 'CODE'
_TEXT	ENDS
;	COMDAT ?SendMW_CONNECT_ACK@CTMapSvrModule@@QAEXXZ
_TEXT	SEGMENT PARA USE32 PUBLIC 'CODE'
_TEXT	ENDS
;	COMDAT ?SendMW_CLOSECHAR_ACK@CTMapSvrModule@@QAEXKK@Z
_TEXT	SEGMENT PARA USE32 PUBLIC 'CODE'
_TEXT	ENDS
;	COMDAT ?SendMW_ADDCHAR_ACK@CTMapSvrModule@@QAEXKKKGK@Z
_TEXT	SEGMENT PARA USE32 PUBLIC 'CODE'
_TEXT	ENDS
;	COMDAT ?SendMW_HEROSELECT_ACK@CTMapSvrModule@@QAEXGV?$CStringT@DV?$StrTraitATL@DV?$ChTraitsCRT@D@ATL@@@ATL@@@ATL@@_J@Z
_TEXT	SEGMENT PARA USE32 PUBLIC 'CODE'
_TEXT	ENDS
;	COMDAT ?SendDM_ACTEND_REQ@CTMapSvrModule@@QAEXK@Z
_TEXT	SEGMENT PARA USE32 PUBLIC 'CODE'
_TEXT	ENDS
;	COMDAT ?SendDM_EVENTQUARTER_REQ@CTMapSvrModule@@QAEXV?$CStringT@DV?$StrTraitATL@DV?$ChTraitsCRT@D@ATL@@@ATL@@@ATL@@EEE@Z
_TEXT	SEGMENT PARA USE32 PUBLIC 'CODE'
_TEXT	ENDS
;	COMDAT ?SendDM_RECALLMONDEL_REQ@CTMapSvrModule@@QAEXKK@Z
_TEXT	SEGMENT PARA USE32 PUBLIC 'CODE'
_TEXT	ENDS
;	COMDAT ?SendDM_CREATERECALLMON_REQ@CTMapSvrModule@@QAEXPAVCTPlayer@@GKGV?$CStringT@DV?$StrTraitATL@DV?$ChTraitsCRT@D@ATL@@@ATL@@@ATL@@EEEEEEKKKKEEMMMGKV?$vector@GV?$allocator@G@std@@@std@@@Z
_TEXT	SEGMENT PARA USE32 PUBLIC 'CODE'
_TEXT	ENDS
;	COMDAT ?SendDM_CLEARCURRENTUSER_REQ@CTMapSvrModule@@QAEXK@Z
_TEXT	SEGMENT PARA USE32 PUBLIC 'CODE'
_TEXT	ENDS
;	COMDAT ?SendDM_ENTERMAPSVR_REQ@CTMapSvrModule@@QAEXEKKKKGE@Z
_TEXT	SEGMENT PARA USE32 PUBLIC 'CODE'
_TEXT	ENDS
;	COMDAT ?SendDM_TELEPORT_REQ@CTMapSvrModule@@QAEXKKEGMMME@Z
_TEXT	SEGMENT PARA USE32 PUBLIC 'CODE'
_TEXT	ENDS
;	COMDAT ?SendMW_TELEPORT_ACK@CTMapSvrModule@@QAEXKKE@Z
_TEXT	SEGMENT PARA USE32 PUBLIC 'CODE'
_TEXT	ENDS
;	COMDAT ?SendDM_SMSSEND_REQ@CTMapSvrModule@@QAEXKKEEGEKV?$CStringT@DV?$StrTraitATL@DV?$ChTraitsCRT@D@ATL@@@ATL@@@ATL@@0@Z
_TEXT	SEGMENT PARA USE32 PUBLIC 'CODE'
_TEXT	ENDS
;	COMDAT ?SendDM_ENTERMAPSVR_ACK@CTMapSvrModule@@QAEXKKEE@Z
_TEXT	SEGMENT PARA USE32 PUBLIC 'CODE'
_TEXT	ENDS
;	COMDAT ?SendMW_CHARDATA_ACK@CTMapSvrModule@@QAEXPAVCTPlayer@@@Z
_TEXT	SEGMENT PARA USE32 PUBLIC 'CODE'
_TEXT	ENDS
;	COMDAT ?SendMW_CREATERECALLMON_ACK@CTMapSvrModule@@QAEXKKKGKGV?$CStringT@DV?$StrTraitATL@DV?$ChTraitsCRT@D@ATL@@@ATL@@@ATL@@KEEEEEEKKKKEEMMMGV?$vector@GV?$allocator@G@std@@@std@@@Z
_TEXT	SEGMENT PARA USE32 PUBLIC 'CODE'
_TEXT	ENDS
;	COMDAT ?SendMW_RECALLMONDEL_ACK@CTMapSvrModule@@QAEXKKK@Z
_TEXT	SEGMENT PARA USE32 PUBLIC 'CODE'
_TEXT	ENDS
;	COMDAT ?SendMW_ENTERCHAR_ACK@CTMapSvrModule@@QAEXKK@Z
_TEXT	SEGMENT PARA USE32 PUBLIC 'CODE'
_TEXT	ENDS
;	COMDAT ?SendMW_CHECKMAIN_ACK@CTMapSvrModule@@QAEXKK@Z
_TEXT	SEGMENT PARA USE32 PUBLIC 'CODE'
_TEXT	ENDS
;	COMDAT ?SendMW_ENTERSVR_ACK@CTMapSvrModule@@QAEXKKV?$CStringT@DV?$StrTraitATL@DV?$ChTraitsCRT@D@ATL@@@ATL@@@ATL@@EEEEEEEEEEKEGMMMEEEK@Z
_TEXT	SEGMENT PARA USE32 PUBLIC 'CODE'
_TEXT	ENDS
;	COMDAT ?SendDM_SAVECHARPOSITION_REQ@CTMapSvrModule@@QAEXPAVCTPlayer@@G@Z
_TEXT	SEGMENT PARA USE32 PUBLIC 'CODE'
_TEXT	ENDS
;	COMDAT ?SendDM_SAVECHAR_REQ@CTMapSvrModule@@QAEXPAVCTPlayer@@G@Z
_TEXT	SEGMENT PARA USE32 PUBLIC 'CODE'
_TEXT	ENDS
;	COMDAT ?SendDM_SAVEITEM_REQ@CTMapSvrModule@@QAEXPAVCTPlayer@@@Z
_TEXT	SEGMENT PARA USE32 PUBLIC 'CODE'
_TEXT	ENDS
;	COMDAT ?SendDM_LOGOUT_REQ@CTMapSvrModule@@QAEXPAVCTPlayer@@G@Z
_TEXT	SEGMENT PARA USE32 PUBLIC 'CODE'
_TEXT	ENDS
;	COMDAT ?SendDM_LOADCHAR_REQ@CTMapSvrModule@@QAEXKKK@Z
_TEXT	SEGMENT PARA USE32 PUBLIC 'CODE'
_TEXT	ENDS
;	COMDAT ?SendDM_LOADPOSTMESSAGE_REQ@CTMapSvrModule@@QAEXKK@Z
_TEXT	SEGMENT PARA USE32 PUBLIC 'CODE'
_TEXT	ENDS
;	COMDAT ?SendDM_LOGSKILL_REQ@CTMapSvrModule@@QAEXKKKKGE@Z
_TEXT	SEGMENT PARA USE32 PUBLIC 'CODE'
_TEXT	ENDS
;	COMDAT ?SendDM_POSTRECV_REQ@CTMapSvrModule@@QAEXKKV?$CStringT@DV?$StrTraitATL@DV?$ChTraitsCRT@D@ATL@@@ATL@@@ATL@@000EKKKPAVCTItem@@@Z
_TEXT	SEGMENT PARA USE32 PUBLIC 'CODE'
_TEXT	ENDS
;	COMDAT ?SendDM_POSTRECVFROMSVR_REQ@CTMapSvrModule@@QAEXKV?$CStringT@DV?$StrTraitATL@DV?$ChTraitsCRT@D@ATL@@@ATL@@@ATL@@00EKKKPAV?$vector@PAVCTItem@@V?$allocator@PAVCTItem@@@std@@@std@@@Z
_TEXT	SEGMENT PARA USE32 PUBLIC 'CODE'
_TEXT	ENDS
;	COMDAT ?SendDM_POSTCANSEND_REQ@CTMapSvrModule@@QAEXKV?$CStringT@DV?$StrTraitATL@DV?$ChTraitsCRT@D@ATL@@@ATL@@@ATL@@000EKKKEE@Z
_TEXT	SEGMENT PARA USE32 PUBLIC 'CODE'
_TEXT	ENDS
;	COMDAT ?SendDM_POSTDEL_REQ@CTMapSvrModule@@QAEXKKK@Z
_TEXT	SEGMENT PARA USE32 PUBLIC 'CODE'
_TEXT	ENDS
;	COMDAT ?SendDM_POSTGETITEM_REQ@CTMapSvrModule@@QAEXKK@Z
_TEXT	SEGMENT PARA USE32 PUBLIC 'CODE'
_TEXT	ENDS
;	COMDAT ?SendMW_POSTRECV_ACK@CTMapSvrModule@@QAEXKV?$CStringT@DV?$StrTraitATL@DV?$ChTraitsCRT@D@ATL@@@ATL@@@ATL@@00E@Z
_TEXT	SEGMENT PARA USE32 PUBLIC 'CODE'
_TEXT	ENDS
;	COMDAT ?SendDM_LOCALOCCUPY_REQ@CTMapSvrModule@@QAEXGEKK@Z
_TEXT	SEGMENT PARA USE32 PUBLIC 'CODE'
_TEXT	ENDS
;	COMDAT ?SendDM_CASTLEOCCUPY_REQ@CTMapSvrModule@@QAEXGEKK@Z
_TEXT	SEGMENT PARA USE32 PUBLIC 'CODE'
_TEXT	ENDS
;	COMDAT ?SendDM_MISSIONOCCUPY_REQ@CTMapSvrModule@@QAEXGEEK@Z
_TEXT	SEGMENT PARA USE32 PUBLIC 'CODE'
_TEXT	ENDS
;	COMDAT ?SendMW_CONLIST_ACK@CTMapSvrModule@@QAEXKKPAV?$map@EEU?$less@E@std@@V?$allocator@U?$pair@$$CBEE@std@@@2@@std@@@Z
_TEXT	SEGMENT PARA USE32 PUBLIC 'CODE'
_TEXT	ENDS
;	COMDAT ?SendMW_MAPSVRLIST_ACK@CTMapSvrModule@@QAEXKKPAV?$map@EEU?$less@E@std@@V?$allocator@U?$pair@$$CBEE@std@@@2@@std@@@Z
_TEXT	SEGMENT PARA USE32 PUBLIC 'CODE'
_TEXT	ENDS
;	COMDAT ?SendMW_CHECKCONNECT_ACK@CTMapSvrModule@@QAEXKKEGMMMPAV?$map@EEU?$less@E@std@@V?$allocator@U?$pair@$$CBEE@std@@@2@@std@@@Z
_TEXT	SEGMENT PARA USE32 PUBLIC 'CODE'
_TEXT	ENDS
;	COMDAT ?SendMW_RELEASEMAIN_ACK@CTMapSvrModule@@QAEXEPAVCTPlayer@@@Z
_TEXT	SEGMENT PARA USE32 PUBLIC 'CODE'
_TEXT	ENDS
;	COMDAT ?SendMW_CHGPARTYCHIEF_ACK@CTMapSvrModule@@QAEXKKK@Z
_TEXT	SEGMENT PARA USE32 PUBLIC 'CODE'
_TEXT	ENDS
;	COMDAT ?SendMW_CHGPARTYTYPE_ACK@CTMapSvrModule@@QAEXKKE@Z
_TEXT	SEGMENT PARA USE32 PUBLIC 'CODE'
_TEXT	ENDS
;	COMDAT ?SendMW_PARTYADD_ACK@CTMapSvrModule@@QAEXV?$CStringT@DV?$StrTraitATL@DV?$ChTraitsCRT@D@ATL@@@ATL@@@ATL@@0EKKKK@Z
_TEXT	SEGMENT PARA USE32 PUBLIC 'CODE'
_TEXT	ENDS
;	COMDAT ?SendMW_PARTYJOIN_ACK@CTMapSvrModule@@QAEXV?$CStringT@DV?$StrTraitATL@DV?$ChTraitsCRT@D@ATL@@@ATL@@@ATL@@0EEKKKK@Z
_TEXT	SEGMENT PARA USE32 PUBLIC 'CODE'
_TEXT	ENDS
;	COMDAT ?SendMW_PARTYDEL_ACK@CTMapSvrModule@@QAEXGKE@Z
_TEXT	SEGMENT PARA USE32 PUBLIC 'CODE'
_TEXT	ENDS
;	COMDAT ?SendMW_PARTYMANSTAT_ACK@CTMapSvrModule@@QAEXGKEEKKKK@Z
_TEXT	SEGMENT PARA USE32 PUBLIC 'CODE'
_TEXT	ENDS
;	COMDAT ?SendMW_LEVELUP_ACK@CTMapSvrModule@@QAEXKKE@Z
_TEXT	SEGMENT PARA USE32 PUBLIC 'CODE'
_TEXT	ENDS
;	COMDAT ?SendMW_GUILDESTABLISH_ACK@CTMapSvrModule@@QAEXKKV?$CStringT@DV?$StrTraitATL@DV?$ChTraitsCRT@D@ATL@@@ATL@@@ATL@@@Z
_TEXT	SEGMENT PARA USE32 PUBLIC 'CODE'
_TEXT	ENDS
;	COMDAT ?SendMW_GUILDDISORGANIZATION_ACK@CTMapSvrModule@@QAEXKKE@Z
_TEXT	SEGMENT PARA USE32 PUBLIC 'CODE'
_TEXT	ENDS
;	COMDAT ?SendMW_GUILDINVITE_ACK@CTMapSvrModule@@QAEXKKV?$CStringT@DV?$StrTraitATL@DV?$ChTraitsCRT@D@ATL@@@ATL@@@ATL@@@Z
_TEXT	SEGMENT PARA USE32 PUBLIC 'CODE'
_TEXT	ENDS
;	COMDAT ?SendMW_GUILDINVITEANSWER_ACK@CTMapSvrModule@@QAEXKKEK@Z
_TEXT	SEGMENT PARA USE32 PUBLIC 'CODE'
_TEXT	ENDS
;	COMDAT ?SendMW_GUILDLEAVE_ACK@CTMapSvrModule@@QAEXKK@Z
_TEXT	SEGMENT PARA USE32 PUBLIC 'CODE'
_TEXT	ENDS
;	COMDAT ?SendMW_GUILDDUTY_ACK@CTMapSvrModule@@QAEXKKV?$CStringT@DV?$StrTraitATL@DV?$ChTraitsCRT@D@ATL@@@ATL@@@ATL@@E@Z
_TEXT	SEGMENT PARA USE32 PUBLIC 'CODE'
_TEXT	ENDS
;	COMDAT ?SendMW_GUILDPEER_ACK@CTMapSvrModule@@QAEXKKV?$CStringT@DV?$StrTraitATL@DV?$ChTraitsCRT@D@ATL@@@ATL@@@ATL@@E@Z
_TEXT	SEGMENT PARA USE32 PUBLIC 'CODE'
_TEXT	ENDS
;	COMDAT ?SendMW_GUILDKICKOUT_ACK@CTMapSvrModule@@QAEXKKV?$CStringT@DV?$StrTraitATL@DV?$ChTraitsCRT@D@ATL@@@ATL@@@ATL@@@Z
_TEXT	SEGMENT PARA USE32 PUBLIC 'CODE'
_TEXT	ENDS
;	COMDAT ?SendMW_GUILDMEMBERLIST_ACK@CTMapSvrModule@@QAEXKK@Z
_TEXT	SEGMENT PARA USE32 PUBLIC 'CODE'
_TEXT	ENDS
;	COMDAT ?SendMW_GUILDINFO_ACK@CTMapSvrModule@@QAEXKK@Z
_TEXT	SEGMENT PARA USE32 PUBLIC 'CODE'
_TEXT	ENDS
;	COMDAT ?SendMW_GUILDCABINETLIST_ACK@CTMapSvrModule@@QAEXKK@Z
_TEXT	SEGMENT PARA USE32 PUBLIC 'CODE'
_TEXT	ENDS
;	COMDAT ?SendDM_GUILDCABINETPUTIN_REQ@CTMapSvrModule@@QAEXKKKPAVCTItem@@E@Z
_TEXT	SEGMENT PARA USE32 PUBLIC 'CODE'
_TEXT	ENDS
;	COMDAT ?SendDM_GUILDCABINETTAKEOUT_REQ@CTMapSvrModule@@QAEXKKKKEEE@Z
_TEXT	SEGMENT PARA USE32 PUBLIC 'CODE'
_TEXT	ENDS
;	COMDAT ?SendDM_GUILDCABINETROLLBACK_REQ@CTMapSvrModule@@QAEXKKPAVCTItem@@@Z
_TEXT	SEGMENT PARA USE32 PUBLIC 'CODE'
_TEXT	ENDS
;	COMDAT ?SendMW_GUILDCABINETPUTIN_ACK@CTMapSvrModule@@QAEXKKKPAVCTItem@@@Z
_TEXT	SEGMENT PARA USE32 PUBLIC 'CODE'
_TEXT	ENDS
;	COMDAT ?SendMW_GUILDCABINETTAKEOUT_ACK@CTMapSvrModule@@QAEXKKKE@Z
_TEXT	SEGMENT PARA USE32 PUBLIC 'CODE'
_TEXT	ENDS
;	COMDAT ?SendMW_GUILDCONTRIBUTION_ACK@CTMapSvrModule@@QAEXKKKKKKK@Z
_TEXT	SEGMENT PARA USE32 PUBLIC 'CODE'
_TEXT	ENDS
;	COMDAT ?SendMW_GUILDARTICLELIST_ACK@CTMapSvrModule@@QAEXKK@Z
_TEXT	SEGMENT PARA USE32 PUBLIC 'CODE'
_TEXT	ENDS
;	COMDAT ?SendMW_GUILDARTICLEADD_ACK@CTMapSvrModule@@QAEXKKV?$CStringT@DV?$StrTraitATL@DV?$ChTraitsCRT@D@ATL@@@ATL@@@ATL@@0@Z
_TEXT	SEGMENT PARA USE32 PUBLIC 'CODE'
_TEXT	ENDS
;	COMDAT ?SendMW_GUILDARTICLEDEL_ACK@CTMapSvrModule@@QAEXKKK@Z
_TEXT	SEGMENT PARA USE32 PUBLIC 'CODE'
_TEXT	ENDS
;	COMDAT ?SendMW_GUILDARTICLEUPDATE_ACK@CTMapSvrModule@@QAEXKKKV?$CStringT@DV?$StrTraitATL@DV?$ChTraitsCRT@D@ATL@@@ATL@@@ATL@@0@Z
_TEXT	SEGMENT PARA USE32 PUBLIC 'CODE'
_TEXT	ENDS
;	COMDAT ?SendMW_GUILDFAME_ACK@CTMapSvrModule@@QAEXKKKK@Z
_TEXT	SEGMENT PARA USE32 PUBLIC 'CODE'
_TEXT	ENDS
;	COMDAT ?SendMW_GUILDWANTEDADD_ACK@CTMapSvrModule@@QAEXKKKV?$CStringT@DV?$StrTraitATL@DV?$ChTraitsCRT@D@ATL@@@ATL@@@ATL@@0EE@Z
_TEXT	SEGMENT PARA USE32 PUBLIC 'CODE'
_TEXT	ENDS
;	COMDAT ?SendMW_GUILDWANTEDDEL_ACK@CTMapSvrModule@@QAEXKKK@Z
_TEXT	SEGMENT PARA USE32 PUBLIC 'CODE'
_TEXT	ENDS
;	COMDAT ?SendMW_GUILDWANTEDLIST_ACK@CTMapSvrModule@@QAEXKK@Z
_TEXT	SEGMENT PARA USE32 PUBLIC 'CODE'
_TEXT	ENDS
;	COMDAT ?SendMW_GUILDVOLUNTEERING_ACK@CTMapSvrModule@@QAEXKKK@Z
_TEXT	SEGMENT PARA USE32 PUBLIC 'CODE'
_TEXT	ENDS
;	COMDAT ?SendMW_GUILDVOLUNTEERINGDEL_ACK@CTMapSvrModule@@QAEXKK@Z
_TEXT	SEGMENT PARA USE32 PUBLIC 'CODE'
_TEXT	ENDS
;	COMDAT ?SendMW_GUILDVOLUNTEERLIST_ACK@CTMapSvrModule@@QAEXKK@Z
_TEXT	SEGMENT PARA USE32 PUBLIC 'CODE'
_TEXT	ENDS
;	COMDAT ?SendMW_GUILDVOLUNTEERREPLY_ACK@CTMapSvrModule@@QAEXKKKE@Z
_TEXT	SEGMENT PARA USE32 PUBLIC 'CODE'
_TEXT	ENDS
;	COMDAT ?SendMW_GUILDTACTICSWANTEDADD_ACK@CTMapSvrModule@@QAEXKKKV?$CStringT@DV?$StrTraitATL@DV?$ChTraitsCRT@D@ATL@@@ATL@@@ATL@@0EEEKKKK@Z
_TEXT	SEGMENT PARA USE32 PUBLIC 'CODE'
_TEXT	ENDS
;	COMDAT ?SendMW_GUILDTACTICSWANTEDDEL_ACK@CTMapSvrModule@@QAEXKKK@Z
_TEXT	SEGMENT PARA USE32 PUBLIC 'CODE'
_TEXT	ENDS
;	COMDAT ?SendMW_GUILDTACTICSWANTEDLIST_ACK@CTMapSvrModule@@QAEXKK@Z
_TEXT	SEGMENT PARA USE32 PUBLIC 'CODE'
_TEXT	ENDS
;	COMDAT ?SendMW_GUILDTACTICSVOLUNTEERING_ACK@CTMapSvrModule@@QAEXKKKK@Z
_TEXT	SEGMENT PARA USE32 PUBLIC 'CODE'
_TEXT	ENDS
;	COMDAT ?SendMW_GUILDTACTICSVOLUNTEERINGDEL_ACK@CTMapSvrModule@@QAEXKK@Z
_TEXT	SEGMENT PARA USE32 PUBLIC 'CODE'
_TEXT	ENDS
;	COMDAT ?SendMW_GUILDTACTICSVOLUNTEERLIST_ACK@CTMapSvrModule@@QAEXKK@Z
_TEXT	SEGMENT PARA USE32 PUBLIC 'CODE'
_TEXT	ENDS
;	COMDAT ?SendMW_GUILDTACTICSREPLY_ACK@CTMapSvrModule@@QAEXKKKE@Z
_TEXT	SEGMENT PARA USE32 PUBLIC 'CODE'
_TEXT	ENDS
;	COMDAT ?SendMW_GUILDTACTICSKICKOUT_ACK@CTMapSvrModule@@QAEXKKK@Z
_TEXT	SEGMENT PARA USE32 PUBLIC 'CODE'
_TEXT	ENDS
;	COMDAT ?SendMW_GUILDTACTICSINVITE_ACK@CTMapSvrModule@@QAEXKKV?$CStringT@DV?$StrTraitATL@DV?$ChTraitsCRT@D@ATL@@@ATL@@@ATL@@EKKKK@Z
_TEXT	SEGMENT PARA USE32 PUBLIC 'CODE'
_TEXT	ENDS
;	COMDAT ?SendMW_GUILDTACTICSANSWER_ACK@CTMapSvrModule@@QAEXKKEV?$CStringT@DV?$StrTraitATL@DV?$ChTraitsCRT@D@ATL@@@ATL@@@ATL@@EKKKK@Z
_TEXT	SEGMENT PARA USE32 PUBLIC 'CODE'
_TEXT	ENDS
;	COMDAT ?SendMW_GUILDTACTICSLIST_ACK@CTMapSvrModule@@QAEXKK@Z
_TEXT	SEGMENT PARA USE32 PUBLIC 'CODE'
_TEXT	ENDS
;	COMDAT ?SendMW_CHAT_ACK@CTMapSvrModule@@QAEXEKKV?$CStringT@DV?$StrTraitATL@DV?$ChTraitsCRT@D@ATL@@@ATL@@@ATL@@EEK00@Z
_TEXT	SEGMENT PARA USE32 PUBLIC 'CODE'
_TEXT	ENDS
;	COMDAT ?SendDM_CABINETITEM_REQ@CTMapSvrModule@@QAEXKK@Z
_TEXT	SEGMENT PARA USE32 PUBLIC 'CODE'
_TEXT	ENDS
;	COMDAT ?SendMW_TAKEMONMONEY_ACK@CTMapSvrModule@@QAEXKKK@Z
_TEXT	SEGMENT PARA USE32 PUBLIC 'CODE'
_TEXT	ENDS
;	COMDAT ?SendMW_MONSTERDIE_ACK@CTMapSvrModule@@QAEXKKKKMMMGEEE@Z
_TEXT	SEGMENT PARA USE32 PUBLIC 'CODE'
_TEXT	ENDS
;	COMDAT ?SendMW_ADDITEM_ACK@CTMapSvrModule@@QAEXKKEEGKEEPAVCTItem@@@Z
_TEXT	SEGMENT PARA USE32 PUBLIC 'CODE'
_TEXT	ENDS
;	COMDAT ?SendMW_PARTYORDERTAKEITEM_ACK@CTMapSvrModule@@QAEXKKGEEGKGV?$vector@KV?$allocator@K@std@@@std@@PAVCTItem@@@Z
_TEXT	SEGMENT PARA USE32 PUBLIC 'CODE'
_TEXT	ENDS
;	COMDAT ?SendMW_PROTECTEDCHECK_ACK@CTMapSvrModule@@QAEXKKEV?$CStringT@DV?$StrTraitATL@DV?$ChTraitsCRT@D@ATL@@@ATL@@@ATL@@@Z
_TEXT	SEGMENT PARA USE32 PUBLIC 'CODE'
_TEXT	ENDS
;	COMDAT ?SendMW_FRIENDPROTECTEDASK_ACK@CTMapSvrModule@@QAEXKKV?$CStringT@DV?$StrTraitATL@DV?$ChTraitsCRT@D@ATL@@@ATL@@@ATL@@@Z
_TEXT	SEGMENT PARA USE32 PUBLIC 'CODE'
_TEXT	ENDS
;	COMDAT ?SendMW_FRIENDASK_ACK@CTMapSvrModule@@QAEXKKV?$CStringT@DV?$StrTraitATL@DV?$ChTraitsCRT@D@ATL@@@ATL@@@ATL@@@Z
_TEXT	SEGMENT PARA USE32 PUBLIC 'CODE'
_TEXT	ENDS
;	COMDAT ?SendMW_FRIENDREPLY_ACK@CTMapSvrModule@@QAEXKKV?$CStringT@DV?$StrTraitATL@DV?$ChTraitsCRT@D@ATL@@@ATL@@@ATL@@E@Z
_TEXT	SEGMENT PARA USE32 PUBLIC 'CODE'
_TEXT	ENDS
;	COMDAT ?SendMW_FRIENDERASE_ACK@CTMapSvrModule@@QAEXKKK@Z
_TEXT	SEGMENT PARA USE32 PUBLIC 'CODE'
_TEXT	ENDS
;	COMDAT ?SendMW_FRIENDGROUPMAKE_ACK@CTMapSvrModule@@QAEXKKEV?$CStringT@DV?$StrTraitATL@DV?$ChTraitsCRT@D@ATL@@@ATL@@@ATL@@@Z
_TEXT	SEGMENT PARA USE32 PUBLIC 'CODE'
_TEXT	ENDS
;	COMDAT ?SendMW_FRIENDGROUPDELETE_ACK@CTMapSvrModule@@QAEXKKE@Z
_TEXT	SEGMENT PARA USE32 PUBLIC 'CODE'
_TEXT	ENDS
;	COMDAT ?SendMW_FRIENDGROUPCHANGE_ACK@CTMapSvrModule@@QAEXKKKE@Z
_TEXT	SEGMENT PARA USE32 PUBLIC 'CODE'
_TEXT	ENDS
;	COMDAT ?SendMW_FRIENDGROUPNAME_ACK@CTMapSvrModule@@QAEXKKEV?$CStringT@DV?$StrTraitATL@DV?$ChTraitsCRT@D@ATL@@@ATL@@@ATL@@@Z
_TEXT	SEGMENT PARA USE32 PUBLIC 'CODE'
_TEXT	ENDS
;	COMDAT ?SendDM_POSTLIST_REQ@CTMapSvrModule@@QAEXKKG@Z
_TEXT	SEGMENT PARA USE32 PUBLIC 'CODE'
_TEXT	ENDS
;	COMDAT ?SendMW_ADDITEMRESULT_ACK@CTMapSvrModule@@QAEXKKEEGKEE@Z
_TEXT	SEGMENT PARA USE32 PUBLIC 'CODE'
_TEXT	ENDS
;	COMDAT ?SendMW_ENTERSOLOMAP_ACK@CTMapSvrModule@@QAEXKK@Z
_TEXT	SEGMENT PARA USE32 PUBLIC 'CODE'
_TEXT	ENDS
;	COMDAT ?SendMW_LEAVESOLOMAP_ACK@CTMapSvrModule@@QAEXKK@Z
_TEXT	SEGMENT PARA USE32 PUBLIC 'CODE'
_TEXT	ENDS
;	COMDAT ?SendMW_CHARSTATINFO_ACK@CTMapSvrModule@@QAEXKK@Z
_TEXT	SEGMENT PARA USE32 PUBLIC 'CODE'
_TEXT	ENDS
;	COMDAT ?SendMW_CHARSTATINFOANS_ACK@CTMapSvrModule@@QAEXKPAVCTPlayer@@@Z
_TEXT	SEGMENT PARA USE32 PUBLIC 'CODE'
_TEXT	ENDS
;	COMDAT ?SendMW_LOCALENABLE_ACK@CTMapSvrModule@@QAEXGE@Z
_TEXT	SEGMENT PARA USE32 PUBLIC 'CODE'
_TEXT	ENDS
;	COMDAT ?SendMW_CASTLEOCCUPY_ACK@CTMapSvrModule@@QAEXEGKEK@Z
_TEXT	SEGMENT PARA USE32 PUBLIC 'CODE'
_TEXT	ENDS
;	COMDAT ?SendMW_LOCALOCCUPY_ACK@CTMapSvrModule@@QAEXEGEKE@Z
_TEXT	SEGMENT PARA USE32 PUBLIC 'CODE'
_TEXT	ENDS
;	COMDAT ?SendMW_MISSIONOCCUPY_ACK@CTMapSvrModule@@QAEXEGE@Z
_TEXT	SEGMENT PARA USE32 PUBLIC 'CODE'
_TEXT	ENDS
;	COMDAT ?SendMW_CHGCORPSCOMMANDER_ACK@CTMapSvrModule@@QAEXKKG@Z
_TEXT	SEGMENT PARA USE32 PUBLIC 'CODE'
_TEXT	ENDS
;	COMDAT ?SendMW_CORPSLEAVE_ACK@CTMapSvrModule@@QAEXKKG@Z
_TEXT	SEGMENT PARA USE32 PUBLIC 'CODE'
_TEXT	ENDS
;	COMDAT ?SendMW_CORPSASK_ACK@CTMapSvrModule@@QAEXKKV?$CStringT@DV?$StrTraitATL@DV?$ChTraitsCRT@D@ATL@@@ATL@@@ATL@@@Z
_TEXT	SEGMENT PARA USE32 PUBLIC 'CODE'
_TEXT	ENDS
;	COMDAT ?SendMW_CORPSREPLY_ACK@CTMapSvrModule@@QAEXKKEV?$CStringT@DV?$StrTraitATL@DV?$ChTraitsCRT@D@ATL@@@ATL@@@ATL@@@Z
_TEXT	SEGMENT PARA USE32 PUBLIC 'CODE'
_TEXT	ENDS
;	COMDAT ?SendMW_CORPSCMD_ACK@CTMapSvrModule@@QAEXKKGGKEKEGG@Z
_TEXT	SEGMENT PARA USE32 PUBLIC 'CODE'
_TEXT	ENDS
;	COMDAT ?SendMW_MOVECORPSENEMY_ACK@CTMapSvrModule@@QAEXKKKKEMGGGG@Z
_TEXT	SEGMENT PARA USE32 PUBLIC 'CODE'
_TEXT	ENDS
;	COMDAT ?SendMW_MOVECORPSUNIT_ACK@CTMapSvrModule@@QAEXKKGKMGKGGG@Z
_TEXT	SEGMENT PARA USE32 PUBLIC 'CODE'
_TEXT	ENDS
;	COMDAT ?SendMW_ADDCORPSENEMY_ACK@CTMapSvrModule@@QAEXKKKKEMGGGG@Z
_TEXT	SEGMENT PARA USE32 PUBLIC 'CODE'
_TEXT	ENDS
;	COMDAT ?SendMW_DELCORPSENEMY_ACK@CTMapSvrModule@@QAEXKKKKE@Z
_TEXT	SEGMENT PARA USE32 PUBLIC 'CODE'
_TEXT	ENDS
;	COMDAT ?SendMW_CORPSHP_ACK@CTMapSvrModule@@QAEXKKGKKK@Z
_TEXT	SEGMENT PARA USE32 PUBLIC 'CODE'
_TEXT	ENDS
;	COMDAT ?SendMW_PARTYMOVE_ACK@CTMapSvrModule@@QAEXKKV?$CStringT@DV?$StrTraitATL@DV?$ChTraitsCRT@D@ATL@@@ATL@@@ATL@@0G@Z
_TEXT	SEGMENT PARA USE32 PUBLIC 'CODE'
_TEXT	ENDS
;	COMDAT ?SendMW_TMSSEND_ACK@CTMapSvrModule@@QAEXKKKV?$CStringT@DV?$StrTraitATL@DV?$ChTraitsCRT@D@ATL@@@ATL@@@ATL@@@Z
_TEXT	SEGMENT PARA USE32 PUBLIC 'CODE'
_TEXT	ENDS
;	COMDAT ?SendMW_TMSINVITEASK_ACK@CTMapSvrModule@@QAEXKKKKEKV?$CStringT@DV?$StrTraitATL@DV?$ChTraitsCRT@D@ATL@@@ATL@@@ATL@@@Z
_TEXT	SEGMENT PARA USE32 PUBLIC 'CODE'
_TEXT	ENDS
;	COMDAT ?SendMW_TMSOUT_ACK@CTMapSvrModule@@QAEXKKK@Z
_TEXT	SEGMENT PARA USE32 PUBLIC 'CODE'
_TEXT	ENDS
;	COMDAT ?SendMW_CASTLEENABLE_ACK@CTMapSvrModule@@QAEXGE@Z
_TEXT	SEGMENT PARA USE32 PUBLIC 'CODE'
_TEXT	ENDS
;	COMDAT ?SendMW_CASTLEAPPLY_ACK@CTMapSvrModule@@QAEXKKGKE@Z
_TEXT	SEGMENT PARA USE32 PUBLIC 'CODE'
_TEXT	ENDS
;	COMDAT ?SendMW_MONTEMPT_ACK@CTMapSvrModule@@QAEXKG@Z
_TEXT	SEGMENT PARA USE32 PUBLIC 'CODE'
_TEXT	ENDS
;	COMDAT ?SendMW_GETBLOOD_ACK@CTMapSvrModule@@QAEXKEKEK@Z
_TEXT	SEGMENT PARA USE32 PUBLIC 'CODE'
_TEXT	ENDS
;	COMDAT ?SendMW_DEALITEMERROR_ACK@CTMapSvrModule@@QAEXV?$CStringT@DV?$StrTraitATL@DV?$ChTraitsCRT@D@ATL@@@ATL@@@ATL@@0E@Z
_TEXT	SEGMENT PARA USE32 PUBLIC 'CODE'
_TEXT	ENDS
;	COMDAT ?SendMW_MAGICMIRROR_ACK@CTMapSvrModule@@QAEXGEEEPAVCPacket@@@Z
_TEXT	SEGMENT PARA USE32 PUBLIC 'CODE'
_TEXT	ENDS
;	COMDAT ?SendMW_REGION_ACK@CTMapSvrModule@@QAEXKKK@Z
_TEXT	SEGMENT PARA USE32 PUBLIC 'CODE'
_TEXT	ENDS
;	COMDAT ?SendMW_ENDWAR_ACK@CTMapSvrModule@@QAEXG@Z
_TEXT	SEGMENT PARA USE32 PUBLIC 'CODE'
_TEXT	ENDS
;	COMDAT ?SendDM_PETDEL_REQ@CTMapSvrModule@@QAEXKG@Z
_TEXT	SEGMENT PARA USE32 PUBLIC 'CODE'
_TEXT	ENDS
;	COMDAT ?SendCT_USERMOVE_ACK@CTMapSvrModule@@QAEXV?$CStringT@DV?$StrTraitATL@DV?$ChTraitsCRT@D@ATL@@@ATL@@@ATL@@EGMMMG@Z
_TEXT	SEGMENT PARA USE32 PUBLIC 'CODE'
_TEXT	ENDS
;	COMDAT ?SendCT_USERPOSITION_ACK@CTMapSvrModule@@QAEXV?$CStringT@DV?$StrTraitATL@DV?$ChTraitsCRT@D@ATL@@@ATL@@@ATL@@0@Z
_TEXT	SEGMENT PARA USE32 PUBLIC 'CODE'
_TEXT	ENDS
;	COMDAT ?SendMW_BEGINTELEPORT_ACK@CTMapSvrModule@@QAEXKKEEGMMM@Z
_TEXT	SEGMENT PARA USE32 PUBLIC 'CODE'
_TEXT	ENDS
;	COMDAT ?SendMW_PETRIDING_ACK@CTMapSvrModule@@QAEXKKK@Z
_TEXT	SEGMENT PARA USE32 PUBLIC 'CODE'
_TEXT	ENDS
;	COMDAT ?SendDM_UDPLOG_REQ@CTMapSvrModule@@QAEXU_LOG_DATA_@@@Z
_TEXT	SEGMENT PARA USE32 PUBLIC 'CODE'
_TEXT	ENDS
;	COMDAT ?SendDM_SAVEEXP_REQ@CTMapSvrModule@@QAEXKK@Z
_TEXT	SEGMENT PARA USE32 PUBLIC 'CODE'
_TEXT	ENDS
;	COMDAT ?SendDM_SAVEMONEY_REQ@CTMapSvrModule@@QAEXKKKK@Z
_TEXT	SEGMENT PARA USE32 PUBLIC 'CODE'
_TEXT	ENDS
;	COMDAT ?SendMW_HELMETHIDE_ACK@CTMapSvrModule@@QAEXKKE@Z
_TEXT	SEGMENT PARA USE32 PUBLIC 'CODE'
_TEXT	ENDS
;	COMDAT ?SendMW_PARTYMEMBERRECALL_ACK@CTMapSvrModule@@QAEXKKEEV?$CStringT@DV?$StrTraitATL@DV?$ChTraitsCRT@D@ATL@@@ATL@@@ATL@@0@Z
_TEXT	SEGMENT PARA USE32 PUBLIC 'CODE'
_TEXT	ENDS
;	COMDAT ?SendMW_PARTYMEMBERRECALLANS_ACK@CTMapSvrModule@@QAEXEV?$CStringT@DV?$StrTraitATL@DV?$ChTraitsCRT@D@ATL@@@ATL@@@ATL@@0EEEEGMMM@Z
_TEXT	SEGMENT PARA USE32 PUBLIC 'CODE'
_TEXT	ENDS
;	COMDAT ?SendDM_CASHITEMCABINET_REQ@CTMapSvrModule@@QAEXKKK@Z
_TEXT	SEGMENT PARA USE32 PUBLIC 'CODE'
_TEXT	ENDS
;	COMDAT ?SendDM_CASHITEMGET_REQ@CTMapSvrModule@@QAEXKKV?$CStringT@DV?$StrTraitATL@DV?$ChTraitsCRT@D@ATL@@@ATL@@@ATL@@KKEE@Z
_TEXT	SEGMENT PARA USE32 PUBLIC 'CODE'
_TEXT	ENDS
;	COMDAT ?SendDM_CASHSHOPITEMLIST_REQ@CTMapSvrModule@@QAEXKKKG@Z
_TEXT	SEGMENT PARA USE32 PUBLIC 'CODE'
_TEXT	ENDS
;	COMDAT ?SendDM_CASHITEMBUY_REQ@CTMapSvrModule@@QAEXKKKGEV?$CStringT@DV?$StrTraitATL@DV?$ChTraitsCRT@D@ATL@@@ATL@@@ATL@@@Z
_TEXT	SEGMENT PARA USE32 PUBLIC 'CODE'
_TEXT	ENDS
;	COMDAT ?SendMW_SOULMATESEARCH_ACK@CTMapSvrModule@@QAEXKKEEE@Z
_TEXT	SEGMENT PARA USE32 PUBLIC 'CODE'
_TEXT	ENDS
;	COMDAT ?SendMW_SOULMATEREG_ACK@CTMapSvrModule@@QAEXKKV?$CStringT@DV?$StrTraitATL@DV?$ChTraitsCRT@D@ATL@@@ATL@@@ATL@@EEE@Z
_TEXT	SEGMENT PARA USE32 PUBLIC 'CODE'
_TEXT	ENDS
;	COMDAT ?SendMW_SOULMATEEND_ACK@CTMapSvrModule@@QAEXKK@Z
_TEXT	SEGMENT PARA USE32 PUBLIC 'CODE'
_TEXT	ENDS
;	COMDAT ?SendMW_CASTLEWARINFO_ACK@CTMapSvrModule@@QAEXPAUtagLOCAL@@@Z
_TEXT	SEGMENT PARA USE32 PUBLIC 'CODE'
_TEXT	ENDS
;	COMDAT ?SendDM_CASHCABINETBUY_REQ@CTMapSvrModule@@QAEXKKG@Z
_TEXT	SEGMENT PARA USE32 PUBLIC 'CODE'
_TEXT	ENDS
;	COMDAT ?SendDM_CASHITEMPUTIN_REQ@CTMapSvrModule@@QAEXKKV?$CStringT@DV?$StrTraitATL@DV?$ChTraitsCRT@D@ATL@@@ATL@@@ATL@@EEPAVCTItem@@@Z
_TEXT	SEGMENT PARA USE32 PUBLIC 'CODE'
_TEXT	ENDS
;	COMDAT ?SendDM_DELETEDEALITEM_REQ@CTMapSvrModule@@QAEXPAVCTPlayer@@@Z
_TEXT	SEGMENT PARA USE32 PUBLIC 'CODE'
_TEXT	ENDS
;	COMDAT ?SendMW_RECALLMONDATA_ACK@CTMapSvrModule@@QAEXPAVCTRecallMon@@@Z
_TEXT	SEGMENT PARA USE32 PUBLIC 'CODE'
_TEXT	ENDS
;	COMDAT ?SendDM_POSTINVENITEM_REQ@CTMapSvrModule@@QAEXKKV?$CStringT@DV?$StrTraitATL@DV?$ChTraitsCRT@D@ATL@@@ATL@@@ATL@@PAVCTInven@@@Z
_TEXT	SEGMENT PARA USE32 PUBLIC 'CODE'
_TEXT	ENDS
;	COMDAT ?SendDM_SAVECHARBASE_REQ@CTMapSvrModule@@QAEXKEEV?$CStringT@DV?$StrTraitATL@DV?$ChTraitsCRT@D@ATL@@@ATL@@@ATL@@@Z
_TEXT	SEGMENT PARA USE32 PUBLIC 'CODE'
_TEXT	ENDS
;	COMDAT ?SendDM_CHECKCHANGENAME_REQ@CTMapSvrModule@@QAEXKKEEV?$CStringT@DV?$StrTraitATL@DV?$ChTraitsCRT@D@ATL@@@ATL@@@ATL@@@Z
_TEXT	SEGMENT PARA USE32 PUBLIC 'CODE'
_TEXT	ENDS
;	COMDAT ?SendMW_CHANGECHARBASE_ACK@CTMapSvrModule@@QAEXKKEEV?$CStringT@DV?$StrTraitATL@DV?$ChTraitsCRT@D@ATL@@@ATL@@@ATL@@@Z
_TEXT	SEGMENT PARA USE32 PUBLIC 'CODE'
_TEXT	ENDS
;	COMDAT ?SendDM_STOPTHECLOCK_REQ@CTMapSvrModule@@QAEXKKEEG@Z
_TEXT	SEGMENT PARA USE32 PUBLIC 'CODE'
_TEXT	ENDS
;	COMDAT ?SendDM_HEROSELECT_REQ@CTMapSvrModule@@QAEXKKKGV?$CStringT@DV?$StrTraitATL@DV?$ChTraitsCRT@D@ATL@@@ATL@@@ATL@@_J@Z
_TEXT	SEGMENT PARA USE32 PUBLIC 'CODE'
_TEXT	ENDS
;	COMDAT ?SendDM_QUESTSENDPOST_REQ@CTMapSvrModule@@QAEXKKPAV?$vector@PAVCTItem@@V?$allocator@PAVCTItem@@@std@@@std@@@Z
_TEXT	SEGMENT PARA USE32 PUBLIC 'CODE'
_TEXT	ENDS
;	COMDAT ?SendMW_GAINPVPPOINT_ACK@CTMapSvrModule@@QAEXEKKEEEV?$CStringT@DV?$StrTraitATL@DV?$ChTraitsCRT@D@ATL@@@ATL@@@ATL@@EE@Z
_TEXT	SEGMENT PARA USE32 PUBLIC 'CODE'
_TEXT	ENDS
;	COMDAT ?SendMW_LOCALRECORD_ACK@CTMapSvrModule@@QAEXPAVCPacket@@@Z
_TEXT	SEGMENT PARA USE32 PUBLIC 'CODE'
_TEXT	ENDS
;	COMDAT ?SendMW_GUILDPOINTLOG_ACK@CTMapSvrModule@@QAEXKK@Z
_TEXT	SEGMENT PARA USE32 PUBLIC 'CODE'
_TEXT	ENDS
;	COMDAT ?SendMW_GUILDPOINTREWARD_ACK@CTMapSvrModule@@QAEXKKV?$CStringT@DV?$StrTraitATL@DV?$ChTraitsCRT@D@ATL@@@ATL@@@ATL@@K0@Z
_TEXT	SEGMENT PARA USE32 PUBLIC 'CODE'
_TEXT	ENDS
;	COMDAT ?SendMW_GUILDPVPRECORD_ACK@CTMapSvrModule@@QAEXKKE@Z
_TEXT	SEGMENT PARA USE32 PUBLIC 'CODE'
_TEXT	ENDS
;	COMDAT ?SendMW_MONSTERBUY_ACK@CTMapSvrModule@@QAEXKKGGK@Z
_TEXT	SEGMENT PARA USE32 PUBLIC 'CODE'
_TEXT	ENDS
;	COMDAT ?SendMW_GUILDMONEYRECOVER_ACK@CTMapSvrModule@@QAEXKK@Z
_TEXT	SEGMENT PARA USE32 PUBLIC 'CODE'
_TEXT	ENDS
;	COMDAT ?SendMW_FRIENDLIST_ACK@CTMapSvrModule@@QAEXKK@Z
_TEXT	SEGMENT PARA USE32 PUBLIC 'CODE'
_TEXT	ENDS
;	COMDAT ?SendMW_CASHITEMSALE_ACK@CTMapSvrModule@@QAEXKGE@Z
_TEXT	SEGMENT PARA USE32 PUBLIC 'CODE'
_TEXT	ENDS
;	COMDAT ?SendMW_APEXDATA_ACK@CTMapSvrModule@@QAEXKKPADH@Z
_TEXT	SEGMENT PARA USE32 PUBLIC 'CODE'
_TEXT	ENDS
;	COMDAT ?SendMW_APEXSTART_ACK@CTMapSvrModule@@QAEXKKJ@Z
_TEXT	SEGMENT PARA USE32 PUBLIC 'CODE'
_TEXT	ENDS
;	COMDAT ?SendDM_AUCTIONREG_REQ@CTMapSvrModule@@QAEXKKV?$CStringT@DV?$StrTraitATL@DV?$ChTraitsCRT@D@ATL@@@ATL@@@ATL@@GGE_J1PAVCTItem@@K@Z
_TEXT	SEGMENT PARA USE32 PUBLIC 'CODE'
_TEXT	ENDS
;	COMDAT ?SendDM_AUCTIONEND_REQ@CTMapSvrModule@@QAEXGK_J@Z
_TEXT	SEGMENT PARA USE32 PUBLIC 'CODE'
_TEXT	ENDS
;	COMDAT ?SendDM_AUCTIONREGCANCEL_REQ@CTMapSvrModule@@QAEXKKGK@Z
_TEXT	SEGMENT PARA USE32 PUBLIC 'CODE'
_TEXT	ENDS
;	COMDAT ?SendDM_AUCTIONBID_REQ@CTMapSvrModule@@QAEXKKV?$CStringT@DV?$StrTraitATL@DV?$ChTraitsCRT@D@ATL@@@ATL@@@ATL@@KGK_J@Z
_TEXT	SEGMENT PARA USE32 PUBLIC 'CODE'
_TEXT	ENDS
;	COMDAT ?SendDM_AUCTIONBUYDIRECT_REQ@CTMapSvrModule@@QAEXKKV?$CStringT@DV?$StrTraitATL@DV?$ChTraitsCRT@D@ATL@@@ATL@@@ATL@@GKE_J@Z
_TEXT	SEGMENT PARA USE32 PUBLIC 'CODE'
_TEXT	ENDS
;	COMDAT ?SendDM_GAINCASHBONUS_REQ@CTMapSvrModule@@QAEXKKV?$CStringT@DV?$StrTraitATL@DV?$ChTraitsCRT@D@ATL@@@ATL@@@ATL@@EEGK@Z
_TEXT	SEGMENT PARA USE32 PUBLIC 'CODE'
_TEXT	ENDS
;	COMDAT ?SendDM_WARLORDSAY_REQ@CTMapSvrModule@@QAEXEEKV?$CStringT@DV?$StrTraitATL@DV?$ChTraitsCRT@D@ATL@@@ATL@@@ATL@@@Z
_TEXT	SEGMENT PARA USE32 PUBLIC 'CODE'
_TEXT	ENDS
;	COMDAT ?SendMW_MONTHRANKUPDATE_ACK@CTMapSvrModule@@QAEXAAUtagMONTHRANKER@@@Z
_TEXT	SEGMENT PARA USE32 PUBLIC 'CODE'
_TEXT	ENDS
;	COMDAT ?SendMW_FAMERANKUPDATE_ACK@CTMapSvrModule@@QAEXEEEAAUtagMONTHRANKER@@@Z
_TEXT	SEGMENT PARA USE32 PUBLIC 'CODE'
_TEXT	ENDS
;	COMDAT ?SendMW_TERMINATE_ACK@CTMapSvrModule@@QAEXK@Z
_TEXT	SEGMENT PARA USE32 PUBLIC 'CODE'
_TEXT	ENDS
;	COMDAT ?SendDM_POSTVIEW_REQ@CTMapSvrModule@@QAEXKKK@Z
_TEXT	SEGMENT PARA USE32 PUBLIC 'CODE'
_TEXT	ENDS
;	COMDAT ?SendDM_POSTBILL_REQ@CTMapSvrModule@@QAEXKK@Z
_TEXT	SEGMENT PARA USE32 PUBLIC 'CODE'
_TEXT	ENDS
;	COMDAT ?SendDM_POSTBILLUPDATE_REQ@CTMapSvrModule@@QAEXKV?$CStringT@DV?$StrTraitATL@DV?$ChTraitsCRT@D@ATL@@@ATL@@@ATL@@KEKKK@Z
_TEXT	SEGMENT PARA USE32 PUBLIC 'CODE'
_TEXT	ENDS
;	COMDAT ?SendMW_WARLORDSAY_ACK@CTMapSvrModule@@QAEXEEKV?$CStringT@DV?$StrTraitATL@DV?$ChTraitsCRT@D@ATL@@@ATL@@@ATL@@@Z
_TEXT	SEGMENT PARA USE32 PUBLIC 'CODE'
_TEXT	ENDS
;	COMDAT ?SendMW_TOURNAMENT_ACK@CTMapSvrModule@@QAEXKKGKGEV?$CStringT@DV?$StrTraitATL@DV?$ChTraitsCRT@D@ATL@@@ATL@@@ATL@@@Z
_TEXT	SEGMENT PARA USE32 PUBLIC 'CODE'
_TEXT	ENDS
;	COMDAT ?SendMW_TOURNAMENTENTERGATE_ACK@CTMapSvrModule@@QAEXKKKE@Z
_TEXT	SEGMENT PARA USE32 PUBLIC 'CODE'
_TEXT	ENDS
;	COMDAT ?SendMW_TOURNAMENTRESULT_ACK@CTMapSvrModule@@QAEXEEKKKK@Z
_TEXT	SEGMENT PARA USE32 PUBLIC 'CODE'
_TEXT	ENDS
;	COMDAT ?SendDM_TOURNAMENTREWARD_REQ@CTMapSvrModule@@QAEXEGEKKE@Z
_TEXT	SEGMENT PARA USE32 PUBLIC 'CODE'
_TEXT	ENDS
;	COMDAT ?SendMW_RPSGAME_ACK@CTMapSvrModule@@QAEXKKEEE@Z
_TEXT	SEGMENT PARA USE32 PUBLIC 'CODE'
_TEXT	ENDS
;	COMDAT ?SendMW_MONTHRANKRESETCHAR_ACK@CTMapSvrModule@@QAEXK@Z
_TEXT	SEGMENT PARA USE32 PUBLIC 'CODE'
_TEXT	ENDS
;	COMDAT ?SendMW_CHATBAN_ACK@CTMapSvrModule@@QAEXV?$CStringT@DV?$StrTraitATL@DV?$ChTraitsCRT@D@ATL@@@ATL@@@ATL@@GKK@Z
_TEXT	SEGMENT PARA USE32 PUBLIC 'CODE'
_TEXT	ENDS
;	COMDAT ?Tokenize@?$CStringT@DV?$StrTraitATL@DV?$ChTraitsCRT@D@ATL@@@ATL@@@ATL@@QBE?AV12@PBDAAH@Z
_TEXT	SEGMENT PARA USE32 PUBLIC 'CODE'
_TEXT	ENDS
;	COMDAT ?Format@?$CStringT@DV?$StrTraitATL@DV?$ChTraitsCRT@D@ATL@@@ATL@@@ATL@@QAAXPBDZZ
_TEXT	SEGMENT PARA USE32 PUBLIC 'CODE'
_TEXT	ENDS
;	COMDAT ?begin@?$_Tree@V?$_Tmap_traits@GPAUtagLOCAL@@U?$less@G@std@@V?$allocator@U?$pair@$$CBGPAUtagLOCAL@@@std@@@3@$0A@@std@@@std@@QAE?AViterator@12@XZ
_TEXT	SEGMENT PARA USE32 PUBLIC 'CODE'
_TEXT	ENDS
;	COMDAT ?end@?$_Tree@V?$_Tmap_traits@GPAUtagLOCAL@@U?$less@G@std@@V?$allocator@U?$pair@$$CBGPAUtagLOCAL@@@std@@@3@$0A@@std@@@std@@QAE?AViterator@12@XZ
_TEXT	SEGMENT PARA USE32 PUBLIC 'CODE'
_TEXT	ENDS
;	COMDAT ?size@?$_Tree@V?$_Tmap_traits@GPAUtagLOCAL@@U?$less@G@std@@V?$allocator@U?$pair@$$CBGPAUtagLOCAL@@@std@@@3@$0A@@std@@@std@@QBEIXZ
_TEXT	SEGMENT PARA USE32 PUBLIC 'CODE'
_TEXT	ENDS
;	COMDAT ?begin@?$_Tree@V?$_Tmap_traits@KKU?$less@K@std@@V?$allocator@U?$pair@$$CBKK@std@@@2@$0A@@std@@@std@@QAE?AViterator@12@XZ
_TEXT	SEGMENT PARA USE32 PUBLIC 'CODE'
_TEXT	ENDS
;	COMDAT ?end@?$_Tree@V?$_Tmap_traits@KKU?$less@K@std@@V?$allocator@U?$pair@$$CBKK@std@@@2@$0A@@std@@@std@@QAE?AViterator@12@XZ
_TEXT	SEGMENT PARA USE32 PUBLIC 'CODE'
_TEXT	ENDS
;	COMDAT ?size@?$vector@PAVCTPlayer@@V?$allocator@PAVCTPlayer@@@std@@@std@@QBEIXZ
_TEXT	SEGMENT PARA USE32 PUBLIC 'CODE'
_TEXT	ENDS
;	COMDAT ?empty@?$vector@PAVCTPlayer@@V?$allocator@PAVCTPlayer@@@std@@@std@@QBE_NXZ
_TEXT	SEGMENT PARA USE32 PUBLIC 'CODE'
_TEXT	ENDS
;	COMDAT ??A?$vector@PAVCTPlayer@@V?$allocator@PAVCTPlayer@@@std@@@std@@QAEAAPAVCTPlayer@@I@Z
_TEXT	SEGMENT PARA USE32 PUBLIC 'CODE'
_TEXT	ENDS
;	COMDAT ?size@?$vector@PAVCTItem@@V?$allocator@PAVCTItem@@@std@@@std@@QBEIXZ
_TEXT	SEGMENT PARA USE32 PUBLIC 'CODE'
_TEXT	ENDS
;	COMDAT ?empty@?$vector@PAVCTItem@@V?$allocator@PAVCTItem@@@std@@@std@@QBE_NXZ
_TEXT	SEGMENT PARA USE32 PUBLIC 'CODE'
_TEXT	ENDS
;	COMDAT ??A?$vector@PAVCTItem@@V?$allocator@PAVCTItem@@@std@@@std@@QAEAAPAVCTItem@@I@Z
_TEXT	SEGMENT PARA USE32 PUBLIC 'CODE'
_TEXT	ENDS
;	COMDAT ?back@?$vector@PAVCTItem@@V?$allocator@PAVCTItem@@@std@@@std@@QAEAAPAVCTItem@@XZ
_TEXT	SEGMENT PARA USE32 PUBLIC 'CODE'
_TEXT	ENDS
;	COMDAT ?pop_back@?$vector@PAVCTItem@@V?$allocator@PAVCTItem@@@std@@@std@@QAEXXZ
_TEXT	SEGMENT PARA USE32 PUBLIC 'CODE'
_TEXT	ENDS
;	COMDAT ?size@?$_Tree@V?$_Tmap_traits@KPAVCTItem@@U?$less@K@std@@V?$allocator@U?$pair@$$CBKPAVCTItem@@@std@@@3@$0A@@std@@@std@@QBEIXZ
_TEXT	SEGMENT PARA USE32 PUBLIC 'CODE'
_TEXT	ENDS
;	COMDAT ??A?$vector@PAUtagQUESTTERM@@V?$allocator@PAUtagQUESTTERM@@@std@@@std@@QAEAAPAUtagQUESTTERM@@I@Z
_TEXT	SEGMENT PARA USE32 PUBLIC 'CODE'
_TEXT	ENDS
;	COMDAT ?end@?$_Tree@V?$_Tmap_traits@KPAVCTPlayer@@U?$less@K@std@@V?$allocator@U?$pair@$$CBKPAVCTPlayer@@@std@@@3@$0A@@std@@@std@@QAE?AViterator@12@XZ
_TEXT	SEGMENT PARA USE32 PUBLIC 'CODE'
_TEXT	ENDS
;	COMDAT ?find@?$_Tree@V?$_Tmap_traits@KPAVCTPlayer@@U?$less@K@std@@V?$allocator@U?$pair@$$CBKPAVCTPlayer@@@std@@@3@$0A@@std@@@std@@QAE?AViterator@12@ABK@Z
_TEXT	SEGMENT PARA USE32 PUBLIC 'CODE'
_TEXT	ENDS
;	COMDAT ?begin@?$_Tree@V?$_Tmap_traits@EPAVCTInven@@U?$less@E@std@@V?$allocator@U?$pair@$$CBEPAVCTInven@@@std@@@3@$0A@@std@@@std@@QAE?AViterator@12@XZ
_TEXT	SEGMENT PARA USE32 PUBLIC 'CODE'
_TEXT	ENDS
;	COMDAT ?end@?$_Tree@V?$_Tmap_traits@EPAVCTInven@@U?$less@E@std@@V?$allocator@U?$pair@$$CBEPAVCTInven@@@std@@@3@$0A@@std@@@std@@QAE?AViterator@12@XZ
_TEXT	SEGMENT PARA USE32 PUBLIC 'CODE'
_TEXT	ENDS
;	COMDAT ?size@?$_Tree@V?$_Tmap_traits@EPAVCTInven@@U?$less@E@std@@V?$allocator@U?$pair@$$CBEPAVCTInven@@@std@@@3@$0A@@std@@@std@@QBEIXZ
_TEXT	SEGMENT PARA USE32 PUBLIC 'CODE'
_TEXT	ENDS
;	COMDAT ?empty@?$_Tree@V?$_Tmap_traits@EPAVCTInven@@U?$less@E@std@@V?$allocator@U?$pair@$$CBEPAVCTInven@@@std@@@3@$0A@@std@@@std@@QBE_NXZ
_TEXT	SEGMENT PARA USE32 PUBLIC 'CODE'
_TEXT	ENDS
;	COMDAT ?begin@?$_Tree@V?$_Tmap_traits@GPAVCTSkill@@U?$less@G@std@@V?$allocator@U?$pair@$$CBGPAVCTSkill@@@std@@@3@$0A@@std@@@std@@QAE?AViterator@12@XZ
_TEXT	SEGMENT PARA USE32 PUBLIC 'CODE'
_TEXT	ENDS
;	COMDAT ?end@?$_Tree@V?$_Tmap_traits@GPAVCTSkill@@U?$less@G@std@@V?$allocator@U?$pair@$$CBGPAVCTSkill@@@std@@@3@$0A@@std@@@std@@QAE?AViterator@12@XZ
_TEXT	SEGMENT PARA USE32 PUBLIC 'CODE'
_TEXT	ENDS
;	COMDAT ?size@?$_Tree@V?$_Tmap_traits@GPAVCTSkill@@U?$less@G@std@@V?$allocator@U?$pair@$$CBGPAVCTSkill@@@std@@@3@$0A@@std@@@std@@QBEIXZ
_TEXT	SEGMENT PARA USE32 PUBLIC 'CODE'
_TEXT	ENDS
;	COMDAT ?size@?$vector@PAVCTSkill@@V?$allocator@PAVCTSkill@@@std@@@std@@QBEIXZ
_TEXT	SEGMENT PARA USE32 PUBLIC 'CODE'
_TEXT	ENDS
;	COMDAT ??A?$vector@PAVCTSkill@@V?$allocator@PAVCTSkill@@@std@@@std@@QAEAAPAVCTSkill@@I@Z
_TEXT	SEGMENT PARA USE32 PUBLIC 'CODE'
_TEXT	ENDS
;	COMDAT ?begin@?$_Tree@V?$_Tmap_traits@EPAVCTItem@@U?$less@E@std@@V?$allocator@U?$pair@$$CBEPAVCTItem@@@std@@@3@$0A@@std@@@std@@QAE?AViterator@12@XZ
_TEXT	SEGMENT PARA USE32 PUBLIC 'CODE'
_TEXT	ENDS
;	COMDAT ?end@?$_Tree@V?$_Tmap_traits@EPAVCTItem@@U?$less@E@std@@V?$allocator@U?$pair@$$CBEPAVCTItem@@@std@@@3@$0A@@std@@@std@@QAE?AViterator@12@XZ
_TEXT	SEGMENT PARA USE32 PUBLIC 'CODE'
_TEXT	ENDS
;	COMDAT ?size@?$_Tree@V?$_Tmap_traits@EPAVCTItem@@U?$less@E@std@@V?$allocator@U?$pair@$$CBEPAVCTItem@@@std@@@3@$0A@@std@@@std@@QBEIXZ
_TEXT	SEGMENT PARA USE32 PUBLIC 'CODE'
_TEXT	ENDS
;	COMDAT ?begin@?$_Tree@V?$_Tmap_traits@EPAUtagHOTKEYINVEN@@U?$less@E@std@@V?$allocator@U?$pair@$$CBEPAUtagHOTKEYINVEN@@@std@@@3@$0A@@std@@@std@@QAE?AViterator@12@XZ
_TEXT	SEGMENT PARA USE32 PUBLIC 'CODE'
_TEXT	ENDS
;	COMDAT ?end@?$_Tree@V?$_Tmap_traits@EPAUtagHOTKEYINVEN@@U?$less@E@std@@V?$allocator@U?$pair@$$CBEPAUtagHOTKEYINVEN@@@std@@@3@$0A@@std@@@std@@QAE?AViterator@12@XZ
_TEXT	SEGMENT PARA USE32 PUBLIC 'CODE'
_TEXT	ENDS
;	COMDAT ?size@?$_Tree@V?$_Tmap_traits@EPAUtagHOTKEYINVEN@@U?$less@E@std@@V?$allocator@U?$pair@$$CBEPAUtagHOTKEYINVEN@@@std@@@3@$0A@@std@@@std@@QBEIXZ
_TEXT	SEGMENT PARA USE32 PUBLIC 'CODE'
_TEXT	ENDS
;	COMDAT ?begin@?$_Tree@V?$_Tmap_traits@EPAUtagCABINET@@U?$less@E@std@@V?$allocator@U?$pair@$$CBEPAUtagCABINET@@@std@@@3@$0A@@std@@@std@@QAE?AViterator@12@XZ
_TEXT	SEGMENT PARA USE32 PUBLIC 'CODE'
_TEXT	ENDS
;	COMDAT ?end@?$_Tree@V?$_Tmap_traits@EPAUtagCABINET@@U?$less@E@std@@V?$allocator@U?$pair@$$CBEPAUtagCABINET@@@std@@@3@$0A@@std@@@std@@QAE?AViterator@12@XZ
_TEXT	SEGMENT PARA USE32 PUBLIC 'CODE'
_TEXT	ENDS
;	COMDAT ?size@?$_Tree@V?$_Tmap_traits@EPAUtagCABINET@@U?$less@E@std@@V?$allocator@U?$pair@$$CBEPAUtagCABINET@@@std@@@3@$0A@@std@@@std@@QBEIXZ
_TEXT	SEGMENT PARA USE32 PUBLIC 'CODE'
_TEXT	ENDS
;	COMDAT ?begin@?$_Tree@V?$_Tmap_traits@KPAVCTRecallMon@@U?$less@K@std@@V?$allocator@U?$pair@$$CBKPAVCTRecallMon@@@std@@@3@$0A@@std@@@std@@QAE?AViterator@12@XZ
_TEXT	SEGMENT PARA USE32 PUBLIC 'CODE'
_TEXT	ENDS
;	COMDAT ?end@?$_Tree@V?$_Tmap_traits@KPAVCTRecallMon@@U?$less@K@std@@V?$allocator@U?$pair@$$CBKPAVCTRecallMon@@@std@@@3@$0A@@std@@@std@@QAE?AViterator@12@XZ
_TEXT	SEGMENT PARA USE32 PUBLIC 'CODE'
_TEXT	ENDS
;	COMDAT ?begin@?$_Tree@V?$_Tmap_traits@GPAUtagPET@@U?$less@G@std@@V?$allocator@U?$pair@$$CBGPAUtagPET@@@std@@@3@$0A@@std@@@std@@QAE?AViterator@12@XZ
_TEXT	SEGMENT PARA USE32 PUBLIC 'CODE'
_TEXT	ENDS
;	COMDAT ?end@?$_Tree@V?$_Tmap_traits@GPAUtagPET@@U?$less@G@std@@V?$allocator@U?$pair@$$CBGPAUtagPET@@@std@@@3@$0A@@std@@@std@@QAE?AViterator@12@XZ
_TEXT	SEGMENT PARA USE32 PUBLIC 'CODE'
_TEXT	ENDS
;	COMDAT ?size@?$_Tree@V?$_Tmap_traits@GPAUtagPET@@U?$less@G@std@@V?$allocator@U?$pair@$$CBGPAUtagPET@@@std@@@3@$0A@@std@@@std@@QBEIXZ
_TEXT	SEGMENT PARA USE32 PUBLIC 'CODE'
_TEXT	ENDS
;	COMDAT ?begin@?$_Tree@V?$_Tmap_traits@KPAUtagPROTECTED@@U?$less@K@std@@V?$allocator@U?$pair@$$CBKPAUtagPROTECTED@@@std@@@3@$0A@@std@@@std@@QAE?AViterator@12@XZ
_TEXT	SEGMENT PARA USE32 PUBLIC 'CODE'
_TEXT	ENDS
;	COMDAT ?end@?$_Tree@V?$_Tmap_traits@KPAUtagPROTECTED@@U?$less@K@std@@V?$allocator@U?$pair@$$CBKPAUtagPROTECTED@@@std@@@3@$0A@@std@@@std@@QAE?AViterator@12@XZ
_TEXT	SEGMENT PARA USE32 PUBLIC 'CODE'
_TEXT	ENDS
;	COMDAT ?size@?$_Tree@V?$_Tmap_traits@KPAUtagPROTECTED@@U?$less@K@std@@V?$allocator@U?$pair@$$CBKPAUtagPROTECTED@@@std@@@3@$0A@@std@@@std@@QBEIXZ
_TEXT	SEGMENT PARA USE32 PUBLIC 'CODE'
_TEXT	ENDS
;	COMDAT ?begin@?$_Tree@V?$_Tmap_traits@KPAVCQuest@@U?$less@K@std@@V?$allocator@U?$pair@$$CBKPAVCQuest@@@std@@@3@$0A@@std@@@std@@QAE?AViterator@12@XZ
_TEXT	SEGMENT PARA USE32 PUBLIC 'CODE'
_TEXT	ENDS
;	COMDAT ?end@?$_Tree@V?$_Tmap_traits@KPAVCQuest@@U?$less@K@std@@V?$allocator@U?$pair@$$CBKPAVCQuest@@@std@@@3@$0A@@std@@@std@@QAE?AViterator@12@XZ
_TEXT	SEGMENT PARA USE32 PUBLIC 'CODE'
_TEXT	ENDS
;	COMDAT ?size@?$_Tree@V?$_Tmap_traits@KPAVCQuest@@U?$less@K@std@@V?$allocator@U?$pair@$$CBKPAVCQuest@@@std@@@3@$0A@@std@@@std@@QBEIXZ
_TEXT	SEGMENT PARA USE32 PUBLIC 'CODE'
_TEXT	ENDS
;	COMDAT ?begin@?$vector@UtagRECORDSET@@V?$allocator@UtagRECORDSET@@@std@@@std@@QAE?AViterator@12@XZ
_TEXT	SEGMENT PARA USE32 PUBLIC 'CODE'
_TEXT	ENDS
;	COMDAT ?end@?$vector@UtagRECORDSET@@V?$allocator@UtagRECORDSET@@@std@@@std@@QAE?AViterator@12@XZ
_TEXT	SEGMENT PARA USE32 PUBLIC 'CODE'
_TEXT	ENDS
;	COMDAT ?size@?$vector@UtagRECORDSET@@V?$allocator@UtagRECORDSET@@@std@@@std@@QBEIXZ
_TEXT	SEGMENT PARA USE32 PUBLIC 'CODE'
_TEXT	ENDS
;	COMDAT ??A?$vector@UtagRECORDSET@@V?$allocator@UtagRECORDSET@@@std@@@std@@QAEAAUtagRECORDSET@@I@Z
_TEXT	SEGMENT PARA USE32 PUBLIC 'CODE'
_TEXT	ENDS
;	COMDAT ??1?$vector@KV?$allocator@K@std@@@std@@QAE@XZ
_TEXT	SEGMENT PARA USE32 PUBLIC 'CODE'
_TEXT	ENDS
;	COMDAT ?begin@?$vector@KV?$allocator@K@std@@@std@@QAE?AViterator@12@XZ
_TEXT	SEGMENT PARA USE32 PUBLIC 'CODE'
_TEXT	ENDS
;	COMDAT ?end@?$vector@KV?$allocator@K@std@@@std@@QAE?AViterator@12@XZ
_TEXT	SEGMENT PARA USE32 PUBLIC 'CODE'
_TEXT	ENDS
;	COMDAT ?size@?$vector@KV?$allocator@K@std@@@std@@QBEIXZ
_TEXT	SEGMENT PARA USE32 PUBLIC 'CODE'
_TEXT	ENDS
;	COMDAT ??A?$vector@KV?$allocator@K@std@@@std@@QAEAAKI@Z
_TEXT	SEGMENT PARA USE32 PUBLIC 'CODE'
_TEXT	ENDS
;	COMDAT ??0iterator@?$_Tree@V?$_Tmap_traits@KPAVCTItem@@U?$less@K@std@@V?$allocator@U?$pair@$$CBKPAVCTItem@@@std@@@3@$0A@@std@@@std@@QAE@XZ
_TEXT	SEGMENT PARA USE32 PUBLIC 'CODE'
_TEXT	ENDS
;	COMDAT ??Diterator@?$_Tree@V?$_Tmap_traits@KPAVCTItem@@U?$less@K@std@@V?$allocator@U?$pair@$$CBKPAVCTItem@@@std@@@3@$0A@@std@@@std@@QBEAAU?$pair@$$CBKPAVCTItem@@@2@XZ
_TEXT	SEGMENT PARA USE32 PUBLIC 'CODE'
_TEXT	ENDS
;	COMDAT ?UnregisterAppId@?$CAtlServiceModuleT@VCTMapSvrModule@@$0GE@@ATL@@QAEJXZ
_TEXT	SEGMENT PARA USE32 PUBLIC 'CODE'
_TEXT	ENDS
;	COMDAT ?IsInstalled@?$CAtlServiceModuleT@VCTMapSvrModule@@$0GE@@ATL@@QAEHXZ
_TEXT	SEGMENT PARA USE32 PUBLIC 'CODE'
_TEXT	ENDS
;	COMDAT ?Uninstall@?$CAtlServiceModuleT@VCTMapSvrModule@@$0GE@@ATL@@QAEHXZ
_TEXT	SEGMENT PARA USE32 PUBLIC 'CODE'
_TEXT	ENDS
;	COMDAT ?LogEvent@?$CAtlServiceModuleT@VCTMapSvrModule@@$0GE@@ATL@@QAAXPBDZZ
_TEXT	SEGMENT PARA USE32 PUBLIC 'CODE'
_TEXT	ENDS
;	COMDAT ??1?$CAtlExeModuleT@VCTMapSvrModule@@@ATL@@UAE@XZ
_TEXT	SEGMENT PARA USE32 PUBLIC 'CODE'
_TEXT	ENDS
;	COMDAT ?Unlock@?$CAtlExeModuleT@VCTMapSvrModule@@@ATL@@UAEJXZ
_TEXT	SEGMENT PARA USE32 PUBLIC 'CODE'
_TEXT	ENDS
;	COMDAT ?RegisterServer@?$CAtlModuleT@VCTMapSvrModule@@@ATL@@QAEJHPBU_GUID@@@Z
_TEXT	SEGMENT PARA USE32 PUBLIC 'CODE'
_TEXT	ENDS
;	COMDAT ?UnregisterServer@?$CAtlModuleT@VCTMapSvrModule@@@ATL@@QAEJHPBU_GUID@@@Z
_TEXT	SEGMENT PARA USE32 PUBLIC 'CODE'
_TEXT	ENDS
;	COMDAT ?AddCommonRGSReplacements@?$CAtlModuleT@VCTMapSvrModule@@@ATL@@UAEJPAUIRegistrarBase@@@Z
_TEXT	SEGMENT PARA USE32 PUBLIC 'CODE'
_TEXT	ENDS
;	COMDAT ?begin@?$_Tree@V?$_Tmap_traits@KPAVCTChannel@@U?$less@K@std@@V?$allocator@U?$pair@$$CBKPAVCTChannel@@@std@@@3@$0A@@std@@@std@@QAE?AViterator@12@XZ
_TEXT	SEGMENT PARA USE32 PUBLIC 'CODE'
_TEXT	ENDS
;	COMDAT ?end@?$_Tree@V?$_Tmap_traits@KPAVCTChannel@@U?$less@K@std@@V?$allocator@U?$pair@$$CBKPAVCTChannel@@@std@@@3@$0A@@std@@@std@@QAE?AViterator@12@XZ
_TEXT	SEGMENT PARA USE32 PUBLIC 'CODE'
_TEXT	ENDS
;	COMDAT ?size@?$_Tree@V?$_Tmap_traits@KPAVCTChannel@@U?$less@K@std@@V?$allocator@U?$pair@$$CBKPAVCTChannel@@@std@@@3@$0A@@std@@@std@@QBEIXZ
_TEXT	SEGMENT PARA USE32 PUBLIC 'CODE'
_TEXT	ENDS
;	COMDAT ?end@?$_Tree@V?$_Tmap_traits@GPAUtagARENA@@U?$less@G@std@@V?$allocator@U?$pair@$$CBGPAUtagARENA@@@std@@@3@$0A@@std@@@std@@QAE?AViterator@12@XZ
_TEXT	SEGMENT PARA USE32 PUBLIC 'CODE'
_TEXT	ENDS
;	COMDAT ?find@?$_Tree@V?$_Tmap_traits@GPAUtagARENA@@U?$less@G@std@@V?$allocator@U?$pair@$$CBGPAUtagARENA@@@std@@@3@$0A@@std@@@std@@QAE?AViterator@12@ABG@Z
_TEXT	SEGMENT PARA USE32 PUBLIC 'CODE'
_TEXT	ENDS
;	COMDAT ??0iterator@?$_Tree@V?$_Tmap_traits@KPAVCTChannel@@U?$less@K@std@@V?$allocator@U?$pair@$$CBKPAVCTChannel@@@std@@@3@$0A@@std@@@std@@QAE@XZ
_TEXT	SEGMENT PARA USE32 PUBLIC 'CODE'
_TEXT	ENDS
;	COMDAT ??Diterator@?$_Tree@V?$_Tmap_traits@KPAVCTChannel@@U?$less@K@std@@V?$allocator@U?$pair@$$CBKPAVCTChannel@@@std@@@3@$0A@@std@@@std@@QBEAAU?$pair@$$CBKPAVCTChannel@@@2@XZ
_TEXT	SEGMENT PARA USE32 PUBLIC 'CODE'
_TEXT	ENDS
;	COMDAT ??Eiterator@?$_Tree@V?$_Tmap_traits@KPAVCTChannel@@U?$less@K@std@@V?$allocator@U?$pair@$$CBKPAVCTChannel@@@std@@@3@$0A@@std@@@std@@QAE?AV012@H@Z
_TEXT	SEGMENT PARA USE32 PUBLIC 'CODE'
_TEXT	ENDS
;	COMDAT ??9const_iterator@?$_Tree@V?$_Tmap_traits@KPAVCTChannel@@U?$less@K@std@@V?$allocator@U?$pair@$$CBKPAVCTChannel@@@std@@@3@$0A@@std@@@std@@QBE_NABV012@@Z
_TEXT	SEGMENT PARA USE32 PUBLIC 'CODE'
_TEXT	ENDS
;	COMDAT ??0iterator@?$_Tree@V?$_Tmap_traits@KPAVCTRecallMon@@U?$less@K@std@@V?$allocator@U?$pair@$$CBKPAVCTRecallMon@@@std@@@3@$0A@@std@@@std@@QAE@XZ
_TEXT	SEGMENT PARA USE32 PUBLIC 'CODE'
_TEXT	ENDS
;	COMDAT ??Diterator@?$_Tree@V?$_Tmap_traits@KPAVCTRecallMon@@U?$less@K@std@@V?$allocator@U?$pair@$$CBKPAVCTRecallMon@@@std@@@3@$0A@@std@@@std@@QBEAAU?$pair@$$CBKPAVCTRecallMon@@@2@XZ
_TEXT	SEGMENT PARA USE32 PUBLIC 'CODE'
_TEXT	ENDS
;	COMDAT ??Eiterator@?$_Tree@V?$_Tmap_traits@KPAVCTRecallMon@@U?$less@K@std@@V?$allocator@U?$pair@$$CBKPAVCTRecallMon@@@std@@@3@$0A@@std@@@std@@QAE?AV012@H@Z
_TEXT	SEGMENT PARA USE32 PUBLIC 'CODE'
_TEXT	ENDS
;	COMDAT ??9const_iterator@?$_Tree@V?$_Tmap_traits@KPAVCTRecallMon@@U?$less@K@std@@V?$allocator@U?$pair@$$CBKPAVCTRecallMon@@@std@@@3@$0A@@std@@@std@@QBE_NABV012@@Z
_TEXT	SEGMENT PARA USE32 PUBLIC 'CODE'
_TEXT	ENDS
;	COMDAT ??0iterator@?$_Tree@V?$_Tmap_traits@GPAVCTSkill@@U?$less@G@std@@V?$allocator@U?$pair@$$CBGPAVCTSkill@@@std@@@3@$0A@@std@@@std@@QAE@XZ
_TEXT	SEGMENT PARA USE32 PUBLIC 'CODE'
_TEXT	ENDS
;	COMDAT ??Diterator@?$_Tree@V?$_Tmap_traits@GPAVCTSkill@@U?$less@G@std@@V?$allocator@U?$pair@$$CBGPAVCTSkill@@@std@@@3@$0A@@std@@@std@@QBEAAU?$pair@$$CBGPAVCTSkill@@@2@XZ
_TEXT	SEGMENT PARA USE32 PUBLIC 'CODE'
_TEXT	ENDS
;	COMDAT ??Eiterator@?$_Tree@V?$_Tmap_traits@GPAVCTSkill@@U?$less@G@std@@V?$allocator@U?$pair@$$CBGPAVCTSkill@@@std@@@3@$0A@@std@@@std@@QAE?AV012@H@Z
_TEXT	SEGMENT PARA USE32 PUBLIC 'CODE'
_TEXT	ENDS
;	COMDAT ??9const_iterator@?$_Tree@V?$_Tmap_traits@GPAVCTSkill@@U?$less@G@std@@V?$allocator@U?$pair@$$CBGPAVCTSkill@@@std@@@3@$0A@@std@@@std@@QBE_NABV012@@Z
_TEXT	SEGMENT PARA USE32 PUBLIC 'CODE'
_TEXT	ENDS
;	COMDAT ??Citerator@?$_Tree@V?$_Tmap_traits@GPAUtagARENA@@U?$less@G@std@@V?$allocator@U?$pair@$$CBGPAUtagARENA@@@std@@@3@$0A@@std@@@std@@QBEPAU?$pair@$$CBGPAUtagARENA@@@2@XZ
_TEXT	SEGMENT PARA USE32 PUBLIC 'CODE'
_TEXT	ENDS
;	COMDAT ??9const_iterator@?$_Tree@V?$_Tmap_traits@GPAUtagARENA@@U?$less@G@std@@V?$allocator@U?$pair@$$CBGPAUtagARENA@@@std@@@3@$0A@@std@@@std@@QBE_NABV012@@Z
_TEXT	SEGMENT PARA USE32 PUBLIC 'CODE'
_TEXT	ENDS
;	COMDAT ??0iterator@?$_Tree@V?$_Tmap_traits@EPAVCTInven@@U?$less@E@std@@V?$allocator@U?$pair@$$CBEPAVCTInven@@@std@@@3@$0A@@std@@@std@@QAE@XZ
_TEXT	SEGMENT PARA USE32 PUBLIC 'CODE'
_TEXT	ENDS
;	COMDAT ??Diterator@?$_Tree@V?$_Tmap_traits@EPAVCTInven@@U?$less@E@std@@V?$allocator@U?$pair@$$CBEPAVCTInven@@@std@@@3@$0A@@std@@@std@@QBEAAU?$pair@$$CBEPAVCTInven@@@2@XZ
_TEXT	SEGMENT PARA USE32 PUBLIC 'CODE'
_TEXT	ENDS
;	COMDAT ??Eiterator@?$_Tree@V?$_Tmap_traits@EPAVCTInven@@U?$less@E@std@@V?$allocator@U?$pair@$$CBEPAVCTInven@@@std@@@3@$0A@@std@@@std@@QAE?AV012@H@Z
_TEXT	SEGMENT PARA USE32 PUBLIC 'CODE'
_TEXT	ENDS
;	COMDAT ??9const_iterator@?$_Tree@V?$_Tmap_traits@EPAVCTInven@@U?$less@E@std@@V?$allocator@U?$pair@$$CBEPAVCTInven@@@std@@@3@$0A@@std@@@std@@QBE_NABV012@@Z
_TEXT	SEGMENT PARA USE32 PUBLIC 'CODE'
_TEXT	ENDS
;	COMDAT ??0iterator@?$_Tree@V?$_Tmap_traits@EPAUtagCABINET@@U?$less@E@std@@V?$allocator@U?$pair@$$CBEPAUtagCABINET@@@std@@@3@$0A@@std@@@std@@QAE@XZ
_TEXT	SEGMENT PARA USE32 PUBLIC 'CODE'
_TEXT	ENDS
;	COMDAT ??Diterator@?$_Tree@V?$_Tmap_traits@EPAUtagCABINET@@U?$less@E@std@@V?$allocator@U?$pair@$$CBEPAUtagCABINET@@@std@@@3@$0A@@std@@@std@@QBEAAU?$pair@$$CBEPAUtagCABINET@@@2@XZ
_TEXT	SEGMENT PARA USE32 PUBLIC 'CODE'
_TEXT	ENDS
;	COMDAT ??Eiterator@?$_Tree@V?$_Tmap_traits@EPAUtagCABINET@@U?$less@E@std@@V?$allocator@U?$pair@$$CBEPAUtagCABINET@@@std@@@3@$0A@@std@@@std@@QAE?AV012@H@Z
_TEXT	SEGMENT PARA USE32 PUBLIC 'CODE'
_TEXT	ENDS
;	COMDAT ??9const_iterator@?$_Tree@V?$_Tmap_traits@EPAUtagCABINET@@U?$less@E@std@@V?$allocator@U?$pair@$$CBEPAUtagCABINET@@@std@@@3@$0A@@std@@@std@@QBE_NABV012@@Z
_TEXT	SEGMENT PARA USE32 PUBLIC 'CODE'
_TEXT	ENDS
;	COMDAT ??0iterator@?$_Tree@V?$_Tmap_traits@EPAUtagTMAGIC@@U?$less@E@std@@V?$allocator@U?$pair@$$CBEPAUtagTMAGIC@@@std@@@3@$0A@@std@@@std@@QAE@XZ
_TEXT	SEGMENT PARA USE32 PUBLIC 'CODE'
_TEXT	ENDS
;	COMDAT ??0iterator@?$_Tree@V?$_Tmap_traits@EPAUtagHOTKEYINVEN@@U?$less@E@std@@V?$allocator@U?$pair@$$CBEPAUtagHOTKEYINVEN@@@std@@@3@$0A@@std@@@std@@QAE@XZ
_TEXT	SEGMENT PARA USE32 PUBLIC 'CODE'
_TEXT	ENDS
;	COMDAT ??Diterator@?$_Tree@V?$_Tmap_traits@EPAUtagHOTKEYINVEN@@U?$less@E@std@@V?$allocator@U?$pair@$$CBEPAUtagHOTKEYINVEN@@@std@@@3@$0A@@std@@@std@@QBEAAU?$pair@$$CBEPAUtagHOTKEYINVEN@@@2@XZ
_TEXT	SEGMENT PARA USE32 PUBLIC 'CODE'
_TEXT	ENDS
;	COMDAT ??Eiterator@?$_Tree@V?$_Tmap_traits@EPAUtagHOTKEYINVEN@@U?$less@E@std@@V?$allocator@U?$pair@$$CBEPAUtagHOTKEYINVEN@@@std@@@3@$0A@@std@@@std@@QAE?AV012@H@Z
_TEXT	SEGMENT PARA USE32 PUBLIC 'CODE'
_TEXT	ENDS
;	COMDAT ??9const_iterator@?$_Tree@V?$_Tmap_traits@EPAUtagHOTKEYINVEN@@U?$less@E@std@@V?$allocator@U?$pair@$$CBEPAUtagHOTKEYINVEN@@@std@@@3@$0A@@std@@@std@@QBE_NABV012@@Z
_TEXT	SEGMENT PARA USE32 PUBLIC 'CODE'
_TEXT	ENDS
;	COMDAT ??0iterator@?$_Tree@V?$_Tmap_traits@GPAUtagTDURINGITEM@@U?$less@G@std@@V?$allocator@U?$pair@$$CBGPAUtagTDURINGITEM@@@std@@@3@$0A@@std@@@std@@QAE@XZ
_TEXT	SEGMENT PARA USE32 PUBLIC 'CODE'
_TEXT	ENDS
;	COMDAT ??0iterator@?$_Tree@V?$_Tmap_traits@EPAVCTItem@@U?$less@E@std@@V?$allocator@U?$pair@$$CBEPAVCTItem@@@std@@@3@$0A@@std@@@std@@QAE@XZ
_TEXT	SEGMENT PARA USE32 PUBLIC 'CODE'
_TEXT	ENDS
;	COMDAT ??Diterator@?$_Tree@V?$_Tmap_traits@EPAVCTItem@@U?$less@E@std@@V?$allocator@U?$pair@$$CBEPAVCTItem@@@std@@@3@$0A@@std@@@std@@QBEAAU?$pair@$$CBEPAVCTItem@@@2@XZ
_TEXT	SEGMENT PARA USE32 PUBLIC 'CODE'
_TEXT	ENDS
;	COMDAT ??Eiterator@?$_Tree@V?$_Tmap_traits@EPAVCTItem@@U?$less@E@std@@V?$allocator@U?$pair@$$CBEPAVCTItem@@@std@@@3@$0A@@std@@@std@@QAE?AV012@H@Z
_TEXT	SEGMENT PARA USE32 PUBLIC 'CODE'
_TEXT	ENDS
;	COMDAT ??9const_iterator@?$_Tree@V?$_Tmap_traits@EPAVCTItem@@U?$less@E@std@@V?$allocator@U?$pair@$$CBEPAVCTItem@@@std@@@3@$0A@@std@@@std@@QBE_NABV012@@Z
_TEXT	SEGMENT PARA USE32 PUBLIC 'CODE'
_TEXT	ENDS
;	COMDAT ??0iterator@?$_Tree@V?$_Tmap_traits@KKU?$less@K@std@@V?$allocator@U?$pair@$$CBKK@std@@@2@$0A@@std@@@std@@QAE@XZ
_TEXT	SEGMENT PARA USE32 PUBLIC 'CODE'
_TEXT	ENDS
;	COMDAT ??Diterator@?$_Tree@V?$_Tmap_traits@KKU?$less@K@std@@V?$allocator@U?$pair@$$CBKK@std@@@2@$0A@@std@@@std@@QBEAAU?$pair@$$CBKK@2@XZ
_TEXT	SEGMENT PARA USE32 PUBLIC 'CODE'
_TEXT	ENDS
;	COMDAT ??Eiterator@?$_Tree@V?$_Tmap_traits@KKU?$less@K@std@@V?$allocator@U?$pair@$$CBKK@std@@@2@$0A@@std@@@std@@QAE?AV012@H@Z
_TEXT	SEGMENT PARA USE32 PUBLIC 'CODE'
_TEXT	ENDS
;	COMDAT ??9const_iterator@?$_Tree@V?$_Tmap_traits@KKU?$less@K@std@@V?$allocator@U?$pair@$$CBKK@std@@@2@$0A@@std@@@std@@QBE_NABV012@@Z
_TEXT	SEGMENT PARA USE32 PUBLIC 'CODE'
_TEXT	ENDS
;	COMDAT ??0iterator@?$_Tree@V?$_Tmap_traits@KPAVCQuest@@U?$less@K@std@@V?$allocator@U?$pair@$$CBKPAVCQuest@@@std@@@3@$0A@@std@@@std@@QAE@XZ
_TEXT	SEGMENT PARA USE32 PUBLIC 'CODE'
_TEXT	ENDS
;	COMDAT ??Diterator@?$_Tree@V?$_Tmap_traits@KPAVCQuest@@U?$less@K@std@@V?$allocator@U?$pair@$$CBKPAVCQuest@@@std@@@3@$0A@@std@@@std@@QBEAAU?$pair@$$CBKPAVCQuest@@@2@XZ
_TEXT	SEGMENT PARA USE32 PUBLIC 'CODE'
_TEXT	ENDS
;	COMDAT ??Eiterator@?$_Tree@V?$_Tmap_traits@KPAVCQuest@@U?$less@K@std@@V?$allocator@U?$pair@$$CBKPAVCQuest@@@std@@@3@$0A@@std@@@std@@QAE?AV012@H@Z
_TEXT	SEGMENT PARA USE32 PUBLIC 'CODE'
_TEXT	ENDS
;	COMDAT ??9const_iterator@?$_Tree@V?$_Tmap_traits@KPAVCQuest@@U?$less@K@std@@V?$allocator@U?$pair@$$CBKPAVCQuest@@@std@@@3@$0A@@std@@@std@@QBE_NABV012@@Z
_TEXT	SEGMENT PARA USE32 PUBLIC 'CODE'
_TEXT	ENDS
;	COMDAT ??0iterator@?$_Tree@V?$_Tmap_traits@GPAUtagPET@@U?$less@G@std@@V?$allocator@U?$pair@$$CBGPAUtagPET@@@std@@@3@$0A@@std@@@std@@QAE@XZ
_TEXT	SEGMENT PARA USE32 PUBLIC 'CODE'
_TEXT	ENDS
;	COMDAT ??Diterator@?$_Tree@V?$_Tmap_traits@GPAUtagPET@@U?$less@G@std@@V?$allocator@U?$pair@$$CBGPAUtagPET@@@std@@@3@$0A@@std@@@std@@QBEAAU?$pair@$$CBGPAUtagPET@@@2@XZ
_TEXT	SEGMENT PARA USE32 PUBLIC 'CODE'
_TEXT	ENDS
;	COMDAT ??Eiterator@?$_Tree@V?$_Tmap_traits@GPAUtagPET@@U?$less@G@std@@V?$allocator@U?$pair@$$CBGPAUtagPET@@@std@@@3@$0A@@std@@@std@@QAE?AV012@H@Z
_TEXT	SEGMENT PARA USE32 PUBLIC 'CODE'
_TEXT	ENDS
;	COMDAT ??9const_iterator@?$_Tree@V?$_Tmap_traits@GPAUtagPET@@U?$less@G@std@@V?$allocator@U?$pair@$$CBGPAUtagPET@@@std@@@3@$0A@@std@@@std@@QBE_NABV012@@Z
_TEXT	SEGMENT PARA USE32 PUBLIC 'CODE'
_TEXT	ENDS
;	COMDAT ??0iterator@?$vector@UtagRECORDSET@@V?$allocator@UtagRECORDSET@@@std@@@std@@QAE@XZ
_TEXT	SEGMENT PARA USE32 PUBLIC 'CODE'
_TEXT	ENDS
;	COMDAT ??Diterator@?$vector@UtagRECORDSET@@V?$allocator@UtagRECORDSET@@@std@@@std@@QBEAAUtagRECORDSET@@XZ
_TEXT	SEGMENT PARA USE32 PUBLIC 'CODE'
_TEXT	ENDS
;	COMDAT ??Eiterator@?$vector@UtagRECORDSET@@V?$allocator@UtagRECORDSET@@@std@@@std@@QAE?AV012@H@Z
_TEXT	SEGMENT PARA USE32 PUBLIC 'CODE'
_TEXT	ENDS
;	COMDAT ??9const_iterator@?$vector@UtagRECORDSET@@V?$allocator@UtagRECORDSET@@@std@@@std@@QBE_NABV012@@Z
_TEXT	SEGMENT PARA USE32 PUBLIC 'CODE'
_TEXT	ENDS
;	COMDAT ??0iterator@?$_Tree@V?$_Tmap_traits@KPAUtagPROTECTED@@U?$less@K@std@@V?$allocator@U?$pair@$$CBKPAUtagPROTECTED@@@std@@@3@$0A@@std@@@std@@QAE@XZ
_TEXT	SEGMENT PARA USE32 PUBLIC 'CODE'
_TEXT	ENDS
;	COMDAT ??Diterator@?$_Tree@V?$_Tmap_traits@KPAUtagPROTECTED@@U?$less@K@std@@V?$allocator@U?$pair@$$CBKPAUtagPROTECTED@@@std@@@3@$0A@@std@@@std@@QBEAAU?$pair@$$CBKPAUtagPROTECTED@@@2@XZ
_TEXT	SEGMENT PARA USE32 PUBLIC 'CODE'
_TEXT	ENDS
;	COMDAT ??Eiterator@?$_Tree@V?$_Tmap_traits@KPAUtagPROTECTED@@U?$less@K@std@@V?$allocator@U?$pair@$$CBKPAUtagPROTECTED@@@std@@@3@$0A@@std@@@std@@QAE?AV012@H@Z
_TEXT	SEGMENT PARA USE32 PUBLIC 'CODE'
_TEXT	ENDS
;	COMDAT ??9const_iterator@?$_Tree@V?$_Tmap_traits@KPAUtagPROTECTED@@U?$less@K@std@@V?$allocator@U?$pair@$$CBKPAUtagPROTECTED@@@std@@@3@$0A@@std@@@std@@QBE_NABV012@@Z
_TEXT	SEGMENT PARA USE32 PUBLIC 'CODE'
_TEXT	ENDS
;	COMDAT ??0iterator@?$vector@KV?$allocator@K@std@@@std@@QAE@XZ
_TEXT	SEGMENT PARA USE32 PUBLIC 'CODE'
_TEXT	ENDS
;	COMDAT ??Diterator@?$vector@KV?$allocator@K@std@@@std@@QBEAAKXZ
_TEXT	SEGMENT PARA USE32 PUBLIC 'CODE'
_TEXT	ENDS
;	COMDAT ??Eiterator@?$vector@KV?$allocator@K@std@@@std@@QAE?AV012@H@Z
_TEXT	SEGMENT PARA USE32 PUBLIC 'CODE'
_TEXT	ENDS
;	COMDAT ??9const_iterator@?$vector@KV?$allocator@K@std@@@std@@QBE_NABV012@@Z
_TEXT	SEGMENT PARA USE32 PUBLIC 'CODE'
_TEXT	ENDS
;	COMDAT ?begin@?$_Tree@V?$_Tmap_traits@EEU?$less@E@std@@V?$allocator@U?$pair@$$CBEE@std@@@2@$0A@@std@@@std@@QAE?AViterator@12@XZ
_TEXT	SEGMENT PARA USE32 PUBLIC 'CODE'
_TEXT	ENDS
;	COMDAT ?end@?$_Tree@V?$_Tmap_traits@EEU?$less@E@std@@V?$allocator@U?$pair@$$CBEE@std@@@2@$0A@@std@@@std@@QAE?AViterator@12@XZ
_TEXT	SEGMENT PARA USE32 PUBLIC 'CODE'
_TEXT	ENDS
;	COMDAT ?size@?$_Tree@V?$_Tmap_traits@EEU?$less@E@std@@V?$allocator@U?$pair@$$CBEE@std@@@2@$0A@@std@@@std@@QBEIXZ
_TEXT	SEGMENT PARA USE32 PUBLIC 'CODE'
_TEXT	ENDS
;	COMDAT ??0iterator@?$_Tree@V?$_Tmap_traits@EEU?$less@E@std@@V?$allocator@U?$pair@$$CBEE@std@@@2@$0A@@std@@@std@@QAE@XZ
_TEXT	SEGMENT PARA USE32 PUBLIC 'CODE'
_TEXT	ENDS
;	COMDAT ??Diterator@?$_Tree@V?$_Tmap_traits@EEU?$less@E@std@@V?$allocator@U?$pair@$$CBEE@std@@@2@$0A@@std@@@std@@QBEAAU?$pair@$$CBEE@2@XZ
_TEXT	SEGMENT PARA USE32 PUBLIC 'CODE'
_TEXT	ENDS
;	COMDAT ??Eiterator@?$_Tree@V?$_Tmap_traits@EEU?$less@E@std@@V?$allocator@U?$pair@$$CBEE@std@@@2@$0A@@std@@@std@@QAE?AV012@H@Z
_TEXT	SEGMENT PARA USE32 PUBLIC 'CODE'
_TEXT	ENDS
;	COMDAT ??9const_iterator@?$_Tree@V?$_Tmap_traits@EEU?$less@E@std@@V?$allocator@U?$pair@$$CBEE@std@@@2@$0A@@std@@@std@@QBE_NABV012@@Z
_TEXT	SEGMENT PARA USE32 PUBLIC 'CODE'
_TEXT	ENDS
;	COMDAT ??0iterator@?$_Tree@V?$_Tmap_traits@GPAUtagLOCAL@@U?$less@G@std@@V?$allocator@U?$pair@$$CBGPAUtagLOCAL@@@std@@@3@$0A@@std@@@std@@QAE@XZ
_TEXT	SEGMENT PARA USE32 PUBLIC 'CODE'
_TEXT	ENDS
;	COMDAT ??Diterator@?$_Tree@V?$_Tmap_traits@GPAUtagLOCAL@@U?$less@G@std@@V?$allocator@U?$pair@$$CBGPAUtagLOCAL@@@std@@@3@$0A@@std@@@std@@QBEAAU?$pair@$$CBGPAUtagLOCAL@@@2@XZ
_TEXT	SEGMENT PARA USE32 PUBLIC 'CODE'
_TEXT	ENDS
;	COMDAT ??Eiterator@?$_Tree@V?$_Tmap_traits@GPAUtagLOCAL@@U?$less@G@std@@V?$allocator@U?$pair@$$CBGPAUtagLOCAL@@@std@@@3@$0A@@std@@@std@@QAE?AV012@H@Z
_TEXT	SEGMENT PARA USE32 PUBLIC 'CODE'
_TEXT	ENDS
;	COMDAT ??9const_iterator@?$_Tree@V?$_Tmap_traits@GPAUtagLOCAL@@U?$less@G@std@@V?$allocator@U?$pair@$$CBGPAUtagLOCAL@@@std@@@3@$0A@@std@@@std@@QBE_NABV012@@Z
_TEXT	SEGMENT PARA USE32 PUBLIC 'CODE'
_TEXT	ENDS
;	COMDAT ??Diterator@?$_Tree@V?$_Tmap_traits@KPAVCTPlayer@@U?$less@K@std@@V?$allocator@U?$pair@$$CBKPAVCTPlayer@@@std@@@3@$0A@@std@@@std@@QBEAAU?$pair@$$CBKPAVCTPlayer@@@2@XZ
_TEXT	SEGMENT PARA USE32 PUBLIC 'CODE'
_TEXT	ENDS
;	COMDAT ??8const_iterator@?$_Tree@V?$_Tmap_traits@KPAVCTPlayer@@U?$less@K@std@@V?$allocator@U?$pair@$$CBKPAVCTPlayer@@@std@@@3@$0A@@std@@@std@@QBE_NABV012@@Z
_TEXT	SEGMENT PARA USE32 PUBLIC 'CODE'
_TEXT	ENDS
;	COMDAT ??_G?$CAtlExeModuleT@VCTMapSvrModule@@@ATL@@UAEPAXI@Z
_TEXT	SEGMENT PARA USE32 PUBLIC 'CODE'
_TEXT	ENDS
;	COMDAT ??1?$CAtlModuleT@VCTMapSvrModule@@@ATL@@UAE@XZ
_TEXT	SEGMENT PARA USE32 PUBLIC 'CODE'
_TEXT	ENDS
;	COMDAT ??0?$CStringT@DV?$StrTraitATL@DV?$ChTraitsCRT@D@ATL@@@ATL@@@ATL@@QAE@PAUIAtlStringMgr@1@@Z
_TEXT	SEGMENT PARA USE32 PUBLIC 'CODE'
_TEXT	ENDS
;	COMDAT ?Mid@?$CStringT@DV?$StrTraitATL@DV?$ChTraitsCRT@D@ATL@@@ATL@@@ATL@@QBE?AV12@HH@Z
_TEXT	SEGMENT PARA USE32 PUBLIC 'CODE'
_TEXT	ENDS
;	COMDAT ?FormatV@?$CStringT@DV?$StrTraitATL@DV?$ChTraitsCRT@D@ATL@@@ATL@@@ATL@@QAEXPBDPAD@Z
_TEXT	SEGMENT PARA USE32 PUBLIC 'CODE'
_TEXT	ENDS
;	COMDAT ?GetManager@?$CSimpleStringT@D$0A@@ATL@@QBEPAUIAtlStringMgr@2@XZ
_TEXT	SEGMENT PARA USE32 PUBLIC 'CODE'
_TEXT	ENDS
;	COMDAT ?StringSpanIncluding@?$ChTraitsCRT@D@ATL@@SAHPBD0@Z
_TEXT	SEGMENT PARA USE32 PUBLIC 'CODE'
_TEXT	ENDS
;	COMDAT ?StringSpanExcluding@?$ChTraitsCRT@D@ATL@@SAHPBD0@Z
_TEXT	SEGMENT PARA USE32 PUBLIC 'CODE'
_TEXT	ENDS
;	COMDAT ??R?$less@G@std@@QBE_NABG0@Z
_TEXT	SEGMENT PARA USE32 PUBLIC 'CODE'
_TEXT	ENDS
;	COMDAT ??R?$less@K@std@@QBE_NABK0@Z
_TEXT	SEGMENT PARA USE32 PUBLIC 'CODE'
_TEXT	ENDS
;	COMDAT ?_Lmost@?$_Tree@V?$_Tmap_traits@GPAUtagLOCAL@@U?$less@G@std@@V?$allocator@U?$pair@$$CBGPAUtagLOCAL@@@std@@@3@$0A@@std@@@std@@IAEAAPAU_Node@?$_Tree_nod@V?$_Tmap_traits@GPAUtagLOCAL@@U?$less@G@std@@V?$allocator@U?$pair@$$CBGPAUtagLOCAL@@@std@@@3@$0A@@std@@@2@XZ
_TEXT	SEGMENT PARA USE32 PUBLIC 'CODE'
_TEXT	ENDS
;	COMDAT ?_Lmost@?$_Tree@V?$_Tmap_traits@KKU?$less@K@std@@V?$allocator@U?$pair@$$CBKK@std@@@2@$0A@@std@@@std@@IAEAAPAU_Node@?$_Tree_nod@V?$_Tmap_traits@KKU?$less@K@std@@V?$allocator@U?$pair@$$CBKK@std@@@2@$0A@@std@@@2@XZ
_TEXT	SEGMENT PARA USE32 PUBLIC 'CODE'
_TEXT	ENDS
;	COMDAT ?begin@?$vector@PAVCTPlayer@@V?$allocator@PAVCTPlayer@@@std@@@std@@QAE?AViterator@12@XZ
_TEXT	SEGMENT PARA USE32 PUBLIC 'CODE'
_TEXT	ENDS
;	COMDAT ?begin@?$vector@PAVCTItem@@V?$allocator@PAVCTItem@@@std@@@std@@QAE?AViterator@12@XZ
_TEXT	SEGMENT PARA USE32 PUBLIC 'CODE'
_TEXT	ENDS
;	COMDAT ?end@?$vector@PAVCTItem@@V?$allocator@PAVCTItem@@@std@@@std@@QAE?AViterator@12@XZ
_TEXT	SEGMENT PARA USE32 PUBLIC 'CODE'
_TEXT	ENDS
;	COMDAT ?_Destroy@?$vector@PAVCTItem@@V?$allocator@PAVCTItem@@@std@@@std@@IAEXPAPAVCTItem@@0@Z
_TEXT	SEGMENT PARA USE32 PUBLIC 'CODE'
_TEXT	ENDS
;	COMDAT ?begin@?$vector@PAUtagQUESTTERM@@V?$allocator@PAUtagQUESTTERM@@@std@@@std@@QAE?AViterator@12@XZ
_TEXT	SEGMENT PARA USE32 PUBLIC 'CODE'
_TEXT	ENDS
;	COMDAT ?_Key@?$_Tree@V?$_Tmap_traits@KPAVCTPlayer@@U?$less@K@std@@V?$allocator@U?$pair@$$CBKPAVCTPlayer@@@std@@@3@$0A@@std@@@std@@KAABKPAU_Node@?$_Tree_nod@V?$_Tmap_traits@KPAVCTPlayer@@U?$less@K@std@@V?$allocator@U?$pair@$$CBKPAVCTPlayer@@@std@@@3@$0A@@std@@@2@@Z
_TEXT	SEGMENT PARA USE32 PUBLIC 'CODE'
_TEXT	ENDS
;	COMDAT ?lower_bound@?$_Tree@V?$_Tmap_traits@KPAVCTPlayer@@U?$less@K@std@@V?$allocator@U?$pair@$$CBKPAVCTPlayer@@@std@@@3@$0A@@std@@@std@@QAE?AViterator@12@ABK@Z
_TEXT	SEGMENT PARA USE32 PUBLIC 'CODE'
_TEXT	ENDS
;	COMDAT ?_Lmost@?$_Tree@V?$_Tmap_traits@EPAVCTInven@@U?$less@E@std@@V?$allocator@U?$pair@$$CBEPAVCTInven@@@std@@@3@$0A@@std@@@std@@IAEAAPAU_Node@?$_Tree_nod@V?$_Tmap_traits@EPAVCTInven@@U?$less@E@std@@V?$allocator@U?$pair@$$CBEPAVCTInven@@@std@@@3@$0A@@std@@@2@XZ
_TEXT	SEGMENT PARA USE32 PUBLIC 'CODE'
_TEXT	ENDS
;	COMDAT ?_Lmost@?$_Tree@V?$_Tmap_traits@GPAVCTSkill@@U?$less@G@std@@V?$allocator@U?$pair@$$CBGPAVCTSkill@@@std@@@3@$0A@@std@@@std@@IAEAAPAU_Node@?$_Tree_nod@V?$_Tmap_traits@GPAVCTSkill@@U?$less@G@std@@V?$allocator@U?$pair@$$CBGPAVCTSkill@@@std@@@3@$0A@@std@@@2@XZ
_TEXT	SEGMENT PARA USE32 PUBLIC 'CODE'
_TEXT	ENDS
;	COMDAT ?begin@?$vector@PAVCTSkill@@V?$allocator@PAVCTSkill@@@std@@@std@@QAE?AViterator@12@XZ
_TEXT	SEGMENT PARA USE32 PUBLIC 'CODE'
_TEXT	ENDS
;	COMDAT ?_Lmost@?$_Tree@V?$_Tmap_traits@EPAVCTItem@@U?$less@E@std@@V?$allocator@U?$pair@$$CBEPAVCTItem@@@std@@@3@$0A@@std@@@std@@IAEAAPAU_Node@?$_Tree_nod@V?$_Tmap_traits@EPAVCTItem@@U?$less@E@std@@V?$allocator@U?$pair@$$CBEPAVCTItem@@@std@@@3@$0A@@std@@@2@XZ
_TEXT	SEGMENT PARA USE32 PUBLIC 'CODE'
_TEXT	ENDS
;	COMDAT ?_Lmost@?$_Tree@V?$_Tmap_traits@EPAUtagHOTKEYINVEN@@U?$less@E@std@@V?$allocator@U?$pair@$$CBEPAUtagHOTKEYINVEN@@@std@@@3@$0A@@std@@@std@@IAEAAPAU_Node@?$_Tree_nod@V?$_Tmap_traits@EPAUtagHOTKEYINVEN@@U?$less@E@std@@V?$allocator@U?$pair@$$CBEPAUtagHOTKEYINVEN@@@std@@@3@$0A@@std@@@2@XZ
_TEXT	SEGMENT PARA USE32 PUBLIC 'CODE'
_TEXT	ENDS
;	COMDAT ?_Lmost@?$_Tree@V?$_Tmap_traits@EPAUtagCABINET@@U?$less@E@std@@V?$allocator@U?$pair@$$CBEPAUtagCABINET@@@std@@@3@$0A@@std@@@std@@IAEAAPAU_Node@?$_Tree_nod@V?$_Tmap_traits@EPAUtagCABINET@@U?$less@E@std@@V?$allocator@U?$pair@$$CBEPAUtagCABINET@@@std@@@3@$0A@@std@@@2@XZ
_TEXT	SEGMENT PARA USE32 PUBLIC 'CODE'
_TEXT	ENDS
;	COMDAT ?_Lmost@?$_Tree@V?$_Tmap_traits@KPAVCTRecallMon@@U?$less@K@std@@V?$allocator@U?$pair@$$CBKPAVCTRecallMon@@@std@@@3@$0A@@std@@@std@@IAEAAPAU_Node@?$_Tree_nod@V?$_Tmap_traits@KPAVCTRecallMon@@U?$less@K@std@@V?$allocator@U?$pair@$$CBKPAVCTRecallMon@@@std@@@3@$0A@@std@@@2@XZ
_TEXT	SEGMENT PARA USE32 PUBLIC 'CODE'
_TEXT	ENDS
;	COMDAT ?_Lmost@?$_Tree@V?$_Tmap_traits@GPAUtagPET@@U?$less@G@std@@V?$allocator@U?$pair@$$CBGPAUtagPET@@@std@@@3@$0A@@std@@@std@@IAEAAPAU_Node@?$_Tree_nod@V?$_Tmap_traits@GPAUtagPET@@U?$less@G@std@@V?$allocator@U?$pair@$$CBGPAUtagPET@@@std@@@3@$0A@@std@@@2@XZ
_TEXT	SEGMENT PARA USE32 PUBLIC 'CODE'
_TEXT	ENDS
;	COMDAT ?_Lmost@?$_Tree@V?$_Tmap_traits@KPAUtagPROTECTED@@U?$less@K@std@@V?$allocator@U?$pair@$$CBKPAUtagPROTECTED@@@std@@@3@$0A@@std@@@std@@IAEAAPAU_Node@?$_Tree_nod@V?$_Tmap_traits@KPAUtagPROTECTED@@U?$less@K@std@@V?$allocator@U?$pair@$$CBKPAUtagPROTECTED@@@std@@@3@$0A@@std@@@2@XZ
_TEXT	SEGMENT PARA USE32 PUBLIC 'CODE'
_TEXT	ENDS
;	COMDAT ?_Lmost@?$_Tree@V?$_Tmap_traits@KPAVCQuest@@U?$less@K@std@@V?$allocator@U?$pair@$$CBKPAVCQuest@@@std@@@3@$0A@@std@@@std@@IAEAAPAU_Node@?$_Tree_nod@V?$_Tmap_traits@KPAVCQuest@@U?$less@K@std@@V?$allocator@U?$pair@$$CBKPAVCQuest@@@std@@@3@$0A@@std@@@2@XZ
_TEXT	SEGMENT PARA USE32 PUBLIC 'CODE'
_TEXT	ENDS
;	COMDAT ?_Tidy@?$vector@KV?$allocator@K@std@@@std@@IAEXXZ
_TEXT	SEGMENT PARA USE32 PUBLIC 'CODE'
_TEXT	ENDS
;	COMDAT ??Hiterator@?$vector@PAUtagQUESTTERM@@V?$allocator@PAUtagQUESTTERM@@@std@@@std@@QBE?AV012@H@Z
_TEXT	SEGMENT PARA USE32 PUBLIC 'CODE'
_TEXT	ENDS
;	COMDAT ??0const_iterator@?$_Tree@V?$_Tmap_traits@KPAVCTItem@@U?$less@K@std@@V?$allocator@U?$pair@$$CBKPAVCTItem@@@std@@@3@$0A@@std@@@std@@QAE@XZ
_TEXT	SEGMENT PARA USE32 PUBLIC 'CODE'
_TEXT	ENDS
;	COMDAT ??Dconst_iterator@?$_Tree@V?$_Tmap_traits@KPAVCTItem@@U?$less@K@std@@V?$allocator@U?$pair@$$CBKPAVCTItem@@@std@@@3@$0A@@std@@@std@@QBEABU?$pair@$$CBKPAVCTItem@@@2@XZ
_TEXT	SEGMENT PARA USE32 PUBLIC 'CODE'
_TEXT	ENDS
;	COMDAT ?UninitializeCom@?$CAtlExeModuleT@VCTMapSvrModule@@@ATL@@SAXXZ
_TEXT	SEGMENT PARA USE32 PUBLIC 'CODE'
_TEXT	ENDS
;	COMDAT ?_Lmost@?$_Tree@V?$_Tmap_traits@KPAVCTChannel@@U?$less@K@std@@V?$allocator@U?$pair@$$CBKPAVCTChannel@@@std@@@3@$0A@@std@@@std@@IAEAAPAU_Node@?$_Tree_nod@V?$_Tmap_traits@KPAVCTChannel@@U?$less@K@std@@V?$allocator@U?$pair@$$CBKPAVCTChannel@@@std@@@3@$0A@@std@@@2@XZ
_TEXT	SEGMENT PARA USE32 PUBLIC 'CODE'
_TEXT	ENDS
;	COMDAT ?_Key@?$_Tree@V?$_Tmap_traits@GPAUtagARENA@@U?$less@G@std@@V?$allocator@U?$pair@$$CBGPAUtagARENA@@@std@@@3@$0A@@std@@@std@@KAABGPAU_Node@?$_Tree_nod@V?$_Tmap_traits@GPAUtagARENA@@U?$less@G@std@@V?$allocator@U?$pair@$$CBGPAUtagARENA@@@std@@@3@$0A@@std@@@2@@Z
_TEXT	SEGMENT PARA USE32 PUBLIC 'CODE'
_TEXT	ENDS
;	COMDAT ?lower_bound@?$_Tree@V?$_Tmap_traits@GPAUtagARENA@@U?$less@G@std@@V?$allocator@U?$pair@$$CBGPAUtagARENA@@@std@@@3@$0A@@std@@@std@@QAE?AViterator@12@ABG@Z
_TEXT	SEGMENT PARA USE32 PUBLIC 'CODE'
_TEXT	ENDS
;	COMDAT ??0iterator@?$_Tree@V?$_Tmap_traits@KPAVCTChannel@@U?$less@K@std@@V?$allocator@U?$pair@$$CBKPAVCTChannel@@@std@@@3@$0A@@std@@@std@@QAE@PAU_Node@?$_Tree_nod@V?$_Tmap_traits@KPAVCTChannel@@U?$less@K@std@@V?$allocator@U?$pair@$$CBKPAVCTChannel@@@std@@@3@$0A@@std@@@2@@Z
_TEXT	SEGMENT PARA USE32 PUBLIC 'CODE'
_TEXT	ENDS
;	COMDAT ??Eiterator@?$_Tree@V?$_Tmap_traits@KPAVCTChannel@@U?$less@K@std@@V?$allocator@U?$pair@$$CBKPAVCTChannel@@@std@@@3@$0A@@std@@@std@@QAEAAV012@XZ
_TEXT	SEGMENT PARA USE32 PUBLIC 'CODE'
_TEXT	ENDS
;	COMDAT ??0const_iterator@?$_Tree@V?$_Tmap_traits@KPAVCTChannel@@U?$less@K@std@@V?$allocator@U?$pair@$$CBKPAVCTChannel@@@std@@@3@$0A@@std@@@std@@QAE@XZ
_TEXT	SEGMENT PARA USE32 PUBLIC 'CODE'
_TEXT	ENDS
;	COMDAT ??Dconst_iterator@?$_Tree@V?$_Tmap_traits@KPAVCTChannel@@U?$less@K@std@@V?$allocator@U?$pair@$$CBKPAVCTChannel@@@std@@@3@$0A@@std@@@std@@QBEABU?$pair@$$CBKPAVCTChannel@@@2@XZ
_TEXT	SEGMENT PARA USE32 PUBLIC 'CODE'
_TEXT	ENDS
;	COMDAT ??8const_iterator@?$_Tree@V?$_Tmap_traits@KPAVCTChannel@@U?$less@K@std@@V?$allocator@U?$pair@$$CBKPAVCTChannel@@@std@@@3@$0A@@std@@@std@@QBE_NABV012@@Z
_TEXT	SEGMENT PARA USE32 PUBLIC 'CODE'
_TEXT	ENDS
;	COMDAT ??0iterator@?$_Tree@V?$_Tmap_traits@KPAVCTRecallMon@@U?$less@K@std@@V?$allocator@U?$pair@$$CBKPAVCTRecallMon@@@std@@@3@$0A@@std@@@std@@QAE@PAU_Node@?$_Tree_nod@V?$_Tmap_traits@KPAVCTRecallMon@@U?$less@K@std@@V?$allocator@U?$pair@$$CBKPAVCTRecallMon@@@std@@@3@$0A@@std@@@2@@Z
_TEXT	SEGMENT PARA USE32 PUBLIC 'CODE'
_TEXT	ENDS
;	COMDAT ??Eiterator@?$_Tree@V?$_Tmap_traits@KPAVCTRecallMon@@U?$less@K@std@@V?$allocator@U?$pair@$$CBKPAVCTRecallMon@@@std@@@3@$0A@@std@@@std@@QAEAAV012@XZ
_TEXT	SEGMENT PARA USE32 PUBLIC 'CODE'
_TEXT	ENDS
;	COMDAT ??0const_iterator@?$_Tree@V?$_Tmap_traits@KPAVCTRecallMon@@U?$less@K@std@@V?$allocator@U?$pair@$$CBKPAVCTRecallMon@@@std@@@3@$0A@@std@@@std@@QAE@XZ
_TEXT	SEGMENT PARA USE32 PUBLIC 'CODE'
_TEXT	ENDS
;	COMDAT ??Dconst_iterator@?$_Tree@V?$_Tmap_traits@KPAVCTRecallMon@@U?$less@K@std@@V?$allocator@U?$pair@$$CBKPAVCTRecallMon@@@std@@@3@$0A@@std@@@std@@QBEABU?$pair@$$CBKPAVCTRecallMon@@@2@XZ
_TEXT	SEGMENT PARA USE32 PUBLIC 'CODE'
_TEXT	ENDS
;	COMDAT ??8const_iterator@?$_Tree@V?$_Tmap_traits@KPAVCTRecallMon@@U?$less@K@std@@V?$allocator@U?$pair@$$CBKPAVCTRecallMon@@@std@@@3@$0A@@std@@@std@@QBE_NABV012@@Z
_TEXT	SEGMENT PARA USE32 PUBLIC 'CODE'
_TEXT	ENDS
;	COMDAT ??0iterator@?$_Tree@V?$_Tmap_traits@GPAVCTSkill@@U?$less@G@std@@V?$allocator@U?$pair@$$CBGPAVCTSkill@@@std@@@3@$0A@@std@@@std@@QAE@PAU_Node@?$_Tree_nod@V?$_Tmap_traits@GPAVCTSkill@@U?$less@G@std@@V?$allocator@U?$pair@$$CBGPAVCTSkill@@@std@@@3@$0A@@std@@@2@@Z
_TEXT	SEGMENT PARA USE32 PUBLIC 'CODE'
_TEXT	ENDS
;	COMDAT ??Eiterator@?$_Tree@V?$_Tmap_traits@GPAVCTSkill@@U?$less@G@std@@V?$allocator@U?$pair@$$CBGPAVCTSkill@@@std@@@3@$0A@@std@@@std@@QAEAAV012@XZ
_TEXT	SEGMENT PARA USE32 PUBLIC 'CODE'
_TEXT	ENDS
;	COMDAT ??0const_iterator@?$_Tree@V?$_Tmap_traits@GPAVCTSkill@@U?$less@G@std@@V?$allocator@U?$pair@$$CBGPAVCTSkill@@@std@@@3@$0A@@std@@@std@@QAE@XZ
_TEXT	SEGMENT PARA USE32 PUBLIC 'CODE'
_TEXT	ENDS
;	COMDAT ??Dconst_iterator@?$_Tree@V?$_Tmap_traits@GPAVCTSkill@@U?$less@G@std@@V?$allocator@U?$pair@$$CBGPAVCTSkill@@@std@@@3@$0A@@std@@@std@@QBEABU?$pair@$$CBGPAVCTSkill@@@2@XZ
_TEXT	SEGMENT PARA USE32 PUBLIC 'CODE'
_TEXT	ENDS
;	COMDAT ??8const_iterator@?$_Tree@V?$_Tmap_traits@GPAVCTSkill@@U?$less@G@std@@V?$allocator@U?$pair@$$CBGPAVCTSkill@@@std@@@3@$0A@@std@@@std@@QBE_NABV012@@Z
_TEXT	SEGMENT PARA USE32 PUBLIC 'CODE'
_TEXT	ENDS
;	COMDAT ??0iterator@?$_Tree@V?$_Tmap_traits@GPAUtagARENA@@U?$less@G@std@@V?$allocator@U?$pair@$$CBGPAUtagARENA@@@std@@@3@$0A@@std@@@std@@QAE@PAU_Node@?$_Tree_nod@V?$_Tmap_traits@GPAUtagARENA@@U?$less@G@std@@V?$allocator@U?$pair@$$CBGPAUtagARENA@@@std@@@3@$0A@@std@@@2@@Z
_TEXT	SEGMENT PARA USE32 PUBLIC 'CODE'
_TEXT	ENDS
;	COMDAT ??Diterator@?$_Tree@V?$_Tmap_traits@GPAUtagARENA@@U?$less@G@std@@V?$allocator@U?$pair@$$CBGPAUtagARENA@@@std@@@3@$0A@@std@@@std@@QBEAAU?$pair@$$CBGPAUtagARENA@@@2@XZ
_TEXT	SEGMENT PARA USE32 PUBLIC 'CODE'
_TEXT	ENDS
;	COMDAT ??8const_iterator@?$_Tree@V?$_Tmap_traits@GPAUtagARENA@@U?$less@G@std@@V?$allocator@U?$pair@$$CBGPAUtagARENA@@@std@@@3@$0A@@std@@@std@@QBE_NABV012@@Z
_TEXT	SEGMENT PARA USE32 PUBLIC 'CODE'
_TEXT	ENDS
;	COMDAT ?_Mynode@const_iterator@?$_Tree@V?$_Tmap_traits@GPAUtagARENA@@U?$less@G@std@@V?$allocator@U?$pair@$$CBGPAUtagARENA@@@std@@@3@$0A@@std@@@std@@QBEPAU_Node@?$_Tree_nod@V?$_Tmap_traits@GPAUtagARENA@@U?$less@G@std@@V?$allocator@U?$pair@$$CBGPAUtagARENA@@@std@@@3@$0A@@std@@@3@XZ
_TEXT	SEGMENT PARA USE32 PUBLIC 'CODE'
_TEXT	ENDS
;	COMDAT ??0iterator@?$_Tree@V?$_Tmap_traits@EPAVCTInven@@U?$less@E@std@@V?$allocator@U?$pair@$$CBEPAVCTInven@@@std@@@3@$0A@@std@@@std@@QAE@PAU_Node@?$_Tree_nod@V?$_Tmap_traits@EPAVCTInven@@U?$less@E@std@@V?$allocator@U?$pair@$$CBEPAVCTInven@@@std@@@3@$0A@@std@@@2@@Z
_TEXT	SEGMENT PARA USE32 PUBLIC 'CODE'
_TEXT	ENDS
;	COMDAT ??Eiterator@?$_Tree@V?$_Tmap_traits@EPAVCTInven@@U?$less@E@std@@V?$allocator@U?$pair@$$CBEPAVCTInven@@@std@@@3@$0A@@std@@@std@@QAEAAV012@XZ
_TEXT	SEGMENT PARA USE32 PUBLIC 'CODE'
_TEXT	ENDS
;	COMDAT ??0const_iterator@?$_Tree@V?$_Tmap_traits@EPAVCTInven@@U?$less@E@std@@V?$allocator@U?$pair@$$CBEPAVCTInven@@@std@@@3@$0A@@std@@@std@@QAE@XZ
_TEXT	SEGMENT PARA USE32 PUBLIC 'CODE'
_TEXT	ENDS
;	COMDAT ??Dconst_iterator@?$_Tree@V?$_Tmap_traits@EPAVCTInven@@U?$less@E@std@@V?$allocator@U?$pair@$$CBEPAVCTInven@@@std@@@3@$0A@@std@@@std@@QBEABU?$pair@$$CBEPAVCTInven@@@2@XZ
_TEXT	SEGMENT PARA USE32 PUBLIC 'CODE'
_TEXT	ENDS
;	COMDAT ??8const_iterator@?$_Tree@V?$_Tmap_traits@EPAVCTInven@@U?$less@E@std@@V?$allocator@U?$pair@$$CBEPAVCTInven@@@std@@@3@$0A@@std@@@std@@QBE_NABV012@@Z
_TEXT	SEGMENT PARA USE32 PUBLIC 'CODE'
_TEXT	ENDS
;	COMDAT ??0iterator@?$_Tree@V?$_Tmap_traits@EPAUtagCABINET@@U?$less@E@std@@V?$allocator@U?$pair@$$CBEPAUtagCABINET@@@std@@@3@$0A@@std@@@std@@QAE@PAU_Node@?$_Tree_nod@V?$_Tmap_traits@EPAUtagCABINET@@U?$less@E@std@@V?$allocator@U?$pair@$$CBEPAUtagCABINET@@@std@@@3@$0A@@std@@@2@@Z
_TEXT	SEGMENT PARA USE32 PUBLIC 'CODE'
_TEXT	ENDS
;	COMDAT ??Eiterator@?$_Tree@V?$_Tmap_traits@EPAUtagCABINET@@U?$less@E@std@@V?$allocator@U?$pair@$$CBEPAUtagCABINET@@@std@@@3@$0A@@std@@@std@@QAEAAV012@XZ
_TEXT	SEGMENT PARA USE32 PUBLIC 'CODE'
_TEXT	ENDS
;	COMDAT ??0const_iterator@?$_Tree@V?$_Tmap_traits@EPAUtagCABINET@@U?$less@E@std@@V?$allocator@U?$pair@$$CBEPAUtagCABINET@@@std@@@3@$0A@@std@@@std@@QAE@XZ
_TEXT	SEGMENT PARA USE32 PUBLIC 'CODE'
_TEXT	ENDS
;	COMDAT ??Dconst_iterator@?$_Tree@V?$_Tmap_traits@EPAUtagCABINET@@U?$less@E@std@@V?$allocator@U?$pair@$$CBEPAUtagCABINET@@@std@@@3@$0A@@std@@@std@@QBEABU?$pair@$$CBEPAUtagCABINET@@@2@XZ
_TEXT	SEGMENT PARA USE32 PUBLIC 'CODE'
_TEXT	ENDS
;	COMDAT ??8const_iterator@?$_Tree@V?$_Tmap_traits@EPAUtagCABINET@@U?$less@E@std@@V?$allocator@U?$pair@$$CBEPAUtagCABINET@@@std@@@3@$0A@@std@@@std@@QBE_NABV012@@Z
_TEXT	SEGMENT PARA USE32 PUBLIC 'CODE'
_TEXT	ENDS
;	COMDAT ??0const_iterator@?$_Tree@V?$_Tmap_traits@EPAUtagTMAGIC@@U?$less@E@std@@V?$allocator@U?$pair@$$CBEPAUtagTMAGIC@@@std@@@3@$0A@@std@@@std@@QAE@XZ
_TEXT	SEGMENT PARA USE32 PUBLIC 'CODE'
_TEXT	ENDS
;	COMDAT ??0iterator@?$_Tree@V?$_Tmap_traits@EPAUtagHOTKEYINVEN@@U?$less@E@std@@V?$allocator@U?$pair@$$CBEPAUtagHOTKEYINVEN@@@std@@@3@$0A@@std@@@std@@QAE@PAU_Node@?$_Tree_nod@V?$_Tmap_traits@EPAUtagHOTKEYINVEN@@U?$less@E@std@@V?$allocator@U?$pair@$$CBEPAUtagHOTKEYINVEN@@@std@@@3@$0A@@std@@@2@@Z
_TEXT	SEGMENT PARA USE32 PUBLIC 'CODE'
_TEXT	ENDS
;	COMDAT ??Eiterator@?$_Tree@V?$_Tmap_traits@EPAUtagHOTKEYINVEN@@U?$less@E@std@@V?$allocator@U?$pair@$$CBEPAUtagHOTKEYINVEN@@@std@@@3@$0A@@std@@@std@@QAEAAV012@XZ
_TEXT	SEGMENT PARA USE32 PUBLIC 'CODE'
_TEXT	ENDS
;	COMDAT ??0const_iterator@?$_Tree@V?$_Tmap_traits@EPAUtagHOTKEYINVEN@@U?$less@E@std@@V?$allocator@U?$pair@$$CBEPAUtagHOTKEYINVEN@@@std@@@3@$0A@@std@@@std@@QAE@XZ
_TEXT	SEGMENT PARA USE32 PUBLIC 'CODE'
_TEXT	ENDS
;	COMDAT ??Dconst_iterator@?$_Tree@V?$_Tmap_traits@EPAUtagHOTKEYINVEN@@U?$less@E@std@@V?$allocator@U?$pair@$$CBEPAUtagHOTKEYINVEN@@@std@@@3@$0A@@std@@@std@@QBEABU?$pair@$$CBEPAUtagHOTKEYINVEN@@@2@XZ
_TEXT	SEGMENT PARA USE32 PUBLIC 'CODE'
_TEXT	ENDS
;	COMDAT ??8const_iterator@?$_Tree@V?$_Tmap_traits@EPAUtagHOTKEYINVEN@@U?$less@E@std@@V?$allocator@U?$pair@$$CBEPAUtagHOTKEYINVEN@@@std@@@3@$0A@@std@@@std@@QBE_NABV012@@Z
_TEXT	SEGMENT PARA USE32 PUBLIC 'CODE'
_TEXT	ENDS
;	COMDAT ??0const_iterator@?$_Tree@V?$_Tmap_traits@GPAUtagTDURINGITEM@@U?$less@G@std@@V?$allocator@U?$pair@$$CBGPAUtagTDURINGITEM@@@std@@@3@$0A@@std@@@std@@QAE@XZ
_TEXT	SEGMENT PARA USE32 PUBLIC 'CODE'
_TEXT	ENDS
;	COMDAT ??0iterator@?$_Tree@V?$_Tmap_traits@EPAVCTItem@@U?$less@E@std@@V?$allocator@U?$pair@$$CBEPAVCTItem@@@std@@@3@$0A@@std@@@std@@QAE@PAU_Node@?$_Tree_nod@V?$_Tmap_traits@EPAVCTItem@@U?$less@E@std@@V?$allocator@U?$pair@$$CBEPAVCTItem@@@std@@@3@$0A@@std@@@2@@Z
_TEXT	SEGMENT PARA USE32 PUBLIC 'CODE'
_TEXT	ENDS
;	COMDAT ??Eiterator@?$_Tree@V?$_Tmap_traits@EPAVCTItem@@U?$less@E@std@@V?$allocator@U?$pair@$$CBEPAVCTItem@@@std@@@3@$0A@@std@@@std@@QAEAAV012@XZ
_TEXT	SEGMENT PARA USE32 PUBLIC 'CODE'
_TEXT	ENDS
;	COMDAT ??0const_iterator@?$_Tree@V?$_Tmap_traits@EPAVCTItem@@U?$less@E@std@@V?$allocator@U?$pair@$$CBEPAVCTItem@@@std@@@3@$0A@@std@@@std@@QAE@XZ
_TEXT	SEGMENT PARA USE32 PUBLIC 'CODE'
_TEXT	ENDS
;	COMDAT ??Dconst_iterator@?$_Tree@V?$_Tmap_traits@EPAVCTItem@@U?$less@E@std@@V?$allocator@U?$pair@$$CBEPAVCTItem@@@std@@@3@$0A@@std@@@std@@QBEABU?$pair@$$CBEPAVCTItem@@@2@XZ
_TEXT	SEGMENT PARA USE32 PUBLIC 'CODE'
_TEXT	ENDS
;	COMDAT ??8const_iterator@?$_Tree@V?$_Tmap_traits@EPAVCTItem@@U?$less@E@std@@V?$allocator@U?$pair@$$CBEPAVCTItem@@@std@@@3@$0A@@std@@@std@@QBE_NABV012@@Z
_TEXT	SEGMENT PARA USE32 PUBLIC 'CODE'
_TEXT	ENDS
;	COMDAT ??0iterator@?$_Tree@V?$_Tmap_traits@KKU?$less@K@std@@V?$allocator@U?$pair@$$CBKK@std@@@2@$0A@@std@@@std@@QAE@PAU_Node@?$_Tree_nod@V?$_Tmap_traits@KKU?$less@K@std@@V?$allocator@U?$pair@$$CBKK@std@@@2@$0A@@std@@@2@@Z
_TEXT	SEGMENT PARA USE32 PUBLIC 'CODE'
_TEXT	ENDS
;	COMDAT ??Eiterator@?$_Tree@V?$_Tmap_traits@KKU?$less@K@std@@V?$allocator@U?$pair@$$CBKK@std@@@2@$0A@@std@@@std@@QAEAAV012@XZ
_TEXT	SEGMENT PARA USE32 PUBLIC 'CODE'
_TEXT	ENDS
;	COMDAT ??0const_iterator@?$_Tree@V?$_Tmap_traits@KKU?$less@K@std@@V?$allocator@U?$pair@$$CBKK@std@@@2@$0A@@std@@@std@@QAE@XZ
_TEXT	SEGMENT PARA USE32 PUBLIC 'CODE'
_TEXT	ENDS
;	COMDAT ??Dconst_iterator@?$_Tree@V?$_Tmap_traits@KKU?$less@K@std@@V?$allocator@U?$pair@$$CBKK@std@@@2@$0A@@std@@@std@@QBEABU?$pair@$$CBKK@2@XZ
_TEXT	SEGMENT PARA USE32 PUBLIC 'CODE'
_TEXT	ENDS
;	COMDAT ??8const_iterator@?$_Tree@V?$_Tmap_traits@KKU?$less@K@std@@V?$allocator@U?$pair@$$CBKK@std@@@2@$0A@@std@@@std@@QBE_NABV012@@Z
_TEXT	SEGMENT PARA USE32 PUBLIC 'CODE'
_TEXT	ENDS
;	COMDAT ??0iterator@?$_Tree@V?$_Tmap_traits@KPAVCQuest@@U?$less@K@std@@V?$allocator@U?$pair@$$CBKPAVCQuest@@@std@@@3@$0A@@std@@@std@@QAE@PAU_Node@?$_Tree_nod@V?$_Tmap_traits@KPAVCQuest@@U?$less@K@std@@V?$allocator@U?$pair@$$CBKPAVCQuest@@@std@@@3@$0A@@std@@@2@@Z
_TEXT	SEGMENT PARA USE32 PUBLIC 'CODE'
_TEXT	ENDS
;	COMDAT ??Eiterator@?$_Tree@V?$_Tmap_traits@KPAVCQuest@@U?$less@K@std@@V?$allocator@U?$pair@$$CBKPAVCQuest@@@std@@@3@$0A@@std@@@std@@QAEAAV012@XZ
_TEXT	SEGMENT PARA USE32 PUBLIC 'CODE'
_TEXT	ENDS
;	COMDAT ??0const_iterator@?$_Tree@V?$_Tmap_traits@KPAVCQuest@@U?$less@K@std@@V?$allocator@U?$pair@$$CBKPAVCQuest@@@std@@@3@$0A@@std@@@std@@QAE@XZ
_TEXT	SEGMENT PARA USE32 PUBLIC 'CODE'
_TEXT	ENDS
;	COMDAT ??Dconst_iterator@?$_Tree@V?$_Tmap_traits@KPAVCQuest@@U?$less@K@std@@V?$allocator@U?$pair@$$CBKPAVCQuest@@@std@@@3@$0A@@std@@@std@@QBEABU?$pair@$$CBKPAVCQuest@@@2@XZ
_TEXT	SEGMENT PARA USE32 PUBLIC 'CODE'
_TEXT	ENDS
;	COMDAT ??8const_iterator@?$_Tree@V?$_Tmap_traits@KPAVCQuest@@U?$less@K@std@@V?$allocator@U?$pair@$$CBKPAVCQuest@@@std@@@3@$0A@@std@@@std@@QBE_NABV012@@Z
_TEXT	SEGMENT PARA USE32 PUBLIC 'CODE'
_TEXT	ENDS
;	COMDAT ??0iterator@?$_Tree@V?$_Tmap_traits@GPAUtagPET@@U?$less@G@std@@V?$allocator@U?$pair@$$CBGPAUtagPET@@@std@@@3@$0A@@std@@@std@@QAE@PAU_Node@?$_Tree_nod@V?$_Tmap_traits@GPAUtagPET@@U?$less@G@std@@V?$allocator@U?$pair@$$CBGPAUtagPET@@@std@@@3@$0A@@std@@@2@@Z
_TEXT	SEGMENT PARA USE32 PUBLIC 'CODE'
_TEXT	ENDS
;	COMDAT ??Eiterator@?$_Tree@V?$_Tmap_traits@GPAUtagPET@@U?$less@G@std@@V?$allocator@U?$pair@$$CBGPAUtagPET@@@std@@@3@$0A@@std@@@std@@QAEAAV012@XZ
_TEXT	SEGMENT PARA USE32 PUBLIC 'CODE'
_TEXT	ENDS
;	COMDAT ??0const_iterator@?$_Tree@V?$_Tmap_traits@GPAUtagPET@@U?$less@G@std@@V?$allocator@U?$pair@$$CBGPAUtagPET@@@std@@@3@$0A@@std@@@std@@QAE@XZ
_TEXT	SEGMENT PARA USE32 PUBLIC 'CODE'
_TEXT	ENDS
;	COMDAT ??Dconst_iterator@?$_Tree@V?$_Tmap_traits@GPAUtagPET@@U?$less@G@std@@V?$allocator@U?$pair@$$CBGPAUtagPET@@@std@@@3@$0A@@std@@@std@@QBEABU?$pair@$$CBGPAUtagPET@@@2@XZ
_TEXT	SEGMENT PARA USE32 PUBLIC 'CODE'
_TEXT	ENDS
;	COMDAT ??8const_iterator@?$_Tree@V?$_Tmap_traits@GPAUtagPET@@U?$less@G@std@@V?$allocator@U?$pair@$$CBGPAUtagPET@@@std@@@3@$0A@@std@@@std@@QBE_NABV012@@Z
_TEXT	SEGMENT PARA USE32 PUBLIC 'CODE'
_TEXT	ENDS
;	COMDAT ??0iterator@?$vector@UtagRECORDSET@@V?$allocator@UtagRECORDSET@@@std@@@std@@QAE@PAUtagRECORDSET@@@Z
_TEXT	SEGMENT PARA USE32 PUBLIC 'CODE'
_TEXT	ENDS
;	COMDAT ??Eiterator@?$vector@UtagRECORDSET@@V?$allocator@UtagRECORDSET@@@std@@@std@@QAEAAV012@XZ
_TEXT	SEGMENT PARA USE32 PUBLIC 'CODE'
_TEXT	ENDS
;	COMDAT ??Hiterator@?$vector@UtagRECORDSET@@V?$allocator@UtagRECORDSET@@@std@@@std@@QBE?AV012@H@Z
_TEXT	SEGMENT PARA USE32 PUBLIC 'CODE'
_TEXT	ENDS
;	COMDAT ??0const_iterator@?$vector@UtagRECORDSET@@V?$allocator@UtagRECORDSET@@@std@@@std@@QAE@XZ
_TEXT	SEGMENT PARA USE32 PUBLIC 'CODE'
_TEXT	ENDS
;	COMDAT ??Dconst_iterator@?$vector@UtagRECORDSET@@V?$allocator@UtagRECORDSET@@@std@@@std@@QBEABUtagRECORDSET@@XZ
_TEXT	SEGMENT PARA USE32 PUBLIC 'CODE'
_TEXT	ENDS
;	COMDAT ??8const_iterator@?$vector@UtagRECORDSET@@V?$allocator@UtagRECORDSET@@@std@@@std@@QBE_NABV012@@Z
_TEXT	SEGMENT PARA USE32 PUBLIC 'CODE'
_TEXT	ENDS
;	COMDAT ??0iterator@?$_Tree@V?$_Tmap_traits@KPAUtagPROTECTED@@U?$less@K@std@@V?$allocator@U?$pair@$$CBKPAUtagPROTECTED@@@std@@@3@$0A@@std@@@std@@QAE@PAU_Node@?$_Tree_nod@V?$_Tmap_traits@KPAUtagPROTECTED@@U?$less@K@std@@V?$allocator@U?$pair@$$CBKPAUtagPROTECTED@@@std@@@3@$0A@@std@@@2@@Z
_TEXT	SEGMENT PARA USE32 PUBLIC 'CODE'
_TEXT	ENDS
;	COMDAT ??Eiterator@?$_Tree@V?$_Tmap_traits@KPAUtagPROTECTED@@U?$less@K@std@@V?$allocator@U?$pair@$$CBKPAUtagPROTECTED@@@std@@@3@$0A@@std@@@std@@QAEAAV012@XZ
_TEXT	SEGMENT PARA USE32 PUBLIC 'CODE'
_TEXT	ENDS
;	COMDAT ??0const_iterator@?$_Tree@V?$_Tmap_traits@KPAUtagPROTECTED@@U?$less@K@std@@V?$allocator@U?$pair@$$CBKPAUtagPROTECTED@@@std@@@3@$0A@@std@@@std@@QAE@XZ
_TEXT	SEGMENT PARA USE32 PUBLIC 'CODE'
_TEXT	ENDS
;	COMDAT ??Dconst_iterator@?$_Tree@V?$_Tmap_traits@KPAUtagPROTECTED@@U?$less@K@std@@V?$allocator@U?$pair@$$CBKPAUtagPROTECTED@@@std@@@3@$0A@@std@@@std@@QBEABU?$pair@$$CBKPAUtagPROTECTED@@@2@XZ
_TEXT	SEGMENT PARA USE32 PUBLIC 'CODE'
_TEXT	ENDS
;	COMDAT ??8const_iterator@?$_Tree@V?$_Tmap_traits@KPAUtagPROTECTED@@U?$less@K@std@@V?$allocator@U?$pair@$$CBKPAUtagPROTECTED@@@std@@@3@$0A@@std@@@std@@QBE_NABV012@@Z
_TEXT	SEGMENT PARA USE32 PUBLIC 'CODE'
_TEXT	ENDS
;	COMDAT ??0iterator@?$vector@KV?$allocator@K@std@@@std@@QAE@PAK@Z
_TEXT	SEGMENT PARA USE32 PUBLIC 'CODE'
_TEXT	ENDS
;	COMDAT ??Eiterator@?$vector@KV?$allocator@K@std@@@std@@QAEAAV012@XZ
_TEXT	SEGMENT PARA USE32 PUBLIC 'CODE'
_TEXT	ENDS
;	COMDAT ??Hiterator@?$vector@KV?$allocator@K@std@@@std@@QBE?AV012@H@Z
_TEXT	SEGMENT PARA USE32 PUBLIC 'CODE'
_TEXT	ENDS
;	COMDAT ??0const_iterator@?$vector@KV?$allocator@K@std@@@std@@QAE@XZ
_TEXT	SEGMENT PARA USE32 PUBLIC 'CODE'
_TEXT	ENDS
;	COMDAT ??Dconst_iterator@?$vector@KV?$allocator@K@std@@@std@@QBEABKXZ
_TEXT	SEGMENT PARA USE32 PUBLIC 'CODE'
_TEXT	ENDS
;	COMDAT ??8const_iterator@?$vector@KV?$allocator@K@std@@@std@@QBE_NABV012@@Z
_TEXT	SEGMENT PARA USE32 PUBLIC 'CODE'
_TEXT	ENDS
;	COMDAT ?_Lmost@?$_Tree@V?$_Tmap_traits@EEU?$less@E@std@@V?$allocator@U?$pair@$$CBEE@std@@@2@$0A@@std@@@std@@IAEAAPAU_Node@?$_Tree_nod@V?$_Tmap_traits@EEU?$less@E@std@@V?$allocator@U?$pair@$$CBEE@std@@@2@$0A@@std@@@2@XZ
_TEXT	SEGMENT PARA USE32 PUBLIC 'CODE'
_TEXT	ENDS
;	COMDAT ??0iterator@?$_Tree@V?$_Tmap_traits@EEU?$less@E@std@@V?$allocator@U?$pair@$$CBEE@std@@@2@$0A@@std@@@std@@QAE@PAU_Node@?$_Tree_nod@V?$_Tmap_traits@EEU?$less@E@std@@V?$allocator@U?$pair@$$CBEE@std@@@2@$0A@@std@@@2@@Z
_TEXT	SEGMENT PARA USE32 PUBLIC 'CODE'
_TEXT	ENDS
;	COMDAT ??Eiterator@?$_Tree@V?$_Tmap_traits@EEU?$less@E@std@@V?$allocator@U?$pair@$$CBEE@std@@@2@$0A@@std@@@std@@QAEAAV012@XZ
_TEXT	SEGMENT PARA USE32 PUBLIC 'CODE'
_TEXT	ENDS
;	COMDAT ??0const_iterator@?$_Tree@V?$_Tmap_traits@EEU?$less@E@std@@V?$allocator@U?$pair@$$CBEE@std@@@2@$0A@@std@@@std@@QAE@XZ
_TEXT	SEGMENT PARA USE32 PUBLIC 'CODE'
_TEXT	ENDS
;	COMDAT ??Dconst_iterator@?$_Tree@V?$_Tmap_traits@EEU?$less@E@std@@V?$allocator@U?$pair@$$CBEE@std@@@2@$0A@@std@@@std@@QBEABU?$pair@$$CBEE@2@XZ
_TEXT	SEGMENT PARA USE32 PUBLIC 'CODE'
_TEXT	ENDS
;	COMDAT ??8const_iterator@?$_Tree@V?$_Tmap_traits@EEU?$less@E@std@@V?$allocator@U?$pair@$$CBEE@std@@@2@$0A@@std@@@std@@QBE_NABV012@@Z
_TEXT	SEGMENT PARA USE32 PUBLIC 'CODE'
_TEXT	ENDS
;	COMDAT ??0iterator@?$_Tree@V?$_Tmap_traits@GPAUtagLOCAL@@U?$less@G@std@@V?$allocator@U?$pair@$$CBGPAUtagLOCAL@@@std@@@3@$0A@@std@@@std@@QAE@PAU_Node@?$_Tree_nod@V?$_Tmap_traits@GPAUtagLOCAL@@U?$less@G@std@@V?$allocator@U?$pair@$$CBGPAUtagLOCAL@@@std@@@3@$0A@@std@@@2@@Z
_TEXT	SEGMENT PARA USE32 PUBLIC 'CODE'
_TEXT	ENDS
;	COMDAT ??Eiterator@?$_Tree@V?$_Tmap_traits@GPAUtagLOCAL@@U?$less@G@std@@V?$allocator@U?$pair@$$CBGPAUtagLOCAL@@@std@@@3@$0A@@std@@@std@@QAEAAV012@XZ
_TEXT	SEGMENT PARA USE32 PUBLIC 'CODE'
_TEXT	ENDS
;	COMDAT ??0const_iterator@?$_Tree@V?$_Tmap_traits@GPAUtagLOCAL@@U?$less@G@std@@V?$allocator@U?$pair@$$CBGPAUtagLOCAL@@@std@@@3@$0A@@std@@@std@@QAE@XZ
_TEXT	SEGMENT PARA USE32 PUBLIC 'CODE'
_TEXT	ENDS
;	COMDAT ??Dconst_iterator@?$_Tree@V?$_Tmap_traits@GPAUtagLOCAL@@U?$less@G@std@@V?$allocator@U?$pair@$$CBGPAUtagLOCAL@@@std@@@3@$0A@@std@@@std@@QBEABU?$pair@$$CBGPAUtagLOCAL@@@2@XZ
_TEXT	SEGMENT PARA USE32 PUBLIC 'CODE'
_TEXT	ENDS
;	COMDAT ??8const_iterator@?$_Tree@V?$_Tmap_traits@GPAUtagLOCAL@@U?$less@G@std@@V?$allocator@U?$pair@$$CBGPAUtagLOCAL@@@std@@@3@$0A@@std@@@std@@QBE_NABV012@@Z
_TEXT	SEGMENT PARA USE32 PUBLIC 'CODE'
_TEXT	ENDS
;	COMDAT ??0iterator@?$_Tree@V?$_Tmap_traits@KPAVCTPlayer@@U?$less@K@std@@V?$allocator@U?$pair@$$CBKPAVCTPlayer@@@std@@@3@$0A@@std@@@std@@QAE@PAU_Node@?$_Tree_nod@V?$_Tmap_traits@KPAVCTPlayer@@U?$less@K@std@@V?$allocator@U?$pair@$$CBKPAVCTPlayer@@@std@@@3@$0A@@std@@@2@@Z
_TEXT	SEGMENT PARA USE32 PUBLIC 'CODE'
_TEXT	ENDS
;	COMDAT ??Dconst_iterator@?$_Tree@V?$_Tmap_traits@KPAVCTPlayer@@U?$less@K@std@@V?$allocator@U?$pair@$$CBKPAVCTPlayer@@@std@@@3@$0A@@std@@@std@@QBEABU?$pair@$$CBKPAVCTPlayer@@@2@XZ
_TEXT	SEGMENT PARA USE32 PUBLIC 'CODE'
_TEXT	ENDS
;	COMDAT ?_Mynode@const_iterator@?$_Tree@V?$_Tmap_traits@KPAVCTPlayer@@U?$less@K@std@@V?$allocator@U?$pair@$$CBKPAVCTPlayer@@@std@@@3@$0A@@std@@@std@@QBEPAU_Node@?$_Tree_nod@V?$_Tmap_traits@KPAVCTPlayer@@U?$less@K@std@@V?$allocator@U?$pair@$$CBKPAVCTPlayer@@@std@@@3@$0A@@std@@@3@XZ
_TEXT	SEGMENT PARA USE32 PUBLIC 'CODE'
_TEXT	ENDS
;	COMDAT ??Diterator@?$vector@PAVCTPlayer@@V?$allocator@PAVCTPlayer@@@std@@@std@@QBEAAPAVCTPlayer@@XZ
_TEXT	SEGMENT PARA USE32 PUBLIC 'CODE'
_TEXT	ENDS
;	COMDAT ??Hiterator@?$vector@PAVCTPlayer@@V?$allocator@PAVCTPlayer@@@std@@@std@@QBE?AV012@H@Z
_TEXT	SEGMENT PARA USE32 PUBLIC 'CODE'
_TEXT	ENDS
;	COMDAT ??Diterator@?$vector@PAVCTItem@@V?$allocator@PAVCTItem@@@std@@@std@@QBEAAPAVCTItem@@XZ
_TEXT	SEGMENT PARA USE32 PUBLIC 'CODE'
_TEXT	ENDS
;	COMDAT ??Hiterator@?$vector@PAVCTItem@@V?$allocator@PAVCTItem@@@std@@@std@@QBE?AV012@H@Z
_TEXT	SEGMENT PARA USE32 PUBLIC 'CODE'
_TEXT	ENDS
;	COMDAT ??Giterator@?$vector@PAVCTItem@@V?$allocator@PAVCTItem@@@std@@@std@@QBE?AV012@H@Z
_TEXT	SEGMENT PARA USE32 PUBLIC 'CODE'
_TEXT	ENDS
;	COMDAT ??Diterator@?$vector@PAVCTSkill@@V?$allocator@PAVCTSkill@@@std@@@std@@QBEAAPAVCTSkill@@XZ
_TEXT	SEGMENT PARA USE32 PUBLIC 'CODE'
_TEXT	ENDS
;	COMDAT ??Hiterator@?$vector@PAVCTSkill@@V?$allocator@PAVCTSkill@@@std@@@std@@QBE?AV012@H@Z
_TEXT	SEGMENT PARA USE32 PUBLIC 'CODE'
_TEXT	ENDS
;	COMDAT ??0?$CStringT@DV?$StrTraitATL@DV?$ChTraitsCRT@D@ATL@@@ATL@@@ATL@@QAE@PBDHPAUIAtlStringMgr@1@@Z
_TEXT	SEGMENT PARA USE32 PUBLIC 'CODE'
_TEXT	ENDS
;	COMDAT ?deallocate@?$allocator@K@std@@QAEXPAKI@Z
_TEXT	SEGMENT PARA USE32 PUBLIC 'CODE'
_TEXT	ENDS
;	COMDAT ?_Left@?$_Tree@V?$_Tmap_traits@GPAUtagLOCAL@@U?$less@G@std@@V?$allocator@U?$pair@$$CBGPAUtagLOCAL@@@std@@@3@$0A@@std@@@std@@KAAAPAU_Node@?$_Tree_nod@V?$_Tmap_traits@GPAUtagLOCAL@@U?$less@G@std@@V?$allocator@U?$pair@$$CBGPAUtagLOCAL@@@std@@@3@$0A@@std@@@2@PAU342@@Z
_TEXT	SEGMENT PARA USE32 PUBLIC 'CODE'
_TEXT	ENDS
;	COMDAT ?_Myval@?$_Tree@V?$_Tmap_traits@GPAUtagLOCAL@@U?$less@G@std@@V?$allocator@U?$pair@$$CBGPAUtagLOCAL@@@std@@@3@$0A@@std@@@std@@KAAAU?$pair@$$CBGPAUtagLOCAL@@@2@PAU_Node@?$_Tree_nod@V?$_Tmap_traits@GPAUtagLOCAL@@U?$less@G@std@@V?$allocator@U?$pair@$$CBGPAUtagLOCAL@@@std@@@3@$0A@@std@@@2@@Z
_TEXT	SEGMENT PARA USE32 PUBLIC 'CODE'
_TEXT	ENDS
;	COMDAT ?_Left@?$_Tree@V?$_Tmap_traits@KKU?$less@K@std@@V?$allocator@U?$pair@$$CBKK@std@@@2@$0A@@std@@@std@@KAAAPAU_Node@?$_Tree_nod@V?$_Tmap_traits@KKU?$less@K@std@@V?$allocator@U?$pair@$$CBKK@std@@@2@$0A@@std@@@2@PAU342@@Z
_TEXT	SEGMENT PARA USE32 PUBLIC 'CODE'
_TEXT	ENDS
;	COMDAT ?_Myval@?$_Tree@V?$_Tmap_traits@KKU?$less@K@std@@V?$allocator@U?$pair@$$CBKK@std@@@2@$0A@@std@@@std@@KAAAU?$pair@$$CBKK@2@PAU_Node@?$_Tree_nod@V?$_Tmap_traits@KKU?$less@K@std@@V?$allocator@U?$pair@$$CBKK@std@@@2@$0A@@std@@@2@@Z
_TEXT	SEGMENT PARA USE32 PUBLIC 'CODE'
_TEXT	ENDS
;	COMDAT ?_Myval@?$_Tree@V?$_Tmap_traits@KPAVCTItem@@U?$less@K@std@@V?$allocator@U?$pair@$$CBKPAVCTItem@@@std@@@3@$0A@@std@@@std@@KAAAU?$pair@$$CBKPAVCTItem@@@2@PAU_Node@?$_Tree_nod@V?$_Tmap_traits@KPAVCTItem@@U?$less@K@std@@V?$allocator@U?$pair@$$CBKPAVCTItem@@@std@@@3@$0A@@std@@@2@@Z
_TEXT	SEGMENT PARA USE32 PUBLIC 'CODE'
_TEXT	ENDS
;	COMDAT ?_Myval@?$_Tree@V?$_Tmap_traits@KPAVCTPlayer@@U?$less@K@std@@V?$allocator@U?$pair@$$CBKPAVCTPlayer@@@std@@@3@$0A@@std@@@std@@KAAAU?$pair@$$CBKPAVCTPlayer@@@2@PAU_Node@?$_Tree_nod@V?$_Tmap_traits@KPAVCTPlayer@@U?$less@K@std@@V?$allocator@U?$pair@$$CBKPAVCTPlayer@@@std@@@3@$0A@@std@@@2@@Z
_TEXT	SEGMENT PARA USE32 PUBLIC 'CODE'
_TEXT	ENDS
;	COMDAT ?_Lbound@?$_Tree@V?$_Tmap_traits@KPAVCTPlayer@@U?$less@K@std@@V?$allocator@U?$pair@$$CBKPAVCTPlayer@@@std@@@3@$0A@@std@@@std@@IBEPAU_Node@?$_Tree_nod@V?$_Tmap_traits@KPAVCTPlayer@@U?$less@K@std@@V?$allocator@U?$pair@$$CBKPAVCTPlayer@@@std@@@3@$0A@@std@@@2@ABK@Z
_TEXT	SEGMENT PARA USE32 PUBLIC 'CODE'
_TEXT	ENDS
;	COMDAT ?_Kfn@?$_Tmap_traits@KPAVCTPlayer@@U?$less@K@std@@V?$allocator@U?$pair@$$CBKPAVCTPlayer@@@std@@@3@$0A@@std@@SAABKABU?$pair@$$CBKPAVCTPlayer@@@2@@Z
_TEXT	SEGMENT PARA USE32 PUBLIC 'CODE'
_TEXT	ENDS
;	COMDAT ?_Left@?$_Tree@V?$_Tmap_traits@EPAVCTInven@@U?$less@E@std@@V?$allocator@U?$pair@$$CBEPAVCTInven@@@std@@@3@$0A@@std@@@std@@KAAAPAU_Node@?$_Tree_nod@V?$_Tmap_traits@EPAVCTInven@@U?$less@E@std@@V?$allocator@U?$pair@$$CBEPAVCTInven@@@std@@@3@$0A@@std@@@2@PAU342@@Z
_TEXT	SEGMENT PARA USE32 PUBLIC 'CODE'
_TEXT	ENDS
;	COMDAT ?_Myval@?$_Tree@V?$_Tmap_traits@EPAVCTInven@@U?$less@E@std@@V?$allocator@U?$pair@$$CBEPAVCTInven@@@std@@@3@$0A@@std@@@std@@KAAAU?$pair@$$CBEPAVCTInven@@@2@PAU_Node@?$_Tree_nod@V?$_Tmap_traits@EPAVCTInven@@U?$less@E@std@@V?$allocator@U?$pair@$$CBEPAVCTInven@@@std@@@3@$0A@@std@@@2@@Z
_TEXT	SEGMENT PARA USE32 PUBLIC 'CODE'
_TEXT	ENDS
;	COMDAT ?_Left@?$_Tree@V?$_Tmap_traits@GPAVCTSkill@@U?$less@G@std@@V?$allocator@U?$pair@$$CBGPAVCTSkill@@@std@@@3@$0A@@std@@@std@@KAAAPAU_Node@?$_Tree_nod@V?$_Tmap_traits@GPAVCTSkill@@U?$less@G@std@@V?$allocator@U?$pair@$$CBGPAVCTSkill@@@std@@@3@$0A@@std@@@2@PAU342@@Z
_TEXT	SEGMENT PARA USE32 PUBLIC 'CODE'
_TEXT	ENDS
;	COMDAT ?_Myval@?$_Tree@V?$_Tmap_traits@GPAVCTSkill@@U?$less@G@std@@V?$allocator@U?$pair@$$CBGPAVCTSkill@@@std@@@3@$0A@@std@@@std@@KAAAU?$pair@$$CBGPAVCTSkill@@@2@PAU_Node@?$_Tree_nod@V?$_Tmap_traits@GPAVCTSkill@@U?$less@G@std@@V?$allocator@U?$pair@$$CBGPAVCTSkill@@@std@@@3@$0A@@std@@@2@@Z
_TEXT	SEGMENT PARA USE32 PUBLIC 'CODE'
_TEXT	ENDS
;	COMDAT ?_Left@?$_Tree@V?$_Tmap_traits@EPAVCTItem@@U?$less@E@std@@V?$allocator@U?$pair@$$CBEPAVCTItem@@@std@@@3@$0A@@std@@@std@@KAAAPAU_Node@?$_Tree_nod@V?$_Tmap_traits@EPAVCTItem@@U?$less@E@std@@V?$allocator@U?$pair@$$CBEPAVCTItem@@@std@@@3@$0A@@std@@@2@PAU342@@Z
_TEXT	SEGMENT PARA USE32 PUBLIC 'CODE'
_TEXT	ENDS
;	COMDAT ?_Myval@?$_Tree@V?$_Tmap_traits@EPAVCTItem@@U?$less@E@std@@V?$allocator@U?$pair@$$CBEPAVCTItem@@@std@@@3@$0A@@std@@@std@@KAAAU?$pair@$$CBEPAVCTItem@@@2@PAU_Node@?$_Tree_nod@V?$_Tmap_traits@EPAVCTItem@@U?$less@E@std@@V?$allocator@U?$pair@$$CBEPAVCTItem@@@std@@@3@$0A@@std@@@2@@Z
_TEXT	SEGMENT PARA USE32 PUBLIC 'CODE'
_TEXT	ENDS
;	COMDAT ?_Left@?$_Tree@V?$_Tmap_traits@EPAUtagHOTKEYINVEN@@U?$less@E@std@@V?$allocator@U?$pair@$$CBEPAUtagHOTKEYINVEN@@@std@@@3@$0A@@std@@@std@@KAAAPAU_Node@?$_Tree_nod@V?$_Tmap_traits@EPAUtagHOTKEYINVEN@@U?$less@E@std@@V?$allocator@U?$pair@$$CBEPAUtagHOTKEYINVEN@@@std@@@3@$0A@@std@@@2@PAU342@@Z
_TEXT	SEGMENT PARA USE32 PUBLIC 'CODE'
_TEXT	ENDS
;	COMDAT ?_Myval@?$_Tree@V?$_Tmap_traits@EPAUtagHOTKEYINVEN@@U?$less@E@std@@V?$allocator@U?$pair@$$CBEPAUtagHOTKEYINVEN@@@std@@@3@$0A@@std@@@std@@KAAAU?$pair@$$CBEPAUtagHOTKEYINVEN@@@2@PAU_Node@?$_Tree_nod@V?$_Tmap_traits@EPAUtagHOTKEYINVEN@@U?$less@E@std@@V?$allocator@U?$pair@$$CBEPAUtagHOTKEYINVEN@@@std@@@3@$0A@@std@@@2@@Z
_TEXT	SEGMENT PARA USE32 PUBLIC 'CODE'
_TEXT	ENDS
;	COMDAT ?_Left@?$_Tree@V?$_Tmap_traits@EPAUtagCABINET@@U?$less@E@std@@V?$allocator@U?$pair@$$CBEPAUtagCABINET@@@std@@@3@$0A@@std@@@std@@KAAAPAU_Node@?$_Tree_nod@V?$_Tmap_traits@EPAUtagCABINET@@U?$less@E@std@@V?$allocator@U?$pair@$$CBEPAUtagCABINET@@@std@@@3@$0A@@std@@@2@PAU342@@Z
_TEXT	SEGMENT PARA USE32 PUBLIC 'CODE'
_TEXT	ENDS
;	COMDAT ?_Myval@?$_Tree@V?$_Tmap_traits@EPAUtagCABINET@@U?$less@E@std@@V?$allocator@U?$pair@$$CBEPAUtagCABINET@@@std@@@3@$0A@@std@@@std@@KAAAU?$pair@$$CBEPAUtagCABINET@@@2@PAU_Node@?$_Tree_nod@V?$_Tmap_traits@EPAUtagCABINET@@U?$less@E@std@@V?$allocator@U?$pair@$$CBEPAUtagCABINET@@@std@@@3@$0A@@std@@@2@@Z
_TEXT	SEGMENT PARA USE32 PUBLIC 'CODE'
_TEXT	ENDS
;	COMDAT ?_Left@?$_Tree@V?$_Tmap_traits@KPAVCTRecallMon@@U?$less@K@std@@V?$allocator@U?$pair@$$CBKPAVCTRecallMon@@@std@@@3@$0A@@std@@@std@@KAAAPAU_Node@?$_Tree_nod@V?$_Tmap_traits@KPAVCTRecallMon@@U?$less@K@std@@V?$allocator@U?$pair@$$CBKPAVCTRecallMon@@@std@@@3@$0A@@std@@@2@PAU342@@Z
_TEXT	SEGMENT PARA USE32 PUBLIC 'CODE'
_TEXT	ENDS
;	COMDAT ?_Myval@?$_Tree@V?$_Tmap_traits@KPAVCTRecallMon@@U?$less@K@std@@V?$allocator@U?$pair@$$CBKPAVCTRecallMon@@@std@@@3@$0A@@std@@@std@@KAAAU?$pair@$$CBKPAVCTRecallMon@@@2@PAU_Node@?$_Tree_nod@V?$_Tmap_traits@KPAVCTRecallMon@@U?$less@K@std@@V?$allocator@U?$pair@$$CBKPAVCTRecallMon@@@std@@@3@$0A@@std@@@2@@Z
_TEXT	SEGMENT PARA USE32 PUBLIC 'CODE'
_TEXT	ENDS
;	COMDAT ?_Left@?$_Tree@V?$_Tmap_traits@GPAUtagPET@@U?$less@G@std@@V?$allocator@U?$pair@$$CBGPAUtagPET@@@std@@@3@$0A@@std@@@std@@KAAAPAU_Node@?$_Tree_nod@V?$_Tmap_traits@GPAUtagPET@@U?$less@G@std@@V?$allocator@U?$pair@$$CBGPAUtagPET@@@std@@@3@$0A@@std@@@2@PAU342@@Z
_TEXT	SEGMENT PARA USE32 PUBLIC 'CODE'
_TEXT	ENDS
;	COMDAT ?_Myval@?$_Tree@V?$_Tmap_traits@GPAUtagPET@@U?$less@G@std@@V?$allocator@U?$pair@$$CBGPAUtagPET@@@std@@@3@$0A@@std@@@std@@KAAAU?$pair@$$CBGPAUtagPET@@@2@PAU_Node@?$_Tree_nod@V?$_Tmap_traits@GPAUtagPET@@U?$less@G@std@@V?$allocator@U?$pair@$$CBGPAUtagPET@@@std@@@3@$0A@@std@@@2@@Z
_TEXT	SEGMENT PARA USE32 PUBLIC 'CODE'
_TEXT	ENDS
;	COMDAT ?_Left@?$_Tree@V?$_Tmap_traits@KPAUtagPROTECTED@@U?$less@K@std@@V?$allocator@U?$pair@$$CBKPAUtagPROTECTED@@@std@@@3@$0A@@std@@@std@@KAAAPAU_Node@?$_Tree_nod@V?$_Tmap_traits@KPAUtagPROTECTED@@U?$less@K@std@@V?$allocator@U?$pair@$$CBKPAUtagPROTECTED@@@std@@@3@$0A@@std@@@2@PAU342@@Z
_TEXT	SEGMENT PARA USE32 PUBLIC 'CODE'
_TEXT	ENDS
;	COMDAT ?_Myval@?$_Tree@V?$_Tmap_traits@KPAUtagPROTECTED@@U?$less@K@std@@V?$allocator@U?$pair@$$CBKPAUtagPROTECTED@@@std@@@3@$0A@@std@@@std@@KAAAU?$pair@$$CBKPAUtagPROTECTED@@@2@PAU_Node@?$_Tree_nod@V?$_Tmap_traits@KPAUtagPROTECTED@@U?$less@K@std@@V?$allocator@U?$pair@$$CBKPAUtagPROTECTED@@@std@@@3@$0A@@std@@@2@@Z
_TEXT	SEGMENT PARA USE32 PUBLIC 'CODE'
_TEXT	ENDS
;	COMDAT ?_Left@?$_Tree@V?$_Tmap_traits@KPAVCQuest@@U?$less@K@std@@V?$allocator@U?$pair@$$CBKPAVCQuest@@@std@@@3@$0A@@std@@@std@@KAAAPAU_Node@?$_Tree_nod@V?$_Tmap_traits@KPAVCQuest@@U?$less@K@std@@V?$allocator@U?$pair@$$CBKPAVCQuest@@@std@@@3@$0A@@std@@@2@PAU342@@Z
_TEXT	SEGMENT PARA USE32 PUBLIC 'CODE'
_TEXT	ENDS
;	COMDAT ?_Myval@?$_Tree@V?$_Tmap_traits@KPAVCQuest@@U?$less@K@std@@V?$allocator@U?$pair@$$CBKPAVCQuest@@@std@@@3@$0A@@std@@@std@@KAAAU?$pair@$$CBKPAVCQuest@@@2@PAU_Node@?$_Tree_nod@V?$_Tmap_traits@KPAVCQuest@@U?$less@K@std@@V?$allocator@U?$pair@$$CBKPAVCQuest@@@std@@@3@$0A@@std@@@2@@Z
_TEXT	SEGMENT PARA USE32 PUBLIC 'CODE'
_TEXT	ENDS
;	COMDAT ?_Destroy@?$vector@KV?$allocator@K@std@@@std@@IAEXPAK0@Z
_TEXT	SEGMENT PARA USE32 PUBLIC 'CODE'
_TEXT	ENDS
;	COMDAT ?_Left@?$_Tree@V?$_Tmap_traits@KPAVCTChannel@@U?$less@K@std@@V?$allocator@U?$pair@$$CBKPAVCTChannel@@@std@@@3@$0A@@std@@@std@@KAAAPAU_Node@?$_Tree_nod@V?$_Tmap_traits@KPAVCTChannel@@U?$less@K@std@@V?$allocator@U?$pair@$$CBKPAVCTChannel@@@std@@@3@$0A@@std@@@2@PAU342@@Z
_TEXT	SEGMENT PARA USE32 PUBLIC 'CODE'
_TEXT	ENDS
;	COMDAT ?_Myval@?$_Tree@V?$_Tmap_traits@KPAVCTChannel@@U?$less@K@std@@V?$allocator@U?$pair@$$CBKPAVCTChannel@@@std@@@3@$0A@@std@@@std@@KAAAU?$pair@$$CBKPAVCTChannel@@@2@PAU_Node@?$_Tree_nod@V?$_Tmap_traits@KPAVCTChannel@@U?$less@K@std@@V?$allocator@U?$pair@$$CBKPAVCTChannel@@@std@@@3@$0A@@std@@@2@@Z
_TEXT	SEGMENT PARA USE32 PUBLIC 'CODE'
_TEXT	ENDS
;	COMDAT ?_Myval@?$_Tree@V?$_Tmap_traits@GPAUtagARENA@@U?$less@G@std@@V?$allocator@U?$pair@$$CBGPAUtagARENA@@@std@@@3@$0A@@std@@@std@@KAAAU?$pair@$$CBGPAUtagARENA@@@2@PAU_Node@?$_Tree_nod@V?$_Tmap_traits@GPAUtagARENA@@U?$less@G@std@@V?$allocator@U?$pair@$$CBGPAUtagARENA@@@std@@@3@$0A@@std@@@2@@Z
_TEXT	SEGMENT PARA USE32 PUBLIC 'CODE'
_TEXT	ENDS
;	COMDAT ?_Lbound@?$_Tree@V?$_Tmap_traits@GPAUtagARENA@@U?$less@G@std@@V?$allocator@U?$pair@$$CBGPAUtagARENA@@@std@@@3@$0A@@std@@@std@@IBEPAU_Node@?$_Tree_nod@V?$_Tmap_traits@GPAUtagARENA@@U?$less@G@std@@V?$allocator@U?$pair@$$CBGPAUtagARENA@@@std@@@3@$0A@@std@@@2@ABG@Z
_TEXT	SEGMENT PARA USE32 PUBLIC 'CODE'
_TEXT	ENDS
;	COMDAT ?_Kfn@?$_Tmap_traits@GPAUtagARENA@@U?$less@G@std@@V?$allocator@U?$pair@$$CBGPAUtagARENA@@@std@@@3@$0A@@std@@SAABGABU?$pair@$$CBGPAUtagARENA@@@2@@Z
_TEXT	SEGMENT PARA USE32 PUBLIC 'CODE'
_TEXT	ENDS
;	COMDAT ??0const_iterator@?$_Tree@V?$_Tmap_traits@KPAVCTChannel@@U?$less@K@std@@V?$allocator@U?$pair@$$CBKPAVCTChannel@@@std@@@3@$0A@@std@@@std@@QAE@PAU_Node@?$_Tree_nod@V?$_Tmap_traits@KPAVCTChannel@@U?$less@K@std@@V?$allocator@U?$pair@$$CBKPAVCTChannel@@@std@@@3@$0A@@std@@@2@@Z
_TEXT	SEGMENT PARA USE32 PUBLIC 'CODE'
_TEXT	ENDS
;	COMDAT ??Econst_iterator@?$_Tree@V?$_Tmap_traits@KPAVCTChannel@@U?$less@K@std@@V?$allocator@U?$pair@$$CBKPAVCTChannel@@@std@@@3@$0A@@std@@@std@@QAEAAV012@XZ
_TEXT	SEGMENT PARA USE32 PUBLIC 'CODE'
_TEXT	ENDS
;	COMDAT ??0const_iterator@?$_Tree@V?$_Tmap_traits@KPAVCTRecallMon@@U?$less@K@std@@V?$allocator@U?$pair@$$CBKPAVCTRecallMon@@@std@@@3@$0A@@std@@@std@@QAE@PAU_Node@?$_Tree_nod@V?$_Tmap_traits@KPAVCTRecallMon@@U?$less@K@std@@V?$allocator@U?$pair@$$CBKPAVCTRecallMon@@@std@@@3@$0A@@std@@@2@@Z
_TEXT	SEGMENT PARA USE32 PUBLIC 'CODE'
_TEXT	ENDS
;	COMDAT ??Econst_iterator@?$_Tree@V?$_Tmap_traits@KPAVCTRecallMon@@U?$less@K@std@@V?$allocator@U?$pair@$$CBKPAVCTRecallMon@@@std@@@3@$0A@@std@@@std@@QAEAAV012@XZ
_TEXT	SEGMENT PARA USE32 PUBLIC 'CODE'
_TEXT	ENDS
;	COMDAT ??0const_iterator@?$_Tree@V?$_Tmap_traits@GPAVCTSkill@@U?$less@G@std@@V?$allocator@U?$pair@$$CBGPAVCTSkill@@@std@@@3@$0A@@std@@@std@@QAE@PAU_Node@?$_Tree_nod@V?$_Tmap_traits@GPAVCTSkill@@U?$less@G@std@@V?$allocator@U?$pair@$$CBGPAVCTSkill@@@std@@@3@$0A@@std@@@2@@Z
_TEXT	SEGMENT PARA USE32 PUBLIC 'CODE'
_TEXT	ENDS
;	COMDAT ??Econst_iterator@?$_Tree@V?$_Tmap_traits@GPAVCTSkill@@U?$less@G@std@@V?$allocator@U?$pair@$$CBGPAVCTSkill@@@std@@@3@$0A@@std@@@std@@QAEAAV012@XZ
_TEXT	SEGMENT PARA USE32 PUBLIC 'CODE'
_TEXT	ENDS
;	COMDAT ??0const_iterator@?$_Tree@V?$_Tmap_traits@GPAUtagARENA@@U?$less@G@std@@V?$allocator@U?$pair@$$CBGPAUtagARENA@@@std@@@3@$0A@@std@@@std@@QAE@PAU_Node@?$_Tree_nod@V?$_Tmap_traits@GPAUtagARENA@@U?$less@G@std@@V?$allocator@U?$pair@$$CBGPAUtagARENA@@@std@@@3@$0A@@std@@@2@@Z
_TEXT	SEGMENT PARA USE32 PUBLIC 'CODE'
_TEXT	ENDS
;	COMDAT ??Dconst_iterator@?$_Tree@V?$_Tmap_traits@GPAUtagARENA@@U?$less@G@std@@V?$allocator@U?$pair@$$CBGPAUtagARENA@@@std@@@3@$0A@@std@@@std@@QBEABU?$pair@$$CBGPAUtagARENA@@@2@XZ
_TEXT	SEGMENT PARA USE32 PUBLIC 'CODE'
_TEXT	ENDS
;	COMDAT ??0const_iterator@?$_Tree@V?$_Tmap_traits@EPAVCTInven@@U?$less@E@std@@V?$allocator@U?$pair@$$CBEPAVCTInven@@@std@@@3@$0A@@std@@@std@@QAE@PAU_Node@?$_Tree_nod@V?$_Tmap_traits@EPAVCTInven@@U?$less@E@std@@V?$allocator@U?$pair@$$CBEPAVCTInven@@@std@@@3@$0A@@std@@@2@@Z
_TEXT	SEGMENT PARA USE32 PUBLIC 'CODE'
_TEXT	ENDS
;	COMDAT ??Econst_iterator@?$_Tree@V?$_Tmap_traits@EPAVCTInven@@U?$less@E@std@@V?$allocator@U?$pair@$$CBEPAVCTInven@@@std@@@3@$0A@@std@@@std@@QAEAAV012@XZ
_TEXT	SEGMENT PARA USE32 PUBLIC 'CODE'
_TEXT	ENDS
;	COMDAT ??0const_iterator@?$_Tree@V?$_Tmap_traits@EPAUtagCABINET@@U?$less@E@std@@V?$allocator@U?$pair@$$CBEPAUtagCABINET@@@std@@@3@$0A@@std@@@std@@QAE@PAU_Node@?$_Tree_nod@V?$_Tmap_traits@EPAUtagCABINET@@U?$less@E@std@@V?$allocator@U?$pair@$$CBEPAUtagCABINET@@@std@@@3@$0A@@std@@@2@@Z
_TEXT	SEGMENT PARA USE32 PUBLIC 'CODE'
_TEXT	ENDS
;	COMDAT ??Econst_iterator@?$_Tree@V?$_Tmap_traits@EPAUtagCABINET@@U?$less@E@std@@V?$allocator@U?$pair@$$CBEPAUtagCABINET@@@std@@@3@$0A@@std@@@std@@QAEAAV012@XZ
_TEXT	SEGMENT PARA USE32 PUBLIC 'CODE'
_TEXT	ENDS
;	COMDAT ??0const_iterator@?$_Tree@V?$_Tmap_traits@EPAUtagHOTKEYINVEN@@U?$less@E@std@@V?$allocator@U?$pair@$$CBEPAUtagHOTKEYINVEN@@@std@@@3@$0A@@std@@@std@@QAE@PAU_Node@?$_Tree_nod@V?$_Tmap_traits@EPAUtagHOTKEYINVEN@@U?$less@E@std@@V?$allocator@U?$pair@$$CBEPAUtagHOTKEYINVEN@@@std@@@3@$0A@@std@@@2@@Z
_TEXT	SEGMENT PARA USE32 PUBLIC 'CODE'
_TEXT	ENDS
;	COMDAT ??Econst_iterator@?$_Tree@V?$_Tmap_traits@EPAUtagHOTKEYINVEN@@U?$less@E@std@@V?$allocator@U?$pair@$$CBEPAUtagHOTKEYINVEN@@@std@@@3@$0A@@std@@@std@@QAEAAV012@XZ
_TEXT	SEGMENT PARA USE32 PUBLIC 'CODE'
_TEXT	ENDS
;	COMDAT ??0const_iterator@?$_Tree@V?$_Tmap_traits@EPAVCTItem@@U?$less@E@std@@V?$allocator@U?$pair@$$CBEPAVCTItem@@@std@@@3@$0A@@std@@@std@@QAE@PAU_Node@?$_Tree_nod@V?$_Tmap_traits@EPAVCTItem@@U?$less@E@std@@V?$allocator@U?$pair@$$CBEPAVCTItem@@@std@@@3@$0A@@std@@@2@@Z
_TEXT	SEGMENT PARA USE32 PUBLIC 'CODE'
_TEXT	ENDS
;	COMDAT ??Econst_iterator@?$_Tree@V?$_Tmap_traits@EPAVCTItem@@U?$less@E@std@@V?$allocator@U?$pair@$$CBEPAVCTItem@@@std@@@3@$0A@@std@@@std@@QAEAAV012@XZ
_TEXT	SEGMENT PARA USE32 PUBLIC 'CODE'
_TEXT	ENDS
;	COMDAT ??0const_iterator@?$_Tree@V?$_Tmap_traits@KKU?$less@K@std@@V?$allocator@U?$pair@$$CBKK@std@@@2@$0A@@std@@@std@@QAE@PAU_Node@?$_Tree_nod@V?$_Tmap_traits@KKU?$less@K@std@@V?$allocator@U?$pair@$$CBKK@std@@@2@$0A@@std@@@2@@Z
_TEXT	SEGMENT PARA USE32 PUBLIC 'CODE'
_TEXT	ENDS
;	COMDAT ??Econst_iterator@?$_Tree@V?$_Tmap_traits@KKU?$less@K@std@@V?$allocator@U?$pair@$$CBKK@std@@@2@$0A@@std@@@std@@QAEAAV012@XZ
_TEXT	SEGMENT PARA USE32 PUBLIC 'CODE'
_TEXT	ENDS
;	COMDAT ??0const_iterator@?$_Tree@V?$_Tmap_traits@KPAVCQuest@@U?$less@K@std@@V?$allocator@U?$pair@$$CBKPAVCQuest@@@std@@@3@$0A@@std@@@std@@QAE@PAU_Node@?$_Tree_nod@V?$_Tmap_traits@KPAVCQuest@@U?$less@K@std@@V?$allocator@U?$pair@$$CBKPAVCQuest@@@std@@@3@$0A@@std@@@2@@Z
_TEXT	SEGMENT PARA USE32 PUBLIC 'CODE'
_TEXT	ENDS
;	COMDAT ??Econst_iterator@?$_Tree@V?$_Tmap_traits@KPAVCQuest@@U?$less@K@std@@V?$allocator@U?$pair@$$CBKPAVCQuest@@@std@@@3@$0A@@std@@@std@@QAEAAV012@XZ
_TEXT	SEGMENT PARA USE32 PUBLIC 'CODE'
_TEXT	ENDS
;	COMDAT ??0const_iterator@?$_Tree@V?$_Tmap_traits@GPAUtagPET@@U?$less@G@std@@V?$allocator@U?$pair@$$CBGPAUtagPET@@@std@@@3@$0A@@std@@@std@@QAE@PAU_Node@?$_Tree_nod@V?$_Tmap_traits@GPAUtagPET@@U?$less@G@std@@V?$allocator@U?$pair@$$CBGPAUtagPET@@@std@@@3@$0A@@std@@@2@@Z
_TEXT	SEGMENT PARA USE32 PUBLIC 'CODE'
_TEXT	ENDS
;	COMDAT ??Econst_iterator@?$_Tree@V?$_Tmap_traits@GPAUtagPET@@U?$less@G@std@@V?$allocator@U?$pair@$$CBGPAUtagPET@@@std@@@3@$0A@@std@@@std@@QAEAAV012@XZ
_TEXT	SEGMENT PARA USE32 PUBLIC 'CODE'
_TEXT	ENDS
;	COMDAT ??Yiterator@?$vector@UtagRECORDSET@@V?$allocator@UtagRECORDSET@@@std@@@std@@QAEAAV012@H@Z
_TEXT	SEGMENT PARA USE32 PUBLIC 'CODE'
_TEXT	ENDS
;	COMDAT ??0const_iterator@?$vector@UtagRECORDSET@@V?$allocator@UtagRECORDSET@@@std@@@std@@QAE@PAUtagRECORDSET@@@Z
_TEXT	SEGMENT PARA USE32 PUBLIC 'CODE'
_TEXT	ENDS
;	COMDAT ??0const_iterator@?$_Tree@V?$_Tmap_traits@KPAUtagPROTECTED@@U?$less@K@std@@V?$allocator@U?$pair@$$CBKPAUtagPROTECTED@@@std@@@3@$0A@@std@@@std@@QAE@PAU_Node@?$_Tree_nod@V?$_Tmap_traits@KPAUtagPROTECTED@@U?$less@K@std@@V?$allocator@U?$pair@$$CBKPAUtagPROTECTED@@@std@@@3@$0A@@std@@@2@@Z
_TEXT	SEGMENT PARA USE32 PUBLIC 'CODE'
_TEXT	ENDS
;	COMDAT ??Econst_iterator@?$_Tree@V?$_Tmap_traits@KPAUtagPROTECTED@@U?$less@K@std@@V?$allocator@U?$pair@$$CBKPAUtagPROTECTED@@@std@@@3@$0A@@std@@@std@@QAEAAV012@XZ
_TEXT	SEGMENT PARA USE32 PUBLIC 'CODE'
_TEXT	ENDS
;	COMDAT ??Yiterator@?$vector@KV?$allocator@K@std@@@std@@QAEAAV012@H@Z
_TEXT	SEGMENT PARA USE32 PUBLIC 'CODE'
_TEXT	ENDS
;	COMDAT ??0const_iterator@?$vector@KV?$allocator@K@std@@@std@@QAE@PAK@Z
_TEXT	SEGMENT PARA USE32 PUBLIC 'CODE'
_TEXT	ENDS
;	COMDAT ?_Left@?$_Tree@V?$_Tmap_traits@EEU?$less@E@std@@V?$allocator@U?$pair@$$CBEE@std@@@2@$0A@@std@@@std@@KAAAPAU_Node@?$_Tree_nod@V?$_Tmap_traits@EEU?$less@E@std@@V?$allocator@U?$pair@$$CBEE@std@@@2@$0A@@std@@@2@PAU342@@Z
_TEXT	SEGMENT PARA USE32 PUBLIC 'CODE'
_TEXT	ENDS
;	COMDAT ?_Myval@?$_Tree@V?$_Tmap_traits@EEU?$less@E@std@@V?$allocator@U?$pair@$$CBEE@std@@@2@$0A@@std@@@std@@KAAAU?$pair@$$CBEE@2@PAU_Node@?$_Tree_nod@V?$_Tmap_traits@EEU?$less@E@std@@V?$allocator@U?$pair@$$CBEE@std@@@2@$0A@@std@@@2@@Z
_TEXT	SEGMENT PARA USE32 PUBLIC 'CODE'
_TEXT	ENDS
;	COMDAT ??0const_iterator@?$_Tree@V?$_Tmap_traits@EEU?$less@E@std@@V?$allocator@U?$pair@$$CBEE@std@@@2@$0A@@std@@@std@@QAE@PAU_Node@?$_Tree_nod@V?$_Tmap_traits@EEU?$less@E@std@@V?$allocator@U?$pair@$$CBEE@std@@@2@$0A@@std@@@2@@Z
_TEXT	SEGMENT PARA USE32 PUBLIC 'CODE'
_TEXT	ENDS
;	COMDAT ??Econst_iterator@?$_Tree@V?$_Tmap_traits@EEU?$less@E@std@@V?$allocator@U?$pair@$$CBEE@std@@@2@$0A@@std@@@std@@QAEAAV012@XZ
_TEXT	SEGMENT PARA USE32 PUBLIC 'CODE'
_TEXT	ENDS
;	COMDAT ??0const_iterator@?$_Tree@V?$_Tmap_traits@GPAUtagLOCAL@@U?$less@G@std@@V?$allocator@U?$pair@$$CBGPAUtagLOCAL@@@std@@@3@$0A@@std@@@std@@QAE@PAU_Node@?$_Tree_nod@V?$_Tmap_traits@GPAUtagLOCAL@@U?$less@G@std@@V?$allocator@U?$pair@$$CBGPAUtagLOCAL@@@std@@@3@$0A@@std@@@2@@Z
_TEXT	SEGMENT PARA USE32 PUBLIC 'CODE'
_TEXT	ENDS
;	COMDAT ??Econst_iterator@?$_Tree@V?$_Tmap_traits@GPAUtagLOCAL@@U?$less@G@std@@V?$allocator@U?$pair@$$CBGPAUtagLOCAL@@@std@@@3@$0A@@std@@@std@@QAEAAV012@XZ
_TEXT	SEGMENT PARA USE32 PUBLIC 'CODE'
_TEXT	ENDS
;	COMDAT ??0const_iterator@?$_Tree@V?$_Tmap_traits@KPAVCTPlayer@@U?$less@K@std@@V?$allocator@U?$pair@$$CBKPAVCTPlayer@@@std@@@3@$0A@@std@@@std@@QAE@PAU_Node@?$_Tree_nod@V?$_Tmap_traits@KPAVCTPlayer@@U?$less@K@std@@V?$allocator@U?$pair@$$CBKPAVCTPlayer@@@std@@@3@$0A@@std@@@2@@Z
_TEXT	SEGMENT PARA USE32 PUBLIC 'CODE'
_TEXT	ENDS
;	COMDAT ??0iterator@?$vector@PAVCTPlayer@@V?$allocator@PAVCTPlayer@@@std@@@std@@QAE@PAPAVCTPlayer@@@Z
_TEXT	SEGMENT PARA USE32 PUBLIC 'CODE'
_TEXT	ENDS
;	COMDAT ??Yiterator@?$vector@PAVCTPlayer@@V?$allocator@PAVCTPlayer@@@std@@@std@@QAEAAV012@H@Z
_TEXT	SEGMENT PARA USE32 PUBLIC 'CODE'
_TEXT	ENDS
;	COMDAT ??Dconst_iterator@?$vector@PAVCTPlayer@@V?$allocator@PAVCTPlayer@@@std@@@std@@QBEABQAVCTPlayer@@XZ
_TEXT	SEGMENT PARA USE32 PUBLIC 'CODE'
_TEXT	ENDS
;	COMDAT ??0iterator@?$vector@PAVCTItem@@V?$allocator@PAVCTItem@@@std@@@std@@QAE@PAPAVCTItem@@@Z
_TEXT	SEGMENT PARA USE32 PUBLIC 'CODE'
_TEXT	ENDS
;	COMDAT ??Yiterator@?$vector@PAVCTItem@@V?$allocator@PAVCTItem@@@std@@@std@@QAEAAV012@H@Z
_TEXT	SEGMENT PARA USE32 PUBLIC 'CODE'
_TEXT	ENDS
;	COMDAT ??Ziterator@?$vector@PAVCTItem@@V?$allocator@PAVCTItem@@@std@@@std@@QAEAAV012@H@Z
_TEXT	SEGMENT PARA USE32 PUBLIC 'CODE'
_TEXT	ENDS
;	COMDAT ??Dconst_iterator@?$vector@PAVCTItem@@V?$allocator@PAVCTItem@@@std@@@std@@QBEABQAVCTItem@@XZ
_TEXT	SEGMENT PARA USE32 PUBLIC 'CODE'
_TEXT	ENDS
;	COMDAT ??0iterator@?$vector@PAVCTSkill@@V?$allocator@PAVCTSkill@@@std@@@std@@QAE@PAPAVCTSkill@@@Z
_TEXT	SEGMENT PARA USE32 PUBLIC 'CODE'
_TEXT	ENDS
;	COMDAT ??Yiterator@?$vector@PAVCTSkill@@V?$allocator@PAVCTSkill@@@std@@@std@@QAEAAV012@H@Z
_TEXT	SEGMENT PARA USE32 PUBLIC 'CODE'
_TEXT	ENDS
;	COMDAT ??Dconst_iterator@?$vector@PAVCTSkill@@V?$allocator@PAVCTSkill@@@std@@@std@@QBEABQAVCTSkill@@XZ
_TEXT	SEGMENT PARA USE32 PUBLIC 'CODE'
_TEXT	ENDS
;	COMDAT ??0?$CSimpleStringT@D$0A@@ATL@@QAE@PBDHPAUIAtlStringMgr@1@@Z
_TEXT	SEGMENT PARA USE32 PUBLIC 'CODE'
_TEXT	ENDS
;	COMDAT ?_Isnil@?$_Tree@V?$_Tmap_traits@KPAVCTPlayer@@U?$less@K@std@@V?$allocator@U?$pair@$$CBKPAVCTPlayer@@@std@@@3@$0A@@std@@@std@@KAAADPAU_Node@?$_Tree_nod@V?$_Tmap_traits@KPAVCTPlayer@@U?$less@K@std@@V?$allocator@U?$pair@$$CBKPAVCTPlayer@@@std@@@3@$0A@@std@@@2@@Z
_TEXT	SEGMENT PARA USE32 PUBLIC 'CODE'
_TEXT	ENDS
;	COMDAT ?_Left@?$_Tree@V?$_Tmap_traits@KPAVCTPlayer@@U?$less@K@std@@V?$allocator@U?$pair@$$CBKPAVCTPlayer@@@std@@@3@$0A@@std@@@std@@KAAAPAU_Node@?$_Tree_nod@V?$_Tmap_traits@KPAVCTPlayer@@U?$less@K@std@@V?$allocator@U?$pair@$$CBKPAVCTPlayer@@@std@@@3@$0A@@std@@@2@PAU342@@Z
_TEXT	SEGMENT PARA USE32 PUBLIC 'CODE'
_TEXT	ENDS
;	COMDAT ?_Right@?$_Tree@V?$_Tmap_traits@KPAVCTPlayer@@U?$less@K@std@@V?$allocator@U?$pair@$$CBKPAVCTPlayer@@@std@@@3@$0A@@std@@@std@@KAAAPAU_Node@?$_Tree_nod@V?$_Tmap_traits@KPAVCTPlayer@@U?$less@K@std@@V?$allocator@U?$pair@$$CBKPAVCTPlayer@@@std@@@3@$0A@@std@@@2@PAU342@@Z
_TEXT	SEGMENT PARA USE32 PUBLIC 'CODE'
_TEXT	ENDS
;	COMDAT ?_Root@?$_Tree@V?$_Tmap_traits@KPAVCTPlayer@@U?$less@K@std@@V?$allocator@U?$pair@$$CBKPAVCTPlayer@@@std@@@3@$0A@@std@@@std@@IBEAAPAU_Node@?$_Tree_nod@V?$_Tmap_traits@KPAVCTPlayer@@U?$less@K@std@@V?$allocator@U?$pair@$$CBKPAVCTPlayer@@@std@@@3@$0A@@std@@@2@XZ
_TEXT	SEGMENT PARA USE32 PUBLIC 'CODE'
_TEXT	ENDS
;	COMDAT ?_Isnil@?$_Tree@V?$_Tmap_traits@GPAUtagARENA@@U?$less@G@std@@V?$allocator@U?$pair@$$CBGPAUtagARENA@@@std@@@3@$0A@@std@@@std@@KAAADPAU_Node@?$_Tree_nod@V?$_Tmap_traits@GPAUtagARENA@@U?$less@G@std@@V?$allocator@U?$pair@$$CBGPAUtagARENA@@@std@@@3@$0A@@std@@@2@@Z
_TEXT	SEGMENT PARA USE32 PUBLIC 'CODE'
_TEXT	ENDS
;	COMDAT ?_Left@?$_Tree@V?$_Tmap_traits@GPAUtagARENA@@U?$less@G@std@@V?$allocator@U?$pair@$$CBGPAUtagARENA@@@std@@@3@$0A@@std@@@std@@KAAAPAU_Node@?$_Tree_nod@V?$_Tmap_traits@GPAUtagARENA@@U?$less@G@std@@V?$allocator@U?$pair@$$CBGPAUtagARENA@@@std@@@3@$0A@@std@@@2@PAU342@@Z
_TEXT	SEGMENT PARA USE32 PUBLIC 'CODE'
_TEXT	ENDS
;	COMDAT ?_Right@?$_Tree@V?$_Tmap_traits@GPAUtagARENA@@U?$less@G@std@@V?$allocator@U?$pair@$$CBGPAUtagARENA@@@std@@@3@$0A@@std@@@std@@KAAAPAU_Node@?$_Tree_nod@V?$_Tmap_traits@GPAUtagARENA@@U?$less@G@std@@V?$allocator@U?$pair@$$CBGPAUtagARENA@@@std@@@3@$0A@@std@@@2@PAU342@@Z
_TEXT	SEGMENT PARA USE32 PUBLIC 'CODE'
_TEXT	ENDS
;	COMDAT ?_Root@?$_Tree@V?$_Tmap_traits@GPAUtagARENA@@U?$less@G@std@@V?$allocator@U?$pair@$$CBGPAUtagARENA@@@std@@@3@$0A@@std@@@std@@IBEAAPAU_Node@?$_Tree_nod@V?$_Tmap_traits@GPAUtagARENA@@U?$less@G@std@@V?$allocator@U?$pair@$$CBGPAUtagARENA@@@std@@@3@$0A@@std@@@2@XZ
_TEXT	SEGMENT PARA USE32 PUBLIC 'CODE'
_TEXT	ENDS
;	COMDAT ?_Inc@const_iterator@?$_Tree@V?$_Tmap_traits@KPAVCTChannel@@U?$less@K@std@@V?$allocator@U?$pair@$$CBKPAVCTChannel@@@std@@@3@$0A@@std@@@std@@QAEXXZ
_TEXT	SEGMENT PARA USE32 PUBLIC 'CODE'
_TEXT	ENDS
;	COMDAT ?_Inc@const_iterator@?$_Tree@V?$_Tmap_traits@KPAVCTRecallMon@@U?$less@K@std@@V?$allocator@U?$pair@$$CBKPAVCTRecallMon@@@std@@@3@$0A@@std@@@std@@QAEXXZ
_TEXT	SEGMENT PARA USE32 PUBLIC 'CODE'
_TEXT	ENDS
;	COMDAT ?_Inc@const_iterator@?$_Tree@V?$_Tmap_traits@GPAVCTSkill@@U?$less@G@std@@V?$allocator@U?$pair@$$CBGPAVCTSkill@@@std@@@3@$0A@@std@@@std@@QAEXXZ
_TEXT	SEGMENT PARA USE32 PUBLIC 'CODE'
_TEXT	ENDS
;	COMDAT ?_Inc@const_iterator@?$_Tree@V?$_Tmap_traits@EPAVCTInven@@U?$less@E@std@@V?$allocator@U?$pair@$$CBEPAVCTInven@@@std@@@3@$0A@@std@@@std@@QAEXXZ
_TEXT	SEGMENT PARA USE32 PUBLIC 'CODE'
_TEXT	ENDS
;	COMDAT ?_Inc@const_iterator@?$_Tree@V?$_Tmap_traits@EPAUtagCABINET@@U?$less@E@std@@V?$allocator@U?$pair@$$CBEPAUtagCABINET@@@std@@@3@$0A@@std@@@std@@QAEXXZ
_TEXT	SEGMENT PARA USE32 PUBLIC 'CODE'
_TEXT	ENDS
;	COMDAT ?_Inc@const_iterator@?$_Tree@V?$_Tmap_traits@EPAUtagHOTKEYINVEN@@U?$less@E@std@@V?$allocator@U?$pair@$$CBEPAUtagHOTKEYINVEN@@@std@@@3@$0A@@std@@@std@@QAEXXZ
_TEXT	SEGMENT PARA USE32 PUBLIC 'CODE'
_TEXT	ENDS
;	COMDAT ?_Inc@const_iterator@?$_Tree@V?$_Tmap_traits@EPAVCTItem@@U?$less@E@std@@V?$allocator@U?$pair@$$CBEPAVCTItem@@@std@@@3@$0A@@std@@@std@@QAEXXZ
_TEXT	SEGMENT PARA USE32 PUBLIC 'CODE'
_TEXT	ENDS
;	COMDAT ?_Inc@const_iterator@?$_Tree@V?$_Tmap_traits@KKU?$less@K@std@@V?$allocator@U?$pair@$$CBKK@std@@@2@$0A@@std@@@std@@QAEXXZ
_TEXT	SEGMENT PARA USE32 PUBLIC 'CODE'
_TEXT	ENDS
;	COMDAT ?_Inc@const_iterator@?$_Tree@V?$_Tmap_traits@KPAVCQuest@@U?$less@K@std@@V?$allocator@U?$pair@$$CBKPAVCQuest@@@std@@@3@$0A@@std@@@std@@QAEXXZ
_TEXT	SEGMENT PARA USE32 PUBLIC 'CODE'
_TEXT	ENDS
;	COMDAT ?_Inc@const_iterator@?$_Tree@V?$_Tmap_traits@GPAUtagPET@@U?$less@G@std@@V?$allocator@U?$pair@$$CBGPAUtagPET@@@std@@@3@$0A@@std@@@std@@QAEXXZ
_TEXT	SEGMENT PARA USE32 PUBLIC 'CODE'
_TEXT	ENDS
;	COMDAT ?_Inc@const_iterator@?$_Tree@V?$_Tmap_traits@KPAUtagPROTECTED@@U?$less@K@std@@V?$allocator@U?$pair@$$CBKPAUtagPROTECTED@@@std@@@3@$0A@@std@@@std@@QAEXXZ
_TEXT	SEGMENT PARA USE32 PUBLIC 'CODE'
_TEXT	ENDS
;	COMDAT ?_Inc@const_iterator@?$_Tree@V?$_Tmap_traits@EEU?$less@E@std@@V?$allocator@U?$pair@$$CBEE@std@@@2@$0A@@std@@@std@@QAEXXZ
_TEXT	SEGMENT PARA USE32 PUBLIC 'CODE'
_TEXT	ENDS
;	COMDAT ?_Inc@const_iterator@?$_Tree@V?$_Tmap_traits@GPAUtagLOCAL@@U?$less@G@std@@V?$allocator@U?$pair@$$CBGPAUtagLOCAL@@@std@@@3@$0A@@std@@@std@@QAEXXZ
_TEXT	SEGMENT PARA USE32 PUBLIC 'CODE'
_TEXT	ENDS
;	COMDAT ??0const_iterator@?$vector@PAVCTPlayer@@V?$allocator@PAVCTPlayer@@@std@@@std@@QAE@PAPAVCTPlayer@@@Z
_TEXT	SEGMENT PARA USE32 PUBLIC 'CODE'
_TEXT	ENDS
;	COMDAT ??0const_iterator@?$vector@PAVCTItem@@V?$allocator@PAVCTItem@@@std@@@std@@QAE@PAPAVCTItem@@@Z
_TEXT	SEGMENT PARA USE32 PUBLIC 'CODE'
_TEXT	ENDS
;	COMDAT ??0const_iterator@?$vector@PAVCTSkill@@V?$allocator@PAVCTSkill@@@std@@@std@@QAE@PAPAVCTSkill@@@Z
_TEXT	SEGMENT PARA USE32 PUBLIC 'CODE'
_TEXT	ENDS
;	COMDAT ?_Isnil@?$_Tree@V?$_Tmap_traits@GPAUtagLOCAL@@U?$less@G@std@@V?$allocator@U?$pair@$$CBGPAUtagLOCAL@@@std@@@3@$0A@@std@@@std@@KAAADPAU_Node@?$_Tree_nod@V?$_Tmap_traits@GPAUtagLOCAL@@U?$less@G@std@@V?$allocator@U?$pair@$$CBGPAUtagLOCAL@@@std@@@3@$0A@@std@@@2@@Z
_TEXT	SEGMENT PARA USE32 PUBLIC 'CODE'
_TEXT	ENDS
;	COMDAT ?_Parent@?$_Tree@V?$_Tmap_traits@GPAUtagLOCAL@@U?$less@G@std@@V?$allocator@U?$pair@$$CBGPAUtagLOCAL@@@std@@@3@$0A@@std@@@std@@KAAAPAU_Node@?$_Tree_nod@V?$_Tmap_traits@GPAUtagLOCAL@@U?$less@G@std@@V?$allocator@U?$pair@$$CBGPAUtagLOCAL@@@std@@@3@$0A@@std@@@2@PAU342@@Z
_TEXT	SEGMENT PARA USE32 PUBLIC 'CODE'
_TEXT	ENDS
;	COMDAT ?_Right@?$_Tree@V?$_Tmap_traits@GPAUtagLOCAL@@U?$less@G@std@@V?$allocator@U?$pair@$$CBGPAUtagLOCAL@@@std@@@3@$0A@@std@@@std@@KAAAPAU_Node@?$_Tree_nod@V?$_Tmap_traits@GPAUtagLOCAL@@U?$less@G@std@@V?$allocator@U?$pair@$$CBGPAUtagLOCAL@@@std@@@3@$0A@@std@@@2@PAU342@@Z
_TEXT	SEGMENT PARA USE32 PUBLIC 'CODE'
_TEXT	ENDS
;	COMDAT ?_Min@?$_Tree@V?$_Tmap_traits@GPAUtagLOCAL@@U?$less@G@std@@V?$allocator@U?$pair@$$CBGPAUtagLOCAL@@@std@@@3@$0A@@std@@@std@@KAPAU_Node@?$_Tree_nod@V?$_Tmap_traits@GPAUtagLOCAL@@U?$less@G@std@@V?$allocator@U?$pair@$$CBGPAUtagLOCAL@@@std@@@3@$0A@@std@@@2@PAU342@@Z
_TEXT	SEGMENT PARA USE32 PUBLIC 'CODE'
_TEXT	ENDS
;	COMDAT ?_Isnil@?$_Tree@V?$_Tmap_traits@KKU?$less@K@std@@V?$allocator@U?$pair@$$CBKK@std@@@2@$0A@@std@@@std@@KAAADPAU_Node@?$_Tree_nod@V?$_Tmap_traits@KKU?$less@K@std@@V?$allocator@U?$pair@$$CBKK@std@@@2@$0A@@std@@@2@@Z
_TEXT	SEGMENT PARA USE32 PUBLIC 'CODE'
_TEXT	ENDS
;	COMDAT ?_Parent@?$_Tree@V?$_Tmap_traits@KKU?$less@K@std@@V?$allocator@U?$pair@$$CBKK@std@@@2@$0A@@std@@@std@@KAAAPAU_Node@?$_Tree_nod@V?$_Tmap_traits@KKU?$less@K@std@@V?$allocator@U?$pair@$$CBKK@std@@@2@$0A@@std@@@2@PAU342@@Z
_TEXT	SEGMENT PARA USE32 PUBLIC 'CODE'
_TEXT	ENDS
;	COMDAT ?_Right@?$_Tree@V?$_Tmap_traits@KKU?$less@K@std@@V?$allocator@U?$pair@$$CBKK@std@@@2@$0A@@std@@@std@@KAAAPAU_Node@?$_Tree_nod@V?$_Tmap_traits@KKU?$less@K@std@@V?$allocator@U?$pair@$$CBKK@std@@@2@$0A@@std@@@2@PAU342@@Z
_TEXT	SEGMENT PARA USE32 PUBLIC 'CODE'
_TEXT	ENDS
;	COMDAT ?_Min@?$_Tree@V?$_Tmap_traits@KKU?$less@K@std@@V?$allocator@U?$pair@$$CBKK@std@@@2@$0A@@std@@@std@@KAPAU_Node@?$_Tree_nod@V?$_Tmap_traits@KKU?$less@K@std@@V?$allocator@U?$pair@$$CBKK@std@@@2@$0A@@std@@@2@PAU342@@Z
_TEXT	SEGMENT PARA USE32 PUBLIC 'CODE'
_TEXT	ENDS
;	COMDAT ?_Parent@?$_Tree@V?$_Tmap_traits@KPAVCTPlayer@@U?$less@K@std@@V?$allocator@U?$pair@$$CBKPAVCTPlayer@@@std@@@3@$0A@@std@@@std@@KAAAPAU_Node@?$_Tree_nod@V?$_Tmap_traits@KPAVCTPlayer@@U?$less@K@std@@V?$allocator@U?$pair@$$CBKPAVCTPlayer@@@std@@@3@$0A@@std@@@2@PAU342@@Z
_TEXT	SEGMENT PARA USE32 PUBLIC 'CODE'
_TEXT	ENDS
;	COMDAT ?_Isnil@?$_Tree@V?$_Tmap_traits@EPAVCTInven@@U?$less@E@std@@V?$allocator@U?$pair@$$CBEPAVCTInven@@@std@@@3@$0A@@std@@@std@@KAAADPAU_Node@?$_Tree_nod@V?$_Tmap_traits@EPAVCTInven@@U?$less@E@std@@V?$allocator@U?$pair@$$CBEPAVCTInven@@@std@@@3@$0A@@std@@@2@@Z
_TEXT	SEGMENT PARA USE32 PUBLIC 'CODE'
_TEXT	ENDS
;	COMDAT ?_Parent@?$_Tree@V?$_Tmap_traits@EPAVCTInven@@U?$less@E@std@@V?$allocator@U?$pair@$$CBEPAVCTInven@@@std@@@3@$0A@@std@@@std@@KAAAPAU_Node@?$_Tree_nod@V?$_Tmap_traits@EPAVCTInven@@U?$less@E@std@@V?$allocator@U?$pair@$$CBEPAVCTInven@@@std@@@3@$0A@@std@@@2@PAU342@@Z
_TEXT	SEGMENT PARA USE32 PUBLIC 'CODE'
_TEXT	ENDS
;	COMDAT ?_Right@?$_Tree@V?$_Tmap_traits@EPAVCTInven@@U?$less@E@std@@V?$allocator@U?$pair@$$CBEPAVCTInven@@@std@@@3@$0A@@std@@@std@@KAAAPAU_Node@?$_Tree_nod@V?$_Tmap_traits@EPAVCTInven@@U?$less@E@std@@V?$allocator@U?$pair@$$CBEPAVCTInven@@@std@@@3@$0A@@std@@@2@PAU342@@Z
_TEXT	SEGMENT PARA USE32 PUBLIC 'CODE'
_TEXT	ENDS
;	COMDAT ?_Min@?$_Tree@V?$_Tmap_traits@EPAVCTInven@@U?$less@E@std@@V?$allocator@U?$pair@$$CBEPAVCTInven@@@std@@@3@$0A@@std@@@std@@KAPAU_Node@?$_Tree_nod@V?$_Tmap_traits@EPAVCTInven@@U?$less@E@std@@V?$allocator@U?$pair@$$CBEPAVCTInven@@@std@@@3@$0A@@std@@@2@PAU342@@Z
_TEXT	SEGMENT PARA USE32 PUBLIC 'CODE'
_TEXT	ENDS
;	COMDAT ?_Isnil@?$_Tree@V?$_Tmap_traits@GPAVCTSkill@@U?$less@G@std@@V?$allocator@U?$pair@$$CBGPAVCTSkill@@@std@@@3@$0A@@std@@@std@@KAAADPAU_Node@?$_Tree_nod@V?$_Tmap_traits@GPAVCTSkill@@U?$less@G@std@@V?$allocator@U?$pair@$$CBGPAVCTSkill@@@std@@@3@$0A@@std@@@2@@Z
_TEXT	SEGMENT PARA USE32 PUBLIC 'CODE'
_TEXT	ENDS
;	COMDAT ?_Parent@?$_Tree@V?$_Tmap_traits@GPAVCTSkill@@U?$less@G@std@@V?$allocator@U?$pair@$$CBGPAVCTSkill@@@std@@@3@$0A@@std@@@std@@KAAAPAU_Node@?$_Tree_nod@V?$_Tmap_traits@GPAVCTSkill@@U?$less@G@std@@V?$allocator@U?$pair@$$CBGPAVCTSkill@@@std@@@3@$0A@@std@@@2@PAU342@@Z
_TEXT	SEGMENT PARA USE32 PUBLIC 'CODE'
_TEXT	ENDS
;	COMDAT ?_Right@?$_Tree@V?$_Tmap_traits@GPAVCTSkill@@U?$less@G@std@@V?$allocator@U?$pair@$$CBGPAVCTSkill@@@std@@@3@$0A@@std@@@std@@KAAAPAU_Node@?$_Tree_nod@V?$_Tmap_traits@GPAVCTSkill@@U?$less@G@std@@V?$allocator@U?$pair@$$CBGPAVCTSkill@@@std@@@3@$0A@@std@@@2@PAU342@@Z
_TEXT	SEGMENT PARA USE32 PUBLIC 'CODE'
_TEXT	ENDS
;	COMDAT ?_Min@?$_Tree@V?$_Tmap_traits@GPAVCTSkill@@U?$less@G@std@@V?$allocator@U?$pair@$$CBGPAVCTSkill@@@std@@@3@$0A@@std@@@std@@KAPAU_Node@?$_Tree_nod@V?$_Tmap_traits@GPAVCTSkill@@U?$less@G@std@@V?$allocator@U?$pair@$$CBGPAVCTSkill@@@std@@@3@$0A@@std@@@2@PAU342@@Z
_TEXT	SEGMENT PARA USE32 PUBLIC 'CODE'
_TEXT	ENDS
;	COMDAT ?_Isnil@?$_Tree@V?$_Tmap_traits@EPAVCTItem@@U?$less@E@std@@V?$allocator@U?$pair@$$CBEPAVCTItem@@@std@@@3@$0A@@std@@@std@@KAAADPAU_Node@?$_Tree_nod@V?$_Tmap_traits@EPAVCTItem@@U?$less@E@std@@V?$allocator@U?$pair@$$CBEPAVCTItem@@@std@@@3@$0A@@std@@@2@@Z
_TEXT	SEGMENT PARA USE32 PUBLIC 'CODE'
_TEXT	ENDS
;	COMDAT ?_Parent@?$_Tree@V?$_Tmap_traits@EPAVCTItem@@U?$less@E@std@@V?$allocator@U?$pair@$$CBEPAVCTItem@@@std@@@3@$0A@@std@@@std@@KAAAPAU_Node@?$_Tree_nod@V?$_Tmap_traits@EPAVCTItem@@U?$less@E@std@@V?$allocator@U?$pair@$$CBEPAVCTItem@@@std@@@3@$0A@@std@@@2@PAU342@@Z
_TEXT	SEGMENT PARA USE32 PUBLIC 'CODE'
_TEXT	ENDS
;	COMDAT ?_Right@?$_Tree@V?$_Tmap_traits@EPAVCTItem@@U?$less@E@std@@V?$allocator@U?$pair@$$CBEPAVCTItem@@@std@@@3@$0A@@std@@@std@@KAAAPAU_Node@?$_Tree_nod@V?$_Tmap_traits@EPAVCTItem@@U?$less@E@std@@V?$allocator@U?$pair@$$CBEPAVCTItem@@@std@@@3@$0A@@std@@@2@PAU342@@Z
_TEXT	SEGMENT PARA USE32 PUBLIC 'CODE'
_TEXT	ENDS
;	COMDAT ?_Min@?$_Tree@V?$_Tmap_traits@EPAVCTItem@@U?$less@E@std@@V?$allocator@U?$pair@$$CBEPAVCTItem@@@std@@@3@$0A@@std@@@std@@KAPAU_Node@?$_Tree_nod@V?$_Tmap_traits@EPAVCTItem@@U?$less@E@std@@V?$allocator@U?$pair@$$CBEPAVCTItem@@@std@@@3@$0A@@std@@@2@PAU342@@Z
_TEXT	SEGMENT PARA USE32 PUBLIC 'CODE'
_TEXT	ENDS
;	COMDAT ?_Isnil@?$_Tree@V?$_Tmap_traits@EPAUtagHOTKEYINVEN@@U?$less@E@std@@V?$allocator@U?$pair@$$CBEPAUtagHOTKEYINVEN@@@std@@@3@$0A@@std@@@std@@KAAADPAU_Node@?$_Tree_nod@V?$_Tmap_traits@EPAUtagHOTKEYINVEN@@U?$less@E@std@@V?$allocator@U?$pair@$$CBEPAUtagHOTKEYINVEN@@@std@@@3@$0A@@std@@@2@@Z
_TEXT	SEGMENT PARA USE32 PUBLIC 'CODE'
_TEXT	ENDS
;	COMDAT ?_Parent@?$_Tree@V?$_Tmap_traits@EPAUtagHOTKEYINVEN@@U?$less@E@std@@V?$allocator@U?$pair@$$CBEPAUtagHOTKEYINVEN@@@std@@@3@$0A@@std@@@std@@KAAAPAU_Node@?$_Tree_nod@V?$_Tmap_traits@EPAUtagHOTKEYINVEN@@U?$less@E@std@@V?$allocator@U?$pair@$$CBEPAUtagHOTKEYINVEN@@@std@@@3@$0A@@std@@@2@PAU342@@Z
_TEXT	SEGMENT PARA USE32 PUBLIC 'CODE'
_TEXT	ENDS
;	COMDAT ?_Right@?$_Tree@V?$_Tmap_traits@EPAUtagHOTKEYINVEN@@U?$less@E@std@@V?$allocator@U?$pair@$$CBEPAUtagHOTKEYINVEN@@@std@@@3@$0A@@std@@@std@@KAAAPAU_Node@?$_Tree_nod@V?$_Tmap_traits@EPAUtagHOTKEYINVEN@@U?$less@E@std@@V?$allocator@U?$pair@$$CBEPAUtagHOTKEYINVEN@@@std@@@3@$0A@@std@@@2@PAU342@@Z
_TEXT	SEGMENT PARA USE32 PUBLIC 'CODE'
_TEXT	ENDS
;	COMDAT ?_Min@?$_Tree@V?$_Tmap_traits@EPAUtagHOTKEYINVEN@@U?$less@E@std@@V?$allocator@U?$pair@$$CBEPAUtagHOTKEYINVEN@@@std@@@3@$0A@@std@@@std@@KAPAU_Node@?$_Tree_nod@V?$_Tmap_traits@EPAUtagHOTKEYINVEN@@U?$less@E@std@@V?$allocator@U?$pair@$$CBEPAUtagHOTKEYINVEN@@@std@@@3@$0A@@std@@@2@PAU342@@Z
_TEXT	SEGMENT PARA USE32 PUBLIC 'CODE'
_TEXT	ENDS
;	COMDAT ?_Isnil@?$_Tree@V?$_Tmap_traits@EPAUtagCABINET@@U?$less@E@std@@V?$allocator@U?$pair@$$CBEPAUtagCABINET@@@std@@@3@$0A@@std@@@std@@KAAADPAU_Node@?$_Tree_nod@V?$_Tmap_traits@EPAUtagCABINET@@U?$less@E@std@@V?$allocator@U?$pair@$$CBEPAUtagCABINET@@@std@@@3@$0A@@std@@@2@@Z
_TEXT	SEGMENT PARA USE32 PUBLIC 'CODE'
_TEXT	ENDS
;	COMDAT ?_Parent@?$_Tree@V?$_Tmap_traits@EPAUtagCABINET@@U?$less@E@std@@V?$allocator@U?$pair@$$CBEPAUtagCABINET@@@std@@@3@$0A@@std@@@std@@KAAAPAU_Node@?$_Tree_nod@V?$_Tmap_traits@EPAUtagCABINET@@U?$less@E@std@@V?$allocator@U?$pair@$$CBEPAUtagCABINET@@@std@@@3@$0A@@std@@@2@PAU342@@Z
_TEXT	SEGMENT PARA USE32 PUBLIC 'CODE'
_TEXT	ENDS
;	COMDAT ?_Right@?$_Tree@V?$_Tmap_traits@EPAUtagCABINET@@U?$less@E@std@@V?$allocator@U?$pair@$$CBEPAUtagCABINET@@@std@@@3@$0A@@std@@@std@@KAAAPAU_Node@?$_Tree_nod@V?$_Tmap_traits@EPAUtagCABINET@@U?$less@E@std@@V?$allocator@U?$pair@$$CBEPAUtagCABINET@@@std@@@3@$0A@@std@@@2@PAU342@@Z
_TEXT	SEGMENT PARA USE32 PUBLIC 'CODE'
_TEXT	ENDS
;	COMDAT ?_Min@?$_Tree@V?$_Tmap_traits@EPAUtagCABINET@@U?$less@E@std@@V?$allocator@U?$pair@$$CBEPAUtagCABINET@@@std@@@3@$0A@@std@@@std@@KAPAU_Node@?$_Tree_nod@V?$_Tmap_traits@EPAUtagCABINET@@U?$less@E@std@@V?$allocator@U?$pair@$$CBEPAUtagCABINET@@@std@@@3@$0A@@std@@@2@PAU342@@Z
_TEXT	SEGMENT PARA USE32 PUBLIC 'CODE'
_TEXT	ENDS
;	COMDAT ?_Isnil@?$_Tree@V?$_Tmap_traits@KPAVCTRecallMon@@U?$less@K@std@@V?$allocator@U?$pair@$$CBKPAVCTRecallMon@@@std@@@3@$0A@@std@@@std@@KAAADPAU_Node@?$_Tree_nod@V?$_Tmap_traits@KPAVCTRecallMon@@U?$less@K@std@@V?$allocator@U?$pair@$$CBKPAVCTRecallMon@@@std@@@3@$0A@@std@@@2@@Z
_TEXT	SEGMENT PARA USE32 PUBLIC 'CODE'
_TEXT	ENDS
;	COMDAT ?_Parent@?$_Tree@V?$_Tmap_traits@KPAVCTRecallMon@@U?$less@K@std@@V?$allocator@U?$pair@$$CBKPAVCTRecallMon@@@std@@@3@$0A@@std@@@std@@KAAAPAU_Node@?$_Tree_nod@V?$_Tmap_traits@KPAVCTRecallMon@@U?$less@K@std@@V?$allocator@U?$pair@$$CBKPAVCTRecallMon@@@std@@@3@$0A@@std@@@2@PAU342@@Z
_TEXT	SEGMENT PARA USE32 PUBLIC 'CODE'
_TEXT	ENDS
;	COMDAT ?_Right@?$_Tree@V?$_Tmap_traits@KPAVCTRecallMon@@U?$less@K@std@@V?$allocator@U?$pair@$$CBKPAVCTRecallMon@@@std@@@3@$0A@@std@@@std@@KAAAPAU_Node@?$_Tree_nod@V?$_Tmap_traits@KPAVCTRecallMon@@U?$less@K@std@@V?$allocator@U?$pair@$$CBKPAVCTRecallMon@@@std@@@3@$0A@@std@@@2@PAU342@@Z
_TEXT	SEGMENT PARA USE32 PUBLIC 'CODE'
_TEXT	ENDS
;	COMDAT ?_Min@?$_Tree@V?$_Tmap_traits@KPAVCTRecallMon@@U?$less@K@std@@V?$allocator@U?$pair@$$CBKPAVCTRecallMon@@@std@@@3@$0A@@std@@@std@@KAPAU_Node@?$_Tree_nod@V?$_Tmap_traits@KPAVCTRecallMon@@U?$less@K@std@@V?$allocator@U?$pair@$$CBKPAVCTRecallMon@@@std@@@3@$0A@@std@@@2@PAU342@@Z
_TEXT	SEGMENT PARA USE32 PUBLIC 'CODE'
_TEXT	ENDS
;	COMDAT ?_Isnil@?$_Tree@V?$_Tmap_traits@GPAUtagPET@@U?$less@G@std@@V?$allocator@U?$pair@$$CBGPAUtagPET@@@std@@@3@$0A@@std@@@std@@KAAADPAU_Node@?$_Tree_nod@V?$_Tmap_traits@GPAUtagPET@@U?$less@G@std@@V?$allocator@U?$pair@$$CBGPAUtagPET@@@std@@@3@$0A@@std@@@2@@Z
_TEXT	SEGMENT PARA USE32 PUBLIC 'CODE'
_TEXT	ENDS
;	COMDAT ?_Parent@?$_Tree@V?$_Tmap_traits@GPAUtagPET@@U?$less@G@std@@V?$allocator@U?$pair@$$CBGPAUtagPET@@@std@@@3@$0A@@std@@@std@@KAAAPAU_Node@?$_Tree_nod@V?$_Tmap_traits@GPAUtagPET@@U?$less@G@std@@V?$allocator@U?$pair@$$CBGPAUtagPET@@@std@@@3@$0A@@std@@@2@PAU342@@Z
_TEXT	SEGMENT PARA USE32 PUBLIC 'CODE'
_TEXT	ENDS
;	COMDAT ?_Right@?$_Tree@V?$_Tmap_traits@GPAUtagPET@@U?$less@G@std@@V?$allocator@U?$pair@$$CBGPAUtagPET@@@std@@@3@$0A@@std@@@std@@KAAAPAU_Node@?$_Tree_nod@V?$_Tmap_traits@GPAUtagPET@@U?$less@G@std@@V?$allocator@U?$pair@$$CBGPAUtagPET@@@std@@@3@$0A@@std@@@2@PAU342@@Z
_TEXT	SEGMENT PARA USE32 PUBLIC 'CODE'
_TEXT	ENDS
;	COMDAT ?_Min@?$_Tree@V?$_Tmap_traits@GPAUtagPET@@U?$less@G@std@@V?$allocator@U?$pair@$$CBGPAUtagPET@@@std@@@3@$0A@@std@@@std@@KAPAU_Node@?$_Tree_nod@V?$_Tmap_traits@GPAUtagPET@@U?$less@G@std@@V?$allocator@U?$pair@$$CBGPAUtagPET@@@std@@@3@$0A@@std@@@2@PAU342@@Z
_TEXT	SEGMENT PARA USE32 PUBLIC 'CODE'
_TEXT	ENDS
;	COMDAT ?_Isnil@?$_Tree@V?$_Tmap_traits@KPAUtagPROTECTED@@U?$less@K@std@@V?$allocator@U?$pair@$$CBKPAUtagPROTECTED@@@std@@@3@$0A@@std@@@std@@KAAADPAU_Node@?$_Tree_nod@V?$_Tmap_traits@KPAUtagPROTECTED@@U?$less@K@std@@V?$allocator@U?$pair@$$CBKPAUtagPROTECTED@@@std@@@3@$0A@@std@@@2@@Z
_TEXT	SEGMENT PARA USE32 PUBLIC 'CODE'
_TEXT	ENDS
;	COMDAT ?_Parent@?$_Tree@V?$_Tmap_traits@KPAUtagPROTECTED@@U?$less@K@std@@V?$allocator@U?$pair@$$CBKPAUtagPROTECTED@@@std@@@3@$0A@@std@@@std@@KAAAPAU_Node@?$_Tree_nod@V?$_Tmap_traits@KPAUtagPROTECTED@@U?$less@K@std@@V?$allocator@U?$pair@$$CBKPAUtagPROTECTED@@@std@@@3@$0A@@std@@@2@PAU342@@Z
_TEXT	SEGMENT PARA USE32 PUBLIC 'CODE'
_TEXT	ENDS
;	COMDAT ?_Right@?$_Tree@V?$_Tmap_traits@KPAUtagPROTECTED@@U?$less@K@std@@V?$allocator@U?$pair@$$CBKPAUtagPROTECTED@@@std@@@3@$0A@@std@@@std@@KAAAPAU_Node@?$_Tree_nod@V?$_Tmap_traits@KPAUtagPROTECTED@@U?$less@K@std@@V?$allocator@U?$pair@$$CBKPAUtagPROTECTED@@@std@@@3@$0A@@std@@@2@PAU342@@Z
_TEXT	SEGMENT PARA USE32 PUBLIC 'CODE'
_TEXT	ENDS
;	COMDAT ?_Min@?$_Tree@V?$_Tmap_traits@KPAUtagPROTECTED@@U?$less@K@std@@V?$allocator@U?$pair@$$CBKPAUtagPROTECTED@@@std@@@3@$0A@@std@@@std@@KAPAU_Node@?$_Tree_nod@V?$_Tmap_traits@KPAUtagPROTECTED@@U?$less@K@std@@V?$allocator@U?$pair@$$CBKPAUtagPROTECTED@@@std@@@3@$0A@@std@@@2@PAU342@@Z
_TEXT	SEGMENT PARA USE32 PUBLIC 'CODE'
_TEXT	ENDS
;	COMDAT ?_Isnil@?$_Tree@V?$_Tmap_traits@KPAVCQuest@@U?$less@K@std@@V?$allocator@U?$pair@$$CBKPAVCQuest@@@std@@@3@$0A@@std@@@std@@KAAADPAU_Node@?$_Tree_nod@V?$_Tmap_traits@KPAVCQuest@@U?$less@K@std@@V?$allocator@U?$pair@$$CBKPAVCQuest@@@std@@@3@$0A@@std@@@2@@Z
_TEXT	SEGMENT PARA USE32 PUBLIC 'CODE'
_TEXT	ENDS
;	COMDAT ?_Parent@?$_Tree@V?$_Tmap_traits@KPAVCQuest@@U?$less@K@std@@V?$allocator@U?$pair@$$CBKPAVCQuest@@@std@@@3@$0A@@std@@@std@@KAAAPAU_Node@?$_Tree_nod@V?$_Tmap_traits@KPAVCQuest@@U?$less@K@std@@V?$allocator@U?$pair@$$CBKPAVCQuest@@@std@@@3@$0A@@std@@@2@PAU342@@Z
_TEXT	SEGMENT PARA USE32 PUBLIC 'CODE'
_TEXT	ENDS
;	COMDAT ?_Right@?$_Tree@V?$_Tmap_traits@KPAVCQuest@@U?$less@K@std@@V?$allocator@U?$pair@$$CBKPAVCQuest@@@std@@@3@$0A@@std@@@std@@KAAAPAU_Node@?$_Tree_nod@V?$_Tmap_traits@KPAVCQuest@@U?$less@K@std@@V?$allocator@U?$pair@$$CBKPAVCQuest@@@std@@@3@$0A@@std@@@2@PAU342@@Z
_TEXT	SEGMENT PARA USE32 PUBLIC 'CODE'
_TEXT	ENDS
;	COMDAT ?_Min@?$_Tree@V?$_Tmap_traits@KPAVCQuest@@U?$less@K@std@@V?$allocator@U?$pair@$$CBKPAVCQuest@@@std@@@3@$0A@@std@@@std@@KAPAU_Node@?$_Tree_nod@V?$_Tmap_traits@KPAVCQuest@@U?$less@K@std@@V?$allocator@U?$pair@$$CBKPAVCQuest@@@std@@@3@$0A@@std@@@2@PAU342@@Z
_TEXT	SEGMENT PARA USE32 PUBLIC 'CODE'
_TEXT	ENDS
;	COMDAT ?_Isnil@?$_Tree@V?$_Tmap_traits@KPAVCTChannel@@U?$less@K@std@@V?$allocator@U?$pair@$$CBKPAVCTChannel@@@std@@@3@$0A@@std@@@std@@KAAADPAU_Node@?$_Tree_nod@V?$_Tmap_traits@KPAVCTChannel@@U?$less@K@std@@V?$allocator@U?$pair@$$CBKPAVCTChannel@@@std@@@3@$0A@@std@@@2@@Z
_TEXT	SEGMENT PARA USE32 PUBLIC 'CODE'
_TEXT	ENDS
;	COMDAT ?_Parent@?$_Tree@V?$_Tmap_traits@KPAVCTChannel@@U?$less@K@std@@V?$allocator@U?$pair@$$CBKPAVCTChannel@@@std@@@3@$0A@@std@@@std@@KAAAPAU_Node@?$_Tree_nod@V?$_Tmap_traits@KPAVCTChannel@@U?$less@K@std@@V?$allocator@U?$pair@$$CBKPAVCTChannel@@@std@@@3@$0A@@std@@@2@PAU342@@Z
_TEXT	SEGMENT PARA USE32 PUBLIC 'CODE'
_TEXT	ENDS
;	COMDAT ?_Right@?$_Tree@V?$_Tmap_traits@KPAVCTChannel@@U?$less@K@std@@V?$allocator@U?$pair@$$CBKPAVCTChannel@@@std@@@3@$0A@@std@@@std@@KAAAPAU_Node@?$_Tree_nod@V?$_Tmap_traits@KPAVCTChannel@@U?$less@K@std@@V?$allocator@U?$pair@$$CBKPAVCTChannel@@@std@@@3@$0A@@std@@@2@PAU342@@Z
_TEXT	SEGMENT PARA USE32 PUBLIC 'CODE'
_TEXT	ENDS
;	COMDAT ?_Min@?$_Tree@V?$_Tmap_traits@KPAVCTChannel@@U?$less@K@std@@V?$allocator@U?$pair@$$CBKPAVCTChannel@@@std@@@3@$0A@@std@@@std@@KAPAU_Node@?$_Tree_nod@V?$_Tmap_traits@KPAVCTChannel@@U?$less@K@std@@V?$allocator@U?$pair@$$CBKPAVCTChannel@@@std@@@3@$0A@@std@@@2@PAU342@@Z
_TEXT	SEGMENT PARA USE32 PUBLIC 'CODE'
_TEXT	ENDS
;	COMDAT ?_Parent@?$_Tree@V?$_Tmap_traits@GPAUtagARENA@@U?$less@G@std@@V?$allocator@U?$pair@$$CBGPAUtagARENA@@@std@@@3@$0A@@std@@@std@@KAAAPAU_Node@?$_Tree_nod@V?$_Tmap_traits@GPAUtagARENA@@U?$less@G@std@@V?$allocator@U?$pair@$$CBGPAUtagARENA@@@std@@@3@$0A@@std@@@2@PAU342@@Z
_TEXT	SEGMENT PARA USE32 PUBLIC 'CODE'
_TEXT	ENDS
;	COMDAT ?_Isnil@?$_Tree@V?$_Tmap_traits@EEU?$less@E@std@@V?$allocator@U?$pair@$$CBEE@std@@@2@$0A@@std@@@std@@KAAADPAU_Node@?$_Tree_nod@V?$_Tmap_traits@EEU?$less@E@std@@V?$allocator@U?$pair@$$CBEE@std@@@2@$0A@@std@@@2@@Z
_TEXT	SEGMENT PARA USE32 PUBLIC 'CODE'
_TEXT	ENDS
;	COMDAT ?_Parent@?$_Tree@V?$_Tmap_traits@EEU?$less@E@std@@V?$allocator@U?$pair@$$CBEE@std@@@2@$0A@@std@@@std@@KAAAPAU_Node@?$_Tree_nod@V?$_Tmap_traits@EEU?$less@E@std@@V?$allocator@U?$pair@$$CBEE@std@@@2@$0A@@std@@@2@PAU342@@Z
_TEXT	SEGMENT PARA USE32 PUBLIC 'CODE'
_TEXT	ENDS
;	COMDAT ?_Right@?$_Tree@V?$_Tmap_traits@EEU?$less@E@std@@V?$allocator@U?$pair@$$CBEE@std@@@2@$0A@@std@@@std@@KAAAPAU_Node@?$_Tree_nod@V?$_Tmap_traits@EEU?$less@E@std@@V?$allocator@U?$pair@$$CBEE@std@@@2@$0A@@std@@@2@PAU342@@Z
_TEXT	SEGMENT PARA USE32 PUBLIC 'CODE'
_TEXT	ENDS
;	COMDAT ?_Min@?$_Tree@V?$_Tmap_traits@EEU?$less@E@std@@V?$allocator@U?$pair@$$CBEE@std@@@2@$0A@@std@@@std@@KAPAU_Node@?$_Tree_nod@V?$_Tmap_traits@EEU?$less@E@std@@V?$allocator@U?$pair@$$CBEE@std@@@2@$0A@@std@@@2@PAU342@@Z
_TEXT	SEGMENT PARA USE32 PUBLIC 'CODE'
_TEXT	ENDS
;	COMDAT ?Unlock@?$CComCritSecLock@VCComCriticalSection@ATL@@@ATL@@QAEXXZ
_TEXT	SEGMENT PARA USE32 PUBLIC 'CODE'
_TEXT	ENDS
;	COMDAT ??$_Uninit_fill_n@GIG@std@@YAXPAGIABGAAV?$allocator@G@0@U_Scalar_ptr_iterator_tag@0@@Z
_TEXT	SEGMENT PARA USE32 PUBLIC 'CODE'
_TEXT	ENDS
;	COMDAT ??$_Ptr_cat@UtagTAICONDITION@@@std@@YA?AU_Scalar_ptr_iterator_tag@0@PAPAUtagTAICONDITION@@0@Z
_TEXT	SEGMENT PARA USE32 PUBLIC 'CODE'
_TEXT	ENDS
;	COMDAT ??$_Destroy_range@PAUtagTAICONDITION@@V?$allocator@PAUtagTAICONDITION@@@std@@@std@@YAXPAPAUtagTAICONDITION@@0AAV?$allocator@PAUtagTAICONDITION@@@0@U_Scalar_ptr_iterator_tag@0@@Z
_TEXT	SEGMENT PARA USE32 PUBLIC 'CODE'
_TEXT	ENDS
;	COMDAT ??$_Ptr_cat@UtagTMONITEM@@@std@@YA?AU_Scalar_ptr_iterator_tag@0@PAPAUtagTMONITEM@@0@Z
_TEXT	SEGMENT PARA USE32 PUBLIC 'CODE'
_TEXT	ENDS
;	COMDAT ??$_Destroy_range@PAUtagTMONITEM@@V?$allocator@PAUtagTMONITEM@@@std@@@std@@YAXPAPAUtagTMONITEM@@0AAV?$allocator@PAUtagTMONITEM@@@0@U_Scalar_ptr_iterator_tag@0@@Z
_TEXT	SEGMENT PARA USE32 PUBLIC 'CODE'
_TEXT	ENDS
;	COMDAT ??$_Ptr_cat@UtagTMAPMON@@@std@@YA?AU_Scalar_ptr_iterator_tag@0@PAPAUtagTMAPMON@@0@Z
_TEXT	SEGMENT PARA USE32 PUBLIC 'CODE'
_TEXT	ENDS
;	COMDAT ??$_Destroy_range@PAUtagTMAPMON@@V?$allocator@PAUtagTMAPMON@@@std@@@std@@YAXPAPAUtagTMAPMON@@0AAV?$allocator@PAUtagTMAPMON@@@0@U_Scalar_ptr_iterator_tag@0@@Z
_TEXT	SEGMENT PARA USE32 PUBLIC 'CODE'
_TEXT	ENDS
;	COMDAT ??$_Ptr_cat@UtagPATHPOINT@@@std@@YA?AU_Scalar_ptr_iterator_tag@0@PAPAUtagPATHPOINT@@0@Z
_TEXT	SEGMENT PARA USE32 PUBLIC 'CODE'
_TEXT	ENDS
;	COMDAT ??$_Destroy_range@PAUtagPATHPOINT@@V?$allocator@PAUtagPATHPOINT@@@std@@@std@@YAXPAPAUtagPATHPOINT@@0AAV?$allocator@PAUtagPATHPOINT@@@0@U_Scalar_ptr_iterator_tag@0@@Z
_TEXT	SEGMENT PARA USE32 PUBLIC 'CODE'
_TEXT	ENDS
;	COMDAT ??$_Ptr_cat@UtagQUESTCONDITION@@@std@@YA?AU_Scalar_ptr_iterator_tag@0@PAPAUtagQUESTCONDITION@@0@Z
_TEXT	SEGMENT PARA USE32 PUBLIC 'CODE'
_TEXT	ENDS
;	COMDAT ??$_Destroy_range@PAUtagQUESTCONDITION@@V?$allocator@PAUtagQUESTCONDITION@@@std@@@std@@YAXPAPAUtagQUESTCONDITION@@0AAV?$allocator@PAUtagQUESTCONDITION@@@0@U_Scalar_ptr_iterator_tag@0@@Z
_TEXT	SEGMENT PARA USE32 PUBLIC 'CODE'
_TEXT	ENDS
;	COMDAT ??$_Ptr_cat@UtagQUESTREWARD@@@std@@YA?AU_Scalar_ptr_iterator_tag@0@PAPAUtagQUESTREWARD@@0@Z
_TEXT	SEGMENT PARA USE32 PUBLIC 'CODE'
_TEXT	ENDS
;	COMDAT ??$_Destroy_range@PAUtagQUESTREWARD@@V?$allocator@PAUtagQUESTREWARD@@@std@@@std@@YAXPAPAUtagQUESTREWARD@@0AAV?$allocator@PAUtagQUESTREWARD@@@0@U_Scalar_ptr_iterator_tag@0@@Z
_TEXT	SEGMENT PARA USE32 PUBLIC 'CODE'
_TEXT	ENDS
;	COMDAT ??$_Ptr_cat@UtagQUESTTERM@@@std@@YA?AU_Scalar_ptr_iterator_tag@0@PAPAUtagQUESTTERM@@0@Z
_TEXT	SEGMENT PARA USE32 PUBLIC 'CODE'
_TEXT	ENDS
;	COMDAT ??$_Destroy_range@PAUtagQUESTTERM@@V?$allocator@PAUtagQUESTTERM@@@std@@@std@@YAXPAPAUtagQUESTTERM@@0AAV?$allocator@PAUtagQUESTTERM@@@0@U_Scalar_ptr_iterator_tag@0@@Z
_TEXT	SEGMENT PARA USE32 PUBLIC 'CODE'
_TEXT	ENDS
;	COMDAT ??$_Ptr_cat@PAUtagTCASHITMSALE@@PAU1@@std@@YA?AU_Nonscalar_ptr_iterator_tag@0@AAPAUtagTCASHITMSALE@@0@Z
_TEXT	SEGMENT PARA USE32 PUBLIC 'CODE'
_TEXT	ENDS
;	COMDAT ??$_Uninit_fill_n@PAUtagTCASHITMSALE@@IU1@V?$allocator@UtagTCASHITMSALE@@@std@@@std@@YAXPAUtagTCASHITMSALE@@IABU1@AAV?$allocator@UtagTCASHITMSALE@@@0@U_Nonscalar_ptr_iterator_tag@0@@Z
_TEXT	SEGMENT PARA USE32 PUBLIC 'CODE'
_TEXT	ENDS
;	COMDAT ??$_Ptr_cat@PAUtagMONREGEN@@PAU1@@std@@YA?AU_Nonscalar_ptr_iterator_tag@0@AAPAUtagMONREGEN@@0@Z
_TEXT	SEGMENT PARA USE32 PUBLIC 'CODE'
_TEXT	ENDS
;	COMDAT ??$_Uninit_fill_n@PAUtagMONREGEN@@IU1@V?$allocator@UtagMONREGEN@@@std@@@std@@YAXPAUtagMONREGEN@@IABU1@AAV?$allocator@UtagMONREGEN@@@0@U_Nonscalar_ptr_iterator_tag@0@@Z
_TEXT	SEGMENT PARA USE32 PUBLIC 'CODE'
_TEXT	ENDS
;	COMDAT ??$_Ptr_cat@PAUtagLOTTERY@@PAU1@@std@@YA?AU_Nonscalar_ptr_iterator_tag@0@AAPAUtagLOTTERY@@0@Z
_TEXT	SEGMENT PARA USE32 PUBLIC 'CODE'
_TEXT	ENDS
;	COMDAT ??$_Uninit_fill_n@PAUtagLOTTERY@@IU1@V?$allocator@UtagLOTTERY@@@std@@@std@@YAXPAUtagLOTTERY@@IABU1@AAV?$allocator@UtagLOTTERY@@@0@U_Nonscalar_ptr_iterator_tag@0@@Z
_TEXT	SEGMENT PARA USE32 PUBLIC 'CODE'
_TEXT	ENDS
;	COMDAT ??$_Destroy_range@GV?$allocator@G@std@@@std@@YAXPAG0AAV?$allocator@G@0@U_Scalar_ptr_iterator_tag@0@@Z
_TEXT	SEGMENT PARA USE32 PUBLIC 'CODE'
_TEXT	ENDS
;	COMDAT ??$_Uninitialized_copy@PAGPAGV?$allocator@G@std@@@std@@YAPAGPAG00AAV?$allocator@G@0@@Z
_TEXT	SEGMENT PARA USE32 PUBLIC 'CODE'
_TEXT	ENDS
;	COMDAT ??$_Copy_backward_opt@PAGPAG@std@@YAPAGPAG00U_Scalar_ptr_iterator_tag@0@@Z
_TEXT	SEGMENT PARA USE32 PUBLIC 'CODE'
_TEXT	ENDS
;	COMDAT ??$_Ptr_cat@VCTPlayer@@@std@@YA?AU_Scalar_ptr_iterator_tag@0@PAPAVCTPlayer@@0@Z
_TEXT	SEGMENT PARA USE32 PUBLIC 'CODE'
_TEXT	ENDS
;	COMDAT ??$_Destroy_range@PAVCTPlayer@@V?$allocator@PAVCTPlayer@@@std@@@std@@YAXPAPAVCTPlayer@@0AAV?$allocator@PAVCTPlayer@@@0@U_Scalar_ptr_iterator_tag@0@@Z
_TEXT	SEGMENT PARA USE32 PUBLIC 'CODE'
_TEXT	ENDS
;	COMDAT ??$_Destroy_range@UtagTCASHITMSALE@@V?$allocator@UtagTCASHITMSALE@@@std@@@std@@YAXPAUtagTCASHITMSALE@@0AAV?$allocator@UtagTCASHITMSALE@@@0@U_Nonscalar_ptr_iterator_tag@0@@Z
_TEXT	SEGMENT PARA USE32 PUBLIC 'CODE'
_TEXT	ENDS
;	COMDAT ??$_Uninitialized_copy@PAUtagTCASHITMSALE@@PAU1@V?$allocator@UtagTCASHITMSALE@@@std@@@std@@YAPAUtagTCASHITMSALE@@PAU1@00AAV?$allocator@UtagTCASHITMSALE@@@0@@Z
_TEXT	SEGMENT PARA USE32 PUBLIC 'CODE'
_TEXT	ENDS
;	COMDAT ??$_Copy_backward_opt@PAUtagTCASHITMSALE@@PAU1@@std@@YAPAUtagTCASHITMSALE@@PAU1@00U_Nonscalar_ptr_iterator_tag@0@@Z
_TEXT	SEGMENT PARA USE32 PUBLIC 'CODE'
_TEXT	ENDS
;	COMDAT ??$_Destroy_range@UtagMONREGEN@@V?$allocator@UtagMONREGEN@@@std@@@std@@YAXPAUtagMONREGEN@@0AAV?$allocator@UtagMONREGEN@@@0@U_Nonscalar_ptr_iterator_tag@0@@Z
_TEXT	SEGMENT PARA USE32 PUBLIC 'CODE'
_TEXT	ENDS
;	COMDAT ??$_Uninitialized_copy@PAUtagMONREGEN@@PAU1@V?$allocator@UtagMONREGEN@@@std@@@std@@YAPAUtagMONREGEN@@PAU1@00AAV?$allocator@UtagMONREGEN@@@0@@Z
_TEXT	SEGMENT PARA USE32 PUBLIC 'CODE'
_TEXT	ENDS
;	COMDAT ??$_Copy_backward_opt@PAUtagMONREGEN@@PAU1@@std@@YAPAUtagMONREGEN@@PAU1@00U_Nonscalar_ptr_iterator_tag@0@@Z
_TEXT	SEGMENT PARA USE32 PUBLIC 'CODE'
_TEXT	ENDS
;	COMDAT ??$_Destroy_range@UtagLOTTERY@@V?$allocator@UtagLOTTERY@@@std@@@std@@YAXPAUtagLOTTERY@@0AAV?$allocator@UtagLOTTERY@@@0@U_Nonscalar_ptr_iterator_tag@0@@Z
_TEXT	SEGMENT PARA USE32 PUBLIC 'CODE'
_TEXT	ENDS
;	COMDAT ??$_Uninitialized_copy@PAUtagLOTTERY@@PAU1@V?$allocator@UtagLOTTERY@@@std@@@std@@YAPAUtagLOTTERY@@PAU1@00AAV?$allocator@UtagLOTTERY@@@0@@Z
_TEXT	SEGMENT PARA USE32 PUBLIC 'CODE'
_TEXT	ENDS
;	COMDAT ??$_Copy_backward_opt@PAUtagLOTTERY@@PAU1@@std@@YAPAUtagLOTTERY@@PAU1@00U_Nonscalar_ptr_iterator_tag@0@@Z
_TEXT	SEGMENT PARA USE32 PUBLIC 'CODE'
_TEXT	ENDS
;	COMDAT ??$_Destroy_range@PAVCTItem@@V?$allocator@PAVCTItem@@@std@@@std@@YAXPAPAVCTItem@@0AAV?$allocator@PAVCTItem@@@0@@Z
_TEXT	SEGMENT PARA USE32 PUBLIC 'CODE'
_TEXT	ENDS
;	COMDAT ??$_Destroy_range@KV?$allocator@K@std@@@std@@YAXPAK0AAV?$allocator@K@0@@Z
_TEXT	SEGMENT PARA USE32 PUBLIC 'CODE'
_TEXT	ENDS
;	COMDAT ?construct@?$allocator@UtagTCASHITMSALE@@@std@@QAEXPAUtagTCASHITMSALE@@ABU3@@Z
_TEXT	SEGMENT PARA USE32 PUBLIC 'CODE'
_TEXT	ENDS
;	COMDAT ?destroy@?$allocator@UtagTCASHITMSALE@@@std@@QAEXPAUtagTCASHITMSALE@@@Z
_TEXT	SEGMENT PARA USE32 PUBLIC 'CODE'
_TEXT	ENDS
;	COMDAT ?construct@?$allocator@UtagMONREGEN@@@std@@QAEXPAUtagMONREGEN@@ABU3@@Z
_TEXT	SEGMENT PARA USE32 PUBLIC 'CODE'
_TEXT	ENDS
;	COMDAT ?destroy@?$allocator@UtagMONREGEN@@@std@@QAEXPAUtagMONREGEN@@@Z
_TEXT	SEGMENT PARA USE32 PUBLIC 'CODE'
_TEXT	ENDS
;	COMDAT ?construct@?$allocator@UtagLOTTERY@@@std@@QAEXPAUtagLOTTERY@@ABU3@@Z
_TEXT	SEGMENT PARA USE32 PUBLIC 'CODE'
_TEXT	ENDS
;	COMDAT ?destroy@?$allocator@UtagLOTTERY@@@std@@QAEXPAUtagLOTTERY@@@Z
_TEXT	SEGMENT PARA USE32 PUBLIC 'CODE'
_TEXT	ENDS
;	COMDAT ??$fill_n@PAGIG@std@@YAXPAGIABG@Z
_TEXT	SEGMENT PARA USE32 PUBLIC 'CODE'
_TEXT	ENDS
;	COMDAT ??$_Uninit_copy@GG@std@@YAPAGPAG00AAV?$allocator@G@0@U_Scalar_ptr_iterator_tag@0@@Z
_TEXT	SEGMENT PARA USE32 PUBLIC 'CODE'
_TEXT	ENDS
;	COMDAT ??$_Uninit_copy@PAUtagTCASHITMSALE@@PAU1@V?$allocator@UtagTCASHITMSALE@@@std@@@std@@YAPAUtagTCASHITMSALE@@PAU1@00AAV?$allocator@UtagTCASHITMSALE@@@0@U_Nonscalar_ptr_iterator_tag@0@@Z
_TEXT	SEGMENT PARA USE32 PUBLIC 'CODE'
_TEXT	ENDS
;	COMDAT ??$_Uninit_copy@PAUtagMONREGEN@@PAU1@V?$allocator@UtagMONREGEN@@@std@@@std@@YAPAUtagMONREGEN@@PAU1@00AAV?$allocator@UtagMONREGEN@@@0@U_Nonscalar_ptr_iterator_tag@0@@Z
_TEXT	SEGMENT PARA USE32 PUBLIC 'CODE'
_TEXT	ENDS
;	COMDAT ??$_Uninit_copy@PAUtagLOTTERY@@PAU1@V?$allocator@UtagLOTTERY@@@std@@@std@@YAPAUtagLOTTERY@@PAU1@00AAV?$allocator@UtagLOTTERY@@@0@U_Nonscalar_ptr_iterator_tag@0@@Z
_TEXT	SEGMENT PARA USE32 PUBLIC 'CODE'
_TEXT	ENDS
;	COMDAT ??$_Ptr_cat@VCTItem@@@std@@YA?AU_Scalar_ptr_iterator_tag@0@PAPAVCTItem@@0@Z
_TEXT	SEGMENT PARA USE32 PUBLIC 'CODE'
_TEXT	ENDS
;	COMDAT ??$_Destroy_range@PAVCTItem@@V?$allocator@PAVCTItem@@@std@@@std@@YAXPAPAVCTItem@@0AAV?$allocator@PAVCTItem@@@0@U_Scalar_ptr_iterator_tag@0@@Z
_TEXT	SEGMENT PARA USE32 PUBLIC 'CODE'
_TEXT	ENDS
;	COMDAT ??$_Destroy_range@KV?$allocator@K@std@@@std@@YAXPAK0AAV?$allocator@K@0@U_Scalar_ptr_iterator_tag@0@@Z
_TEXT	SEGMENT PARA USE32 PUBLIC 'CODE'
_TEXT	ENDS
;	COMDAT ??$_Construct@UtagTCASHITMSALE@@U1@@std@@YAXPAUtagTCASHITMSALE@@ABU1@@Z
_TEXT	SEGMENT PARA USE32 PUBLIC 'CODE'
_TEXT	ENDS
;	COMDAT ??$_Destroy@UtagTCASHITMSALE@@@std@@YAXPAUtagTCASHITMSALE@@@Z
_TEXT	SEGMENT PARA USE32 PUBLIC 'CODE'
_TEXT	ENDS
;	COMDAT ??$_Construct@UtagMONREGEN@@U1@@std@@YAXPAUtagMONREGEN@@ABU1@@Z
_TEXT	SEGMENT PARA USE32 PUBLIC 'CODE'
_TEXT	ENDS
;	COMDAT ??$_Destroy@UtagMONREGEN@@@std@@YAXPAUtagMONREGEN@@@Z
_TEXT	SEGMENT PARA USE32 PUBLIC 'CODE'
_TEXT	ENDS
;	COMDAT ??$_Construct@UtagLOTTERY@@U1@@std@@YAXPAUtagLOTTERY@@ABU1@@Z
_TEXT	SEGMENT PARA USE32 PUBLIC 'CODE'
_TEXT	ENDS
;	COMDAT ??$_Destroy@UtagLOTTERY@@@std@@YAXPAUtagLOTTERY@@@Z
_TEXT	SEGMENT PARA USE32 PUBLIC 'CODE'
_TEXT	ENDS
;	COMDAT ?GetGITPtr@CAtlModule@ATL@@UAEJPAPAUIGlobalInterfaceTable@@@Z
_TEXT	SEGMENT PARA USE32 PUBLIC 'CODE'
_TEXT	ENDS
;	COMDAT __GUID_00000146_0000_0000_c000_000000000046
CONST	SEGMENT DWORD USE32 PUBLIC 'CONST'
CONST	ENDS
;	COMDAT _CLSID_StdGlobalInterfaceTable
CONST	SEGMENT DWORD USE32 PUBLIC 'CONST'
CONST	ENDS
;	COMDAT ?GetLockCount@CAtlModule@ATL@@UAEJXZ
_TEXT	SEGMENT PARA USE32 PUBLIC 'CODE'
_TEXT	ENDS
;	COMDAT ?Lock@CAtlModule@ATL@@UAEJXZ
_TEXT	SEGMENT PARA USE32 PUBLIC 'CODE'
_TEXT	ENDS
;	COMDAT ?Increment@CComMultiThreadModel@ATL@@SGKPAJ@Z
_TEXT	SEGMENT PARA USE32 PUBLIC 'CODE'
_TEXT	ENDS
;	COMDAT ??2@YAPAXIPAX@Z
_TEXT	SEGMENT PARA USE32 PUBLIC 'CODE'
_TEXT	ENDS
;	COMDAT ?_Ptr_cat@std@@YA?AU_Scalar_ptr_iterator_tag@1@PAK0@Z
_TEXT	SEGMENT PARA USE32 PUBLIC 'CODE'
_TEXT	ENDS
;	COMDAT ?_Ptr_cat@std@@YA?AU_Scalar_ptr_iterator_tag@1@PAG0@Z
_TEXT	SEGMENT PARA USE32 PUBLIC 'CODE'
_TEXT	ENDS
;	COMDAT ?_Psave@?$_Facetptr@V?$ctype@G@std@@@std@@2PBVfacet@locale@2@B
_DATA	SEGMENT DWORD USE32 PUBLIC 'DATA'
_DATA	ENDS
;	COMDAT ?_Psave@?$_Facetptr@V?$ctype@D@std@@@std@@2PBVfacet@locale@2@B
_DATA	SEGMENT DWORD USE32 PUBLIC 'DATA'
_DATA	ENDS
;	COMDAT ?Unlock@CComCriticalSection@ATL@@QAEJXZ
_TEXT	SEGMENT PARA USE32 PUBLIC 'CODE'
_TEXT	ENDS
;	COMDAT ?CopyChars@?$CSimpleStringT@D$0A@@ATL@@SAXPADPBDH@Z
_TEXT	SEGMENT PARA USE32 PUBLIC 'CODE'
_TEXT	ENDS
;	COMDAT ?SetLength@?$CSimpleStringT@D$0A@@ATL@@AAEXH@Z
_TEXT	SEGMENT PARA USE32 PUBLIC 'CODE'
_TEXT	ENDS
;	COMDAT ?Attach@?$CSimpleStringT@D$0A@@ATL@@AAEXPAUCStringData@2@@Z
_TEXT	SEGMENT PARA USE32 PUBLIC 'CODE'
_TEXT	ENDS
;	COMDAT ?data@CStringData@ATL@@QAEPAXXZ
_TEXT	SEGMENT PARA USE32 PUBLIC 'CODE'
_TEXT	ENDS
;	COMDAT ?ThrowMemoryException@?$CSimpleStringT@D$0A@@ATL@@KAXXZ
_TEXT	SEGMENT PARA USE32 PUBLIC 'CODE'
_TEXT	ENDS
;	COMDAT ??Yiterator@?$vector@PAUtagQUESTTERM@@V?$allocator@PAUtagQUESTTERM@@@std@@@std@@QAEAAV012@H@Z
_TEXT	SEGMENT PARA USE32 PUBLIC 'CODE'
_TEXT	ENDS
;	COMDAT ??0iterator@?$vector@PAUtagQUESTTERM@@V?$allocator@PAUtagQUESTTERM@@@std@@@std@@QAE@PAPAUtagQUESTTERM@@@Z
_TEXT	SEGMENT PARA USE32 PUBLIC 'CODE'
_TEXT	ENDS
;	COMDAT ??0const_iterator@?$vector@PAUtagQUESTTERM@@V?$allocator@PAUtagQUESTTERM@@@std@@@std@@QAE@PAPAUtagQUESTTERM@@@Z
_TEXT	SEGMENT PARA USE32 PUBLIC 'CODE'
_TEXT	ENDS
;	COMDAT ?GetData@?$CSimpleStringT@D$0A@@ATL@@ABEPAUCStringData@2@XZ
_TEXT	SEGMENT PARA USE32 PUBLIC 'CODE'
_TEXT	ENDS
;	COMDAT ?ReleaseBufferSetLength@?$CSimpleStringT@D$0A@@ATL@@QAEXH@Z
_TEXT	SEGMENT PARA USE32 PUBLIC 'CODE'
_TEXT	ENDS
;	COMDAT ?Format@?$ChTraitsCRT@D@ATL@@SAHPADPBD0@Z
_TEXT	SEGMENT PARA USE32 PUBLIC 'CODE'
_TEXT	ENDS
;	COMDAT ?GetBuffer@?$CSimpleStringT@D$0A@@ATL@@QAEPADH@Z
_TEXT	SEGMENT PARA USE32 PUBLIC 'CODE'
_TEXT	ENDS
;	COMDAT ?PrepareWrite@?$CSimpleStringT@D$0A@@ATL@@AAEPADH@Z
_TEXT	SEGMENT PARA USE32 PUBLIC 'CODE'
_TEXT	ENDS
;	COMDAT ?PrepareWrite2@?$CSimpleStringT@D$0A@@ATL@@AAEXH@Z
_TEXT	SEGMENT PARA USE32 PUBLIC 'CODE'
_TEXT	ENDS
;	COMDAT ?IsShared@CStringData@ATL@@QBE_NXZ
_TEXT	SEGMENT PARA USE32 PUBLIC 'CODE'
_TEXT	ENDS
;	COMDAT ?Fork@?$CSimpleStringT@D$0A@@ATL@@AAEXH@Z
_TEXT	SEGMENT PARA USE32 PUBLIC 'CODE'
_TEXT	ENDS
;	COMDAT ?Release@CStringData@ATL@@QAEXXZ
_TEXT	SEGMENT PARA USE32 PUBLIC 'CODE'
_TEXT	ENDS
;	COMDAT ?Reallocate@?$CSimpleStringT@D$0A@@ATL@@AAEXH@Z
_TEXT	SEGMENT PARA USE32 PUBLIC 'CODE'
_TEXT	ENDS
;	COMDAT ?GetFormattedLength@?$ChTraitsCRT@D@ATL@@SAHPBDPAD@Z
_TEXT	SEGMENT PARA USE32 PUBLIC 'CODE'
_TEXT	ENDS
;	COMDAT ??1?$CSimpleStringT@D$0A@@ATL@@QAE@XZ
_TEXT	SEGMENT PARA USE32 PUBLIC 'CODE'
_TEXT	ENDS
;	COMDAT ??0?$CSimpleStringT@D$0A@@ATL@@QAE@PAUIAtlStringMgr@1@@Z
_TEXT	SEGMENT PARA USE32 PUBLIC 'CODE'
_TEXT	ENDS
;	COMDAT ??1CAtlModule@ATL@@UAE@XZ
_TEXT	SEGMENT PARA USE32 PUBLIC 'CODE'
_TEXT	ENDS
;	COMDAT ?_pPerfUnRegFunc@ATL@@3P6AJXZA
_DATA	SEGMENT DWORD USE32 PUBLIC 'DATA'
_DATA	ENDS
;	COMDAT ?_pPerfRegFunc@ATL@@3P6AJPAUHINSTANCE__@@@ZA
_DATA	SEGMENT DWORD USE32 PUBLIC 'DATA'
_DATA	ENDS
;	COMDAT ?Decrement@CComMultiThreadModel@ATL@@SGKPAJ@Z
_TEXT	SEGMENT PARA USE32 PUBLIC 'CODE'
_TEXT	ENDS
;	COMDAT ?Term@CAtlModule@ATL@@QAEXXZ
_TEXT	SEGMENT PARA USE32 PUBLIC 'CODE'
_TEXT	ENDS
;	COMDAT ?AtlCallTermFunc@ATL@@YGXPAU_ATL_MODULE70@1@@Z
_TEXT	SEGMENT PARA USE32 PUBLIC 'CODE'
_TEXT	ENDS
;	COMDAT ?_AtlRaiseException@ATL@@YAXKK@Z
_TEXT	SEGMENT PARA USE32 PUBLIC 'CODE'
_TEXT	ENDS
;	COMDAT ?Term@CComCriticalSection@ATL@@QAEJXZ
_TEXT	SEGMENT PARA USE32 PUBLIC 'CODE'
_TEXT	ENDS
;	COMDAT ?Unlock@CAtlModule@ATL@@UAEJXZ
_TEXT	SEGMENT PARA USE32 PUBLIC 'CODE'
_TEXT	ENDS
;	COMDAT ??Diterator@?$vector@PAUtagQUESTTERM@@V?$allocator@PAUtagQUESTTERM@@@std@@@std@@QBEAAPAUtagQUESTTERM@@XZ
_TEXT	SEGMENT PARA USE32 PUBLIC 'CODE'
_TEXT	ENDS
;	COMDAT ??Dconst_iterator@?$vector@PAUtagQUESTTERM@@V?$allocator@PAUtagQUESTTERM@@@std@@@std@@QBEABQAUtagQUESTTERM@@XZ
_TEXT	SEGMENT PARA USE32 PUBLIC 'CODE'
_TEXT	ENDS
;	COMDAT ?GetLength@?$CSimpleStringT@D$0A@@ATL@@QBEHXZ
_TEXT	SEGMENT PARA USE32 PUBLIC 'CODE'
_TEXT	ENDS
;	COMDAT ?GetString@?$CSimpleStringT@D$0A@@ATL@@QBEPBDXZ
_TEXT	SEGMENT PARA USE32 PUBLIC 'CODE'
_TEXT	ENDS
;	COMDAT ??0?$CStringT@DV?$StrTraitATL@DV?$ChTraitsCRT@D@ATL@@@ATL@@@ATL@@QAE@ABV01@@Z
_TEXT	SEGMENT PARA USE32 PUBLIC 'CODE'
_TEXT	ENDS
;	COMDAT ??0?$CSimpleStringT@D$0A@@ATL@@QAE@ABV01@@Z
_TEXT	SEGMENT PARA USE32 PUBLIC 'CODE'
_TEXT	ENDS
;	COMDAT ?CloneData@?$CSimpleStringT@D$0A@@ATL@@CAPAUCStringData@2@PAU32@@Z
_TEXT	SEGMENT PARA USE32 PUBLIC 'CODE'
_TEXT	ENDS
;	COMDAT ?IsLocked@CStringData@ATL@@QBE_NXZ
_TEXT	SEGMENT PARA USE32 PUBLIC 'CODE'
_TEXT	ENDS
;	COMDAT ?AddRef@CStringData@ATL@@QAEXXZ
_TEXT	SEGMENT PARA USE32 PUBLIC 'CODE'
_TEXT	ENDS
;	COMDAT ?AtlThrow@ATL@@YGXJ@Z
_TEXT	SEGMENT PARA USE32 PUBLIC 'CODE'
_TEXT	ENDS
;	COMDAT ??0CAtlException@ATL@@QAE@J@Z
_TEXT	SEGMENT PARA USE32 PUBLIC 'CODE'
_TEXT	ENDS
;	COMDAT __TI1?AVCAtlException@ATL@@
xdata$x	SEGMENT DWORD USE32 PUBLIC 'CONST'
xdata$x	ENDS
;	COMDAT __CTA1?AVCAtlException@ATL@@
xdata$x	SEGMENT DWORD USE32 PUBLIC 'CONST'
xdata$x	ENDS
;	COMDAT __CT??_R0?AVCAtlException@ATL@@@84
xdata$x	SEGMENT DWORD USE32 PUBLIC 'CONST'
xdata$x	ENDS
;	COMDAT ??_R0?AVCAtlException@ATL@@@8
_DATA	SEGMENT DWORD USE32 PUBLIC 'DATA'
_DATA	ENDS
;	COMDAT ?WrapPacketIn@tagMONTHRANKER@@QAEXPAVCPacket@@@Z
_TEXT	SEGMENT PARA USE32 PUBLIC 'CODE'
_TEXT	ENDS
;	COMDAT ?size@?$vector@PAUtagQUESTTERM@@V?$allocator@PAUtagQUESTTERM@@@std@@@std@@QBEIXZ
_TEXT	SEGMENT PARA USE32 PUBLIC 'CODE'
_TEXT	ENDS
;	COMDAT ?clear@?$vector@PAVCTPlayer@@V?$allocator@PAVCTPlayer@@@std@@@std@@QAEXXZ
_TEXT	SEGMENT PARA USE32 PUBLIC 'CODE'
_TEXT	ENDS
;	COMDAT ?_Tidy@?$vector@PAVCTPlayer@@V?$allocator@PAVCTPlayer@@@std@@@std@@IAEXXZ
_TEXT	SEGMENT PARA USE32 PUBLIC 'CODE'
_TEXT	ENDS
;	COMDAT ?_Destroy@?$vector@PAVCTPlayer@@V?$allocator@PAVCTPlayer@@@std@@@std@@IAEXPAPAVCTPlayer@@0@Z
_TEXT	SEGMENT PARA USE32 PUBLIC 'CODE'
_TEXT	ENDS
;	COMDAT ??$_Destroy_range@PAVCTPlayer@@V?$allocator@PAVCTPlayer@@@std@@@std@@YAXPAPAVCTPlayer@@0AAV?$allocator@PAVCTPlayer@@@0@@Z
_TEXT	SEGMENT PARA USE32 PUBLIC 'CODE'
_TEXT	ENDS
;	COMDAT ?deallocate@?$allocator@PAVCTPlayer@@@std@@QAEXPAPAVCTPlayer@@I@Z
_TEXT	SEGMENT PARA USE32 PUBLIC 'CODE'
_TEXT	ENDS
;	COMDAT ??1?$vector@PAVCTPlayer@@V?$allocator@PAVCTPlayer@@@std@@@std@@QAE@XZ
_TEXT	SEGMENT PARA USE32 PUBLIC 'CODE'
_TEXT	ENDS
;	COMDAT ??0?$vector@PAVCTPlayer@@V?$allocator@PAVCTPlayer@@@std@@@std@@QAE@XZ
_TEXT	SEGMENT PARA USE32 PUBLIC 'CODE'
_TEXT	ENDS
;	COMDAT ??0?$_Vector_val@PAVCTPlayer@@V?$allocator@PAVCTPlayer@@@std@@@std@@IAE@V?$allocator@PAVCTPlayer@@@1@@Z
_TEXT	SEGMENT PARA USE32 PUBLIC 'CODE'
_TEXT	ENDS
;	COMDAT ??0?$allocator@PAVCTPlayer@@@std@@QAE@ABV01@@Z
_TEXT	SEGMENT PARA USE32 PUBLIC 'CODE'
_TEXT	ENDS
;	COMDAT ??0?$allocator@PAVCTPlayer@@@std@@QAE@XZ
_TEXT	SEGMENT PARA USE32 PUBLIC 'CODE'
_TEXT	ENDS
;	COMDAT ?_Buy@?$vector@PAVCTPlayer@@V?$allocator@PAVCTPlayer@@@std@@@std@@IAE_NI@Z
_TEXT	SEGMENT PARA USE32 PUBLIC 'CODE'
_TEXT	ENDS
;	COMDAT ?max_size@?$vector@PAVCTPlayer@@V?$allocator@PAVCTPlayer@@@std@@@std@@QBEIXZ
_TEXT	SEGMENT PARA USE32 PUBLIC 'CODE'
_TEXT	ENDS
;	COMDAT ?max_size@?$allocator@PAVCTPlayer@@@std@@QBEIXZ
_TEXT	SEGMENT PARA USE32 PUBLIC 'CODE'
_TEXT	ENDS
;	COMDAT ?_Xlen@?$vector@PAVCTPlayer@@V?$allocator@PAVCTPlayer@@@std@@@std@@IBEXXZ
_TEXT	SEGMENT PARA USE32 PUBLIC 'CODE'
_TEXT	ENDS
;	COMDAT ??0length_error@std@@QAE@ABV?$basic_string@DU?$char_traits@D@std@@V?$allocator@D@2@@1@@Z
_TEXT	SEGMENT PARA USE32 PUBLIC 'CODE'
_TEXT	ENDS
;	COMDAT ??0logic_error@std@@QAE@ABV?$basic_string@DU?$char_traits@D@std@@V?$allocator@D@2@@1@@Z
_TEXT	SEGMENT PARA USE32 PUBLIC 'CODE'
_TEXT	ENDS
;	COMDAT ??_7logic_error@std@@6B@
CONST	SEGMENT DWORD USE32 PUBLIC 'CONST'
CONST	ENDS
;	COMDAT ??_Glogic_error@std@@UAEPAXI@Z
_TEXT	SEGMENT PARA USE32 PUBLIC 'CODE'
_TEXT	ENDS
;	COMDAT ?what@logic_error@std@@UBEPBDXZ
_TEXT	SEGMENT PARA USE32 PUBLIC 'CODE'
_TEXT	ENDS
;	COMDAT ?c_str@?$basic_string@DU?$char_traits@D@std@@V?$allocator@D@2@@std@@QBEPBDXZ
_TEXT	SEGMENT PARA USE32 PUBLIC 'CODE'
_TEXT	ENDS
;	COMDAT ?_Myptr@?$basic_string@DU?$char_traits@D@std@@V?$allocator@D@2@@std@@QBEPBDXZ
_TEXT	SEGMENT PARA USE32 PUBLIC 'CODE'
_TEXT	ENDS
;	COMDAT ??0?$basic_string@DU?$char_traits@D@std@@V?$allocator@D@2@@std@@QAE@ABV01@@Z
_TEXT	SEGMENT PARA USE32 PUBLIC 'CODE'
_TEXT	ENDS
;	COMDAT ??0?$_String_val@DV?$allocator@D@std@@@std@@IAE@V?$allocator@D@1@@Z
_TEXT	SEGMENT PARA USE32 PUBLIC 'CODE'
_TEXT	ENDS
;	COMDAT ??0?$allocator@D@std@@QAE@ABV01@@Z
_TEXT	SEGMENT PARA USE32 PUBLIC 'CODE'
_TEXT	ENDS
;	COMDAT ?_Tidy@?$basic_string@DU?$char_traits@D@std@@V?$allocator@D@2@@std@@IAEX_NI@Z
_TEXT	SEGMENT PARA USE32 PUBLIC 'CODE'
_TEXT	ENDS
;	COMDAT ?copy@?$char_traits@D@std@@SAPADPADPBDI@Z
_TEXT	SEGMENT PARA USE32 PUBLIC 'CODE'
_TEXT	ENDS
;	COMDAT ?deallocate@?$allocator@D@std@@QAEXPADI@Z
_TEXT	SEGMENT PARA USE32 PUBLIC 'CODE'
_TEXT	ENDS
;	COMDAT ?_Eos@?$basic_string@DU?$char_traits@D@std@@V?$allocator@D@2@@std@@IAEXI@Z
_TEXT	SEGMENT PARA USE32 PUBLIC 'CODE'
_TEXT	ENDS
;	COMDAT ?assign@?$char_traits@D@std@@SAXAADABD@Z
_TEXT	SEGMENT PARA USE32 PUBLIC 'CODE'
_TEXT	ENDS
;	COMDAT ?_Myptr@?$basic_string@DU?$char_traits@D@std@@V?$allocator@D@2@@std@@QAEPADXZ
_TEXT	SEGMENT PARA USE32 PUBLIC 'CODE'
_TEXT	ENDS
;	COMDAT ?assign@?$basic_string@DU?$char_traits@D@std@@V?$allocator@D@2@@std@@QAEAAV12@ABV12@II@Z
_TEXT	SEGMENT PARA USE32 PUBLIC 'CODE'
_TEXT	ENDS
;	COMDAT ?size@?$basic_string@DU?$char_traits@D@std@@V?$allocator@D@2@@std@@QBEIXZ
_TEXT	SEGMENT PARA USE32 PUBLIC 'CODE'
_TEXT	ENDS
;	COMDAT ?erase@?$basic_string@DU?$char_traits@D@std@@V?$allocator@D@2@@std@@QAEAAV12@II@Z
_TEXT	SEGMENT PARA USE32 PUBLIC 'CODE'
_TEXT	ENDS
;	COMDAT ?move@?$char_traits@D@std@@SAPADPADPBDI@Z
_TEXT	SEGMENT PARA USE32 PUBLIC 'CODE'
_TEXT	ENDS
;	COMDAT ?_Grow@?$basic_string@DU?$char_traits@D@std@@V?$allocator@D@2@@std@@IAE_NI_N@Z
_TEXT	SEGMENT PARA USE32 PUBLIC 'CODE'
_TEXT	ENDS
;	COMDAT ?max_size@?$basic_string@DU?$char_traits@D@std@@V?$allocator@D@2@@std@@QBEIXZ
_TEXT	SEGMENT PARA USE32 PUBLIC 'CODE'
_TEXT	ENDS
;	COMDAT ?max_size@?$allocator@D@std@@QBEIXZ
_TEXT	SEGMENT PARA USE32 PUBLIC 'CODE'
_TEXT	ENDS
;	COMDAT ?_Copy@?$basic_string@DU?$char_traits@D@std@@V?$allocator@D@2@@std@@IAEXII@Z
_TEXT	SEGMENT PARA USE32 PUBLIC 'CODE'
_TEXT	ENDS
;	COMDAT ?allocate@?$allocator@D@std@@QAEPADI@Z
_TEXT	SEGMENT PARA USE32 PUBLIC 'CODE'
_TEXT	ENDS
;	COMDAT ??$_Allocate@D@std@@YAPADIPAD@Z
_TEXT	SEGMENT PARA USE32 PUBLIC 'CODE'
_TEXT	ENDS
;	COMDAT ?npos@?$basic_string@DU?$char_traits@D@std@@V?$allocator@D@2@@std@@2IB
CONST	SEGMENT DWORD USE32 PUBLIC 'CONST'
CONST	ENDS
;	COMDAT ??1logic_error@std@@UAE@XZ
_TEXT	SEGMENT PARA USE32 PUBLIC 'CODE'
_TEXT	ENDS
;	COMDAT ??_7length_error@std@@6B@
CONST	SEGMENT DWORD USE32 PUBLIC 'CONST'
CONST	ENDS
;	COMDAT ??_Glength_error@std@@UAEPAXI@Z
_TEXT	SEGMENT PARA USE32 PUBLIC 'CODE'
_TEXT	ENDS
;	COMDAT ??1length_error@std@@UAE@XZ
_TEXT	SEGMENT PARA USE32 PUBLIC 'CODE'
_TEXT	ENDS
;	COMDAT ??0?$basic_string@DU?$char_traits@D@std@@V?$allocator@D@2@@std@@QAE@PBD@Z
_TEXT	SEGMENT PARA USE32 PUBLIC 'CODE'
_TEXT	ENDS
;	COMDAT ??0?$allocator@D@std@@QAE@XZ
_TEXT	SEGMENT PARA USE32 PUBLIC 'CODE'
_TEXT	ENDS
;	COMDAT ?assign@?$basic_string@DU?$char_traits@D@std@@V?$allocator@D@2@@std@@QAEAAV12@PBD@Z
_TEXT	SEGMENT PARA USE32 PUBLIC 'CODE'
_TEXT	ENDS
;	COMDAT ?assign@?$basic_string@DU?$char_traits@D@std@@V?$allocator@D@2@@std@@QAEAAV12@PBDI@Z
_TEXT	SEGMENT PARA USE32 PUBLIC 'CODE'
_TEXT	ENDS
;	COMDAT ?_Inside@?$basic_string@DU?$char_traits@D@std@@V?$allocator@D@2@@std@@IAE_NPBD@Z
_TEXT	SEGMENT PARA USE32 PUBLIC 'CODE'
_TEXT	ENDS
;	COMDAT ?length@?$char_traits@D@std@@SAIPBD@Z
_TEXT	SEGMENT PARA USE32 PUBLIC 'CODE'
_TEXT	ENDS
;	COMDAT ??_C@_0BD@OLBABOEK@vector?$DMT?$DO?5too?5long?$AA@
CONST	SEGMENT DWORD USE32 PUBLIC 'CONST'
CONST	ENDS
;	COMDAT ??1?$basic_string@DU?$char_traits@D@std@@V?$allocator@D@2@@std@@QAE@XZ
_TEXT	SEGMENT PARA USE32 PUBLIC 'CODE'
_TEXT	ENDS
;	COMDAT __TI3?AVlength_error@std@@
xdata$x	SEGMENT DWORD USE32 PUBLIC 'CONST'
xdata$x	ENDS
;	COMDAT __CTA3?AVlength_error@std@@
xdata$x	SEGMENT DWORD USE32 PUBLIC 'CONST'
xdata$x	ENDS
;	COMDAT __CT??_R0?AVlength_error@std@@@8??0length_error@std@@QAE@ABV01@@Z40
xdata$x	SEGMENT DWORD USE32 PUBLIC 'CONST'
xdata$x	ENDS
;	COMDAT ??_R0?AVlength_error@std@@@8
_DATA	SEGMENT DWORD USE32 PUBLIC 'DATA'
_DATA	ENDS
;	COMDAT ??0length_error@std@@QAE@ABV01@@Z
_TEXT	SEGMENT PARA USE32 PUBLIC 'CODE'
_TEXT	ENDS
;	COMDAT ??0logic_error@std@@QAE@ABV01@@Z
_TEXT	SEGMENT PARA USE32 PUBLIC 'CODE'
_TEXT	ENDS
;	COMDAT __CT??_R0?AVlogic_error@std@@@8??0logic_error@std@@QAE@ABV01@@Z40
xdata$x	SEGMENT DWORD USE32 PUBLIC 'CONST'
xdata$x	ENDS
;	COMDAT ??_R0?AVlogic_error@std@@@8
_DATA	SEGMENT DWORD USE32 PUBLIC 'DATA'
_DATA	ENDS
;	COMDAT __CT??_R0?AVexception@@@8??0exception@@QAE@ABV0@@Z12
xdata$x	SEGMENT DWORD USE32 PUBLIC 'CONST'
xdata$x	ENDS
;	COMDAT ??_R0?AVexception@@@8
_DATA	SEGMENT DWORD USE32 PUBLIC 'DATA'
_DATA	ENDS
;	COMDAT ?allocate@?$allocator@PAVCTPlayer@@@std@@QAEPAPAVCTPlayer@@I@Z
_TEXT	SEGMENT PARA USE32 PUBLIC 'CODE'
_TEXT	ENDS
;	COMDAT ??$_Allocate@PAVCTPlayer@@@std@@YAPAPAVCTPlayer@@IPAPAV1@@Z
_TEXT	SEGMENT PARA USE32 PUBLIC 'CODE'
_TEXT	ENDS
;	COMDAT ?end@?$_Tree@V?$_Tmap_traits@KPAVCTItem@@U?$less@K@std@@V?$allocator@U?$pair@$$CBKPAVCTItem@@@std@@@3@$0A@@std@@@std@@QAE?AViterator@12@XZ
_TEXT	SEGMENT PARA USE32 PUBLIC 'CODE'
_TEXT	ENDS
;	COMDAT ??0iterator@?$_Tree@V?$_Tmap_traits@KPAVCTItem@@U?$less@K@std@@V?$allocator@U?$pair@$$CBKPAVCTItem@@@std@@@3@$0A@@std@@@std@@QAE@PAU_Node@?$_Tree_nod@V?$_Tmap_traits@KPAVCTItem@@U?$less@K@std@@V?$allocator@U?$pair@$$CBKPAVCTItem@@@std@@@3@$0A@@std@@@2@@Z
_TEXT	SEGMENT PARA USE32 PUBLIC 'CODE'
_TEXT	ENDS
;	COMDAT ??0const_iterator@?$_Tree@V?$_Tmap_traits@KPAVCTItem@@U?$less@K@std@@V?$allocator@U?$pair@$$CBKPAVCTItem@@@std@@@3@$0A@@std@@@std@@QAE@PAU_Node@?$_Tree_nod@V?$_Tmap_traits@KPAVCTItem@@U?$less@K@std@@V?$allocator@U?$pair@$$CBKPAVCTItem@@@std@@@3@$0A@@std@@@2@@Z
_TEXT	SEGMENT PARA USE32 PUBLIC 'CODE'
_TEXT	ENDS
;	COMDAT ??9const_iterator@?$_Tree@V?$_Tmap_traits@KPAVCTItem@@U?$less@K@std@@V?$allocator@U?$pair@$$CBKPAVCTItem@@@std@@@3@$0A@@std@@@std@@QBE_NABV012@@Z
_TEXT	SEGMENT PARA USE32 PUBLIC 'CODE'
_TEXT	ENDS
;	COMDAT ??8const_iterator@?$_Tree@V?$_Tmap_traits@KPAVCTItem@@U?$less@K@std@@V?$allocator@U?$pair@$$CBKPAVCTItem@@@std@@@3@$0A@@std@@@std@@QBE_NABV012@@Z
_TEXT	SEGMENT PARA USE32 PUBLIC 'CODE'
_TEXT	ENDS
;	COMDAT ??Eiterator@?$_Tree@V?$_Tmap_traits@KPAVCTItem@@U?$less@K@std@@V?$allocator@U?$pair@$$CBKPAVCTItem@@@std@@@3@$0A@@std@@@std@@QAE?AV012@H@Z
_TEXT	SEGMENT PARA USE32 PUBLIC 'CODE'
_TEXT	ENDS
;	COMDAT ??Eiterator@?$_Tree@V?$_Tmap_traits@KPAVCTItem@@U?$less@K@std@@V?$allocator@U?$pair@$$CBKPAVCTItem@@@std@@@3@$0A@@std@@@std@@QAEAAV012@XZ
_TEXT	SEGMENT PARA USE32 PUBLIC 'CODE'
_TEXT	ENDS
;	COMDAT ??Econst_iterator@?$_Tree@V?$_Tmap_traits@KPAVCTItem@@U?$less@K@std@@V?$allocator@U?$pair@$$CBKPAVCTItem@@@std@@@3@$0A@@std@@@std@@QAEAAV012@XZ
_TEXT	SEGMENT PARA USE32 PUBLIC 'CODE'
_TEXT	ENDS
;	COMDAT ?_Inc@const_iterator@?$_Tree@V?$_Tmap_traits@KPAVCTItem@@U?$less@K@std@@V?$allocator@U?$pair@$$CBKPAVCTItem@@@std@@@3@$0A@@std@@@std@@QAEXXZ
_TEXT	SEGMENT PARA USE32 PUBLIC 'CODE'
_TEXT	ENDS
;	COMDAT ?_Min@?$_Tree@V?$_Tmap_traits@KPAVCTItem@@U?$less@K@std@@V?$allocator@U?$pair@$$CBKPAVCTItem@@@std@@@3@$0A@@std@@@std@@KAPAU_Node@?$_Tree_nod@V?$_Tmap_traits@KPAVCTItem@@U?$less@K@std@@V?$allocator@U?$pair@$$CBKPAVCTItem@@@std@@@3@$0A@@std@@@2@PAU342@@Z
_TEXT	SEGMENT PARA USE32 PUBLIC 'CODE'
_TEXT	ENDS
;	COMDAT ?_Left@?$_Tree@V?$_Tmap_traits@KPAVCTItem@@U?$less@K@std@@V?$allocator@U?$pair@$$CBKPAVCTItem@@@std@@@3@$0A@@std@@@std@@KAAAPAU_Node@?$_Tree_nod@V?$_Tmap_traits@KPAVCTItem@@U?$less@K@std@@V?$allocator@U?$pair@$$CBKPAVCTItem@@@std@@@3@$0A@@std@@@2@PAU342@@Z
_TEXT	SEGMENT PARA USE32 PUBLIC 'CODE'
_TEXT	ENDS
;	COMDAT ?_Isnil@?$_Tree@V?$_Tmap_traits@KPAVCTItem@@U?$less@K@std@@V?$allocator@U?$pair@$$CBKPAVCTItem@@@std@@@3@$0A@@std@@@std@@KAAADPAU_Node@?$_Tree_nod@V?$_Tmap_traits@KPAVCTItem@@U?$less@K@std@@V?$allocator@U?$pair@$$CBKPAVCTItem@@@std@@@3@$0A@@std@@@2@@Z
_TEXT	SEGMENT PARA USE32 PUBLIC 'CODE'
_TEXT	ENDS
;	COMDAT ?_Parent@?$_Tree@V?$_Tmap_traits@KPAVCTItem@@U?$less@K@std@@V?$allocator@U?$pair@$$CBKPAVCTItem@@@std@@@3@$0A@@std@@@std@@KAAAPAU_Node@?$_Tree_nod@V?$_Tmap_traits@KPAVCTItem@@U?$less@K@std@@V?$allocator@U?$pair@$$CBKPAVCTItem@@@std@@@3@$0A@@std@@@2@PAU342@@Z
_TEXT	SEGMENT PARA USE32 PUBLIC 'CODE'
_TEXT	ENDS
;	COMDAT ?_Right@?$_Tree@V?$_Tmap_traits@KPAVCTItem@@U?$less@K@std@@V?$allocator@U?$pair@$$CBKPAVCTItem@@@std@@@3@$0A@@std@@@std@@KAAAPAU_Node@?$_Tree_nod@V?$_Tmap_traits@KPAVCTItem@@U?$less@K@std@@V?$allocator@U?$pair@$$CBKPAVCTItem@@@std@@@3@$0A@@std@@@2@PAU342@@Z
_TEXT	SEGMENT PARA USE32 PUBLIC 'CODE'
_TEXT	ENDS
;	COMDAT ?begin@?$_Tree@V?$_Tmap_traits@KPAVCTItem@@U?$less@K@std@@V?$allocator@U?$pair@$$CBKPAVCTItem@@@std@@@3@$0A@@std@@@std@@QAE?AViterator@12@XZ
_TEXT	SEGMENT PARA USE32 PUBLIC 'CODE'
_TEXT	ENDS
;	COMDAT ?_Lmost@?$_Tree@V?$_Tmap_traits@KPAVCTItem@@U?$less@K@std@@V?$allocator@U?$pair@$$CBKPAVCTItem@@@std@@@3@$0A@@std@@@std@@IAEAAPAU_Node@?$_Tree_nod@V?$_Tmap_traits@KPAVCTItem@@U?$less@K@std@@V?$allocator@U?$pair@$$CBKPAVCTItem@@@std@@@3@$0A@@std@@@2@XZ
_TEXT	SEGMENT PARA USE32 PUBLIC 'CODE'
_TEXT	ENDS
;	COMDAT ??A?$vector@GV?$allocator@G@std@@@std@@QAEAAGI@Z
_TEXT	SEGMENT PARA USE32 PUBLIC 'CODE'
_TEXT	ENDS
;	COMDAT ??Diterator@?$vector@GV?$allocator@G@std@@@std@@QBEAAGXZ
_TEXT	SEGMENT PARA USE32 PUBLIC 'CODE'
_TEXT	ENDS
;	COMDAT ??Dconst_iterator@?$vector@GV?$allocator@G@std@@@std@@QBEABGXZ
_TEXT	SEGMENT PARA USE32 PUBLIC 'CODE'
_TEXT	ENDS
;	COMDAT ??Hiterator@?$vector@GV?$allocator@G@std@@@std@@QBE?AV012@H@Z
_TEXT	SEGMENT PARA USE32 PUBLIC 'CODE'
_TEXT	ENDS
;	COMDAT ??Yiterator@?$vector@GV?$allocator@G@std@@@std@@QAEAAV012@H@Z
_TEXT	SEGMENT PARA USE32 PUBLIC 'CODE'
_TEXT	ENDS
;	COMDAT ?begin@?$vector@GV?$allocator@G@std@@@std@@QAE?AViterator@12@XZ
_TEXT	SEGMENT PARA USE32 PUBLIC 'CODE'
_TEXT	ENDS
;	COMDAT ??0iterator@?$vector@GV?$allocator@G@std@@@std@@QAE@PAG@Z
_TEXT	SEGMENT PARA USE32 PUBLIC 'CODE'
_TEXT	ENDS
;	COMDAT ??0const_iterator@?$vector@GV?$allocator@G@std@@@std@@QAE@PAG@Z
_TEXT	SEGMENT PARA USE32 PUBLIC 'CODE'
_TEXT	ENDS
;	COMDAT ?size@?$vector@GV?$allocator@G@std@@@std@@QBEIXZ
_TEXT	SEGMENT PARA USE32 PUBLIC 'CODE'
_TEXT	ENDS
;	COMDAT ??1?$vector@GV?$allocator@G@std@@@std@@QAE@XZ
_TEXT	SEGMENT PARA USE32 PUBLIC 'CODE'
_TEXT	ENDS
;	COMDAT ?_Tidy@?$vector@GV?$allocator@G@std@@@std@@IAEXXZ
_TEXT	SEGMENT PARA USE32 PUBLIC 'CODE'
_TEXT	ENDS
;	COMDAT ?_Destroy@?$vector@GV?$allocator@G@std@@@std@@IAEXPAG0@Z
_TEXT	SEGMENT PARA USE32 PUBLIC 'CODE'
_TEXT	ENDS
;	COMDAT ??$_Destroy_range@GV?$allocator@G@std@@@std@@YAXPAG0AAV?$allocator@G@0@@Z
_TEXT	SEGMENT PARA USE32 PUBLIC 'CODE'
_TEXT	ENDS
;	COMDAT ?deallocate@?$allocator@G@std@@QAEXPAGI@Z
_TEXT	SEGMENT PARA USE32 PUBLIC 'CODE'
_TEXT	ENDS
;	COMDAT ??0tagPACKETBUF@@QAE@XZ
_TEXT	SEGMENT PARA USE32 PUBLIC 'CODE'
_TEXT	ENDS
;	COMDAT ?AtlLoadString@ATL@@YAHIPADH@Z
_TEXT	SEGMENT PARA USE32 PUBLIC 'CODE'
_TEXT	ENDS
;	COMDAT ??0?$CStringT@DV?$StrTraitATL@DV?$ChTraitsCRT@D@ATL@@@ATL@@@ATL@@QAE@XZ
_TEXT	SEGMENT PARA USE32 PUBLIC 'CODE'
_TEXT	ENDS
;	COMDAT ?GetDefaultManager@?$StrTraitATL@DV?$ChTraitsCRT@D@ATL@@@ATL@@SAPAUIAtlStringMgr@2@XZ
_TEXT	SEGMENT PARA USE32 PUBLIC 'CODE'
_TEXT	ENDS
;	COMDAT ??B?$CSimpleStringT@D$0A@@ATL@@QBEPBDXZ
_TEXT	SEGMENT PARA USE32 PUBLIC 'CODE'
_TEXT	ENDS
;	COMDAT ??4?$CStringT@DV?$StrTraitATL@DV?$ChTraitsCRT@D@ATL@@@ATL@@@ATL@@QAEAAV01@ABV01@@Z
_TEXT	SEGMENT PARA USE32 PUBLIC 'CODE'
_TEXT	ENDS
;	COMDAT ??4?$CSimpleStringT@D$0A@@ATL@@QAEAAV01@ABV01@@Z
_TEXT	SEGMENT PARA USE32 PUBLIC 'CODE'
_TEXT	ENDS
;	COMDAT ?SetString@?$CSimpleStringT@D$0A@@ATL@@QAEXPBDH@Z
_TEXT	SEGMENT PARA USE32 PUBLIC 'CODE'
_TEXT	ENDS
;	COMDAT ?Empty@?$CSimpleStringT@D$0A@@ATL@@QAEXXZ
_TEXT	SEGMENT PARA USE32 PUBLIC 'CODE'
_TEXT	ENDS
;	COMDAT ?CopyCharsOverlapped@?$CSimpleStringT@D$0A@@ATL@@SAXPADPBDH@Z
_TEXT	SEGMENT PARA USE32 PUBLIC 'CODE'
_TEXT	ENDS
;	COMDAT ??1?$CStringT@DV?$StrTraitATL@DV?$ChTraitsCRT@D@ATL@@@ATL@@@ATL@@QAE@XZ
_TEXT	SEGMENT PARA USE32 PUBLIC 'CODE'
_TEXT	ENDS
;	COMDAT ??0?$CStringT@DV?$StrTraitATL@DV?$ChTraitsCRT@D@ATL@@@ATL@@@ATL@@QAE@PBD@Z
_TEXT	SEGMENT PARA USE32 PUBLIC 'CODE'
_TEXT	ENDS
;	COMDAT ?CheckImplicitLoad@?$CStringT@DV?$StrTraitATL@DV?$ChTraitsCRT@D@ATL@@@ATL@@@ATL@@AAE_NPBX@Z
_TEXT	SEGMENT PARA USE32 PUBLIC 'CODE'
_TEXT	ENDS
;	COMDAT ?LoadStringA@?$CStringT@DV?$StrTraitATL@DV?$ChTraitsCRT@D@ATL@@@ATL@@@ATL@@QAEHI@Z
_TEXT	SEGMENT PARA USE32 PUBLIC 'CODE'
_TEXT	ENDS
;	COMDAT ?FindStringResourceInstance@?$StrTraitATL@DV?$ChTraitsCRT@D@ATL@@@ATL@@SAPAUHINSTANCE__@@I@Z
_TEXT	SEGMENT PARA USE32 PUBLIC 'CODE'
_TEXT	ENDS
;	COMDAT ?AtlFindStringResourceInstance@ATL@@YAPAUHINSTANCE__@@IG@Z
_TEXT	SEGMENT PARA USE32 PUBLIC 'CODE'
_TEXT	ENDS
;	COMDAT ?AtlGetStringResourceImage@ATL@@YAPBUATLSTRINGRESOURCEIMAGE@1@PAUHINSTANCE__@@IG@Z
_TEXT	SEGMENT PARA USE32 PUBLIC 'CODE'
_TEXT	ENDS
;	COMDAT ?_AtlGetStringResourceImage@ATL@@YAPBUATLSTRINGRESOURCEIMAGE@1@PAUHINSTANCE__@@PAUHRSRC__@@I@Z
_TEXT	SEGMENT PARA USE32 PUBLIC 'CODE'
_TEXT	ENDS
;	COMDAT ?LoadStringA@?$CStringT@DV?$StrTraitATL@DV?$ChTraitsCRT@D@ATL@@@ATL@@@ATL@@QAEHPAUHINSTANCE__@@I@Z
_TEXT	SEGMENT PARA USE32 PUBLIC 'CODE'
_TEXT	ENDS
;	COMDAT ?AtlGetStringResourceImage@ATL@@YAPBUATLSTRINGRESOURCEIMAGE@1@PAUHINSTANCE__@@I@Z
_TEXT	SEGMENT PARA USE32 PUBLIC 'CODE'
_TEXT	ENDS
;	COMDAT ?GetBaseTypeLength@?$ChTraitsCRT@D@ATL@@SAHPBGH@Z
_TEXT	SEGMENT PARA USE32 PUBLIC 'CODE'
_TEXT	ENDS
;	COMDAT ?_AtlGetConversionACP@ATL@@YGIXZ
_TEXT	SEGMENT PARA USE32 PUBLIC 'CODE'
_TEXT	ENDS
;	COMDAT ?g_pfnGetThreadACP@ATL@@3P6GIXZA
_DATA	SEGMENT DWORD USE32 PUBLIC 'DATA'
_DATA	ENDS
;	COMDAT ?_AtlGetThreadACPThunk@ATL@@YGIXZ
_TEXT	SEGMENT PARA USE32 PUBLIC 'CODE'
_TEXT	ENDS
;	COMDAT ?_AtlGetThreadACPReal@ATL@@YGIXZ
_TEXT	SEGMENT PARA USE32 PUBLIC 'CODE'
_TEXT	ENDS
;	COMDAT ?_AtlGetThreadACPFake@ATL@@YGIXZ
_TEXT	SEGMENT PARA USE32 PUBLIC 'CODE'
_TEXT	ENDS
;	COMDAT ?InterlockedExchangePointer@@YGPAXPAPAXPAX@Z
_TEXT	SEGMENT PARA USE32 PUBLIC 'CODE'
_TEXT	ENDS
;	COMDAT ?ConvertToBaseType@?$ChTraitsCRT@D@ATL@@SAXPADHPBGH@Z
_TEXT	SEGMENT PARA USE32 PUBLIC 'CODE'
_TEXT	ENDS
;	COMDAT ??4?$CStringT@DV?$StrTraitATL@DV?$ChTraitsCRT@D@ATL@@@ATL@@@ATL@@QAEAAV01@PBD@Z
_TEXT	SEGMENT PARA USE32 PUBLIC 'CODE'
_TEXT	ENDS
;	COMDAT ??4?$CSimpleStringT@D$0A@@ATL@@QAEAAV01@PBD@Z
_TEXT	SEGMENT PARA USE32 PUBLIC 'CODE'
_TEXT	ENDS
;	COMDAT ?SetString@?$CSimpleStringT@D$0A@@ATL@@QAEXPBD@Z
_TEXT	SEGMENT PARA USE32 PUBLIC 'CODE'
_TEXT	ENDS
;	COMDAT ?StringLength@?$CSimpleStringT@D$0A@@ATL@@SAHPBD@Z
_TEXT	SEGMENT PARA USE32 PUBLIC 'CODE'
_TEXT	ENDS
;	COMDAT ?WordCmpI@CAtlModule@ATL@@SAHPBD0@Z
_TEXT	SEGMENT PARA USE32 PUBLIC 'CODE'
_TEXT	ENDS
;	COMDAT ?FindOneOf@CAtlModule@ATL@@SAPBDPBD0@Z
_TEXT	SEGMENT PARA USE32 PUBLIC 'CODE'
_TEXT	ENDS
;	COMDAT ?SetStringValue@CRegKey@ATL@@QAEJPBD0K@Z
_TEXT	SEGMENT PARA USE32 PUBLIC 'CODE'
_TEXT	ENDS
;	COMDAT ?DeleteValue@CRegKey@ATL@@QAEJPBD@Z
_TEXT	SEGMENT PARA USE32 PUBLIC 'CODE'
_TEXT	ENDS
;	COMDAT ??BCRegKey@ATL@@QBEPAUHKEY__@@XZ
_TEXT	SEGMENT PARA USE32 PUBLIC 'CODE'
_TEXT	ENDS
;	COMDAT ?Create@CRegKey@ATL@@QAEJPAUHKEY__@@PBDPADKKPAU_SECURITY_ATTRIBUTES@@PAK@Z
_TEXT	SEGMENT PARA USE32 PUBLIC 'CODE'
_TEXT	ENDS
;	COMDAT ?Close@CRegKey@ATL@@QAEJXZ
_TEXT	SEGMENT PARA USE32 PUBLIC 'CODE'
_TEXT	ENDS
;	COMDAT ?AtlHresultFromWin32@ATL@@YAJK@Z
_TEXT	SEGMENT PARA USE32 PUBLIC 'CODE'
_TEXT	ENDS
;	COMDAT ??_C@_05PDIKPLII@AppID?$AA@
CONST	SEGMENT DWORD USE32 PUBLIC 'CONST'
CONST	ENDS
;	COMDAT ?Open@CRegKey@ATL@@QAEJPAUHKEY__@@PBDK@Z
_TEXT	SEGMENT PARA USE32 PUBLIC 'CODE'
_TEXT	ENDS
;	COMDAT ??1CRegKey@ATL@@QAE@XZ
_TEXT	SEGMENT PARA USE32 PUBLIC 'CODE'
_TEXT	ENDS
;	COMDAT ??0CRegKey@ATL@@QAE@XZ
_TEXT	SEGMENT PARA USE32 PUBLIC 'CODE'
_TEXT	ENDS
;	COMDAT ?_pAtlModule@ATL@@3PAVCAtlModule@1@A
_DATA	SEGMENT DWORD USE32 PUBLIC 'DATA'
_DATA	ENDS
;	COMDAT ?UpdateRegistryFromResourceS@CAtlModule@ATL@@QAGJIHPAU_ATL_REGMAP_ENTRY@2@@Z
_TEXT	SEGMENT PARA USE32 PUBLIC 'CODE'
_TEXT	ENDS
;	COMDAT ??0CRegObject@ATL@@QAE@XZ
_TEXT	SEGMENT PARA USE32 PUBLIC 'CODE'
_TEXT	ENDS
;	COMDAT ??0IRegistrarBase@@QAE@XZ
_TEXT	SEGMENT PARA USE32 PUBLIC 'CODE'
_TEXT	ENDS
;	COMDAT ??0IUnknown@@QAE@XZ
_TEXT	SEGMENT PARA USE32 PUBLIC 'CODE'
_TEXT	ENDS
;	COMDAT ??_7CRegObject@ATL@@6B@
CONST	SEGMENT DWORD USE32 PUBLIC 'CONST'
CONST	ENDS
;	COMDAT ?QueryInterface@CRegObject@ATL@@UAGJABU_GUID@@PAPAX@Z
_TEXT	SEGMENT PARA USE32 PUBLIC 'CODE'
_TEXT	ENDS
;	COMDAT ?AddRef@CRegObject@ATL@@UAGKXZ
_TEXT	SEGMENT PARA USE32 PUBLIC 'CODE'
_TEXT	ENDS
;	COMDAT ?Release@CRegObject@ATL@@UAGKXZ
_TEXT	SEGMENT PARA USE32 PUBLIC 'CODE'
_TEXT	ENDS
;	COMDAT ?ClearReplacements@CRegObject@ATL@@UAGJXZ
_TEXT	SEGMENT PARA USE32 PUBLIC 'CODE'
_TEXT	ENDS
;	COMDAT ?Lock@CComFakeCriticalSection@ATL@@QAEJXZ
_TEXT	SEGMENT PARA USE32 PUBLIC 'CODE'
_TEXT	ENDS
;	COMDAT ?ClearReplacements@CExpansionVector@ATL@@QAEJXZ
_TEXT	SEGMENT PARA USE32 PUBLIC 'CODE'
_TEXT	ENDS
;	COMDAT ?GetSize@?$CSimpleMap@PADPAGVCExpansionVectorEqualHelper@ATL@@@ATL@@QBEHXZ
_TEXT	SEGMENT PARA USE32 PUBLIC 'CODE'
_TEXT	ENDS
;	COMDAT ?GetKeyAt@?$CSimpleMap@PADPAGVCExpansionVectorEqualHelper@ATL@@@ATL@@QBEAAPADH@Z
_TEXT	SEGMENT PARA USE32 PUBLIC 'CODE'
_TEXT	ENDS
;	COMDAT ?GetValueAt@?$CSimpleMap@PADPAGVCExpansionVectorEqualHelper@ATL@@@ATL@@QBEAAPAGH@Z
_TEXT	SEGMENT PARA USE32 PUBLIC 'CODE'
_TEXT	ENDS
;	COMDAT ?RemoveAll@?$CSimpleMap@PADPAGVCExpansionVectorEqualHelper@ATL@@@ATL@@QAEXXZ
_TEXT	SEGMENT PARA USE32 PUBLIC 'CODE'
_TEXT	ENDS
;	COMDAT ?Unlock@CComFakeCriticalSection@ATL@@QAEJXZ
_TEXT	SEGMENT PARA USE32 PUBLIC 'CODE'
_TEXT	ENDS
;	COMDAT ??_GCRegObject@ATL@@UAEPAXI@Z
_TEXT	SEGMENT PARA USE32 PUBLIC 'CODE'
_TEXT	ENDS
;	COMDAT ??0CExpansionVector@ATL@@QAE@XZ
_TEXT	SEGMENT PARA USE32 PUBLIC 'CODE'
_TEXT	ENDS
;	COMDAT ??0?$CSimpleMap@PADPAGVCExpansionVectorEqualHelper@ATL@@@ATL@@QAE@XZ
_TEXT	SEGMENT PARA USE32 PUBLIC 'CODE'
_TEXT	ENDS
;	COMDAT ??1?$CSimpleMap@PADPAGVCExpansionVectorEqualHelper@ATL@@@ATL@@QAE@XZ
_TEXT	SEGMENT PARA USE32 PUBLIC 'CODE'
_TEXT	ENDS
;	COMDAT ??1CExpansionVector@ATL@@QAE@XZ
_TEXT	SEGMENT PARA USE32 PUBLIC 'CODE'
_TEXT	ENDS
;	COMDAT ??1CRegObject@ATL@@UAE@XZ
_TEXT	SEGMENT PARA USE32 PUBLIC 'CODE'
_TEXT	ENDS
;	COMDAT ??0?$CAtlSafeAllocBufferManager@VCCRTAllocator@ATL@@@_ATL_SAFE_ALLOCA_IMPL@ATL@@QAE@XZ
_TEXT	SEGMENT PARA USE32 PUBLIC 'CODE'
_TEXT	ENDS
;	COMDAT ??1?$CAtlSafeAllocBufferManager@VCCRTAllocator@ATL@@@_ATL_SAFE_ALLOCA_IMPL@ATL@@QAE@XZ
_TEXT	SEGMENT PARA USE32 PUBLIC 'CODE'
_TEXT	ENDS
;	COMDAT ?Free@CCRTAllocator@ATL@@SAXPAX@Z
_TEXT	SEGMENT PARA USE32 PUBLIC 'CODE'
_TEXT	ENDS
;	COMDAT ?GetModuleInstance@CAtlBaseModule@ATL@@QAEPAUHINSTANCE__@@XZ
_TEXT	SEGMENT PARA USE32 PUBLIC 'CODE'
_TEXT	ENDS
;	COMDAT ?AtlHresultFromLastError@ATL@@YAJXZ
_TEXT	SEGMENT PARA USE32 PUBLIC 'CODE'
_TEXT	ENDS
;	COMDAT ?AtlA2WHelper@@YGPAGPAGPBDHI@Z
_TEXT	SEGMENT PARA USE32 PUBLIC 'CODE'
_TEXT	ENDS
;	COMDAT ?_AtlVerifyStackAvailable@_ATL_SAFE_ALLOCA_IMPL@ATL@@YA_NK@Z
_TEXT	SEGMENT PARA USE32 PUBLIC 'CODE'
_TEXT	ENDS
;	COMDAT ?Allocate@?$CAtlSafeAllocBufferManager@VCCRTAllocator@ATL@@@_ATL_SAFE_ALLOCA_IMPL@ATL@@QAEPAXK@Z
_TEXT	SEGMENT PARA USE32 PUBLIC 'CODE'
_TEXT	ENDS
;	COMDAT ?Allocate@CCRTAllocator@ATL@@SAPAXI@Z
_TEXT	SEGMENT PARA USE32 PUBLIC 'CODE'
_TEXT	ENDS
;	COMDAT ?GetData@CAtlSafeAllocBufferNode@?$CAtlSafeAllocBufferManager@VCCRTAllocator@ATL@@@_ATL_SAFE_ALLOCA_IMPL@ATL@@QAEPAXXZ
_TEXT	SEGMENT PARA USE32 PUBLIC 'CODE'
_TEXT	ENDS
;	COMDAT ?EscapeSingleQuote@CAtlModule@ATL@@SAXPAGPBG@Z
_TEXT	SEGMENT PARA USE32 PUBLIC 'CODE'
_TEXT	ENDS
;	COMDAT ?ocscpy@@YAPAGPAGPBG@Z
_TEXT	SEGMENT PARA USE32 PUBLIC 'CODE'
_TEXT	ENDS
;	COMDAT ?ocslen@@YAHPBG@Z
_TEXT	SEGMENT PARA USE32 PUBLIC 'CODE'
_TEXT	ENDS
;	COMDAT ??_C@_1O@MNLDABAF@?$AAM?$AAo?$AAd?$AAu?$AAl?$AAe?$AA?$AA@
CONST	SEGMENT DWORD USE32 PUBLIC 'CONST'
CONST	ENDS
;	COMDAT ?AddReplacement@CRegObject@ATL@@UAGJPBG0@Z
_TEXT	SEGMENT PARA USE32 PUBLIC 'CODE'
_TEXT	ENDS
;	COMDAT ?AtlW2AHelper@@YGPADPADPBGHI@Z
_TEXT	SEGMENT PARA USE32 PUBLIC 'CODE'
_TEXT	ENDS
;	COMDAT ?Add@CExpansionVector@ATL@@QAEHPBDPBG@Z
_TEXT	SEGMENT PARA USE32 PUBLIC 'CODE'
_TEXT	ENDS
;	COMDAT ?Add@?$CSimpleMap@PADPAGVCExpansionVectorEqualHelper@ATL@@@ATL@@QAEHABQADABQAG@Z
_TEXT	SEGMENT PARA USE32 PUBLIC 'CODE'
_TEXT	ENDS
;	COMDAT ?InternalSetAtIndex@?$CSimpleMap@PADPAGVCExpansionVectorEqualHelper@ATL@@@ATL@@QAEXHABQADABQAG@Z
_TEXT	SEGMENT PARA USE32 PUBLIC 'CODE'
_TEXT	ENDS
;	COMDAT ??$?2PAD@?$Wrapper@PAD@?$CSimpleMap@PADPAGVCExpansionVectorEqualHelper@ATL@@@ATL@@SAPAXIPAPAD@Z
_TEXT	SEGMENT PARA USE32 PUBLIC 'CODE'
_TEXT	ENDS
;	COMDAT ??$?3PAD@?$Wrapper@PAD@?$CSimpleMap@PADPAGVCExpansionVectorEqualHelper@ATL@@@ATL@@SAXPAXPAPAD@Z
_TEXT	SEGMENT PARA USE32 PUBLIC 'CODE'
_TEXT	ENDS
;	COMDAT ??0?$Wrapper@PAD@?$CSimpleMap@PADPAGVCExpansionVectorEqualHelper@ATL@@@ATL@@QAE@ABQAD@Z
_TEXT	SEGMENT PARA USE32 PUBLIC 'CODE'
_TEXT	ENDS
;	COMDAT ??$?2PAG@?$Wrapper@PAG@?$CSimpleMap@PADPAGVCExpansionVectorEqualHelper@ATL@@@ATL@@SAPAXIPAPAG@Z
_TEXT	SEGMENT PARA USE32 PUBLIC 'CODE'
_TEXT	ENDS
;	COMDAT ??$?3PAG@?$Wrapper@PAG@?$CSimpleMap@PADPAGVCExpansionVectorEqualHelper@ATL@@@ATL@@SAXPAXPAPAG@Z
_TEXT	SEGMENT PARA USE32 PUBLIC 'CODE'
_TEXT	ENDS
;	COMDAT ??0?$Wrapper@PAG@?$CSimpleMap@PADPAGVCExpansionVectorEqualHelper@ATL@@@ATL@@QAE@ABQAG@Z
_TEXT	SEGMENT PARA USE32 PUBLIC 'CODE'
_TEXT	ENDS
;	COMDAT ??_C@_1BG@JBACFMF@?$AAM?$AAo?$AAd?$AAu?$AAl?$AAe?$AA_?$AAR?$AAa?$AAw?$AA?$AA@
CONST	SEGMENT DWORD USE32 PUBLIC 'CONST'
CONST	ENDS
;	COMDAT ??_C@_1BC@KAILKFFG@?$AAR?$AAE?$AAG?$AAI?$AAS?$AAT?$AAR?$AAY?$AA?$AA@
CONST	SEGMENT DWORD USE32 PUBLIC 'CONST'
CONST	ENDS
;	COMDAT ?ResourceRegister@CRegObject@ATL@@QAGJPBGI0@Z
_TEXT	SEGMENT PARA USE32 PUBLIC 'CODE'
_TEXT	ENDS
;	COMDAT ?RegisterFromResource@CRegObject@ATL@@IAEJPBGPBD1H@Z
_TEXT	SEGMENT PARA USE32 PUBLIC 'CODE'
_TEXT	ENDS
;	COMDAT ??0CRegParser@ATL@@QAE@PAVCRegObject@1@@Z
_TEXT	SEGMENT PARA USE32 PUBLIC 'CODE'
_TEXT	ENDS
;	COMDAT ??0?$CTempBuffer@D$0EAA@VCCRTAllocator@ATL@@@ATL@@QAE@XZ
_TEXT	SEGMENT PARA USE32 PUBLIC 'CODE'
_TEXT	ENDS
;	COMDAT ??1?$CTempBuffer@D$0EAA@VCCRTAllocator@ATL@@@ATL@@QAE@XZ
_TEXT	SEGMENT PARA USE32 PUBLIC 'CODE'
_TEXT	ENDS
;	COMDAT ?FreeHeap@?$CTempBuffer@D$0EAA@VCCRTAllocator@ATL@@@ATL@@AAEXXZ
_TEXT	SEGMENT PARA USE32 PUBLIC 'CODE'
_TEXT	ENDS
;	COMDAT ?Allocate@?$CTempBuffer@D$0EAA@VCCRTAllocator@ATL@@@ATL@@QAEPADI@Z
_TEXT	SEGMENT PARA USE32 PUBLIC 'CODE'
_TEXT	ENDS
;	COMDAT ?AllocateBytes@?$CTempBuffer@D$0EAA@VCCRTAllocator@ATL@@@ATL@@QAEPADI@Z
_TEXT	SEGMENT PARA USE32 PUBLIC 'CODE'
_TEXT	ENDS
;	COMDAT ?AllocateHeap@?$CTempBuffer@D$0EAA@VCCRTAllocator@ATL@@@ATL@@AAEXI@Z
_TEXT	SEGMENT PARA USE32 PUBLIC 'CODE'
_TEXT	ENDS
;	COMDAT ?RegisterBuffer@CRegParser@ATL@@QAEJPADH@Z
_TEXT	SEGMENT PARA USE32 PUBLIC 'CODE'
_TEXT	ENDS
;	COMDAT ?PreProcessBuffer@CRegParser@ATL@@QAEJPADPAPAD@Z
_TEXT	SEGMENT PARA USE32 PUBLIC 'CODE'
_TEXT	ENDS
;	COMDAT ??0CParseBuffer@CRegParser@ATL@@QAE@H@Z
_TEXT	SEGMENT PARA USE32 PUBLIC 'CODE'
_TEXT	ENDS
;	COMDAT ??1CParseBuffer@CRegParser@ATL@@QAE@XZ
_TEXT	SEGMENT PARA USE32 PUBLIC 'CODE'
_TEXT	ENDS
;	COMDAT ?StrChrA@CRegParser@ATL@@KAPADPADD@Z
_TEXT	SEGMENT PARA USE32 PUBLIC 'CODE'
_TEXT	ENDS
;	COMDAT ?StrFromMap@CRegObject@ATL@@QAEPBGPAD@Z
_TEXT	SEGMENT PARA USE32 PUBLIC 'CODE'
_TEXT	ENDS
;	COMDAT ?Lookup@?$CSimpleMap@PADPAGVCExpansionVectorEqualHelper@ATL@@@ATL@@QBEPAGABQAD@Z
_TEXT	SEGMENT PARA USE32 PUBLIC 'CODE'
_TEXT	ENDS
;	COMDAT ?FindKey@?$CSimpleMap@PADPAGVCExpansionVectorEqualHelper@ATL@@@ATL@@QBEHABQAD@Z
_TEXT	SEGMENT PARA USE32 PUBLIC 'CODE'
_TEXT	ENDS
;	COMDAT ?IsEqualKey@CExpansionVectorEqualHelper@ATL@@SA_NQAD0@Z
_TEXT	SEGMENT PARA USE32 PUBLIC 'CODE'
_TEXT	ENDS
;	COMDAT ?AddString@CParseBuffer@CRegParser@ATL@@QAEHPBG@Z
_TEXT	SEGMENT PARA USE32 PUBLIC 'CODE'
_TEXT	ENDS
;	COMDAT ?Append@CParseBuffer@CRegParser@ATL@@QAEHPBDH@Z
_TEXT	SEGMENT PARA USE32 PUBLIC 'CODE'
_TEXT	ENDS
;	COMDAT ?AddChar@CParseBuffer@CRegParser@ATL@@QAEHPBD@Z
_TEXT	SEGMENT PARA USE32 PUBLIC 'CODE'
_TEXT	ENDS
;	COMDAT ?Detach@CParseBuffer@CRegParser@ATL@@QAEPADXZ
_TEXT	SEGMENT PARA USE32 PUBLIC 'CODE'
_TEXT	ENDS
;	COMDAT ?HKeyFromString@CRegParser@ATL@@KAPAUHKEY__@@PAD@Z
_TEXT	SEGMENT PARA USE32 PUBLIC 'CODE'
_TEXT	ENDS
;	COMDAT ??_C@_04OHBKMIBJ@HKCR?$AA@
CONST	SEGMENT DWORD USE32 PUBLIC 'CONST'
CONST	ENDS
;	COMDAT ??_C@_04KIFLFONO@HKCU?$AA@
CONST	SEGMENT DWORD USE32 PUBLIC 'CONST'
CONST	ENDS
;	COMDAT ??_C@_04CBBMIBLK@HKLM?$AA@
CONST	SEGMENT DWORD USE32 PUBLIC 'CONST'
CONST	ENDS
;	COMDAT ??_C@_03DLBIJLAB@HKU?$AA@
CONST	SEGMENT DWORD USE32 PUBLIC 'CONST'
CONST	ENDS
;	COMDAT ??_C@_04OFOCGAOH@HKPD?$AA@
CONST	SEGMENT DWORD USE32 PUBLIC 'CONST'
CONST	ENDS
;	COMDAT ??_C@_04POMNGLEL@HKDD?$AA@
CONST	SEGMENT DWORD USE32 PUBLIC 'CONST'
CONST	ENDS
;	COMDAT ??_C@_04LEMDOLAJ@HKCC?$AA@
CONST	SEGMENT DWORD USE32 PUBLIC 'CONST'
CONST	ENDS
;	COMDAT ??_C@_0BC@JBJOLKMF@HKEY_CLASSES_ROOT?$AA@
CONST	SEGMENT DWORD USE32 PUBLIC 'CONST'
CONST	ENDS
;	COMDAT ??_C@_0BC@GMMMKLBI@HKEY_CURRENT_USER?$AA@
CONST	SEGMENT DWORD USE32 PUBLIC 'CONST'
CONST	ENDS
;	COMDAT ??_C@_0BD@GIIFIKDM@HKEY_LOCAL_MACHINE?$AA@
CONST	SEGMENT DWORD USE32 PUBLIC 'CONST'
CONST	ENDS
;	COMDAT ??_C@_0L@OEMMANAM@HKEY_USERS?$AA@
CONST	SEGMENT DWORD USE32 PUBLIC 'CONST'
CONST	ENDS
;	COMDAT ??_C@_0BG@IDBEHNDO@HKEY_PERFORMANCE_DATA?$AA@
CONST	SEGMENT DWORD USE32 PUBLIC 'CONST'
CONST	ENDS
;	COMDAT ??_C@_0O@MJDLIIGK@HKEY_DYN_DATA?$AA@
CONST	SEGMENT DWORD USE32 PUBLIC 'CONST'
CONST	ENDS
;	COMDAT ??_C@_0BE@NLNNHLLF@HKEY_CURRENT_CONFIG?$AA@
CONST	SEGMENT DWORD USE32 PUBLIC 'CONST'
CONST	ENDS
;	COMDAT ?map@?2??HKeyFromString@CRegParser@ATL@@KAPAUHKEY__@@PAD@Z@4QBUkeymap@23@B
CONST	SEGMENT DWORD USE32 PUBLIC 'CONST'
CONST	ENDS
;	COMDAT ?NextToken@CRegParser@ATL@@IAEJPAD@Z
_TEXT	SEGMENT PARA USE32 PUBLIC 'CODE'
_TEXT	ENDS
;	COMDAT ?EndOfVar@CRegParser@ATL@@IAEHXZ
_TEXT	SEGMENT PARA USE32 PUBLIC 'CODE'
_TEXT	ENDS
;	COMDAT ?IsSpace@CRegParser@ATL@@IAEHD@Z
_TEXT	SEGMENT PARA USE32 PUBLIC 'CODE'
_TEXT	ENDS
;	COMDAT ?GenerateError@CRegParser@ATL@@IAEJI@Z
_TEXT	SEGMENT PARA USE32 PUBLIC 'CODE'
_TEXT	ENDS
;	COMDAT ?RegisterSubkeys@CRegParser@ATL@@IAEJPADPAUHKEY__@@HH@Z
_TEXT	SEGMENT PARA USE32 PUBLIC 'CODE'
_TEXT	ENDS
;	COMDAT ??_C@_06JBKGCNBB@Delete?$AA@
CONST	SEGMENT DWORD USE32 PUBLIC 'CONST'
CONST	ENDS
;	COMDAT ??_C@_0M@DBGDLGLL@ForceRemove?$AA@
CONST	SEGMENT DWORD USE32 PUBLIC 'CONST'
CONST	ENDS
;	COMDAT ??_C@_08KAAPDIAN@NoRemove?$AA@
CONST	SEGMENT DWORD USE32 PUBLIC 'CONST'
CONST	ENDS
;	COMDAT ??_C@_03LAIAPFCB@Val?$AA@
CONST	SEGMENT DWORD USE32 PUBLIC 'CONST'
CONST	ENDS
;	COMDAT ?AddValue@CRegParser@ATL@@IAEJAAVCRegKey@2@PBDPAD@Z
_TEXT	SEGMENT PARA USE32 PUBLIC 'CODE'
_TEXT	ENDS
;	COMDAT ?VTFromRegType@CRegParser@ATL@@KAHPBDAAG@Z
_TEXT	SEGMENT PARA USE32 PUBLIC 'CODE'
_TEXT	ENDS
;	COMDAT ??_C@_01CPLAODJH@S?$AA@
CONST	SEGMENT DWORD USE32 PUBLIC 'CONST'
CONST	ENDS
;	COMDAT ??_C@_01PLPBNMEI@M?$AA@
CONST	SEGMENT DWORD USE32 PUBLIC 'CONST'
CONST	ENDS
;	COMDAT ??_C@_01CKDDGHAB@D?$AA@
CONST	SEGMENT DWORD USE32 PUBLIC 'CONST'
CONST	ENDS
;	COMDAT ??_C@_01HMGJMAIH@B?$AA@
CONST	SEGMENT DWORD USE32 PUBLIC 'CONST'
CONST	ENDS
;	COMDAT ?map@?2??VTFromRegType@CRegParser@ATL@@KAHPBDAAG@Z@4QBUtypemap@23@B
_DATA	SEGMENT DWORD USE32 PUBLIC 'DATA'
_DATA	ENDS
;	COMDAT ?$S4@?2??VTFromRegType@CRegParser@ATL@@KAHPBDAAG@Z@4IA
_BSS	SEGMENT DWORD USE32 PUBLIC 'BSS'
_BSS	ENDS
;	COMDAT ??0?$CTempBuffer@D$0BAA@VCCRTAllocator@ATL@@@ATL@@QAE@XZ
_TEXT	SEGMENT PARA USE32 PUBLIC 'CODE'
_TEXT	ENDS
;	COMDAT ??1?$CTempBuffer@D$0BAA@VCCRTAllocator@ATL@@@ATL@@QAE@XZ
_TEXT	SEGMENT PARA USE32 PUBLIC 'CODE'
_TEXT	ENDS
;	COMDAT ?FreeHeap@?$CTempBuffer@D$0BAA@VCCRTAllocator@ATL@@@ATL@@AAEXXZ
_TEXT	SEGMENT PARA USE32 PUBLIC 'CODE'
_TEXT	ENDS
;	COMDAT ?Allocate@?$CTempBuffer@D$0BAA@VCCRTAllocator@ATL@@@ATL@@QAEPADI@Z
_TEXT	SEGMENT PARA USE32 PUBLIC 'CODE'
_TEXT	ENDS
;	COMDAT ?AllocateBytes@?$CTempBuffer@D$0BAA@VCCRTAllocator@ATL@@@ATL@@QAEPADI@Z
_TEXT	SEGMENT PARA USE32 PUBLIC 'CODE'
_TEXT	ENDS
;	COMDAT ?AllocateHeap@?$CTempBuffer@D$0BAA@VCCRTAllocator@ATL@@@ATL@@AAEXI@Z
_TEXT	SEGMENT PARA USE32 PUBLIC 'CODE'
_TEXT	ENDS
;	COMDAT ?SetMultiStringValue@CRegKey@ATL@@QAEJPBD0@Z
_TEXT	SEGMENT PARA USE32 PUBLIC 'CODE'
_TEXT	ENDS
;	COMDAT ??B?$CTempBuffer@D$0BAA@VCCRTAllocator@ATL@@@ATL@@QBEPADXZ
_TEXT	SEGMENT PARA USE32 PUBLIC 'CODE'
_TEXT	ENDS
;	COMDAT ?SetDWORDValue@CRegKey@ATL@@QAEJPBDK@Z
_TEXT	SEGMENT PARA USE32 PUBLIC 'CODE'
_TEXT	ENDS
;	COMDAT ??0?$CTempBuffer@E$0BAA@VCCRTAllocator@ATL@@@ATL@@QAE@XZ
_TEXT	SEGMENT PARA USE32 PUBLIC 'CODE'
_TEXT	ENDS
;	COMDAT ??1?$CTempBuffer@E$0BAA@VCCRTAllocator@ATL@@@ATL@@QAE@XZ
_TEXT	SEGMENT PARA USE32 PUBLIC 'CODE'
_TEXT	ENDS
;	COMDAT ?FreeHeap@?$CTempBuffer@E$0BAA@VCCRTAllocator@ATL@@@ATL@@AAEXXZ
_TEXT	SEGMENT PARA USE32 PUBLIC 'CODE'
_TEXT	ENDS
;	COMDAT ?Allocate@?$CTempBuffer@E$0BAA@VCCRTAllocator@ATL@@@ATL@@QAEPAEI@Z
_TEXT	SEGMENT PARA USE32 PUBLIC 'CODE'
_TEXT	ENDS
;	COMDAT ?AllocateBytes@?$CTempBuffer@E$0BAA@VCCRTAllocator@ATL@@@ATL@@QAEPAEI@Z
_TEXT	SEGMENT PARA USE32 PUBLIC 'CODE'
_TEXT	ENDS
;	COMDAT ?AllocateHeap@?$CTempBuffer@E$0BAA@VCCRTAllocator@ATL@@@ATL@@AAEXI@Z
_TEXT	SEGMENT PARA USE32 PUBLIC 'CODE'
_TEXT	ENDS
;	COMDAT ?ChToByte@CRegParser@ATL@@KAED@Z
_TEXT	SEGMENT PARA USE32 PUBLIC 'CODE'
_TEXT	ENDS
;	COMDAT ??B?$CTempBuffer@E$0BAA@VCCRTAllocator@ATL@@@ATL@@QBEPAEXZ
_TEXT	SEGMENT PARA USE32 PUBLIC 'CODE'
_TEXT	ENDS
;	COMDAT ?SkipAssignment@CRegParser@ATL@@IAEJPAD@Z
_TEXT	SEGMENT PARA USE32 PUBLIC 'CODE'
_TEXT	ENDS
;	COMDAT ?HasSubKeys@CRegParser@ATL@@IAEHPAUHKEY__@@@Z
_TEXT	SEGMENT PARA USE32 PUBLIC 'CODE'
_TEXT	ENDS
;	COMDAT ?CanForceRemoveKey@CRegParser@ATL@@IAEHPBD@Z
_TEXT	SEGMENT PARA USE32 PUBLIC 'CODE'
_TEXT	ENDS
;	COMDAT ?rgszNeverDelete@CRegParser@ATL@@1QBQBDB
CONST	SEGMENT DWORD USE32 PUBLIC 'CONST'
CONST	ENDS
;	COMDAT ??_C@_05GIBEAPNE@CLSID?$AA@
CONST	SEGMENT DWORD USE32 PUBLIC 'CONST'
CONST	ENDS
;	COMDAT ??_C@_0BF@HDDNNDFH@Component?5Categories?$AA@
CONST	SEGMENT DWORD USE32 PUBLIC 'CONST'
CONST	ENDS
;	COMDAT ??_C@_08PICKODJL@FileType?$AA@
CONST	SEGMENT DWORD USE32 PUBLIC 'CONST'
CONST	ENDS
;	COMDAT ??_C@_09JKPGEJCH@Interface?$AA@
CONST	SEGMENT DWORD USE32 PUBLIC 'CONST'
CONST	ENDS
;	COMDAT ??_C@_08PPIOJEA@Hardware?$AA@
CONST	SEGMENT DWORD USE32 PUBLIC 'CONST'
CONST	ENDS
;	COMDAT ??_C@_04IHBFOLAC@Mime?$AA@
CONST	SEGMENT DWORD USE32 PUBLIC 'CONST'
CONST	ENDS
;	COMDAT ??_C@_03DDIMFGBA@SAM?$AA@
CONST	SEGMENT DWORD USE32 PUBLIC 'CONST'
CONST	ENDS
;	COMDAT ??_C@_08LOPHEHKG@SECURITY?$AA@
CONST	SEGMENT DWORD USE32 PUBLIC 'CONST'
CONST	ENDS
;	COMDAT ??_C@_06FDHFNJBJ@SYSTEM?$AA@
CONST	SEGMENT DWORD USE32 PUBLIC 'CONST'
CONST	ENDS
;	COMDAT ??_C@_08KEKAJNJI@Software?$AA@
CONST	SEGMENT DWORD USE32 PUBLIC 'CONST'
CONST	ENDS
;	COMDAT ??_C@_07KJLOKDKB@TypeLib?$AA@
CONST	SEGMENT DWORD USE32 PUBLIC 'CONST'
CONST	ENDS
;	COMDAT ?RecurseDeleteKey@CRegKey@ATL@@QAEJPBD@Z
_TEXT	SEGMENT PARA USE32 PUBLIC 'CODE'
_TEXT	ENDS
;	COMDAT ?Attach@CRegKey@ATL@@QAEXPAUHKEY__@@@Z
_TEXT	SEGMENT PARA USE32 PUBLIC 'CODE'
_TEXT	ENDS
;	COMDAT ?DeleteSubKey@CRegKey@ATL@@QAEJPBD@Z
_TEXT	SEGMENT PARA USE32 PUBLIC 'CODE'
_TEXT	ENDS
;	COMDAT ?Detach@CRegKey@ATL@@QAEPAUHKEY__@@XZ
_TEXT	SEGMENT PARA USE32 PUBLIC 'CODE'
_TEXT	ENDS
;	COMDAT ?SkipWhiteSpace@CRegParser@ATL@@IAEXXZ
_TEXT	SEGMENT PARA USE32 PUBLIC 'CODE'
_TEXT	ENDS
;	COMDAT ??B?$CTempBuffer@D$0EAA@VCCRTAllocator@ATL@@@ATL@@QBEPADXZ
_TEXT	SEGMENT PARA USE32 PUBLIC 'CODE'
_TEXT	ENDS
;	COMDAT ?ResourceUnregister@CRegObject@ATL@@QAGJPBGI0@Z
_TEXT	SEGMENT PARA USE32 PUBLIC 'CODE'
_TEXT	ENDS
;	COMDAT ??_C@_1M@PPPPCDEP@?$AAA?$AAP?$AAP?$AAI?$AAD?$AA?$AA@
CONST	SEGMENT DWORD USE32 PUBLIC 'CONST'
CONST	ENDS
;	COMDAT ?m_libid@CAtlModule@ATL@@2U_GUID@@A
_DATA	SEGMENT DWORD USE32 PUBLIC 'DATA'
_DATA	ENDS
sxdata	SEGMENT DWORD USE32 'SXDATA'
sxdata	ENDS
FLAT	GROUP _DATA, CONST, _BSS
	ASSUME	CS: FLAT, DS: FLAT, SS: FLAT
endif

INCLUDELIB LIBCMT
INCLUDELIB OLDNAMES

PUBLIC	?rgszNeverDelete@CRegParser@ATL@@1QBQBDB	; ATL::CRegParser::rgszNeverDelete
PUBLIC	?g_pfnGetThreadACP@ATL@@3P6GIXZA		; ATL::g_pfnGetThreadACP
PUBLIC	?_AtlGetThreadACPThunk@ATL@@YGIXZ		; ATL::_AtlGetThreadACPThunk
PUBLIC	??_C@_0BF@HDDNNDFH@Component?5Categories?$AA@	; `string'
PUBLIC	??_C@_08PICKODJL@FileType?$AA@			; `string'
PUBLIC	??_C@_09JKPGEJCH@Interface?$AA@			; `string'
PUBLIC	??_C@_08PPIOJEA@Hardware?$AA@			; `string'
PUBLIC	??_C@_04IHBFOLAC@Mime?$AA@			; `string'
PUBLIC	??_C@_03DDIMFGBA@SAM?$AA@			; `string'
PUBLIC	??_C@_08LOPHEHKG@SECURITY?$AA@			; `string'
PUBLIC	??_C@_06FDHFNJBJ@SYSTEM?$AA@			; `string'
PUBLIC	??_C@_08KEKAJNJI@Software?$AA@			; `string'
PUBLIC	??_C@_07KJLOKDKB@TypeLib?$AA@			; `string'
PUBLIC	?_pAtlModule@ATL@@3PAVCAtlModule@1@A		; ATL::_pAtlModule
PUBLIC	?m_libid@CAtlModule@ATL@@2U_GUID@@A		; ATL::CAtlModule::m_libid
PUBLIC	_CLSID_StdGlobalInterfaceTable
PUBLIC	??_C@_05GIBEAPNE@CLSID?$AA@			; `string'
PUBLIC	??_C@_05PDIKPLII@AppID?$AA@			; `string'
PUBLIC	??_C@_01CPLAODJH@S?$AA@				; `string'
PUBLIC	??_C@_01PLPBNMEI@M?$AA@				; `string'
PUBLIC	??_C@_01CKDDGHAB@D?$AA@				; `string'
PUBLIC	??_C@_01HMGJMAIH@B?$AA@				; `string'
PUBLIC	??_C@_03LAIAPFCB@Val?$AA@			; `string'
PUBLIC	??_C@_0M@DBGDLGLL@ForceRemove?$AA@		; `string'
PUBLIC	??_C@_08KAAPDIAN@NoRemove?$AA@			; `string'
PUBLIC	??_C@_06JBKGCNBB@Delete?$AA@			; `string'
PUBLIC	?_pPerfRegFunc@ATL@@3P6AJPAUHINSTANCE__@@@ZA	; ATL::_pPerfRegFunc
PUBLIC	?_pPerfUnRegFunc@ATL@@3P6AJXZA			; ATL::_pPerfUnRegFunc
;	COMDAT ?_pAtlModule@ATL@@3PAVCAtlModule@1@A
_BSS	SEGMENT
?_pAtlModule@ATL@@3PAVCAtlModule@1@A DD 01H DUP (?)	; ATL::_pAtlModule
_BSS	ENDS
;	COMDAT ?m_libid@CAtlModule@ATL@@2U_GUID@@A
_BSS	SEGMENT
?m_libid@CAtlModule@ATL@@2U_GUID@@A DB 010H DUP (?)	; ATL::CAtlModule::m_libid
_BSS	ENDS
;	COMDAT ?_pPerfRegFunc@ATL@@3P6AJPAUHINSTANCE__@@@ZA
_BSS	SEGMENT
?_pPerfRegFunc@ATL@@3P6AJPAUHINSTANCE__@@@ZA DD 01H DUP (?) ; ATL::_pPerfRegFunc
_BSS	ENDS
;	COMDAT ?_pPerfUnRegFunc@ATL@@3P6AJXZA
_BSS	SEGMENT
?_pPerfUnRegFunc@ATL@@3P6AJXZA DD 01H DUP (?)		; ATL::_pPerfUnRegFunc
_BSS	ENDS
;	COMDAT ?g_pfnGetThreadACP@ATL@@3P6GIXZA
_DATA	SEGMENT
?g_pfnGetThreadACP@ATL@@3P6GIXZA DD FLAT:?_AtlGetThreadACPThunk@ATL@@YGIXZ ; ATL::g_pfnGetThreadACP
_DATA	ENDS
;	COMDAT _CLSID_StdGlobalInterfaceTable
CONST	SEGMENT
_CLSID_StdGlobalInterfaceTable DD 0323H
	DW	00H
	DW	00H
	DB	0c0H
	DB	00H
	DB	00H
	DB	00H
	DB	00H
	DB	00H
	DB	00H
	DB	046H
CONST	ENDS
;	COMDAT ??_C@_01CPLAODJH@S?$AA@
CONST	SEGMENT
??_C@_01CPLAODJH@S?$AA@ DB 'S', 00H			; `string'
CONST	ENDS
CONST	SEGMENT
_szStringVal DD	FLAT:??_C@_01CPLAODJH@S?$AA@
CONST	ENDS
;	COMDAT ??_C@_01PLPBNMEI@M?$AA@
CONST	SEGMENT
??_C@_01PLPBNMEI@M?$AA@ DB 'M', 00H			; `string'
CONST	ENDS
CONST	SEGMENT
_multiszStringVal DD FLAT:??_C@_01PLPBNMEI@M?$AA@
CONST	ENDS
;	COMDAT ??_C@_01CKDDGHAB@D?$AA@
CONST	SEGMENT
??_C@_01CKDDGHAB@D?$AA@ DB 'D', 00H			; `string'
CONST	ENDS
CONST	SEGMENT
_szDwordVal DD	FLAT:??_C@_01CKDDGHAB@D?$AA@
CONST	ENDS
;	COMDAT ??_C@_01HMGJMAIH@B?$AA@
CONST	SEGMENT
??_C@_01HMGJMAIH@B?$AA@ DB 'B', 00H			; `string'
CONST	ENDS
CONST	SEGMENT
_szBinaryVal DD	FLAT:??_C@_01HMGJMAIH@B?$AA@
CONST	ENDS
;	COMDAT ??_C@_03LAIAPFCB@Val?$AA@
CONST	SEGMENT
??_C@_03LAIAPFCB@Val?$AA@ DB 'Val', 00H			; `string'
CONST	ENDS
CONST	SEGMENT
_szValToken DD	FLAT:??_C@_03LAIAPFCB@Val?$AA@
CONST	ENDS
;	COMDAT ??_C@_0M@DBGDLGLL@ForceRemove?$AA@
CONST	SEGMENT
??_C@_0M@DBGDLGLL@ForceRemove?$AA@ DB 'ForceRemove', 00H ; `string'
CONST	ENDS
CONST	SEGMENT
_szForceRemove DD FLAT:??_C@_0M@DBGDLGLL@ForceRemove?$AA@
CONST	ENDS
;	COMDAT ??_C@_08KAAPDIAN@NoRemove?$AA@
CONST	SEGMENT
??_C@_08KAAPDIAN@NoRemove?$AA@ DB 'NoRemove', 00H	; `string'
CONST	ENDS
CONST	SEGMENT
_szNoRemove DD	FLAT:??_C@_08KAAPDIAN@NoRemove?$AA@
CONST	ENDS
;	COMDAT ??_C@_06JBKGCNBB@Delete?$AA@
CONST	SEGMENT
??_C@_06JBKGCNBB@Delete?$AA@ DB 'Delete', 00H		; `string'
CONST	ENDS
CONST	SEGMENT
_szDelete DD	FLAT:??_C@_06JBKGCNBB@Delete?$AA@
CONST	ENDS
;	COMDAT ??_C@_05PDIKPLII@AppID?$AA@
CONST	SEGMENT
??_C@_05PDIKPLII@AppID?$AA@ DB 'AppID', 00H		; `string'
CONST	ENDS
;	COMDAT ??_C@_05GIBEAPNE@CLSID?$AA@
CONST	SEGMENT
??_C@_05GIBEAPNE@CLSID?$AA@ DB 'CLSID', 00H		; `string'
CONST	ENDS
;	COMDAT ??_C@_0BF@HDDNNDFH@Component?5Categories?$AA@
CONST	SEGMENT
??_C@_0BF@HDDNNDFH@Component?5Categories?$AA@ DB 'Component Categories', 00H ; `string'
CONST	ENDS
;	COMDAT ??_C@_08PICKODJL@FileType?$AA@
CONST	SEGMENT
??_C@_08PICKODJL@FileType?$AA@ DB 'FileType', 00H	; `string'
CONST	ENDS
;	COMDAT ??_C@_09JKPGEJCH@Interface?$AA@
CONST	SEGMENT
??_C@_09JKPGEJCH@Interface?$AA@ DB 'Interface', 00H	; `string'
CONST	ENDS
;	COMDAT ??_C@_08PPIOJEA@Hardware?$AA@
CONST	SEGMENT
??_C@_08PPIOJEA@Hardware?$AA@ DB 'Hardware', 00H	; `string'
CONST	ENDS
;	COMDAT ??_C@_04IHBFOLAC@Mime?$AA@
CONST	SEGMENT
??_C@_04IHBFOLAC@Mime?$AA@ DB 'Mime', 00H		; `string'
CONST	ENDS
;	COMDAT ??_C@_03DDIMFGBA@SAM?$AA@
CONST	SEGMENT
??_C@_03DDIMFGBA@SAM?$AA@ DB 'SAM', 00H			; `string'
CONST	ENDS
;	COMDAT ??_C@_08LOPHEHKG@SECURITY?$AA@
CONST	SEGMENT
??_C@_08LOPHEHKG@SECURITY?$AA@ DB 'SECURITY', 00H	; `string'
CONST	ENDS
;	COMDAT ??_C@_06FDHFNJBJ@SYSTEM?$AA@
CONST	SEGMENT
??_C@_06FDHFNJBJ@SYSTEM?$AA@ DB 'SYSTEM', 00H		; `string'
CONST	ENDS
;	COMDAT ??_C@_08KEKAJNJI@Software?$AA@
CONST	SEGMENT
??_C@_08KEKAJNJI@Software?$AA@ DB 'Software', 00H	; `string'
CONST	ENDS
;	COMDAT ??_C@_07KJLOKDKB@TypeLib?$AA@
CONST	SEGMENT
??_C@_07KJLOKDKB@TypeLib?$AA@ DB 'TypeLib', 00H		; `string'
CONST	ENDS
;	COMDAT ?rgszNeverDelete@CRegParser@ATL@@1QBQBDB
CONST	SEGMENT
?rgszNeverDelete@CRegParser@ATL@@1QBQBDB DD FLAT:??_C@_05PDIKPLII@AppID?$AA@ ; ATL::CRegParser::rgszNeverDelete
	DD	FLAT:??_C@_05GIBEAPNE@CLSID?$AA@
	DD	FLAT:??_C@_0BF@HDDNNDFH@Component?5Categories?$AA@
	DD	FLAT:??_C@_08PICKODJL@FileType?$AA@
	DD	FLAT:??_C@_09JKPGEJCH@Interface?$AA@
	DD	FLAT:??_C@_08PPIOJEA@Hardware?$AA@
	DD	FLAT:??_C@_04IHBFOLAC@Mime?$AA@
	DD	FLAT:??_C@_03DDIMFGBA@SAM?$AA@
	DD	FLAT:??_C@_08LOPHEHKG@SECURITY?$AA@
	DD	FLAT:??_C@_06FDHFNJBJ@SYSTEM?$AA@
	DD	FLAT:??_C@_08KEKAJNJI@Software?$AA@
	DD	FLAT:??_C@_07KJLOKDKB@TypeLib?$AA@
CONST	ENDS
PUBLIC	?SendMW_CLOSECHAR_ACK@CTMapSvrModule@@QAEXKK@Z	; CTMapSvrModule::SendMW_CLOSECHAR_ACK
EXTRN	??2@YAPAXI@Z:NEAR				; operator new
EXTRN	??3@YAXPAX@Z:NEAR				; operator delete
EXTRN	__except_list:DWORD
EXTRN	___CxxFrameHandler:NEAR
EXTRN	??0CPacket@@QAE@XZ:NEAR				; CPacket::CPacket
EXTRN	?SetID@CPacket@@QAEAAV1@G@Z:NEAR		; CPacket::SetID
EXTRN	??6CPacket@@QAEAAV0@K@Z:NEAR			; CPacket::operator<<
;	COMDAT xdata$x
; File c:\users\pierr\desktop\4story - oldschool\sources\tserver\tmapsvr\sssender.cpp
xdata$x	SEGMENT
$T184683 DD	0ffffffffH
	DD	FLAT:$L184674
$T184678 DD	019930520H
	DD	01H
	DD	FLAT:$T184683
	DD	2 DUP(00H)
	DD	2 DUP(00H)
; Function compile flags: /Ogty
xdata$x	ENDS
;	COMDAT ?SendMW_CLOSECHAR_ACK@CTMapSvrModule@@QAEXKK@Z
_TEXT	SEGMENT
$T184671 = -16						; size = 4
__$EHRec$ = -12						; size = 12
_dwCharID$ = 8						; size = 4
_dwKEY$ = 12						; size = 4
?SendMW_CLOSECHAR_ACK@CTMapSvrModule@@QAEXKK@Z PROC NEAR ; CTMapSvrModule::SendMW_CLOSECHAR_ACK, COMDAT
; _this$ = ecx

; 227  : {

  00000	6a ff		 push	 -1
  00002	68 00 00 00 00	 push	 __ehhandler$?SendMW_CLOSECHAR_ACK@CTMapSvrModule@@QAEXKK@Z
  00007	64 a1 00 00 00
	00		 mov	 eax, DWORD PTR fs:__except_list
  0000d	50		 push	 eax
  0000e	64 89 25 00 00
	00 00		 mov	 DWORD PTR fs:__except_list, esp
  00015	51		 push	 ecx
  00016	56		 push	 esi
  00017	57		 push	 edi

; 228  : 	CPacket *pMSG = new CPacket();

  00018	6a 1c		 push	 28			; 0000001cH
  0001a	8b f9		 mov	 edi, ecx
  0001c	e8 00 00 00 00	 call	 ??2@YAPAXI@Z		; operator new
  00021	83 c4 04	 add	 esp, 4
  00024	89 44 24 08	 mov	 DWORD PTR $T184671[esp+24], eax
  00028	33 f6		 xor	 esi, esi
  0002a	3b c6		 cmp	 eax, esi
  0002c	89 74 24 14	 mov	 DWORD PTR __$EHRec$[esp+32], esi
  00030	74 09		 je	 SHORT $L184673
  00032	8b c8		 mov	 ecx, eax
  00034	e8 00 00 00 00	 call	 ??0CPacket@@QAE@XZ	; CPacket::CPacket
  00039	8b f0		 mov	 esi, eax
$L184673:

; 229  : 
; 230  : 	pMSG->SetID(MW_CLOSECHAR_ACK)
; 231  : 		<< dwCharID
; 232  : 		<< dwKEY;

  0003b	8b 44 24 20	 mov	 eax, DWORD PTR _dwKEY$[esp+20]
  0003f	8b 4c 24 1c	 mov	 ecx, DWORD PTR _dwCharID$[esp+20]
  00043	50		 push	 eax
  00044	51		 push	 ecx
  00045	68 0c 20 00 00	 push	 8204			; 0000200cH
  0004a	8b ce		 mov	 ecx, esi
  0004c	c7 44 24 20 ff
	ff ff ff	 mov	 DWORD PTR __$EHRec$[esp+44], -1
  00054	e8 00 00 00 00	 call	 ?SetID@CPacket@@QAEAAV1@G@Z ; CPacket::SetID
  00059	8b c8		 mov	 ecx, eax
  0005b	e8 00 00 00 00	 call	 ??6CPacket@@QAEAAV0@K@Z	; CPacket::operator<<
  00060	8b c8		 mov	 ecx, eax
  00062	e8 00 00 00 00	 call	 ??6CPacket@@QAEAAV0@K@Z	; CPacket::operator<<

; 233  : 
; 234  : 	m_world.Say(pMSG);

  00067	8b 97 b8 a3 01
	00		 mov	 edx, DWORD PTR [edi+107448]
  0006d	8d 8f b8 a3 01
	00		 lea	 ecx, DWORD PTR [edi+107448]
  00073	56		 push	 esi
  00074	ff 12		 call	 DWORD PTR [edx]

; 235  : }

  00076	8b 4c 24 0c	 mov	 ecx, DWORD PTR __$EHRec$[esp+24]
  0007a	5f		 pop	 edi
  0007b	5e		 pop	 esi
  0007c	64 89 0d 00 00
	00 00		 mov	 DWORD PTR fs:__except_list, ecx
  00083	83 c4 10	 add	 esp, 16			; 00000010H
  00086	c2 08 00	 ret	 8
_TEXT	ENDS
;	COMDAT text$x
text$x	SEGMENT
$L184674:
  00000	8b 45 f0	 mov	 eax, DWORD PTR $T184671[ebp]
  00003	50		 push	 eax
  00004	e8 00 00 00 00	 call	 ??3@YAXPAX@Z		; operator delete
  00009	59		 pop	 ecx
  0000a	c3		 ret	 0
__ehhandler$?SendMW_CLOSECHAR_ACK@CTMapSvrModule@@QAEXKK@Z:
  0000b	b8 00 00 00 00	 mov	 eax, OFFSET FLAT:$T184678
  00010	e9 00 00 00 00	 jmp	 ___CxxFrameHandler
text$x	ENDS
?SendMW_CLOSECHAR_ACK@CTMapSvrModule@@QAEXKK@Z ENDP	; CTMapSvrModule::SendMW_CLOSECHAR_ACK
PUBLIC	?SendMW_ADDCHAR_ACK@CTMapSvrModule@@QAEXKKKGK@Z	; CTMapSvrModule::SendMW_ADDCHAR_ACK
EXTRN	??6CPacket@@QAEAAV0@G@Z:NEAR			; CPacket::operator<<
;	COMDAT xdata$x
xdata$x	SEGMENT
$T184698 DD	0ffffffffH
	DD	FLAT:$L184694
$T184696 DD	019930520H
	DD	01H
	DD	FLAT:$T184698
	DD	2 DUP(00H)
	DD	2 DUP(00H)
; Function compile flags: /Ogty
xdata$x	ENDS
;	COMDAT ?SendMW_ADDCHAR_ACK@CTMapSvrModule@@QAEXKKKGK@Z
_TEXT	SEGMENT
$T184691 = -16						; size = 4
__$EHRec$ = -12						; size = 12
_dwCharID$ = 8						; size = 4
_dwKEY$ = 12						; size = 4
_dwIPAddr$ = 16						; size = 4
_wPort$ = 20						; size = 2
_dwUserID$ = 24						; size = 4
?SendMW_ADDCHAR_ACK@CTMapSvrModule@@QAEXKKKGK@Z PROC NEAR ; CTMapSvrModule::SendMW_ADDCHAR_ACK, COMDAT
; _this$ = ecx

; 242  : {

  00000	6a ff		 push	 -1
  00002	68 00 00 00 00	 push	 __ehhandler$?SendMW_ADDCHAR_ACK@CTMapSvrModule@@QAEXKKKGK@Z
  00007	64 a1 00 00 00
	00		 mov	 eax, DWORD PTR fs:__except_list
  0000d	50		 push	 eax
  0000e	64 89 25 00 00
	00 00		 mov	 DWORD PTR fs:__except_list, esp
  00015	51		 push	 ecx
  00016	56		 push	 esi
  00017	57		 push	 edi

; 243  : 	CPacket *pMSG = new CPacket();

  00018	6a 1c		 push	 28			; 0000001cH
  0001a	8b f9		 mov	 edi, ecx
  0001c	e8 00 00 00 00	 call	 ??2@YAPAXI@Z		; operator new
  00021	83 c4 04	 add	 esp, 4
  00024	89 44 24 08	 mov	 DWORD PTR $T184691[esp+24], eax
  00028	33 f6		 xor	 esi, esi
  0002a	3b c6		 cmp	 eax, esi
  0002c	89 74 24 14	 mov	 DWORD PTR __$EHRec$[esp+32], esi
  00030	74 09		 je	 SHORT $L184693
  00032	8b c8		 mov	 ecx, eax
  00034	e8 00 00 00 00	 call	 ??0CPacket@@QAE@XZ	; CPacket::CPacket
  00039	8b f0		 mov	 esi, eax
$L184693:

; 244  : 
; 245  : 	pMSG->SetID(MW_ADDCHAR_ACK)
; 246  : 		<< dwCharID
; 247  : 		<< dwKEY
; 248  : 		<< dwIPAddr
; 249  : 		<< wPort
; 250  : 		<< dwUserID;

  0003b	8b 44 24 2c	 mov	 eax, DWORD PTR _dwUserID$[esp+20]
  0003f	8b 4c 24 28	 mov	 ecx, DWORD PTR _wPort$[esp+20]
  00043	8b 54 24 24	 mov	 edx, DWORD PTR _dwIPAddr$[esp+20]
  00047	50		 push	 eax
  00048	8b 44 24 24	 mov	 eax, DWORD PTR _dwKEY$[esp+24]
  0004c	51		 push	 ecx
  0004d	8b 4c 24 24	 mov	 ecx, DWORD PTR _dwCharID$[esp+28]
  00051	52		 push	 edx
  00052	50		 push	 eax
  00053	51		 push	 ecx
  00054	68 02 20 00 00	 push	 8194			; 00002002H
  00059	8b ce		 mov	 ecx, esi
  0005b	c7 44 24 2c ff
	ff ff ff	 mov	 DWORD PTR __$EHRec$[esp+56], -1
  00063	e8 00 00 00 00	 call	 ?SetID@CPacket@@QAEAAV1@G@Z ; CPacket::SetID
  00068	8b c8		 mov	 ecx, eax
  0006a	e8 00 00 00 00	 call	 ??6CPacket@@QAEAAV0@K@Z	; CPacket::operator<<
  0006f	8b c8		 mov	 ecx, eax
  00071	e8 00 00 00 00	 call	 ??6CPacket@@QAEAAV0@K@Z	; CPacket::operator<<
  00076	8b c8		 mov	 ecx, eax
  00078	e8 00 00 00 00	 call	 ??6CPacket@@QAEAAV0@K@Z	; CPacket::operator<<
  0007d	8b c8		 mov	 ecx, eax
  0007f	e8 00 00 00 00	 call	 ??6CPacket@@QAEAAV0@G@Z	; CPacket::operator<<
  00084	8b c8		 mov	 ecx, eax
  00086	e8 00 00 00 00	 call	 ??6CPacket@@QAEAAV0@K@Z	; CPacket::operator<<

; 251  : 
; 252  : 	m_world.Say(pMSG);

  0008b	8b 97 b8 a3 01
	00		 mov	 edx, DWORD PTR [edi+107448]
  00091	8d 8f b8 a3 01
	00		 lea	 ecx, DWORD PTR [edi+107448]
  00097	56		 push	 esi
  00098	ff 12		 call	 DWORD PTR [edx]

; 253  : }

  0009a	8b 4c 24 0c	 mov	 ecx, DWORD PTR __$EHRec$[esp+24]
  0009e	5f		 pop	 edi
  0009f	5e		 pop	 esi
  000a0	64 89 0d 00 00
	00 00		 mov	 DWORD PTR fs:__except_list, ecx
  000a7	83 c4 10	 add	 esp, 16			; 00000010H
  000aa	c2 14 00	 ret	 20			; 00000014H
_TEXT	ENDS
;	COMDAT text$x
text$x	SEGMENT
$L184694:
  00000	8b 45 f0	 mov	 eax, DWORD PTR $T184691[ebp]
  00003	50		 push	 eax
  00004	e8 00 00 00 00	 call	 ??3@YAXPAX@Z		; operator delete
  00009	59		 pop	 ecx
  0000a	c3		 ret	 0
__ehhandler$?SendMW_ADDCHAR_ACK@CTMapSvrModule@@QAEXKKKGK@Z:
  0000b	b8 00 00 00 00	 mov	 eax, OFFSET FLAT:$T184696
  00010	e9 00 00 00 00	 jmp	 ___CxxFrameHandler
text$x	ENDS
?SendMW_ADDCHAR_ACK@CTMapSvrModule@@QAEXKKKGK@Z ENDP	; CTMapSvrModule::SendMW_ADDCHAR_ACK
PUBLIC	?InterlockedExchangePointer@@YGPAXPAPAXPAX@Z	; InterlockedExchangePointer
EXTRN	__imp__InterlockedExchange@8:NEAR
; Function compile flags: /Ogty
; File c:\program files (x86)\microsoft visual studio .net 2003\vc7\atlmfc\include\atlconv.h
;	COMDAT ?InterlockedExchangePointer@@YGPAXPAPAXPAX@Z
_TEXT	SEGMENT
_pp$ = 8						; size = 4
_pNew$ = 12						; size = 4
?InterlockedExchangePointer@@YGPAXPAPAXPAX@Z PROC NEAR	; InterlockedExchangePointer, COMDAT

; 92   : 	return( reinterpret_cast<void*>(static_cast<LONG_PTR>(::InterlockedExchange(reinterpret_cast<LONG*>(pp), static_cast<LONG>(reinterpret_cast<LONG_PTR>(pNew))))) );

  00000	ff 25 00 00 00
	00		 jmp	 DWORD PTR __imp__InterlockedExchange@8
?InterlockedExchangePointer@@YGPAXPAPAXPAX@Z ENDP	; InterlockedExchangePointer
_TEXT	ENDS
PUBLIC	?_AtlGetThreadACPFake@ATL@@YGIXZ		; ATL::_AtlGetThreadACPFake
EXTRN	__imp__GetACP@0:NEAR
EXTRN	__imp__GetLocaleInfoA@16:NEAR
EXTRN	___security_cookie:DWORD
EXTRN	@__security_check_cookie@4:NEAR
EXTRN	__imp__GetThreadLocale@0:NEAR
; Function compile flags: /Ogty
;	COMDAT ?_AtlGetThreadACPFake@ATL@@YGIXZ
_TEXT	SEGMENT
_szACP$ = -12						; size = 7
__$ArrayPad$ = -4					; size = 4
__$ReturnAddr$ = 4					; size = 4
?_AtlGetThreadACPFake@ATL@@YGIXZ PROC NEAR		; ATL::_AtlGetThreadACPFake, COMDAT

; 101  : {

  00000	83 ec 0c	 sub	 esp, 12			; 0000000cH
  00003	a1 00 00 00 00	 mov	 eax, DWORD PTR ___security_cookie
  00008	56		 push	 esi
  00009	89 44 24 0c	 mov	 DWORD PTR __$ArrayPad$[esp+16], eax

; 102  : 	UINT nACP = 0;

  0000d	33 f6		 xor	 esi, esi

; 103  : 
; 104  : 	LCID lcidThread = ::GetThreadLocale();

  0000f	ff 15 00 00 00
	00		 call	 DWORD PTR __imp__GetThreadLocale@0

; 105  : 
; 106  : 	char szACP[7];
; 107  : 	// GetLocaleInfoA will fail for a Unicode-only LCID, but those are only supported on 
; 108  : 	// Windows 2000.  Since Windows 2000 supports CP_THREAD_ACP, this code path is never
; 109  : 	// executed on Windows 2000.
; 110  : 	if (::GetLocaleInfoA(lcidThread, LOCALE_IDEFAULTANSICODEPAGE, szACP, 7) != 0)

  00015	6a 07		 push	 7
  00017	8d 4c 24 08	 lea	 ecx, DWORD PTR _szACP$[esp+20]
  0001b	51		 push	 ecx
  0001c	68 04 10 00 00	 push	 4100			; 00001004H
  00021	50		 push	 eax
  00022	ff 15 00 00 00
	00		 call	 DWORD PTR __imp__GetLocaleInfoA@16
  00028	85 c0		 test	 eax, eax
  0002a	74 21		 je	 SHORT $L184711

; 111  : 	{
; 112  : 		char* pch = szACP;
; 113  : 		while (*pch != '\0')

  0002c	8a 44 24 04	 mov	 al, BYTE PTR _szACP$[esp+16]
  00030	84 c0		 test	 al, al
  00032	8d 4c 24 04	 lea	 ecx, DWORD PTR _szACP$[esp+16]
  00036	74 15		 je	 SHORT $L184711
$L58550:

; 114  : 		{
; 115  : 			nACP *= 10;
; 116  : 			nACP += *pch++ - '0';

  00038	0f be c0	 movsx	 eax, al
  0003b	8d 14 b6	 lea	 edx, DWORD PTR [esi+esi*4]
  0003e	41		 inc	 ecx
  0003f	8d 74 50 d0	 lea	 esi, DWORD PTR [eax+edx*2-48]
  00043	8a 01		 mov	 al, BYTE PTR [ecx]
  00045	84 c0		 test	 al, al
  00047	75 ef		 jne	 SHORT $L58550

; 117  : 		}
; 118  : 	}
; 119  : 	// Use the Default ANSI Code Page if we were unable to get the thread ACP or if one does not exist.
; 120  : 	if (nACP == 0)

  00049	85 f6		 test	 esi, esi
  0004b	75 14		 jne	 SHORT $L184712
$L184711:

; 121  : 		nACP = ::GetACP();

  0004d	ff 15 00 00 00
	00		 call	 DWORD PTR __imp__GetACP@0
  00053	5e		 pop	 esi

; 122  : 
; 123  : 	return nACP;
; 124  : }

  00054	8b 4c 24 08	 mov	 ecx, DWORD PTR __$ArrayPad$[esp+12]
  00058	e8 00 00 00 00	 call	 @__security_check_cookie@4
  0005d	83 c4 0c	 add	 esp, 12			; 0000000cH
  00060	c3		 ret	 0
$L184712:
  00061	8b 4c 24 0c	 mov	 ecx, DWORD PTR __$ArrayPad$[esp+16]
  00065	8b c6		 mov	 eax, esi
  00067	5e		 pop	 esi
  00068	e8 00 00 00 00	 call	 @__security_check_cookie@4
  0006d	83 c4 0c	 add	 esp, 12			; 0000000cH
  00070	c3		 ret	 0
?_AtlGetThreadACPFake@ATL@@YGIXZ ENDP			; ATL::_AtlGetThreadACPFake
_TEXT	ENDS
PUBLIC	?_AtlGetThreadACPReal@ATL@@YGIXZ		; ATL::_AtlGetThreadACPReal
; Function compile flags: /Ogty
;	COMDAT ?_AtlGetThreadACPReal@ATL@@YGIXZ
_TEXT	SEGMENT
?_AtlGetThreadACPReal@ATL@@YGIXZ PROC NEAR		; ATL::_AtlGetThreadACPReal, COMDAT

; 128  : 	return( CP_THREAD_ACP );

  00000	b8 03 00 00 00	 mov	 eax, 3

; 129  : }

  00005	c3		 ret	 0
?_AtlGetThreadACPReal@ATL@@YGIXZ ENDP			; ATL::_AtlGetThreadACPReal
_TEXT	ENDS
EXTRN	__imp__GetVersionExA@4:NEAR
; Function compile flags: /Ogty
;	COMDAT ?_AtlGetThreadACPThunk@ATL@@YGIXZ
_TEXT	SEGMENT
_ver$ = -152						; size = 148
__$ArrayPad$ = -4					; size = 4
__$ReturnAddr$ = 4					; size = 4
?_AtlGetThreadACPThunk@ATL@@YGIXZ PROC NEAR		; ATL::_AtlGetThreadACPThunk, COMDAT

; 134  : {

  00000	81 ec 98 00 00
	00		 sub	 esp, 152		; 00000098H
  00006	a1 00 00 00 00	 mov	 eax, DWORD PTR ___security_cookie
  0000b	89 84 24 94 00
	00 00		 mov	 DWORD PTR __$ArrayPad$[esp+152], eax

; 135  : 	OSVERSIONINFO ver;
; 136  : 	ATLGETTHREADACP pfnGetThreadACP;
; 137  : 
; 138  : 	ver.dwOSVersionInfoSize = sizeof( ver );
; 139  : 	::GetVersionEx( &ver );

  00012	8d 04 24	 lea	 eax, DWORD PTR _ver$[esp+152]
  00015	50		 push	 eax
  00016	c7 44 24 04 94
	00 00 00	 mov	 DWORD PTR _ver$[esp+156], 148 ; 00000094H
  0001e	ff 15 00 00 00
	00		 call	 DWORD PTR __imp__GetVersionExA@4

; 140  : 	if( (ver.dwPlatformId == VER_PLATFORM_WIN32_NT) && (ver.dwMajorVersion >= 5) )

  00024	83 7c 24 10 02	 cmp	 DWORD PTR _ver$[esp+168], 2
  00029	75 0c		 jne	 SHORT $L58560
  0002b	83 7c 24 04 05	 cmp	 DWORD PTR _ver$[esp+156], 5

; 141  : 	{
; 142  : 		// On Win2K, CP_THREAD_ACP is supported
; 143  : 		pfnGetThreadACP = _AtlGetThreadACPReal;

  00030	b8 00 00 00 00	 mov	 eax, OFFSET FLAT:?_AtlGetThreadACPReal@ATL@@YGIXZ ; ATL::_AtlGetThreadACPReal
  00035	73 05		 jae	 SHORT $L58561
$L58560:

; 144  : 	}
; 145  : 	else
; 146  : 	{
; 147  : 		pfnGetThreadACP = _AtlGetThreadACPFake;

  00037	b8 00 00 00 00	 mov	 eax, OFFSET FLAT:?_AtlGetThreadACPFake@ATL@@YGIXZ ; ATL::_AtlGetThreadACPFake
$L58561:

; 148  : 	}
; 149  : 	InterlockedExchangePointer( reinterpret_cast< void** >(&g_pfnGetThreadACP), pfnGetThreadACP );

  0003c	50		 push	 eax
  0003d	68 00 00 00 00	 push	 OFFSET FLAT:?g_pfnGetThreadACP@ATL@@3P6GIXZA ; ATL::g_pfnGetThreadACP
  00042	ff 15 00 00 00
	00		 call	 DWORD PTR __imp__InterlockedExchange@8

; 150  : 
; 151  : 	return( g_pfnGetThreadACP() );

  00048	ff 15 00 00 00
	00		 call	 DWORD PTR ?g_pfnGetThreadACP@ATL@@3P6GIXZA ; ATL::g_pfnGetThreadACP

; 152  : }

  0004e	8b 8c 24 94 00
	00 00		 mov	 ecx, DWORD PTR __$ArrayPad$[esp+152]
  00055	e8 00 00 00 00	 call	 @__security_check_cookie@4
  0005a	81 c4 98 00 00
	00		 add	 esp, 152		; 00000098H
  00060	c3		 ret	 0
?_AtlGetThreadACPThunk@ATL@@YGIXZ ENDP			; ATL::_AtlGetThreadACPThunk
_TEXT	ENDS
PUBLIC	?SendMW_TELEPORT_ACK@CTMapSvrModule@@QAEXKKE@Z	; CTMapSvrModule::SendMW_TELEPORT_ACK
EXTRN	??6CPacket@@QAEAAV0@E@Z:NEAR			; CPacket::operator<<
;	COMDAT xdata$x
; File c:\users\pierr\desktop\4story - oldschool\sources\tserver\tmapsvr\sssender.cpp
xdata$x	SEGMENT
$T184738 DD	0ffffffffH
	DD	FLAT:$L184734
$T184736 DD	019930520H
	DD	01H
	DD	FLAT:$T184738
	DD	2 DUP(00H)
	DD	2 DUP(00H)
; Function compile flags: /Ogty
xdata$x	ENDS
;	COMDAT ?SendMW_TELEPORT_ACK@CTMapSvrModule@@QAEXKKE@Z
_TEXT	SEGMENT
$T184731 = -16						; size = 4
__$EHRec$ = -12						; size = 12
_dwCharID$ = 8						; size = 4
_dwKEY$ = 12						; size = 4
_bServerID$ = 16					; size = 1
?SendMW_TELEPORT_ACK@CTMapSvrModule@@QAEXKKE@Z PROC NEAR ; CTMapSvrModule::SendMW_TELEPORT_ACK, COMDAT
; _this$ = ecx

; 422  : {

  00000	6a ff		 push	 -1
  00002	68 00 00 00 00	 push	 __ehhandler$?SendMW_TELEPORT_ACK@CTMapSvrModule@@QAEXKKE@Z
  00007	64 a1 00 00 00
	00		 mov	 eax, DWORD PTR fs:__except_list
  0000d	50		 push	 eax
  0000e	64 89 25 00 00
	00 00		 mov	 DWORD PTR fs:__except_list, esp
  00015	51		 push	 ecx
  00016	56		 push	 esi
  00017	57		 push	 edi

; 423  : 	CPacket *pMSG = new CPacket();

  00018	6a 1c		 push	 28			; 0000001cH
  0001a	8b f9		 mov	 edi, ecx
  0001c	e8 00 00 00 00	 call	 ??2@YAPAXI@Z		; operator new
  00021	83 c4 04	 add	 esp, 4
  00024	89 44 24 08	 mov	 DWORD PTR $T184731[esp+24], eax
  00028	33 f6		 xor	 esi, esi
  0002a	3b c6		 cmp	 eax, esi
  0002c	89 74 24 14	 mov	 DWORD PTR __$EHRec$[esp+32], esi
  00030	74 09		 je	 SHORT $L184733
  00032	8b c8		 mov	 ecx, eax
  00034	e8 00 00 00 00	 call	 ??0CPacket@@QAE@XZ	; CPacket::CPacket
  00039	8b f0		 mov	 esi, eax
$L184733:

; 424  : 
; 425  : 	pMSG->SetID(MW_TELEPORT_ACK)
; 426  : 		<< dwCharID
; 427  : 		<< dwKEY
; 428  : 		<< bServerID;

  0003b	8b 44 24 24	 mov	 eax, DWORD PTR _bServerID$[esp+20]
  0003f	8b 4c 24 20	 mov	 ecx, DWORD PTR _dwKEY$[esp+20]
  00043	8b 54 24 1c	 mov	 edx, DWORD PTR _dwCharID$[esp+20]
  00047	50		 push	 eax
  00048	51		 push	 ecx
  00049	52		 push	 edx
  0004a	68 be 20 00 00	 push	 8382			; 000020beH
  0004f	8b ce		 mov	 ecx, esi
  00051	c7 44 24 24 ff
	ff ff ff	 mov	 DWORD PTR __$EHRec$[esp+48], -1
  00059	e8 00 00 00 00	 call	 ?SetID@CPacket@@QAEAAV1@G@Z ; CPacket::SetID
  0005e	8b c8		 mov	 ecx, eax
  00060	e8 00 00 00 00	 call	 ??6CPacket@@QAEAAV0@K@Z	; CPacket::operator<<
  00065	8b c8		 mov	 ecx, eax
  00067	e8 00 00 00 00	 call	 ??6CPacket@@QAEAAV0@K@Z	; CPacket::operator<<
  0006c	8b c8		 mov	 ecx, eax
  0006e	e8 00 00 00 00	 call	 ??6CPacket@@QAEAAV0@E@Z	; CPacket::operator<<

; 429  : 
; 430  : 	m_world.Say(pMSG);

  00073	8b 87 b8 a3 01
	00		 mov	 eax, DWORD PTR [edi+107448]
  00079	8d 8f b8 a3 01
	00		 lea	 ecx, DWORD PTR [edi+107448]
  0007f	56		 push	 esi
  00080	ff 10		 call	 DWORD PTR [eax]

; 431  : }

  00082	8b 4c 24 0c	 mov	 ecx, DWORD PTR __$EHRec$[esp+24]
  00086	5f		 pop	 edi
  00087	5e		 pop	 esi
  00088	64 89 0d 00 00
	00 00		 mov	 DWORD PTR fs:__except_list, ecx
  0008f	83 c4 10	 add	 esp, 16			; 00000010H
  00092	c2 0c 00	 ret	 12			; 0000000cH
_TEXT	ENDS
;	COMDAT text$x
text$x	SEGMENT
$L184734:
  00000	8b 45 f0	 mov	 eax, DWORD PTR $T184731[ebp]
  00003	50		 push	 eax
  00004	e8 00 00 00 00	 call	 ??3@YAXPAX@Z		; operator delete
  00009	59		 pop	 ecx
  0000a	c3		 ret	 0
__ehhandler$?SendMW_TELEPORT_ACK@CTMapSvrModule@@QAEXKKE@Z:
  0000b	b8 00 00 00 00	 mov	 eax, OFFSET FLAT:$T184736
  00010	e9 00 00 00 00	 jmp	 ___CxxFrameHandler
text$x	ENDS
?SendMW_TELEPORT_ACK@CTMapSvrModule@@QAEXKKE@Z ENDP	; CTMapSvrModule::SendMW_TELEPORT_ACK
PUBLIC	?SendMW_RECALLMONDEL_ACK@CTMapSvrModule@@QAEXKKK@Z ; CTMapSvrModule::SendMW_RECALLMONDEL_ACK
;	COMDAT xdata$x
xdata$x	SEGMENT
$T184752 DD	0ffffffffH
	DD	FLAT:$L184748
$T184750 DD	019930520H
	DD	01H
	DD	FLAT:$T184752
	DD	2 DUP(00H)
	DD	2 DUP(00H)
; Function compile flags: /Ogty
xdata$x	ENDS
;	COMDAT ?SendMW_RECALLMONDEL_ACK@CTMapSvrModule@@QAEXKKK@Z
_TEXT	SEGMENT
$T184745 = -16						; size = 4
__$EHRec$ = -12						; size = 12
_dwCharID$ = 8						; size = 4
_dwKey$ = 12						; size = 4
_dwMonID$ = 16						; size = 4
?SendMW_RECALLMONDEL_ACK@CTMapSvrModule@@QAEXKKK@Z PROC NEAR ; CTMapSvrModule::SendMW_RECALLMONDEL_ACK, COMDAT
; _this$ = ecx

; 613  : {

  00000	6a ff		 push	 -1
  00002	68 00 00 00 00	 push	 __ehhandler$?SendMW_RECALLMONDEL_ACK@CTMapSvrModule@@QAEXKKK@Z
  00007	64 a1 00 00 00
	00		 mov	 eax, DWORD PTR fs:__except_list
  0000d	50		 push	 eax
  0000e	64 89 25 00 00
	00 00		 mov	 DWORD PTR fs:__except_list, esp
  00015	51		 push	 ecx
  00016	56		 push	 esi
  00017	57		 push	 edi

; 614  : 	CPacket * pMSG = new CPacket();

  00018	6a 1c		 push	 28			; 0000001cH
  0001a	8b f9		 mov	 edi, ecx
  0001c	e8 00 00 00 00	 call	 ??2@YAPAXI@Z		; operator new
  00021	83 c4 04	 add	 esp, 4
  00024	89 44 24 08	 mov	 DWORD PTR $T184745[esp+24], eax
  00028	33 f6		 xor	 esi, esi
  0002a	3b c6		 cmp	 eax, esi
  0002c	89 74 24 14	 mov	 DWORD PTR __$EHRec$[esp+32], esi
  00030	74 09		 je	 SHORT $L184747
  00032	8b c8		 mov	 ecx, eax
  00034	e8 00 00 00 00	 call	 ??0CPacket@@QAE@XZ	; CPacket::CPacket
  00039	8b f0		 mov	 esi, eax
$L184747:

; 615  : 
; 616  : 	pMSG->SetID(MW_RECALLMONDEL_ACK)
; 617  : 		<< dwCharID
; 618  : 		<< dwKey
; 619  : 		<< dwMonID;

  0003b	8b 44 24 24	 mov	 eax, DWORD PTR _dwMonID$[esp+20]
  0003f	8b 4c 24 20	 mov	 ecx, DWORD PTR _dwKey$[esp+20]
  00043	8b 54 24 1c	 mov	 edx, DWORD PTR _dwCharID$[esp+20]
  00047	50		 push	 eax
  00048	51		 push	 ecx
  00049	52		 push	 edx
  0004a	68 bb 20 00 00	 push	 8379			; 000020bbH
  0004f	8b ce		 mov	 ecx, esi
  00051	c7 44 24 24 ff
	ff ff ff	 mov	 DWORD PTR __$EHRec$[esp+48], -1
  00059	e8 00 00 00 00	 call	 ?SetID@CPacket@@QAEAAV1@G@Z ; CPacket::SetID
  0005e	8b c8		 mov	 ecx, eax
  00060	e8 00 00 00 00	 call	 ??6CPacket@@QAEAAV0@K@Z	; CPacket::operator<<
  00065	8b c8		 mov	 ecx, eax
  00067	e8 00 00 00 00	 call	 ??6CPacket@@QAEAAV0@K@Z	; CPacket::operator<<
  0006c	8b c8		 mov	 ecx, eax
  0006e	e8 00 00 00 00	 call	 ??6CPacket@@QAEAAV0@K@Z	; CPacket::operator<<

; 620  : 
; 621  : 	m_world.Say(pMSG);

  00073	8b 87 b8 a3 01
	00		 mov	 eax, DWORD PTR [edi+107448]
  00079	8d 8f b8 a3 01
	00		 lea	 ecx, DWORD PTR [edi+107448]
  0007f	56		 push	 esi
  00080	ff 10		 call	 DWORD PTR [eax]

; 622  : }

  00082	8b 4c 24 0c	 mov	 ecx, DWORD PTR __$EHRec$[esp+24]
  00086	5f		 pop	 edi
  00087	5e		 pop	 esi
  00088	64 89 0d 00 00
	00 00		 mov	 DWORD PTR fs:__except_list, ecx
  0008f	83 c4 10	 add	 esp, 16			; 00000010H
  00092	c2 0c 00	 ret	 12			; 0000000cH
_TEXT	ENDS
;	COMDAT text$x
text$x	SEGMENT
$L184748:
  00000	8b 45 f0	 mov	 eax, DWORD PTR $T184745[ebp]
  00003	50		 push	 eax
  00004	e8 00 00 00 00	 call	 ??3@YAXPAX@Z		; operator delete
  00009	59		 pop	 ecx
  0000a	c3		 ret	 0
__ehhandler$?SendMW_RECALLMONDEL_ACK@CTMapSvrModule@@QAEXKKK@Z:
  0000b	b8 00 00 00 00	 mov	 eax, OFFSET FLAT:$T184750
  00010	e9 00 00 00 00	 jmp	 ___CxxFrameHandler
text$x	ENDS
?SendMW_RECALLMONDEL_ACK@CTMapSvrModule@@QAEXKKK@Z ENDP	; CTMapSvrModule::SendMW_RECALLMONDEL_ACK
PUBLIC	?SendMW_ENTERCHAR_ACK@CTMapSvrModule@@QAEXKK@Z	; CTMapSvrModule::SendMW_ENTERCHAR_ACK
;	COMDAT xdata$x
xdata$x	SEGMENT
$T184766 DD	0ffffffffH
	DD	FLAT:$L184762
$T184764 DD	019930520H
	DD	01H
	DD	FLAT:$T184766
	DD	2 DUP(00H)
	DD	2 DUP(00H)
; Function compile flags: /Ogty
xdata$x	ENDS
;	COMDAT ?SendMW_ENTERCHAR_ACK@CTMapSvrModule@@QAEXKK@Z
_TEXT	SEGMENT
$T184759 = -16						; size = 4
__$EHRec$ = -12						; size = 12
_dwCharID$ = 8						; size = 4
_dwKEY$ = 12						; size = 4
?SendMW_ENTERCHAR_ACK@CTMapSvrModule@@QAEXKK@Z PROC NEAR ; CTMapSvrModule::SendMW_ENTERCHAR_ACK, COMDAT
; _this$ = ecx

; 626  : {

  00000	6a ff		 push	 -1
  00002	68 00 00 00 00	 push	 __ehhandler$?SendMW_ENTERCHAR_ACK@CTMapSvrModule@@QAEXKK@Z
  00007	64 a1 00 00 00
	00		 mov	 eax, DWORD PTR fs:__except_list
  0000d	50		 push	 eax
  0000e	64 89 25 00 00
	00 00		 mov	 DWORD PTR fs:__except_list, esp
  00015	51		 push	 ecx
  00016	56		 push	 esi
  00017	57		 push	 edi

; 627  : 	CPacket *pMSG = new CPacket();

  00018	6a 1c		 push	 28			; 0000001cH
  0001a	8b f9		 mov	 edi, ecx
  0001c	e8 00 00 00 00	 call	 ??2@YAPAXI@Z		; operator new
  00021	83 c4 04	 add	 esp, 4
  00024	89 44 24 08	 mov	 DWORD PTR $T184759[esp+24], eax
  00028	33 f6		 xor	 esi, esi
  0002a	3b c6		 cmp	 eax, esi
  0002c	89 74 24 14	 mov	 DWORD PTR __$EHRec$[esp+32], esi
  00030	74 09		 je	 SHORT $L184761
  00032	8b c8		 mov	 ecx, eax
  00034	e8 00 00 00 00	 call	 ??0CPacket@@QAE@XZ	; CPacket::CPacket
  00039	8b f0		 mov	 esi, eax
$L184761:

; 628  : 
; 629  : 	pMSG->SetID(MW_ENTERCHAR_ACK)
; 630  : 		<< dwCharID
; 631  : 		<< dwKEY;

  0003b	8b 44 24 20	 mov	 eax, DWORD PTR _dwKEY$[esp+20]
  0003f	8b 4c 24 1c	 mov	 ecx, DWORD PTR _dwCharID$[esp+20]
  00043	50		 push	 eax
  00044	51		 push	 ecx
  00045	68 06 20 00 00	 push	 8198			; 00002006H
  0004a	8b ce		 mov	 ecx, esi
  0004c	c7 44 24 20 ff
	ff ff ff	 mov	 DWORD PTR __$EHRec$[esp+44], -1
  00054	e8 00 00 00 00	 call	 ?SetID@CPacket@@QAEAAV1@G@Z ; CPacket::SetID
  00059	8b c8		 mov	 ecx, eax
  0005b	e8 00 00 00 00	 call	 ??6CPacket@@QAEAAV0@K@Z	; CPacket::operator<<
  00060	8b c8		 mov	 ecx, eax
  00062	e8 00 00 00 00	 call	 ??6CPacket@@QAEAAV0@K@Z	; CPacket::operator<<

; 632  : 
; 633  : 	m_world.Say(pMSG);

  00067	8b 97 b8 a3 01
	00		 mov	 edx, DWORD PTR [edi+107448]
  0006d	8d 8f b8 a3 01
	00		 lea	 ecx, DWORD PTR [edi+107448]
  00073	56		 push	 esi
  00074	ff 12		 call	 DWORD PTR [edx]

; 634  : }

  00076	8b 4c 24 0c	 mov	 ecx, DWORD PTR __$EHRec$[esp+24]
  0007a	5f		 pop	 edi
  0007b	5e		 pop	 esi
  0007c	64 89 0d 00 00
	00 00		 mov	 DWORD PTR fs:__except_list, ecx
  00083	83 c4 10	 add	 esp, 16			; 00000010H
  00086	c2 08 00	 ret	 8
_TEXT	ENDS
;	COMDAT text$x
text$x	SEGMENT
$L184762:
  00000	8b 45 f0	 mov	 eax, DWORD PTR $T184759[ebp]
  00003	50		 push	 eax
  00004	e8 00 00 00 00	 call	 ??3@YAXPAX@Z		; operator delete
  00009	59		 pop	 ecx
  0000a	c3		 ret	 0
__ehhandler$?SendMW_ENTERCHAR_ACK@CTMapSvrModule@@QAEXKK@Z:
  0000b	b8 00 00 00 00	 mov	 eax, OFFSET FLAT:$T184764
  00010	e9 00 00 00 00	 jmp	 ___CxxFrameHandler
text$x	ENDS
?SendMW_ENTERCHAR_ACK@CTMapSvrModule@@QAEXKK@Z ENDP	; CTMapSvrModule::SendMW_ENTERCHAR_ACK
PUBLIC	?SendMW_CHECKMAIN_ACK@CTMapSvrModule@@QAEXKK@Z	; CTMapSvrModule::SendMW_CHECKMAIN_ACK
;	COMDAT xdata$x
xdata$x	SEGMENT
$T184780 DD	0ffffffffH
	DD	FLAT:$L184776
$T184778 DD	019930520H
	DD	01H
	DD	FLAT:$T184780
	DD	2 DUP(00H)
	DD	2 DUP(00H)
; Function compile flags: /Ogty
xdata$x	ENDS
;	COMDAT ?SendMW_CHECKMAIN_ACK@CTMapSvrModule@@QAEXKK@Z
_TEXT	SEGMENT
$T184773 = -16						; size = 4
__$EHRec$ = -12						; size = 12
_dwCharID$ = 8						; size = 4
_dwKEY$ = 12						; size = 4
?SendMW_CHECKMAIN_ACK@CTMapSvrModule@@QAEXKK@Z PROC NEAR ; CTMapSvrModule::SendMW_CHECKMAIN_ACK, COMDAT
; _this$ = ecx

; 638  : {

  00000	6a ff		 push	 -1
  00002	68 00 00 00 00	 push	 __ehhandler$?SendMW_CHECKMAIN_ACK@CTMapSvrModule@@QAEXKK@Z
  00007	64 a1 00 00 00
	00		 mov	 eax, DWORD PTR fs:__except_list
  0000d	50		 push	 eax
  0000e	64 89 25 00 00
	00 00		 mov	 DWORD PTR fs:__except_list, esp
  00015	51		 push	 ecx
  00016	56		 push	 esi
  00017	57		 push	 edi

; 639  : 	CPacket *pMSG = new CPacket();

  00018	6a 1c		 push	 28			; 0000001cH
  0001a	8b f9		 mov	 edi, ecx
  0001c	e8 00 00 00 00	 call	 ??2@YAPAXI@Z		; operator new
  00021	83 c4 04	 add	 esp, 4
  00024	89 44 24 08	 mov	 DWORD PTR $T184773[esp+24], eax
  00028	33 f6		 xor	 esi, esi
  0002a	3b c6		 cmp	 eax, esi
  0002c	89 74 24 14	 mov	 DWORD PTR __$EHRec$[esp+32], esi
  00030	74 09		 je	 SHORT $L184775
  00032	8b c8		 mov	 ecx, eax
  00034	e8 00 00 00 00	 call	 ??0CPacket@@QAE@XZ	; CPacket::CPacket
  00039	8b f0		 mov	 esi, eax
$L184775:

; 640  : 
; 641  : 	pMSG->SetID(MW_CHECKMAIN_ACK)
; 642  : 		<< dwCharID
; 643  : 		<< dwKEY;

  0003b	8b 44 24 20	 mov	 eax, DWORD PTR _dwKEY$[esp+20]
  0003f	8b 4c 24 1c	 mov	 ecx, DWORD PTR _dwCharID$[esp+20]
  00043	50		 push	 eax
  00044	51		 push	 ecx
  00045	68 c5 20 00 00	 push	 8389			; 000020c5H
  0004a	8b ce		 mov	 ecx, esi
  0004c	c7 44 24 20 ff
	ff ff ff	 mov	 DWORD PTR __$EHRec$[esp+44], -1
  00054	e8 00 00 00 00	 call	 ?SetID@CPacket@@QAEAAV1@G@Z ; CPacket::SetID
  00059	8b c8		 mov	 ecx, eax
  0005b	e8 00 00 00 00	 call	 ??6CPacket@@QAEAAV0@K@Z	; CPacket::operator<<
  00060	8b c8		 mov	 ecx, eax
  00062	e8 00 00 00 00	 call	 ??6CPacket@@QAEAAV0@K@Z	; CPacket::operator<<

; 644  : 
; 645  : 	m_world.Say(pMSG);

  00067	8b 97 b8 a3 01
	00		 mov	 edx, DWORD PTR [edi+107448]
  0006d	8d 8f b8 a3 01
	00		 lea	 ecx, DWORD PTR [edi+107448]
  00073	56		 push	 esi
  00074	ff 12		 call	 DWORD PTR [edx]

; 646  : }

  00076	8b 4c 24 0c	 mov	 ecx, DWORD PTR __$EHRec$[esp+24]
  0007a	5f		 pop	 edi
  0007b	5e		 pop	 esi
  0007c	64 89 0d 00 00
	00 00		 mov	 DWORD PTR fs:__except_list, ecx
  00083	83 c4 10	 add	 esp, 16			; 00000010H
  00086	c2 08 00	 ret	 8
_TEXT	ENDS
;	COMDAT text$x
text$x	SEGMENT
$L184776:
  00000	8b 45 f0	 mov	 eax, DWORD PTR $T184773[ebp]
  00003	50		 push	 eax
  00004	e8 00 00 00 00	 call	 ??3@YAXPAX@Z		; operator delete
  00009	59		 pop	 ecx
  0000a	c3		 ret	 0
__ehhandler$?SendMW_CHECKMAIN_ACK@CTMapSvrModule@@QAEXKK@Z:
  0000b	b8 00 00 00 00	 mov	 eax, OFFSET FLAT:$T184778
  00010	e9 00 00 00 00	 jmp	 ___CxxFrameHandler
text$x	ENDS
?SendMW_CHECKMAIN_ACK@CTMapSvrModule@@QAEXKK@Z ENDP	; CTMapSvrModule::SendMW_CHECKMAIN_ACK
PUBLIC	?SendMW_CHGPARTYCHIEF_ACK@CTMapSvrModule@@QAEXKKK@Z ; CTMapSvrModule::SendMW_CHGPARTYCHIEF_ACK
;	COMDAT xdata$x
xdata$x	SEGMENT
$T184794 DD	0ffffffffH
	DD	FLAT:$L184790
$T184792 DD	019930520H
	DD	01H
	DD	FLAT:$T184794
	DD	2 DUP(00H)
	DD	2 DUP(00H)
; Function compile flags: /Ogty
xdata$x	ENDS
;	COMDAT ?SendMW_CHGPARTYCHIEF_ACK@CTMapSvrModule@@QAEXKKK@Z
_TEXT	SEGMENT
$T184787 = -16						; size = 4
__$EHRec$ = -12						; size = 12
_dwChiefID$ = 8						; size = 4
_dwKEY$ = 12						; size = 4
_dwTargetID$ = 16					; size = 4
?SendMW_CHGPARTYCHIEF_ACK@CTMapSvrModule@@QAEXKKK@Z PROC NEAR ; CTMapSvrModule::SendMW_CHGPARTYCHIEF_ACK, COMDAT
; _this$ = ecx

; 2151 : {

  00000	6a ff		 push	 -1
  00002	68 00 00 00 00	 push	 __ehhandler$?SendMW_CHGPARTYCHIEF_ACK@CTMapSvrModule@@QAEXKKK@Z
  00007	64 a1 00 00 00
	00		 mov	 eax, DWORD PTR fs:__except_list
  0000d	50		 push	 eax
  0000e	64 89 25 00 00
	00 00		 mov	 DWORD PTR fs:__except_list, esp
  00015	51		 push	 ecx
  00016	56		 push	 esi
  00017	57		 push	 edi

; 2152 : 	CPacket *pMSG = new CPacket();

  00018	6a 1c		 push	 28			; 0000001cH
  0001a	8b f9		 mov	 edi, ecx
  0001c	e8 00 00 00 00	 call	 ??2@YAPAXI@Z		; operator new
  00021	83 c4 04	 add	 esp, 4
  00024	89 44 24 08	 mov	 DWORD PTR $T184787[esp+24], eax
  00028	33 f6		 xor	 esi, esi
  0002a	3b c6		 cmp	 eax, esi
  0002c	89 74 24 14	 mov	 DWORD PTR __$EHRec$[esp+32], esi
  00030	74 09		 je	 SHORT $L184789
  00032	8b c8		 mov	 ecx, eax
  00034	e8 00 00 00 00	 call	 ??0CPacket@@QAE@XZ	; CPacket::CPacket
  00039	8b f0		 mov	 esi, eax
$L184789:

; 2153 : 
; 2154 : 	pMSG->SetID(MW_CHGPARTYCHIEF_ACK)
; 2155 : 		<< dwChiefID
; 2156 : 		<< dwKEY
; 2157 : 		<< dwTargetID;

  0003b	8b 44 24 24	 mov	 eax, DWORD PTR _dwTargetID$[esp+20]
  0003f	8b 4c 24 20	 mov	 ecx, DWORD PTR _dwKEY$[esp+20]
  00043	8b 54 24 1c	 mov	 edx, DWORD PTR _dwChiefID$[esp+20]
  00047	50		 push	 eax
  00048	51		 push	 ecx
  00049	52		 push	 edx
  0004a	68 a1 20 00 00	 push	 8353			; 000020a1H
  0004f	8b ce		 mov	 ecx, esi
  00051	c7 44 24 24 ff
	ff ff ff	 mov	 DWORD PTR __$EHRec$[esp+48], -1
  00059	e8 00 00 00 00	 call	 ?SetID@CPacket@@QAEAAV1@G@Z ; CPacket::SetID
  0005e	8b c8		 mov	 ecx, eax
  00060	e8 00 00 00 00	 call	 ??6CPacket@@QAEAAV0@K@Z	; CPacket::operator<<
  00065	8b c8		 mov	 ecx, eax
  00067	e8 00 00 00 00	 call	 ??6CPacket@@QAEAAV0@K@Z	; CPacket::operator<<
  0006c	8b c8		 mov	 ecx, eax
  0006e	e8 00 00 00 00	 call	 ??6CPacket@@QAEAAV0@K@Z	; CPacket::operator<<

; 2158 : 
; 2159 : 	m_world.Say(pMSG);

  00073	8b 87 b8 a3 01
	00		 mov	 eax, DWORD PTR [edi+107448]
  00079	8d 8f b8 a3 01
	00		 lea	 ecx, DWORD PTR [edi+107448]
  0007f	56		 push	 esi
  00080	ff 10		 call	 DWORD PTR [eax]

; 2160 : }

  00082	8b 4c 24 0c	 mov	 ecx, DWORD PTR __$EHRec$[esp+24]
  00086	5f		 pop	 edi
  00087	5e		 pop	 esi
  00088	64 89 0d 00 00
	00 00		 mov	 DWORD PTR fs:__except_list, ecx
  0008f	83 c4 10	 add	 esp, 16			; 00000010H
  00092	c2 0c 00	 ret	 12			; 0000000cH
_TEXT	ENDS
;	COMDAT text$x
text$x	SEGMENT
$L184790:
  00000	8b 45 f0	 mov	 eax, DWORD PTR $T184787[ebp]
  00003	50		 push	 eax
  00004	e8 00 00 00 00	 call	 ??3@YAXPAX@Z		; operator delete
  00009	59		 pop	 ecx
  0000a	c3		 ret	 0
__ehhandler$?SendMW_CHGPARTYCHIEF_ACK@CTMapSvrModule@@QAEXKKK@Z:
  0000b	b8 00 00 00 00	 mov	 eax, OFFSET FLAT:$T184792
  00010	e9 00 00 00 00	 jmp	 ___CxxFrameHandler
text$x	ENDS
?SendMW_CHGPARTYCHIEF_ACK@CTMapSvrModule@@QAEXKKK@Z ENDP ; CTMapSvrModule::SendMW_CHGPARTYCHIEF_ACK
PUBLIC	?SendMW_CHGPARTYTYPE_ACK@CTMapSvrModule@@QAEXKKE@Z ; CTMapSvrModule::SendMW_CHGPARTYTYPE_ACK
;	COMDAT xdata$x
xdata$x	SEGMENT
$T184808 DD	0ffffffffH
	DD	FLAT:$L184804
$T184806 DD	019930520H
	DD	01H
	DD	FLAT:$T184808
	DD	2 DUP(00H)
	DD	2 DUP(00H)
; Function compile flags: /Ogty
xdata$x	ENDS
;	COMDAT ?SendMW_CHGPARTYTYPE_ACK@CTMapSvrModule@@QAEXKKE@Z
_TEXT	SEGMENT
$T184801 = -16						; size = 4
__$EHRec$ = -12						; size = 12
_dwCharID$ = 8						; size = 4
_dwKEY$ = 12						; size = 4
_bPartyType$ = 16					; size = 1
?SendMW_CHGPARTYTYPE_ACK@CTMapSvrModule@@QAEXKKE@Z PROC NEAR ; CTMapSvrModule::SendMW_CHGPARTYTYPE_ACK, COMDAT
; _this$ = ecx

; 2165 : {

  00000	6a ff		 push	 -1
  00002	68 00 00 00 00	 push	 __ehhandler$?SendMW_CHGPARTYTYPE_ACK@CTMapSvrModule@@QAEXKKE@Z
  00007	64 a1 00 00 00
	00		 mov	 eax, DWORD PTR fs:__except_list
  0000d	50		 push	 eax
  0000e	64 89 25 00 00
	00 00		 mov	 DWORD PTR fs:__except_list, esp
  00015	51		 push	 ecx
  00016	56		 push	 esi
  00017	57		 push	 edi

; 2166 : 	CPacket * pMSG = new CPacket();

  00018	6a 1c		 push	 28			; 0000001cH
  0001a	8b f9		 mov	 edi, ecx
  0001c	e8 00 00 00 00	 call	 ??2@YAPAXI@Z		; operator new
  00021	83 c4 04	 add	 esp, 4
  00024	89 44 24 08	 mov	 DWORD PTR $T184801[esp+24], eax
  00028	33 f6		 xor	 esi, esi
  0002a	3b c6		 cmp	 eax, esi
  0002c	89 74 24 14	 mov	 DWORD PTR __$EHRec$[esp+32], esi
  00030	74 09		 je	 SHORT $L184803
  00032	8b c8		 mov	 ecx, eax
  00034	e8 00 00 00 00	 call	 ??0CPacket@@QAE@XZ	; CPacket::CPacket
  00039	8b f0		 mov	 esi, eax
$L184803:

; 2167 : 
; 2168 : 	pMSG->SetID(MW_CHGPARTYTYPE_ACK)
; 2169 : 		<< dwCharID
; 2170 : 		<< dwKEY
; 2171 : 		<< bPartyType;

  0003b	8b 44 24 24	 mov	 eax, DWORD PTR _bPartyType$[esp+20]
  0003f	8b 4c 24 20	 mov	 ecx, DWORD PTR _dwKEY$[esp+20]
  00043	8b 54 24 1c	 mov	 edx, DWORD PTR _dwCharID$[esp+20]
  00047	50		 push	 eax
  00048	51		 push	 ecx
  00049	52		 push	 edx
  0004a	68 cb 20 00 00	 push	 8395			; 000020cbH
  0004f	8b ce		 mov	 ecx, esi
  00051	c7 44 24 24 ff
	ff ff ff	 mov	 DWORD PTR __$EHRec$[esp+48], -1
  00059	e8 00 00 00 00	 call	 ?SetID@CPacket@@QAEAAV1@G@Z ; CPacket::SetID
  0005e	8b c8		 mov	 ecx, eax
  00060	e8 00 00 00 00	 call	 ??6CPacket@@QAEAAV0@K@Z	; CPacket::operator<<
  00065	8b c8		 mov	 ecx, eax
  00067	e8 00 00 00 00	 call	 ??6CPacket@@QAEAAV0@K@Z	; CPacket::operator<<
  0006c	8b c8		 mov	 ecx, eax
  0006e	e8 00 00 00 00	 call	 ??6CPacket@@QAEAAV0@E@Z	; CPacket::operator<<

; 2172 : 
; 2173 : 	m_world.Say(pMSG);

  00073	8b 87 b8 a3 01
	00		 mov	 eax, DWORD PTR [edi+107448]
  00079	8d 8f b8 a3 01
	00		 lea	 ecx, DWORD PTR [edi+107448]
  0007f	56		 push	 esi
  00080	ff 10		 call	 DWORD PTR [eax]

; 2174 : }

  00082	8b 4c 24 0c	 mov	 ecx, DWORD PTR __$EHRec$[esp+24]
  00086	5f		 pop	 edi
  00087	5e		 pop	 esi
  00088	64 89 0d 00 00
	00 00		 mov	 DWORD PTR fs:__except_list, ecx
  0008f	83 c4 10	 add	 esp, 16			; 00000010H
  00092	c2 0c 00	 ret	 12			; 0000000cH
_TEXT	ENDS
;	COMDAT text$x
text$x	SEGMENT
$L184804:
  00000	8b 45 f0	 mov	 eax, DWORD PTR $T184801[ebp]
  00003	50		 push	 eax
  00004	e8 00 00 00 00	 call	 ??3@YAXPAX@Z		; operator delete
  00009	59		 pop	 ecx
  0000a	c3		 ret	 0
__ehhandler$?SendMW_CHGPARTYTYPE_ACK@CTMapSvrModule@@QAEXKKE@Z:
  0000b	b8 00 00 00 00	 mov	 eax, OFFSET FLAT:$T184806
  00010	e9 00 00 00 00	 jmp	 ___CxxFrameHandler
text$x	ENDS
?SendMW_CHGPARTYTYPE_ACK@CTMapSvrModule@@QAEXKKE@Z ENDP	; CTMapSvrModule::SendMW_CHGPARTYTYPE_ACK
PUBLIC	?SendMW_PARTYDEL_ACK@CTMapSvrModule@@QAEXGKE@Z	; CTMapSvrModule::SendMW_PARTYDEL_ACK
;	COMDAT xdata$x
xdata$x	SEGMENT
$T184822 DD	0ffffffffH
	DD	FLAT:$L184818
$T184820 DD	019930520H
	DD	01H
	DD	FLAT:$T184822
	DD	2 DUP(00H)
	DD	2 DUP(00H)
; Function compile flags: /Ogty
xdata$x	ENDS
;	COMDAT ?SendMW_PARTYDEL_ACK@CTMapSvrModule@@QAEXGKE@Z
_TEXT	SEGMENT
$T184815 = -16						; size = 4
__$EHRec$ = -12						; size = 12
_wPartyID$ = 8						; size = 2
_dwTarget$ = 12						; size = 4
_bKick$ = 16						; size = 1
?SendMW_PARTYDEL_ACK@CTMapSvrModule@@QAEXGKE@Z PROC NEAR ; CTMapSvrModule::SendMW_PARTYDEL_ACK, COMDAT
; _this$ = ecx

; 2223 : {

  00000	6a ff		 push	 -1
  00002	68 00 00 00 00	 push	 __ehhandler$?SendMW_PARTYDEL_ACK@CTMapSvrModule@@QAEXGKE@Z
  00007	64 a1 00 00 00
	00		 mov	 eax, DWORD PTR fs:__except_list
  0000d	50		 push	 eax
  0000e	64 89 25 00 00
	00 00		 mov	 DWORD PTR fs:__except_list, esp
  00015	51		 push	 ecx
  00016	56		 push	 esi
  00017	57		 push	 edi

; 2224 : 	CPacket * pMsg = new CPacket();

  00018	6a 1c		 push	 28			; 0000001cH
  0001a	8b f9		 mov	 edi, ecx
  0001c	e8 00 00 00 00	 call	 ??2@YAPAXI@Z		; operator new
  00021	83 c4 04	 add	 esp, 4
  00024	89 44 24 08	 mov	 DWORD PTR $T184815[esp+24], eax
  00028	33 f6		 xor	 esi, esi
  0002a	3b c6		 cmp	 eax, esi
  0002c	89 74 24 14	 mov	 DWORD PTR __$EHRec$[esp+32], esi
  00030	74 09		 je	 SHORT $L184817
  00032	8b c8		 mov	 ecx, eax
  00034	e8 00 00 00 00	 call	 ??0CPacket@@QAE@XZ	; CPacket::CPacket
  00039	8b f0		 mov	 esi, eax
$L184817:

; 2225 : 
; 2226 : 	pMsg->SetID(MW_PARTYDEL_ACK)
; 2227 : 		<< wPartyID
; 2228 : 		<< dwTarget
; 2229 : 		<< bKick;

  0003b	8b 44 24 24	 mov	 eax, DWORD PTR _bKick$[esp+20]
  0003f	8b 4c 24 20	 mov	 ecx, DWORD PTR _dwTarget$[esp+20]
  00043	8b 54 24 1c	 mov	 edx, DWORD PTR _wPartyID$[esp+20]
  00047	50		 push	 eax
  00048	51		 push	 ecx
  00049	52		 push	 edx
  0004a	68 23 20 00 00	 push	 8227			; 00002023H
  0004f	8b ce		 mov	 ecx, esi
  00051	c7 44 24 24 ff
	ff ff ff	 mov	 DWORD PTR __$EHRec$[esp+48], -1
  00059	e8 00 00 00 00	 call	 ?SetID@CPacket@@QAEAAV1@G@Z ; CPacket::SetID
  0005e	8b c8		 mov	 ecx, eax
  00060	e8 00 00 00 00	 call	 ??6CPacket@@QAEAAV0@G@Z	; CPacket::operator<<
  00065	8b c8		 mov	 ecx, eax
  00067	e8 00 00 00 00	 call	 ??6CPacket@@QAEAAV0@K@Z	; CPacket::operator<<
  0006c	8b c8		 mov	 ecx, eax
  0006e	e8 00 00 00 00	 call	 ??6CPacket@@QAEAAV0@E@Z	; CPacket::operator<<

; 2230 : 
; 2231 : 	m_world.Say(pMsg);

  00073	8b 87 b8 a3 01
	00		 mov	 eax, DWORD PTR [edi+107448]
  00079	8d 8f b8 a3 01
	00		 lea	 ecx, DWORD PTR [edi+107448]
  0007f	56		 push	 esi
  00080	ff 10		 call	 DWORD PTR [eax]

; 2232 : }

  00082	8b 4c 24 0c	 mov	 ecx, DWORD PTR __$EHRec$[esp+24]
  00086	5f		 pop	 edi
  00087	5e		 pop	 esi
  00088	64 89 0d 00 00
	00 00		 mov	 DWORD PTR fs:__except_list, ecx
  0008f	83 c4 10	 add	 esp, 16			; 00000010H
  00092	c2 0c 00	 ret	 12			; 0000000cH
_TEXT	ENDS
;	COMDAT text$x
text$x	SEGMENT
$L184818:
  00000	8b 45 f0	 mov	 eax, DWORD PTR $T184815[ebp]
  00003	50		 push	 eax
  00004	e8 00 00 00 00	 call	 ??3@YAXPAX@Z		; operator delete
  00009	59		 pop	 ecx
  0000a	c3		 ret	 0
__ehhandler$?SendMW_PARTYDEL_ACK@CTMapSvrModule@@QAEXGKE@Z:
  0000b	b8 00 00 00 00	 mov	 eax, OFFSET FLAT:$T184820
  00010	e9 00 00 00 00	 jmp	 ___CxxFrameHandler
text$x	ENDS
?SendMW_PARTYDEL_ACK@CTMapSvrModule@@QAEXGKE@Z ENDP	; CTMapSvrModule::SendMW_PARTYDEL_ACK
PUBLIC	?SendMW_PARTYMANSTAT_ACK@CTMapSvrModule@@QAEXGKEEKKKK@Z ; CTMapSvrModule::SendMW_PARTYMANSTAT_ACK
;	COMDAT xdata$x
xdata$x	SEGMENT
$T184836 DD	0ffffffffH
	DD	FLAT:$L184832
$T184834 DD	019930520H
	DD	01H
	DD	FLAT:$T184836
	DD	2 DUP(00H)
	DD	2 DUP(00H)
; Function compile flags: /Ogty
xdata$x	ENDS
;	COMDAT ?SendMW_PARTYMANSTAT_ACK@CTMapSvrModule@@QAEXGKEEKKKK@Z
_TEXT	SEGMENT
$T184829 = -16						; size = 4
__$EHRec$ = -12						; size = 12
_wPartyID$ = 8						; size = 2
_dwID$ = 12						; size = 4
_bType$ = 16						; size = 1
_bLevel$ = 20						; size = 1
_dwMaxHP$ = 24						; size = 4
_dwCurHP$ = 28						; size = 4
_dwMaxMP$ = 32						; size = 4
_dwCurMP$ = 36						; size = 4
?SendMW_PARTYMANSTAT_ACK@CTMapSvrModule@@QAEXGKEEKKKK@Z PROC NEAR ; CTMapSvrModule::SendMW_PARTYMANSTAT_ACK, COMDAT
; _this$ = ecx

; 2241 : {

  00000	6a ff		 push	 -1
  00002	68 00 00 00 00	 push	 __ehhandler$?SendMW_PARTYMANSTAT_ACK@CTMapSvrModule@@QAEXGKEEKKKK@Z
  00007	64 a1 00 00 00
	00		 mov	 eax, DWORD PTR fs:__except_list
  0000d	50		 push	 eax
  0000e	64 89 25 00 00
	00 00		 mov	 DWORD PTR fs:__except_list, esp
  00015	51		 push	 ecx
  00016	56		 push	 esi
  00017	57		 push	 edi

; 2242 : 	CPacket * pMsg = new CPacket();

  00018	6a 1c		 push	 28			; 0000001cH
  0001a	8b f9		 mov	 edi, ecx
  0001c	e8 00 00 00 00	 call	 ??2@YAPAXI@Z		; operator new
  00021	83 c4 04	 add	 esp, 4
  00024	89 44 24 08	 mov	 DWORD PTR $T184829[esp+24], eax
  00028	33 f6		 xor	 esi, esi
  0002a	3b c6		 cmp	 eax, esi
  0002c	89 74 24 14	 mov	 DWORD PTR __$EHRec$[esp+32], esi
  00030	74 09		 je	 SHORT $L184831
  00032	8b c8		 mov	 ecx, eax
  00034	e8 00 00 00 00	 call	 ??0CPacket@@QAE@XZ	; CPacket::CPacket
  00039	8b f0		 mov	 esi, eax
$L184831:

; 2243 : 
; 2244 : 	pMsg->SetID(MW_PARTYMANSTAT_ACK)
; 2245 : 		<< wPartyID
; 2246 : 		<< dwID
; 2247 : 		<< bType
; 2248 : 		<< bLevel
; 2249 : 		<< dwMaxHP
; 2250 : 		<< dwCurHP
; 2251 : 		<< dwMaxMP
; 2252 : 		<< dwCurMP;

  0003b	8b 44 24 38	 mov	 eax, DWORD PTR _dwCurMP$[esp+20]
  0003f	8b 4c 24 34	 mov	 ecx, DWORD PTR _dwMaxMP$[esp+20]
  00043	8b 54 24 30	 mov	 edx, DWORD PTR _dwCurHP$[esp+20]
  00047	50		 push	 eax
  00048	8b 44 24 30	 mov	 eax, DWORD PTR _dwMaxHP$[esp+24]
  0004c	51		 push	 ecx
  0004d	8b 4c 24 30	 mov	 ecx, DWORD PTR _bLevel$[esp+28]
  00051	52		 push	 edx
  00052	8b 54 24 30	 mov	 edx, DWORD PTR _bType$[esp+32]
  00056	50		 push	 eax
  00057	8b 44 24 30	 mov	 eax, DWORD PTR _dwID$[esp+36]
  0005b	51		 push	 ecx
  0005c	8b 4c 24 30	 mov	 ecx, DWORD PTR _wPartyID$[esp+40]
  00060	52		 push	 edx
  00061	50		 push	 eax
  00062	51		 push	 ecx
  00063	68 25 20 00 00	 push	 8229			; 00002025H
  00068	8b ce		 mov	 ecx, esi
  0006a	c7 44 24 38 ff
	ff ff ff	 mov	 DWORD PTR __$EHRec$[esp+68], -1
  00072	e8 00 00 00 00	 call	 ?SetID@CPacket@@QAEAAV1@G@Z ; CPacket::SetID
  00077	8b c8		 mov	 ecx, eax
  00079	e8 00 00 00 00	 call	 ??6CPacket@@QAEAAV0@G@Z	; CPacket::operator<<
  0007e	8b c8		 mov	 ecx, eax
  00080	e8 00 00 00 00	 call	 ??6CPacket@@QAEAAV0@K@Z	; CPacket::operator<<
  00085	8b c8		 mov	 ecx, eax
  00087	e8 00 00 00 00	 call	 ??6CPacket@@QAEAAV0@E@Z	; CPacket::operator<<
  0008c	8b c8		 mov	 ecx, eax
  0008e	e8 00 00 00 00	 call	 ??6CPacket@@QAEAAV0@E@Z	; CPacket::operator<<
  00093	8b c8		 mov	 ecx, eax
  00095	e8 00 00 00 00	 call	 ??6CPacket@@QAEAAV0@K@Z	; CPacket::operator<<
  0009a	8b c8		 mov	 ecx, eax
  0009c	e8 00 00 00 00	 call	 ??6CPacket@@QAEAAV0@K@Z	; CPacket::operator<<
  000a1	8b c8		 mov	 ecx, eax
  000a3	e8 00 00 00 00	 call	 ??6CPacket@@QAEAAV0@K@Z	; CPacket::operator<<
  000a8	8b c8		 mov	 ecx, eax
  000aa	e8 00 00 00 00	 call	 ??6CPacket@@QAEAAV0@K@Z	; CPacket::operator<<

; 2253 : 
; 2254 : 	m_world.Say(pMsg);

  000af	8b 97 b8 a3 01
	00		 mov	 edx, DWORD PTR [edi+107448]
  000b5	8d 8f b8 a3 01
	00		 lea	 ecx, DWORD PTR [edi+107448]
  000bb	56		 push	 esi
  000bc	ff 12		 call	 DWORD PTR [edx]

; 2255 : }

  000be	8b 4c 24 0c	 mov	 ecx, DWORD PTR __$EHRec$[esp+24]
  000c2	5f		 pop	 edi
  000c3	5e		 pop	 esi
  000c4	64 89 0d 00 00
	00 00		 mov	 DWORD PTR fs:__except_list, ecx
  000cb	83 c4 10	 add	 esp, 16			; 00000010H
  000ce	c2 20 00	 ret	 32			; 00000020H
_TEXT	ENDS
;	COMDAT text$x
text$x	SEGMENT
$L184832:
  00000	8b 45 f0	 mov	 eax, DWORD PTR $T184829[ebp]
  00003	50		 push	 eax
  00004	e8 00 00 00 00	 call	 ??3@YAXPAX@Z		; operator delete
  00009	59		 pop	 ecx
  0000a	c3		 ret	 0
__ehhandler$?SendMW_PARTYMANSTAT_ACK@CTMapSvrModule@@QAEXGKEEKKKK@Z:
  0000b	b8 00 00 00 00	 mov	 eax, OFFSET FLAT:$T184834
  00010	e9 00 00 00 00	 jmp	 ___CxxFrameHandler
text$x	ENDS
?SendMW_PARTYMANSTAT_ACK@CTMapSvrModule@@QAEXGKEEKKKK@Z ENDP ; CTMapSvrModule::SendMW_PARTYMANSTAT_ACK
PUBLIC	?SendMW_LEVELUP_ACK@CTMapSvrModule@@QAEXKKE@Z	; CTMapSvrModule::SendMW_LEVELUP_ACK
;	COMDAT xdata$x
xdata$x	SEGMENT
$T184850 DD	0ffffffffH
	DD	FLAT:$L184846
$T184848 DD	019930520H
	DD	01H
	DD	FLAT:$T184850
	DD	2 DUP(00H)
	DD	2 DUP(00H)
; Function compile flags: /Ogty
xdata$x	ENDS
;	COMDAT ?SendMW_LEVELUP_ACK@CTMapSvrModule@@QAEXKKE@Z
_TEXT	SEGMENT
$T184843 = -16						; size = 4
__$EHRec$ = -12						; size = 12
_dwCharID$ = 8						; size = 4
_dwKey$ = 12						; size = 4
_bLevel$ = 16						; size = 1
?SendMW_LEVELUP_ACK@CTMapSvrModule@@QAEXKKE@Z PROC NEAR	; CTMapSvrModule::SendMW_LEVELUP_ACK, COMDAT
; _this$ = ecx

; 2259 : {

  00000	6a ff		 push	 -1
  00002	68 00 00 00 00	 push	 __ehhandler$?SendMW_LEVELUP_ACK@CTMapSvrModule@@QAEXKKE@Z
  00007	64 a1 00 00 00
	00		 mov	 eax, DWORD PTR fs:__except_list
  0000d	50		 push	 eax
  0000e	64 89 25 00 00
	00 00		 mov	 DWORD PTR fs:__except_list, esp
  00015	51		 push	 ecx
  00016	56		 push	 esi
  00017	57		 push	 edi

; 2260 : 	CPacket * pMSG = new CPacket();

  00018	6a 1c		 push	 28			; 0000001cH
  0001a	8b f9		 mov	 edi, ecx
  0001c	e8 00 00 00 00	 call	 ??2@YAPAXI@Z		; operator new
  00021	83 c4 04	 add	 esp, 4
  00024	89 44 24 08	 mov	 DWORD PTR $T184843[esp+24], eax
  00028	33 f6		 xor	 esi, esi
  0002a	3b c6		 cmp	 eax, esi
  0002c	89 74 24 14	 mov	 DWORD PTR __$EHRec$[esp+32], esi
  00030	74 09		 je	 SHORT $L184845
  00032	8b c8		 mov	 ecx, eax
  00034	e8 00 00 00 00	 call	 ??0CPacket@@QAE@XZ	; CPacket::CPacket
  00039	8b f0		 mov	 esi, eax
$L184845:

; 2261 : 	pMSG->SetID(MW_LEVELUP_ACK)
; 2262 : 		<< dwCharID
; 2263 : 		<< dwKey
; 2264 : 		<< bLevel;

  0003b	8b 44 24 24	 mov	 eax, DWORD PTR _bLevel$[esp+20]
  0003f	8b 4c 24 20	 mov	 ecx, DWORD PTR _dwKey$[esp+20]
  00043	8b 54 24 1c	 mov	 edx, DWORD PTR _dwCharID$[esp+20]
  00047	50		 push	 eax
  00048	51		 push	 ecx
  00049	52		 push	 edx
  0004a	68 27 20 00 00	 push	 8231			; 00002027H
  0004f	8b ce		 mov	 ecx, esi
  00051	c7 44 24 24 ff
	ff ff ff	 mov	 DWORD PTR __$EHRec$[esp+48], -1
  00059	e8 00 00 00 00	 call	 ?SetID@CPacket@@QAEAAV1@G@Z ; CPacket::SetID
  0005e	8b c8		 mov	 ecx, eax
  00060	e8 00 00 00 00	 call	 ??6CPacket@@QAEAAV0@K@Z	; CPacket::operator<<
  00065	8b c8		 mov	 ecx, eax
  00067	e8 00 00 00 00	 call	 ??6CPacket@@QAEAAV0@K@Z	; CPacket::operator<<
  0006c	8b c8		 mov	 ecx, eax
  0006e	e8 00 00 00 00	 call	 ??6CPacket@@QAEAAV0@E@Z	; CPacket::operator<<

; 2265 : 
; 2266 : 	m_world.Say(pMSG);

  00073	8b 87 b8 a3 01
	00		 mov	 eax, DWORD PTR [edi+107448]
  00079	8d 8f b8 a3 01
	00		 lea	 ecx, DWORD PTR [edi+107448]
  0007f	56		 push	 esi
  00080	ff 10		 call	 DWORD PTR [eax]

; 2267 : }

  00082	8b 4c 24 0c	 mov	 ecx, DWORD PTR __$EHRec$[esp+24]
  00086	5f		 pop	 edi
  00087	5e		 pop	 esi
  00088	64 89 0d 00 00
	00 00		 mov	 DWORD PTR fs:__except_list, ecx
  0008f	83 c4 10	 add	 esp, 16			; 00000010H
  00092	c2 0c 00	 ret	 12			; 0000000cH
_TEXT	ENDS
;	COMDAT text$x
text$x	SEGMENT
$L184846:
  00000	8b 45 f0	 mov	 eax, DWORD PTR $T184843[ebp]
  00003	50		 push	 eax
  00004	e8 00 00 00 00	 call	 ??3@YAXPAX@Z		; operator delete
  00009	59		 pop	 ecx
  0000a	c3		 ret	 0
__ehhandler$?SendMW_LEVELUP_ACK@CTMapSvrModule@@QAEXKKE@Z:
  0000b	b8 00 00 00 00	 mov	 eax, OFFSET FLAT:$T184848
  00010	e9 00 00 00 00	 jmp	 ___CxxFrameHandler
text$x	ENDS
?SendMW_LEVELUP_ACK@CTMapSvrModule@@QAEXKKE@Z ENDP	; CTMapSvrModule::SendMW_LEVELUP_ACK
PUBLIC	?SendMW_GUILDDISORGANIZATION_ACK@CTMapSvrModule@@QAEXKKE@Z ; CTMapSvrModule::SendMW_GUILDDISORGANIZATION_ACK
;	COMDAT xdata$x
xdata$x	SEGMENT
$T184864 DD	0ffffffffH
	DD	FLAT:$L184860
$T184862 DD	019930520H
	DD	01H
	DD	FLAT:$T184864
	DD	2 DUP(00H)
	DD	2 DUP(00H)
; Function compile flags: /Ogty
xdata$x	ENDS
;	COMDAT ?SendMW_GUILDDISORGANIZATION_ACK@CTMapSvrModule@@QAEXKKE@Z
_TEXT	SEGMENT
$T184857 = -16						; size = 4
__$EHRec$ = -12						; size = 12
_dwCharID$ = 8						; size = 4
_dwKey$ = 12						; size = 4
_bRet$ = 16						; size = 1
?SendMW_GUILDDISORGANIZATION_ACK@CTMapSvrModule@@QAEXKKE@Z PROC NEAR ; CTMapSvrModule::SendMW_GUILDDISORGANIZATION_ACK, COMDAT
; _this$ = ecx

; 2285 : {

  00000	6a ff		 push	 -1
  00002	68 00 00 00 00	 push	 __ehhandler$?SendMW_GUILDDISORGANIZATION_ACK@CTMapSvrModule@@QAEXKKE@Z
  00007	64 a1 00 00 00
	00		 mov	 eax, DWORD PTR fs:__except_list
  0000d	50		 push	 eax
  0000e	64 89 25 00 00
	00 00		 mov	 DWORD PTR fs:__except_list, esp
  00015	51		 push	 ecx
  00016	56		 push	 esi
  00017	57		 push	 edi

; 2286 : 	CPacket * pMsg = new CPacket();

  00018	6a 1c		 push	 28			; 0000001cH
  0001a	8b f9		 mov	 edi, ecx
  0001c	e8 00 00 00 00	 call	 ??2@YAPAXI@Z		; operator new
  00021	83 c4 04	 add	 esp, 4
  00024	89 44 24 08	 mov	 DWORD PTR $T184857[esp+24], eax
  00028	33 f6		 xor	 esi, esi
  0002a	3b c6		 cmp	 eax, esi
  0002c	89 74 24 14	 mov	 DWORD PTR __$EHRec$[esp+32], esi
  00030	74 09		 je	 SHORT $L184859
  00032	8b c8		 mov	 ecx, eax
  00034	e8 00 00 00 00	 call	 ??0CPacket@@QAE@XZ	; CPacket::CPacket
  00039	8b f0		 mov	 esi, eax
$L184859:

; 2287 : 	pMsg->SetID(MW_GUILDDISORGANIZATION_ACK)
; 2288 : 		<< dwCharID
; 2289 : 		<< dwKey
; 2290 : 		<< bRet;

  0003b	8b 44 24 24	 mov	 eax, DWORD PTR _bRet$[esp+20]
  0003f	8b 4c 24 20	 mov	 ecx, DWORD PTR _dwKey$[esp+20]
  00043	8b 54 24 1c	 mov	 edx, DWORD PTR _dwCharID$[esp+20]
  00047	50		 push	 eax
  00048	51		 push	 ecx
  00049	52		 push	 edx
  0004a	68 2d 20 00 00	 push	 8237			; 0000202dH
  0004f	8b ce		 mov	 ecx, esi
  00051	c7 44 24 24 ff
	ff ff ff	 mov	 DWORD PTR __$EHRec$[esp+48], -1
  00059	e8 00 00 00 00	 call	 ?SetID@CPacket@@QAEAAV1@G@Z ; CPacket::SetID
  0005e	8b c8		 mov	 ecx, eax
  00060	e8 00 00 00 00	 call	 ??6CPacket@@QAEAAV0@K@Z	; CPacket::operator<<
  00065	8b c8		 mov	 ecx, eax
  00067	e8 00 00 00 00	 call	 ??6CPacket@@QAEAAV0@K@Z	; CPacket::operator<<
  0006c	8b c8		 mov	 ecx, eax
  0006e	e8 00 00 00 00	 call	 ??6CPacket@@QAEAAV0@E@Z	; CPacket::operator<<

; 2291 : 
; 2292 : 	m_world.Say(pMsg);

  00073	8b 87 b8 a3 01
	00		 mov	 eax, DWORD PTR [edi+107448]
  00079	8d 8f b8 a3 01
	00		 lea	 ecx, DWORD PTR [edi+107448]
  0007f	56		 push	 esi
  00080	ff 10		 call	 DWORD PTR [eax]

; 2293 : }

  00082	8b 4c 24 0c	 mov	 ecx, DWORD PTR __$EHRec$[esp+24]
  00086	5f		 pop	 edi
  00087	5e		 pop	 esi
  00088	64 89 0d 00 00
	00 00		 mov	 DWORD PTR fs:__except_list, ecx
  0008f	83 c4 10	 add	 esp, 16			; 00000010H
  00092	c2 0c 00	 ret	 12			; 0000000cH
_TEXT	ENDS
;	COMDAT text$x
text$x	SEGMENT
$L184860:
  00000	8b 45 f0	 mov	 eax, DWORD PTR $T184857[ebp]
  00003	50		 push	 eax
  00004	e8 00 00 00 00	 call	 ??3@YAXPAX@Z		; operator delete
  00009	59		 pop	 ecx
  0000a	c3		 ret	 0
__ehhandler$?SendMW_GUILDDISORGANIZATION_ACK@CTMapSvrModule@@QAEXKKE@Z:
  0000b	b8 00 00 00 00	 mov	 eax, OFFSET FLAT:$T184862
  00010	e9 00 00 00 00	 jmp	 ___CxxFrameHandler
text$x	ENDS
?SendMW_GUILDDISORGANIZATION_ACK@CTMapSvrModule@@QAEXKKE@Z ENDP ; CTMapSvrModule::SendMW_GUILDDISORGANIZATION_ACK
PUBLIC	?SendMW_GUILDINVITEANSWER_ACK@CTMapSvrModule@@QAEXKKEK@Z ; CTMapSvrModule::SendMW_GUILDINVITEANSWER_ACK
;	COMDAT xdata$x
xdata$x	SEGMENT
$T184878 DD	0ffffffffH
	DD	FLAT:$L184874
$T184876 DD	019930520H
	DD	01H
	DD	FLAT:$T184878
	DD	2 DUP(00H)
	DD	2 DUP(00H)
; Function compile flags: /Ogty
xdata$x	ENDS
;	COMDAT ?SendMW_GUILDINVITEANSWER_ACK@CTMapSvrModule@@QAEXKKEK@Z
_TEXT	SEGMENT
$T184871 = -16						; size = 4
__$EHRec$ = -12						; size = 12
_dwCharID$ = 8						; size = 4
_dwKey$ = 12						; size = 4
_bAnswer$ = 16						; size = 1
_dwInviter$ = 20					; size = 4
?SendMW_GUILDINVITEANSWER_ACK@CTMapSvrModule@@QAEXKKEK@Z PROC NEAR ; CTMapSvrModule::SendMW_GUILDINVITEANSWER_ACK, COMDAT
; _this$ = ecx

; 2310 : {

  00000	6a ff		 push	 -1
  00002	68 00 00 00 00	 push	 __ehhandler$?SendMW_GUILDINVITEANSWER_ACK@CTMapSvrModule@@QAEXKKEK@Z
  00007	64 a1 00 00 00
	00		 mov	 eax, DWORD PTR fs:__except_list
  0000d	50		 push	 eax
  0000e	64 89 25 00 00
	00 00		 mov	 DWORD PTR fs:__except_list, esp
  00015	51		 push	 ecx
  00016	56		 push	 esi
  00017	57		 push	 edi

; 2311 : 	CPacket * pMsg = new CPacket();

  00018	6a 1c		 push	 28			; 0000001cH
  0001a	8b f9		 mov	 edi, ecx
  0001c	e8 00 00 00 00	 call	 ??2@YAPAXI@Z		; operator new
  00021	83 c4 04	 add	 esp, 4
  00024	89 44 24 08	 mov	 DWORD PTR $T184871[esp+24], eax
  00028	33 f6		 xor	 esi, esi
  0002a	3b c6		 cmp	 eax, esi
  0002c	89 74 24 14	 mov	 DWORD PTR __$EHRec$[esp+32], esi
  00030	74 09		 je	 SHORT $L184873
  00032	8b c8		 mov	 ecx, eax
  00034	e8 00 00 00 00	 call	 ??0CPacket@@QAE@XZ	; CPacket::CPacket
  00039	8b f0		 mov	 esi, eax
$L184873:

; 2312 : 	pMsg->SetID(MW_GUILDINVITEANSWER_ACK)
; 2313 : 		<< dwCharID
; 2314 : 		<< dwKey
; 2315 : 		<< bAnswer
; 2316 : 		<< dwInviter;

  0003b	8b 44 24 28	 mov	 eax, DWORD PTR _dwInviter$[esp+20]
  0003f	8b 4c 24 24	 mov	 ecx, DWORD PTR _bAnswer$[esp+20]
  00043	8b 54 24 20	 mov	 edx, DWORD PTR _dwKey$[esp+20]
  00047	50		 push	 eax
  00048	8b 44 24 20	 mov	 eax, DWORD PTR _dwCharID$[esp+24]
  0004c	51		 push	 ecx
  0004d	52		 push	 edx
  0004e	50		 push	 eax
  0004f	68 30 20 00 00	 push	 8240			; 00002030H
  00054	8b ce		 mov	 ecx, esi
  00056	c7 44 24 28 ff
	ff ff ff	 mov	 DWORD PTR __$EHRec$[esp+52], -1
  0005e	e8 00 00 00 00	 call	 ?SetID@CPacket@@QAEAAV1@G@Z ; CPacket::SetID
  00063	8b c8		 mov	 ecx, eax
  00065	e8 00 00 00 00	 call	 ??6CPacket@@QAEAAV0@K@Z	; CPacket::operator<<
  0006a	8b c8		 mov	 ecx, eax
  0006c	e8 00 00 00 00	 call	 ??6CPacket@@QAEAAV0@K@Z	; CPacket::operator<<
  00071	8b c8		 mov	 ecx, eax
  00073	e8 00 00 00 00	 call	 ??6CPacket@@QAEAAV0@E@Z	; CPacket::operator<<
  00078	8b c8		 mov	 ecx, eax
  0007a	e8 00 00 00 00	 call	 ??6CPacket@@QAEAAV0@K@Z	; CPacket::operator<<

; 2317 : 
; 2318 : 	m_world.Say(pMsg);

  0007f	8b 97 b8 a3 01
	00		 mov	 edx, DWORD PTR [edi+107448]
  00085	8d 8f b8 a3 01
	00		 lea	 ecx, DWORD PTR [edi+107448]
  0008b	56		 push	 esi
  0008c	ff 12		 call	 DWORD PTR [edx]

; 2319 : }

  0008e	8b 4c 24 0c	 mov	 ecx, DWORD PTR __$EHRec$[esp+24]
  00092	5f		 pop	 edi
  00093	5e		 pop	 esi
  00094	64 89 0d 00 00
	00 00		 mov	 DWORD PTR fs:__except_list, ecx
  0009b	83 c4 10	 add	 esp, 16			; 00000010H
  0009e	c2 10 00	 ret	 16			; 00000010H
_TEXT	ENDS
;	COMDAT text$x
text$x	SEGMENT
$L184874:
  00000	8b 45 f0	 mov	 eax, DWORD PTR $T184871[ebp]
  00003	50		 push	 eax
  00004	e8 00 00 00 00	 call	 ??3@YAXPAX@Z		; operator delete
  00009	59		 pop	 ecx
  0000a	c3		 ret	 0
__ehhandler$?SendMW_GUILDINVITEANSWER_ACK@CTMapSvrModule@@QAEXKKEK@Z:
  0000b	b8 00 00 00 00	 mov	 eax, OFFSET FLAT:$T184876
  00010	e9 00 00 00 00	 jmp	 ___CxxFrameHandler
text$x	ENDS
?SendMW_GUILDINVITEANSWER_ACK@CTMapSvrModule@@QAEXKKEK@Z ENDP ; CTMapSvrModule::SendMW_GUILDINVITEANSWER_ACK
PUBLIC	?SendMW_GUILDLEAVE_ACK@CTMapSvrModule@@QAEXKK@Z	; CTMapSvrModule::SendMW_GUILDLEAVE_ACK
;	COMDAT xdata$x
xdata$x	SEGMENT
$T184892 DD	0ffffffffH
	DD	FLAT:$L184888
$T184890 DD	019930520H
	DD	01H
	DD	FLAT:$T184892
	DD	2 DUP(00H)
	DD	2 DUP(00H)
; Function compile flags: /Ogty
xdata$x	ENDS
;	COMDAT ?SendMW_GUILDLEAVE_ACK@CTMapSvrModule@@QAEXKK@Z
_TEXT	SEGMENT
$T184885 = -16						; size = 4
__$EHRec$ = -12						; size = 12
_dwCharID$ = 8						; size = 4
_dwKey$ = 12						; size = 4
?SendMW_GUILDLEAVE_ACK@CTMapSvrModule@@QAEXKK@Z PROC NEAR ; CTMapSvrModule::SendMW_GUILDLEAVE_ACK, COMDAT
; _this$ = ecx

; 2322 : {

  00000	6a ff		 push	 -1
  00002	68 00 00 00 00	 push	 __ehhandler$?SendMW_GUILDLEAVE_ACK@CTMapSvrModule@@QAEXKK@Z
  00007	64 a1 00 00 00
	00		 mov	 eax, DWORD PTR fs:__except_list
  0000d	50		 push	 eax
  0000e	64 89 25 00 00
	00 00		 mov	 DWORD PTR fs:__except_list, esp
  00015	51		 push	 ecx
  00016	56		 push	 esi
  00017	57		 push	 edi

; 2323 : 	CPacket * pMsg = new CPacket();

  00018	6a 1c		 push	 28			; 0000001cH
  0001a	8b f9		 mov	 edi, ecx
  0001c	e8 00 00 00 00	 call	 ??2@YAPAXI@Z		; operator new
  00021	83 c4 04	 add	 esp, 4
  00024	89 44 24 08	 mov	 DWORD PTR $T184885[esp+24], eax
  00028	33 f6		 xor	 esi, esi
  0002a	3b c6		 cmp	 eax, esi
  0002c	89 74 24 14	 mov	 DWORD PTR __$EHRec$[esp+32], esi
  00030	74 09		 je	 SHORT $L184887
  00032	8b c8		 mov	 ecx, eax
  00034	e8 00 00 00 00	 call	 ??0CPacket@@QAE@XZ	; CPacket::CPacket
  00039	8b f0		 mov	 esi, eax
$L184887:

; 2324 : 	pMsg->SetID(MW_GUILDLEAVE_ACK)
; 2325 : 		<< dwCharID
; 2326 : 		<< dwKey;

  0003b	8b 44 24 20	 mov	 eax, DWORD PTR _dwKey$[esp+20]
  0003f	8b 4c 24 1c	 mov	 ecx, DWORD PTR _dwCharID$[esp+20]
  00043	50		 push	 eax
  00044	51		 push	 ecx
  00045	68 33 20 00 00	 push	 8243			; 00002033H
  0004a	8b ce		 mov	 ecx, esi
  0004c	c7 44 24 20 ff
	ff ff ff	 mov	 DWORD PTR __$EHRec$[esp+44], -1
  00054	e8 00 00 00 00	 call	 ?SetID@CPacket@@QAEAAV1@G@Z ; CPacket::SetID
  00059	8b c8		 mov	 ecx, eax
  0005b	e8 00 00 00 00	 call	 ??6CPacket@@QAEAAV0@K@Z	; CPacket::operator<<
  00060	8b c8		 mov	 ecx, eax
  00062	e8 00 00 00 00	 call	 ??6CPacket@@QAEAAV0@K@Z	; CPacket::operator<<

; 2327 : 
; 2328 : 	m_world.Say(pMsg);

  00067	8b 97 b8 a3 01
	00		 mov	 edx, DWORD PTR [edi+107448]
  0006d	8d 8f b8 a3 01
	00		 lea	 ecx, DWORD PTR [edi+107448]
  00073	56		 push	 esi
  00074	ff 12		 call	 DWORD PTR [edx]

; 2329 : }

  00076	8b 4c 24 0c	 mov	 ecx, DWORD PTR __$EHRec$[esp+24]
  0007a	5f		 pop	 edi
  0007b	5e		 pop	 esi
  0007c	64 89 0d 00 00
	00 00		 mov	 DWORD PTR fs:__except_list, ecx
  00083	83 c4 10	 add	 esp, 16			; 00000010H
  00086	c2 08 00	 ret	 8
_TEXT	ENDS
;	COMDAT text$x
text$x	SEGMENT
$L184888:
  00000	8b 45 f0	 mov	 eax, DWORD PTR $T184885[ebp]
  00003	50		 push	 eax
  00004	e8 00 00 00 00	 call	 ??3@YAXPAX@Z		; operator delete
  00009	59		 pop	 ecx
  0000a	c3		 ret	 0
__ehhandler$?SendMW_GUILDLEAVE_ACK@CTMapSvrModule@@QAEXKK@Z:
  0000b	b8 00 00 00 00	 mov	 eax, OFFSET FLAT:$T184890
  00010	e9 00 00 00 00	 jmp	 ___CxxFrameHandler
text$x	ENDS
?SendMW_GUILDLEAVE_ACK@CTMapSvrModule@@QAEXKK@Z ENDP	; CTMapSvrModule::SendMW_GUILDLEAVE_ACK
PUBLIC	?SendMW_GUILDMEMBERLIST_ACK@CTMapSvrModule@@QAEXKK@Z ; CTMapSvrModule::SendMW_GUILDMEMBERLIST_ACK
;	COMDAT xdata$x
xdata$x	SEGMENT
$T184906 DD	0ffffffffH
	DD	FLAT:$L184902
$T184904 DD	019930520H
	DD	01H
	DD	FLAT:$T184906
	DD	2 DUP(00H)
	DD	2 DUP(00H)
; Function compile flags: /Ogty
xdata$x	ENDS
;	COMDAT ?SendMW_GUILDMEMBERLIST_ACK@CTMapSvrModule@@QAEXKK@Z
_TEXT	SEGMENT
$T184899 = -16						; size = 4
__$EHRec$ = -12						; size = 12
_dwCharID$ = 8						; size = 4
_dwKey$ = 12						; size = 4
?SendMW_GUILDMEMBERLIST_ACK@CTMapSvrModule@@QAEXKK@Z PROC NEAR ; CTMapSvrModule::SendMW_GUILDMEMBERLIST_ACK, COMDAT
; _this$ = ecx

; 2372 : {

  00000	6a ff		 push	 -1
  00002	68 00 00 00 00	 push	 __ehhandler$?SendMW_GUILDMEMBERLIST_ACK@CTMapSvrModule@@QAEXKK@Z
  00007	64 a1 00 00 00
	00		 mov	 eax, DWORD PTR fs:__except_list
  0000d	50		 push	 eax
  0000e	64 89 25 00 00
	00 00		 mov	 DWORD PTR fs:__except_list, esp
  00015	51		 push	 ecx
  00016	56		 push	 esi
  00017	57		 push	 edi

; 2373 : 	CPacket * pMsg = new CPacket();

  00018	6a 1c		 push	 28			; 0000001cH
  0001a	8b f9		 mov	 edi, ecx
  0001c	e8 00 00 00 00	 call	 ??2@YAPAXI@Z		; operator new
  00021	83 c4 04	 add	 esp, 4
  00024	89 44 24 08	 mov	 DWORD PTR $T184899[esp+24], eax
  00028	33 f6		 xor	 esi, esi
  0002a	3b c6		 cmp	 eax, esi
  0002c	89 74 24 14	 mov	 DWORD PTR __$EHRec$[esp+32], esi
  00030	74 09		 je	 SHORT $L184901
  00032	8b c8		 mov	 ecx, eax
  00034	e8 00 00 00 00	 call	 ??0CPacket@@QAE@XZ	; CPacket::CPacket
  00039	8b f0		 mov	 esi, eax
$L184901:

; 2374 : 	pMsg->SetID(MW_GUILDMEMBERLIST_ACK)
; 2375 : 		<< dwCharID
; 2376 : 		<< dwKey;

  0003b	8b 44 24 20	 mov	 eax, DWORD PTR _dwKey$[esp+20]
  0003f	8b 4c 24 1c	 mov	 ecx, DWORD PTR _dwCharID$[esp+20]
  00043	50		 push	 eax
  00044	51		 push	 ecx
  00045	68 3c 20 00 00	 push	 8252			; 0000203cH
  0004a	8b ce		 mov	 ecx, esi
  0004c	c7 44 24 20 ff
	ff ff ff	 mov	 DWORD PTR __$EHRec$[esp+44], -1
  00054	e8 00 00 00 00	 call	 ?SetID@CPacket@@QAEAAV1@G@Z ; CPacket::SetID
  00059	8b c8		 mov	 ecx, eax
  0005b	e8 00 00 00 00	 call	 ??6CPacket@@QAEAAV0@K@Z	; CPacket::operator<<
  00060	8b c8		 mov	 ecx, eax
  00062	e8 00 00 00 00	 call	 ??6CPacket@@QAEAAV0@K@Z	; CPacket::operator<<

; 2377 : 
; 2378 : 	m_world.Say(pMsg);

  00067	8b 97 b8 a3 01
	00		 mov	 edx, DWORD PTR [edi+107448]
  0006d	8d 8f b8 a3 01
	00		 lea	 ecx, DWORD PTR [edi+107448]
  00073	56		 push	 esi
  00074	ff 12		 call	 DWORD PTR [edx]

; 2379 : }

  00076	8b 4c 24 0c	 mov	 ecx, DWORD PTR __$EHRec$[esp+24]
  0007a	5f		 pop	 edi
  0007b	5e		 pop	 esi
  0007c	64 89 0d 00 00
	00 00		 mov	 DWORD PTR fs:__except_list, ecx
  00083	83 c4 10	 add	 esp, 16			; 00000010H
  00086	c2 08 00	 ret	 8
_TEXT	ENDS
;	COMDAT text$x
text$x	SEGMENT
$L184902:
  00000	8b 45 f0	 mov	 eax, DWORD PTR $T184899[ebp]
  00003	50		 push	 eax
  00004	e8 00 00 00 00	 call	 ??3@YAXPAX@Z		; operator delete
  00009	59		 pop	 ecx
  0000a	c3		 ret	 0
__ehhandler$?SendMW_GUILDMEMBERLIST_ACK@CTMapSvrModule@@QAEXKK@Z:
  0000b	b8 00 00 00 00	 mov	 eax, OFFSET FLAT:$T184904
  00010	e9 00 00 00 00	 jmp	 ___CxxFrameHandler
text$x	ENDS
?SendMW_GUILDMEMBERLIST_ACK@CTMapSvrModule@@QAEXKK@Z ENDP ; CTMapSvrModule::SendMW_GUILDMEMBERLIST_ACK
PUBLIC	?SendMW_GUILDINFO_ACK@CTMapSvrModule@@QAEXKK@Z	; CTMapSvrModule::SendMW_GUILDINFO_ACK
;	COMDAT xdata$x
xdata$x	SEGMENT
$T184920 DD	0ffffffffH
	DD	FLAT:$L184916
$T184918 DD	019930520H
	DD	01H
	DD	FLAT:$T184920
	DD	2 DUP(00H)
	DD	2 DUP(00H)
; Function compile flags: /Ogty
xdata$x	ENDS
;	COMDAT ?SendMW_GUILDINFO_ACK@CTMapSvrModule@@QAEXKK@Z
_TEXT	SEGMENT
$T184913 = -16						; size = 4
__$EHRec$ = -12						; size = 12
_dwCharID$ = 8						; size = 4
_dwKEY$ = 12						; size = 4
?SendMW_GUILDINFO_ACK@CTMapSvrModule@@QAEXKK@Z PROC NEAR ; CTMapSvrModule::SendMW_GUILDINFO_ACK, COMDAT
; _this$ = ecx

; 2382 : {

  00000	6a ff		 push	 -1
  00002	68 00 00 00 00	 push	 __ehhandler$?SendMW_GUILDINFO_ACK@CTMapSvrModule@@QAEXKK@Z
  00007	64 a1 00 00 00
	00		 mov	 eax, DWORD PTR fs:__except_list
  0000d	50		 push	 eax
  0000e	64 89 25 00 00
	00 00		 mov	 DWORD PTR fs:__except_list, esp
  00015	51		 push	 ecx
  00016	56		 push	 esi
  00017	57		 push	 edi

; 2383 : 	CPacket * pMsg = new CPacket();

  00018	6a 1c		 push	 28			; 0000001cH
  0001a	8b f9		 mov	 edi, ecx
  0001c	e8 00 00 00 00	 call	 ??2@YAPAXI@Z		; operator new
  00021	83 c4 04	 add	 esp, 4
  00024	89 44 24 08	 mov	 DWORD PTR $T184913[esp+24], eax
  00028	33 f6		 xor	 esi, esi
  0002a	3b c6		 cmp	 eax, esi
  0002c	89 74 24 14	 mov	 DWORD PTR __$EHRec$[esp+32], esi
  00030	74 09		 je	 SHORT $L184915
  00032	8b c8		 mov	 ecx, eax
  00034	e8 00 00 00 00	 call	 ??0CPacket@@QAE@XZ	; CPacket::CPacket
  00039	8b f0		 mov	 esi, eax
$L184915:

; 2384 : 	pMsg->SetID(MW_GUILDINFO_ACK)
; 2385 : 		<< dwCharID
; 2386 : 		<< dwKEY;

  0003b	8b 44 24 20	 mov	 eax, DWORD PTR _dwKEY$[esp+20]
  0003f	8b 4c 24 1c	 mov	 ecx, DWORD PTR _dwCharID$[esp+20]
  00043	50		 push	 eax
  00044	51		 push	 ecx
  00045	68 39 20 00 00	 push	 8249			; 00002039H
  0004a	8b ce		 mov	 ecx, esi
  0004c	c7 44 24 20 ff
	ff ff ff	 mov	 DWORD PTR __$EHRec$[esp+44], -1
  00054	e8 00 00 00 00	 call	 ?SetID@CPacket@@QAEAAV1@G@Z ; CPacket::SetID
  00059	8b c8		 mov	 ecx, eax
  0005b	e8 00 00 00 00	 call	 ??6CPacket@@QAEAAV0@K@Z	; CPacket::operator<<
  00060	8b c8		 mov	 ecx, eax
  00062	e8 00 00 00 00	 call	 ??6CPacket@@QAEAAV0@K@Z	; CPacket::operator<<

; 2387 : 
; 2388 : 	m_world.Say(pMsg);

  00067	8b 97 b8 a3 01
	00		 mov	 edx, DWORD PTR [edi+107448]
  0006d	8d 8f b8 a3 01
	00		 lea	 ecx, DWORD PTR [edi+107448]
  00073	56		 push	 esi
  00074	ff 12		 call	 DWORD PTR [edx]

; 2389 : }

  00076	8b 4c 24 0c	 mov	 ecx, DWORD PTR __$EHRec$[esp+24]
  0007a	5f		 pop	 edi
  0007b	5e		 pop	 esi
  0007c	64 89 0d 00 00
	00 00		 mov	 DWORD PTR fs:__except_list, ecx
  00083	83 c4 10	 add	 esp, 16			; 00000010H
  00086	c2 08 00	 ret	 8
_TEXT	ENDS
;	COMDAT text$x
text$x	SEGMENT
$L184916:
  00000	8b 45 f0	 mov	 eax, DWORD PTR $T184913[ebp]
  00003	50		 push	 eax
  00004	e8 00 00 00 00	 call	 ??3@YAXPAX@Z		; operator delete
  00009	59		 pop	 ecx
  0000a	c3		 ret	 0
__ehhandler$?SendMW_GUILDINFO_ACK@CTMapSvrModule@@QAEXKK@Z:
  0000b	b8 00 00 00 00	 mov	 eax, OFFSET FLAT:$T184918
  00010	e9 00 00 00 00	 jmp	 ___CxxFrameHandler
text$x	ENDS
?SendMW_GUILDINFO_ACK@CTMapSvrModule@@QAEXKK@Z ENDP	; CTMapSvrModule::SendMW_GUILDINFO_ACK
PUBLIC	?SendMW_GUILDCABINETLIST_ACK@CTMapSvrModule@@QAEXKK@Z ; CTMapSvrModule::SendMW_GUILDCABINETLIST_ACK
;	COMDAT xdata$x
xdata$x	SEGMENT
$T184934 DD	0ffffffffH
	DD	FLAT:$L184930
$T184932 DD	019930520H
	DD	01H
	DD	FLAT:$T184934
	DD	2 DUP(00H)
	DD	2 DUP(00H)
; Function compile flags: /Ogty
xdata$x	ENDS
;	COMDAT ?SendMW_GUILDCABINETLIST_ACK@CTMapSvrModule@@QAEXKK@Z
_TEXT	SEGMENT
$T184927 = -16						; size = 4
__$EHRec$ = -12						; size = 12
_dwCharID$ = 8						; size = 4
_dwKEY$ = 12						; size = 4
?SendMW_GUILDCABINETLIST_ACK@CTMapSvrModule@@QAEXKK@Z PROC NEAR ; CTMapSvrModule::SendMW_GUILDCABINETLIST_ACK, COMDAT
; _this$ = ecx

; 2393 : {

  00000	6a ff		 push	 -1
  00002	68 00 00 00 00	 push	 __ehhandler$?SendMW_GUILDCABINETLIST_ACK@CTMapSvrModule@@QAEXKK@Z
  00007	64 a1 00 00 00
	00		 mov	 eax, DWORD PTR fs:__except_list
  0000d	50		 push	 eax
  0000e	64 89 25 00 00
	00 00		 mov	 DWORD PTR fs:__except_list, esp
