; Listing generated by Microsoft (R) Optimizing Compiler Version 13.10.3077 

	TITLE	.\TAICmdLottery.cpp
	.386P
include listing.inc
if @Version gt 510
.model FLAT
else
_TEXT	SEGMENT PARA USE32 PUBLIC 'CODE'
_TEXT	ENDS
_DATA	SEGMENT DWORD USE32 PUBLIC 'DATA'
_DATA	ENDS
CONST	SEGMENT DWORD USE32 PUBLIC 'CONST'
CONST	ENDS
_BSS	SEGMENT DWORD USE32 PUBLIC 'BSS'
_BSS	ENDS
$$SYMBOLS	SEGMENT BYTE USE32 'DEBSYM'
$$SYMBOLS	ENDS
$$TYPES	SEGMENT BYTE USE32 'DEBTYP'
$$TYPES	ENDS
_TLS	SEGMENT DWORD USE32 PUBLIC 'TLS'
_TLS	ENDS
text$yc	SEGMENT PARA USE32 PUBLIC 'CODE'
text$yc	ENDS
CRT$XCA	SEGMENT DWORD USE32 PUBLIC 'DATA'
CRT$XCA	ENDS
CRT$XCU	SEGMENT DWORD USE32 PUBLIC 'DATA'
CRT$XCU	ENDS
CRT$XCL	SEGMENT DWORD USE32 PUBLIC 'DATA'
CRT$XCL	ENDS
CRT$XCC	SEGMENT DWORD USE32 PUBLIC 'DATA'
CRT$XCC	ENDS
CRT$XCZ	SEGMENT DWORD USE32 PUBLIC 'DATA'
CRT$XCZ	ENDS
text$yd	SEGMENT PARA USE32 PUBLIC 'CODE'
text$yd	ENDS
ATL$__m	SEGMENT DWORD USE32 PUBLIC ''
ATL$__m	ENDS
ATL$__z	SEGMENT DWORD USE32 PUBLIC ''
ATL$__z	ENDS
ATL$__a	SEGMENT DWORD USE32 PUBLIC ''
ATL$__a	ENDS
xdata$x	SEGMENT DWORD USE32 PUBLIC 'CONST'
xdata$x	ENDS
;	COMDAT ??0CTAICmdLottery@@QAE@XZ
_TEXT	SEGMENT PARA USE32 PUBLIC 'CODE'
_TEXT	ENDS
;	COMDAT ??_GCTAICmdLottery@@UAEPAXI@Z
_TEXT	SEGMENT PARA USE32 PUBLIC 'CODE'
_TEXT	ENDS
;	COMDAT ??1CTAICmdLottery@@UAE@XZ
_TEXT	SEGMENT PARA USE32 PUBLIC 'CODE'
_TEXT	ENDS
;	COMDAT ?CanRun@CTAICmdLottery@@UAEEPAVCTMonster@@KKE@Z
_TEXT	SEGMENT PARA USE32 PUBLIC 'CODE'
_TEXT	ENDS
;	COMDAT ?ExecAI@CTAICmdLottery@@UAEEPAVCTMonster@@KKE@Z
_TEXT	SEGMENT PARA USE32 PUBLIC 'CODE'
_TEXT	ENDS
;	COMDAT ?end@?$_Tree@V?$_Tmap_traits@EPAVCTItem@@U?$less@E@std@@V?$allocator@U?$pair@$$CBEPAVCTItem@@@std@@@3@$0A@@std@@@std@@QAE?AViterator@12@XZ
_TEXT	SEGMENT PARA USE32 PUBLIC 'CODE'
_TEXT	ENDS
;	COMDAT ?find@?$_Tree@V?$_Tmap_traits@EPAVCTItem@@U?$less@E@std@@V?$allocator@U?$pair@$$CBEPAVCTItem@@@std@@@3@$0A@@std@@@std@@QAE?AViterator@12@ABE@Z
_TEXT	SEGMENT PARA USE32 PUBLIC 'CODE'
_TEXT	ENDS
;	COMDAT ??Diterator@?$_Tree@V?$_Tmap_traits@EPAVCTItem@@U?$less@E@std@@V?$allocator@U?$pair@$$CBEPAVCTItem@@@std@@@3@$0A@@std@@@std@@QBEAAU?$pair@$$CBEPAVCTItem@@@2@XZ
_TEXT	SEGMENT PARA USE32 PUBLIC 'CODE'
_TEXT	ENDS
;	COMDAT ??9const_iterator@?$_Tree@V?$_Tmap_traits@EPAVCTItem@@U?$less@E@std@@V?$allocator@U?$pair@$$CBEPAVCTItem@@@std@@@3@$0A@@std@@@std@@QBE_NABV012@@Z
_TEXT	SEGMENT PARA USE32 PUBLIC 'CODE'
_TEXT	ENDS
;	COMDAT ??R?$less@E@std@@QBE_NABE0@Z
_TEXT	SEGMENT PARA USE32 PUBLIC 'CODE'
_TEXT	ENDS
;	COMDAT ?_Key@?$_Tree@V?$_Tmap_traits@EPAVCTItem@@U?$less@E@std@@V?$allocator@U?$pair@$$CBEPAVCTItem@@@std@@@3@$0A@@std@@@std@@KAABEPAU_Node@?$_Tree_nod@V?$_Tmap_traits@EPAVCTItem@@U?$less@E@std@@V?$allocator@U?$pair@$$CBEPAVCTItem@@@std@@@3@$0A@@std@@@2@@Z
_TEXT	SEGMENT PARA USE32 PUBLIC 'CODE'
_TEXT	ENDS
;	COMDAT ?lower_bound@?$_Tree@V?$_Tmap_traits@EPAVCTItem@@U?$less@E@std@@V?$allocator@U?$pair@$$CBEPAVCTItem@@@std@@@3@$0A@@std@@@std@@QAE?AViterator@12@ABE@Z
_TEXT	SEGMENT PARA USE32 PUBLIC 'CODE'
_TEXT	ENDS
;	COMDAT ??0iterator@?$_Tree@V?$_Tmap_traits@EPAVCTItem@@U?$less@E@std@@V?$allocator@U?$pair@$$CBEPAVCTItem@@@std@@@3@$0A@@std@@@std@@QAE@PAU_Node@?$_Tree_nod@V?$_Tmap_traits@EPAVCTItem@@U?$less@E@std@@V?$allocator@U?$pair@$$CBEPAVCTItem@@@std@@@3@$0A@@std@@@2@@Z
_TEXT	SEGMENT PARA USE32 PUBLIC 'CODE'
_TEXT	ENDS
;	COMDAT ??Dconst_iterator@?$_Tree@V?$_Tmap_traits@EPAVCTItem@@U?$less@E@std@@V?$allocator@U?$pair@$$CBEPAVCTItem@@@std@@@3@$0A@@std@@@std@@QBEABU?$pair@$$CBEPAVCTItem@@@2@XZ
_TEXT	SEGMENT PARA USE32 PUBLIC 'CODE'
_TEXT	ENDS
;	COMDAT ??8const_iterator@?$_Tree@V?$_Tmap_traits@EPAVCTItem@@U?$less@E@std@@V?$allocator@U?$pair@$$CBEPAVCTItem@@@std@@@3@$0A@@std@@@std@@QBE_NABV012@@Z
_TEXT	SEGMENT PARA USE32 PUBLIC 'CODE'
_TEXT	ENDS
;	COMDAT ?_Mynode@const_iterator@?$_Tree@V?$_Tmap_traits@EPAVCTItem@@U?$less@E@std@@V?$allocator@U?$pair@$$CBEPAVCTItem@@@std@@@3@$0A@@std@@@std@@QBEPAU_Node@?$_Tree_nod@V?$_Tmap_traits@EPAVCTItem@@U?$less@E@std@@V?$allocator@U?$pair@$$CBEPAVCTItem@@@std@@@3@$0A@@std@@@3@XZ
_TEXT	SEGMENT PARA USE32 PUBLIC 'CODE'
_TEXT	ENDS
;	COMDAT ?_Myval@?$_Tree@V?$_Tmap_traits@EPAVCTItem@@U?$less@E@std@@V?$allocator@U?$pair@$$CBEPAVCTItem@@@std@@@3@$0A@@std@@@std@@KAAAU?$pair@$$CBEPAVCTItem@@@2@PAU_Node@?$_Tree_nod@V?$_Tmap_traits@EPAVCTItem@@U?$less@E@std@@V?$allocator@U?$pair@$$CBEPAVCTItem@@@std@@@3@$0A@@std@@@2@@Z
_TEXT	SEGMENT PARA USE32 PUBLIC 'CODE'
_TEXT	ENDS
;	COMDAT ?_Lbound@?$_Tree@V?$_Tmap_traits@EPAVCTItem@@U?$less@E@std@@V?$allocator@U?$pair@$$CBEPAVCTItem@@@std@@@3@$0A@@std@@@std@@IBEPAU_Node@?$_Tree_nod@V?$_Tmap_traits@EPAVCTItem@@U?$less@E@std@@V?$allocator@U?$pair@$$CBEPAVCTItem@@@std@@@3@$0A@@std@@@2@ABE@Z
_TEXT	SEGMENT PARA USE32 PUBLIC 'CODE'
_TEXT	ENDS
;	COMDAT ?_Kfn@?$_Tmap_traits@EPAVCTItem@@U?$less@E@std@@V?$allocator@U?$pair@$$CBEPAVCTItem@@@std@@@3@$0A@@std@@SAABEABU?$pair@$$CBEPAVCTItem@@@2@@Z
_TEXT	SEGMENT PARA USE32 PUBLIC 'CODE'
_TEXT	ENDS
;	COMDAT ??0const_iterator@?$_Tree@V?$_Tmap_traits@EPAVCTItem@@U?$less@E@std@@V?$allocator@U?$pair@$$CBEPAVCTItem@@@std@@@3@$0A@@std@@@std@@QAE@PAU_Node@?$_Tree_nod@V?$_Tmap_traits@EPAVCTItem@@U?$less@E@std@@V?$allocator@U?$pair@$$CBEPAVCTItem@@@std@@@3@$0A@@std@@@2@@Z
_TEXT	SEGMENT PARA USE32 PUBLIC 'CODE'
_TEXT	ENDS
;	COMDAT ?_Isnil@?$_Tree@V?$_Tmap_traits@EPAVCTItem@@U?$less@E@std@@V?$allocator@U?$pair@$$CBEPAVCTItem@@@std@@@3@$0A@@std@@@std@@KAAADPAU_Node@?$_Tree_nod@V?$_Tmap_traits@EPAVCTItem@@U?$less@E@std@@V?$allocator@U?$pair@$$CBEPAVCTItem@@@std@@@3@$0A@@std@@@2@@Z
_TEXT	SEGMENT PARA USE32 PUBLIC 'CODE'
_TEXT	ENDS
;	COMDAT ?_Left@?$_Tree@V?$_Tmap_traits@EPAVCTItem@@U?$less@E@std@@V?$allocator@U?$pair@$$CBEPAVCTItem@@@std@@@3@$0A@@std@@@std@@KAAAPAU_Node@?$_Tree_nod@V?$_Tmap_traits@EPAVCTItem@@U?$less@E@std@@V?$allocator@U?$pair@$$CBEPAVCTItem@@@std@@@3@$0A@@std@@@2@PAU342@@Z
_TEXT	SEGMENT PARA USE32 PUBLIC 'CODE'
_TEXT	ENDS
;	COMDAT ?_Right@?$_Tree@V?$_Tmap_traits@EPAVCTItem@@U?$less@E@std@@V?$allocator@U?$pair@$$CBEPAVCTItem@@@std@@@3@$0A@@std@@@std@@KAAAPAU_Node@?$_Tree_nod@V?$_Tmap_traits@EPAVCTItem@@U?$less@E@std@@V?$allocator@U?$pair@$$CBEPAVCTItem@@@std@@@3@$0A@@std@@@2@PAU342@@Z
_TEXT	SEGMENT PARA USE32 PUBLIC 'CODE'
_TEXT	ENDS
;	COMDAT ?_Root@?$_Tree@V?$_Tmap_traits@EPAVCTItem@@U?$less@E@std@@V?$allocator@U?$pair@$$CBEPAVCTItem@@@std@@@3@$0A@@std@@@std@@IBEAAPAU_Node@?$_Tree_nod@V?$_Tmap_traits@EPAVCTItem@@U?$less@E@std@@V?$allocator@U?$pair@$$CBEPAVCTItem@@@std@@@3@$0A@@std@@@2@XZ
_TEXT	SEGMENT PARA USE32 PUBLIC 'CODE'
_TEXT	ENDS
;	COMDAT ?_Parent@?$_Tree@V?$_Tmap_traits@EPAVCTItem@@U?$less@E@std@@V?$allocator@U?$pair@$$CBEPAVCTItem@@@std@@@3@$0A@@std@@@std@@KAAAPAU_Node@?$_Tree_nod@V?$_Tmap_traits@EPAVCTItem@@U?$less@E@std@@V?$allocator@U?$pair@$$CBEPAVCTItem@@@std@@@3@$0A@@std@@@2@PAU342@@Z
_TEXT	SEGMENT PARA USE32 PUBLIC 'CODE'
_TEXT	ENDS
;	COMDAT ?Unlock@?$CComCritSecLock@VCComCriticalSection@ATL@@@ATL@@QAEXXZ
_TEXT	SEGMENT PARA USE32 PUBLIC 'CODE'
_TEXT	ENDS
;	COMDAT ??$_Uninit_fill_n@GIG@std@@YAXPAGIABGAAV?$allocator@G@0@U_Scalar_ptr_iterator_tag@0@@Z
_TEXT	SEGMENT PARA USE32 PUBLIC 'CODE'
_TEXT	ENDS
;	COMDAT ??$_Ptr_cat@UtagTAICONDITION@@@std@@YA?AU_Scalar_ptr_iterator_tag@0@PAPAUtagTAICONDITION@@0@Z
_TEXT	SEGMENT PARA USE32 PUBLIC 'CODE'
_TEXT	ENDS
;	COMDAT ??$_Destroy_range@PAUtagTAICONDITION@@V?$allocator@PAUtagTAICONDITION@@@std@@@std@@YAXPAPAUtagTAICONDITION@@0AAV?$allocator@PAUtagTAICONDITION@@@0@U_Scalar_ptr_iterator_tag@0@@Z
_TEXT	SEGMENT PARA USE32 PUBLIC 'CODE'
_TEXT	ENDS
;	COMDAT ??$_Ptr_cat@UtagTMONITEM@@@std@@YA?AU_Scalar_ptr_iterator_tag@0@PAPAUtagTMONITEM@@0@Z
_TEXT	SEGMENT PARA USE32 PUBLIC 'CODE'
_TEXT	ENDS
;	COMDAT ??$_Destroy_range@PAUtagTMONITEM@@V?$allocator@PAUtagTMONITEM@@@std@@@std@@YAXPAPAUtagTMONITEM@@0AAV?$allocator@PAUtagTMONITEM@@@0@U_Scalar_ptr_iterator_tag@0@@Z
_TEXT	SEGMENT PARA USE32 PUBLIC 'CODE'
_TEXT	ENDS
;	COMDAT ??$_Ptr_cat@UtagTMAPMON@@@std@@YA?AU_Scalar_ptr_iterator_tag@0@PAPAUtagTMAPMON@@0@Z
_TEXT	SEGMENT PARA USE32 PUBLIC 'CODE'
_TEXT	ENDS
;	COMDAT ??$_Destroy_range@PAUtagTMAPMON@@V?$allocator@PAUtagTMAPMON@@@std@@@std@@YAXPAPAUtagTMAPMON@@0AAV?$allocator@PAUtagTMAPMON@@@0@U_Scalar_ptr_iterator_tag@0@@Z
_TEXT	SEGMENT PARA USE32 PUBLIC 'CODE'
_TEXT	ENDS
;	COMDAT ??$_Ptr_cat@UtagPATHPOINT@@@std@@YA?AU_Scalar_ptr_iterator_tag@0@PAPAUtagPATHPOINT@@0@Z
_TEXT	SEGMENT PARA USE32 PUBLIC 'CODE'
_TEXT	ENDS
;	COMDAT ??$_Destroy_range@PAUtagPATHPOINT@@V?$allocator@PAUtagPATHPOINT@@@std@@@std@@YAXPAPAUtagPATHPOINT@@0AAV?$allocator@PAUtagPATHPOINT@@@0@U_Scalar_ptr_iterator_tag@0@@Z
_TEXT	SEGMENT PARA USE32 PUBLIC 'CODE'
_TEXT	ENDS
;	COMDAT ??$_Ptr_cat@UtagQUESTCONDITION@@@std@@YA?AU_Scalar_ptr_iterator_tag@0@PAPAUtagQUESTCONDITION@@0@Z
_TEXT	SEGMENT PARA USE32 PUBLIC 'CODE'
_TEXT	ENDS
;	COMDAT ??$_Destroy_range@PAUtagQUESTCONDITION@@V?$allocator@PAUtagQUESTCONDITION@@@std@@@std@@YAXPAPAUtagQUESTCONDITION@@0AAV?$allocator@PAUtagQUESTCONDITION@@@0@U_Scalar_ptr_iterator_tag@0@@Z
_TEXT	SEGMENT PARA USE32 PUBLIC 'CODE'
_TEXT	ENDS
;	COMDAT ??$_Ptr_cat@UtagQUESTREWARD@@@std@@YA?AU_Scalar_ptr_iterator_tag@0@PAPAUtagQUESTREWARD@@0@Z
_TEXT	SEGMENT PARA USE32 PUBLIC 'CODE'
_TEXT	ENDS
;	COMDAT ??$_Destroy_range@PAUtagQUESTREWARD@@V?$allocator@PAUtagQUESTREWARD@@@std@@@std@@YAXPAPAUtagQUESTREWARD@@0AAV?$allocator@PAUtagQUESTREWARD@@@0@U_Scalar_ptr_iterator_tag@0@@Z
_TEXT	SEGMENT PARA USE32 PUBLIC 'CODE'
_TEXT	ENDS
;	COMDAT ??$_Ptr_cat@UtagQUESTTERM@@@std@@YA?AU_Scalar_ptr_iterator_tag@0@PAPAUtagQUESTTERM@@0@Z
_TEXT	SEGMENT PARA USE32 PUBLIC 'CODE'
_TEXT	ENDS
;	COMDAT ??$_Destroy_range@PAUtagQUESTTERM@@V?$allocator@PAUtagQUESTTERM@@@std@@@std@@YAXPAPAUtagQUESTTERM@@0AAV?$allocator@PAUtagQUESTTERM@@@0@U_Scalar_ptr_iterator_tag@0@@Z
_TEXT	SEGMENT PARA USE32 PUBLIC 'CODE'
_TEXT	ENDS
;	COMDAT ??$_Ptr_cat@PAUtagTCASHITMSALE@@PAU1@@std@@YA?AU_Nonscalar_ptr_iterator_tag@0@AAPAUtagTCASHITMSALE@@0@Z
_TEXT	SEGMENT PARA USE32 PUBLIC 'CODE'
_TEXT	ENDS
;	COMDAT ??$_Uninit_fill_n@PAUtagTCASHITMSALE@@IU1@V?$allocator@UtagTCASHITMSALE@@@std@@@std@@YAXPAUtagTCASHITMSALE@@IABU1@AAV?$allocator@UtagTCASHITMSALE@@@0@U_Nonscalar_ptr_iterator_tag@0@@Z
_TEXT	SEGMENT PARA USE32 PUBLIC 'CODE'
_TEXT	ENDS
;	COMDAT ??$_Ptr_cat@PAUtagMONREGEN@@PAU1@@std@@YA?AU_Nonscalar_ptr_iterator_tag@0@AAPAUtagMONREGEN@@0@Z
_TEXT	SEGMENT PARA USE32 PUBLIC 'CODE'
_TEXT	ENDS
;	COMDAT ??$_Uninit_fill_n@PAUtagMONREGEN@@IU1@V?$allocator@UtagMONREGEN@@@std@@@std@@YAXPAUtagMONREGEN@@IABU1@AAV?$allocator@UtagMONREGEN@@@0@U_Nonscalar_ptr_iterator_tag@0@@Z
_TEXT	SEGMENT PARA USE32 PUBLIC 'CODE'
_TEXT	ENDS
;	COMDAT ??$_Ptr_cat@PAUtagLOTTERY@@PAU1@@std@@YA?AU_Nonscalar_ptr_iterator_tag@0@AAPAUtagLOTTERY@@0@Z
_TEXT	SEGMENT PARA USE32 PUBLIC 'CODE'
_TEXT	ENDS
;	COMDAT ??$_Uninit_fill_n@PAUtagLOTTERY@@IU1@V?$allocator@UtagLOTTERY@@@std@@@std@@YAXPAUtagLOTTERY@@IABU1@AAV?$allocator@UtagLOTTERY@@@0@U_Nonscalar_ptr_iterator_tag@0@@Z
_TEXT	SEGMENT PARA USE32 PUBLIC 'CODE'
_TEXT	ENDS
;	COMDAT ??$_Destroy_range@GV?$allocator@G@std@@@std@@YAXPAG0AAV?$allocator@G@0@U_Scalar_ptr_iterator_tag@0@@Z
_TEXT	SEGMENT PARA USE32 PUBLIC 'CODE'
_TEXT	ENDS
;	COMDAT ??$_Uninitialized_copy@PAGPAGV?$allocator@G@std@@@std@@YAPAGPAG00AAV?$allocator@G@0@@Z
_TEXT	SEGMENT PARA USE32 PUBLIC 'CODE'
_TEXT	ENDS
;	COMDAT ??$_Copy_backward_opt@PAGPAG@std@@YAPAGPAG00U_Scalar_ptr_iterator_tag@0@@Z
_TEXT	SEGMENT PARA USE32 PUBLIC 'CODE'
_TEXT	ENDS
;	COMDAT ??$_Ptr_cat@VCTPlayer@@@std@@YA?AU_Scalar_ptr_iterator_tag@0@PAPAVCTPlayer@@0@Z
_TEXT	SEGMENT PARA USE32 PUBLIC 'CODE'
_TEXT	ENDS
;	COMDAT ??$_Destroy_range@PAVCTPlayer@@V?$allocator@PAVCTPlayer@@@std@@@std@@YAXPAPAVCTPlayer@@0AAV?$allocator@PAVCTPlayer@@@0@U_Scalar_ptr_iterator_tag@0@@Z
_TEXT	SEGMENT PARA USE32 PUBLIC 'CODE'
_TEXT	ENDS
;	COMDAT ??$_Destroy_range@UtagTCASHITMSALE@@V?$allocator@UtagTCASHITMSALE@@@std@@@std@@YAXPAUtagTCASHITMSALE@@0AAV?$allocator@UtagTCASHITMSALE@@@0@U_Nonscalar_ptr_iterator_tag@0@@Z
_TEXT	SEGMENT PARA USE32 PUBLIC 'CODE'
_TEXT	ENDS
;	COMDAT ??$_Uninitialized_copy@PAUtagTCASHITMSALE@@PAU1@V?$allocator@UtagTCASHITMSALE@@@std@@@std@@YAPAUtagTCASHITMSALE@@PAU1@00AAV?$allocator@UtagTCASHITMSALE@@@0@@Z
_TEXT	SEGMENT PARA USE32 PUBLIC 'CODE'
_TEXT	ENDS
;	COMDAT ??$_Copy_backward_opt@PAUtagTCASHITMSALE@@PAU1@@std@@YAPAUtagTCASHITMSALE@@PAU1@00U_Nonscalar_ptr_iterator_tag@0@@Z
_TEXT	SEGMENT PARA USE32 PUBLIC 'CODE'
_TEXT	ENDS
;	COMDAT ??$_Destroy_range@UtagMONREGEN@@V?$allocator@UtagMONREGEN@@@std@@@std@@YAXPAUtagMONREGEN@@0AAV?$allocator@UtagMONREGEN@@@0@U_Nonscalar_ptr_iterator_tag@0@@Z
_TEXT	SEGMENT PARA USE32 PUBLIC 'CODE'
_TEXT	ENDS
;	COMDAT ??$_Uninitialized_copy@PAUtagMONREGEN@@PAU1@V?$allocator@UtagMONREGEN@@@std@@@std@@YAPAUtagMONREGEN@@PAU1@00AAV?$allocator@UtagMONREGEN@@@0@@Z
_TEXT	SEGMENT PARA USE32 PUBLIC 'CODE'
_TEXT	ENDS
;	COMDAT ??$_Copy_backward_opt@PAUtagMONREGEN@@PAU1@@std@@YAPAUtagMONREGEN@@PAU1@00U_Nonscalar_ptr_iterator_tag@0@@Z
_TEXT	SEGMENT PARA USE32 PUBLIC 'CODE'
_TEXT	ENDS
;	COMDAT ??$_Destroy_range@UtagLOTTERY@@V?$allocator@UtagLOTTERY@@@std@@@std@@YAXPAUtagLOTTERY@@0AAV?$allocator@UtagLOTTERY@@@0@U_Nonscalar_ptr_iterator_tag@0@@Z
_TEXT	SEGMENT PARA USE32 PUBLIC 'CODE'
_TEXT	ENDS
;	COMDAT ??$_Uninitialized_copy@PAUtagLOTTERY@@PAU1@V?$allocator@UtagLOTTERY@@@std@@@std@@YAPAUtagLOTTERY@@PAU1@00AAV?$allocator@UtagLOTTERY@@@0@@Z
_TEXT	SEGMENT PARA USE32 PUBLIC 'CODE'
_TEXT	ENDS
;	COMDAT ??$_Copy_backward_opt@PAUtagLOTTERY@@PAU1@@std@@YAPAUtagLOTTERY@@PAU1@00U_Nonscalar_ptr_iterator_tag@0@@Z
_TEXT	SEGMENT PARA USE32 PUBLIC 'CODE'
_TEXT	ENDS
;	COMDAT ?construct@?$allocator@UtagTCASHITMSALE@@@std@@QAEXPAUtagTCASHITMSALE@@ABU3@@Z
_TEXT	SEGMENT PARA USE32 PUBLIC 'CODE'
_TEXT	ENDS
;	COMDAT ?destroy@?$allocator@UtagTCASHITMSALE@@@std@@QAEXPAUtagTCASHITMSALE@@@Z
_TEXT	SEGMENT PARA USE32 PUBLIC 'CODE'
_TEXT	ENDS
;	COMDAT ?construct@?$allocator@UtagMONREGEN@@@std@@QAEXPAUtagMONREGEN@@ABU3@@Z
_TEXT	SEGMENT PARA USE32 PUBLIC 'CODE'
_TEXT	ENDS
;	COMDAT ?destroy@?$allocator@UtagMONREGEN@@@std@@QAEXPAUtagMONREGEN@@@Z
_TEXT	SEGMENT PARA USE32 PUBLIC 'CODE'
_TEXT	ENDS
;	COMDAT ?construct@?$allocator@UtagLOTTERY@@@std@@QAEXPAUtagLOTTERY@@ABU3@@Z
_TEXT	SEGMENT PARA USE32 PUBLIC 'CODE'
_TEXT	ENDS
;	COMDAT ?destroy@?$allocator@UtagLOTTERY@@@std@@QAEXPAUtagLOTTERY@@@Z
_TEXT	SEGMENT PARA USE32 PUBLIC 'CODE'
_TEXT	ENDS
;	COMDAT ??$fill_n@PAGIG@std@@YAXPAGIABG@Z
_TEXT	SEGMENT PARA USE32 PUBLIC 'CODE'
_TEXT	ENDS
;	COMDAT ??$_Uninit_copy@GG@std@@YAPAGPAG00AAV?$allocator@G@0@U_Scalar_ptr_iterator_tag@0@@Z
_TEXT	SEGMENT PARA USE32 PUBLIC 'CODE'
_TEXT	ENDS
;	COMDAT ??$_Uninit_copy@PAUtagTCASHITMSALE@@PAU1@V?$allocator@UtagTCASHITMSALE@@@std@@@std@@YAPAUtagTCASHITMSALE@@PAU1@00AAV?$allocator@UtagTCASHITMSALE@@@0@U_Nonscalar_ptr_iterator_tag@0@@Z
_TEXT	SEGMENT PARA USE32 PUBLIC 'CODE'
_TEXT	ENDS
;	COMDAT ??$_Uninit_copy@PAUtagMONREGEN@@PAU1@V?$allocator@UtagMONREGEN@@@std@@@std@@YAPAUtagMONREGEN@@PAU1@00AAV?$allocator@UtagMONREGEN@@@0@U_Nonscalar_ptr_iterator_tag@0@@Z
_TEXT	SEGMENT PARA USE32 PUBLIC 'CODE'
_TEXT	ENDS
;	COMDAT ??$_Uninit_copy@PAUtagLOTTERY@@PAU1@V?$allocator@UtagLOTTERY@@@std@@@std@@YAPAUtagLOTTERY@@PAU1@00AAV?$allocator@UtagLOTTERY@@@0@U_Nonscalar_ptr_iterator_tag@0@@Z
_TEXT	SEGMENT PARA USE32 PUBLIC 'CODE'
_TEXT	ENDS
;	COMDAT ??$_Construct@UtagTCASHITMSALE@@U1@@std@@YAXPAUtagTCASHITMSALE@@ABU1@@Z
_TEXT	SEGMENT PARA USE32 PUBLIC 'CODE'
_TEXT	ENDS
;	COMDAT ??$_Destroy@UtagTCASHITMSALE@@@std@@YAXPAUtagTCASHITMSALE@@@Z
_TEXT	SEGMENT PARA USE32 PUBLIC 'CODE'
_TEXT	ENDS
;	COMDAT ??$_Construct@UtagMONREGEN@@U1@@std@@YAXPAUtagMONREGEN@@ABU1@@Z
_TEXT	SEGMENT PARA USE32 PUBLIC 'CODE'
_TEXT	ENDS
;	COMDAT ??$_Destroy@UtagMONREGEN@@@std@@YAXPAUtagMONREGEN@@@Z
_TEXT	SEGMENT PARA USE32 PUBLIC 'CODE'
_TEXT	ENDS
;	COMDAT ??$_Construct@UtagLOTTERY@@U1@@std@@YAXPAUtagLOTTERY@@ABU1@@Z
_TEXT	SEGMENT PARA USE32 PUBLIC 'CODE'
_TEXT	ENDS
;	COMDAT ??$_Destroy@UtagLOTTERY@@@std@@YAXPAUtagLOTTERY@@@Z
_TEXT	SEGMENT PARA USE32 PUBLIC 'CODE'
_TEXT	ENDS
;	COMDAT ??2@YAPAXIPAX@Z
_TEXT	SEGMENT PARA USE32 PUBLIC 'CODE'
_TEXT	ENDS
;	COMDAT ?_Ptr_cat@std@@YA?AU_Scalar_ptr_iterator_tag@1@PAG0@Z
_TEXT	SEGMENT PARA USE32 PUBLIC 'CODE'
_TEXT	ENDS
;	COMDAT ?_Psave@?$_Facetptr@V?$ctype@G@std@@@std@@2PBVfacet@locale@2@B
_DATA	SEGMENT DWORD USE32 PUBLIC 'DATA'
_DATA	ENDS
;	COMDAT ?_Psave@?$_Facetptr@V?$ctype@D@std@@@std@@2PBVfacet@locale@2@B
_DATA	SEGMENT DWORD USE32 PUBLIC 'DATA'
_DATA	ENDS
;	COMDAT ?Unlock@CComCriticalSection@ATL@@QAEJXZ
_TEXT	SEGMENT PARA USE32 PUBLIC 'CODE'
_TEXT	ENDS
;	COMDAT ??_7CTAICmdLottery@@6B@
CONST	SEGMENT DWORD USE32 PUBLIC 'CONST'
CONST	ENDS
sxdata	SEGMENT DWORD USE32 'SXDATA'
sxdata	ENDS
FLAT	GROUP _DATA, CONST, _BSS
	ASSUME	CS: FLAT, DS: FLAT, SS: FLAT
endif

INCLUDELIB LIBCMT
INCLUDELIB OLDNAMES

PUBLIC	?CanRun@CTAICmdLottery@@UAEEPAVCTMonster@@KKE@Z	; CTAICmdLottery::CanRun
PUBLIC	?ExecAI@CTAICmdLottery@@UAEEPAVCTMonster@@KKE@Z	; CTAICmdLottery::ExecAI
PUBLIC	??0CTAICmdLottery@@QAE@XZ			; CTAICmdLottery::CTAICmdLottery
PUBLIC	??_7CTAICmdLottery@@6B@				; CTAICmdLottery::`vftable'
PUBLIC	??_GCTAICmdLottery@@UAEPAXI@Z			; CTAICmdLottery::`scalar deleting destructor'
EXTRN	?GetDelay@CTAICommand@@UAEKPAVCTMonster@@KKE@Z:NEAR ; CTAICommand::GetDelay
EXTRN	?CheckCondition@CTAICommand@@UAEEPAUtagTAICONDITION@@PAVCTMonster@@KKE@Z:NEAR ; CTAICommand::CheckCondition
EXTRN	??0CTAICommand@@QAE@XZ:NEAR			; CTAICommand::CTAICommand
EXTRN	??_ECTAICmdLottery@@UAEPAXI@Z:NEAR		; CTAICmdLottery::`vector deleting destructor'
;	COMDAT ??_7CTAICmdLottery@@6B@
; File c:\users\pierr\desktop\4story - oldschool\sources\tserver\tmapsvr\taicmdlottery.cpp
CONST	SEGMENT
??_7CTAICmdLottery@@6B@ DD FLAT:?GetDelay@CTAICommand@@UAEKPAVCTMonster@@KKE@Z ; CTAICmdLottery::`vftable'
	DD	FLAT:?CanRun@CTAICmdLottery@@UAEEPAVCTMonster@@KKE@Z
	DD	FLAT:?ExecAI@CTAICmdLottery@@UAEEPAVCTMonster@@KKE@Z
	DD	FLAT:?CheckCondition@CTAICommand@@UAEEPAUtagTAICONDITION@@PAVCTMonster@@KKE@Z
	DD	FLAT:??_ECTAICmdLottery@@UAEPAXI@Z
; Function compile flags: /Ogty
CONST	ENDS
;	COMDAT ??0CTAICmdLottery@@QAE@XZ
_TEXT	SEGMENT
??0CTAICmdLottery@@QAE@XZ PROC NEAR			; CTAICmdLottery::CTAICmdLottery, COMDAT
; _this$ = ecx

; 4    : {

  00000	56		 push	 esi
  00001	8b f1		 mov	 esi, ecx
  00003	e8 00 00 00 00	 call	 ??0CTAICommand@@QAE@XZ	; CTAICommand::CTAICommand
  00008	c7 06 00 00 00
	00		 mov	 DWORD PTR [esi], OFFSET FLAT:??_7CTAICmdLottery@@6B@

; 5    : }

  0000e	8b c6		 mov	 eax, esi
  00010	5e		 pop	 esi
  00011	c3		 ret	 0
??0CTAICmdLottery@@QAE@XZ ENDP				; CTAICmdLottery::CTAICmdLottery
_TEXT	ENDS
PUBLIC	??1CTAICmdLottery@@UAE@XZ			; CTAICmdLottery::~CTAICmdLottery
EXTRN	??1CTAICommand@@UAE@XZ:NEAR			; CTAICommand::~CTAICommand
; Function compile flags: /Ogty
;	COMDAT ??1CTAICmdLottery@@UAE@XZ
_TEXT	SEGMENT
??1CTAICmdLottery@@UAE@XZ PROC NEAR			; CTAICmdLottery::~CTAICmdLottery, COMDAT
; _this$ = ecx

; 8    : {

  00000	c7 01 00 00 00
	00		 mov	 DWORD PTR [ecx], OFFSET FLAT:??_7CTAICmdLottery@@6B@

; 9    : }

  00006	e9 00 00 00 00	 jmp	 ??1CTAICommand@@UAE@XZ	; CTAICommand::~CTAICommand
??1CTAICmdLottery@@UAE@XZ ENDP				; CTAICmdLottery::~CTAICmdLottery
_TEXT	ENDS
EXTRN	?CanRun@CTAICommand@@UAEEPAVCTMonster@@KKE@Z:NEAR ; CTAICommand::CanRun
; Function compile flags: /Ogty
;	COMDAT ?CanRun@CTAICmdLottery@@UAEEPAVCTMonster@@KKE@Z
_TEXT	SEGMENT
_pMON$ = 8						; size = 4
_dwEventHost$ = 12					; size = 4
_dwRHId$ = 16						; size = 4
_bRHType$ = 20						; size = 1
?CanRun@CTAICmdLottery@@UAEEPAVCTMonster@@KKE@Z PROC NEAR ; CTAICmdLottery::CanRun, COMDAT
; _this$ = ecx

; 13   : 	if( pMON->m_bStatus != OS_DEAD )

  00000	8b 44 24 04	 mov	 eax, DWORD PTR _pMON$[esp-4]
  00004	80 b8 cc 00 00
	00 03		 cmp	 BYTE PTR [eax+204], 3
  0000b	74 05		 je	 SHORT $L152242

; 14   : 		return FALSE;

  0000d	32 c0		 xor	 al, al

; 17   : }

  0000f	c2 10 00	 ret	 16			; 00000010H
$L152242:

; 15   : 
; 16   : 	return CTAICommand::CanRun( pMON, dwEventHost, dwRHId, bRHType);

  00012	89 44 24 04	 mov	 DWORD PTR _pMON$[esp-4], eax
  00016	e9 00 00 00 00	 jmp	 ?CanRun@CTAICommand@@UAEEPAVCTMonster@@KKE@Z ; CTAICommand::CanRun
?CanRun@CTAICmdLottery@@UAEEPAVCTMonster@@KKE@Z ENDP	; CTAICmdLottery::CanRun
_TEXT	ENDS
PUBLIC	??R?$less@E@std@@QBE_NABE0@Z			; std::less<unsigned char>::operator()
; Function compile flags: /Ogty
; File c:\program files (x86)\microsoft visual studio .net 2003\vc7\include\functional
;	COMDAT ??R?$less@E@std@@QBE_NABE0@Z
_TEXT	SEGMENT
__Left$ = 8						; size = 4
__Right$ = 12						; size = 4
??R?$less@E@std@@QBE_NABE0@Z PROC NEAR			; std::less<unsigned char>::operator(), COMDAT
; _this$ = ecx

; 139  : 		return (_Left < _Right);

  00000	8b 44 24 04	 mov	 eax, DWORD PTR __Left$[esp-4]
  00004	8a 08		 mov	 cl, BYTE PTR [eax]
  00006	8b 54 24 08	 mov	 edx, DWORD PTR __Right$[esp-4]
  0000a	33 c0		 xor	 eax, eax
  0000c	3a 0a		 cmp	 cl, BYTE PTR [edx]
  0000e	1b c0		 sbb	 eax, eax
  00010	f7 d8		 neg	 eax

; 140  : 		}

  00012	c2 08 00	 ret	 8
??R?$less@E@std@@QBE_NABE0@Z ENDP			; std::less<unsigned char>::operator()
_TEXT	ENDS
PUBLIC	??8const_iterator@?$_Tree@V?$_Tmap_traits@EPAVCTItem@@U?$less@E@std@@V?$allocator@U?$pair@$$CBEPAVCTItem@@@std@@@3@$0A@@std@@@std@@QBE_NABV012@@Z ; std::_Tree<std::_Tmap_traits<unsigned char,CTItem *,std::less<unsigned char>,std::allocator<std::pair<unsigned char const ,CTItem *> >,0> >::const_iterator::operator==
; Function compile flags: /Ogty
; File c:\program files (x86)\microsoft visual studio .net 2003\vc7\include\xtree
;	COMDAT ??8const_iterator@?$_Tree@V?$_Tmap_traits@EPAVCTItem@@U?$less@E@std@@V?$allocator@U?$pair@$$CBEPAVCTItem@@@std@@@3@$0A@@std@@@std@@QBE_NABV012@@Z
_TEXT	SEGMENT
__Right$ = 8						; size = 4
??8const_iterator@?$_Tree@V?$_Tmap_traits@EPAVCTItem@@U?$less@E@std@@V?$allocator@U?$pair@$$CBEPAVCTItem@@@std@@@3@$0A@@std@@@std@@QBE_NABV012@@Z PROC NEAR ; std::_Tree<std::_Tmap_traits<unsigned char,CTItem *,std::less<unsigned char>,std::allocator<std::pair<unsigned char const ,CTItem *> >,0> >::const_iterator::operator==, COMDAT
; _this$ = ecx

; 241  : 			return (_Ptr == _Right._Ptr);

  00000	8b 01		 mov	 eax, DWORD PTR [ecx]
  00002	8b 4c 24 04	 mov	 ecx, DWORD PTR __Right$[esp-4]
  00006	2b 01		 sub	 eax, DWORD PTR [ecx]
  00008	f7 d8		 neg	 eax
  0000a	1b c0		 sbb	 eax, eax
  0000c	40		 inc	 eax

; 242  : 			}

  0000d	c2 04 00	 ret	 4
??8const_iterator@?$_Tree@V?$_Tmap_traits@EPAVCTItem@@U?$less@E@std@@V?$allocator@U?$pair@$$CBEPAVCTItem@@@std@@@3@$0A@@std@@@std@@QBE_NABV012@@Z ENDP ; std::_Tree<std::_Tmap_traits<unsigned char,CTItem *,std::less<unsigned char>,std::allocator<std::pair<unsigned char const ,CTItem *> >,0> >::const_iterator::operator==
_TEXT	ENDS
PUBLIC	?_Mynode@const_iterator@?$_Tree@V?$_Tmap_traits@EPAVCTItem@@U?$less@E@std@@V?$allocator@U?$pair@$$CBEPAVCTItem@@@std@@@3@$0A@@std@@@std@@QBEPAU_Node@?$_Tree_nod@V?$_Tmap_traits@EPAVCTItem@@U?$less@E@std@@V?$allocator@U?$pair@$$CBEPAVCTItem@@@std@@@3@$0A@@std@@@3@XZ ; std::_Tree<std::_Tmap_traits<unsigned char,CTItem *,std::less<unsigned char>,std::allocator<std::pair<unsigned char const ,CTItem *> >,0> >::const_iterator::_Mynode
; Function compile flags: /Ogty
;	COMDAT ?_Mynode@const_iterator@?$_Tree@V?$_Tmap_traits@EPAVCTItem@@U?$less@E@std@@V?$allocator@U?$pair@$$CBEPAVCTItem@@@std@@@3@$0A@@std@@@std@@QBEPAU_Node@?$_Tree_nod@V?$_Tmap_traits@EPAVCTItem@@U?$less@E@std@@V?$allocator@U?$pair@$$CBEPAVCTItem@@@std@@@3@$0A@@std@@@3@XZ
_TEXT	SEGMENT
?_Mynode@const_iterator@?$_Tree@V?$_Tmap_traits@EPAVCTItem@@U?$less@E@std@@V?$allocator@U?$pair@$$CBEPAVCTItem@@@std@@@3@$0A@@std@@@std@@QBEPAU_Node@?$_Tree_nod@V?$_Tmap_traits@EPAVCTItem@@U?$less@E@std@@V?$allocator@U?$pair@$$CBEPAVCTItem@@@std@@@3@$0A@@std@@@3@XZ PROC NEAR ; std::_Tree<std::_Tmap_traits<unsigned char,CTItem *,std::less<unsigned char>,std::allocator<std::pair<unsigned char const ,CTItem *> >,0> >::const_iterator::_Mynode, COMDAT
; _this$ = ecx

; 284  : 			return (_Ptr);

  00000	8b 01		 mov	 eax, DWORD PTR [ecx]

; 285  : 			}

  00002	c3		 ret	 0
?_Mynode@const_iterator@?$_Tree@V?$_Tmap_traits@EPAVCTItem@@U?$less@E@std@@V?$allocator@U?$pair@$$CBEPAVCTItem@@@std@@@3@$0A@@std@@@std@@QBEPAU_Node@?$_Tree_nod@V?$_Tmap_traits@EPAVCTItem@@U?$less@E@std@@V?$allocator@U?$pair@$$CBEPAVCTItem@@@std@@@3@$0A@@std@@@3@XZ ENDP ; std::_Tree<std::_Tmap_traits<unsigned char,CTItem *,std::less<unsigned char>,std::allocator<std::pair<unsigned char const ,CTItem *> >,0> >::const_iterator::_Mynode
_TEXT	ENDS
PUBLIC	?_Myval@?$_Tree@V?$_Tmap_traits@EPAVCTItem@@U?$less@E@std@@V?$allocator@U?$pair@$$CBEPAVCTItem@@@std@@@3@$0A@@std@@@std@@KAAAU?$pair@$$CBEPAVCTItem@@@2@PAU_Node@?$_Tree_nod@V?$_Tmap_traits@EPAVCTItem@@U?$less@E@std@@V?$allocator@U?$pair@$$CBEPAVCTItem@@@std@@@3@$0A@@std@@@2@@Z ; std::_Tree<std::_Tmap_traits<unsigned char,CTItem *,std::less<unsigned char>,std::allocator<std::pair<unsigned char const ,CTItem *> >,0> >::_Myval
; Function compile flags: /Ogty
;	COMDAT ?_Myval@?$_Tree@V?$_Tmap_traits@EPAVCTItem@@U?$less@E@std@@V?$allocator@U?$pair@$$CBEPAVCTItem@@@std@@@3@$0A@@std@@@std@@KAAAU?$pair@$$CBEPAVCTItem@@@2@PAU_Node@?$_Tree_nod@V?$_Tmap_traits@EPAVCTItem@@U?$less@E@std@@V?$allocator@U?$pair@$$CBEPAVCTItem@@@std@@@3@$0A@@std@@@2@@Z
_TEXT	SEGMENT
__Pnode$ = 8						; size = 4
?_Myval@?$_Tree@V?$_Tmap_traits@EPAVCTItem@@U?$less@E@std@@V?$allocator@U?$pair@$$CBEPAVCTItem@@@std@@@3@$0A@@std@@@std@@KAAAU?$pair@$$CBEPAVCTItem@@@2@PAU_Node@?$_Tree_nod@V?$_Tmap_traits@EPAVCTItem@@U?$less@E@std@@V?$allocator@U?$pair@$$CBEPAVCTItem@@@std@@@3@$0A@@std@@@2@@Z PROC NEAR ; std::_Tree<std::_Tmap_traits<unsigned char,CTItem *,std::less<unsigned char>,std::allocator<std::pair<unsigned char const ,CTItem *> >,0> >::_Myval, COMDAT

; 162  : 		return ((_Vref)(*_Pnode)._Myval);

  00000	8b 44 24 04	 mov	 eax, DWORD PTR __Pnode$[esp-4]
  00004	83 c0 0c	 add	 eax, 12			; 0000000cH

; 163  : 		}

  00007	c3		 ret	 0
?_Myval@?$_Tree@V?$_Tmap_traits@EPAVCTItem@@U?$less@E@std@@V?$allocator@U?$pair@$$CBEPAVCTItem@@@std@@@3@$0A@@std@@@std@@KAAAU?$pair@$$CBEPAVCTItem@@@2@PAU_Node@?$_Tree_nod@V?$_Tmap_traits@EPAVCTItem@@U?$less@E@std@@V?$allocator@U?$pair@$$CBEPAVCTItem@@@std@@@3@$0A@@std@@@2@@Z ENDP ; std::_Tree<std::_Tmap_traits<unsigned char,CTItem *,std::less<unsigned char>,std::allocator<std::pair<unsigned char const ,CTItem *> >,0> >::_Myval
_TEXT	ENDS
PUBLIC	?_Kfn@?$_Tmap_traits@EPAVCTItem@@U?$less@E@std@@V?$allocator@U?$pair@$$CBEPAVCTItem@@@std@@@3@$0A@@std@@SAABEABU?$pair@$$CBEPAVCTItem@@@2@@Z ; std::_Tmap_traits<unsigned char,CTItem *,std::less<unsigned char>,std::allocator<std::pair<unsigned char const ,CTItem *> >,0>::_Kfn
; Function compile flags: /Ogty
; File c:\program files (x86)\microsoft visual studio .net 2003\vc7\include\map
;	COMDAT ?_Kfn@?$_Tmap_traits@EPAVCTItem@@U?$less@E@std@@V?$allocator@U?$pair@$$CBEPAVCTItem@@@std@@@3@$0A@@std@@SAABEABU?$pair@$$CBEPAVCTItem@@@2@@Z
_TEXT	SEGMENT
__Val$ = 8						; size = 4
?_Kfn@?$_Tmap_traits@EPAVCTItem@@U?$less@E@std@@V?$allocator@U?$pair@$$CBEPAVCTItem@@@std@@@3@$0A@@std@@SAABEABU?$pair@$$CBEPAVCTItem@@@2@@Z PROC NEAR ; std::_Tmap_traits<unsigned char,CTItem *,std::less<unsigned char>,std::allocator<std::pair<unsigned char const ,CTItem *> >,0>::_Kfn, COMDAT

; 64   : 		return (_Val.first);

  00000	8b 44 24 04	 mov	 eax, DWORD PTR __Val$[esp-4]

; 65   : 		}

  00004	c3		 ret	 0
?_Kfn@?$_Tmap_traits@EPAVCTItem@@U?$less@E@std@@V?$allocator@U?$pair@$$CBEPAVCTItem@@@std@@@3@$0A@@std@@SAABEABU?$pair@$$CBEPAVCTItem@@@2@@Z ENDP ; std::_Tmap_traits<unsigned char,CTItem *,std::less<unsigned char>,std::allocator<std::pair<unsigned char const ,CTItem *> >,0>::_Kfn
_TEXT	ENDS
PUBLIC	??0const_iterator@?$_Tree@V?$_Tmap_traits@EPAVCTItem@@U?$less@E@std@@V?$allocator@U?$pair@$$CBEPAVCTItem@@@std@@@3@$0A@@std@@@std@@QAE@PAU_Node@?$_Tree_nod@V?$_Tmap_traits@EPAVCTItem@@U?$less@E@std@@V?$allocator@U?$pair@$$CBEPAVCTItem@@@std@@@3@$0A@@std@@@2@@Z ; std::_Tree<std::_Tmap_traits<unsigned char,CTItem *,std::less<unsigned char>,std::allocator<std::pair<unsigned char const ,CTItem *> >,0> >::const_iterator::const_iterator
; Function compile flags: /Ogty
; File c:\program files (x86)\microsoft visual studio .net 2003\vc7\include\xtree
;	COMDAT ??0const_iterator@?$_Tree@V?$_Tmap_traits@EPAVCTItem@@U?$less@E@std@@V?$allocator@U?$pair@$$CBEPAVCTItem@@@std@@@3@$0A@@std@@@std@@QAE@PAU_Node@?$_Tree_nod@V?$_Tmap_traits@EPAVCTItem@@U?$less@E@std@@V?$allocator@U?$pair@$$CBEPAVCTItem@@@std@@@3@$0A@@std@@@2@@Z
_TEXT	SEGMENT
__Pnode$ = 8						; size = 4
??0const_iterator@?$_Tree@V?$_Tmap_traits@EPAVCTItem@@U?$less@E@std@@V?$allocator@U?$pair@$$CBEPAVCTItem@@@std@@@3@$0A@@std@@@std@@QAE@PAU_Node@?$_Tree_nod@V?$_Tmap_traits@EPAVCTItem@@U?$less@E@std@@V?$allocator@U?$pair@$$CBEPAVCTItem@@@std@@@3@$0A@@std@@@2@@Z PROC NEAR ; std::_Tree<std::_Tmap_traits<unsigned char,CTItem *,std::less<unsigned char>,std::allocator<std::pair<unsigned char const ,CTItem *> >,0> >::const_iterator::const_iterator, COMDAT
; _this$ = ecx

; 200  : 			{	// construct with node pointer _Pnode

  00000	8b c1		 mov	 eax, ecx
  00002	8b 4c 24 04	 mov	 ecx, DWORD PTR __Pnode$[esp-4]
  00006	89 08		 mov	 DWORD PTR [eax], ecx

; 201  : 			}

  00008	c2 04 00	 ret	 4
??0const_iterator@?$_Tree@V?$_Tmap_traits@EPAVCTItem@@U?$less@E@std@@V?$allocator@U?$pair@$$CBEPAVCTItem@@@std@@@3@$0A@@std@@@std@@QAE@PAU_Node@?$_Tree_nod@V?$_Tmap_traits@EPAVCTItem@@U?$less@E@std@@V?$allocator@U?$pair@$$CBEPAVCTItem@@@std@@@3@$0A@@std@@@2@@Z ENDP ; std::_Tree<std::_Tmap_traits<unsigned char,CTItem *,std::less<unsigned char>,std::allocator<std::pair<unsigned char const ,CTItem *> >,0> >::const_iterator::const_iterator
_TEXT	ENDS
PUBLIC	?_Isnil@?$_Tree@V?$_Tmap_traits@EPAVCTItem@@U?$less@E@std@@V?$allocator@U?$pair@$$CBEPAVCTItem@@@std@@@3@$0A@@std@@@std@@KAAADPAU_Node@?$_Tree_nod@V?$_Tmap_traits@EPAVCTItem@@U?$less@E@std@@V?$allocator@U?$pair@$$CBEPAVCTItem@@@std@@@3@$0A@@std@@@2@@Z ; std::_Tree<std::_Tmap_traits<unsigned char,CTItem *,std::less<unsigned char>,std::allocator<std::pair<unsigned char const ,CTItem *> >,0> >::_Isnil
; Function compile flags: /Ogty
;	COMDAT ?_Isnil@?$_Tree@V?$_Tmap_traits@EPAVCTItem@@U?$less@E@std@@V?$allocator@U?$pair@$$CBEPAVCTItem@@@std@@@3@$0A@@std@@@std@@KAAADPAU_Node@?$_Tree_nod@V?$_Tmap_traits@EPAVCTItem@@U?$less@E@std@@V?$allocator@U?$pair@$$CBEPAVCTItem@@@std@@@3@$0A@@std@@@2@@Z
_TEXT	SEGMENT
__Pnode$ = 8						; size = 4
?_Isnil@?$_Tree@V?$_Tmap_traits@EPAVCTItem@@U?$less@E@std@@V?$allocator@U?$pair@$$CBEPAVCTItem@@@std@@@3@$0A@@std@@@std@@KAAADPAU_Node@?$_Tree_nod@V?$_Tmap_traits@EPAVCTItem@@U?$less@E@std@@V?$allocator@U?$pair@$$CBEPAVCTItem@@@std@@@3@$0A@@std@@@2@@Z PROC NEAR ; std::_Tree<std::_Tmap_traits<unsigned char,CTItem *,std::less<unsigned char>,std::allocator<std::pair<unsigned char const ,CTItem *> >,0> >::_Isnil, COMDAT

; 137  : 		return ((_Charref)(*_Pnode)._Isnil);

  00000	8b 44 24 04	 mov	 eax, DWORD PTR __Pnode$[esp-4]
  00004	83 c0 15	 add	 eax, 21			; 00000015H

; 138  : 		}

  00007	c3		 ret	 0
?_Isnil@?$_Tree@V?$_Tmap_traits@EPAVCTItem@@U?$less@E@std@@V?$allocator@U?$pair@$$CBEPAVCTItem@@@std@@@3@$0A@@std@@@std@@KAAADPAU_Node@?$_Tree_nod@V?$_Tmap_traits@EPAVCTItem@@U?$less@E@std@@V?$allocator@U?$pair@$$CBEPAVCTItem@@@std@@@3@$0A@@std@@@2@@Z ENDP ; std::_Tree<std::_Tmap_traits<unsigned char,CTItem *,std::less<unsigned char>,std::allocator<std::pair<unsigned char const ,CTItem *> >,0> >::_Isnil
_TEXT	ENDS
PUBLIC	?_Left@?$_Tree@V?$_Tmap_traits@EPAVCTItem@@U?$less@E@std@@V?$allocator@U?$pair@$$CBEPAVCTItem@@@std@@@3@$0A@@std@@@std@@KAAAPAU_Node@?$_Tree_nod@V?$_Tmap_traits@EPAVCTItem@@U?$less@E@std@@V?$allocator@U?$pair@$$CBEPAVCTItem@@@std@@@3@$0A@@std@@@2@PAU342@@Z ; std::_Tree<std::_Tmap_traits<unsigned char,CTItem *,std::less<unsigned char>,std::allocator<std::pair<unsigned char const ,CTItem *> >,0> >::_Left
; Function compile flags: /Ogty
;	COMDAT ?_Left@?$_Tree@V?$_Tmap_traits@EPAVCTItem@@U?$less@E@std@@V?$allocator@U?$pair@$$CBEPAVCTItem@@@std@@@3@$0A@@std@@@std@@KAAAPAU_Node@?$_Tree_nod@V?$_Tmap_traits@EPAVCTItem@@U?$less@E@std@@V?$allocator@U?$pair@$$CBEPAVCTItem@@@std@@@3@$0A@@std@@@2@PAU342@@Z
_TEXT	SEGMENT
__Pnode$ = 8						; size = 4
?_Left@?$_Tree@V?$_Tmap_traits@EPAVCTItem@@U?$less@E@std@@V?$allocator@U?$pair@$$CBEPAVCTItem@@@std@@@3@$0A@@std@@@std@@KAAAPAU_Node@?$_Tree_nod@V?$_Tmap_traits@EPAVCTItem@@U?$less@E@std@@V?$allocator@U?$pair@$$CBEPAVCTItem@@@std@@@3@$0A@@std@@@2@PAU342@@Z PROC NEAR ; std::_Tree<std::_Tmap_traits<unsigned char,CTItem *,std::less<unsigned char>,std::allocator<std::pair<unsigned char const ,CTItem *> >,0> >::_Left, COMDAT

; 147  : 		return ((_Nodepref)(*_Pnode)._Left);

  00000	8b 44 24 04	 mov	 eax, DWORD PTR __Pnode$[esp-4]

; 148  : 		}

  00004	c3		 ret	 0
?_Left@?$_Tree@V?$_Tmap_traits@EPAVCTItem@@U?$less@E@std@@V?$allocator@U?$pair@$$CBEPAVCTItem@@@std@@@3@$0A@@std@@@std@@KAAAPAU_Node@?$_Tree_nod@V?$_Tmap_traits@EPAVCTItem@@U?$less@E@std@@V?$allocator@U?$pair@$$CBEPAVCTItem@@@std@@@3@$0A@@std@@@2@PAU342@@Z ENDP ; std::_Tree<std::_Tmap_traits<unsigned char,CTItem *,std::less<unsigned char>,std::allocator<std::pair<unsigned char const ,CTItem *> >,0> >::_Left
_TEXT	ENDS
PUBLIC	?_Right@?$_Tree@V?$_Tmap_traits@EPAVCTItem@@U?$less@E@std@@V?$allocator@U?$pair@$$CBEPAVCTItem@@@std@@@3@$0A@@std@@@std@@KAAAPAU_Node@?$_Tree_nod@V?$_Tmap_traits@EPAVCTItem@@U?$less@E@std@@V?$allocator@U?$pair@$$CBEPAVCTItem@@@std@@@3@$0A@@std@@@2@PAU342@@Z ; std::_Tree<std::_Tmap_traits<unsigned char,CTItem *,std::less<unsigned char>,std::allocator<std::pair<unsigned char const ,CTItem *> >,0> >::_Right
; Function compile flags: /Ogty
;	COMDAT ?_Right@?$_Tree@V?$_Tmap_traits@EPAVCTItem@@U?$less@E@std@@V?$allocator@U?$pair@$$CBEPAVCTItem@@@std@@@3@$0A@@std@@@std@@KAAAPAU_Node@?$_Tree_nod@V?$_Tmap_traits@EPAVCTItem@@U?$less@E@std@@V?$allocator@U?$pair@$$CBEPAVCTItem@@@std@@@3@$0A@@std@@@2@PAU342@@Z
_TEXT	SEGMENT
__Pnode$ = 8						; size = 4
?_Right@?$_Tree@V?$_Tmap_traits@EPAVCTItem@@U?$less@E@std@@V?$allocator@U?$pair@$$CBEPAVCTItem@@@std@@@3@$0A@@std@@@std@@KAAAPAU_Node@?$_Tree_nod@V?$_Tmap_traits@EPAVCTItem@@U?$less@E@std@@V?$allocator@U?$pair@$$CBEPAVCTItem@@@std@@@3@$0A@@std@@@2@PAU342@@Z PROC NEAR ; std::_Tree<std::_Tmap_traits<unsigned char,CTItem *,std::less<unsigned char>,std::allocator<std::pair<unsigned char const ,CTItem *> >,0> >::_Right, COMDAT

; 157  : 		return ((_Nodepref)(*_Pnode)._Right);

  00000	8b 44 24 04	 mov	 eax, DWORD PTR __Pnode$[esp-4]
  00004	83 c0 08	 add	 eax, 8

; 158  : 		}

  00007	c3		 ret	 0
?_Right@?$_Tree@V?$_Tmap_traits@EPAVCTItem@@U?$less@E@std@@V?$allocator@U?$pair@$$CBEPAVCTItem@@@std@@@3@$0A@@std@@@std@@KAAAPAU_Node@?$_Tree_nod@V?$_Tmap_traits@EPAVCTItem@@U?$less@E@std@@V?$allocator@U?$pair@$$CBEPAVCTItem@@@std@@@3@$0A@@std@@@2@PAU342@@Z ENDP ; std::_Tree<std::_Tmap_traits<unsigned char,CTItem *,std::less<unsigned char>,std::allocator<std::pair<unsigned char const ,CTItem *> >,0> >::_Right
_TEXT	ENDS
PUBLIC	?_Parent@?$_Tree@V?$_Tmap_traits@EPAVCTItem@@U?$less@E@std@@V?$allocator@U?$pair@$$CBEPAVCTItem@@@std@@@3@$0A@@std@@@std@@KAAAPAU_Node@?$_Tree_nod@V?$_Tmap_traits@EPAVCTItem@@U?$less@E@std@@V?$allocator@U?$pair@$$CBEPAVCTItem@@@std@@@3@$0A@@std@@@2@PAU342@@Z ; std::_Tree<std::_Tmap_traits<unsigned char,CTItem *,std::less<unsigned char>,std::allocator<std::pair<unsigned char const ,CTItem *> >,0> >::_Parent
; Function compile flags: /Ogty
;	COMDAT ?_Parent@?$_Tree@V?$_Tmap_traits@EPAVCTItem@@U?$less@E@std@@V?$allocator@U?$pair@$$CBEPAVCTItem@@@std@@@3@$0A@@std@@@std@@KAAAPAU_Node@?$_Tree_nod@V?$_Tmap_traits@EPAVCTItem@@U?$less@E@std@@V?$allocator@U?$pair@$$CBEPAVCTItem@@@std@@@3@$0A@@std@@@2@PAU342@@Z
_TEXT	SEGMENT
__Pnode$ = 8						; size = 4
?_Parent@?$_Tree@V?$_Tmap_traits@EPAVCTItem@@U?$less@E@std@@V?$allocator@U?$pair@$$CBEPAVCTItem@@@std@@@3@$0A@@std@@@std@@KAAAPAU_Node@?$_Tree_nod@V?$_Tmap_traits@EPAVCTItem@@U?$less@E@std@@V?$allocator@U?$pair@$$CBEPAVCTItem@@@std@@@3@$0A@@std@@@2@PAU342@@Z PROC NEAR ; std::_Tree<std::_Tmap_traits<unsigned char,CTItem *,std::less<unsigned char>,std::allocator<std::pair<unsigned char const ,CTItem *> >,0> >::_Parent, COMDAT

; 152  : 		return ((_Nodepref)(*_Pnode)._Parent);

  00000	8b 44 24 04	 mov	 eax, DWORD PTR __Pnode$[esp-4]
  00004	83 c0 04	 add	 eax, 4

; 153  : 		}

  00007	c3		 ret	 0
?_Parent@?$_Tree@V?$_Tmap_traits@EPAVCTItem@@U?$less@E@std@@V?$allocator@U?$pair@$$CBEPAVCTItem@@@std@@@3@$0A@@std@@@std@@KAAAPAU_Node@?$_Tree_nod@V?$_Tmap_traits@EPAVCTItem@@U?$less@E@std@@V?$allocator@U?$pair@$$CBEPAVCTItem@@@std@@@3@$0A@@std@@@2@PAU342@@Z ENDP ; std::_Tree<std::_Tmap_traits<unsigned char,CTItem *,std::less<unsigned char>,std::allocator<std::pair<unsigned char const ,CTItem *> >,0> >::_Parent
_TEXT	ENDS
EXTRN	??3@YAXPAX@Z:NEAR				; operator delete
; Function compile flags: /Ogty
;	COMDAT ??_GCTAICmdLottery@@UAEPAXI@Z
_TEXT	SEGMENT
___flags$ = 8						; size = 4
??_GCTAICmdLottery@@UAEPAXI@Z PROC NEAR			; CTAICmdLottery::`scalar deleting destructor', COMDAT
; _this$ = ecx
  00000	56		 push	 esi
  00001	8b f1		 mov	 esi, ecx
  00003	e8 00 00 00 00	 call	 ??1CTAICmdLottery@@UAE@XZ ; CTAICmdLottery::~CTAICmdLottery
  00008	f6 44 24 08 01	 test	 BYTE PTR ___flags$[esp], 1
  0000d	74 09		 je	 SHORT $L152914
  0000f	56		 push	 esi
  00010	e8 00 00 00 00	 call	 ??3@YAXPAX@Z		; operator delete
  00015	83 c4 04	 add	 esp, 4
$L152914:
  00018	8b c6		 mov	 eax, esi
  0001a	5e		 pop	 esi
  0001b	c2 04 00	 ret	 4
??_GCTAICmdLottery@@UAEPAXI@Z ENDP			; CTAICmdLottery::`scalar deleting destructor'
_TEXT	ENDS
PUBLIC	??9const_iterator@?$_Tree@V?$_Tmap_traits@EPAVCTItem@@U?$less@E@std@@V?$allocator@U?$pair@$$CBEPAVCTItem@@@std@@@3@$0A@@std@@@std@@QBE_NABV012@@Z ; std::_Tree<std::_Tmap_traits<unsigned char,CTItem *,std::less<unsigned char>,std::allocator<std::pair<unsigned char const ,CTItem *> >,0> >::const_iterator::operator!=
; Function compile flags: /Ogty
;	COMDAT ??9const_iterator@?$_Tree@V?$_Tmap_traits@EPAVCTItem@@U?$less@E@std@@V?$allocator@U?$pair@$$CBEPAVCTItem@@@std@@@3@$0A@@std@@@std@@QBE_NABV012@@Z
_TEXT	SEGMENT
__Right$ = 8						; size = 4
??9const_iterator@?$_Tree@V?$_Tmap_traits@EPAVCTItem@@U?$less@E@std@@V?$allocator@U?$pair@$$CBEPAVCTItem@@@std@@@3@$0A@@std@@@std@@QBE_NABV012@@Z PROC NEAR ; std::_Tree<std::_Tmap_traits<unsigned char,CTItem *,std::less<unsigned char>,std::allocator<std::pair<unsigned char const ,CTItem *> >,0> >::const_iterator::operator!=, COMDAT
; _this$ = ecx

; 246  : 			return (!(*this == _Right));

  00000	8b 01		 mov	 eax, DWORD PTR [ecx]
  00002	8b 54 24 04	 mov	 edx, DWORD PTR __Right$[esp-4]
  00006	56		 push	 esi
  00007	8b 32		 mov	 esi, DWORD PTR [edx]
  00009	33 c9		 xor	 ecx, ecx
  0000b	3b c6		 cmp	 eax, esi
  0000d	0f 95 c1	 setne	 cl
  00010	8a c1		 mov	 al, cl
  00012	5e		 pop	 esi

; 247  : 			}

  00013	c2 04 00	 ret	 4
??9const_iterator@?$_Tree@V?$_Tmap_traits@EPAVCTItem@@U?$less@E@std@@V?$allocator@U?$pair@$$CBEPAVCTItem@@@std@@@3@$0A@@std@@@std@@QBE_NABV012@@Z ENDP ; std::_Tree<std::_Tmap_traits<unsigned char,CTItem *,std::less<unsigned char>,std::allocator<std::pair<unsigned char const ,CTItem *> >,0> >::const_iterator::operator!=
_TEXT	ENDS
PUBLIC	?_Key@?$_Tree@V?$_Tmap_traits@EPAVCTItem@@U?$less@E@std@@V?$allocator@U?$pair@$$CBEPAVCTItem@@@std@@@3@$0A@@std@@@std@@KAABEPAU_Node@?$_Tree_nod@V?$_Tmap_traits@EPAVCTItem@@U?$less@E@std@@V?$allocator@U?$pair@$$CBEPAVCTItem@@@std@@@3@$0A@@std@@@2@@Z ; std::_Tree<std::_Tmap_traits<unsigned char,CTItem *,std::less<unsigned char>,std::allocator<std::pair<unsigned char const ,CTItem *> >,0> >::_Key
; Function compile flags: /Ogty
;	COMDAT ?_Key@?$_Tree@V?$_Tmap_traits@EPAVCTItem@@U?$less@E@std@@V?$allocator@U?$pair@$$CBEPAVCTItem@@@std@@@3@$0A@@std@@@std@@KAABEPAU_Node@?$_Tree_nod@V?$_Tmap_traits@EPAVCTItem@@U?$less@E@std@@V?$allocator@U?$pair@$$CBEPAVCTItem@@@std@@@3@$0A@@std@@@2@@Z
_TEXT	SEGMENT
__Pnode$ = 8						; size = 4
?_Key@?$_Tree@V?$_Tmap_traits@EPAVCTItem@@U?$less@E@std@@V?$allocator@U?$pair@$$CBEPAVCTItem@@@std@@@3@$0A@@std@@@std@@KAABEPAU_Node@?$_Tree_nod@V?$_Tmap_traits@EPAVCTItem@@U?$less@E@std@@V?$allocator@U?$pair@$$CBEPAVCTItem@@@std@@@3@$0A@@std@@@2@@Z PROC NEAR ; std::_Tree<std::_Tmap_traits<unsigned char,CTItem *,std::less<unsigned char>,std::allocator<std::pair<unsigned char const ,CTItem *> >,0> >::_Key, COMDAT

; 142  : 		return (_Mybase::_Kfn(_Myval(_Pnode)));

  00000	8b 44 24 04	 mov	 eax, DWORD PTR __Pnode$[esp-4]
  00004	83 c0 0c	 add	 eax, 12			; 0000000cH

; 143  : 		}

  00007	c3		 ret	 0
?_Key@?$_Tree@V?$_Tmap_traits@EPAVCTItem@@U?$less@E@std@@V?$allocator@U?$pair@$$CBEPAVCTItem@@@std@@@3@$0A@@std@@@std@@KAABEPAU_Node@?$_Tree_nod@V?$_Tmap_traits@EPAVCTItem@@U?$less@E@std@@V?$allocator@U?$pair@$$CBEPAVCTItem@@@std@@@3@$0A@@std@@@2@@Z ENDP ; std::_Tree<std::_Tmap_traits<unsigned char,CTItem *,std::less<unsigned char>,std::allocator<std::pair<unsigned char const ,CTItem *> >,0> >::_Key
_TEXT	ENDS
PUBLIC	??0iterator@?$_Tree@V?$_Tmap_traits@EPAVCTItem@@U?$less@E@std@@V?$allocator@U?$pair@$$CBEPAVCTItem@@@std@@@3@$0A@@std@@@std@@QAE@PAU_Node@?$_Tree_nod@V?$_Tmap_traits@EPAVCTItem@@U?$less@E@std@@V?$allocator@U?$pair@$$CBEPAVCTItem@@@std@@@3@$0A@@std@@@2@@Z ; std::_Tree<std::_Tmap_traits<unsigned char,CTItem *,std::less<unsigned char>,std::allocator<std::pair<unsigned char const ,CTItem *> >,0> >::iterator::iterator
; Function compile flags: /Ogty
;	COMDAT ??0iterator@?$_Tree@V?$_Tmap_traits@EPAVCTItem@@U?$less@E@std@@V?$allocator@U?$pair@$$CBEPAVCTItem@@@std@@@3@$0A@@std@@@std@@QAE@PAU_Node@?$_Tree_nod@V?$_Tmap_traits@EPAVCTItem@@U?$less@E@std@@V?$allocator@U?$pair@$$CBEPAVCTItem@@@std@@@3@$0A@@std@@@2@@Z
_TEXT	SEGMENT
__Pnode$ = 8						; size = 4
??0iterator@?$_Tree@V?$_Tmap_traits@EPAVCTItem@@U?$less@E@std@@V?$allocator@U?$pair@$$CBEPAVCTItem@@@std@@@3@$0A@@std@@@std@@QAE@PAU_Node@?$_Tree_nod@V?$_Tmap_traits@EPAVCTItem@@U?$less@E@std@@V?$allocator@U?$pair@$$CBEPAVCTItem@@@std@@@3@$0A@@std@@@2@@Z PROC NEAR ; std::_Tree<std::_Tmap_traits<unsigned char,CTItem *,std::less<unsigned char>,std::allocator<std::pair<unsigned char const ,CTItem *> >,0> >::iterator::iterator, COMDAT
; _this$ = ecx

; 312  : 			{	// construct with node pointer _Pnode

  00000	8b c1		 mov	 eax, ecx
  00002	8b 4c 24 04	 mov	 ecx, DWORD PTR __Pnode$[esp-4]
  00006	89 08		 mov	 DWORD PTR [eax], ecx

; 313  : 			}

  00008	c2 04 00	 ret	 4
??0iterator@?$_Tree@V?$_Tmap_traits@EPAVCTItem@@U?$less@E@std@@V?$allocator@U?$pair@$$CBEPAVCTItem@@@std@@@3@$0A@@std@@@std@@QAE@PAU_Node@?$_Tree_nod@V?$_Tmap_traits@EPAVCTItem@@U?$less@E@std@@V?$allocator@U?$pair@$$CBEPAVCTItem@@@std@@@3@$0A@@std@@@2@@Z ENDP ; std::_Tree<std::_Tmap_traits<unsigned char,CTItem *,std::less<unsigned char>,std::allocator<std::pair<unsigned char const ,CTItem *> >,0> >::iterator::iterator
_TEXT	ENDS
PUBLIC	??Dconst_iterator@?$_Tree@V?$_Tmap_traits@EPAVCTItem@@U?$less@E@std@@V?$allocator@U?$pair@$$CBEPAVCTItem@@@std@@@3@$0A@@std@@@std@@QBEABU?$pair@$$CBEPAVCTItem@@@2@XZ ; std::_Tree<std::_Tmap_traits<unsigned char,CTItem *,std::less<unsigned char>,std::allocator<std::pair<unsigned char const ,CTItem *> >,0> >::const_iterator::operator*
; Function compile flags: /Ogty
;	COMDAT ??Dconst_iterator@?$_Tree@V?$_Tmap_traits@EPAVCTItem@@U?$less@E@std@@V?$allocator@U?$pair@$$CBEPAVCTItem@@@std@@@3@$0A@@std@@@std@@QBEABU?$pair@$$CBEPAVCTItem@@@2@XZ
_TEXT	SEGMENT
??Dconst_iterator@?$_Tree@V?$_Tmap_traits@EPAVCTItem@@U?$less@E@std@@V?$allocator@U?$pair@$$CBEPAVCTItem@@@std@@@3@$0A@@std@@@std@@QBEABU?$pair@$$CBEPAVCTItem@@@2@XZ PROC NEAR ; std::_Tree<std::_Tmap_traits<unsigned char,CTItem *,std::less<unsigned char>,std::allocator<std::pair<unsigned char const ,CTItem *> >,0> >::const_iterator::operator*, COMDAT
; _this$ = ecx

; 205  : 			return (_Myval(_Ptr));

  00000	8b 01		 mov	 eax, DWORD PTR [ecx]
  00002	83 c0 0c	 add	 eax, 12			; 0000000cH

; 206  : 			}

  00005	c3		 ret	 0
??Dconst_iterator@?$_Tree@V?$_Tmap_traits@EPAVCTItem@@U?$less@E@std@@V?$allocator@U?$pair@$$CBEPAVCTItem@@@std@@@3@$0A@@std@@@std@@QBEABU?$pair@$$CBEPAVCTItem@@@2@XZ ENDP ; std::_Tree<std::_Tmap_traits<unsigned char,CTItem *,std::less<unsigned char>,std::allocator<std::pair<unsigned char const ,CTItem *> >,0> >::const_iterator::operator*
_TEXT	ENDS
PUBLIC	?_Root@?$_Tree@V?$_Tmap_traits@EPAVCTItem@@U?$less@E@std@@V?$allocator@U?$pair@$$CBEPAVCTItem@@@std@@@3@$0A@@std@@@std@@IBEAAPAU_Node@?$_Tree_nod@V?$_Tmap_traits@EPAVCTItem@@U?$less@E@std@@V?$allocator@U?$pair@$$CBEPAVCTItem@@@std@@@3@$0A@@std@@@2@XZ ; std::_Tree<std::_Tmap_traits<unsigned char,CTItem *,std::less<unsigned char>,std::allocator<std::pair<unsigned char const ,CTItem *> >,0> >::_Root
; Function compile flags: /Ogty
;	COMDAT ?_Root@?$_Tree@V?$_Tmap_traits@EPAVCTItem@@U?$less@E@std@@V?$allocator@U?$pair@$$CBEPAVCTItem@@@std@@@3@$0A@@std@@@std@@IBEAAPAU_Node@?$_Tree_nod@V?$_Tmap_traits@EPAVCTItem@@U?$less@E@std@@V?$allocator@U?$pair@$$CBEPAVCTItem@@@std@@@3@$0A@@std@@@2@XZ
_TEXT	SEGMENT
?_Root@?$_Tree@V?$_Tmap_traits@EPAVCTItem@@U?$less@E@std@@V?$allocator@U?$pair@$$CBEPAVCTItem@@@std@@@3@$0A@@std@@@std@@IBEAAPAU_Node@?$_Tree_nod@V?$_Tmap_traits@EPAVCTItem@@U?$less@E@std@@V?$allocator@U?$pair@$$CBEPAVCTItem@@@std@@@3@$0A@@std@@@2@XZ PROC NEAR ; std::_Tree<std::_Tmap_traits<unsigned char,CTItem *,std::less<unsigned char>,std::allocator<std::pair<unsigned char const ,CTItem *> >,0> >::_Root, COMDAT
; _this$ = ecx

; 1064 : 		return (_Parent(_Myhead));

  00000	8b 41 04	 mov	 eax, DWORD PTR [ecx+4]
  00003	83 c0 04	 add	 eax, 4

; 1065 : 		}

  00006	c3		 ret	 0
?_Root@?$_Tree@V?$_Tmap_traits@EPAVCTItem@@U?$less@E@std@@V?$allocator@U?$pair@$$CBEPAVCTItem@@@std@@@3@$0A@@std@@@std@@IBEAAPAU_Node@?$_Tree_nod@V?$_Tmap_traits@EPAVCTItem@@U?$less@E@std@@V?$allocator@U?$pair@$$CBEPAVCTItem@@@std@@@3@$0A@@std@@@2@XZ ENDP ; std::_Tree<std::_Tmap_traits<unsigned char,CTItem *,std::less<unsigned char>,std::allocator<std::pair<unsigned char const ,CTItem *> >,0> >::_Root
_TEXT	ENDS
PUBLIC	?end@?$_Tree@V?$_Tmap_traits@EPAVCTItem@@U?$less@E@std@@V?$allocator@U?$pair@$$CBEPAVCTItem@@@std@@@3@$0A@@std@@@std@@QAE?AViterator@12@XZ ; std::_Tree<std::_Tmap_traits<unsigned char,CTItem *,std::less<unsigned char>,std::allocator<std::pair<unsigned char const ,CTItem *> >,0> >::end
; Function compile flags: /Ogty
;	COMDAT ?end@?$_Tree@V?$_Tmap_traits@EPAVCTItem@@U?$less@E@std@@V?$allocator@U?$pair@$$CBEPAVCTItem@@@std@@@3@$0A@@std@@@std@@QAE?AViterator@12@XZ
_TEXT	SEGMENT
___$ReturnUdt$ = 8					; size = 4
?end@?$_Tree@V?$_Tmap_traits@EPAVCTItem@@U?$less@E@std@@V?$allocator@U?$pair@$$CBEPAVCTItem@@@std@@@3@$0A@@std@@@std@@QAE?AViterator@12@XZ PROC NEAR ; std::_Tree<std::_Tmap_traits<unsigned char,CTItem *,std::less<unsigned char>,std::allocator<std::pair<unsigned char const ,CTItem *> >,0> >::end, COMDAT
; _this$ = ecx

; 418  : 		return (_TREE_ITERATOR(_Myhead));

  00000	8b 49 04	 mov	 ecx, DWORD PTR [ecx+4]
  00003	8b 44 24 04	 mov	 eax, DWORD PTR ___$ReturnUdt$[esp-4]
  00007	89 08		 mov	 DWORD PTR [eax], ecx

; 419  : 		}

  00009	c2 04 00	 ret	 4
?end@?$_Tree@V?$_Tmap_traits@EPAVCTItem@@U?$less@E@std@@V?$allocator@U?$pair@$$CBEPAVCTItem@@@std@@@3@$0A@@std@@@std@@QAE?AViterator@12@XZ ENDP ; std::_Tree<std::_Tmap_traits<unsigned char,CTItem *,std::less<unsigned char>,std::allocator<std::pair<unsigned char const ,CTItem *> >,0> >::end
_TEXT	ENDS
PUBLIC	??Diterator@?$_Tree@V?$_Tmap_traits@EPAVCTItem@@U?$less@E@std@@V?$allocator@U?$pair@$$CBEPAVCTItem@@@std@@@3@$0A@@std@@@std@@QBEAAU?$pair@$$CBEPAVCTItem@@@2@XZ ; std::_Tree<std::_Tmap_traits<unsigned char,CTItem *,std::less<unsigned char>,std::allocator<std::pair<unsigned char const ,CTItem *> >,0> >::iterator::operator*
; Function compile flags: /Ogty
;	COMDAT ??Diterator@?$_Tree@V?$_Tmap_traits@EPAVCTItem@@U?$less@E@std@@V?$allocator@U?$pair@$$CBEPAVCTItem@@@std@@@3@$0A@@std@@@std@@QBEAAU?$pair@$$CBEPAVCTItem@@@2@XZ
_TEXT	SEGMENT
??Diterator@?$_Tree@V?$_Tmap_traits@EPAVCTItem@@U?$less@E@std@@V?$allocator@U?$pair@$$CBEPAVCTItem@@@std@@@3@$0A@@std@@@std@@QBEAAU?$pair@$$CBEPAVCTItem@@@2@XZ PROC NEAR ; std::_Tree<std::_Tmap_traits<unsigned char,CTItem *,std::less<unsigned char>,std::allocator<std::pair<unsigned char const ,CTItem *> >,0> >::iterator::operator*, COMDAT
; _this$ = ecx

; 317  : 			return ((reference)**(const_iterator *)this);

  00000	8b 01		 mov	 eax, DWORD PTR [ecx]
  00002	83 c0 0c	 add	 eax, 12			; 0000000cH

; 318  : 			}

  00005	c3		 ret	 0
??Diterator@?$_Tree@V?$_Tmap_traits@EPAVCTItem@@U?$less@E@std@@V?$allocator@U?$pair@$$CBEPAVCTItem@@@std@@@3@$0A@@std@@@std@@QBEAAU?$pair@$$CBEPAVCTItem@@@2@XZ ENDP ; std::_Tree<std::_Tmap_traits<unsigned char,CTItem *,std::less<unsigned char>,std::allocator<std::pair<unsigned char const ,CTItem *> >,0> >::iterator::operator*
_TEXT	ENDS
PUBLIC	?_Lbound@?$_Tree@V?$_Tmap_traits@EPAVCTItem@@U?$less@E@std@@V?$allocator@U?$pair@$$CBEPAVCTItem@@@std@@@3@$0A@@std@@@std@@IBEPAU_Node@?$_Tree_nod@V?$_Tmap_traits@EPAVCTItem@@U?$less@E@std@@V?$allocator@U?$pair@$$CBEPAVCTItem@@@std@@@3@$0A@@std@@@2@ABE@Z ; std::_Tree<std::_Tmap_traits<unsigned char,CTItem *,std::less<unsigned char>,std::allocator<std::pair<unsigned char const ,CTItem *> >,0> >::_Lbound
; Function compile flags: /Ogty
;	COMDAT ?_Lbound@?$_Tree@V?$_Tmap_traits@EPAVCTItem@@U?$less@E@std@@V?$allocator@U?$pair@$$CBEPAVCTItem@@@std@@@3@$0A@@std@@@std@@IBEPAU_Node@?$_Tree_nod@V?$_Tmap_traits@EPAVCTItem@@U?$less@E@std@@V?$allocator@U?$pair@$$CBEPAVCTItem@@@std@@@3@$0A@@std@@@2@ABE@Z
_TEXT	SEGMENT
__Keyval$ = 8						; size = 4
?_Lbound@?$_Tree@V?$_Tmap_traits@EPAVCTItem@@U?$less@E@std@@V?$allocator@U?$pair@$$CBEPAVCTItem@@@std@@@3@$0A@@std@@@std@@IBEPAU_Node@?$_Tree_nod@V?$_Tmap_traits@EPAVCTItem@@U?$less@E@std@@V?$allocator@U?$pair@$$CBEPAVCTItem@@@std@@@3@$0A@@std@@@2@ABE@Z PROC NEAR ; std::_Tree<std::_Tmap_traits<unsigned char,CTItem *,std::less<unsigned char>,std::allocator<std::pair<unsigned char const ,CTItem *> >,0> >::_Lbound, COMDAT
; _this$ = ecx

; 988  : 		_Nodeptr _Pnode = _Root();

  00000	8b 41 04	 mov	 eax, DWORD PTR [ecx+4]
  00003	8b 48 04	 mov	 ecx, DWORD PTR [eax+4]

; 989  : 		_Nodeptr _Wherenode = _Myhead;	// end() if search fails
; 990  : 
; 991  : 		while (!_Isnil(_Pnode))

  00006	8a 51 15	 mov	 dl, BYTE PTR [ecx+21]
  00009	84 d2		 test	 dl, dl
  0000b	75 1d		 jne	 SHORT $L152410
  0000d	8b 54 24 04	 mov	 edx, DWORD PTR __Keyval$[esp-4]
  00011	8a 12		 mov	 dl, BYTE PTR [edx]
  00013	53		 push	 ebx
$L152409:

; 992  : 			if (this->comp(_Key(_Pnode), _Keyval))

  00014	38 51 0c	 cmp	 BYTE PTR [ecx+12], dl
  00017	73 05		 jae	 SHORT $L152411

; 993  : 				_Pnode = _Right(_Pnode);	// descend right subtree

  00019	8b 49 08	 mov	 ecx, DWORD PTR [ecx+8]

; 994  : 			else

  0001c	eb 04		 jmp	 SHORT $L152412
$L152411:

; 995  : 				{	// _Pnode not less than _Keyval, remember it
; 996  : 				_Wherenode = _Pnode;

  0001e	8b c1		 mov	 eax, ecx

; 997  : 				_Pnode = _Left(_Pnode);	// descend left subtree

  00020	8b 09		 mov	 ecx, DWORD PTR [ecx]
$L152412:
  00022	8a 59 15	 mov	 bl, BYTE PTR [ecx+21]
  00025	84 db		 test	 bl, bl
  00027	74 eb		 je	 SHORT $L152409
  00029	5b		 pop	 ebx
$L152410:

; 998  : 				}
; 999  : 
; 1000 : 		return (_Wherenode);	// return best remembered candidate
; 1001 : 		}

  0002a	c2 04 00	 ret	 4
?_Lbound@?$_Tree@V?$_Tmap_traits@EPAVCTItem@@U?$less@E@std@@V?$allocator@U?$pair@$$CBEPAVCTItem@@@std@@@3@$0A@@std@@@std@@IBEPAU_Node@?$_Tree_nod@V?$_Tmap_traits@EPAVCTItem@@U?$less@E@std@@V?$allocator@U?$pair@$$CBEPAVCTItem@@@std@@@3@$0A@@std@@@2@ABE@Z ENDP ; std::_Tree<std::_Tmap_traits<unsigned char,CTItem *,std::less<unsigned char>,std::allocator<std::pair<unsigned char const ,CTItem *> >,0> >::_Lbound
_TEXT	ENDS
PUBLIC	?lower_bound@?$_Tree@V?$_Tmap_traits@EPAVCTItem@@U?$less@E@std@@V?$allocator@U?$pair@$$CBEPAVCTItem@@@std@@@3@$0A@@std@@@std@@QAE?AViterator@12@ABE@Z ; std::_Tree<std::_Tmap_traits<unsigned char,CTItem *,std::less<unsigned char>,std::allocator<std::pair<unsigned char const ,CTItem *> >,0> >::lower_bound
; Function compile flags: /Ogty
;	COMDAT ?lower_bound@?$_Tree@V?$_Tmap_traits@EPAVCTItem@@U?$less@E@std@@V?$allocator@U?$pair@$$CBEPAVCTItem@@@std@@@3@$0A@@std@@@std@@QAE?AViterator@12@ABE@Z
_TEXT	SEGMENT
___$ReturnUdt$ = 8					; size = 4
__Keyval$ = 12						; size = 4
?lower_bound@?$_Tree@V?$_Tmap_traits@EPAVCTItem@@U?$less@E@std@@V?$allocator@U?$pair@$$CBEPAVCTItem@@@std@@@3@$0A@@std@@@std@@QAE?AViterator@12@ABE@Z PROC NEAR ; std::_Tree<std::_Tmap_traits<unsigned char,CTItem *,std::less<unsigned char>,std::allocator<std::pair<unsigned char const ,CTItem *> >,0> >::lower_bound, COMDAT
; _this$ = ecx

; 810  : 		return (_TREE_ITERATOR(_Lbound(_Keyval)));

  00000	8b 49 04	 mov	 ecx, DWORD PTR [ecx+4]
  00003	8b 41 04	 mov	 eax, DWORD PTR [ecx+4]
  00006	8a 50 15	 mov	 dl, BYTE PTR [eax+21]
  00009	84 d2		 test	 dl, dl
  0000b	75 1d		 jne	 SHORT $L153081
  0000d	8b 54 24 08	 mov	 edx, DWORD PTR __Keyval$[esp-4]
  00011	8a 12		 mov	 dl, BYTE PTR [edx]
  00013	53		 push	 ebx
$L153068:
  00014	38 50 0c	 cmp	 BYTE PTR [eax+12], dl
  00017	73 05		 jae	 SHORT $L153070
  00019	8b 40 08	 mov	 eax, DWORD PTR [eax+8]
  0001c	eb 04		 jmp	 SHORT $L153071
$L153070:
  0001e	8b c8		 mov	 ecx, eax
  00020	8b 00		 mov	 eax, DWORD PTR [eax]
$L153071:
  00022	8a 58 15	 mov	 bl, BYTE PTR [eax+21]
  00025	84 db		 test	 bl, bl
  00027	74 eb		 je	 SHORT $L153068
  00029	5b		 pop	 ebx
$L153081:
  0002a	8b 44 24 04	 mov	 eax, DWORD PTR ___$ReturnUdt$[esp-4]
  0002e	89 08		 mov	 DWORD PTR [eax], ecx

; 811  : 		}

  00030	c2 08 00	 ret	 8
?lower_bound@?$_Tree@V?$_Tmap_traits@EPAVCTItem@@U?$less@E@std@@V?$allocator@U?$pair@$$CBEPAVCTItem@@@std@@@3@$0A@@std@@@std@@QAE?AViterator@12@ABE@Z ENDP ; std::_Tree<std::_Tmap_traits<unsigned char,CTItem *,std::less<unsigned char>,std::allocator<std::pair<unsigned char const ,CTItem *> >,0> >::lower_bound
_TEXT	ENDS
PUBLIC	?find@?$_Tree@V?$_Tmap_traits@EPAVCTItem@@U?$less@E@std@@V?$allocator@U?$pair@$$CBEPAVCTItem@@@std@@@3@$0A@@std@@@std@@QAE?AViterator@12@ABE@Z ; std::_Tree<std::_Tmap_traits<unsigned char,CTItem *,std::less<unsigned char>,std::allocator<std::pair<unsigned char const ,CTItem *> >,0> >::find
; Function compile flags: /Ogty
;	COMDAT ?find@?$_Tree@V?$_Tmap_traits@EPAVCTItem@@U?$less@E@std@@V?$allocator@U?$pair@$$CBEPAVCTItem@@@std@@@3@$0A@@std@@@std@@QAE?AViterator@12@ABE@Z
_TEXT	SEGMENT
$T153088 = -4						; size = 4
___$ReturnUdt$ = 8					; size = 4
__Where$ = 12						; size = 4
__Keyval$ = 12						; size = 4
?find@?$_Tree@V?$_Tmap_traits@EPAVCTItem@@U?$less@E@std@@V?$allocator@U?$pair@$$CBEPAVCTItem@@@std@@@3@$0A@@std@@@std@@QAE?AViterator@12@ABE@Z PROC NEAR ; std::_Tree<std::_Tmap_traits<unsigned char,CTItem *,std::less<unsigned char>,std::allocator<std::pair<unsigned char const ,CTItem *> >,0> >::find, COMDAT
; _this$ = ecx

; 787  : 		{	// find an element in mutable sequence that matches _Keyval

  00000	51		 push	 ecx
  00001	53		 push	 ebx
  00002	56		 push	 esi
  00003	8b f1		 mov	 esi, ecx

; 788  : 		iterator _Where = lower_bound(_Keyval);

  00005	8b 56 04	 mov	 edx, DWORD PTR [esi+4]
  00008	8b 42 04	 mov	 eax, DWORD PTR [edx+4]
  0000b	8a 48 15	 mov	 cl, BYTE PTR [eax+21]
  0000e	84 c9		 test	 cl, cl
  00010	57		 push	 edi
  00011	8b 7c 24 18	 mov	 edi, DWORD PTR __Keyval$[esp+12]
  00015	75 1e		 jne	 SHORT $L153183
  00017	8a 0f		 mov	 cl, BYTE PTR [edi]
  00019	8d a4 24 00 00
	00 00		 npad	 7
$L153182:
  00020	38 48 0c	 cmp	 BYTE PTR [eax+12], cl
  00023	73 05		 jae	 SHORT $L153184
  00025	8b 40 08	 mov	 eax, DWORD PTR [eax+8]
  00028	eb 04		 jmp	 SHORT $L153185
$L153184:
  0002a	8b d0		 mov	 edx, eax
  0002c	8b 00		 mov	 eax, DWORD PTR [eax]
$L153185:
  0002e	8a 58 15	 mov	 bl, BYTE PTR [eax+21]
  00031	84 db		 test	 bl, bl
  00033	74 eb		 je	 SHORT $L153182
$L153183:

; 789  : 		return (_Where == end() || this->comp(_Keyval, _Key(_Where._Mynode()))
; 790  : 			? end() : _Where);

  00035	8b 46 04	 mov	 eax, DWORD PTR [esi+4]
  00038	3b d0		 cmp	 edx, eax
  0003a	89 54 24 18	 mov	 DWORD PTR __Where$[esp+12], edx
  0003e	74 1a		 je	 SHORT $L153087
  00040	8a 0f		 mov	 cl, BYTE PTR [edi]
  00042	3a 4a 0c	 cmp	 cl, BYTE PTR [edx+12]
  00045	72 13		 jb	 SHORT $L153087
  00047	8d 44 24 18	 lea	 eax, DWORD PTR __Where$[esp+12]
  0004b	8b 10		 mov	 edx, DWORD PTR [eax]
  0004d	8b 44 24 14	 mov	 eax, DWORD PTR ___$ReturnUdt$[esp+12]
  00051	5f		 pop	 edi
  00052	5e		 pop	 esi
  00053	89 10		 mov	 DWORD PTR [eax], edx
  00055	5b		 pop	 ebx

; 791  : 		}

  00056	59		 pop	 ecx
  00057	c2 08 00	 ret	 8
$L153087:

; 789  : 		return (_Where == end() || this->comp(_Keyval, _Key(_Where._Mynode()))
; 790  : 			? end() : _Where);

  0005a	89 44 24 0c	 mov	 DWORD PTR $T153088[esp+16], eax
  0005e	8d 44 24 0c	 lea	 eax, DWORD PTR $T153088[esp+16]
  00062	8b 10		 mov	 edx, DWORD PTR [eax]
  00064	8b 44 24 14	 mov	 eax, DWORD PTR ___$ReturnUdt$[esp+12]
  00068	5f		 pop	 edi
  00069	5e		 pop	 esi
  0006a	89 10		 mov	 DWORD PTR [eax], edx
  0006c	5b		 pop	 ebx

; 791  : 		}

  0006d	59		 pop	 ecx
  0006e	c2 08 00	 ret	 8
?find@?$_Tree@V?$_Tmap_traits@EPAVCTItem@@U?$less@E@std@@V?$allocator@U?$pair@$$CBEPAVCTItem@@@std@@@3@$0A@@std@@@std@@QAE?AViterator@12@ABE@Z ENDP ; std::_Tree<std::_Tmap_traits<unsigned char,CTItem *,std::less<unsigned char>,std::allocator<std::pair<unsigned char const ,CTItem *> >,0> >::find
_TEXT	ENDS
EXTRN	?ExecAI@CTAICommand@@UAEEPAVCTMonster@@KKE@Z:NEAR ; CTAICommand::ExecAI
EXTRN	?Lottery@CTMonster@@QAEEPAVCTItem@@@Z:NEAR	; CTMonster::Lottery
EXTRN	?FindTInven@CTObjBase@@QAEPAVCTInven@@E@Z:NEAR	; CTObjBase::FindTInven
; Function compile flags: /Ogty
; File c:\users\pierr\desktop\4story - oldschool\sources\tserver\tmapsvr\taicmdlottery.cpp
;	COMDAT ?ExecAI@CTAICmdLottery@@UAEEPAVCTMonster@@KKE@Z
_TEXT	SEGMENT
$T153249 = 8						; size = 1
_pMON$ = 8						; size = 4
_dwEventHost$ = 12					; size = 4
_it$152331 = 16						; size = 4
_dwRHId$ = 16						; size = 4
_bRHType$ = 20						; size = 1
?ExecAI@CTAICmdLottery@@UAEEPAVCTMonster@@KKE@Z PROC NEAR ; CTAICmdLottery::ExecAI, COMDAT
; _this$ = ecx

; 20   : {

  00000	53		 push	 ebx
  00001	55		 push	 ebp
  00002	56		 push	 esi
  00003	57		 push	 edi

; 21   : 	CTInven * pInven = pMON->FindTInven(INVEN_DEFAULT);

  00004	8b 7c 24 14	 mov	 edi, DWORD PTR _pMON$[esp+12]
  00008	8b e9		 mov	 ebp, ecx
  0000a	68 ff 00 00 00	 push	 255			; 000000ffH
  0000f	8b cf		 mov	 ecx, edi
  00011	e8 00 00 00 00	 call	 ?FindTInven@CTObjBase@@QAEPAVCTInven@@E@Z ; CTObjBase::FindTInven

; 22   : 	CTItem * pItem = NULL;
; 23   : 	if(pInven)

  00016	8b 5c 24 1c	 mov	 ebx, DWORD PTR _dwRHId$[esp+12]
  0001a	8b f0		 mov	 esi, eax
  0001c	85 f6		 test	 esi, esi
  0001e	74 2a		 je	 SHORT $L152335

; 24   : 	{
; 25   : 		MAPTITEM::iterator it = pInven->m_mapTITEM.find(BYTE(dwRHId));

  00020	8d 44 24 14	 lea	 eax, DWORD PTR $T153249[esp+12]
  00024	50		 push	 eax
  00025	8d 4c 24 20	 lea	 ecx, DWORD PTR _it$152331[esp+16]
  00029	51		 push	 ecx
  0002a	8d 4e 08	 lea	 ecx, DWORD PTR [esi+8]
  0002d	88 5c 24 1c	 mov	 BYTE PTR $T153249[esp+20], bl
  00031	e8 00 00 00 00	 call	 ?find@?$_Tree@V?$_Tmap_traits@EPAVCTItem@@U?$less@E@std@@V?$allocator@U?$pair@$$CBEPAVCTItem@@@std@@@3@$0A@@std@@@std@@QAE?AViterator@12@ABE@Z ; std::_Tree<std::_Tmap_traits<unsigned char,CTItem *,std::less<unsigned char>,std::allocator<std::pair<unsigned char const ,CTItem *> >,0> >::find

; 26   : 		if( it != pInven->m_mapTITEM.end())

  00036	8b 44 24 1c	 mov	 eax, DWORD PTR _it$152331[esp+12]
  0003a	3b 46 0c	 cmp	 eax, DWORD PTR [esi+12]
  0003d	74 0b		 je	 SHORT $L152335

; 27   : 		{
; 28   : 			pItem = (*it).second;
; 29   : 			pMON->Lottery(pItem);

  0003f	8b 50 10	 mov	 edx, DWORD PTR [eax+16]
  00042	52		 push	 edx
  00043	8b cf		 mov	 ecx, edi
  00045	e8 00 00 00 00	 call	 ?Lottery@CTMonster@@QAEEPAVCTItem@@@Z ; CTMonster::Lottery
$L152335:

; 30   : 		}
; 31   : 	}
; 32   : 
; 33   : 	return CTAICommand::ExecAI( pMON, dwEventHost, dwRHId, bRHType);

  0004a	8b 44 24 20	 mov	 eax, DWORD PTR _bRHType$[esp+12]
  0004e	8b 4c 24 18	 mov	 ecx, DWORD PTR _dwEventHost$[esp+12]
  00052	50		 push	 eax
  00053	53		 push	 ebx
  00054	51		 push	 ecx
  00055	57		 push	 edi
  00056	8b cd		 mov	 ecx, ebp
  00058	e8 00 00 00 00	 call	 ?ExecAI@CTAICommand@@UAEEPAVCTMonster@@KKE@Z ; CTAICommand::ExecAI
  0005d	5f		 pop	 edi
  0005e	5e		 pop	 esi
  0005f	5d		 pop	 ebp
  00060	5b		 pop	 ebx

; 34   : }

  00061	c2 10 00	 ret	 16			; 00000010H
?ExecAI@CTAICmdLottery@@UAEEPAVCTMonster@@KKE@Z ENDP	; CTAICmdLottery::ExecAI
_TEXT	ENDS
END
