; Listing generated by Microsoft (R) Optimizing Compiler Version 13.10.3077 

	TITLE	.\TAICmdFollow.cpp
	.386P
include listing.inc
if @Version gt 510
.model FLAT
else
_TEXT	SEGMENT PARA USE32 PUBLIC 'CODE'
_TEXT	ENDS
_DATA	SEGMENT DWORD USE32 PUBLIC 'DATA'
_DATA	ENDS
CONST	SEGMENT DWORD USE32 PUBLIC 'CONST'
CONST	ENDS
_BSS	SEGMENT DWORD USE32 PUBLIC 'BSS'
_BSS	ENDS
$$SYMBOLS	SEGMENT BYTE USE32 'DEBSYM'
$$SYMBOLS	ENDS
$$TYPES	SEGMENT BYTE USE32 'DEBTYP'
$$TYPES	ENDS
_TLS	SEGMENT DWORD USE32 PUBLIC 'TLS'
_TLS	ENDS
text$yc	SEGMENT PARA USE32 PUBLIC 'CODE'
text$yc	ENDS
CRT$XCA	SEGMENT DWORD USE32 PUBLIC 'DATA'
CRT$XCA	ENDS
CRT$XCU	SEGMENT DWORD USE32 PUBLIC 'DATA'
CRT$XCU	ENDS
CRT$XCL	SEGMENT DWORD USE32 PUBLIC 'DATA'
CRT$XCL	ENDS
CRT$XCC	SEGMENT DWORD USE32 PUBLIC 'DATA'
CRT$XCC	ENDS
CRT$XCZ	SEGMENT DWORD USE32 PUBLIC 'DATA'
CRT$XCZ	ENDS
text$yd	SEGMENT PARA USE32 PUBLIC 'CODE'
text$yd	ENDS
ATL$__m	SEGMENT DWORD USE32 PUBLIC ''
ATL$__m	ENDS
ATL$__z	SEGMENT DWORD USE32 PUBLIC ''
ATL$__z	ENDS
ATL$__a	SEGMENT DWORD USE32 PUBLIC ''
ATL$__a	ENDS
xdata$x	SEGMENT DWORD USE32 PUBLIC 'CONST'
xdata$x	ENDS
;	COMDAT ??0CTAICmdFollow@@QAE@XZ
_TEXT	SEGMENT PARA USE32 PUBLIC 'CODE'
_TEXT	ENDS
;	COMDAT ??_GCTAICmdFollow@@UAEPAXI@Z
_TEXT	SEGMENT PARA USE32 PUBLIC 'CODE'
_TEXT	ENDS
;	COMDAT ??1CTAICmdFollow@@UAE@XZ
_TEXT	SEGMENT PARA USE32 PUBLIC 'CODE'
_TEXT	ENDS
;	COMDAT ?GetDelay@CTAICmdFollow@@UAEKPAVCTMonster@@KKE@Z
_TEXT	SEGMENT PARA USE32 PUBLIC 'CODE'
_TEXT	ENDS
;	COMDAT ?CanRun@CTAICmdFollow@@UAEEPAVCTMonster@@KKE@Z
_TEXT	SEGMENT PARA USE32 PUBLIC 'CODE'
_TEXT	ENDS
;	COMDAT ?ExecAI@CTAICmdFollow@@UAEEPAVCTMonster@@KKE@Z
_TEXT	SEGMENT PARA USE32 PUBLIC 'CODE'
_TEXT	ENDS
;	COMDAT ?Unlock@?$CComCritSecLock@VCComCriticalSection@ATL@@@ATL@@QAEXXZ
_TEXT	SEGMENT PARA USE32 PUBLIC 'CODE'
_TEXT	ENDS
;	COMDAT ??$_Uninit_fill_n@GIG@std@@YAXPAGIABGAAV?$allocator@G@0@U_Scalar_ptr_iterator_tag@0@@Z
_TEXT	SEGMENT PARA USE32 PUBLIC 'CODE'
_TEXT	ENDS
;	COMDAT ??$_Ptr_cat@UtagTAICONDITION@@@std@@YA?AU_Scalar_ptr_iterator_tag@0@PAPAUtagTAICONDITION@@0@Z
_TEXT	SEGMENT PARA USE32 PUBLIC 'CODE'
_TEXT	ENDS
;	COMDAT ??$_Destroy_range@PAUtagTAICONDITION@@V?$allocator@PAUtagTAICONDITION@@@std@@@std@@YAXPAPAUtagTAICONDITION@@0AAV?$allocator@PAUtagTAICONDITION@@@0@U_Scalar_ptr_iterator_tag@0@@Z
_TEXT	SEGMENT PARA USE32 PUBLIC 'CODE'
_TEXT	ENDS
;	COMDAT ??$_Ptr_cat@UtagTMONITEM@@@std@@YA?AU_Scalar_ptr_iterator_tag@0@PAPAUtagTMONITEM@@0@Z
_TEXT	SEGMENT PARA USE32 PUBLIC 'CODE'
_TEXT	ENDS
;	COMDAT ??$_Destroy_range@PAUtagTMONITEM@@V?$allocator@PAUtagTMONITEM@@@std@@@std@@YAXPAPAUtagTMONITEM@@0AAV?$allocator@PAUtagTMONITEM@@@0@U_Scalar_ptr_iterator_tag@0@@Z
_TEXT	SEGMENT PARA USE32 PUBLIC 'CODE'
_TEXT	ENDS
;	COMDAT ??$_Ptr_cat@UtagTMAPMON@@@std@@YA?AU_Scalar_ptr_iterator_tag@0@PAPAUtagTMAPMON@@0@Z
_TEXT	SEGMENT PARA USE32 PUBLIC 'CODE'
_TEXT	ENDS
;	COMDAT ??$_Destroy_range@PAUtagTMAPMON@@V?$allocator@PAUtagTMAPMON@@@std@@@std@@YAXPAPAUtagTMAPMON@@0AAV?$allocator@PAUtagTMAPMON@@@0@U_Scalar_ptr_iterator_tag@0@@Z
_TEXT	SEGMENT PARA USE32 PUBLIC 'CODE'
_TEXT	ENDS
;	COMDAT ??$_Ptr_cat@UtagPATHPOINT@@@std@@YA?AU_Scalar_ptr_iterator_tag@0@PAPAUtagPATHPOINT@@0@Z
_TEXT	SEGMENT PARA USE32 PUBLIC 'CODE'
_TEXT	ENDS
;	COMDAT ??$_Destroy_range@PAUtagPATHPOINT@@V?$allocator@PAUtagPATHPOINT@@@std@@@std@@YAXPAPAUtagPATHPOINT@@0AAV?$allocator@PAUtagPATHPOINT@@@0@U_Scalar_ptr_iterator_tag@0@@Z
_TEXT	SEGMENT PARA USE32 PUBLIC 'CODE'
_TEXT	ENDS
;	COMDAT ??$_Ptr_cat@UtagQUESTCONDITION@@@std@@YA?AU_Scalar_ptr_iterator_tag@0@PAPAUtagQUESTCONDITION@@0@Z
_TEXT	SEGMENT PARA USE32 PUBLIC 'CODE'
_TEXT	ENDS
;	COMDAT ??$_Destroy_range@PAUtagQUESTCONDITION@@V?$allocator@PAUtagQUESTCONDITION@@@std@@@std@@YAXPAPAUtagQUESTCONDITION@@0AAV?$allocator@PAUtagQUESTCONDITION@@@0@U_Scalar_ptr_iterator_tag@0@@Z
_TEXT	SEGMENT PARA USE32 PUBLIC 'CODE'
_TEXT	ENDS
;	COMDAT ??$_Ptr_cat@UtagQUESTREWARD@@@std@@YA?AU_Scalar_ptr_iterator_tag@0@PAPAUtagQUESTREWARD@@0@Z
_TEXT	SEGMENT PARA USE32 PUBLIC 'CODE'
_TEXT	ENDS
;	COMDAT ??$_Destroy_range@PAUtagQUESTREWARD@@V?$allocator@PAUtagQUESTREWARD@@@std@@@std@@YAXPAPAUtagQUESTREWARD@@0AAV?$allocator@PAUtagQUESTREWARD@@@0@U_Scalar_ptr_iterator_tag@0@@Z
_TEXT	SEGMENT PARA USE32 PUBLIC 'CODE'
_TEXT	ENDS
;	COMDAT ??$_Ptr_cat@UtagQUESTTERM@@@std@@YA?AU_Scalar_ptr_iterator_tag@0@PAPAUtagQUESTTERM@@0@Z
_TEXT	SEGMENT PARA USE32 PUBLIC 'CODE'
_TEXT	ENDS
;	COMDAT ??$_Destroy_range@PAUtagQUESTTERM@@V?$allocator@PAUtagQUESTTERM@@@std@@@std@@YAXPAPAUtagQUESTTERM@@0AAV?$allocator@PAUtagQUESTTERM@@@0@U_Scalar_ptr_iterator_tag@0@@Z
_TEXT	SEGMENT PARA USE32 PUBLIC 'CODE'
_TEXT	ENDS
;	COMDAT ??$_Ptr_cat@PAUtagTCASHITMSALE@@PAU1@@std@@YA?AU_Nonscalar_ptr_iterator_tag@0@AAPAUtagTCASHITMSALE@@0@Z
_TEXT	SEGMENT PARA USE32 PUBLIC 'CODE'
_TEXT	ENDS
;	COMDAT ??$_Uninit_fill_n@PAUtagTCASHITMSALE@@IU1@V?$allocator@UtagTCASHITMSALE@@@std@@@std@@YAXPAUtagTCASHITMSALE@@IABU1@AAV?$allocator@UtagTCASHITMSALE@@@0@U_Nonscalar_ptr_iterator_tag@0@@Z
_TEXT	SEGMENT PARA USE32 PUBLIC 'CODE'
_TEXT	ENDS
;	COMDAT ??$_Ptr_cat@PAUtagMONREGEN@@PAU1@@std@@YA?AU_Nonscalar_ptr_iterator_tag@0@AAPAUtagMONREGEN@@0@Z
_TEXT	SEGMENT PARA USE32 PUBLIC 'CODE'
_TEXT	ENDS
;	COMDAT ??$_Uninit_fill_n@PAUtagMONREGEN@@IU1@V?$allocator@UtagMONREGEN@@@std@@@std@@YAXPAUtagMONREGEN@@IABU1@AAV?$allocator@UtagMONREGEN@@@0@U_Nonscalar_ptr_iterator_tag@0@@Z
_TEXT	SEGMENT PARA USE32 PUBLIC 'CODE'
_TEXT	ENDS
;	COMDAT ??$_Ptr_cat@PAUtagLOTTERY@@PAU1@@std@@YA?AU_Nonscalar_ptr_iterator_tag@0@AAPAUtagLOTTERY@@0@Z
_TEXT	SEGMENT PARA USE32 PUBLIC 'CODE'
_TEXT	ENDS
;	COMDAT ??$_Uninit_fill_n@PAUtagLOTTERY@@IU1@V?$allocator@UtagLOTTERY@@@std@@@std@@YAXPAUtagLOTTERY@@IABU1@AAV?$allocator@UtagLOTTERY@@@0@U_Nonscalar_ptr_iterator_tag@0@@Z
_TEXT	SEGMENT PARA USE32 PUBLIC 'CODE'
_TEXT	ENDS
;	COMDAT ??$_Destroy_range@GV?$allocator@G@std@@@std@@YAXPAG0AAV?$allocator@G@0@U_Scalar_ptr_iterator_tag@0@@Z
_TEXT	SEGMENT PARA USE32 PUBLIC 'CODE'
_TEXT	ENDS
;	COMDAT ??$_Uninitialized_copy@PAGPAGV?$allocator@G@std@@@std@@YAPAGPAG00AAV?$allocator@G@0@@Z
_TEXT	SEGMENT PARA USE32 PUBLIC 'CODE'
_TEXT	ENDS
;	COMDAT ??$_Copy_backward_opt@PAGPAG@std@@YAPAGPAG00U_Scalar_ptr_iterator_tag@0@@Z
_TEXT	SEGMENT PARA USE32 PUBLIC 'CODE'
_TEXT	ENDS
;	COMDAT ??$_Ptr_cat@VCTPlayer@@@std@@YA?AU_Scalar_ptr_iterator_tag@0@PAPAVCTPlayer@@0@Z
_TEXT	SEGMENT PARA USE32 PUBLIC 'CODE'
_TEXT	ENDS
;	COMDAT ??$_Destroy_range@PAVCTPlayer@@V?$allocator@PAVCTPlayer@@@std@@@std@@YAXPAPAVCTPlayer@@0AAV?$allocator@PAVCTPlayer@@@0@U_Scalar_ptr_iterator_tag@0@@Z
_TEXT	SEGMENT PARA USE32 PUBLIC 'CODE'
_TEXT	ENDS
;	COMDAT ??$_Destroy_range@UtagTCASHITMSALE@@V?$allocator@UtagTCASHITMSALE@@@std@@@std@@YAXPAUtagTCASHITMSALE@@0AAV?$allocator@UtagTCASHITMSALE@@@0@U_Nonscalar_ptr_iterator_tag@0@@Z
_TEXT	SEGMENT PARA USE32 PUBLIC 'CODE'
_TEXT	ENDS
;	COMDAT ??$_Uninitialized_copy@PAUtagTCASHITMSALE@@PAU1@V?$allocator@UtagTCASHITMSALE@@@std@@@std@@YAPAUtagTCASHITMSALE@@PAU1@00AAV?$allocator@UtagTCASHITMSALE@@@0@@Z
_TEXT	SEGMENT PARA USE32 PUBLIC 'CODE'
_TEXT	ENDS
;	COMDAT ??$_Copy_backward_opt@PAUtagTCASHITMSALE@@PAU1@@std@@YAPAUtagTCASHITMSALE@@PAU1@00U_Nonscalar_ptr_iterator_tag@0@@Z
_TEXT	SEGMENT PARA USE32 PUBLIC 'CODE'
_TEXT	ENDS
;	COMDAT ??$_Destroy_range@UtagMONREGEN@@V?$allocator@UtagMONREGEN@@@std@@@std@@YAXPAUtagMONREGEN@@0AAV?$allocator@UtagMONREGEN@@@0@U_Nonscalar_ptr_iterator_tag@0@@Z
_TEXT	SEGMENT PARA USE32 PUBLIC 'CODE'
_TEXT	ENDS
;	COMDAT ??$_Uninitialized_copy@PAUtagMONREGEN@@PAU1@V?$allocator@UtagMONREGEN@@@std@@@std@@YAPAUtagMONREGEN@@PAU1@00AAV?$allocator@UtagMONREGEN@@@0@@Z
_TEXT	SEGMENT PARA USE32 PUBLIC 'CODE'
_TEXT	ENDS
;	COMDAT ??$_Copy_backward_opt@PAUtagMONREGEN@@PAU1@@std@@YAPAUtagMONREGEN@@PAU1@00U_Nonscalar_ptr_iterator_tag@0@@Z
_TEXT	SEGMENT PARA USE32 PUBLIC 'CODE'
_TEXT	ENDS
;	COMDAT ??$_Destroy_range@UtagLOTTERY@@V?$allocator@UtagLOTTERY@@@std@@@std@@YAXPAUtagLOTTERY@@0AAV?$allocator@UtagLOTTERY@@@0@U_Nonscalar_ptr_iterator_tag@0@@Z
_TEXT	SEGMENT PARA USE32 PUBLIC 'CODE'
_TEXT	ENDS
;	COMDAT ??$_Uninitialized_copy@PAUtagLOTTERY@@PAU1@V?$allocator@UtagLOTTERY@@@std@@@std@@YAPAUtagLOTTERY@@PAU1@00AAV?$allocator@UtagLOTTERY@@@0@@Z
_TEXT	SEGMENT PARA USE32 PUBLIC 'CODE'
_TEXT	ENDS
;	COMDAT ??$_Copy_backward_opt@PAUtagLOTTERY@@PAU1@@std@@YAPAUtagLOTTERY@@PAU1@00U_Nonscalar_ptr_iterator_tag@0@@Z
_TEXT	SEGMENT PARA USE32 PUBLIC 'CODE'
_TEXT	ENDS
;	COMDAT ?construct@?$allocator@UtagTCASHITMSALE@@@std@@QAEXPAUtagTCASHITMSALE@@ABU3@@Z
_TEXT	SEGMENT PARA USE32 PUBLIC 'CODE'
_TEXT	ENDS
;	COMDAT ?destroy@?$allocator@UtagTCASHITMSALE@@@std@@QAEXPAUtagTCASHITMSALE@@@Z
_TEXT	SEGMENT PARA USE32 PUBLIC 'CODE'
_TEXT	ENDS
;	COMDAT ?construct@?$allocator@UtagMONREGEN@@@std@@QAEXPAUtagMONREGEN@@ABU3@@Z
_TEXT	SEGMENT PARA USE32 PUBLIC 'CODE'
_TEXT	ENDS
;	COMDAT ?destroy@?$allocator@UtagMONREGEN@@@std@@QAEXPAUtagMONREGEN@@@Z
_TEXT	SEGMENT PARA USE32 PUBLIC 'CODE'
_TEXT	ENDS
;	COMDAT ?construct@?$allocator@UtagLOTTERY@@@std@@QAEXPAUtagLOTTERY@@ABU3@@Z
_TEXT	SEGMENT PARA USE32 PUBLIC 'CODE'
_TEXT	ENDS
;	COMDAT ?destroy@?$allocator@UtagLOTTERY@@@std@@QAEXPAUtagLOTTERY@@@Z
_TEXT	SEGMENT PARA USE32 PUBLIC 'CODE'
_TEXT	ENDS
;	COMDAT ??$fill_n@PAGIG@std@@YAXPAGIABG@Z
_TEXT	SEGMENT PARA USE32 PUBLIC 'CODE'
_TEXT	ENDS
;	COMDAT ??$_Uninit_copy@GG@std@@YAPAGPAG00AAV?$allocator@G@0@U_Scalar_ptr_iterator_tag@0@@Z
_TEXT	SEGMENT PARA USE32 PUBLIC 'CODE'
_TEXT	ENDS
;	COMDAT ??$_Uninit_copy@PAUtagTCASHITMSALE@@PAU1@V?$allocator@UtagTCASHITMSALE@@@std@@@std@@YAPAUtagTCASHITMSALE@@PAU1@00AAV?$allocator@UtagTCASHITMSALE@@@0@U_Nonscalar_ptr_iterator_tag@0@@Z
_TEXT	SEGMENT PARA USE32 PUBLIC 'CODE'
_TEXT	ENDS
;	COMDAT ??$_Uninit_copy@PAUtagMONREGEN@@PAU1@V?$allocator@UtagMONREGEN@@@std@@@std@@YAPAUtagMONREGEN@@PAU1@00AAV?$allocator@UtagMONREGEN@@@0@U_Nonscalar_ptr_iterator_tag@0@@Z
_TEXT	SEGMENT PARA USE32 PUBLIC 'CODE'
_TEXT	ENDS
;	COMDAT ??$_Uninit_copy@PAUtagLOTTERY@@PAU1@V?$allocator@UtagLOTTERY@@@std@@@std@@YAPAUtagLOTTERY@@PAU1@00AAV?$allocator@UtagLOTTERY@@@0@U_Nonscalar_ptr_iterator_tag@0@@Z
_TEXT	SEGMENT PARA USE32 PUBLIC 'CODE'
_TEXT	ENDS
;	COMDAT ??$_Construct@UtagTCASHITMSALE@@U1@@std@@YAXPAUtagTCASHITMSALE@@ABU1@@Z
_TEXT	SEGMENT PARA USE32 PUBLIC 'CODE'
_TEXT	ENDS
;	COMDAT ??$_Destroy@UtagTCASHITMSALE@@@std@@YAXPAUtagTCASHITMSALE@@@Z
_TEXT	SEGMENT PARA USE32 PUBLIC 'CODE'
_TEXT	ENDS
;	COMDAT ??$_Construct@UtagMONREGEN@@U1@@std@@YAXPAUtagMONREGEN@@ABU1@@Z
_TEXT	SEGMENT PARA USE32 PUBLIC 'CODE'
_TEXT	ENDS
;	COMDAT ??$_Destroy@UtagMONREGEN@@@std@@YAXPAUtagMONREGEN@@@Z
_TEXT	SEGMENT PARA USE32 PUBLIC 'CODE'
_TEXT	ENDS
;	COMDAT ??$_Construct@UtagLOTTERY@@U1@@std@@YAXPAUtagLOTTERY@@ABU1@@Z
_TEXT	SEGMENT PARA USE32 PUBLIC 'CODE'
_TEXT	ENDS
;	COMDAT ??$_Destroy@UtagLOTTERY@@@std@@YAXPAUtagLOTTERY@@@Z
_TEXT	SEGMENT PARA USE32 PUBLIC 'CODE'
_TEXT	ENDS
;	COMDAT ??2@YAPAXIPAX@Z
_TEXT	SEGMENT PARA USE32 PUBLIC 'CODE'
_TEXT	ENDS
;	COMDAT ?_Ptr_cat@std@@YA?AU_Scalar_ptr_iterator_tag@1@PAG0@Z
_TEXT	SEGMENT PARA USE32 PUBLIC 'CODE'
_TEXT	ENDS
;	COMDAT ?_Psave@?$_Facetptr@V?$ctype@G@std@@@std@@2PBVfacet@locale@2@B
_DATA	SEGMENT DWORD USE32 PUBLIC 'DATA'
_DATA	ENDS
;	COMDAT ?_Psave@?$_Facetptr@V?$ctype@D@std@@@std@@2PBVfacet@locale@2@B
_DATA	SEGMENT DWORD USE32 PUBLIC 'DATA'
_DATA	ENDS
;	COMDAT ?Unlock@CComCriticalSection@ATL@@QAEJXZ
_TEXT	SEGMENT PARA USE32 PUBLIC 'CODE'
_TEXT	ENDS
;	COMDAT ??_7CTAICmdFollow@@6B@
CONST	SEGMENT DWORD USE32 PUBLIC 'CONST'
CONST	ENDS
sxdata	SEGMENT DWORD USE32 'SXDATA'
sxdata	ENDS
FLAT	GROUP _DATA, CONST, _BSS
	ASSUME	CS: FLAT, DS: FLAT, SS: FLAT
endif

INCLUDELIB LIBCMT
INCLUDELIB OLDNAMES

PUBLIC	?GetDelay@CTAICmdFollow@@UAEKPAVCTMonster@@KKE@Z ; CTAICmdFollow::GetDelay
PUBLIC	?CanRun@CTAICmdFollow@@UAEEPAVCTMonster@@KKE@Z	; CTAICmdFollow::CanRun
PUBLIC	?ExecAI@CTAICmdFollow@@UAEEPAVCTMonster@@KKE@Z	; CTAICmdFollow::ExecAI
PUBLIC	??0CTAICmdFollow@@QAE@XZ			; CTAICmdFollow::CTAICmdFollow
PUBLIC	??_7CTAICmdFollow@@6B@				; CTAICmdFollow::`vftable'
PUBLIC	??_GCTAICmdFollow@@UAEPAXI@Z			; CTAICmdFollow::`scalar deleting destructor'
EXTRN	?CheckCondition@CTAICommand@@UAEEPAUtagTAICONDITION@@PAVCTMonster@@KKE@Z:NEAR ; CTAICommand::CheckCondition
EXTRN	??0CTAICommand@@QAE@XZ:NEAR			; CTAICommand::CTAICommand
EXTRN	??_ECTAICmdFollow@@UAEPAXI@Z:NEAR		; CTAICmdFollow::`vector deleting destructor'
;	COMDAT ??_7CTAICmdFollow@@6B@
; File c:\users\pierr\desktop\4story - oldschool\sources\tserver\tmapsvr\taicmdfollow.cpp
CONST	SEGMENT
??_7CTAICmdFollow@@6B@ DD FLAT:?GetDelay@CTAICmdFollow@@UAEKPAVCTMonster@@KKE@Z ; CTAICmdFollow::`vftable'
	DD	FLAT:?CanRun@CTAICmdFollow@@UAEEPAVCTMonster@@KKE@Z
	DD	FLAT:?ExecAI@CTAICmdFollow@@UAEEPAVCTMonster@@KKE@Z
	DD	FLAT:?CheckCondition@CTAICommand@@UAEEPAUtagTAICONDITION@@PAVCTMonster@@KKE@Z
	DD	FLAT:??_ECTAICmdFollow@@UAEPAXI@Z
; Function compile flags: /Ogty
CONST	ENDS
;	COMDAT ??0CTAICmdFollow@@QAE@XZ
_TEXT	SEGMENT
??0CTAICmdFollow@@QAE@XZ PROC NEAR			; CTAICmdFollow::CTAICmdFollow, COMDAT
; _this$ = ecx

; 5    : {

  00000	56		 push	 esi
  00001	8b f1		 mov	 esi, ecx
  00003	e8 00 00 00 00	 call	 ??0CTAICommand@@QAE@XZ	; CTAICommand::CTAICommand
  00008	c7 06 00 00 00
	00		 mov	 DWORD PTR [esi], OFFSET FLAT:??_7CTAICmdFollow@@6B@

; 6    : }

  0000e	8b c6		 mov	 eax, esi
  00010	5e		 pop	 esi
  00011	c3		 ret	 0
??0CTAICmdFollow@@QAE@XZ ENDP				; CTAICmdFollow::CTAICmdFollow
_TEXT	ENDS
PUBLIC	??1CTAICmdFollow@@UAE@XZ			; CTAICmdFollow::~CTAICmdFollow
EXTRN	??1CTAICommand@@UAE@XZ:NEAR			; CTAICommand::~CTAICommand
; Function compile flags: /Ogty
;	COMDAT ??1CTAICmdFollow@@UAE@XZ
_TEXT	SEGMENT
??1CTAICmdFollow@@UAE@XZ PROC NEAR			; CTAICmdFollow::~CTAICmdFollow, COMDAT
; _this$ = ecx

; 9    : {

  00000	c7 01 00 00 00
	00		 mov	 DWORD PTR [ecx], OFFSET FLAT:??_7CTAICmdFollow@@6B@

; 10   : }

  00006	e9 00 00 00 00	 jmp	 ??1CTAICommand@@UAE@XZ	; CTAICommand::~CTAICommand
??1CTAICmdFollow@@UAE@XZ ENDP				; CTAICmdFollow::~CTAICmdFollow
; Function compile flags: /Ogty
_TEXT	ENDS
;	COMDAT ?GetDelay@CTAICmdFollow@@UAEKPAVCTMonster@@KKE@Z
_TEXT	SEGMENT
_pMON$ = 8						; size = 4
_dwEventHost$ = 12					; size = 4
_dwRHId$ = 16						; size = 4
_bRHType$ = 20						; size = 1
?GetDelay@CTAICmdFollow@@UAEKPAVCTMonster@@KKE@Z PROC NEAR ; CTAICmdFollow::GetDelay, COMDAT
; _this$ = ecx

; 14   : 	return 0;

  00000	33 c0		 xor	 eax, eax

; 15   : }

  00002	c2 10 00	 ret	 16			; 00000010H
?GetDelay@CTAICmdFollow@@UAEKPAVCTMonster@@KKE@Z ENDP	; CTAICmdFollow::GetDelay
_TEXT	ENDS
EXTRN	?CanRun@CTAICommand@@UAEEPAVCTMonster@@KKE@Z:NEAR ; CTAICommand::CanRun
EXTRN	?CheckAttack@CTObjBase@@QAEEXZ:NEAR		; CTObjBase::CheckAttack
; Function compile flags: /Ogty
;	COMDAT ?CanRun@CTAICmdFollow@@UAEEPAVCTMonster@@KKE@Z
_TEXT	SEGMENT
_pMON$ = 8						; size = 4
_dwEventHost$ = 12					; size = 4
_dwRHId$ = 16						; size = 4
_bRHType$ = 20						; size = 1
?CanRun@CTAICmdFollow@@UAEEPAVCTMonster@@KKE@Z PROC NEAR ; CTAICmdFollow::CanRun, COMDAT
; _this$ = ecx

; 18   : {

  00000	53		 push	 ebx
  00001	56		 push	 esi

; 19   : 	if( pMON->m_bStatus != OS_WAKEUP ||
; 20   : 		pMON->m_bMode != MT_BATTLE ||
; 21   : 		pMON->m_dwHostID != dwEventHost ||
; 22   : 		!pMON->m_dwTargetID ||
; 23   : 		pMON->m_pSPAWN->m_pSPAWN->m_bRoamType == 4 ||
; 24   : 		!pMON->CheckAttack()) //고정몬스터

  00002	8b 74 24 0c	 mov	 esi, DWORD PTR _pMON$[esp+4]
  00006	8b d9		 mov	 ebx, ecx
  00008	8a 8e cc 00 00
	00		 mov	 cl, BYTE PTR [esi+204]
  0000e	b0 01		 mov	 al, 1
  00010	3a c8		 cmp	 cl, al
  00012	57		 push	 edi
  00013	75 4e		 jne	 SHORT $L152250
  00015	38 46 76	 cmp	 BYTE PTR [esi+118], al
  00018	75 49		 jne	 SHORT $L152250
  0001a	8b 7c 24 14	 mov	 edi, DWORD PTR _dwEventHost$[esp+8]
  0001e	39 be f8 00 00
	00		 cmp	 DWORD PTR [esi+248], edi
  00024	75 3d		 jne	 SHORT $L152250
  00026	8b 86 38 01 00
	00		 mov	 eax, DWORD PTR [esi+312]
  0002c	85 c0		 test	 eax, eax
  0002e	74 33		 je	 SHORT $L152250
  00030	8b 86 e8 00 00
	00		 mov	 eax, DWORD PTR [esi+232]
  00036	8b 48 04	 mov	 ecx, DWORD PTR [eax+4]
  00039	80 79 54 04	 cmp	 BYTE PTR [ecx+84], 4
  0003d	74 24		 je	 SHORT $L152250
  0003f	8b ce		 mov	 ecx, esi
  00041	e8 00 00 00 00	 call	 ?CheckAttack@CTObjBase@@QAEEXZ ; CTObjBase::CheckAttack
  00046	84 c0		 test	 al, al
  00048	74 19		 je	 SHORT $L152250

; 26   : 
; 27   : 	return CTAICommand::CanRun( pMON, dwEventHost, dwRHId, bRHType);

  0004a	8b 54 24 1c	 mov	 edx, DWORD PTR _bRHType$[esp+8]
  0004e	8b 44 24 18	 mov	 eax, DWORD PTR _dwRHId$[esp+8]
  00052	52		 push	 edx
  00053	50		 push	 eax
  00054	57		 push	 edi
  00055	56		 push	 esi
  00056	8b cb		 mov	 ecx, ebx
  00058	e8 00 00 00 00	 call	 ?CanRun@CTAICommand@@UAEEPAVCTMonster@@KKE@Z ; CTAICommand::CanRun
  0005d	5f		 pop	 edi
  0005e	5e		 pop	 esi
  0005f	5b		 pop	 ebx

; 28   : }

  00060	c2 10 00	 ret	 16			; 00000010H
$L152250:
  00063	5f		 pop	 edi
  00064	5e		 pop	 esi

; 25   : 		return FALSE;

  00065	32 c0		 xor	 al, al
  00067	5b		 pop	 ebx

; 28   : }

  00068	c2 10 00	 ret	 16			; 00000010H
?CanRun@CTAICmdFollow@@UAEEPAVCTMonster@@KKE@Z ENDP	; CTAICmdFollow::CanRun
_TEXT	ENDS
EXTRN	__fltused:NEAR
EXTRN	?ExecAI@CTAICommand@@UAEEPAVCTMonster@@KKE@Z:NEAR ; CTAICommand::ExecAI
EXTRN	?FindHost@CTMonster@@QAEPAVCTPlayer@@K@Z:NEAR	; CTMonster::FindHost
EXTRN	?SelectSkill@CTMonster@@QAEGPAVCTPlayer@@E@Z:NEAR ; CTMonster::SelectSkill
EXTRN	?SendCS_MONACTION_ACK@CTPlayer@@QAEXKEMMMKE@Z:NEAR ; CTPlayer::SendCS_MONACTION_ACK
; Function compile flags: /Ogty
;	COMDAT ?ExecAI@CTAICmdFollow@@UAEEPAVCTMonster@@KKE@Z
_TEXT	SEGMENT
_pMON$ = 8						; size = 4
_dwEventHost$ = 12					; size = 4
_dwRHId$ = 16						; size = 4
_bRHType$ = 20						; size = 1
?ExecAI@CTAICmdFollow@@UAEEPAVCTMonster@@KKE@Z PROC NEAR ; CTAICmdFollow::ExecAI, COMDAT
; _this$ = ecx

; 31   : {

  00000	53		 push	 ebx
  00001	56		 push	 esi

; 32   : 	CTPlayer *pHOST = pMON->FindHost(pMON->m_dwHostID);

  00002	8b 74 24 0c	 mov	 esi, DWORD PTR _pMON$[esp+4]
  00006	8b 86 f8 00 00
	00		 mov	 eax, DWORD PTR [esi+248]
  0000c	57		 push	 edi
  0000d	8b d9		 mov	 ebx, ecx
  0000f	50		 push	 eax
  00010	8b ce		 mov	 ecx, esi
  00012	e8 00 00 00 00	 call	 ?FindHost@CTMonster@@QAEPAVCTPlayer@@K@Z ; CTMonster::FindHost
  00017	8b f8		 mov	 edi, eax

; 33   : 
; 34   : 	if(pHOST)

  00019	85 ff		 test	 edi, edi
  0001b	74 3c		 je	 SHORT $L152259

; 35   : 	{
; 36   : 		pHOST->SendCS_MONACTION_ACK(
; 37   : 			pMON->m_dwID,
; 38   : 			TA_FOLLOW,
; 39   : 			pHOST->m_fPosX,
; 40   : 			pHOST->m_fPosY,
; 41   : 			pHOST->m_fPosZ,
; 42   : 			pMON->m_dwTargetID,
; 43   : 			pMON->m_bTargetType);

  0001d	8b 96 38 01 00
	00		 mov	 edx, DWORD PTR [esi+312]
  00023	8b 87 84 01 01
	00		 mov	 eax, DWORD PTR [edi+65924]
  00029	33 c9		 xor	 ecx, ecx
  0002b	8a 8e 34 01 00
	00		 mov	 cl, BYTE PTR [esi+308]
  00031	51		 push	 ecx
  00032	8b 8f 80 01 01
	00		 mov	 ecx, DWORD PTR [edi+65920]
  00038	52		 push	 edx
  00039	8b 97 7c 01 01
	00		 mov	 edx, DWORD PTR [edi+65916]
  0003f	50		 push	 eax
  00040	8b 46 44	 mov	 eax, DWORD PTR [esi+68]
  00043	51		 push	 ecx
  00044	52		 push	 edx
  00045	6a 09		 push	 9
  00047	50		 push	 eax
  00048	8b cf		 mov	 ecx, edi
  0004a	e8 00 00 00 00	 call	 ?SendCS_MONACTION_ACK@CTPlayer@@QAEXKEMMMKE@Z ; CTPlayer::SendCS_MONACTION_ACK

; 44   : 
; 45   : 		pMON->SelectSkill(pHOST, FALSE);

  0004f	6a 00		 push	 0
  00051	57		 push	 edi
  00052	8b ce		 mov	 ecx, esi
  00054	e8 00 00 00 00	 call	 ?SelectSkill@CTMonster@@QAEGPAVCTPlayer@@E@Z ; CTMonster::SelectSkill
$L152259:

; 46   : 	}
; 47   : 	pMON->m_dwHostKEY++;

  00059	8b 8e f4 00 00
	00		 mov	 ecx, DWORD PTR [esi+244]

; 48   : 
; 49   : 	return CTAICommand::ExecAI( pMON, dwEventHost, dwRHId, bRHType);

  0005f	8b 54 24 18	 mov	 edx, DWORD PTR _dwRHId$[esp+8]
  00063	8b 44 24 14	 mov	 eax, DWORD PTR _dwEventHost$[esp+8]
  00067	41		 inc	 ecx
  00068	89 8e f4 00 00
	00		 mov	 DWORD PTR [esi+244], ecx
  0006e	8b 4c 24 1c	 mov	 ecx, DWORD PTR _bRHType$[esp+8]
  00072	51		 push	 ecx
  00073	52		 push	 edx
  00074	50		 push	 eax
  00075	56		 push	 esi
  00076	8b cb		 mov	 ecx, ebx
  00078	e8 00 00 00 00	 call	 ?ExecAI@CTAICommand@@UAEEPAVCTMonster@@KKE@Z ; CTAICommand::ExecAI
  0007d	5f		 pop	 edi
  0007e	5e		 pop	 esi
  0007f	5b		 pop	 ebx

; 50   : }

  00080	c2 10 00	 ret	 16			; 00000010H
?ExecAI@CTAICmdFollow@@UAEEPAVCTMonster@@KKE@Z ENDP	; CTAICmdFollow::ExecAI
_TEXT	ENDS
EXTRN	??3@YAXPAX@Z:NEAR				; operator delete
; Function compile flags: /Ogty
;	COMDAT ??_GCTAICmdFollow@@UAEPAXI@Z
_TEXT	SEGMENT
___flags$ = 8						; size = 4
??_GCTAICmdFollow@@UAEPAXI@Z PROC NEAR			; CTAICmdFollow::`scalar deleting destructor', COMDAT
; _this$ = ecx
  00000	56		 push	 esi
  00001	8b f1		 mov	 esi, ecx
  00003	e8 00 00 00 00	 call	 ??1CTAICmdFollow@@UAE@XZ ; CTAICmdFollow::~CTAICmdFollow
  00008	f6 44 24 08 01	 test	 BYTE PTR ___flags$[esp], 1
  0000d	74 09		 je	 SHORT $L152706
  0000f	56		 push	 esi
  00010	e8 00 00 00 00	 call	 ??3@YAXPAX@Z		; operator delete
  00015	83 c4 04	 add	 esp, 4
$L152706:
  00018	8b c6		 mov	 eax, esi
  0001a	5e		 pop	 esi
  0001b	c2 04 00	 ret	 4
??_GCTAICmdFollow@@UAEPAXI@Z ENDP			; CTAICmdFollow::`scalar deleting destructor'
_TEXT	ENDS
END
