; Listing generated by Microsoft (R) Optimizing Compiler Version 13.10.3077 

	TITLE	.\TAICmdLeave.cpp
	.386P
include listing.inc
if @Version gt 510
.model FLAT
else
_TEXT	SEGMENT PARA USE32 PUBLIC 'CODE'
_TEXT	ENDS
_DATA	SEGMENT DWORD USE32 PUBLIC 'DATA'
_DATA	ENDS
CONST	SEGMENT DWORD USE32 PUBLIC 'CONST'
CONST	ENDS
_BSS	SEGMENT DWORD USE32 PUBLIC 'BSS'
_BSS	ENDS
$$SYMBOLS	SEGMENT BYTE USE32 'DEBSYM'
$$SYMBOLS	ENDS
$$TYPES	SEGMENT BYTE USE32 'DEBTYP'
$$TYPES	ENDS
_TLS	SEGMENT DWORD USE32 PUBLIC 'TLS'
_TLS	ENDS
text$yc	SEGMENT PARA USE32 PUBLIC 'CODE'
text$yc	ENDS
CRT$XCA	SEGMENT DWORD USE32 PUBLIC 'DATA'
CRT$XCA	ENDS
CRT$XCU	SEGMENT DWORD USE32 PUBLIC 'DATA'
CRT$XCU	ENDS
CRT$XCL	SEGMENT DWORD USE32 PUBLIC 'DATA'
CRT$XCL	ENDS
CRT$XCC	SEGMENT DWORD USE32 PUBLIC 'DATA'
CRT$XCC	ENDS
CRT$XCZ	SEGMENT DWORD USE32 PUBLIC 'DATA'
CRT$XCZ	ENDS
text$yd	SEGMENT PARA USE32 PUBLIC 'CODE'
text$yd	ENDS
ATL$__m	SEGMENT DWORD USE32 PUBLIC ''
ATL$__m	ENDS
ATL$__z	SEGMENT DWORD USE32 PUBLIC ''
ATL$__z	ENDS
ATL$__a	SEGMENT DWORD USE32 PUBLIC ''
ATL$__a	ENDS
xdata$x	SEGMENT DWORD USE32 PUBLIC 'CONST'
xdata$x	ENDS
;	COMDAT ??0CTAICmdLeave@@QAE@XZ
_TEXT	SEGMENT PARA USE32 PUBLIC 'CODE'
_TEXT	ENDS
;	COMDAT ??_GCTAICmdLeave@@UAEPAXI@Z
_TEXT	SEGMENT PARA USE32 PUBLIC 'CODE'
_TEXT	ENDS
;	COMDAT ??1CTAICmdLeave@@UAE@XZ
_TEXT	SEGMENT PARA USE32 PUBLIC 'CODE'
_TEXT	ENDS
;	COMDAT ?CanRun@CTAICmdLeave@@UAEEPAVCTMonster@@KKE@Z
_TEXT	SEGMENT PARA USE32 PUBLIC 'CODE'
_TEXT	ENDS
;	COMDAT ?ExecAI@CTAICmdLeave@@UAEEPAVCTMonster@@KKE@Z
_TEXT	SEGMENT PARA USE32 PUBLIC 'CODE'
_TEXT	ENDS
;	COMDAT ?clear@?$_Tree@V?$_Tmap_traits@KKU?$less@K@std@@V?$allocator@U?$pair@$$CBKK@std@@@2@$0A@@std@@@std@@QAEXXZ
_TEXT	SEGMENT PARA USE32 PUBLIC 'CODE'
_TEXT	ENDS
;	COMDAT ?begin@?$_Tree@V?$_Tmap_traits@GPAVCTSkill@@U?$less@G@std@@V?$allocator@U?$pair@$$CBGPAVCTSkill@@@std@@@3@$0A@@std@@@std@@QAE?AViterator@12@XZ
_TEXT	SEGMENT PARA USE32 PUBLIC 'CODE'
_TEXT	ENDS
;	COMDAT ?end@?$_Tree@V?$_Tmap_traits@GPAVCTSkill@@U?$less@G@std@@V?$allocator@U?$pair@$$CBGPAVCTSkill@@@std@@@3@$0A@@std@@@std@@QAE?AViterator@12@XZ
_TEXT	SEGMENT PARA USE32 PUBLIC 'CODE'
_TEXT	ENDS
;	COMDAT ?clear@?$_Tree@V?$_Tmap_traits@GPAVCTSkill@@U?$less@G@std@@V?$allocator@U?$pair@$$CBGPAVCTSkill@@@std@@@3@$0A@@std@@@std@@QAEXXZ
_TEXT	SEGMENT PARA USE32 PUBLIC 'CODE'
_TEXT	ENDS
;	COMDAT ?clear@?$vector@PAVCTSkill@@V?$allocator@PAVCTSkill@@@std@@@std@@QAEXXZ
_TEXT	SEGMENT PARA USE32 PUBLIC 'CODE'
_TEXT	ENDS
;	COMDAT ?clear@?$_Tree@V?$_Tmap_traits@_J_JU?$less@_J@std@@V?$allocator@U?$pair@$$CB_J_J@std@@@2@$0A@@std@@@std@@QAEXXZ
_TEXT	SEGMENT PARA USE32 PUBLIC 'CODE'
_TEXT	ENDS
;	COMDAT ?clear@?$_Tree@V?$_Tmap_traits@_JUtagAGGRO@@U?$less@_J@std@@V?$allocator@U?$pair@$$CB_JUtagAGGRO@@@std@@@3@$0A@@std@@@std@@QAEXXZ
_TEXT	SEGMENT PARA USE32 PUBLIC 'CODE'
_TEXT	ENDS
;	COMDAT ?begin@?$_Tree@V?$_Tmap_traits@EPAVCTItem@@U?$less@E@std@@V?$allocator@U?$pair@$$CBEPAVCTItem@@@std@@@3@$0A@@std@@@std@@QAE?AViterator@12@XZ
_TEXT	SEGMENT PARA USE32 PUBLIC 'CODE'
_TEXT	ENDS
;	COMDAT ?end@?$_Tree@V?$_Tmap_traits@EPAVCTItem@@U?$less@E@std@@V?$allocator@U?$pair@$$CBEPAVCTItem@@@std@@@3@$0A@@std@@@std@@QAE?AViterator@12@XZ
_TEXT	SEGMENT PARA USE32 PUBLIC 'CODE'
_TEXT	ENDS
;	COMDAT ?clear@?$_Tree@V?$_Tmap_traits@EPAVCTItem@@U?$less@E@std@@V?$allocator@U?$pair@$$CBEPAVCTItem@@@std@@@3@$0A@@std@@@std@@QAEXXZ
_TEXT	SEGMENT PARA USE32 PUBLIC 'CODE'
_TEXT	ENDS
;	COMDAT ??0iterator@?$_Tree@V?$_Tmap_traits@EPAVCTItem@@U?$less@E@std@@V?$allocator@U?$pair@$$CBEPAVCTItem@@@std@@@3@$0A@@std@@@std@@QAE@XZ
_TEXT	SEGMENT PARA USE32 PUBLIC 'CODE'
_TEXT	ENDS
;	COMDAT ??Diterator@?$_Tree@V?$_Tmap_traits@EPAVCTItem@@U?$less@E@std@@V?$allocator@U?$pair@$$CBEPAVCTItem@@@std@@@3@$0A@@std@@@std@@QBEAAU?$pair@$$CBEPAVCTItem@@@2@XZ
_TEXT	SEGMENT PARA USE32 PUBLIC 'CODE'
_TEXT	ENDS
;	COMDAT ??Eiterator@?$_Tree@V?$_Tmap_traits@EPAVCTItem@@U?$less@E@std@@V?$allocator@U?$pair@$$CBEPAVCTItem@@@std@@@3@$0A@@std@@@std@@QAE?AV012@H@Z
_TEXT	SEGMENT PARA USE32 PUBLIC 'CODE'
_TEXT	ENDS
;	COMDAT ??9const_iterator@?$_Tree@V?$_Tmap_traits@EPAVCTItem@@U?$less@E@std@@V?$allocator@U?$pair@$$CBEPAVCTItem@@@std@@@3@$0A@@std@@@std@@QBE_NABV012@@Z
_TEXT	SEGMENT PARA USE32 PUBLIC 'CODE'
_TEXT	ENDS
;	COMDAT ??0iterator@?$_Tree@V?$_Tmap_traits@GPAVCTSkill@@U?$less@G@std@@V?$allocator@U?$pair@$$CBGPAVCTSkill@@@std@@@3@$0A@@std@@@std@@QAE@XZ
_TEXT	SEGMENT PARA USE32 PUBLIC 'CODE'
_TEXT	ENDS
;	COMDAT ??Diterator@?$_Tree@V?$_Tmap_traits@GPAVCTSkill@@U?$less@G@std@@V?$allocator@U?$pair@$$CBGPAVCTSkill@@@std@@@3@$0A@@std@@@std@@QBEAAU?$pair@$$CBGPAVCTSkill@@@2@XZ
_TEXT	SEGMENT PARA USE32 PUBLIC 'CODE'
_TEXT	ENDS
;	COMDAT ??Eiterator@?$_Tree@V?$_Tmap_traits@GPAVCTSkill@@U?$less@G@std@@V?$allocator@U?$pair@$$CBGPAVCTSkill@@@std@@@3@$0A@@std@@@std@@QAE?AV012@H@Z
_TEXT	SEGMENT PARA USE32 PUBLIC 'CODE'
_TEXT	ENDS
;	COMDAT ??9const_iterator@?$_Tree@V?$_Tmap_traits@GPAVCTSkill@@U?$less@G@std@@V?$allocator@U?$pair@$$CBGPAVCTSkill@@@std@@@3@$0A@@std@@@std@@QBE_NABV012@@Z
_TEXT	SEGMENT PARA USE32 PUBLIC 'CODE'
_TEXT	ENDS
;	COMDAT ?_Erase@?$_Tree@V?$_Tmap_traits@KKU?$less@K@std@@V?$allocator@U?$pair@$$CBKK@std@@@2@$0A@@std@@@std@@IAEXPAU_Node@?$_Tree_nod@V?$_Tmap_traits@KKU?$less@K@std@@V?$allocator@U?$pair@$$CBKK@std@@@2@$0A@@std@@@2@@Z
_TEXT	SEGMENT PARA USE32 PUBLIC 'CODE'
_TEXT	ENDS
;	COMDAT ?_Lmost@?$_Tree@V?$_Tmap_traits@KKU?$less@K@std@@V?$allocator@U?$pair@$$CBKK@std@@@2@$0A@@std@@@std@@IAEAAPAU_Node@?$_Tree_nod@V?$_Tmap_traits@KKU?$less@K@std@@V?$allocator@U?$pair@$$CBKK@std@@@2@$0A@@std@@@2@XZ
_TEXT	SEGMENT PARA USE32 PUBLIC 'CODE'
_TEXT	ENDS
;	COMDAT ?_Rmost@?$_Tree@V?$_Tmap_traits@KKU?$less@K@std@@V?$allocator@U?$pair@$$CBKK@std@@@2@$0A@@std@@@std@@IAEAAPAU_Node@?$_Tree_nod@V?$_Tmap_traits@KKU?$less@K@std@@V?$allocator@U?$pair@$$CBKK@std@@@2@$0A@@std@@@2@XZ
_TEXT	SEGMENT PARA USE32 PUBLIC 'CODE'
_TEXT	ENDS
;	COMDAT ?_Root@?$_Tree@V?$_Tmap_traits@KKU?$less@K@std@@V?$allocator@U?$pair@$$CBKK@std@@@2@$0A@@std@@@std@@IAEAAPAU_Node@?$_Tree_nod@V?$_Tmap_traits@KKU?$less@K@std@@V?$allocator@U?$pair@$$CBKK@std@@@2@$0A@@std@@@2@XZ
_TEXT	SEGMENT PARA USE32 PUBLIC 'CODE'
_TEXT	ENDS
;	COMDAT ?_Erase@?$_Tree@V?$_Tmap_traits@GPAVCTSkill@@U?$less@G@std@@V?$allocator@U?$pair@$$CBGPAVCTSkill@@@std@@@3@$0A@@std@@@std@@IAEXPAU_Node@?$_Tree_nod@V?$_Tmap_traits@GPAVCTSkill@@U?$less@G@std@@V?$allocator@U?$pair@$$CBGPAVCTSkill@@@std@@@3@$0A@@std@@@2@@Z
_TEXT	SEGMENT PARA USE32 PUBLIC 'CODE'
_TEXT	ENDS
;	COMDAT ?_Lmost@?$_Tree@V?$_Tmap_traits@GPAVCTSkill@@U?$less@G@std@@V?$allocator@U?$pair@$$CBGPAVCTSkill@@@std@@@3@$0A@@std@@@std@@IAEAAPAU_Node@?$_Tree_nod@V?$_Tmap_traits@GPAVCTSkill@@U?$less@G@std@@V?$allocator@U?$pair@$$CBGPAVCTSkill@@@std@@@3@$0A@@std@@@2@XZ
_TEXT	SEGMENT PARA USE32 PUBLIC 'CODE'
_TEXT	ENDS
;	COMDAT ?_Rmost@?$_Tree@V?$_Tmap_traits@GPAVCTSkill@@U?$less@G@std@@V?$allocator@U?$pair@$$CBGPAVCTSkill@@@std@@@3@$0A@@std@@@std@@IAEAAPAU_Node@?$_Tree_nod@V?$_Tmap_traits@GPAVCTSkill@@U?$less@G@std@@V?$allocator@U?$pair@$$CBGPAVCTSkill@@@std@@@3@$0A@@std@@@2@XZ
_TEXT	SEGMENT PARA USE32 PUBLIC 'CODE'
_TEXT	ENDS
;	COMDAT ?_Root@?$_Tree@V?$_Tmap_traits@GPAVCTSkill@@U?$less@G@std@@V?$allocator@U?$pair@$$CBGPAVCTSkill@@@std@@@3@$0A@@std@@@std@@IAEAAPAU_Node@?$_Tree_nod@V?$_Tmap_traits@GPAVCTSkill@@U?$less@G@std@@V?$allocator@U?$pair@$$CBGPAVCTSkill@@@std@@@3@$0A@@std@@@2@XZ
_TEXT	SEGMENT PARA USE32 PUBLIC 'CODE'
_TEXT	ENDS
;	COMDAT ?_Tidy@?$vector@PAVCTSkill@@V?$allocator@PAVCTSkill@@@std@@@std@@IAEXXZ
_TEXT	SEGMENT PARA USE32 PUBLIC 'CODE'
_TEXT	ENDS
;	COMDAT ?_Erase@?$_Tree@V?$_Tmap_traits@_J_JU?$less@_J@std@@V?$allocator@U?$pair@$$CB_J_J@std@@@2@$0A@@std@@@std@@IAEXPAU_Node@?$_Tree_nod@V?$_Tmap_traits@_J_JU?$less@_J@std@@V?$allocator@U?$pair@$$CB_J_J@std@@@2@$0A@@std@@@2@@Z
_TEXT	SEGMENT PARA USE32 PUBLIC 'CODE'
_TEXT	ENDS
;	COMDAT ?_Lmost@?$_Tree@V?$_Tmap_traits@_J_JU?$less@_J@std@@V?$allocator@U?$pair@$$CB_J_J@std@@@2@$0A@@std@@@std@@IAEAAPAU_Node@?$_Tree_nod@V?$_Tmap_traits@_J_JU?$less@_J@std@@V?$allocator@U?$pair@$$CB_J_J@std@@@2@$0A@@std@@@2@XZ
_TEXT	SEGMENT PARA USE32 PUBLIC 'CODE'
_TEXT	ENDS
;	COMDAT ?_Rmost@?$_Tree@V?$_Tmap_traits@_J_JU?$less@_J@std@@V?$allocator@U?$pair@$$CB_J_J@std@@@2@$0A@@std@@@std@@IAEAAPAU_Node@?$_Tree_nod@V?$_Tmap_traits@_J_JU?$less@_J@std@@V?$allocator@U?$pair@$$CB_J_J@std@@@2@$0A@@std@@@2@XZ
_TEXT	SEGMENT PARA USE32 PUBLIC 'CODE'
_TEXT	ENDS
;	COMDAT ?_Root@?$_Tree@V?$_Tmap_traits@_J_JU?$less@_J@std@@V?$allocator@U?$pair@$$CB_J_J@std@@@2@$0A@@std@@@std@@IAEAAPAU_Node@?$_Tree_nod@V?$_Tmap_traits@_J_JU?$less@_J@std@@V?$allocator@U?$pair@$$CB_J_J@std@@@2@$0A@@std@@@2@XZ
_TEXT	SEGMENT PARA USE32 PUBLIC 'CODE'
_TEXT	ENDS
;	COMDAT ?_Erase@?$_Tree@V?$_Tmap_traits@_JUtagAGGRO@@U?$less@_J@std@@V?$allocator@U?$pair@$$CB_JUtagAGGRO@@@std@@@3@$0A@@std@@@std@@IAEXPAU_Node@?$_Tree_nod@V?$_Tmap_traits@_JUtagAGGRO@@U?$less@_J@std@@V?$allocator@U?$pair@$$CB_JUtagAGGRO@@@std@@@3@$0A@@std@@@2@@Z
_TEXT	SEGMENT PARA USE32 PUBLIC 'CODE'
_TEXT	ENDS
;	COMDAT ?_Lmost@?$_Tree@V?$_Tmap_traits@_JUtagAGGRO@@U?$less@_J@std@@V?$allocator@U?$pair@$$CB_JUtagAGGRO@@@std@@@3@$0A@@std@@@std@@IAEAAPAU_Node@?$_Tree_nod@V?$_Tmap_traits@_JUtagAGGRO@@U?$less@_J@std@@V?$allocator@U?$pair@$$CB_JUtagAGGRO@@@std@@@3@$0A@@std@@@2@XZ
_TEXT	SEGMENT PARA USE32 PUBLIC 'CODE'
_TEXT	ENDS
;	COMDAT ?_Rmost@?$_Tree@V?$_Tmap_traits@_JUtagAGGRO@@U?$less@_J@std@@V?$allocator@U?$pair@$$CB_JUtagAGGRO@@@std@@@3@$0A@@std@@@std@@IAEAAPAU_Node@?$_Tree_nod@V?$_Tmap_traits@_JUtagAGGRO@@U?$less@_J@std@@V?$allocator@U?$pair@$$CB_JUtagAGGRO@@@std@@@3@$0A@@std@@@2@XZ
_TEXT	SEGMENT PARA USE32 PUBLIC 'CODE'
_TEXT	ENDS
;	COMDAT ?_Root@?$_Tree@V?$_Tmap_traits@_JUtagAGGRO@@U?$less@_J@std@@V?$allocator@U?$pair@$$CB_JUtagAGGRO@@@std@@@3@$0A@@std@@@std@@IAEAAPAU_Node@?$_Tree_nod@V?$_Tmap_traits@_JUtagAGGRO@@U?$less@_J@std@@V?$allocator@U?$pair@$$CB_JUtagAGGRO@@@std@@@3@$0A@@std@@@2@XZ
_TEXT	SEGMENT PARA USE32 PUBLIC 'CODE'
_TEXT	ENDS
;	COMDAT ?_Erase@?$_Tree@V?$_Tmap_traits@EPAVCTItem@@U?$less@E@std@@V?$allocator@U?$pair@$$CBEPAVCTItem@@@std@@@3@$0A@@std@@@std@@IAEXPAU_Node@?$_Tree_nod@V?$_Tmap_traits@EPAVCTItem@@U?$less@E@std@@V?$allocator@U?$pair@$$CBEPAVCTItem@@@std@@@3@$0A@@std@@@2@@Z
_TEXT	SEGMENT PARA USE32 PUBLIC 'CODE'
_TEXT	ENDS
;	COMDAT ?_Lmost@?$_Tree@V?$_Tmap_traits@EPAVCTItem@@U?$less@E@std@@V?$allocator@U?$pair@$$CBEPAVCTItem@@@std@@@3@$0A@@std@@@std@@IAEAAPAU_Node@?$_Tree_nod@V?$_Tmap_traits@EPAVCTItem@@U?$less@E@std@@V?$allocator@U?$pair@$$CBEPAVCTItem@@@std@@@3@$0A@@std@@@2@XZ
_TEXT	SEGMENT PARA USE32 PUBLIC 'CODE'
_TEXT	ENDS
;	COMDAT ?_Rmost@?$_Tree@V?$_Tmap_traits@EPAVCTItem@@U?$less@E@std@@V?$allocator@U?$pair@$$CBEPAVCTItem@@@std@@@3@$0A@@std@@@std@@IAEAAPAU_Node@?$_Tree_nod@V?$_Tmap_traits@EPAVCTItem@@U?$less@E@std@@V?$allocator@U?$pair@$$CBEPAVCTItem@@@std@@@3@$0A@@std@@@2@XZ
_TEXT	SEGMENT PARA USE32 PUBLIC 'CODE'
_TEXT	ENDS
;	COMDAT ?_Root@?$_Tree@V?$_Tmap_traits@EPAVCTItem@@U?$less@E@std@@V?$allocator@U?$pair@$$CBEPAVCTItem@@@std@@@3@$0A@@std@@@std@@IAEAAPAU_Node@?$_Tree_nod@V?$_Tmap_traits@EPAVCTItem@@U?$less@E@std@@V?$allocator@U?$pair@$$CBEPAVCTItem@@@std@@@3@$0A@@std@@@2@XZ
_TEXT	SEGMENT PARA USE32 PUBLIC 'CODE'
_TEXT	ENDS
;	COMDAT ??0iterator@?$_Tree@V?$_Tmap_traits@EPAVCTItem@@U?$less@E@std@@V?$allocator@U?$pair@$$CBEPAVCTItem@@@std@@@3@$0A@@std@@@std@@QAE@PAU_Node@?$_Tree_nod@V?$_Tmap_traits@EPAVCTItem@@U?$less@E@std@@V?$allocator@U?$pair@$$CBEPAVCTItem@@@std@@@3@$0A@@std@@@2@@Z
_TEXT	SEGMENT PARA USE32 PUBLIC 'CODE'
_TEXT	ENDS
;	COMDAT ??Eiterator@?$_Tree@V?$_Tmap_traits@EPAVCTItem@@U?$less@E@std@@V?$allocator@U?$pair@$$CBEPAVCTItem@@@std@@@3@$0A@@std@@@std@@QAEAAV012@XZ
_TEXT	SEGMENT PARA USE32 PUBLIC 'CODE'
_TEXT	ENDS
;	COMDAT ??0const_iterator@?$_Tree@V?$_Tmap_traits@EPAVCTItem@@U?$less@E@std@@V?$allocator@U?$pair@$$CBEPAVCTItem@@@std@@@3@$0A@@std@@@std@@QAE@XZ
_TEXT	SEGMENT PARA USE32 PUBLIC 'CODE'
_TEXT	ENDS
;	COMDAT ??Dconst_iterator@?$_Tree@V?$_Tmap_traits@EPAVCTItem@@U?$less@E@std@@V?$allocator@U?$pair@$$CBEPAVCTItem@@@std@@@3@$0A@@std@@@std@@QBEABU?$pair@$$CBEPAVCTItem@@@2@XZ
_TEXT	SEGMENT PARA USE32 PUBLIC 'CODE'
_TEXT	ENDS
;	COMDAT ??8const_iterator@?$_Tree@V?$_Tmap_traits@EPAVCTItem@@U?$less@E@std@@V?$allocator@U?$pair@$$CBEPAVCTItem@@@std@@@3@$0A@@std@@@std@@QBE_NABV012@@Z
_TEXT	SEGMENT PARA USE32 PUBLIC 'CODE'
_TEXT	ENDS
;	COMDAT ??0iterator@?$_Tree@V?$_Tmap_traits@GPAVCTSkill@@U?$less@G@std@@V?$allocator@U?$pair@$$CBGPAVCTSkill@@@std@@@3@$0A@@std@@@std@@QAE@PAU_Node@?$_Tree_nod@V?$_Tmap_traits@GPAVCTSkill@@U?$less@G@std@@V?$allocator@U?$pair@$$CBGPAVCTSkill@@@std@@@3@$0A@@std@@@2@@Z
_TEXT	SEGMENT PARA USE32 PUBLIC 'CODE'
_TEXT	ENDS
;	COMDAT ??Eiterator@?$_Tree@V?$_Tmap_traits@GPAVCTSkill@@U?$less@G@std@@V?$allocator@U?$pair@$$CBGPAVCTSkill@@@std@@@3@$0A@@std@@@std@@QAEAAV012@XZ
_TEXT	SEGMENT PARA USE32 PUBLIC 'CODE'
_TEXT	ENDS
;	COMDAT ??0const_iterator@?$_Tree@V?$_Tmap_traits@GPAVCTSkill@@U?$less@G@std@@V?$allocator@U?$pair@$$CBGPAVCTSkill@@@std@@@3@$0A@@std@@@std@@QAE@XZ
_TEXT	SEGMENT PARA USE32 PUBLIC 'CODE'
_TEXT	ENDS
;	COMDAT ??Dconst_iterator@?$_Tree@V?$_Tmap_traits@GPAVCTSkill@@U?$less@G@std@@V?$allocator@U?$pair@$$CBGPAVCTSkill@@@std@@@3@$0A@@std@@@std@@QBEABU?$pair@$$CBGPAVCTSkill@@@2@XZ
_TEXT	SEGMENT PARA USE32 PUBLIC 'CODE'
_TEXT	ENDS
;	COMDAT ??8const_iterator@?$_Tree@V?$_Tmap_traits@GPAVCTSkill@@U?$less@G@std@@V?$allocator@U?$pair@$$CBGPAVCTSkill@@@std@@@3@$0A@@std@@@std@@QBE_NABV012@@Z
_TEXT	SEGMENT PARA USE32 PUBLIC 'CODE'
_TEXT	ENDS
;	COMDAT ?_Isnil@?$_Tree@V?$_Tmap_traits@KKU?$less@K@std@@V?$allocator@U?$pair@$$CBKK@std@@@2@$0A@@std@@@std@@KAAADPAU_Node@?$_Tree_nod@V?$_Tmap_traits@KKU?$less@K@std@@V?$allocator@U?$pair@$$CBKK@std@@@2@$0A@@std@@@2@@Z
_TEXT	SEGMENT PARA USE32 PUBLIC 'CODE'
_TEXT	ENDS
;	COMDAT ?_Left@?$_Tree@V?$_Tmap_traits@KKU?$less@K@std@@V?$allocator@U?$pair@$$CBKK@std@@@2@$0A@@std@@@std@@KAAAPAU_Node@?$_Tree_nod@V?$_Tmap_traits@KKU?$less@K@std@@V?$allocator@U?$pair@$$CBKK@std@@@2@$0A@@std@@@2@PAU342@@Z
_TEXT	SEGMENT PARA USE32 PUBLIC 'CODE'
_TEXT	ENDS
;	COMDAT ?_Parent@?$_Tree@V?$_Tmap_traits@KKU?$less@K@std@@V?$allocator@U?$pair@$$CBKK@std@@@2@$0A@@std@@@std@@KAAAPAU_Node@?$_Tree_nod@V?$_Tmap_traits@KKU?$less@K@std@@V?$allocator@U?$pair@$$CBKK@std@@@2@$0A@@std@@@2@PAU342@@Z
_TEXT	SEGMENT PARA USE32 PUBLIC 'CODE'
_TEXT	ENDS
;	COMDAT ?_Right@?$_Tree@V?$_Tmap_traits@KKU?$less@K@std@@V?$allocator@U?$pair@$$CBKK@std@@@2@$0A@@std@@@std@@KAAAPAU_Node@?$_Tree_nod@V?$_Tmap_traits@KKU?$less@K@std@@V?$allocator@U?$pair@$$CBKK@std@@@2@$0A@@std@@@2@PAU342@@Z
_TEXT	SEGMENT PARA USE32 PUBLIC 'CODE'
_TEXT	ENDS
;	COMDAT ?deallocate@?$allocator@U_Node@?$_Tree_nod@V?$_Tmap_traits@KKU?$less@K@std@@V?$allocator@U?$pair@$$CBKK@std@@@2@$0A@@std@@@std@@@std@@QAEXPAU_Node@?$_Tree_nod@V?$_Tmap_traits@KKU?$less@K@std@@V?$allocator@U?$pair@$$CBKK@std@@@2@$0A@@std@@@2@I@Z
_TEXT	SEGMENT PARA USE32 PUBLIC 'CODE'
_TEXT	ENDS
;	COMDAT ?destroy@?$allocator@U_Node@?$_Tree_nod@V?$_Tmap_traits@KKU?$less@K@std@@V?$allocator@U?$pair@$$CBKK@std@@@2@$0A@@std@@@std@@@std@@QAEXPAU_Node@?$_Tree_nod@V?$_Tmap_traits@KKU?$less@K@std@@V?$allocator@U?$pair@$$CBKK@std@@@2@$0A@@std@@@2@@Z
_TEXT	SEGMENT PARA USE32 PUBLIC 'CODE'
_TEXT	ENDS
;	COMDAT ?_Isnil@?$_Tree@V?$_Tmap_traits@GPAVCTSkill@@U?$less@G@std@@V?$allocator@U?$pair@$$CBGPAVCTSkill@@@std@@@3@$0A@@std@@@std@@KAAADPAU_Node@?$_Tree_nod@V?$_Tmap_traits@GPAVCTSkill@@U?$less@G@std@@V?$allocator@U?$pair@$$CBGPAVCTSkill@@@std@@@3@$0A@@std@@@2@@Z
_TEXT	SEGMENT PARA USE32 PUBLIC 'CODE'
_TEXT	ENDS
;	COMDAT ?_Left@?$_Tree@V?$_Tmap_traits@GPAVCTSkill@@U?$less@G@std@@V?$allocator@U?$pair@$$CBGPAVCTSkill@@@std@@@3@$0A@@std@@@std@@KAAAPAU_Node@?$_Tree_nod@V?$_Tmap_traits@GPAVCTSkill@@U?$less@G@std@@V?$allocator@U?$pair@$$CBGPAVCTSkill@@@std@@@3@$0A@@std@@@2@PAU342@@Z
_TEXT	SEGMENT PARA USE32 PUBLIC 'CODE'
_TEXT	ENDS
;	COMDAT ?_Parent@?$_Tree@V?$_Tmap_traits@GPAVCTSkill@@U?$less@G@std@@V?$allocator@U?$pair@$$CBGPAVCTSkill@@@std@@@3@$0A@@std@@@std@@KAAAPAU_Node@?$_Tree_nod@V?$_Tmap_traits@GPAVCTSkill@@U?$less@G@std@@V?$allocator@U?$pair@$$CBGPAVCTSkill@@@std@@@3@$0A@@std@@@2@PAU342@@Z
_TEXT	SEGMENT PARA USE32 PUBLIC 'CODE'
_TEXT	ENDS
;	COMDAT ?_Right@?$_Tree@V?$_Tmap_traits@GPAVCTSkill@@U?$less@G@std@@V?$allocator@U?$pair@$$CBGPAVCTSkill@@@std@@@3@$0A@@std@@@std@@KAAAPAU_Node@?$_Tree_nod@V?$_Tmap_traits@GPAVCTSkill@@U?$less@G@std@@V?$allocator@U?$pair@$$CBGPAVCTSkill@@@std@@@3@$0A@@std@@@2@PAU342@@Z
_TEXT	SEGMENT PARA USE32 PUBLIC 'CODE'
_TEXT	ENDS
;	COMDAT ?_Myval@?$_Tree@V?$_Tmap_traits@GPAVCTSkill@@U?$less@G@std@@V?$allocator@U?$pair@$$CBGPAVCTSkill@@@std@@@3@$0A@@std@@@std@@KAAAU?$pair@$$CBGPAVCTSkill@@@2@PAU_Node@?$_Tree_nod@V?$_Tmap_traits@GPAVCTSkill@@U?$less@G@std@@V?$allocator@U?$pair@$$CBGPAVCTSkill@@@std@@@3@$0A@@std@@@2@@Z
_TEXT	SEGMENT PARA USE32 PUBLIC 'CODE'
_TEXT	ENDS
;	COMDAT ?deallocate@?$allocator@U_Node@?$_Tree_nod@V?$_Tmap_traits@GPAVCTSkill@@U?$less@G@std@@V?$allocator@U?$pair@$$CBGPAVCTSkill@@@std@@@3@$0A@@std@@@std@@@std@@QAEXPAU_Node@?$_Tree_nod@V?$_Tmap_traits@GPAVCTSkill@@U?$less@G@std@@V?$allocator@U?$pair@$$CBGPAVCTSkill@@@std@@@3@$0A@@std@@@2@I@Z
_TEXT	SEGMENT PARA USE32 PUBLIC 'CODE'
_TEXT	ENDS
;	COMDAT ?destroy@?$allocator@U_Node@?$_Tree_nod@V?$_Tmap_traits@GPAVCTSkill@@U?$less@G@std@@V?$allocator@U?$pair@$$CBGPAVCTSkill@@@std@@@3@$0A@@std@@@std@@@std@@QAEXPAU_Node@?$_Tree_nod@V?$_Tmap_traits@GPAVCTSkill@@U?$less@G@std@@V?$allocator@U?$pair@$$CBGPAVCTSkill@@@std@@@3@$0A@@std@@@2@@Z
_TEXT	SEGMENT PARA USE32 PUBLIC 'CODE'
_TEXT	ENDS
;	COMDAT ?_Destroy@?$vector@PAVCTSkill@@V?$allocator@PAVCTSkill@@@std@@@std@@IAEXPAPAVCTSkill@@0@Z
_TEXT	SEGMENT PARA USE32 PUBLIC 'CODE'
_TEXT	ENDS
;	COMDAT ?deallocate@?$allocator@PAVCTSkill@@@std@@QAEXPAPAVCTSkill@@I@Z
_TEXT	SEGMENT PARA USE32 PUBLIC 'CODE'
_TEXT	ENDS
;	COMDAT ?_Isnil@?$_Tree@V?$_Tmap_traits@_J_JU?$less@_J@std@@V?$allocator@U?$pair@$$CB_J_J@std@@@2@$0A@@std@@@std@@KAAADPAU_Node@?$_Tree_nod@V?$_Tmap_traits@_J_JU?$less@_J@std@@V?$allocator@U?$pair@$$CB_J_J@std@@@2@$0A@@std@@@2@@Z
_TEXT	SEGMENT PARA USE32 PUBLIC 'CODE'
_TEXT	ENDS
;	COMDAT ?_Left@?$_Tree@V?$_Tmap_traits@_J_JU?$less@_J@std@@V?$allocator@U?$pair@$$CB_J_J@std@@@2@$0A@@std@@@std@@KAAAPAU_Node@?$_Tree_nod@V?$_Tmap_traits@_J_JU?$less@_J@std@@V?$allocator@U?$pair@$$CB_J_J@std@@@2@$0A@@std@@@2@PAU342@@Z
_TEXT	SEGMENT PARA USE32 PUBLIC 'CODE'
_TEXT	ENDS
;	COMDAT ?_Parent@?$_Tree@V?$_Tmap_traits@_J_JU?$less@_J@std@@V?$allocator@U?$pair@$$CB_J_J@std@@@2@$0A@@std@@@std@@KAAAPAU_Node@?$_Tree_nod@V?$_Tmap_traits@_J_JU?$less@_J@std@@V?$allocator@U?$pair@$$CB_J_J@std@@@2@$0A@@std@@@2@PAU342@@Z
_TEXT	SEGMENT PARA USE32 PUBLIC 'CODE'
_TEXT	ENDS
;	COMDAT ?_Right@?$_Tree@V?$_Tmap_traits@_J_JU?$less@_J@std@@V?$allocator@U?$pair@$$CB_J_J@std@@@2@$0A@@std@@@std@@KAAAPAU_Node@?$_Tree_nod@V?$_Tmap_traits@_J_JU?$less@_J@std@@V?$allocator@U?$pair@$$CB_J_J@std@@@2@$0A@@std@@@2@PAU342@@Z
_TEXT	SEGMENT PARA USE32 PUBLIC 'CODE'
_TEXT	ENDS
;	COMDAT ?deallocate@?$allocator@U_Node@?$_Tree_nod@V?$_Tmap_traits@_J_JU?$less@_J@std@@V?$allocator@U?$pair@$$CB_J_J@std@@@2@$0A@@std@@@std@@@std@@QAEXPAU_Node@?$_Tree_nod@V?$_Tmap_traits@_J_JU?$less@_J@std@@V?$allocator@U?$pair@$$CB_J_J@std@@@2@$0A@@std@@@2@I@Z
_TEXT	SEGMENT PARA USE32 PUBLIC 'CODE'
_TEXT	ENDS
;	COMDAT ?destroy@?$allocator@U_Node@?$_Tree_nod@V?$_Tmap_traits@_J_JU?$less@_J@std@@V?$allocator@U?$pair@$$CB_J_J@std@@@2@$0A@@std@@@std@@@std@@QAEXPAU_Node@?$_Tree_nod@V?$_Tmap_traits@_J_JU?$less@_J@std@@V?$allocator@U?$pair@$$CB_J_J@std@@@2@$0A@@std@@@2@@Z
_TEXT	SEGMENT PARA USE32 PUBLIC 'CODE'
_TEXT	ENDS
;	COMDAT ?_Isnil@?$_Tree@V?$_Tmap_traits@_JUtagAGGRO@@U?$less@_J@std@@V?$allocator@U?$pair@$$CB_JUtagAGGRO@@@std@@@3@$0A@@std@@@std@@KAAADPAU_Node@?$_Tree_nod@V?$_Tmap_traits@_JUtagAGGRO@@U?$less@_J@std@@V?$allocator@U?$pair@$$CB_JUtagAGGRO@@@std@@@3@$0A@@std@@@2@@Z
_TEXT	SEGMENT PARA USE32 PUBLIC 'CODE'
_TEXT	ENDS
;	COMDAT ?_Left@?$_Tree@V?$_Tmap_traits@_JUtagAGGRO@@U?$less@_J@std@@V?$allocator@U?$pair@$$CB_JUtagAGGRO@@@std@@@3@$0A@@std@@@std@@KAAAPAU_Node@?$_Tree_nod@V?$_Tmap_traits@_JUtagAGGRO@@U?$less@_J@std@@V?$allocator@U?$pair@$$CB_JUtagAGGRO@@@std@@@3@$0A@@std@@@2@PAU342@@Z
_TEXT	SEGMENT PARA USE32 PUBLIC 'CODE'
_TEXT	ENDS
;	COMDAT ?_Parent@?$_Tree@V?$_Tmap_traits@_JUtagAGGRO@@U?$less@_J@std@@V?$allocator@U?$pair@$$CB_JUtagAGGRO@@@std@@@3@$0A@@std@@@std@@KAAAPAU_Node@?$_Tree_nod@V?$_Tmap_traits@_JUtagAGGRO@@U?$less@_J@std@@V?$allocator@U?$pair@$$CB_JUtagAGGRO@@@std@@@3@$0A@@std@@@2@PAU342@@Z
_TEXT	SEGMENT PARA USE32 PUBLIC 'CODE'
_TEXT	ENDS
;	COMDAT ?_Right@?$_Tree@V?$_Tmap_traits@_JUtagAGGRO@@U?$less@_J@std@@V?$allocator@U?$pair@$$CB_JUtagAGGRO@@@std@@@3@$0A@@std@@@std@@KAAAPAU_Node@?$_Tree_nod@V?$_Tmap_traits@_JUtagAGGRO@@U?$less@_J@std@@V?$allocator@U?$pair@$$CB_JUtagAGGRO@@@std@@@3@$0A@@std@@@2@PAU342@@Z
_TEXT	SEGMENT PARA USE32 PUBLIC 'CODE'
_TEXT	ENDS
;	COMDAT ?deallocate@?$allocator@U_Node@?$_Tree_nod@V?$_Tmap_traits@_JUtagAGGRO@@U?$less@_J@std@@V?$allocator@U?$pair@$$CB_JUtagAGGRO@@@std@@@3@$0A@@std@@@std@@@std@@QAEXPAU_Node@?$_Tree_nod@V?$_Tmap_traits@_JUtagAGGRO@@U?$less@_J@std@@V?$allocator@U?$pair@$$CB_JUtagAGGRO@@@std@@@3@$0A@@std@@@2@I@Z
_TEXT	SEGMENT PARA USE32 PUBLIC 'CODE'
_TEXT	ENDS
;	COMDAT ?destroy@?$allocator@U_Node@?$_Tree_nod@V?$_Tmap_traits@_JUtagAGGRO@@U?$less@_J@std@@V?$allocator@U?$pair@$$CB_JUtagAGGRO@@@std@@@3@$0A@@std@@@std@@@std@@QAEXPAU_Node@?$_Tree_nod@V?$_Tmap_traits@_JUtagAGGRO@@U?$less@_J@std@@V?$allocator@U?$pair@$$CB_JUtagAGGRO@@@std@@@3@$0A@@std@@@2@@Z
_TEXT	SEGMENT PARA USE32 PUBLIC 'CODE'
_TEXT	ENDS
;	COMDAT ?_Isnil@?$_Tree@V?$_Tmap_traits@EPAVCTItem@@U?$less@E@std@@V?$allocator@U?$pair@$$CBEPAVCTItem@@@std@@@3@$0A@@std@@@std@@KAAADPAU_Node@?$_Tree_nod@V?$_Tmap_traits@EPAVCTItem@@U?$less@E@std@@V?$allocator@U?$pair@$$CBEPAVCTItem@@@std@@@3@$0A@@std@@@2@@Z
_TEXT	SEGMENT PARA USE32 PUBLIC 'CODE'
_TEXT	ENDS
;	COMDAT ?_Left@?$_Tree@V?$_Tmap_traits@EPAVCTItem@@U?$less@E@std@@V?$allocator@U?$pair@$$CBEPAVCTItem@@@std@@@3@$0A@@std@@@std@@KAAAPAU_Node@?$_Tree_nod@V?$_Tmap_traits@EPAVCTItem@@U?$less@E@std@@V?$allocator@U?$pair@$$CBEPAVCTItem@@@std@@@3@$0A@@std@@@2@PAU342@@Z
_TEXT	SEGMENT PARA USE32 PUBLIC 'CODE'
_TEXT	ENDS
;	COMDAT ?_Parent@?$_Tree@V?$_Tmap_traits@EPAVCTItem@@U?$less@E@std@@V?$allocator@U?$pair@$$CBEPAVCTItem@@@std@@@3@$0A@@std@@@std@@KAAAPAU_Node@?$_Tree_nod@V?$_Tmap_traits@EPAVCTItem@@U?$less@E@std@@V?$allocator@U?$pair@$$CBEPAVCTItem@@@std@@@3@$0A@@std@@@2@PAU342@@Z
_TEXT	SEGMENT PARA USE32 PUBLIC 'CODE'
_TEXT	ENDS
;	COMDAT ?_Right@?$_Tree@V?$_Tmap_traits@EPAVCTItem@@U?$less@E@std@@V?$allocator@U?$pair@$$CBEPAVCTItem@@@std@@@3@$0A@@std@@@std@@KAAAPAU_Node@?$_Tree_nod@V?$_Tmap_traits@EPAVCTItem@@U?$less@E@std@@V?$allocator@U?$pair@$$CBEPAVCTItem@@@std@@@3@$0A@@std@@@2@PAU342@@Z
_TEXT	SEGMENT PARA USE32 PUBLIC 'CODE'
_TEXT	ENDS
;	COMDAT ?_Myval@?$_Tree@V?$_Tmap_traits@EPAVCTItem@@U?$less@E@std@@V?$allocator@U?$pair@$$CBEPAVCTItem@@@std@@@3@$0A@@std@@@std@@KAAAU?$pair@$$CBEPAVCTItem@@@2@PAU_Node@?$_Tree_nod@V?$_Tmap_traits@EPAVCTItem@@U?$less@E@std@@V?$allocator@U?$pair@$$CBEPAVCTItem@@@std@@@3@$0A@@std@@@2@@Z
_TEXT	SEGMENT PARA USE32 PUBLIC 'CODE'
_TEXT	ENDS
;	COMDAT ?deallocate@?$allocator@U_Node@?$_Tree_nod@V?$_Tmap_traits@EPAVCTItem@@U?$less@E@std@@V?$allocator@U?$pair@$$CBEPAVCTItem@@@std@@@3@$0A@@std@@@std@@@std@@QAEXPAU_Node@?$_Tree_nod@V?$_Tmap_traits@EPAVCTItem@@U?$less@E@std@@V?$allocator@U?$pair@$$CBEPAVCTItem@@@std@@@3@$0A@@std@@@2@I@Z
_TEXT	SEGMENT PARA USE32 PUBLIC 'CODE'
_TEXT	ENDS
;	COMDAT ?destroy@?$allocator@U_Node@?$_Tree_nod@V?$_Tmap_traits@EPAVCTItem@@U?$less@E@std@@V?$allocator@U?$pair@$$CBEPAVCTItem@@@std@@@3@$0A@@std@@@std@@@std@@QAEXPAU_Node@?$_Tree_nod@V?$_Tmap_traits@EPAVCTItem@@U?$less@E@std@@V?$allocator@U?$pair@$$CBEPAVCTItem@@@std@@@3@$0A@@std@@@2@@Z
_TEXT	SEGMENT PARA USE32 PUBLIC 'CODE'
_TEXT	ENDS
;	COMDAT ??0const_iterator@?$_Tree@V?$_Tmap_traits@EPAVCTItem@@U?$less@E@std@@V?$allocator@U?$pair@$$CBEPAVCTItem@@@std@@@3@$0A@@std@@@std@@QAE@PAU_Node@?$_Tree_nod@V?$_Tmap_traits@EPAVCTItem@@U?$less@E@std@@V?$allocator@U?$pair@$$CBEPAVCTItem@@@std@@@3@$0A@@std@@@2@@Z
_TEXT	SEGMENT PARA USE32 PUBLIC 'CODE'
_TEXT	ENDS
;	COMDAT ??Econst_iterator@?$_Tree@V?$_Tmap_traits@EPAVCTItem@@U?$less@E@std@@V?$allocator@U?$pair@$$CBEPAVCTItem@@@std@@@3@$0A@@std@@@std@@QAEAAV012@XZ
_TEXT	SEGMENT PARA USE32 PUBLIC 'CODE'
_TEXT	ENDS
;	COMDAT ??0const_iterator@?$_Tree@V?$_Tmap_traits@GPAVCTSkill@@U?$less@G@std@@V?$allocator@U?$pair@$$CBGPAVCTSkill@@@std@@@3@$0A@@std@@@std@@QAE@PAU_Node@?$_Tree_nod@V?$_Tmap_traits@GPAVCTSkill@@U?$less@G@std@@V?$allocator@U?$pair@$$CBGPAVCTSkill@@@std@@@3@$0A@@std@@@2@@Z
_TEXT	SEGMENT PARA USE32 PUBLIC 'CODE'
_TEXT	ENDS
;	COMDAT ??Econst_iterator@?$_Tree@V?$_Tmap_traits@GPAVCTSkill@@U?$less@G@std@@V?$allocator@U?$pair@$$CBGPAVCTSkill@@@std@@@3@$0A@@std@@@std@@QAEAAV012@XZ
_TEXT	SEGMENT PARA USE32 PUBLIC 'CODE'
_TEXT	ENDS
;	COMDAT ?_Inc@const_iterator@?$_Tree@V?$_Tmap_traits@EPAVCTItem@@U?$less@E@std@@V?$allocator@U?$pair@$$CBEPAVCTItem@@@std@@@3@$0A@@std@@@std@@QAEXXZ
_TEXT	SEGMENT PARA USE32 PUBLIC 'CODE'
_TEXT	ENDS
;	COMDAT ?_Inc@const_iterator@?$_Tree@V?$_Tmap_traits@GPAVCTSkill@@U?$less@G@std@@V?$allocator@U?$pair@$$CBGPAVCTSkill@@@std@@@3@$0A@@std@@@std@@QAEXXZ
_TEXT	SEGMENT PARA USE32 PUBLIC 'CODE'
_TEXT	ENDS
;	COMDAT ?_Min@?$_Tree@V?$_Tmap_traits@GPAVCTSkill@@U?$less@G@std@@V?$allocator@U?$pair@$$CBGPAVCTSkill@@@std@@@3@$0A@@std@@@std@@KAPAU_Node@?$_Tree_nod@V?$_Tmap_traits@GPAVCTSkill@@U?$less@G@std@@V?$allocator@U?$pair@$$CBGPAVCTSkill@@@std@@@3@$0A@@std@@@2@PAU342@@Z
_TEXT	SEGMENT PARA USE32 PUBLIC 'CODE'
_TEXT	ENDS
;	COMDAT ?_Min@?$_Tree@V?$_Tmap_traits@EPAVCTItem@@U?$less@E@std@@V?$allocator@U?$pair@$$CBEPAVCTItem@@@std@@@3@$0A@@std@@@std@@KAPAU_Node@?$_Tree_nod@V?$_Tmap_traits@EPAVCTItem@@U?$less@E@std@@V?$allocator@U?$pair@$$CBEPAVCTItem@@@std@@@3@$0A@@std@@@2@PAU342@@Z
_TEXT	SEGMENT PARA USE32 PUBLIC 'CODE'
_TEXT	ENDS
;	COMDAT ?Unlock@?$CComCritSecLock@VCComCriticalSection@ATL@@@ATL@@QAEXXZ
_TEXT	SEGMENT PARA USE32 PUBLIC 'CODE'
_TEXT	ENDS
;	COMDAT ??$_Uninit_fill_n@GIG@std@@YAXPAGIABGAAV?$allocator@G@0@U_Scalar_ptr_iterator_tag@0@@Z
_TEXT	SEGMENT PARA USE32 PUBLIC 'CODE'
_TEXT	ENDS
;	COMDAT ??$_Ptr_cat@UtagTAICONDITION@@@std@@YA?AU_Scalar_ptr_iterator_tag@0@PAPAUtagTAICONDITION@@0@Z
_TEXT	SEGMENT PARA USE32 PUBLIC 'CODE'
_TEXT	ENDS
;	COMDAT ??$_Destroy_range@PAUtagTAICONDITION@@V?$allocator@PAUtagTAICONDITION@@@std@@@std@@YAXPAPAUtagTAICONDITION@@0AAV?$allocator@PAUtagTAICONDITION@@@0@U_Scalar_ptr_iterator_tag@0@@Z
_TEXT	SEGMENT PARA USE32 PUBLIC 'CODE'
_TEXT	ENDS
;	COMDAT ??$_Ptr_cat@UtagTMONITEM@@@std@@YA?AU_Scalar_ptr_iterator_tag@0@PAPAUtagTMONITEM@@0@Z
_TEXT	SEGMENT PARA USE32 PUBLIC 'CODE'
_TEXT	ENDS
;	COMDAT ??$_Destroy_range@PAUtagTMONITEM@@V?$allocator@PAUtagTMONITEM@@@std@@@std@@YAXPAPAUtagTMONITEM@@0AAV?$allocator@PAUtagTMONITEM@@@0@U_Scalar_ptr_iterator_tag@0@@Z
_TEXT	SEGMENT PARA USE32 PUBLIC 'CODE'
_TEXT	ENDS
;	COMDAT ??$_Ptr_cat@UtagTMAPMON@@@std@@YA?AU_Scalar_ptr_iterator_tag@0@PAPAUtagTMAPMON@@0@Z
_TEXT	SEGMENT PARA USE32 PUBLIC 'CODE'
_TEXT	ENDS
;	COMDAT ??$_Destroy_range@PAUtagTMAPMON@@V?$allocator@PAUtagTMAPMON@@@std@@@std@@YAXPAPAUtagTMAPMON@@0AAV?$allocator@PAUtagTMAPMON@@@0@U_Scalar_ptr_iterator_tag@0@@Z
_TEXT	SEGMENT PARA USE32 PUBLIC 'CODE'
_TEXT	ENDS
;	COMDAT ??$_Ptr_cat@UtagPATHPOINT@@@std@@YA?AU_Scalar_ptr_iterator_tag@0@PAPAUtagPATHPOINT@@0@Z
_TEXT	SEGMENT PARA USE32 PUBLIC 'CODE'
_TEXT	ENDS
;	COMDAT ??$_Destroy_range@PAUtagPATHPOINT@@V?$allocator@PAUtagPATHPOINT@@@std@@@std@@YAXPAPAUtagPATHPOINT@@0AAV?$allocator@PAUtagPATHPOINT@@@0@U_Scalar_ptr_iterator_tag@0@@Z
_TEXT	SEGMENT PARA USE32 PUBLIC 'CODE'
_TEXT	ENDS
;	COMDAT ??$_Ptr_cat@UtagQUESTCONDITION@@@std@@YA?AU_Scalar_ptr_iterator_tag@0@PAPAUtagQUESTCONDITION@@0@Z
_TEXT	SEGMENT PARA USE32 PUBLIC 'CODE'
_TEXT	ENDS
;	COMDAT ??$_Destroy_range@PAUtagQUESTCONDITION@@V?$allocator@PAUtagQUESTCONDITION@@@std@@@std@@YAXPAPAUtagQUESTCONDITION@@0AAV?$allocator@PAUtagQUESTCONDITION@@@0@U_Scalar_ptr_iterator_tag@0@@Z
_TEXT	SEGMENT PARA USE32 PUBLIC 'CODE'
_TEXT	ENDS
;	COMDAT ??$_Ptr_cat@UtagQUESTREWARD@@@std@@YA?AU_Scalar_ptr_iterator_tag@0@PAPAUtagQUESTREWARD@@0@Z
_TEXT	SEGMENT PARA USE32 PUBLIC 'CODE'
_TEXT	ENDS
;	COMDAT ??$_Destroy_range@PAUtagQUESTREWARD@@V?$allocator@PAUtagQUESTREWARD@@@std@@@std@@YAXPAPAUtagQUESTREWARD@@0AAV?$allocator@PAUtagQUESTREWARD@@@0@U_Scalar_ptr_iterator_tag@0@@Z
_TEXT	SEGMENT PARA USE32 PUBLIC 'CODE'
_TEXT	ENDS
;	COMDAT ??$_Ptr_cat@UtagQUESTTERM@@@std@@YA?AU_Scalar_ptr_iterator_tag@0@PAPAUtagQUESTTERM@@0@Z
_TEXT	SEGMENT PARA USE32 PUBLIC 'CODE'
_TEXT	ENDS
;	COMDAT ??$_Destroy_range@PAUtagQUESTTERM@@V?$allocator@PAUtagQUESTTERM@@@std@@@std@@YAXPAPAUtagQUESTTERM@@0AAV?$allocator@PAUtagQUESTTERM@@@0@U_Scalar_ptr_iterator_tag@0@@Z
_TEXT	SEGMENT PARA USE32 PUBLIC 'CODE'
_TEXT	ENDS
;	COMDAT ??$_Ptr_cat@PAUtagTCASHITMSALE@@PAU1@@std@@YA?AU_Nonscalar_ptr_iterator_tag@0@AAPAUtagTCASHITMSALE@@0@Z
_TEXT	SEGMENT PARA USE32 PUBLIC 'CODE'
_TEXT	ENDS
;	COMDAT ??$_Uninit_fill_n@PAUtagTCASHITMSALE@@IU1@V?$allocator@UtagTCASHITMSALE@@@std@@@std@@YAXPAUtagTCASHITMSALE@@IABU1@AAV?$allocator@UtagTCASHITMSALE@@@0@U_Nonscalar_ptr_iterator_tag@0@@Z
_TEXT	SEGMENT PARA USE32 PUBLIC 'CODE'
_TEXT	ENDS
;	COMDAT ??$_Ptr_cat@PAUtagMONREGEN@@PAU1@@std@@YA?AU_Nonscalar_ptr_iterator_tag@0@AAPAUtagMONREGEN@@0@Z
_TEXT	SEGMENT PARA USE32 PUBLIC 'CODE'
_TEXT	ENDS
;	COMDAT ??$_Uninit_fill_n@PAUtagMONREGEN@@IU1@V?$allocator@UtagMONREGEN@@@std@@@std@@YAXPAUtagMONREGEN@@IABU1@AAV?$allocator@UtagMONREGEN@@@0@U_Nonscalar_ptr_iterator_tag@0@@Z
_TEXT	SEGMENT PARA USE32 PUBLIC 'CODE'
_TEXT	ENDS
;	COMDAT ??$_Ptr_cat@PAUtagLOTTERY@@PAU1@@std@@YA?AU_Nonscalar_ptr_iterator_tag@0@AAPAUtagLOTTERY@@0@Z
_TEXT	SEGMENT PARA USE32 PUBLIC 'CODE'
_TEXT	ENDS
;	COMDAT ??$_Uninit_fill_n@PAUtagLOTTERY@@IU1@V?$allocator@UtagLOTTERY@@@std@@@std@@YAXPAUtagLOTTERY@@IABU1@AAV?$allocator@UtagLOTTERY@@@0@U_Nonscalar_ptr_iterator_tag@0@@Z
_TEXT	SEGMENT PARA USE32 PUBLIC 'CODE'
_TEXT	ENDS
;	COMDAT ??$_Destroy_range@GV?$allocator@G@std@@@std@@YAXPAG0AAV?$allocator@G@0@U_Scalar_ptr_iterator_tag@0@@Z
_TEXT	SEGMENT PARA USE32 PUBLIC 'CODE'
_TEXT	ENDS
;	COMDAT ??$_Uninitialized_copy@PAGPAGV?$allocator@G@std@@@std@@YAPAGPAG00AAV?$allocator@G@0@@Z
_TEXT	SEGMENT PARA USE32 PUBLIC 'CODE'
_TEXT	ENDS
;	COMDAT ??$_Copy_backward_opt@PAGPAG@std@@YAPAGPAG00U_Scalar_ptr_iterator_tag@0@@Z
_TEXT	SEGMENT PARA USE32 PUBLIC 'CODE'
_TEXT	ENDS
;	COMDAT ??$_Ptr_cat@VCTPlayer@@@std@@YA?AU_Scalar_ptr_iterator_tag@0@PAPAVCTPlayer@@0@Z
_TEXT	SEGMENT PARA USE32 PUBLIC 'CODE'
_TEXT	ENDS
;	COMDAT ??$_Destroy_range@PAVCTPlayer@@V?$allocator@PAVCTPlayer@@@std@@@std@@YAXPAPAVCTPlayer@@0AAV?$allocator@PAVCTPlayer@@@0@U_Scalar_ptr_iterator_tag@0@@Z
_TEXT	SEGMENT PARA USE32 PUBLIC 'CODE'
_TEXT	ENDS
;	COMDAT ??$_Destroy_range@UtagTCASHITMSALE@@V?$allocator@UtagTCASHITMSALE@@@std@@@std@@YAXPAUtagTCASHITMSALE@@0AAV?$allocator@UtagTCASHITMSALE@@@0@U_Nonscalar_ptr_iterator_tag@0@@Z
_TEXT	SEGMENT PARA USE32 PUBLIC 'CODE'
_TEXT	ENDS
;	COMDAT ??$_Uninitialized_copy@PAUtagTCASHITMSALE@@PAU1@V?$allocator@UtagTCASHITMSALE@@@std@@@std@@YAPAUtagTCASHITMSALE@@PAU1@00AAV?$allocator@UtagTCASHITMSALE@@@0@@Z
_TEXT	SEGMENT PARA USE32 PUBLIC 'CODE'
_TEXT	ENDS
;	COMDAT ??$_Copy_backward_opt@PAUtagTCASHITMSALE@@PAU1@@std@@YAPAUtagTCASHITMSALE@@PAU1@00U_Nonscalar_ptr_iterator_tag@0@@Z
_TEXT	SEGMENT PARA USE32 PUBLIC 'CODE'
_TEXT	ENDS
;	COMDAT ??$_Destroy_range@UtagMONREGEN@@V?$allocator@UtagMONREGEN@@@std@@@std@@YAXPAUtagMONREGEN@@0AAV?$allocator@UtagMONREGEN@@@0@U_Nonscalar_ptr_iterator_tag@0@@Z
_TEXT	SEGMENT PARA USE32 PUBLIC 'CODE'
_TEXT	ENDS
;	COMDAT ??$_Uninitialized_copy@PAUtagMONREGEN@@PAU1@V?$allocator@UtagMONREGEN@@@std@@@std@@YAPAUtagMONREGEN@@PAU1@00AAV?$allocator@UtagMONREGEN@@@0@@Z
_TEXT	SEGMENT PARA USE32 PUBLIC 'CODE'
_TEXT	ENDS
;	COMDAT ??$_Copy_backward_opt@PAUtagMONREGEN@@PAU1@@std@@YAPAUtagMONREGEN@@PAU1@00U_Nonscalar_ptr_iterator_tag@0@@Z
_TEXT	SEGMENT PARA USE32 PUBLIC 'CODE'
_TEXT	ENDS
;	COMDAT ??$_Destroy_range@UtagLOTTERY@@V?$allocator@UtagLOTTERY@@@std@@@std@@YAXPAUtagLOTTERY@@0AAV?$allocator@UtagLOTTERY@@@0@U_Nonscalar_ptr_iterator_tag@0@@Z
_TEXT	SEGMENT PARA USE32 PUBLIC 'CODE'
_TEXT	ENDS
;	COMDAT ??$_Uninitialized_copy@PAUtagLOTTERY@@PAU1@V?$allocator@UtagLOTTERY@@@std@@@std@@YAPAUtagLOTTERY@@PAU1@00AAV?$allocator@UtagLOTTERY@@@0@@Z
_TEXT	SEGMENT PARA USE32 PUBLIC 'CODE'
_TEXT	ENDS
;	COMDAT ??$_Copy_backward_opt@PAUtagLOTTERY@@PAU1@@std@@YAPAUtagLOTTERY@@PAU1@00U_Nonscalar_ptr_iterator_tag@0@@Z
_TEXT	SEGMENT PARA USE32 PUBLIC 'CODE'
_TEXT	ENDS
;	COMDAT ??$_Destroy@U_Node@?$_Tree_nod@V?$_Tmap_traits@KKU?$less@K@std@@V?$allocator@U?$pair@$$CBKK@std@@@2@$0A@@std@@@std@@@std@@YAXPAU_Node@?$_Tree_nod@V?$_Tmap_traits@KKU?$less@K@std@@V?$allocator@U?$pair@$$CBKK@std@@@2@$0A@@std@@@0@@Z
_TEXT	SEGMENT PARA USE32 PUBLIC 'CODE'
_TEXT	ENDS
;	COMDAT ??$_Destroy@U_Node@?$_Tree_nod@V?$_Tmap_traits@GPAVCTSkill@@U?$less@G@std@@V?$allocator@U?$pair@$$CBGPAVCTSkill@@@std@@@3@$0A@@std@@@std@@@std@@YAXPAU_Node@?$_Tree_nod@V?$_Tmap_traits@GPAVCTSkill@@U?$less@G@std@@V?$allocator@U?$pair@$$CBGPAVCTSkill@@@std@@@3@$0A@@std@@@0@@Z
_TEXT	SEGMENT PARA USE32 PUBLIC 'CODE'
_TEXT	ENDS
;	COMDAT ??$_Destroy_range@PAVCTSkill@@V?$allocator@PAVCTSkill@@@std@@@std@@YAXPAPAVCTSkill@@0AAV?$allocator@PAVCTSkill@@@0@@Z
_TEXT	SEGMENT PARA USE32 PUBLIC 'CODE'
_TEXT	ENDS
;	COMDAT ??$_Destroy@U_Node@?$_Tree_nod@V?$_Tmap_traits@_J_JU?$less@_J@std@@V?$allocator@U?$pair@$$CB_J_J@std@@@2@$0A@@std@@@std@@@std@@YAXPAU_Node@?$_Tree_nod@V?$_Tmap_traits@_J_JU?$less@_J@std@@V?$allocator@U?$pair@$$CB_J_J@std@@@2@$0A@@std@@@0@@Z
_TEXT	SEGMENT PARA USE32 PUBLIC 'CODE'
_TEXT	ENDS
;	COMDAT ??$_Destroy@U_Node@?$_Tree_nod@V?$_Tmap_traits@_JUtagAGGRO@@U?$less@_J@std@@V?$allocator@U?$pair@$$CB_JUtagAGGRO@@@std@@@3@$0A@@std@@@std@@@std@@YAXPAU_Node@?$_Tree_nod@V?$_Tmap_traits@_JUtagAGGRO@@U?$less@_J@std@@V?$allocator@U?$pair@$$CB_JUtagAGGRO@@@std@@@3@$0A@@std@@@0@@Z
_TEXT	SEGMENT PARA USE32 PUBLIC 'CODE'
_TEXT	ENDS
;	COMDAT ??$_Destroy@U_Node@?$_Tree_nod@V?$_Tmap_traits@EPAVCTItem@@U?$less@E@std@@V?$allocator@U?$pair@$$CBEPAVCTItem@@@std@@@3@$0A@@std@@@std@@@std@@YAXPAU_Node@?$_Tree_nod@V?$_Tmap_traits@EPAVCTItem@@U?$less@E@std@@V?$allocator@U?$pair@$$CBEPAVCTItem@@@std@@@3@$0A@@std@@@0@@Z
_TEXT	SEGMENT PARA USE32 PUBLIC 'CODE'
_TEXT	ENDS
;	COMDAT ?construct@?$allocator@UtagTCASHITMSALE@@@std@@QAEXPAUtagTCASHITMSALE@@ABU3@@Z
_TEXT	SEGMENT PARA USE32 PUBLIC 'CODE'
_TEXT	ENDS
;	COMDAT ?destroy@?$allocator@UtagTCASHITMSALE@@@std@@QAEXPAUtagTCASHITMSALE@@@Z
_TEXT	SEGMENT PARA USE32 PUBLIC 'CODE'
_TEXT	ENDS
;	COMDAT ?construct@?$allocator@UtagMONREGEN@@@std@@QAEXPAUtagMONREGEN@@ABU3@@Z
_TEXT	SEGMENT PARA USE32 PUBLIC 'CODE'
_TEXT	ENDS
;	COMDAT ?destroy@?$allocator@UtagMONREGEN@@@std@@QAEXPAUtagMONREGEN@@@Z
_TEXT	SEGMENT PARA USE32 PUBLIC 'CODE'
_TEXT	ENDS
;	COMDAT ?construct@?$allocator@UtagLOTTERY@@@std@@QAEXPAUtagLOTTERY@@ABU3@@Z
_TEXT	SEGMENT PARA USE32 PUBLIC 'CODE'
_TEXT	ENDS
;	COMDAT ?destroy@?$allocator@UtagLOTTERY@@@std@@QAEXPAUtagLOTTERY@@@Z
_TEXT	SEGMENT PARA USE32 PUBLIC 'CODE'
_TEXT	ENDS
;	COMDAT ??$fill_n@PAGIG@std@@YAXPAGIABG@Z
_TEXT	SEGMENT PARA USE32 PUBLIC 'CODE'
_TEXT	ENDS
;	COMDAT ??$_Uninit_copy@GG@std@@YAPAGPAG00AAV?$allocator@G@0@U_Scalar_ptr_iterator_tag@0@@Z
_TEXT	SEGMENT PARA USE32 PUBLIC 'CODE'
_TEXT	ENDS
;	COMDAT ??$_Uninit_copy@PAUtagTCASHITMSALE@@PAU1@V?$allocator@UtagTCASHITMSALE@@@std@@@std@@YAPAUtagTCASHITMSALE@@PAU1@00AAV?$allocator@UtagTCASHITMSALE@@@0@U_Nonscalar_ptr_iterator_tag@0@@Z
_TEXT	SEGMENT PARA USE32 PUBLIC 'CODE'
_TEXT	ENDS
;	COMDAT ??$_Uninit_copy@PAUtagMONREGEN@@PAU1@V?$allocator@UtagMONREGEN@@@std@@@std@@YAPAUtagMONREGEN@@PAU1@00AAV?$allocator@UtagMONREGEN@@@0@U_Nonscalar_ptr_iterator_tag@0@@Z
_TEXT	SEGMENT PARA USE32 PUBLIC 'CODE'
_TEXT	ENDS
;	COMDAT ??$_Uninit_copy@PAUtagLOTTERY@@PAU1@V?$allocator@UtagLOTTERY@@@std@@@std@@YAPAUtagLOTTERY@@PAU1@00AAV?$allocator@UtagLOTTERY@@@0@U_Nonscalar_ptr_iterator_tag@0@@Z
_TEXT	SEGMENT PARA USE32 PUBLIC 'CODE'
_TEXT	ENDS
;	COMDAT ??$_Ptr_cat@VCTSkill@@@std@@YA?AU_Scalar_ptr_iterator_tag@0@PAPAVCTSkill@@0@Z
_TEXT	SEGMENT PARA USE32 PUBLIC 'CODE'
_TEXT	ENDS
;	COMDAT ??$_Destroy_range@PAVCTSkill@@V?$allocator@PAVCTSkill@@@std@@@std@@YAXPAPAVCTSkill@@0AAV?$allocator@PAVCTSkill@@@0@U_Scalar_ptr_iterator_tag@0@@Z
_TEXT	SEGMENT PARA USE32 PUBLIC 'CODE'
_TEXT	ENDS
;	COMDAT ??$_Construct@UtagTCASHITMSALE@@U1@@std@@YAXPAUtagTCASHITMSALE@@ABU1@@Z
_TEXT	SEGMENT PARA USE32 PUBLIC 'CODE'
_TEXT	ENDS
;	COMDAT ??$_Destroy@UtagTCASHITMSALE@@@std@@YAXPAUtagTCASHITMSALE@@@Z
_TEXT	SEGMENT PARA USE32 PUBLIC 'CODE'
_TEXT	ENDS
;	COMDAT ??$_Construct@UtagMONREGEN@@U1@@std@@YAXPAUtagMONREGEN@@ABU1@@Z
_TEXT	SEGMENT PARA USE32 PUBLIC 'CODE'
_TEXT	ENDS
;	COMDAT ??$_Destroy@UtagMONREGEN@@@std@@YAXPAUtagMONREGEN@@@Z
_TEXT	SEGMENT PARA USE32 PUBLIC 'CODE'
_TEXT	ENDS
;	COMDAT ??$_Construct@UtagLOTTERY@@U1@@std@@YAXPAUtagLOTTERY@@ABU1@@Z
_TEXT	SEGMENT PARA USE32 PUBLIC 'CODE'
_TEXT	ENDS
;	COMDAT ??$_Destroy@UtagLOTTERY@@@std@@YAXPAUtagLOTTERY@@@Z
_TEXT	SEGMENT PARA USE32 PUBLIC 'CODE'
_TEXT	ENDS
;	COMDAT ??2@YAPAXIPAX@Z
_TEXT	SEGMENT PARA USE32 PUBLIC 'CODE'
_TEXT	ENDS
;	COMDAT ?_Ptr_cat@std@@YA?AU_Scalar_ptr_iterator_tag@1@PAG0@Z
_TEXT	SEGMENT PARA USE32 PUBLIC 'CODE'
_TEXT	ENDS
;	COMDAT ?_Psave@?$_Facetptr@V?$ctype@G@std@@@std@@2PBVfacet@locale@2@B
_DATA	SEGMENT DWORD USE32 PUBLIC 'DATA'
_DATA	ENDS
;	COMDAT ?_Psave@?$_Facetptr@V?$ctype@D@std@@@std@@2PBVfacet@locale@2@B
_DATA	SEGMENT DWORD USE32 PUBLIC 'DATA'
_DATA	ENDS
;	COMDAT ?Unlock@CComCriticalSection@ATL@@QAEJXZ
_TEXT	SEGMENT PARA USE32 PUBLIC 'CODE'
_TEXT	ENDS
;	COMDAT ??_7CTAICmdLeave@@6B@
CONST	SEGMENT DWORD USE32 PUBLIC 'CONST'
CONST	ENDS
sxdata	SEGMENT DWORD USE32 'SXDATA'
sxdata	ENDS
FLAT	GROUP _DATA, CONST, _BSS
	ASSUME	CS: FLAT, DS: FLAT, SS: FLAT
endif

INCLUDELIB LIBCMT
INCLUDELIB OLDNAMES

PUBLIC	?CanRun@CTAICmdLeave@@UAEEPAVCTMonster@@KKE@Z	; CTAICmdLeave::CanRun
PUBLIC	?ExecAI@CTAICmdLeave@@UAEEPAVCTMonster@@KKE@Z	; CTAICmdLeave::ExecAI
PUBLIC	??0CTAICmdLeave@@QAE@XZ				; CTAICmdLeave::CTAICmdLeave
PUBLIC	??_7CTAICmdLeave@@6B@				; CTAICmdLeave::`vftable'
PUBLIC	??_GCTAICmdLeave@@UAEPAXI@Z			; CTAICmdLeave::`scalar deleting destructor'
EXTRN	?GetDelay@CTAICommand@@UAEKPAVCTMonster@@KKE@Z:NEAR ; CTAICommand::GetDelay
EXTRN	?CheckCondition@CTAICommand@@UAEEPAUtagTAICONDITION@@PAVCTMonster@@KKE@Z:NEAR ; CTAICommand::CheckCondition
EXTRN	??0CTAICommand@@QAE@XZ:NEAR			; CTAICommand::CTAICommand
EXTRN	??_ECTAICmdLeave@@UAEPAXI@Z:NEAR		; CTAICmdLeave::`vector deleting destructor'
;	COMDAT ??_7CTAICmdLeave@@6B@
; File c:\users\pierr\desktop\4story - oldschool\sources\tserver\tmapsvr\taicmdleave.cpp
CONST	SEGMENT
??_7CTAICmdLeave@@6B@ DD FLAT:?GetDelay@CTAICommand@@UAEKPAVCTMonster@@KKE@Z ; CTAICmdLeave::`vftable'
	DD	FLAT:?CanRun@CTAICmdLeave@@UAEEPAVCTMonster@@KKE@Z
	DD	FLAT:?ExecAI@CTAICmdLeave@@UAEEPAVCTMonster@@KKE@Z
	DD	FLAT:?CheckCondition@CTAICommand@@UAEEPAUtagTAICONDITION@@PAVCTMonster@@KKE@Z
	DD	FLAT:??_ECTAICmdLeave@@UAEPAXI@Z
; Function compile flags: /Ogty
CONST	ENDS
;	COMDAT ??0CTAICmdLeave@@QAE@XZ
_TEXT	SEGMENT
??0CTAICmdLeave@@QAE@XZ PROC NEAR			; CTAICmdLeave::CTAICmdLeave, COMDAT
; _this$ = ecx

; 5    : {

  00000	56		 push	 esi
  00001	8b f1		 mov	 esi, ecx
  00003	e8 00 00 00 00	 call	 ??0CTAICommand@@QAE@XZ	; CTAICommand::CTAICommand
  00008	c7 06 00 00 00
	00		 mov	 DWORD PTR [esi], OFFSET FLAT:??_7CTAICmdLeave@@6B@

; 6    : }

  0000e	8b c6		 mov	 eax, esi
  00010	5e		 pop	 esi
  00011	c3		 ret	 0
??0CTAICmdLeave@@QAE@XZ ENDP				; CTAICmdLeave::CTAICmdLeave
_TEXT	ENDS
PUBLIC	??1CTAICmdLeave@@UAE@XZ				; CTAICmdLeave::~CTAICmdLeave
EXTRN	??1CTAICommand@@UAE@XZ:NEAR			; CTAICommand::~CTAICommand
; Function compile flags: /Ogty
;	COMDAT ??1CTAICmdLeave@@UAE@XZ
_TEXT	SEGMENT
??1CTAICmdLeave@@UAE@XZ PROC NEAR			; CTAICmdLeave::~CTAICmdLeave, COMDAT
; _this$ = ecx

; 9    : {

  00000	c7 01 00 00 00
	00		 mov	 DWORD PTR [ecx], OFFSET FLAT:??_7CTAICmdLeave@@6B@

; 10   : }

  00006	e9 00 00 00 00	 jmp	 ??1CTAICommand@@UAE@XZ	; CTAICommand::~CTAICommand
??1CTAICmdLeave@@UAE@XZ ENDP				; CTAICmdLeave::~CTAICmdLeave
_TEXT	ENDS
EXTRN	?CanRun@CTAICommand@@UAEEPAVCTMonster@@KKE@Z:NEAR ; CTAICommand::CanRun
; Function compile flags: /Ogty
;	COMDAT ?CanRun@CTAICmdLeave@@UAEEPAVCTMonster@@KKE@Z
_TEXT	SEGMENT
_pMON$ = 8						; size = 4
_dwEventHost$ = 12					; size = 4
_dwRHId$ = 16						; size = 4
_bRHType$ = 20						; size = 1
?CanRun@CTAICmdLeave@@UAEEPAVCTMonster@@KKE@Z PROC NEAR	; CTAICmdLeave::CanRun, COMDAT
; _this$ = ecx

; 14   : 	if( pMON->m_bStatus != OS_DEAD  ||
; 15   : 		(pMON->m_pSPAWN->m_bStatus == MONSPAWN_SUSPEND &&
; 16   : 		!pMON->m_pMON->m_bRemove))

  00000	8b 44 24 04	 mov	 eax, DWORD PTR _pMON$[esp-4]
  00004	80 b8 cc 00 00
	00 03		 cmp	 BYTE PTR [eax+204], 3
  0000b	53		 push	 ebx
  0000c	75 23		 jne	 SHORT $L152243
  0000e	8b 90 e8 00 00
	00		 mov	 edx, DWORD PTR [eax+232]
  00014	80 7a 18 02	 cmp	 BYTE PTR [edx+24], 2
  00018	75 0d		 jne	 SHORT $L152242
  0001a	8b 90 ec 00 00
	00		 mov	 edx, DWORD PTR [eax+236]
  00020	8a 5a 47	 mov	 bl, BYTE PTR [edx+71]
  00023	84 db		 test	 bl, bl
  00025	74 0a		 je	 SHORT $L152243
$L152242:
  00027	5b		 pop	 ebx

; 18   : 
; 19   : 	return CTAICommand::CanRun( pMON, dwEventHost, dwRHId, bRHType);

  00028	89 44 24 04	 mov	 DWORD PTR _pMON$[esp-4], eax
  0002c	e9 00 00 00 00	 jmp	 ?CanRun@CTAICommand@@UAEEPAVCTMonster@@KKE@Z ; CTAICommand::CanRun
$L152243:

; 17   : 		return FALSE;

  00031	32 c0		 xor	 al, al
  00033	5b		 pop	 ebx

; 20   : }

  00034	c2 10 00	 ret	 16			; 00000010H
?CanRun@CTAICmdLeave@@UAEEPAVCTMonster@@KKE@Z ENDP	; CTAICmdLeave::CanRun
_TEXT	ENDS
PUBLIC	??0const_iterator@?$_Tree@V?$_Tmap_traits@EPAVCTItem@@U?$less@E@std@@V?$allocator@U?$pair@$$CBEPAVCTItem@@@std@@@3@$0A@@std@@@std@@QAE@XZ ; std::_Tree<std::_Tmap_traits<unsigned char,CTItem *,std::less<unsigned char>,std::allocator<std::pair<unsigned char const ,CTItem *> >,0> >::const_iterator::const_iterator
; Function compile flags: /Ogty
; File c:\program files (x86)\microsoft visual studio .net 2003\vc7\include\xtree
;	COMDAT ??0const_iterator@?$_Tree@V?$_Tmap_traits@EPAVCTItem@@U?$less@E@std@@V?$allocator@U?$pair@$$CBEPAVCTItem@@@std@@@3@$0A@@std@@@std@@QAE@XZ
_TEXT	SEGMENT
??0const_iterator@?$_Tree@V?$_Tmap_traits@EPAVCTItem@@U?$less@E@std@@V?$allocator@U?$pair@$$CBEPAVCTItem@@@std@@@3@$0A@@std@@@std@@QAE@XZ PROC NEAR ; std::_Tree<std::_Tmap_traits<unsigned char,CTItem *,std::less<unsigned char>,std::allocator<std::pair<unsigned char const ,CTItem *> >,0> >::const_iterator::const_iterator, COMDAT
; _this$ = ecx

; 193  : 			{	// construct with null node pointer

  00000	8b c1		 mov	 eax, ecx
  00002	c7 00 00 00 00
	00		 mov	 DWORD PTR [eax], 0

; 194  : 			}

  00008	c3		 ret	 0
??0const_iterator@?$_Tree@V?$_Tmap_traits@EPAVCTItem@@U?$less@E@std@@V?$allocator@U?$pair@$$CBEPAVCTItem@@@std@@@3@$0A@@std@@@std@@QAE@XZ ENDP ; std::_Tree<std::_Tmap_traits<unsigned char,CTItem *,std::less<unsigned char>,std::allocator<std::pair<unsigned char const ,CTItem *> >,0> >::const_iterator::const_iterator
_TEXT	ENDS
PUBLIC	??8const_iterator@?$_Tree@V?$_Tmap_traits@EPAVCTItem@@U?$less@E@std@@V?$allocator@U?$pair@$$CBEPAVCTItem@@@std@@@3@$0A@@std@@@std@@QBE_NABV012@@Z ; std::_Tree<std::_Tmap_traits<unsigned char,CTItem *,std::less<unsigned char>,std::allocator<std::pair<unsigned char const ,CTItem *> >,0> >::const_iterator::operator==
; Function compile flags: /Ogty
;	COMDAT ??8const_iterator@?$_Tree@V?$_Tmap_traits@EPAVCTItem@@U?$less@E@std@@V?$allocator@U?$pair@$$CBEPAVCTItem@@@std@@@3@$0A@@std@@@std@@QBE_NABV012@@Z
_TEXT	SEGMENT
__Right$ = 8						; size = 4
??8const_iterator@?$_Tree@V?$_Tmap_traits@EPAVCTItem@@U?$less@E@std@@V?$allocator@U?$pair@$$CBEPAVCTItem@@@std@@@3@$0A@@std@@@std@@QBE_NABV012@@Z PROC NEAR ; std::_Tree<std::_Tmap_traits<unsigned char,CTItem *,std::less<unsigned char>,std::allocator<std::pair<unsigned char const ,CTItem *> >,0> >::const_iterator::operator==, COMDAT
; _this$ = ecx

; 241  : 			return (_Ptr == _Right._Ptr);

  00000	8b 01		 mov	 eax, DWORD PTR [ecx]
  00002	8b 4c 24 04	 mov	 ecx, DWORD PTR __Right$[esp-4]
  00006	2b 01		 sub	 eax, DWORD PTR [ecx]
  00008	f7 d8		 neg	 eax
  0000a	1b c0		 sbb	 eax, eax
  0000c	40		 inc	 eax

; 242  : 			}

  0000d	c2 04 00	 ret	 4
??8const_iterator@?$_Tree@V?$_Tmap_traits@EPAVCTItem@@U?$less@E@std@@V?$allocator@U?$pair@$$CBEPAVCTItem@@@std@@@3@$0A@@std@@@std@@QBE_NABV012@@Z ENDP ; std::_Tree<std::_Tmap_traits<unsigned char,CTItem *,std::less<unsigned char>,std::allocator<std::pair<unsigned char const ,CTItem *> >,0> >::const_iterator::operator==
_TEXT	ENDS
PUBLIC	??0const_iterator@?$_Tree@V?$_Tmap_traits@GPAVCTSkill@@U?$less@G@std@@V?$allocator@U?$pair@$$CBGPAVCTSkill@@@std@@@3@$0A@@std@@@std@@QAE@XZ ; std::_Tree<std::_Tmap_traits<unsigned short,CTSkill *,std::less<unsigned short>,std::allocator<std::pair<unsigned short const ,CTSkill *> >,0> >::const_iterator::const_iterator
; Function compile flags: /Ogty
;	COMDAT ??0const_iterator@?$_Tree@V?$_Tmap_traits@GPAVCTSkill@@U?$less@G@std@@V?$allocator@U?$pair@$$CBGPAVCTSkill@@@std@@@3@$0A@@std@@@std@@QAE@XZ
_TEXT	SEGMENT
??0const_iterator@?$_Tree@V?$_Tmap_traits@GPAVCTSkill@@U?$less@G@std@@V?$allocator@U?$pair@$$CBGPAVCTSkill@@@std@@@3@$0A@@std@@@std@@QAE@XZ PROC NEAR ; std::_Tree<std::_Tmap_traits<unsigned short,CTSkill *,std::less<unsigned short>,std::allocator<std::pair<unsigned short const ,CTSkill *> >,0> >::const_iterator::const_iterator, COMDAT
; _this$ = ecx

; 193  : 			{	// construct with null node pointer

  00000	8b c1		 mov	 eax, ecx
  00002	c7 00 00 00 00
	00		 mov	 DWORD PTR [eax], 0

; 194  : 			}

  00008	c3		 ret	 0
??0const_iterator@?$_Tree@V?$_Tmap_traits@GPAVCTSkill@@U?$less@G@std@@V?$allocator@U?$pair@$$CBGPAVCTSkill@@@std@@@3@$0A@@std@@@std@@QAE@XZ ENDP ; std::_Tree<std::_Tmap_traits<unsigned short,CTSkill *,std::less<unsigned short>,std::allocator<std::pair<unsigned short const ,CTSkill *> >,0> >::const_iterator::const_iterator
_TEXT	ENDS
PUBLIC	??8const_iterator@?$_Tree@V?$_Tmap_traits@GPAVCTSkill@@U?$less@G@std@@V?$allocator@U?$pair@$$CBGPAVCTSkill@@@std@@@3@$0A@@std@@@std@@QBE_NABV012@@Z ; std::_Tree<std::_Tmap_traits<unsigned short,CTSkill *,std::less<unsigned short>,std::allocator<std::pair<unsigned short const ,CTSkill *> >,0> >::const_iterator::operator==
; Function compile flags: /Ogty
;	COMDAT ??8const_iterator@?$_Tree@V?$_Tmap_traits@GPAVCTSkill@@U?$less@G@std@@V?$allocator@U?$pair@$$CBGPAVCTSkill@@@std@@@3@$0A@@std@@@std@@QBE_NABV012@@Z
_TEXT	SEGMENT
__Right$ = 8						; size = 4
??8const_iterator@?$_Tree@V?$_Tmap_traits@GPAVCTSkill@@U?$less@G@std@@V?$allocator@U?$pair@$$CBGPAVCTSkill@@@std@@@3@$0A@@std@@@std@@QBE_NABV012@@Z PROC NEAR ; std::_Tree<std::_Tmap_traits<unsigned short,CTSkill *,std::less<unsigned short>,std::allocator<std::pair<unsigned short const ,CTSkill *> >,0> >::const_iterator::operator==, COMDAT
; _this$ = ecx

; 241  : 			return (_Ptr == _Right._Ptr);

  00000	8b 01		 mov	 eax, DWORD PTR [ecx]
  00002	8b 4c 24 04	 mov	 ecx, DWORD PTR __Right$[esp-4]
  00006	2b 01		 sub	 eax, DWORD PTR [ecx]
  00008	f7 d8		 neg	 eax
  0000a	1b c0		 sbb	 eax, eax
  0000c	40		 inc	 eax

; 242  : 			}

  0000d	c2 04 00	 ret	 4
??8const_iterator@?$_Tree@V?$_Tmap_traits@GPAVCTSkill@@U?$less@G@std@@V?$allocator@U?$pair@$$CBGPAVCTSkill@@@std@@@3@$0A@@std@@@std@@QBE_NABV012@@Z ENDP ; std::_Tree<std::_Tmap_traits<unsigned short,CTSkill *,std::less<unsigned short>,std::allocator<std::pair<unsigned short const ,CTSkill *> >,0> >::const_iterator::operator==
_TEXT	ENDS
PUBLIC	?_Isnil@?$_Tree@V?$_Tmap_traits@KKU?$less@K@std@@V?$allocator@U?$pair@$$CBKK@std@@@2@$0A@@std@@@std@@KAAADPAU_Node@?$_Tree_nod@V?$_Tmap_traits@KKU?$less@K@std@@V?$allocator@U?$pair@$$CBKK@std@@@2@$0A@@std@@@2@@Z ; std::_Tree<std::_Tmap_traits<unsigned long,unsigned long,std::less<unsigned long>,std::allocator<std::pair<unsigned long const ,unsigned long> >,0> >::_Isnil
; Function compile flags: /Ogty
;	COMDAT ?_Isnil@?$_Tree@V?$_Tmap_traits@KKU?$less@K@std@@V?$allocator@U?$pair@$$CBKK@std@@@2@$0A@@std@@@std@@KAAADPAU_Node@?$_Tree_nod@V?$_Tmap_traits@KKU?$less@K@std@@V?$allocator@U?$pair@$$CBKK@std@@@2@$0A@@std@@@2@@Z
_TEXT	SEGMENT
__Pnode$ = 8						; size = 4
?_Isnil@?$_Tree@V?$_Tmap_traits@KKU?$less@K@std@@V?$allocator@U?$pair@$$CBKK@std@@@2@$0A@@std@@@std@@KAAADPAU_Node@?$_Tree_nod@V?$_Tmap_traits@KKU?$less@K@std@@V?$allocator@U?$pair@$$CBKK@std@@@2@$0A@@std@@@2@@Z PROC NEAR ; std::_Tree<std::_Tmap_traits<unsigned long,unsigned long,std::less<unsigned long>,std::allocator<std::pair<unsigned long const ,unsigned long> >,0> >::_Isnil, COMDAT

; 137  : 		return ((_Charref)(*_Pnode)._Isnil);

  00000	8b 44 24 04	 mov	 eax, DWORD PTR __Pnode$[esp-4]
  00004	83 c0 15	 add	 eax, 21			; 00000015H

; 138  : 		}

  00007	c3		 ret	 0
?_Isnil@?$_Tree@V?$_Tmap_traits@KKU?$less@K@std@@V?$allocator@U?$pair@$$CBKK@std@@@2@$0A@@std@@@std@@KAAADPAU_Node@?$_Tree_nod@V?$_Tmap_traits@KKU?$less@K@std@@V?$allocator@U?$pair@$$CBKK@std@@@2@$0A@@std@@@2@@Z ENDP ; std::_Tree<std::_Tmap_traits<unsigned long,unsigned long,std::less<unsigned long>,std::allocator<std::pair<unsigned long const ,unsigned long> >,0> >::_Isnil
_TEXT	ENDS
PUBLIC	?_Left@?$_Tree@V?$_Tmap_traits@KKU?$less@K@std@@V?$allocator@U?$pair@$$CBKK@std@@@2@$0A@@std@@@std@@KAAAPAU_Node@?$_Tree_nod@V?$_Tmap_traits@KKU?$less@K@std@@V?$allocator@U?$pair@$$CBKK@std@@@2@$0A@@std@@@2@PAU342@@Z ; std::_Tree<std::_Tmap_traits<unsigned long,unsigned long,std::less<unsigned long>,std::allocator<std::pair<unsigned long const ,unsigned long> >,0> >::_Left
; Function compile flags: /Ogty
;	COMDAT ?_Left@?$_Tree@V?$_Tmap_traits@KKU?$less@K@std@@V?$allocator@U?$pair@$$CBKK@std@@@2@$0A@@std@@@std@@KAAAPAU_Node@?$_Tree_nod@V?$_Tmap_traits@KKU?$less@K@std@@V?$allocator@U?$pair@$$CBKK@std@@@2@$0A@@std@@@2@PAU342@@Z
_TEXT	SEGMENT
__Pnode$ = 8						; size = 4
?_Left@?$_Tree@V?$_Tmap_traits@KKU?$less@K@std@@V?$allocator@U?$pair@$$CBKK@std@@@2@$0A@@std@@@std@@KAAAPAU_Node@?$_Tree_nod@V?$_Tmap_traits@KKU?$less@K@std@@V?$allocator@U?$pair@$$CBKK@std@@@2@$0A@@std@@@2@PAU342@@Z PROC NEAR ; std::_Tree<std::_Tmap_traits<unsigned long,unsigned long,std::less<unsigned long>,std::allocator<std::pair<unsigned long const ,unsigned long> >,0> >::_Left, COMDAT

; 147  : 		return ((_Nodepref)(*_Pnode)._Left);

  00000	8b 44 24 04	 mov	 eax, DWORD PTR __Pnode$[esp-4]

; 148  : 		}

  00004	c3		 ret	 0
?_Left@?$_Tree@V?$_Tmap_traits@KKU?$less@K@std@@V?$allocator@U?$pair@$$CBKK@std@@@2@$0A@@std@@@std@@KAAAPAU_Node@?$_Tree_nod@V?$_Tmap_traits@KKU?$less@K@std@@V?$allocator@U?$pair@$$CBKK@std@@@2@$0A@@std@@@2@PAU342@@Z ENDP ; std::_Tree<std::_Tmap_traits<unsigned long,unsigned long,std::less<unsigned long>,std::allocator<std::pair<unsigned long const ,unsigned long> >,0> >::_Left
_TEXT	ENDS
PUBLIC	?_Parent@?$_Tree@V?$_Tmap_traits@KKU?$less@K@std@@V?$allocator@U?$pair@$$CBKK@std@@@2@$0A@@std@@@std@@KAAAPAU_Node@?$_Tree_nod@V?$_Tmap_traits@KKU?$less@K@std@@V?$allocator@U?$pair@$$CBKK@std@@@2@$0A@@std@@@2@PAU342@@Z ; std::_Tree<std::_Tmap_traits<unsigned long,unsigned long,std::less<unsigned long>,std::allocator<std::pair<unsigned long const ,unsigned long> >,0> >::_Parent
; Function compile flags: /Ogty
;	COMDAT ?_Parent@?$_Tree@V?$_Tmap_traits@KKU?$less@K@std@@V?$allocator@U?$pair@$$CBKK@std@@@2@$0A@@std@@@std@@KAAAPAU_Node@?$_Tree_nod@V?$_Tmap_traits@KKU?$less@K@std@@V?$allocator@U?$pair@$$CBKK@std@@@2@$0A@@std@@@2@PAU342@@Z
_TEXT	SEGMENT
__Pnode$ = 8						; size = 4
?_Parent@?$_Tree@V?$_Tmap_traits@KKU?$less@K@std@@V?$allocator@U?$pair@$$CBKK@std@@@2@$0A@@std@@@std@@KAAAPAU_Node@?$_Tree_nod@V?$_Tmap_traits@KKU?$less@K@std@@V?$allocator@U?$pair@$$CBKK@std@@@2@$0A@@std@@@2@PAU342@@Z PROC NEAR ; std::_Tree<std::_Tmap_traits<unsigned long,unsigned long,std::less<unsigned long>,std::allocator<std::pair<unsigned long const ,unsigned long> >,0> >::_Parent, COMDAT

; 152  : 		return ((_Nodepref)(*_Pnode)._Parent);

  00000	8b 44 24 04	 mov	 eax, DWORD PTR __Pnode$[esp-4]
  00004	83 c0 04	 add	 eax, 4

; 153  : 		}

  00007	c3		 ret	 0
?_Parent@?$_Tree@V?$_Tmap_traits@KKU?$less@K@std@@V?$allocator@U?$pair@$$CBKK@std@@@2@$0A@@std@@@std@@KAAAPAU_Node@?$_Tree_nod@V?$_Tmap_traits@KKU?$less@K@std@@V?$allocator@U?$pair@$$CBKK@std@@@2@$0A@@std@@@2@PAU342@@Z ENDP ; std::_Tree<std::_Tmap_traits<unsigned long,unsigned long,std::less<unsigned long>,std::allocator<std::pair<unsigned long const ,unsigned long> >,0> >::_Parent
_TEXT	ENDS
PUBLIC	?_Right@?$_Tree@V?$_Tmap_traits@KKU?$less@K@std@@V?$allocator@U?$pair@$$CBKK@std@@@2@$0A@@std@@@std@@KAAAPAU_Node@?$_Tree_nod@V?$_Tmap_traits@KKU?$less@K@std@@V?$allocator@U?$pair@$$CBKK@std@@@2@$0A@@std@@@2@PAU342@@Z ; std::_Tree<std::_Tmap_traits<unsigned long,unsigned long,std::less<unsigned long>,std::allocator<std::pair<unsigned long const ,unsigned long> >,0> >::_Right
; Function compile flags: /Ogty
;	COMDAT ?_Right@?$_Tree@V?$_Tmap_traits@KKU?$less@K@std@@V?$allocator@U?$pair@$$CBKK@std@@@2@$0A@@std@@@std@@KAAAPAU_Node@?$_Tree_nod@V?$_Tmap_traits@KKU?$less@K@std@@V?$allocator@U?$pair@$$CBKK@std@@@2@$0A@@std@@@2@PAU342@@Z
_TEXT	SEGMENT
__Pnode$ = 8						; size = 4
?_Right@?$_Tree@V?$_Tmap_traits@KKU?$less@K@std@@V?$allocator@U?$pair@$$CBKK@std@@@2@$0A@@std@@@std@@KAAAPAU_Node@?$_Tree_nod@V?$_Tmap_traits@KKU?$less@K@std@@V?$allocator@U?$pair@$$CBKK@std@@@2@$0A@@std@@@2@PAU342@@Z PROC NEAR ; std::_Tree<std::_Tmap_traits<unsigned long,unsigned long,std::less<unsigned long>,std::allocator<std::pair<unsigned long const ,unsigned long> >,0> >::_Right, COMDAT

; 157  : 		return ((_Nodepref)(*_Pnode)._Right);

  00000	8b 44 24 04	 mov	 eax, DWORD PTR __Pnode$[esp-4]
  00004	83 c0 08	 add	 eax, 8

; 158  : 		}

  00007	c3		 ret	 0
?_Right@?$_Tree@V?$_Tmap_traits@KKU?$less@K@std@@V?$allocator@U?$pair@$$CBKK@std@@@2@$0A@@std@@@std@@KAAAPAU_Node@?$_Tree_nod@V?$_Tmap_traits@KKU?$less@K@std@@V?$allocator@U?$pair@$$CBKK@std@@@2@$0A@@std@@@2@PAU342@@Z ENDP ; std::_Tree<std::_Tmap_traits<unsigned long,unsigned long,std::less<unsigned long>,std::allocator<std::pair<unsigned long const ,unsigned long> >,0> >::_Right
_TEXT	ENDS
PUBLIC	?deallocate@?$allocator@U_Node@?$_Tree_nod@V?$_Tmap_traits@KKU?$less@K@std@@V?$allocator@U?$pair@$$CBKK@std@@@2@$0A@@std@@@std@@@std@@QAEXPAU_Node@?$_Tree_nod@V?$_Tmap_traits@KKU?$less@K@std@@V?$allocator@U?$pair@$$CBKK@std@@@2@$0A@@std@@@2@I@Z ; std::allocator<std::_Tree_nod<std::_Tmap_traits<unsigned long,unsigned long,std::less<unsigned long>,std::allocator<std::pair<unsigned long const ,unsigned long> >,0> >::_Node>::deallocate
EXTRN	??3@YAXPAX@Z:NEAR				; operator delete
; Function compile flags: /Ogty
; File c:\program files (x86)\microsoft visual studio .net 2003\vc7\include\xmemory
;	COMDAT ?deallocate@?$allocator@U_Node@?$_Tree_nod@V?$_Tmap_traits@KKU?$less@K@std@@V?$allocator@U?$pair@$$CBKK@std@@@2@$0A@@std@@@std@@@std@@QAEXPAU_Node@?$_Tree_nod@V?$_Tmap_traits@KKU?$less@K@std@@V?$allocator@U?$pair@$$CBKK@std@@@2@$0A@@std@@@2@I@Z
_TEXT	SEGMENT
__Ptr$ = 8						; size = 4
___formal$ = 12						; size = 4
?deallocate@?$allocator@U_Node@?$_Tree_nod@V?$_Tmap_traits@KKU?$less@K@std@@V?$allocator@U?$pair@$$CBKK@std@@@2@$0A@@std@@@std@@@std@@QAEXPAU_Node@?$_Tree_nod@V?$_Tmap_traits@KKU?$less@K@std@@V?$allocator@U?$pair@$$CBKK@std@@@2@$0A@@std@@@2@I@Z PROC NEAR ; std::allocator<std::_Tree_nod<std::_Tmap_traits<unsigned long,unsigned long,std::less<unsigned long>,std::allocator<std::pair<unsigned long const ,unsigned long> >,0> >::_Node>::deallocate, COMDAT
; _this$ = ecx

; 132  : 		operator delete(_Ptr);

  00000	8b 44 24 04	 mov	 eax, DWORD PTR __Ptr$[esp-4]
  00004	50		 push	 eax
  00005	e8 00 00 00 00	 call	 ??3@YAXPAX@Z		; operator delete
  0000a	59		 pop	 ecx

; 133  : 		}

  0000b	c2 08 00	 ret	 8
?deallocate@?$allocator@U_Node@?$_Tree_nod@V?$_Tmap_traits@KKU?$less@K@std@@V?$allocator@U?$pair@$$CBKK@std@@@2@$0A@@std@@@std@@@std@@QAEXPAU_Node@?$_Tree_nod@V?$_Tmap_traits@KKU?$less@K@std@@V?$allocator@U?$pair@$$CBKK@std@@@2@$0A@@std@@@2@I@Z ENDP ; std::allocator<std::_Tree_nod<std::_Tmap_traits<unsigned long,unsigned long,std::less<unsigned long>,std::allocator<std::pair<unsigned long const ,unsigned long> >,0> >::_Node>::deallocate
_TEXT	ENDS
PUBLIC	?_Isnil@?$_Tree@V?$_Tmap_traits@GPAVCTSkill@@U?$less@G@std@@V?$allocator@U?$pair@$$CBGPAVCTSkill@@@std@@@3@$0A@@std@@@std@@KAAADPAU_Node@?$_Tree_nod@V?$_Tmap_traits@GPAVCTSkill@@U?$less@G@std@@V?$allocator@U?$pair@$$CBGPAVCTSkill@@@std@@@3@$0A@@std@@@2@@Z ; std::_Tree<std::_Tmap_traits<unsigned short,CTSkill *,std::less<unsigned short>,std::allocator<std::pair<unsigned short const ,CTSkill *> >,0> >::_Isnil
; Function compile flags: /Ogty
; File c:\program files (x86)\microsoft visual studio .net 2003\vc7\include\xtree
;	COMDAT ?_Isnil@?$_Tree@V?$_Tmap_traits@GPAVCTSkill@@U?$less@G@std@@V?$allocator@U?$pair@$$CBGPAVCTSkill@@@std@@@3@$0A@@std@@@std@@KAAADPAU_Node@?$_Tree_nod@V?$_Tmap_traits@GPAVCTSkill@@U?$less@G@std@@V?$allocator@U?$pair@$$CBGPAVCTSkill@@@std@@@3@$0A@@std@@@2@@Z
_TEXT	SEGMENT
__Pnode$ = 8						; size = 4
?_Isnil@?$_Tree@V?$_Tmap_traits@GPAVCTSkill@@U?$less@G@std@@V?$allocator@U?$pair@$$CBGPAVCTSkill@@@std@@@3@$0A@@std@@@std@@KAAADPAU_Node@?$_Tree_nod@V?$_Tmap_traits@GPAVCTSkill@@U?$less@G@std@@V?$allocator@U?$pair@$$CBGPAVCTSkill@@@std@@@3@$0A@@std@@@2@@Z PROC NEAR ; std::_Tree<std::_Tmap_traits<unsigned short,CTSkill *,std::less<unsigned short>,std::allocator<std::pair<unsigned short const ,CTSkill *> >,0> >::_Isnil, COMDAT

; 137  : 		return ((_Charref)(*_Pnode)._Isnil);

  00000	8b 44 24 04	 mov	 eax, DWORD PTR __Pnode$[esp-4]
  00004	83 c0 15	 add	 eax, 21			; 00000015H

; 138  : 		}

  00007	c3		 ret	 0
?_Isnil@?$_Tree@V?$_Tmap_traits@GPAVCTSkill@@U?$less@G@std@@V?$allocator@U?$pair@$$CBGPAVCTSkill@@@std@@@3@$0A@@std@@@std@@KAAADPAU_Node@?$_Tree_nod@V?$_Tmap_traits@GPAVCTSkill@@U?$less@G@std@@V?$allocator@U?$pair@$$CBGPAVCTSkill@@@std@@@3@$0A@@std@@@2@@Z ENDP ; std::_Tree<std::_Tmap_traits<unsigned short,CTSkill *,std::less<unsigned short>,std::allocator<std::pair<unsigned short const ,CTSkill *> >,0> >::_Isnil
_TEXT	ENDS
PUBLIC	?_Left@?$_Tree@V?$_Tmap_traits@GPAVCTSkill@@U?$less@G@std@@V?$allocator@U?$pair@$$CBGPAVCTSkill@@@std@@@3@$0A@@std@@@std@@KAAAPAU_Node@?$_Tree_nod@V?$_Tmap_traits@GPAVCTSkill@@U?$less@G@std@@V?$allocator@U?$pair@$$CBGPAVCTSkill@@@std@@@3@$0A@@std@@@2@PAU342@@Z ; std::_Tree<std::_Tmap_traits<unsigned short,CTSkill *,std::less<unsigned short>,std::allocator<std::pair<unsigned short const ,CTSkill *> >,0> >::_Left
; Function compile flags: /Ogty
;	COMDAT ?_Left@?$_Tree@V?$_Tmap_traits@GPAVCTSkill@@U?$less@G@std@@V?$allocator@U?$pair@$$CBGPAVCTSkill@@@std@@@3@$0A@@std@@@std@@KAAAPAU_Node@?$_Tree_nod@V?$_Tmap_traits@GPAVCTSkill@@U?$less@G@std@@V?$allocator@U?$pair@$$CBGPAVCTSkill@@@std@@@3@$0A@@std@@@2@PAU342@@Z
_TEXT	SEGMENT
__Pnode$ = 8						; size = 4
?_Left@?$_Tree@V?$_Tmap_traits@GPAVCTSkill@@U?$less@G@std@@V?$allocator@U?$pair@$$CBGPAVCTSkill@@@std@@@3@$0A@@std@@@std@@KAAAPAU_Node@?$_Tree_nod@V?$_Tmap_traits@GPAVCTSkill@@U?$less@G@std@@V?$allocator@U?$pair@$$CBGPAVCTSkill@@@std@@@3@$0A@@std@@@2@PAU342@@Z PROC NEAR ; std::_Tree<std::_Tmap_traits<unsigned short,CTSkill *,std::less<unsigned short>,std::allocator<std::pair<unsigned short const ,CTSkill *> >,0> >::_Left, COMDAT

; 147  : 		return ((_Nodepref)(*_Pnode)._Left);

  00000	8b 44 24 04	 mov	 eax, DWORD PTR __Pnode$[esp-4]

; 148  : 		}

  00004	c3		 ret	 0
?_Left@?$_Tree@V?$_Tmap_traits@GPAVCTSkill@@U?$less@G@std@@V?$allocator@U?$pair@$$CBGPAVCTSkill@@@std@@@3@$0A@@std@@@std@@KAAAPAU_Node@?$_Tree_nod@V?$_Tmap_traits@GPAVCTSkill@@U?$less@G@std@@V?$allocator@U?$pair@$$CBGPAVCTSkill@@@std@@@3@$0A@@std@@@2@PAU342@@Z ENDP ; std::_Tree<std::_Tmap_traits<unsigned short,CTSkill *,std::less<unsigned short>,std::allocator<std::pair<unsigned short const ,CTSkill *> >,0> >::_Left
_TEXT	ENDS
PUBLIC	?_Parent@?$_Tree@V?$_Tmap_traits@GPAVCTSkill@@U?$less@G@std@@V?$allocator@U?$pair@$$CBGPAVCTSkill@@@std@@@3@$0A@@std@@@std@@KAAAPAU_Node@?$_Tree_nod@V?$_Tmap_traits@GPAVCTSkill@@U?$less@G@std@@V?$allocator@U?$pair@$$CBGPAVCTSkill@@@std@@@3@$0A@@std@@@2@PAU342@@Z ; std::_Tree<std::_Tmap_traits<unsigned short,CTSkill *,std::less<unsigned short>,std::allocator<std::pair<unsigned short const ,CTSkill *> >,0> >::_Parent
; Function compile flags: /Ogty
;	COMDAT ?_Parent@?$_Tree@V?$_Tmap_traits@GPAVCTSkill@@U?$less@G@std@@V?$allocator@U?$pair@$$CBGPAVCTSkill@@@std@@@3@$0A@@std@@@std@@KAAAPAU_Node@?$_Tree_nod@V?$_Tmap_traits@GPAVCTSkill@@U?$less@G@std@@V?$allocator@U?$pair@$$CBGPAVCTSkill@@@std@@@3@$0A@@std@@@2@PAU342@@Z
_TEXT	SEGMENT
__Pnode$ = 8						; size = 4
?_Parent@?$_Tree@V?$_Tmap_traits@GPAVCTSkill@@U?$less@G@std@@V?$allocator@U?$pair@$$CBGPAVCTSkill@@@std@@@3@$0A@@std@@@std@@KAAAPAU_Node@?$_Tree_nod@V?$_Tmap_traits@GPAVCTSkill@@U?$less@G@std@@V?$allocator@U?$pair@$$CBGPAVCTSkill@@@std@@@3@$0A@@std@@@2@PAU342@@Z PROC NEAR ; std::_Tree<std::_Tmap_traits<unsigned short,CTSkill *,std::less<unsigned short>,std::allocator<std::pair<unsigned short const ,CTSkill *> >,0> >::_Parent, COMDAT

; 152  : 		return ((_Nodepref)(*_Pnode)._Parent);

  00000	8b 44 24 04	 mov	 eax, DWORD PTR __Pnode$[esp-4]
  00004	83 c0 04	 add	 eax, 4

; 153  : 		}

  00007	c3		 ret	 0
?_Parent@?$_Tree@V?$_Tmap_traits@GPAVCTSkill@@U?$less@G@std@@V?$allocator@U?$pair@$$CBGPAVCTSkill@@@std@@@3@$0A@@std@@@std@@KAAAPAU_Node@?$_Tree_nod@V?$_Tmap_traits@GPAVCTSkill@@U?$less@G@std@@V?$allocator@U?$pair@$$CBGPAVCTSkill@@@std@@@3@$0A@@std@@@2@PAU342@@Z ENDP ; std::_Tree<std::_Tmap_traits<unsigned short,CTSkill *,std::less<unsigned short>,std::allocator<std::pair<unsigned short const ,CTSkill *> >,0> >::_Parent
_TEXT	ENDS
PUBLIC	?_Right@?$_Tree@V?$_Tmap_traits@GPAVCTSkill@@U?$less@G@std@@V?$allocator@U?$pair@$$CBGPAVCTSkill@@@std@@@3@$0A@@std@@@std@@KAAAPAU_Node@?$_Tree_nod@V?$_Tmap_traits@GPAVCTSkill@@U?$less@G@std@@V?$allocator@U?$pair@$$CBGPAVCTSkill@@@std@@@3@$0A@@std@@@2@PAU342@@Z ; std::_Tree<std::_Tmap_traits<unsigned short,CTSkill *,std::less<unsigned short>,std::allocator<std::pair<unsigned short const ,CTSkill *> >,0> >::_Right
; Function compile flags: /Ogty
;	COMDAT ?_Right@?$_Tree@V?$_Tmap_traits@GPAVCTSkill@@U?$less@G@std@@V?$allocator@U?$pair@$$CBGPAVCTSkill@@@std@@@3@$0A@@std@@@std@@KAAAPAU_Node@?$_Tree_nod@V?$_Tmap_traits@GPAVCTSkill@@U?$less@G@std@@V?$allocator@U?$pair@$$CBGPAVCTSkill@@@std@@@3@$0A@@std@@@2@PAU342@@Z
_TEXT	SEGMENT
__Pnode$ = 8						; size = 4
?_Right@?$_Tree@V?$_Tmap_traits@GPAVCTSkill@@U?$less@G@std@@V?$allocator@U?$pair@$$CBGPAVCTSkill@@@std@@@3@$0A@@std@@@std@@KAAAPAU_Node@?$_Tree_nod@V?$_Tmap_traits@GPAVCTSkill@@U?$less@G@std@@V?$allocator@U?$pair@$$CBGPAVCTSkill@@@std@@@3@$0A@@std@@@2@PAU342@@Z PROC NEAR ; std::_Tree<std::_Tmap_traits<unsigned short,CTSkill *,std::less<unsigned short>,std::allocator<std::pair<unsigned short const ,CTSkill *> >,0> >::_Right, COMDAT

; 157  : 		return ((_Nodepref)(*_Pnode)._Right);

  00000	8b 44 24 04	 mov	 eax, DWORD PTR __Pnode$[esp-4]
  00004	83 c0 08	 add	 eax, 8

; 158  : 		}

  00007	c3		 ret	 0
?_Right@?$_Tree@V?$_Tmap_traits@GPAVCTSkill@@U?$less@G@std@@V?$allocator@U?$pair@$$CBGPAVCTSkill@@@std@@@3@$0A@@std@@@std@@KAAAPAU_Node@?$_Tree_nod@V?$_Tmap_traits@GPAVCTSkill@@U?$less@G@std@@V?$allocator@U?$pair@$$CBGPAVCTSkill@@@std@@@3@$0A@@std@@@2@PAU342@@Z ENDP ; std::_Tree<std::_Tmap_traits<unsigned short,CTSkill *,std::less<unsigned short>,std::allocator<std::pair<unsigned short const ,CTSkill *> >,0> >::_Right
_TEXT	ENDS
PUBLIC	?_Myval@?$_Tree@V?$_Tmap_traits@GPAVCTSkill@@U?$less@G@std@@V?$allocator@U?$pair@$$CBGPAVCTSkill@@@std@@@3@$0A@@std@@@std@@KAAAU?$pair@$$CBGPAVCTSkill@@@2@PAU_Node@?$_Tree_nod@V?$_Tmap_traits@GPAVCTSkill@@U?$less@G@std@@V?$allocator@U?$pair@$$CBGPAVCTSkill@@@std@@@3@$0A@@std@@@2@@Z ; std::_Tree<std::_Tmap_traits<unsigned short,CTSkill *,std::less<unsigned short>,std::allocator<std::pair<unsigned short const ,CTSkill *> >,0> >::_Myval
; Function compile flags: /Ogty
;	COMDAT ?_Myval@?$_Tree@V?$_Tmap_traits@GPAVCTSkill@@U?$less@G@std@@V?$allocator@U?$pair@$$CBGPAVCTSkill@@@std@@@3@$0A@@std@@@std@@KAAAU?$pair@$$CBGPAVCTSkill@@@2@PAU_Node@?$_Tree_nod@V?$_Tmap_traits@GPAVCTSkill@@U?$less@G@std@@V?$allocator@U?$pair@$$CBGPAVCTSkill@@@std@@@3@$0A@@std@@@2@@Z
_TEXT	SEGMENT
__Pnode$ = 8						; size = 4
?_Myval@?$_Tree@V?$_Tmap_traits@GPAVCTSkill@@U?$less@G@std@@V?$allocator@U?$pair@$$CBGPAVCTSkill@@@std@@@3@$0A@@std@@@std@@KAAAU?$pair@$$CBGPAVCTSkill@@@2@PAU_Node@?$_Tree_nod@V?$_Tmap_traits@GPAVCTSkill@@U?$less@G@std@@V?$allocator@U?$pair@$$CBGPAVCTSkill@@@std@@@3@$0A@@std@@@2@@Z PROC NEAR ; std::_Tree<std::_Tmap_traits<unsigned short,CTSkill *,std::less<unsigned short>,std::allocator<std::pair<unsigned short const ,CTSkill *> >,0> >::_Myval, COMDAT

; 162  : 		return ((_Vref)(*_Pnode)._Myval);

  00000	8b 44 24 04	 mov	 eax, DWORD PTR __Pnode$[esp-4]
  00004	83 c0 0c	 add	 eax, 12			; 0000000cH

; 163  : 		}

  00007	c3		 ret	 0
?_Myval@?$_Tree@V?$_Tmap_traits@GPAVCTSkill@@U?$less@G@std@@V?$allocator@U?$pair@$$CBGPAVCTSkill@@@std@@@3@$0A@@std@@@std@@KAAAU?$pair@$$CBGPAVCTSkill@@@2@PAU_Node@?$_Tree_nod@V?$_Tmap_traits@GPAVCTSkill@@U?$less@G@std@@V?$allocator@U?$pair@$$CBGPAVCTSkill@@@std@@@3@$0A@@std@@@2@@Z ENDP ; std::_Tree<std::_Tmap_traits<unsigned short,CTSkill *,std::less<unsigned short>,std::allocator<std::pair<unsigned short const ,CTSkill *> >,0> >::_Myval
_TEXT	ENDS
PUBLIC	?deallocate@?$allocator@U_Node@?$_Tree_nod@V?$_Tmap_traits@GPAVCTSkill@@U?$less@G@std@@V?$allocator@U?$pair@$$CBGPAVCTSkill@@@std@@@3@$0A@@std@@@std@@@std@@QAEXPAU_Node@?$_Tree_nod@V?$_Tmap_traits@GPAVCTSkill@@U?$less@G@std@@V?$allocator@U?$pair@$$CBGPAVCTSkill@@@std@@@3@$0A@@std@@@2@I@Z ; std::allocator<std::_Tree_nod<std::_Tmap_traits<unsigned short,CTSkill *,std::less<unsigned short>,std::allocator<std::pair<unsigned short const ,CTSkill *> >,0> >::_Node>::deallocate
; Function compile flags: /Ogty
; File c:\program files (x86)\microsoft visual studio .net 2003\vc7\include\xmemory
;	COMDAT ?deallocate@?$allocator@U_Node@?$_Tree_nod@V?$_Tmap_traits@GPAVCTSkill@@U?$less@G@std@@V?$allocator@U?$pair@$$CBGPAVCTSkill@@@std@@@3@$0A@@std@@@std@@@std@@QAEXPAU_Node@?$_Tree_nod@V?$_Tmap_traits@GPAVCTSkill@@U?$less@G@std@@V?$allocator@U?$pair@$$CBGPAVCTSkill@@@std@@@3@$0A@@std@@@2@I@Z
_TEXT	SEGMENT
__Ptr$ = 8						; size = 4
___formal$ = 12						; size = 4
?deallocate@?$allocator@U_Node@?$_Tree_nod@V?$_Tmap_traits@GPAVCTSkill@@U?$less@G@std@@V?$allocator@U?$pair@$$CBGPAVCTSkill@@@std@@@3@$0A@@std@@@std@@@std@@QAEXPAU_Node@?$_Tree_nod@V?$_Tmap_traits@GPAVCTSkill@@U?$less@G@std@@V?$allocator@U?$pair@$$CBGPAVCTSkill@@@std@@@3@$0A@@std@@@2@I@Z PROC NEAR ; std::allocator<std::_Tree_nod<std::_Tmap_traits<unsigned short,CTSkill *,std::less<unsigned short>,std::allocator<std::pair<unsigned short const ,CTSkill *> >,0> >::_Node>::deallocate, COMDAT
; _this$ = ecx

; 132  : 		operator delete(_Ptr);

  00000	8b 44 24 04	 mov	 eax, DWORD PTR __Ptr$[esp-4]
  00004	50		 push	 eax
  00005	e8 00 00 00 00	 call	 ??3@YAXPAX@Z		; operator delete
  0000a	59		 pop	 ecx

; 133  : 		}

  0000b	c2 08 00	 ret	 8
?deallocate@?$allocator@U_Node@?$_Tree_nod@V?$_Tmap_traits@GPAVCTSkill@@U?$less@G@std@@V?$allocator@U?$pair@$$CBGPAVCTSkill@@@std@@@3@$0A@@std@@@std@@@std@@QAEXPAU_Node@?$_Tree_nod@V?$_Tmap_traits@GPAVCTSkill@@U?$less@G@std@@V?$allocator@U?$pair@$$CBGPAVCTSkill@@@std@@@3@$0A@@std@@@2@I@Z ENDP ; std::allocator<std::_Tree_nod<std::_Tmap_traits<unsigned short,CTSkill *,std::less<unsigned short>,std::allocator<std::pair<unsigned short const ,CTSkill *> >,0> >::_Node>::deallocate
_TEXT	ENDS
PUBLIC	?deallocate@?$allocator@PAVCTSkill@@@std@@QAEXPAPAVCTSkill@@I@Z ; std::allocator<CTSkill *>::deallocate
; Function compile flags: /Ogty
;	COMDAT ?deallocate@?$allocator@PAVCTSkill@@@std@@QAEXPAPAVCTSkill@@I@Z
_TEXT	SEGMENT
__Ptr$ = 8						; size = 4
___formal$ = 12						; size = 4
?deallocate@?$allocator@PAVCTSkill@@@std@@QAEXPAPAVCTSkill@@I@Z PROC NEAR ; std::allocator<CTSkill *>::deallocate, COMDAT
; _this$ = ecx

; 132  : 		operator delete(_Ptr);

  00000	8b 44 24 04	 mov	 eax, DWORD PTR __Ptr$[esp-4]
  00004	50		 push	 eax
  00005	e8 00 00 00 00	 call	 ??3@YAXPAX@Z		; operator delete
  0000a	59		 pop	 ecx

; 133  : 		}

  0000b	c2 08 00	 ret	 8
?deallocate@?$allocator@PAVCTSkill@@@std@@QAEXPAPAVCTSkill@@I@Z ENDP ; std::allocator<CTSkill *>::deallocate
_TEXT	ENDS
PUBLIC	?_Isnil@?$_Tree@V?$_Tmap_traits@_J_JU?$less@_J@std@@V?$allocator@U?$pair@$$CB_J_J@std@@@2@$0A@@std@@@std@@KAAADPAU_Node@?$_Tree_nod@V?$_Tmap_traits@_J_JU?$less@_J@std@@V?$allocator@U?$pair@$$CB_J_J@std@@@2@$0A@@std@@@2@@Z ; std::_Tree<std::_Tmap_traits<__int64,__int64,std::less<__int64>,std::allocator<std::pair<__int64 const ,__int64> >,0> >::_Isnil
; Function compile flags: /Ogty
; File c:\program files (x86)\microsoft visual studio .net 2003\vc7\include\xtree
;	COMDAT ?_Isnil@?$_Tree@V?$_Tmap_traits@_J_JU?$less@_J@std@@V?$allocator@U?$pair@$$CB_J_J@std@@@2@$0A@@std@@@std@@KAAADPAU_Node@?$_Tree_nod@V?$_Tmap_traits@_J_JU?$less@_J@std@@V?$allocator@U?$pair@$$CB_J_J@std@@@2@$0A@@std@@@2@@Z
_TEXT	SEGMENT
__Pnode$ = 8						; size = 4
?_Isnil@?$_Tree@V?$_Tmap_traits@_J_JU?$less@_J@std@@V?$allocator@U?$pair@$$CB_J_J@std@@@2@$0A@@std@@@std@@KAAADPAU_Node@?$_Tree_nod@V?$_Tmap_traits@_J_JU?$less@_J@std@@V?$allocator@U?$pair@$$CB_J_J@std@@@2@$0A@@std@@@2@@Z PROC NEAR ; std::_Tree<std::_Tmap_traits<__int64,__int64,std::less<__int64>,std::allocator<std::pair<__int64 const ,__int64> >,0> >::_Isnil, COMDAT

; 137  : 		return ((_Charref)(*_Pnode)._Isnil);

  00000	8b 44 24 04	 mov	 eax, DWORD PTR __Pnode$[esp-4]
  00004	83 c0 21	 add	 eax, 33			; 00000021H

; 138  : 		}

  00007	c3		 ret	 0
?_Isnil@?$_Tree@V?$_Tmap_traits@_J_JU?$less@_J@std@@V?$allocator@U?$pair@$$CB_J_J@std@@@2@$0A@@std@@@std@@KAAADPAU_Node@?$_Tree_nod@V?$_Tmap_traits@_J_JU?$less@_J@std@@V?$allocator@U?$pair@$$CB_J_J@std@@@2@$0A@@std@@@2@@Z ENDP ; std::_Tree<std::_Tmap_traits<__int64,__int64,std::less<__int64>,std::allocator<std::pair<__int64 const ,__int64> >,0> >::_Isnil
_TEXT	ENDS
PUBLIC	?_Left@?$_Tree@V?$_Tmap_traits@_J_JU?$less@_J@std@@V?$allocator@U?$pair@$$CB_J_J@std@@@2@$0A@@std@@@std@@KAAAPAU_Node@?$_Tree_nod@V?$_Tmap_traits@_J_JU?$less@_J@std@@V?$allocator@U?$pair@$$CB_J_J@std@@@2@$0A@@std@@@2@PAU342@@Z ; std::_Tree<std::_Tmap_traits<__int64,__int64,std::less<__int64>,std::allocator<std::pair<__int64 const ,__int64> >,0> >::_Left
; Function compile flags: /Ogty
;	COMDAT ?_Left@?$_Tree@V?$_Tmap_traits@_J_JU?$less@_J@std@@V?$allocator@U?$pair@$$CB_J_J@std@@@2@$0A@@std@@@std@@KAAAPAU_Node@?$_Tree_nod@V?$_Tmap_traits@_J_JU?$less@_J@std@@V?$allocator@U?$pair@$$CB_J_J@std@@@2@$0A@@std@@@2@PAU342@@Z
_TEXT	SEGMENT
__Pnode$ = 8						; size = 4
?_Left@?$_Tree@V?$_Tmap_traits@_J_JU?$less@_J@std@@V?$allocator@U?$pair@$$CB_J_J@std@@@2@$0A@@std@@@std@@KAAAPAU_Node@?$_Tree_nod@V?$_Tmap_traits@_J_JU?$less@_J@std@@V?$allocator@U?$pair@$$CB_J_J@std@@@2@$0A@@std@@@2@PAU342@@Z PROC NEAR ; std::_Tree<std::_Tmap_traits<__int64,__int64,std::less<__int64>,std::allocator<std::pair<__int64 const ,__int64> >,0> >::_Left, COMDAT

; 147  : 		return ((_Nodepref)(*_Pnode)._Left);

  00000	8b 44 24 04	 mov	 eax, DWORD PTR __Pnode$[esp-4]

; 148  : 		}

  00004	c3		 ret	 0
?_Left@?$_Tree@V?$_Tmap_traits@_J_JU?$less@_J@std@@V?$allocator@U?$pair@$$CB_J_J@std@@@2@$0A@@std@@@std@@KAAAPAU_Node@?$_Tree_nod@V?$_Tmap_traits@_J_JU?$less@_J@std@@V?$allocator@U?$pair@$$CB_J_J@std@@@2@$0A@@std@@@2@PAU342@@Z ENDP ; std::_Tree<std::_Tmap_traits<__int64,__int64,std::less<__int64>,std::allocator<std::pair<__int64 const ,__int64> >,0> >::_Left
_TEXT	ENDS
PUBLIC	?_Parent@?$_Tree@V?$_Tmap_traits@_J_JU?$less@_J@std@@V?$allocator@U?$pair@$$CB_J_J@std@@@2@$0A@@std@@@std@@KAAAPAU_Node@?$_Tree_nod@V?$_Tmap_traits@_J_JU?$less@_J@std@@V?$allocator@U?$pair@$$CB_J_J@std@@@2@$0A@@std@@@2@PAU342@@Z ; std::_Tree<std::_Tmap_traits<__int64,__int64,std::less<__int64>,std::allocator<std::pair<__int64 const ,__int64> >,0> >::_Parent
; Function compile flags: /Ogty
;	COMDAT ?_Parent@?$_Tree@V?$_Tmap_traits@_J_JU?$less@_J@std@@V?$allocator@U?$pair@$$CB_J_J@std@@@2@$0A@@std@@@std@@KAAAPAU_Node@?$_Tree_nod@V?$_Tmap_traits@_J_JU?$less@_J@std@@V?$allocator@U?$pair@$$CB_J_J@std@@@2@$0A@@std@@@2@PAU342@@Z
_TEXT	SEGMENT
__Pnode$ = 8						; size = 4
?_Parent@?$_Tree@V?$_Tmap_traits@_J_JU?$less@_J@std@@V?$allocator@U?$pair@$$CB_J_J@std@@@2@$0A@@std@@@std@@KAAAPAU_Node@?$_Tree_nod@V?$_Tmap_traits@_J_JU?$less@_J@std@@V?$allocator@U?$pair@$$CB_J_J@std@@@2@$0A@@std@@@2@PAU342@@Z PROC NEAR ; std::_Tree<std::_Tmap_traits<__int64,__int64,std::less<__int64>,std::allocator<std::pair<__int64 const ,__int64> >,0> >::_Parent, COMDAT

; 152  : 		return ((_Nodepref)(*_Pnode)._Parent);

  00000	8b 44 24 04	 mov	 eax, DWORD PTR __Pnode$[esp-4]
  00004	83 c0 04	 add	 eax, 4

; 153  : 		}

  00007	c3		 ret	 0
?_Parent@?$_Tree@V?$_Tmap_traits@_J_JU?$less@_J@std@@V?$allocator@U?$pair@$$CB_J_J@std@@@2@$0A@@std@@@std@@KAAAPAU_Node@?$_Tree_nod@V?$_Tmap_traits@_J_JU?$less@_J@std@@V?$allocator@U?$pair@$$CB_J_J@std@@@2@$0A@@std@@@2@PAU342@@Z ENDP ; std::_Tree<std::_Tmap_traits<__int64,__int64,std::less<__int64>,std::allocator<std::pair<__int64 const ,__int64> >,0> >::_Parent
_TEXT	ENDS
PUBLIC	?_Right@?$_Tree@V?$_Tmap_traits@_J_JU?$less@_J@std@@V?$allocator@U?$pair@$$CB_J_J@std@@@2@$0A@@std@@@std@@KAAAPAU_Node@?$_Tree_nod@V?$_Tmap_traits@_J_JU?$less@_J@std@@V?$allocator@U?$pair@$$CB_J_J@std@@@2@$0A@@std@@@2@PAU342@@Z ; std::_Tree<std::_Tmap_traits<__int64,__int64,std::less<__int64>,std::allocator<std::pair<__int64 const ,__int64> >,0> >::_Right
; Function compile flags: /Ogty
;	COMDAT ?_Right@?$_Tree@V?$_Tmap_traits@_J_JU?$less@_J@std@@V?$allocator@U?$pair@$$CB_J_J@std@@@2@$0A@@std@@@std@@KAAAPAU_Node@?$_Tree_nod@V?$_Tmap_traits@_J_JU?$less@_J@std@@V?$allocator@U?$pair@$$CB_J_J@std@@@2@$0A@@std@@@2@PAU342@@Z
_TEXT	SEGMENT
__Pnode$ = 8						; size = 4
?_Right@?$_Tree@V?$_Tmap_traits@_J_JU?$less@_J@std@@V?$allocator@U?$pair@$$CB_J_J@std@@@2@$0A@@std@@@std@@KAAAPAU_Node@?$_Tree_nod@V?$_Tmap_traits@_J_JU?$less@_J@std@@V?$allocator@U?$pair@$$CB_J_J@std@@@2@$0A@@std@@@2@PAU342@@Z PROC NEAR ; std::_Tree<std::_Tmap_traits<__int64,__int64,std::less<__int64>,std::allocator<std::pair<__int64 const ,__int64> >,0> >::_Right, COMDAT

; 157  : 		return ((_Nodepref)(*_Pnode)._Right);

  00000	8b 44 24 04	 mov	 eax, DWORD PTR __Pnode$[esp-4]
  00004	83 c0 08	 add	 eax, 8

; 158  : 		}

  00007	c3		 ret	 0
?_Right@?$_Tree@V?$_Tmap_traits@_J_JU?$less@_J@std@@V?$allocator@U?$pair@$$CB_J_J@std@@@2@$0A@@std@@@std@@KAAAPAU_Node@?$_Tree_nod@V?$_Tmap_traits@_J_JU?$less@_J@std@@V?$allocator@U?$pair@$$CB_J_J@std@@@2@$0A@@std@@@2@PAU342@@Z ENDP ; std::_Tree<std::_Tmap_traits<__int64,__int64,std::less<__int64>,std::allocator<std::pair<__int64 const ,__int64> >,0> >::_Right
_TEXT	ENDS
PUBLIC	?deallocate@?$allocator@U_Node@?$_Tree_nod@V?$_Tmap_traits@_J_JU?$less@_J@std@@V?$allocator@U?$pair@$$CB_J_J@std@@@2@$0A@@std@@@std@@@std@@QAEXPAU_Node@?$_Tree_nod@V?$_Tmap_traits@_J_JU?$less@_J@std@@V?$allocator@U?$pair@$$CB_J_J@std@@@2@$0A@@std@@@2@I@Z ; std::allocator<std::_Tree_nod<std::_Tmap_traits<__int64,__int64,std::less<__int64>,std::allocator<std::pair<__int64 const ,__int64> >,0> >::_Node>::deallocate
; Function compile flags: /Ogty
; File c:\program files (x86)\microsoft visual studio .net 2003\vc7\include\xmemory
;	COMDAT ?deallocate@?$allocator@U_Node@?$_Tree_nod@V?$_Tmap_traits@_J_JU?$less@_J@std@@V?$allocator@U?$pair@$$CB_J_J@std@@@2@$0A@@std@@@std@@@std@@QAEXPAU_Node@?$_Tree_nod@V?$_Tmap_traits@_J_JU?$less@_J@std@@V?$allocator@U?$pair@$$CB_J_J@std@@@2@$0A@@std@@@2@I@Z
_TEXT	SEGMENT
__Ptr$ = 8						; size = 4
___formal$ = 12						; size = 4
?deallocate@?$allocator@U_Node@?$_Tree_nod@V?$_Tmap_traits@_J_JU?$less@_J@std@@V?$allocator@U?$pair@$$CB_J_J@std@@@2@$0A@@std@@@std@@@std@@QAEXPAU_Node@?$_Tree_nod@V?$_Tmap_traits@_J_JU?$less@_J@std@@V?$allocator@U?$pair@$$CB_J_J@std@@@2@$0A@@std@@@2@I@Z PROC NEAR ; std::allocator<std::_Tree_nod<std::_Tmap_traits<__int64,__int64,std::less<__int64>,std::allocator<std::pair<__int64 const ,__int64> >,0> >::_Node>::deallocate, COMDAT
; _this$ = ecx

; 132  : 		operator delete(_Ptr);

  00000	8b 44 24 04	 mov	 eax, DWORD PTR __Ptr$[esp-4]
  00004	50		 push	 eax
  00005	e8 00 00 00 00	 call	 ??3@YAXPAX@Z		; operator delete
  0000a	59		 pop	 ecx

; 133  : 		}

  0000b	c2 08 00	 ret	 8
?deallocate@?$allocator@U_Node@?$_Tree_nod@V?$_Tmap_traits@_J_JU?$less@_J@std@@V?$allocator@U?$pair@$$CB_J_J@std@@@2@$0A@@std@@@std@@@std@@QAEXPAU_Node@?$_Tree_nod@V?$_Tmap_traits@_J_JU?$less@_J@std@@V?$allocator@U?$pair@$$CB_J_J@std@@@2@$0A@@std@@@2@I@Z ENDP ; std::allocator<std::_Tree_nod<std::_Tmap_traits<__int64,__int64,std::less<__int64>,std::allocator<std::pair<__int64 const ,__int64> >,0> >::_Node>::deallocate
_TEXT	ENDS
PUBLIC	?_Isnil@?$_Tree@V?$_Tmap_traits@_JUtagAGGRO@@U?$less@_J@std@@V?$allocator@U?$pair@$$CB_JUtagAGGRO@@@std@@@3@$0A@@std@@@std@@KAAADPAU_Node@?$_Tree_nod@V?$_Tmap_traits@_JUtagAGGRO@@U?$less@_J@std@@V?$allocator@U?$pair@$$CB_JUtagAGGRO@@@std@@@3@$0A@@std@@@2@@Z ; std::_Tree<std::_Tmap_traits<__int64,tagAGGRO,std::less<__int64>,std::allocator<std::pair<__int64 const ,tagAGGRO> >,0> >::_Isnil
; Function compile flags: /Ogty
; File c:\program files (x86)\microsoft visual studio .net 2003\vc7\include\xtree
;	COMDAT ?_Isnil@?$_Tree@V?$_Tmap_traits@_JUtagAGGRO@@U?$less@_J@std@@V?$allocator@U?$pair@$$CB_JUtagAGGRO@@@std@@@3@$0A@@std@@@std@@KAAADPAU_Node@?$_Tree_nod@V?$_Tmap_traits@_JUtagAGGRO@@U?$less@_J@std@@V?$allocator@U?$pair@$$CB_JUtagAGGRO@@@std@@@3@$0A@@std@@@2@@Z
_TEXT	SEGMENT
__Pnode$ = 8						; size = 4
?_Isnil@?$_Tree@V?$_Tmap_traits@_JUtagAGGRO@@U?$less@_J@std@@V?$allocator@U?$pair@$$CB_JUtagAGGRO@@@std@@@3@$0A@@std@@@std@@KAAADPAU_Node@?$_Tree_nod@V?$_Tmap_traits@_JUtagAGGRO@@U?$less@_J@std@@V?$allocator@U?$pair@$$CB_JUtagAGGRO@@@std@@@3@$0A@@std@@@2@@Z PROC NEAR ; std::_Tree<std::_Tmap_traits<__int64,tagAGGRO,std::less<__int64>,std::allocator<std::pair<__int64 const ,tagAGGRO> >,0> >::_Isnil, COMDAT

; 137  : 		return ((_Charref)(*_Pnode)._Isnil);

  00000	8b 44 24 04	 mov	 eax, DWORD PTR __Pnode$[esp-4]
  00004	83 c0 31	 add	 eax, 49			; 00000031H

; 138  : 		}

  00007	c3		 ret	 0
?_Isnil@?$_Tree@V?$_Tmap_traits@_JUtagAGGRO@@U?$less@_J@std@@V?$allocator@U?$pair@$$CB_JUtagAGGRO@@@std@@@3@$0A@@std@@@std@@KAAADPAU_Node@?$_Tree_nod@V?$_Tmap_traits@_JUtagAGGRO@@U?$less@_J@std@@V?$allocator@U?$pair@$$CB_JUtagAGGRO@@@std@@@3@$0A@@std@@@2@@Z ENDP ; std::_Tree<std::_Tmap_traits<__int64,tagAGGRO,std::less<__int64>,std::allocator<std::pair<__int64 const ,tagAGGRO> >,0> >::_Isnil
_TEXT	ENDS
PUBLIC	?_Left@?$_Tree@V?$_Tmap_traits@_JUtagAGGRO@@U?$less@_J@std@@V?$allocator@U?$pair@$$CB_JUtagAGGRO@@@std@@@3@$0A@@std@@@std@@KAAAPAU_Node@?$_Tree_nod@V?$_Tmap_traits@_JUtagAGGRO@@U?$less@_J@std@@V?$allocator@U?$pair@$$CB_JUtagAGGRO@@@std@@@3@$0A@@std@@@2@PAU342@@Z ; std::_Tree<std::_Tmap_traits<__int64,tagAGGRO,std::less<__int64>,std::allocator<std::pair<__int64 const ,tagAGGRO> >,0> >::_Left
; Function compile flags: /Ogty
;	COMDAT ?_Left@?$_Tree@V?$_Tmap_traits@_JUtagAGGRO@@U?$less@_J@std@@V?$allocator@U?$pair@$$CB_JUtagAGGRO@@@std@@@3@$0A@@std@@@std@@KAAAPAU_Node@?$_Tree_nod@V?$_Tmap_traits@_JUtagAGGRO@@U?$less@_J@std@@V?$allocator@U?$pair@$$CB_JUtagAGGRO@@@std@@@3@$0A@@std@@@2@PAU342@@Z
_TEXT	SEGMENT
__Pnode$ = 8						; size = 4
?_Left@?$_Tree@V?$_Tmap_traits@_JUtagAGGRO@@U?$less@_J@std@@V?$allocator@U?$pair@$$CB_JUtagAGGRO@@@std@@@3@$0A@@std@@@std@@KAAAPAU_Node@?$_Tree_nod@V?$_Tmap_traits@_JUtagAGGRO@@U?$less@_J@std@@V?$allocator@U?$pair@$$CB_JUtagAGGRO@@@std@@@3@$0A@@std@@@2@PAU342@@Z PROC NEAR ; std::_Tree<std::_Tmap_traits<__int64,tagAGGRO,std::less<__int64>,std::allocator<std::pair<__int64 const ,tagAGGRO> >,0> >::_Left, COMDAT

; 147  : 		return ((_Nodepref)(*_Pnode)._Left);

  00000	8b 44 24 04	 mov	 eax, DWORD PTR __Pnode$[esp-4]

; 148  : 		}

  00004	c3		 ret	 0
?_Left@?$_Tree@V?$_Tmap_traits@_JUtagAGGRO@@U?$less@_J@std@@V?$allocator@U?$pair@$$CB_JUtagAGGRO@@@std@@@3@$0A@@std@@@std@@KAAAPAU_Node@?$_Tree_nod@V?$_Tmap_traits@_JUtagAGGRO@@U?$less@_J@std@@V?$allocator@U?$pair@$$CB_JUtagAGGRO@@@std@@@3@$0A@@std@@@2@PAU342@@Z ENDP ; std::_Tree<std::_Tmap_traits<__int64,tagAGGRO,std::less<__int64>,std::allocator<std::pair<__int64 const ,tagAGGRO> >,0> >::_Left
_TEXT	ENDS
PUBLIC	?_Parent@?$_Tree@V?$_Tmap_traits@_JUtagAGGRO@@U?$less@_J@std@@V?$allocator@U?$pair@$$CB_JUtagAGGRO@@@std@@@3@$0A@@std@@@std@@KAAAPAU_Node@?$_Tree_nod@V?$_Tmap_traits@_JUtagAGGRO@@U?$less@_J@std@@V?$allocator@U?$pair@$$CB_JUtagAGGRO@@@std@@@3@$0A@@std@@@2@PAU342@@Z ; std::_Tree<std::_Tmap_traits<__int64,tagAGGRO,std::less<__int64>,std::allocator<std::pair<__int64 const ,tagAGGRO> >,0> >::_Parent
; Function compile flags: /Ogty
;	COMDAT ?_Parent@?$_Tree@V?$_Tmap_traits@_JUtagAGGRO@@U?$less@_J@std@@V?$allocator@U?$pair@$$CB_JUtagAGGRO@@@std@@@3@$0A@@std@@@std@@KAAAPAU_Node@?$_Tree_nod@V?$_Tmap_traits@_JUtagAGGRO@@U?$less@_J@std@@V?$allocator@U?$pair@$$CB_JUtagAGGRO@@@std@@@3@$0A@@std@@@2@PAU342@@Z
_TEXT	SEGMENT
__Pnode$ = 8						; size = 4
?_Parent@?$_Tree@V?$_Tmap_traits@_JUtagAGGRO@@U?$less@_J@std@@V?$allocator@U?$pair@$$CB_JUtagAGGRO@@@std@@@3@$0A@@std@@@std@@KAAAPAU_Node@?$_Tree_nod@V?$_Tmap_traits@_JUtagAGGRO@@U?$less@_J@std@@V?$allocator@U?$pair@$$CB_JUtagAGGRO@@@std@@@3@$0A@@std@@@2@PAU342@@Z PROC NEAR ; std::_Tree<std::_Tmap_traits<__int64,tagAGGRO,std::less<__int64>,std::allocator<std::pair<__int64 const ,tagAGGRO> >,0> >::_Parent, COMDAT

; 152  : 		return ((_Nodepref)(*_Pnode)._Parent);

  00000	8b 44 24 04	 mov	 eax, DWORD PTR __Pnode$[esp-4]
  00004	83 c0 04	 add	 eax, 4

; 153  : 		}

  00007	c3		 ret	 0
?_Parent@?$_Tree@V?$_Tmap_traits@_JUtagAGGRO@@U?$less@_J@std@@V?$allocator@U?$pair@$$CB_JUtagAGGRO@@@std@@@3@$0A@@std@@@std@@KAAAPAU_Node@?$_Tree_nod@V?$_Tmap_traits@_JUtagAGGRO@@U?$less@_J@std@@V?$allocator@U?$pair@$$CB_JUtagAGGRO@@@std@@@3@$0A@@std@@@2@PAU342@@Z ENDP ; std::_Tree<std::_Tmap_traits<__int64,tagAGGRO,std::less<__int64>,std::allocator<std::pair<__int64 const ,tagAGGRO> >,0> >::_Parent
_TEXT	ENDS
PUBLIC	?_Right@?$_Tree@V?$_Tmap_traits@_JUtagAGGRO@@U?$less@_J@std@@V?$allocator@U?$pair@$$CB_JUtagAGGRO@@@std@@@3@$0A@@std@@@std@@KAAAPAU_Node@?$_Tree_nod@V?$_Tmap_traits@_JUtagAGGRO@@U?$less@_J@std@@V?$allocator@U?$pair@$$CB_JUtagAGGRO@@@std@@@3@$0A@@std@@@2@PAU342@@Z ; std::_Tree<std::_Tmap_traits<__int64,tagAGGRO,std::less<__int64>,std::allocator<std::pair<__int64 const ,tagAGGRO> >,0> >::_Right
; Function compile flags: /Ogty
;	COMDAT ?_Right@?$_Tree@V?$_Tmap_traits@_JUtagAGGRO@@U?$less@_J@std@@V?$allocator@U?$pair@$$CB_JUtagAGGRO@@@std@@@3@$0A@@std@@@std@@KAAAPAU_Node@?$_Tree_nod@V?$_Tmap_traits@_JUtagAGGRO@@U?$less@_J@std@@V?$allocator@U?$pair@$$CB_JUtagAGGRO@@@std@@@3@$0A@@std@@@2@PAU342@@Z
_TEXT	SEGMENT
__Pnode$ = 8						; size = 4
?_Right@?$_Tree@V?$_Tmap_traits@_JUtagAGGRO@@U?$less@_J@std@@V?$allocator@U?$pair@$$CB_JUtagAGGRO@@@std@@@3@$0A@@std@@@std@@KAAAPAU_Node@?$_Tree_nod@V?$_Tmap_traits@_JUtagAGGRO@@U?$less@_J@std@@V?$allocator@U?$pair@$$CB_JUtagAGGRO@@@std@@@3@$0A@@std@@@2@PAU342@@Z PROC NEAR ; std::_Tree<std::_Tmap_traits<__int64,tagAGGRO,std::less<__int64>,std::allocator<std::pair<__int64 const ,tagAGGRO> >,0> >::_Right, COMDAT

; 157  : 		return ((_Nodepref)(*_Pnode)._Right);

  00000	8b 44 24 04	 mov	 eax, DWORD PTR __Pnode$[esp-4]
  00004	83 c0 08	 add	 eax, 8

; 158  : 		}

  00007	c3		 ret	 0
?_Right@?$_Tree@V?$_Tmap_traits@_JUtagAGGRO@@U?$less@_J@std@@V?$allocator@U?$pair@$$CB_JUtagAGGRO@@@std@@@3@$0A@@std@@@std@@KAAAPAU_Node@?$_Tree_nod@V?$_Tmap_traits@_JUtagAGGRO@@U?$less@_J@std@@V?$allocator@U?$pair@$$CB_JUtagAGGRO@@@std@@@3@$0A@@std@@@2@PAU342@@Z ENDP ; std::_Tree<std::_Tmap_traits<__int64,tagAGGRO,std::less<__int64>,std::allocator<std::pair<__int64 const ,tagAGGRO> >,0> >::_Right
_TEXT	ENDS
PUBLIC	?deallocate@?$allocator@U_Node@?$_Tree_nod@V?$_Tmap_traits@_JUtagAGGRO@@U?$less@_J@std@@V?$allocator@U?$pair@$$CB_JUtagAGGRO@@@std@@@3@$0A@@std@@@std@@@std@@QAEXPAU_Node@?$_Tree_nod@V?$_Tmap_traits@_JUtagAGGRO@@U?$less@_J@std@@V?$allocator@U?$pair@$$CB_JUtagAGGRO@@@std@@@3@$0A@@std@@@2@I@Z ; std::allocator<std::_Tree_nod<std::_Tmap_traits<__int64,tagAGGRO,std::less<__int64>,std::allocator<std::pair<__int64 const ,tagAGGRO> >,0> >::_Node>::deallocate
; Function compile flags: /Ogty
; File c:\program files (x86)\microsoft visual studio .net 2003\vc7\include\xmemory
;	COMDAT ?deallocate@?$allocator@U_Node@?$_Tree_nod@V?$_Tmap_traits@_JUtagAGGRO@@U?$less@_J@std@@V?$allocator@U?$pair@$$CB_JUtagAGGRO@@@std@@@3@$0A@@std@@@std@@@std@@QAEXPAU_Node@?$_Tree_nod@V?$_Tmap_traits@_JUtagAGGRO@@U?$less@_J@std@@V?$allocator@U?$pair@$$CB_JUtagAGGRO@@@std@@@3@$0A@@std@@@2@I@Z
_TEXT	SEGMENT
__Ptr$ = 8						; size = 4
___formal$ = 12						; size = 4
?deallocate@?$allocator@U_Node@?$_Tree_nod@V?$_Tmap_traits@_JUtagAGGRO@@U?$less@_J@std@@V?$allocator@U?$pair@$$CB_JUtagAGGRO@@@std@@@3@$0A@@std@@@std@@@std@@QAEXPAU_Node@?$_Tree_nod@V?$_Tmap_traits@_JUtagAGGRO@@U?$less@_J@std@@V?$allocator@U?$pair@$$CB_JUtagAGGRO@@@std@@@3@$0A@@std@@@2@I@Z PROC NEAR ; std::allocator<std::_Tree_nod<std::_Tmap_traits<__int64,tagAGGRO,std::less<__int64>,std::allocator<std::pair<__int64 const ,tagAGGRO> >,0> >::_Node>::deallocate, COMDAT
; _this$ = ecx

; 132  : 		operator delete(_Ptr);

  00000	8b 44 24 04	 mov	 eax, DWORD PTR __Ptr$[esp-4]
  00004	50		 push	 eax
  00005	e8 00 00 00 00	 call	 ??3@YAXPAX@Z		; operator delete
  0000a	59		 pop	 ecx

; 133  : 		}

  0000b	c2 08 00	 ret	 8
?deallocate@?$allocator@U_Node@?$_Tree_nod@V?$_Tmap_traits@_JUtagAGGRO@@U?$less@_J@std@@V?$allocator@U?$pair@$$CB_JUtagAGGRO@@@std@@@3@$0A@@std@@@std@@@std@@QAEXPAU_Node@?$_Tree_nod@V?$_Tmap_traits@_JUtagAGGRO@@U?$less@_J@std@@V?$allocator@U?$pair@$$CB_JUtagAGGRO@@@std@@@3@$0A@@std@@@2@I@Z ENDP ; std::allocator<std::_Tree_nod<std::_Tmap_traits<__int64,tagAGGRO,std::less<__int64>,std::allocator<std::pair<__int64 const ,tagAGGRO> >,0> >::_Node>::deallocate
_TEXT	ENDS
PUBLIC	?_Isnil@?$_Tree@V?$_Tmap_traits@EPAVCTItem@@U?$less@E@std@@V?$allocator@U?$pair@$$CBEPAVCTItem@@@std@@@3@$0A@@std@@@std@@KAAADPAU_Node@?$_Tree_nod@V?$_Tmap_traits@EPAVCTItem@@U?$less@E@std@@V?$allocator@U?$pair@$$CBEPAVCTItem@@@std@@@3@$0A@@std@@@2@@Z ; std::_Tree<std::_Tmap_traits<unsigned char,CTItem *,std::less<unsigned char>,std::allocator<std::pair<unsigned char const ,CTItem *> >,0> >::_Isnil
; Function compile flags: /Ogty
; File c:\program files (x86)\microsoft visual studio .net 2003\vc7\include\xtree
;	COMDAT ?_Isnil@?$_Tree@V?$_Tmap_traits@EPAVCTItem@@U?$less@E@std@@V?$allocator@U?$pair@$$CBEPAVCTItem@@@std@@@3@$0A@@std@@@std@@KAAADPAU_Node@?$_Tree_nod@V?$_Tmap_traits@EPAVCTItem@@U?$less@E@std@@V?$allocator@U?$pair@$$CBEPAVCTItem@@@std@@@3@$0A@@std@@@2@@Z
_TEXT	SEGMENT
__Pnode$ = 8						; size = 4
?_Isnil@?$_Tree@V?$_Tmap_traits@EPAVCTItem@@U?$less@E@std@@V?$allocator@U?$pair@$$CBEPAVCTItem@@@std@@@3@$0A@@std@@@std@@KAAADPAU_Node@?$_Tree_nod@V?$_Tmap_traits@EPAVCTItem@@U?$less@E@std@@V?$allocator@U?$pair@$$CBEPAVCTItem@@@std@@@3@$0A@@std@@@2@@Z PROC NEAR ; std::_Tree<std::_Tmap_traits<unsigned char,CTItem *,std::less<unsigned char>,std::allocator<std::pair<unsigned char const ,CTItem *> >,0> >::_Isnil, COMDAT

; 137  : 		return ((_Charref)(*_Pnode)._Isnil);

  00000	8b 44 24 04	 mov	 eax, DWORD PTR __Pnode$[esp-4]
  00004	83 c0 15	 add	 eax, 21			; 00000015H

; 138  : 		}

  00007	c3		 ret	 0
?_Isnil@?$_Tree@V?$_Tmap_traits@EPAVCTItem@@U?$less@E@std@@V?$allocator@U?$pair@$$CBEPAVCTItem@@@std@@@3@$0A@@std@@@std@@KAAADPAU_Node@?$_Tree_nod@V?$_Tmap_traits@EPAVCTItem@@U?$less@E@std@@V?$allocator@U?$pair@$$CBEPAVCTItem@@@std@@@3@$0A@@std@@@2@@Z ENDP ; std::_Tree<std::_Tmap_traits<unsigned char,CTItem *,std::less<unsigned char>,std::allocator<std::pair<unsigned char const ,CTItem *> >,0> >::_Isnil
_TEXT	ENDS
PUBLIC	?_Left@?$_Tree@V?$_Tmap_traits@EPAVCTItem@@U?$less@E@std@@V?$allocator@U?$pair@$$CBEPAVCTItem@@@std@@@3@$0A@@std@@@std@@KAAAPAU_Node@?$_Tree_nod@V?$_Tmap_traits@EPAVCTItem@@U?$less@E@std@@V?$allocator@U?$pair@$$CBEPAVCTItem@@@std@@@3@$0A@@std@@@2@PAU342@@Z ; std::_Tree<std::_Tmap_traits<unsigned char,CTItem *,std::less<unsigned char>,std::allocator<std::pair<unsigned char const ,CTItem *> >,0> >::_Left
; Function compile flags: /Ogty
;	COMDAT ?_Left@?$_Tree@V?$_Tmap_traits@EPAVCTItem@@U?$less@E@std@@V?$allocator@U?$pair@$$CBEPAVCTItem@@@std@@@3@$0A@@std@@@std@@KAAAPAU_Node@?$_Tree_nod@V?$_Tmap_traits@EPAVCTItem@@U?$less@E@std@@V?$allocator@U?$pair@$$CBEPAVCTItem@@@std@@@3@$0A@@std@@@2@PAU342@@Z
_TEXT	SEGMENT
__Pnode$ = 8						; size = 4
?_Left@?$_Tree@V?$_Tmap_traits@EPAVCTItem@@U?$less@E@std@@V?$allocator@U?$pair@$$CBEPAVCTItem@@@std@@@3@$0A@@std@@@std@@KAAAPAU_Node@?$_Tree_nod@V?$_Tmap_traits@EPAVCTItem@@U?$less@E@std@@V?$allocator@U?$pair@$$CBEPAVCTItem@@@std@@@3@$0A@@std@@@2@PAU342@@Z PROC NEAR ; std::_Tree<std::_Tmap_traits<unsigned char,CTItem *,std::less<unsigned char>,std::allocator<std::pair<unsigned char const ,CTItem *> >,0> >::_Left, COMDAT

; 147  : 		return ((_Nodepref)(*_Pnode)._Left);

  00000	8b 44 24 04	 mov	 eax, DWORD PTR __Pnode$[esp-4]

; 148  : 		}

  00004	c3		 ret	 0
?_Left@?$_Tree@V?$_Tmap_traits@EPAVCTItem@@U?$less@E@std@@V?$allocator@U?$pair@$$CBEPAVCTItem@@@std@@@3@$0A@@std@@@std@@KAAAPAU_Node@?$_Tree_nod@V?$_Tmap_traits@EPAVCTItem@@U?$less@E@std@@V?$allocator@U?$pair@$$CBEPAVCTItem@@@std@@@3@$0A@@std@@@2@PAU342@@Z ENDP ; std::_Tree<std::_Tmap_traits<unsigned char,CTItem *,std::less<unsigned char>,std::allocator<std::pair<unsigned char const ,CTItem *> >,0> >::_Left
_TEXT	ENDS
PUBLIC	?_Parent@?$_Tree@V?$_Tmap_traits@EPAVCTItem@@U?$less@E@std@@V?$allocator@U?$pair@$$CBEPAVCTItem@@@std@@@3@$0A@@std@@@std@@KAAAPAU_Node@?$_Tree_nod@V?$_Tmap_traits@EPAVCTItem@@U?$less@E@std@@V?$allocator@U?$pair@$$CBEPAVCTItem@@@std@@@3@$0A@@std@@@2@PAU342@@Z ; std::_Tree<std::_Tmap_traits<unsigned char,CTItem *,std::less<unsigned char>,std::allocator<std::pair<unsigned char const ,CTItem *> >,0> >::_Parent
; Function compile flags: /Ogty
;	COMDAT ?_Parent@?$_Tree@V?$_Tmap_traits@EPAVCTItem@@U?$less@E@std@@V?$allocator@U?$pair@$$CBEPAVCTItem@@@std@@@3@$0A@@std@@@std@@KAAAPAU_Node@?$_Tree_nod@V?$_Tmap_traits@EPAVCTItem@@U?$less@E@std@@V?$allocator@U?$pair@$$CBEPAVCTItem@@@std@@@3@$0A@@std@@@2@PAU342@@Z
_TEXT	SEGMENT
__Pnode$ = 8						; size = 4
?_Parent@?$_Tree@V?$_Tmap_traits@EPAVCTItem@@U?$less@E@std@@V?$allocator@U?$pair@$$CBEPAVCTItem@@@std@@@3@$0A@@std@@@std@@KAAAPAU_Node@?$_Tree_nod@V?$_Tmap_traits@EPAVCTItem@@U?$less@E@std@@V?$allocator@U?$pair@$$CBEPAVCTItem@@@std@@@3@$0A@@std@@@2@PAU342@@Z PROC NEAR ; std::_Tree<std::_Tmap_traits<unsigned char,CTItem *,std::less<unsigned char>,std::allocator<std::pair<unsigned char const ,CTItem *> >,0> >::_Parent, COMDAT

; 152  : 		return ((_Nodepref)(*_Pnode)._Parent);

  00000	8b 44 24 04	 mov	 eax, DWORD PTR __Pnode$[esp-4]
  00004	83 c0 04	 add	 eax, 4

; 153  : 		}

  00007	c3		 ret	 0
?_Parent@?$_Tree@V?$_Tmap_traits@EPAVCTItem@@U?$less@E@std@@V?$allocator@U?$pair@$$CBEPAVCTItem@@@std@@@3@$0A@@std@@@std@@KAAAPAU_Node@?$_Tree_nod@V?$_Tmap_traits@EPAVCTItem@@U?$less@E@std@@V?$allocator@U?$pair@$$CBEPAVCTItem@@@std@@@3@$0A@@std@@@2@PAU342@@Z ENDP ; std::_Tree<std::_Tmap_traits<unsigned char,CTItem *,std::less<unsigned char>,std::allocator<std::pair<unsigned char const ,CTItem *> >,0> >::_Parent
_TEXT	ENDS
PUBLIC	?_Right@?$_Tree@V?$_Tmap_traits@EPAVCTItem@@U?$less@E@std@@V?$allocator@U?$pair@$$CBEPAVCTItem@@@std@@@3@$0A@@std@@@std@@KAAAPAU_Node@?$_Tree_nod@V?$_Tmap_traits@EPAVCTItem@@U?$less@E@std@@V?$allocator@U?$pair@$$CBEPAVCTItem@@@std@@@3@$0A@@std@@@2@PAU342@@Z ; std::_Tree<std::_Tmap_traits<unsigned char,CTItem *,std::less<unsigned char>,std::allocator<std::pair<unsigned char const ,CTItem *> >,0> >::_Right
; Function compile flags: /Ogty
;	COMDAT ?_Right@?$_Tree@V?$_Tmap_traits@EPAVCTItem@@U?$less@E@std@@V?$allocator@U?$pair@$$CBEPAVCTItem@@@std@@@3@$0A@@std@@@std@@KAAAPAU_Node@?$_Tree_nod@V?$_Tmap_traits@EPAVCTItem@@U?$less@E@std@@V?$allocator@U?$pair@$$CBEPAVCTItem@@@std@@@3@$0A@@std@@@2@PAU342@@Z
_TEXT	SEGMENT
__Pnode$ = 8						; size = 4
?_Right@?$_Tree@V?$_Tmap_traits@EPAVCTItem@@U?$less@E@std@@V?$allocator@U?$pair@$$CBEPAVCTItem@@@std@@@3@$0A@@std@@@std@@KAAAPAU_Node@?$_Tree_nod@V?$_Tmap_traits@EPAVCTItem@@U?$less@E@std@@V?$allocator@U?$pair@$$CBEPAVCTItem@@@std@@@3@$0A@@std@@@2@PAU342@@Z PROC NEAR ; std::_Tree<std::_Tmap_traits<unsigned char,CTItem *,std::less<unsigned char>,std::allocator<std::pair<unsigned char const ,CTItem *> >,0> >::_Right, COMDAT

; 157  : 		return ((_Nodepref)(*_Pnode)._Right);

  00000	8b 44 24 04	 mov	 eax, DWORD PTR __Pnode$[esp-4]
  00004	83 c0 08	 add	 eax, 8

; 158  : 		}

  00007	c3		 ret	 0
?_Right@?$_Tree@V?$_Tmap_traits@EPAVCTItem@@U?$less@E@std@@V?$allocator@U?$pair@$$CBEPAVCTItem@@@std@@@3@$0A@@std@@@std@@KAAAPAU_Node@?$_Tree_nod@V?$_Tmap_traits@EPAVCTItem@@U?$less@E@std@@V?$allocator@U?$pair@$$CBEPAVCTItem@@@std@@@3@$0A@@std@@@2@PAU342@@Z ENDP ; std::_Tree<std::_Tmap_traits<unsigned char,CTItem *,std::less<unsigned char>,std::allocator<std::pair<unsigned char const ,CTItem *> >,0> >::_Right
_TEXT	ENDS
PUBLIC	?_Myval@?$_Tree@V?$_Tmap_traits@EPAVCTItem@@U?$less@E@std@@V?$allocator@U?$pair@$$CBEPAVCTItem@@@std@@@3@$0A@@std@@@std@@KAAAU?$pair@$$CBEPAVCTItem@@@2@PAU_Node@?$_Tree_nod@V?$_Tmap_traits@EPAVCTItem@@U?$less@E@std@@V?$allocator@U?$pair@$$CBEPAVCTItem@@@std@@@3@$0A@@std@@@2@@Z ; std::_Tree<std::_Tmap_traits<unsigned char,CTItem *,std::less<unsigned char>,std::allocator<std::pair<unsigned char const ,CTItem *> >,0> >::_Myval
; Function compile flags: /Ogty
;	COMDAT ?_Myval@?$_Tree@V?$_Tmap_traits@EPAVCTItem@@U?$less@E@std@@V?$allocator@U?$pair@$$CBEPAVCTItem@@@std@@@3@$0A@@std@@@std@@KAAAU?$pair@$$CBEPAVCTItem@@@2@PAU_Node@?$_Tree_nod@V?$_Tmap_traits@EPAVCTItem@@U?$less@E@std@@V?$allocator@U?$pair@$$CBEPAVCTItem@@@std@@@3@$0A@@std@@@2@@Z
_TEXT	SEGMENT
__Pnode$ = 8						; size = 4
?_Myval@?$_Tree@V?$_Tmap_traits@EPAVCTItem@@U?$less@E@std@@V?$allocator@U?$pair@$$CBEPAVCTItem@@@std@@@3@$0A@@std@@@std@@KAAAU?$pair@$$CBEPAVCTItem@@@2@PAU_Node@?$_Tree_nod@V?$_Tmap_traits@EPAVCTItem@@U?$less@E@std@@V?$allocator@U?$pair@$$CBEPAVCTItem@@@std@@@3@$0A@@std@@@2@@Z PROC NEAR ; std::_Tree<std::_Tmap_traits<unsigned char,CTItem *,std::less<unsigned char>,std::allocator<std::pair<unsigned char const ,CTItem *> >,0> >::_Myval, COMDAT

; 162  : 		return ((_Vref)(*_Pnode)._Myval);

  00000	8b 44 24 04	 mov	 eax, DWORD PTR __Pnode$[esp-4]
  00004	83 c0 0c	 add	 eax, 12			; 0000000cH

; 163  : 		}

  00007	c3		 ret	 0
?_Myval@?$_Tree@V?$_Tmap_traits@EPAVCTItem@@U?$less@E@std@@V?$allocator@U?$pair@$$CBEPAVCTItem@@@std@@@3@$0A@@std@@@std@@KAAAU?$pair@$$CBEPAVCTItem@@@2@PAU_Node@?$_Tree_nod@V?$_Tmap_traits@EPAVCTItem@@U?$less@E@std@@V?$allocator@U?$pair@$$CBEPAVCTItem@@@std@@@3@$0A@@std@@@2@@Z ENDP ; std::_Tree<std::_Tmap_traits<unsigned char,CTItem *,std::less<unsigned char>,std::allocator<std::pair<unsigned char const ,CTItem *> >,0> >::_Myval
_TEXT	ENDS
PUBLIC	?deallocate@?$allocator@U_Node@?$_Tree_nod@V?$_Tmap_traits@EPAVCTItem@@U?$less@E@std@@V?$allocator@U?$pair@$$CBEPAVCTItem@@@std@@@3@$0A@@std@@@std@@@std@@QAEXPAU_Node@?$_Tree_nod@V?$_Tmap_traits@EPAVCTItem@@U?$less@E@std@@V?$allocator@U?$pair@$$CBEPAVCTItem@@@std@@@3@$0A@@std@@@2@I@Z ; std::allocator<std::_Tree_nod<std::_Tmap_traits<unsigned char,CTItem *,std::less<unsigned char>,std::allocator<std::pair<unsigned char const ,CTItem *> >,0> >::_Node>::deallocate
; Function compile flags: /Ogty
; File c:\program files (x86)\microsoft visual studio .net 2003\vc7\include\xmemory
;	COMDAT ?deallocate@?$allocator@U_Node@?$_Tree_nod@V?$_Tmap_traits@EPAVCTItem@@U?$less@E@std@@V?$allocator@U?$pair@$$CBEPAVCTItem@@@std@@@3@$0A@@std@@@std@@@std@@QAEXPAU_Node@?$_Tree_nod@V?$_Tmap_traits@EPAVCTItem@@U?$less@E@std@@V?$allocator@U?$pair@$$CBEPAVCTItem@@@std@@@3@$0A@@std@@@2@I@Z
_TEXT	SEGMENT
__Ptr$ = 8						; size = 4
___formal$ = 12						; size = 4
?deallocate@?$allocator@U_Node@?$_Tree_nod@V?$_Tmap_traits@EPAVCTItem@@U?$less@E@std@@V?$allocator@U?$pair@$$CBEPAVCTItem@@@std@@@3@$0A@@std@@@std@@@std@@QAEXPAU_Node@?$_Tree_nod@V?$_Tmap_traits@EPAVCTItem@@U?$less@E@std@@V?$allocator@U?$pair@$$CBEPAVCTItem@@@std@@@3@$0A@@std@@@2@I@Z PROC NEAR ; std::allocator<std::_Tree_nod<std::_Tmap_traits<unsigned char,CTItem *,std::less<unsigned char>,std::allocator<std::pair<unsigned char const ,CTItem *> >,0> >::_Node>::deallocate, COMDAT
; _this$ = ecx

; 132  : 		operator delete(_Ptr);

  00000	8b 44 24 04	 mov	 eax, DWORD PTR __Ptr$[esp-4]
  00004	50		 push	 eax
  00005	e8 00 00 00 00	 call	 ??3@YAXPAX@Z		; operator delete
  0000a	59		 pop	 ecx

; 133  : 		}

  0000b	c2 08 00	 ret	 8
?deallocate@?$allocator@U_Node@?$_Tree_nod@V?$_Tmap_traits@EPAVCTItem@@U?$less@E@std@@V?$allocator@U?$pair@$$CBEPAVCTItem@@@std@@@3@$0A@@std@@@std@@@std@@QAEXPAU_Node@?$_Tree_nod@V?$_Tmap_traits@EPAVCTItem@@U?$less@E@std@@V?$allocator@U?$pair@$$CBEPAVCTItem@@@std@@@3@$0A@@std@@@2@I@Z ENDP ; std::allocator<std::_Tree_nod<std::_Tmap_traits<unsigned char,CTItem *,std::less<unsigned char>,std::allocator<std::pair<unsigned char const ,CTItem *> >,0> >::_Node>::deallocate
_TEXT	ENDS
PUBLIC	??0const_iterator@?$_Tree@V?$_Tmap_traits@EPAVCTItem@@U?$less@E@std@@V?$allocator@U?$pair@$$CBEPAVCTItem@@@std@@@3@$0A@@std@@@std@@QAE@PAU_Node@?$_Tree_nod@V?$_Tmap_traits@EPAVCTItem@@U?$less@E@std@@V?$allocator@U?$pair@$$CBEPAVCTItem@@@std@@@3@$0A@@std@@@2@@Z ; std::_Tree<std::_Tmap_traits<unsigned char,CTItem *,std::less<unsigned char>,std::allocator<std::pair<unsigned char const ,CTItem *> >,0> >::const_iterator::const_iterator
; Function compile flags: /Ogty
; File c:\program files (x86)\microsoft visual studio .net 2003\vc7\include\xtree
;	COMDAT ??0const_iterator@?$_Tree@V?$_Tmap_traits@EPAVCTItem@@U?$less@E@std@@V?$allocator@U?$pair@$$CBEPAVCTItem@@@std@@@3@$0A@@std@@@std@@QAE@PAU_Node@?$_Tree_nod@V?$_Tmap_traits@EPAVCTItem@@U?$less@E@std@@V?$allocator@U?$pair@$$CBEPAVCTItem@@@std@@@3@$0A@@std@@@2@@Z
_TEXT	SEGMENT
__Pnode$ = 8						; size = 4
??0const_iterator@?$_Tree@V?$_Tmap_traits@EPAVCTItem@@U?$less@E@std@@V?$allocator@U?$pair@$$CBEPAVCTItem@@@std@@@3@$0A@@std@@@std@@QAE@PAU_Node@?$_Tree_nod@V?$_Tmap_traits@EPAVCTItem@@U?$less@E@std@@V?$allocator@U?$pair@$$CBEPAVCTItem@@@std@@@3@$0A@@std@@@2@@Z PROC NEAR ; std::_Tree<std::_Tmap_traits<unsigned char,CTItem *,std::less<unsigned char>,std::allocator<std::pair<unsigned char const ,CTItem *> >,0> >::const_iterator::const_iterator, COMDAT
; _this$ = ecx

; 200  : 			{	// construct with node pointer _Pnode

  00000	8b c1		 mov	 eax, ecx
  00002	8b 4c 24 04	 mov	 ecx, DWORD PTR __Pnode$[esp-4]
  00006	89 08		 mov	 DWORD PTR [eax], ecx

; 201  : 			}

  00008	c2 04 00	 ret	 4
??0const_iterator@?$_Tree@V?$_Tmap_traits@EPAVCTItem@@U?$less@E@std@@V?$allocator@U?$pair@$$CBEPAVCTItem@@@std@@@3@$0A@@std@@@std@@QAE@PAU_Node@?$_Tree_nod@V?$_Tmap_traits@EPAVCTItem@@U?$less@E@std@@V?$allocator@U?$pair@$$CBEPAVCTItem@@@std@@@3@$0A@@std@@@2@@Z ENDP ; std::_Tree<std::_Tmap_traits<unsigned char,CTItem *,std::less<unsigned char>,std::allocator<std::pair<unsigned char const ,CTItem *> >,0> >::const_iterator::const_iterator
_TEXT	ENDS
PUBLIC	??0const_iterator@?$_Tree@V?$_Tmap_traits@GPAVCTSkill@@U?$less@G@std@@V?$allocator@U?$pair@$$CBGPAVCTSkill@@@std@@@3@$0A@@std@@@std@@QAE@PAU_Node@?$_Tree_nod@V?$_Tmap_traits@GPAVCTSkill@@U?$less@G@std@@V?$allocator@U?$pair@$$CBGPAVCTSkill@@@std@@@3@$0A@@std@@@2@@Z ; std::_Tree<std::_Tmap_traits<unsigned short,CTSkill *,std::less<unsigned short>,std::allocator<std::pair<unsigned short const ,CTSkill *> >,0> >::const_iterator::const_iterator
; Function compile flags: /Ogty
;	COMDAT ??0const_iterator@?$_Tree@V?$_Tmap_traits@GPAVCTSkill@@U?$less@G@std@@V?$allocator@U?$pair@$$CBGPAVCTSkill@@@std@@@3@$0A@@std@@@std@@QAE@PAU_Node@?$_Tree_nod@V?$_Tmap_traits@GPAVCTSkill@@U?$less@G@std@@V?$allocator@U?$pair@$$CBGPAVCTSkill@@@std@@@3@$0A@@std@@@2@@Z
_TEXT	SEGMENT
__Pnode$ = 8						; size = 4
??0const_iterator@?$_Tree@V?$_Tmap_traits@GPAVCTSkill@@U?$less@G@std@@V?$allocator@U?$pair@$$CBGPAVCTSkill@@@std@@@3@$0A@@std@@@std@@QAE@PAU_Node@?$_Tree_nod@V?$_Tmap_traits@GPAVCTSkill@@U?$less@G@std@@V?$allocator@U?$pair@$$CBGPAVCTSkill@@@std@@@3@$0A@@std@@@2@@Z PROC NEAR ; std::_Tree<std::_Tmap_traits<unsigned short,CTSkill *,std::less<unsigned short>,std::allocator<std::pair<unsigned short const ,CTSkill *> >,0> >::const_iterator::const_iterator, COMDAT
; _this$ = ecx

; 200  : 			{	// construct with node pointer _Pnode

  00000	8b c1		 mov	 eax, ecx
  00002	8b 4c 24 04	 mov	 ecx, DWORD PTR __Pnode$[esp-4]
  00006	89 08		 mov	 DWORD PTR [eax], ecx

; 201  : 			}

  00008	c2 04 00	 ret	 4
??0const_iterator@?$_Tree@V?$_Tmap_traits@GPAVCTSkill@@U?$less@G@std@@V?$allocator@U?$pair@$$CBGPAVCTSkill@@@std@@@3@$0A@@std@@@std@@QAE@PAU_Node@?$_Tree_nod@V?$_Tmap_traits@GPAVCTSkill@@U?$less@G@std@@V?$allocator@U?$pair@$$CBGPAVCTSkill@@@std@@@3@$0A@@std@@@2@@Z ENDP ; std::_Tree<std::_Tmap_traits<unsigned short,CTSkill *,std::less<unsigned short>,std::allocator<std::pair<unsigned short const ,CTSkill *> >,0> >::const_iterator::const_iterator
_TEXT	ENDS
PUBLIC	?_Min@?$_Tree@V?$_Tmap_traits@GPAVCTSkill@@U?$less@G@std@@V?$allocator@U?$pair@$$CBGPAVCTSkill@@@std@@@3@$0A@@std@@@std@@KAPAU_Node@?$_Tree_nod@V?$_Tmap_traits@GPAVCTSkill@@U?$less@G@std@@V?$allocator@U?$pair@$$CBGPAVCTSkill@@@std@@@3@$0A@@std@@@2@PAU342@@Z ; std::_Tree<std::_Tmap_traits<unsigned short,CTSkill *,std::less<unsigned short>,std::allocator<std::pair<unsigned short const ,CTSkill *> >,0> >::_Min
; Function compile flags: /Ogty
;	COMDAT ?_Min@?$_Tree@V?$_Tmap_traits@GPAVCTSkill@@U?$less@G@std@@V?$allocator@U?$pair@$$CBGPAVCTSkill@@@std@@@3@$0A@@std@@@std@@KAPAU_Node@?$_Tree_nod@V?$_Tmap_traits@GPAVCTSkill@@U?$less@G@std@@V?$allocator@U?$pair@$$CBGPAVCTSkill@@@std@@@3@$0A@@std@@@2@PAU342@@Z
_TEXT	SEGMENT
__Pnode$ = 8						; size = 4
?_Min@?$_Tree@V?$_Tmap_traits@GPAVCTSkill@@U?$less@G@std@@V?$allocator@U?$pair@$$CBGPAVCTSkill@@@std@@@3@$0A@@std@@@std@@KAPAU_Node@?$_Tree_nod@V?$_Tmap_traits@GPAVCTSkill@@U?$less@G@std@@V?$allocator@U?$pair@$$CBGPAVCTSkill@@@std@@@3@$0A@@std@@@2@PAU342@@Z PROC NEAR ; std::_Tree<std::_Tmap_traits<unsigned short,CTSkill *,std::less<unsigned short>,std::allocator<std::pair<unsigned short const ,CTSkill *> >,0> >::_Min, COMDAT

; 1042 : 		while (!_Isnil(_Left(_Pnode)))

  00000	8b 44 24 04	 mov	 eax, DWORD PTR __Pnode$[esp-4]
  00004	8b 08		 mov	 ecx, DWORD PTR [eax]
  00006	8a 51 15	 mov	 dl, BYTE PTR [ecx+21]
  00009	84 d2		 test	 dl, dl
  0000b	75 0e		 jne	 SHORT $L152867
  0000d	8d 49 00	 npad	 3
$L152866:

; 1043 : 			_Pnode = _Left(_Pnode);

  00010	8b c1		 mov	 eax, ecx
  00012	8b 08		 mov	 ecx, DWORD PTR [eax]
  00014	8a 51 15	 mov	 dl, BYTE PTR [ecx+21]
  00017	84 d2		 test	 dl, dl
  00019	74 f5		 je	 SHORT $L152866
$L152867:

; 1044 : 		return (_Pnode);
; 1045 : 		}

  0001b	c3		 ret	 0
?_Min@?$_Tree@V?$_Tmap_traits@GPAVCTSkill@@U?$less@G@std@@V?$allocator@U?$pair@$$CBGPAVCTSkill@@@std@@@3@$0A@@std@@@std@@KAPAU_Node@?$_Tree_nod@V?$_Tmap_traits@GPAVCTSkill@@U?$less@G@std@@V?$allocator@U?$pair@$$CBGPAVCTSkill@@@std@@@3@$0A@@std@@@2@PAU342@@Z ENDP ; std::_Tree<std::_Tmap_traits<unsigned short,CTSkill *,std::less<unsigned short>,std::allocator<std::pair<unsigned short const ,CTSkill *> >,0> >::_Min
_TEXT	ENDS
PUBLIC	?_Min@?$_Tree@V?$_Tmap_traits@EPAVCTItem@@U?$less@E@std@@V?$allocator@U?$pair@$$CBEPAVCTItem@@@std@@@3@$0A@@std@@@std@@KAPAU_Node@?$_Tree_nod@V?$_Tmap_traits@EPAVCTItem@@U?$less@E@std@@V?$allocator@U?$pair@$$CBEPAVCTItem@@@std@@@3@$0A@@std@@@2@PAU342@@Z ; std::_Tree<std::_Tmap_traits<unsigned char,CTItem *,std::less<unsigned char>,std::allocator<std::pair<unsigned char const ,CTItem *> >,0> >::_Min
; Function compile flags: /Ogty
;	COMDAT ?_Min@?$_Tree@V?$_Tmap_traits@EPAVCTItem@@U?$less@E@std@@V?$allocator@U?$pair@$$CBEPAVCTItem@@@std@@@3@$0A@@std@@@std@@KAPAU_Node@?$_Tree_nod@V?$_Tmap_traits@EPAVCTItem@@U?$less@E@std@@V?$allocator@U?$pair@$$CBEPAVCTItem@@@std@@@3@$0A@@std@@@2@PAU342@@Z
_TEXT	SEGMENT
__Pnode$ = 8						; size = 4
?_Min@?$_Tree@V?$_Tmap_traits@EPAVCTItem@@U?$less@E@std@@V?$allocator@U?$pair@$$CBEPAVCTItem@@@std@@@3@$0A@@std@@@std@@KAPAU_Node@?$_Tree_nod@V?$_Tmap_traits@EPAVCTItem@@U?$less@E@std@@V?$allocator@U?$pair@$$CBEPAVCTItem@@@std@@@3@$0A@@std@@@2@PAU342@@Z PROC NEAR ; std::_Tree<std::_Tmap_traits<unsigned char,CTItem *,std::less<unsigned char>,std::allocator<std::pair<unsigned char const ,CTItem *> >,0> >::_Min, COMDAT

; 1042 : 		while (!_Isnil(_Left(_Pnode)))

  00000	8b 44 24 04	 mov	 eax, DWORD PTR __Pnode$[esp-4]
  00004	8b 08		 mov	 ecx, DWORD PTR [eax]
  00006	8a 51 15	 mov	 dl, BYTE PTR [ecx+21]
  00009	84 d2		 test	 dl, dl
  0000b	75 0e		 jne	 SHORT $L152871
  0000d	8d 49 00	 npad	 3
$L152870:

; 1043 : 			_Pnode = _Left(_Pnode);

  00010	8b c1		 mov	 eax, ecx
  00012	8b 08		 mov	 ecx, DWORD PTR [eax]
  00014	8a 51 15	 mov	 dl, BYTE PTR [ecx+21]
  00017	84 d2		 test	 dl, dl
  00019	74 f5		 je	 SHORT $L152870
$L152871:

; 1044 : 		return (_Pnode);
; 1045 : 		}

  0001b	c3		 ret	 0
?_Min@?$_Tree@V?$_Tmap_traits@EPAVCTItem@@U?$less@E@std@@V?$allocator@U?$pair@$$CBEPAVCTItem@@@std@@@3@$0A@@std@@@std@@KAPAU_Node@?$_Tree_nod@V?$_Tmap_traits@EPAVCTItem@@U?$less@E@std@@V?$allocator@U?$pair@$$CBEPAVCTItem@@@std@@@3@$0A@@std@@@2@PAU342@@Z ENDP ; std::_Tree<std::_Tmap_traits<unsigned char,CTItem *,std::less<unsigned char>,std::allocator<std::pair<unsigned char const ,CTItem *> >,0> >::_Min
_TEXT	ENDS
PUBLIC	??$_Destroy@U_Node@?$_Tree_nod@V?$_Tmap_traits@KKU?$less@K@std@@V?$allocator@U?$pair@$$CBKK@std@@@2@$0A@@std@@@std@@@std@@YAXPAU_Node@?$_Tree_nod@V?$_Tmap_traits@KKU?$less@K@std@@V?$allocator@U?$pair@$$CBKK@std@@@2@$0A@@std@@@0@@Z ; std::_Destroy<std::_Tree_nod<std::_Tmap_traits<unsigned long,unsigned long,std::less<unsigned long>,std::allocator<std::pair<unsigned long const ,unsigned long> >,0> >::_Node>
; Function compile flags: /Ogty
; File c:\program files (x86)\microsoft visual studio .net 2003\vc7\include\xmemory
;	COMDAT ??$_Destroy@U_Node@?$_Tree_nod@V?$_Tmap_traits@KKU?$less@K@std@@V?$allocator@U?$pair@$$CBKK@std@@@2@$0A@@std@@@std@@@std@@YAXPAU_Node@?$_Tree_nod@V?$_Tmap_traits@KKU?$less@K@std@@V?$allocator@U?$pair@$$CBKK@std@@@2@$0A@@std@@@0@@Z
_TEXT	SEGMENT
__Ptr$ = 8						; size = 4
??$_Destroy@U_Node@?$_Tree_nod@V?$_Tmap_traits@KKU?$less@K@std@@V?$allocator@U?$pair@$$CBKK@std@@@2@$0A@@std@@@std@@@std@@YAXPAU_Node@?$_Tree_nod@V?$_Tmap_traits@KKU?$less@K@std@@V?$allocator@U?$pair@$$CBKK@std@@@2@$0A@@std@@@0@@Z PROC NEAR ; std::_Destroy<std::_Tree_nod<std::_Tmap_traits<unsigned long,unsigned long,std::less<unsigned long>,std::allocator<std::pair<unsigned long const ,unsigned long> >,0> >::_Node>, COMDAT

; 49   : 	_DESTRUCTOR(_Ty, _Ptr);
; 50   : 	}

  00000	c3		 ret	 0
??$_Destroy@U_Node@?$_Tree_nod@V?$_Tmap_traits@KKU?$less@K@std@@V?$allocator@U?$pair@$$CBKK@std@@@2@$0A@@std@@@std@@@std@@YAXPAU_Node@?$_Tree_nod@V?$_Tmap_traits@KKU?$less@K@std@@V?$allocator@U?$pair@$$CBKK@std@@@2@$0A@@std@@@0@@Z ENDP ; std::_Destroy<std::_Tree_nod<std::_Tmap_traits<unsigned long,unsigned long,std::less<unsigned long>,std::allocator<std::pair<unsigned long const ,unsigned long> >,0> >::_Node>
_TEXT	ENDS
PUBLIC	??$_Destroy@U_Node@?$_Tree_nod@V?$_Tmap_traits@GPAVCTSkill@@U?$less@G@std@@V?$allocator@U?$pair@$$CBGPAVCTSkill@@@std@@@3@$0A@@std@@@std@@@std@@YAXPAU_Node@?$_Tree_nod@V?$_Tmap_traits@GPAVCTSkill@@U?$less@G@std@@V?$allocator@U?$pair@$$CBGPAVCTSkill@@@std@@@3@$0A@@std@@@0@@Z ; std::_Destroy<std::_Tree_nod<std::_Tmap_traits<unsigned short,CTSkill *,std::less<unsigned short>,std::allocator<std::pair<unsigned short const ,CTSkill *> >,0> >::_Node>
; Function compile flags: /Ogty
;	COMDAT ??$_Destroy@U_Node@?$_Tree_nod@V?$_Tmap_traits@GPAVCTSkill@@U?$less@G@std@@V?$allocator@U?$pair@$$CBGPAVCTSkill@@@std@@@3@$0A@@std@@@std@@@std@@YAXPAU_Node@?$_Tree_nod@V?$_Tmap_traits@GPAVCTSkill@@U?$less@G@std@@V?$allocator@U?$pair@$$CBGPAVCTSkill@@@std@@@3@$0A@@std@@@0@@Z
_TEXT	SEGMENT
__Ptr$ = 8						; size = 4
??$_Destroy@U_Node@?$_Tree_nod@V?$_Tmap_traits@GPAVCTSkill@@U?$less@G@std@@V?$allocator@U?$pair@$$CBGPAVCTSkill@@@std@@@3@$0A@@std@@@std@@@std@@YAXPAU_Node@?$_Tree_nod@V?$_Tmap_traits@GPAVCTSkill@@U?$less@G@std@@V?$allocator@U?$pair@$$CBGPAVCTSkill@@@std@@@3@$0A@@std@@@0@@Z PROC NEAR ; std::_Destroy<std::_Tree_nod<std::_Tmap_traits<unsigned short,CTSkill *,std::less<unsigned short>,std::allocator<std::pair<unsigned short const ,CTSkill *> >,0> >::_Node>, COMDAT

; 49   : 	_DESTRUCTOR(_Ty, _Ptr);
; 50   : 	}

  00000	c3		 ret	 0
??$_Destroy@U_Node@?$_Tree_nod@V?$_Tmap_traits@GPAVCTSkill@@U?$less@G@std@@V?$allocator@U?$pair@$$CBGPAVCTSkill@@@std@@@3@$0A@@std@@@std@@@std@@YAXPAU_Node@?$_Tree_nod@V?$_Tmap_traits@GPAVCTSkill@@U?$less@G@std@@V?$allocator@U?$pair@$$CBGPAVCTSkill@@@std@@@3@$0A@@std@@@0@@Z ENDP ; std::_Destroy<std::_Tree_nod<std::_Tmap_traits<unsigned short,CTSkill *,std::less<unsigned short>,std::allocator<std::pair<unsigned short const ,CTSkill *> >,0> >::_Node>
_TEXT	ENDS
PUBLIC	??$_Destroy@U_Node@?$_Tree_nod@V?$_Tmap_traits@_J_JU?$less@_J@std@@V?$allocator@U?$pair@$$CB_J_J@std@@@2@$0A@@std@@@std@@@std@@YAXPAU_Node@?$_Tree_nod@V?$_Tmap_traits@_J_JU?$less@_J@std@@V?$allocator@U?$pair@$$CB_J_J@std@@@2@$0A@@std@@@0@@Z ; std::_Destroy<std::_Tree_nod<std::_Tmap_traits<__int64,__int64,std::less<__int64>,std::allocator<std::pair<__int64 const ,__int64> >,0> >::_Node>
; Function compile flags: /Ogty
;	COMDAT ??$_Destroy@U_Node@?$_Tree_nod@V?$_Tmap_traits@_J_JU?$less@_J@std@@V?$allocator@U?$pair@$$CB_J_J@std@@@2@$0A@@std@@@std@@@std@@YAXPAU_Node@?$_Tree_nod@V?$_Tmap_traits@_J_JU?$less@_J@std@@V?$allocator@U?$pair@$$CB_J_J@std@@@2@$0A@@std@@@0@@Z
_TEXT	SEGMENT
__Ptr$ = 8						; size = 4
??$_Destroy@U_Node@?$_Tree_nod@V?$_Tmap_traits@_J_JU?$less@_J@std@@V?$allocator@U?$pair@$$CB_J_J@std@@@2@$0A@@std@@@std@@@std@@YAXPAU_Node@?$_Tree_nod@V?$_Tmap_traits@_J_JU?$less@_J@std@@V?$allocator@U?$pair@$$CB_J_J@std@@@2@$0A@@std@@@0@@Z PROC NEAR ; std::_Destroy<std::_Tree_nod<std::_Tmap_traits<__int64,__int64,std::less<__int64>,std::allocator<std::pair<__int64 const ,__int64> >,0> >::_Node>, COMDAT

; 49   : 	_DESTRUCTOR(_Ty, _Ptr);
; 50   : 	}

  00000	c3		 ret	 0
??$_Destroy@U_Node@?$_Tree_nod@V?$_Tmap_traits@_J_JU?$less@_J@std@@V?$allocator@U?$pair@$$CB_J_J@std@@@2@$0A@@std@@@std@@@std@@YAXPAU_Node@?$_Tree_nod@V?$_Tmap_traits@_J_JU?$less@_J@std@@V?$allocator@U?$pair@$$CB_J_J@std@@@2@$0A@@std@@@0@@Z ENDP ; std::_Destroy<std::_Tree_nod<std::_Tmap_traits<__int64,__int64,std::less<__int64>,std::allocator<std::pair<__int64 const ,__int64> >,0> >::_Node>
_TEXT	ENDS
PUBLIC	??$_Destroy@U_Node@?$_Tree_nod@V?$_Tmap_traits@_JUtagAGGRO@@U?$less@_J@std@@V?$allocator@U?$pair@$$CB_JUtagAGGRO@@@std@@@3@$0A@@std@@@std@@@std@@YAXPAU_Node@?$_Tree_nod@V?$_Tmap_traits@_JUtagAGGRO@@U?$less@_J@std@@V?$allocator@U?$pair@$$CB_JUtagAGGRO@@@std@@@3@$0A@@std@@@0@@Z ; std::_Destroy<std::_Tree_nod<std::_Tmap_traits<__int64,tagAGGRO,std::less<__int64>,std::allocator<std::pair<__int64 const ,tagAGGRO> >,0> >::_Node>
; Function compile flags: /Ogty
;	COMDAT ??$_Destroy@U_Node@?$_Tree_nod@V?$_Tmap_traits@_JUtagAGGRO@@U?$less@_J@std@@V?$allocator@U?$pair@$$CB_JUtagAGGRO@@@std@@@3@$0A@@std@@@std@@@std@@YAXPAU_Node@?$_Tree_nod@V?$_Tmap_traits@_JUtagAGGRO@@U?$less@_J@std@@V?$allocator@U?$pair@$$CB_JUtagAGGRO@@@std@@@3@$0A@@std@@@0@@Z
_TEXT	SEGMENT
__Ptr$ = 8						; size = 4
??$_Destroy@U_Node@?$_Tree_nod@V?$_Tmap_traits@_JUtagAGGRO@@U?$less@_J@std@@V?$allocator@U?$pair@$$CB_JUtagAGGRO@@@std@@@3@$0A@@std@@@std@@@std@@YAXPAU_Node@?$_Tree_nod@V?$_Tmap_traits@_JUtagAGGRO@@U?$less@_J@std@@V?$allocator@U?$pair@$$CB_JUtagAGGRO@@@std@@@3@$0A@@std@@@0@@Z PROC NEAR ; std::_Destroy<std::_Tree_nod<std::_Tmap_traits<__int64,tagAGGRO,std::less<__int64>,std::allocator<std::pair<__int64 const ,tagAGGRO> >,0> >::_Node>, COMDAT

; 49   : 	_DESTRUCTOR(_Ty, _Ptr);
; 50   : 	}

  00000	c3		 ret	 0
??$_Destroy@U_Node@?$_Tree_nod@V?$_Tmap_traits@_JUtagAGGRO@@U?$less@_J@std@@V?$allocator@U?$pair@$$CB_JUtagAGGRO@@@std@@@3@$0A@@std@@@std@@@std@@YAXPAU_Node@?$_Tree_nod@V?$_Tmap_traits@_JUtagAGGRO@@U?$less@_J@std@@V?$allocator@U?$pair@$$CB_JUtagAGGRO@@@std@@@3@$0A@@std@@@0@@Z ENDP ; std::_Destroy<std::_Tree_nod<std::_Tmap_traits<__int64,tagAGGRO,std::less<__int64>,std::allocator<std::pair<__int64 const ,tagAGGRO> >,0> >::_Node>
_TEXT	ENDS
PUBLIC	??$_Destroy@U_Node@?$_Tree_nod@V?$_Tmap_traits@EPAVCTItem@@U?$less@E@std@@V?$allocator@U?$pair@$$CBEPAVCTItem@@@std@@@3@$0A@@std@@@std@@@std@@YAXPAU_Node@?$_Tree_nod@V?$_Tmap_traits@EPAVCTItem@@U?$less@E@std@@V?$allocator@U?$pair@$$CBEPAVCTItem@@@std@@@3@$0A@@std@@@0@@Z ; std::_Destroy<std::_Tree_nod<std::_Tmap_traits<unsigned char,CTItem *,std::less<unsigned char>,std::allocator<std::pair<unsigned char const ,CTItem *> >,0> >::_Node>
; Function compile flags: /Ogty
;	COMDAT ??$_Destroy@U_Node@?$_Tree_nod@V?$_Tmap_traits@EPAVCTItem@@U?$less@E@std@@V?$allocator@U?$pair@$$CBEPAVCTItem@@@std@@@3@$0A@@std@@@std@@@std@@YAXPAU_Node@?$_Tree_nod@V?$_Tmap_traits@EPAVCTItem@@U?$less@E@std@@V?$allocator@U?$pair@$$CBEPAVCTItem@@@std@@@3@$0A@@std@@@0@@Z
_TEXT	SEGMENT
__Ptr$ = 8						; size = 4
??$_Destroy@U_Node@?$_Tree_nod@V?$_Tmap_traits@EPAVCTItem@@U?$less@E@std@@V?$allocator@U?$pair@$$CBEPAVCTItem@@@std@@@3@$0A@@std@@@std@@@std@@YAXPAU_Node@?$_Tree_nod@V?$_Tmap_traits@EPAVCTItem@@U?$less@E@std@@V?$allocator@U?$pair@$$CBEPAVCTItem@@@std@@@3@$0A@@std@@@0@@Z PROC NEAR ; std::_Destroy<std::_Tree_nod<std::_Tmap_traits<unsigned char,CTItem *,std::less<unsigned char>,std::allocator<std::pair<unsigned char const ,CTItem *> >,0> >::_Node>, COMDAT

; 49   : 	_DESTRUCTOR(_Ty, _Ptr);
; 50   : 	}

  00000	c3		 ret	 0
??$_Destroy@U_Node@?$_Tree_nod@V?$_Tmap_traits@EPAVCTItem@@U?$less@E@std@@V?$allocator@U?$pair@$$CBEPAVCTItem@@@std@@@3@$0A@@std@@@std@@@std@@YAXPAU_Node@?$_Tree_nod@V?$_Tmap_traits@EPAVCTItem@@U?$less@E@std@@V?$allocator@U?$pair@$$CBEPAVCTItem@@@std@@@3@$0A@@std@@@0@@Z ENDP ; std::_Destroy<std::_Tree_nod<std::_Tmap_traits<unsigned char,CTItem *,std::less<unsigned char>,std::allocator<std::pair<unsigned char const ,CTItem *> >,0> >::_Node>
_TEXT	ENDS
PUBLIC	??$_Ptr_cat@VCTSkill@@@std@@YA?AU_Scalar_ptr_iterator_tag@0@PAPAVCTSkill@@0@Z ; std::_Ptr_cat<CTSkill>
; Function compile flags: /Ogty
; File c:\program files (x86)\microsoft visual studio .net 2003\vc7\include\xutility
;	COMDAT ??$_Ptr_cat@VCTSkill@@@std@@YA?AU_Scalar_ptr_iterator_tag@0@PAPAVCTSkill@@0@Z
_TEXT	SEGMENT
__Cat$ = -1						; size = 1
___formal$ = 8						; size = 4
___formal$ = 12						; size = 4
??$_Ptr_cat@VCTSkill@@@std@@YA?AU_Scalar_ptr_iterator_tag@0@PAPAVCTSkill@@0@Z PROC NEAR ; std::_Ptr_cat<CTSkill>, COMDAT

; 218  : 	{	// return pointer category from pointer to pointer arguments

  00000	51		 push	 ecx

; 219  : 	_Scalar_ptr_iterator_tag _Cat;
; 220  : 	return (_Cat);

  00001	8a 44 24 03	 mov	 al, BYTE PTR __Cat$[esp+4]

; 221  : 	}

  00005	59		 pop	 ecx
  00006	c3		 ret	 0
??$_Ptr_cat@VCTSkill@@@std@@YA?AU_Scalar_ptr_iterator_tag@0@PAPAVCTSkill@@0@Z ENDP ; std::_Ptr_cat<CTSkill>
_TEXT	ENDS
PUBLIC	??$_Destroy_range@PAVCTSkill@@V?$allocator@PAVCTSkill@@@std@@@std@@YAXPAPAVCTSkill@@0AAV?$allocator@PAVCTSkill@@@0@U_Scalar_ptr_iterator_tag@0@@Z ; std::_Destroy_range<CTSkill *,std::allocator<CTSkill *> >
; Function compile flags: /Ogty
; File c:\program files (x86)\microsoft visual studio .net 2003\vc7\include\xmemory
;	COMDAT ??$_Destroy_range@PAVCTSkill@@V?$allocator@PAVCTSkill@@@std@@@std@@YAXPAPAVCTSkill@@0AAV?$allocator@PAVCTSkill@@@0@U_Scalar_ptr_iterator_tag@0@@Z
_TEXT	SEGMENT
__First$ = 8						; size = 4
__Last$ = 12						; size = 4
__Al$ = 16						; size = 4
___formal$ = 20						; size = 1
??$_Destroy_range@PAVCTSkill@@V?$allocator@PAVCTSkill@@@std@@@std@@YAXPAPAVCTSkill@@0AAV?$allocator@PAVCTSkill@@@0@U_Scalar_ptr_iterator_tag@0@@Z PROC NEAR ; std::_Destroy_range<CTSkill *,std::allocator<CTSkill *> >, COMDAT

; 234  : 	}

  00000	c3		 ret	 0
??$_Destroy_range@PAVCTSkill@@V?$allocator@PAVCTSkill@@@std@@@std@@YAXPAPAVCTSkill@@0AAV?$allocator@PAVCTSkill@@@0@U_Scalar_ptr_iterator_tag@0@@Z ENDP ; std::_Destroy_range<CTSkill *,std::allocator<CTSkill *> >
; Function compile flags: /Ogty
_TEXT	ENDS
;	COMDAT ??_GCTAICmdLeave@@UAEPAXI@Z
_TEXT	SEGMENT
___flags$ = 8						; size = 4
??_GCTAICmdLeave@@UAEPAXI@Z PROC NEAR			; CTAICmdLeave::`scalar deleting destructor', COMDAT
; _this$ = ecx
  00000	56		 push	 esi
  00001	8b f1		 mov	 esi, ecx
  00003	e8 00 00 00 00	 call	 ??1CTAICmdLeave@@UAE@XZ	; CTAICmdLeave::~CTAICmdLeave
  00008	f6 44 24 08 01	 test	 BYTE PTR ___flags$[esp], 1
  0000d	74 09		 je	 SHORT $L153615
  0000f	56		 push	 esi
  00010	e8 00 00 00 00	 call	 ??3@YAXPAX@Z		; operator delete
  00015	83 c4 04	 add	 esp, 4
$L153615:
  00018	8b c6		 mov	 eax, esi
  0001a	5e		 pop	 esi
  0001b	c2 04 00	 ret	 4
??_GCTAICmdLeave@@UAEPAXI@Z ENDP			; CTAICmdLeave::`scalar deleting destructor'
_TEXT	ENDS
PUBLIC	??0iterator@?$_Tree@V?$_Tmap_traits@EPAVCTItem@@U?$less@E@std@@V?$allocator@U?$pair@$$CBEPAVCTItem@@@std@@@3@$0A@@std@@@std@@QAE@XZ ; std::_Tree<std::_Tmap_traits<unsigned char,CTItem *,std::less<unsigned char>,std::allocator<std::pair<unsigned char const ,CTItem *> >,0> >::iterator::iterator
; Function compile flags: /Ogty
; File c:\program files (x86)\microsoft visual studio .net 2003\vc7\include\xtree
;	COMDAT ??0iterator@?$_Tree@V?$_Tmap_traits@EPAVCTItem@@U?$less@E@std@@V?$allocator@U?$pair@$$CBEPAVCTItem@@@std@@@3@$0A@@std@@@std@@QAE@XZ
_TEXT	SEGMENT
??0iterator@?$_Tree@V?$_Tmap_traits@EPAVCTItem@@U?$less@E@std@@V?$allocator@U?$pair@$$CBEPAVCTItem@@@std@@@3@$0A@@std@@@std@@QAE@XZ PROC NEAR ; std::_Tree<std::_Tmap_traits<unsigned char,CTItem *,std::less<unsigned char>,std::allocator<std::pair<unsigned char const ,CTItem *> >,0> >::iterator::iterator, COMDAT
; _this$ = ecx

; 304  : 		iterator()

  00000	8b c1		 mov	 eax, ecx
  00002	c7 00 00 00 00
	00		 mov	 DWORD PTR [eax], 0

; 305  : 			{	// construct with null node pointer
; 306  : 			}

  00008	c3		 ret	 0
??0iterator@?$_Tree@V?$_Tmap_traits@EPAVCTItem@@U?$less@E@std@@V?$allocator@U?$pair@$$CBEPAVCTItem@@@std@@@3@$0A@@std@@@std@@QAE@XZ ENDP ; std::_Tree<std::_Tmap_traits<unsigned char,CTItem *,std::less<unsigned char>,std::allocator<std::pair<unsigned char const ,CTItem *> >,0> >::iterator::iterator
_TEXT	ENDS
PUBLIC	??9const_iterator@?$_Tree@V?$_Tmap_traits@EPAVCTItem@@U?$less@E@std@@V?$allocator@U?$pair@$$CBEPAVCTItem@@@std@@@3@$0A@@std@@@std@@QBE_NABV012@@Z ; std::_Tree<std::_Tmap_traits<unsigned char,CTItem *,std::less<unsigned char>,std::allocator<std::pair<unsigned char const ,CTItem *> >,0> >::const_iterator::operator!=
; Function compile flags: /Ogty
;	COMDAT ??9const_iterator@?$_Tree@V?$_Tmap_traits@EPAVCTItem@@U?$less@E@std@@V?$allocator@U?$pair@$$CBEPAVCTItem@@@std@@@3@$0A@@std@@@std@@QBE_NABV012@@Z
_TEXT	SEGMENT
__Right$ = 8						; size = 4
??9const_iterator@?$_Tree@V?$_Tmap_traits@EPAVCTItem@@U?$less@E@std@@V?$allocator@U?$pair@$$CBEPAVCTItem@@@std@@@3@$0A@@std@@@std@@QBE_NABV012@@Z PROC NEAR ; std::_Tree<std::_Tmap_traits<unsigned char,CTItem *,std::less<unsigned char>,std::allocator<std::pair<unsigned char const ,CTItem *> >,0> >::const_iterator::operator!=, COMDAT
; _this$ = ecx

; 246  : 			return (!(*this == _Right));

  00000	8b 01		 mov	 eax, DWORD PTR [ecx]
  00002	8b 54 24 04	 mov	 edx, DWORD PTR __Right$[esp-4]
  00006	56		 push	 esi
  00007	8b 32		 mov	 esi, DWORD PTR [edx]
  00009	33 c9		 xor	 ecx, ecx
  0000b	3b c6		 cmp	 eax, esi
  0000d	0f 95 c1	 setne	 cl
  00010	8a c1		 mov	 al, cl
  00012	5e		 pop	 esi

; 247  : 			}

  00013	c2 04 00	 ret	 4
??9const_iterator@?$_Tree@V?$_Tmap_traits@EPAVCTItem@@U?$less@E@std@@V?$allocator@U?$pair@$$CBEPAVCTItem@@@std@@@3@$0A@@std@@@std@@QBE_NABV012@@Z ENDP ; std::_Tree<std::_Tmap_traits<unsigned char,CTItem *,std::less<unsigned char>,std::allocator<std::pair<unsigned char const ,CTItem *> >,0> >::const_iterator::operator!=
_TEXT	ENDS
PUBLIC	??0iterator@?$_Tree@V?$_Tmap_traits@GPAVCTSkill@@U?$less@G@std@@V?$allocator@U?$pair@$$CBGPAVCTSkill@@@std@@@3@$0A@@std@@@std@@QAE@XZ ; std::_Tree<std::_Tmap_traits<unsigned short,CTSkill *,std::less<unsigned short>,std::allocator<std::pair<unsigned short const ,CTSkill *> >,0> >::iterator::iterator
; Function compile flags: /Ogty
;	COMDAT ??0iterator@?$_Tree@V?$_Tmap_traits@GPAVCTSkill@@U?$less@G@std@@V?$allocator@U?$pair@$$CBGPAVCTSkill@@@std@@@3@$0A@@std@@@std@@QAE@XZ
_TEXT	SEGMENT
??0iterator@?$_Tree@V?$_Tmap_traits@GPAVCTSkill@@U?$less@G@std@@V?$allocator@U?$pair@$$CBGPAVCTSkill@@@std@@@3@$0A@@std@@@std@@QAE@XZ PROC NEAR ; std::_Tree<std::_Tmap_traits<unsigned short,CTSkill *,std::less<unsigned short>,std::allocator<std::pair<unsigned short const ,CTSkill *> >,0> >::iterator::iterator, COMDAT
; _this$ = ecx

; 304  : 		iterator()

  00000	8b c1		 mov	 eax, ecx
  00002	c7 00 00 00 00
	00		 mov	 DWORD PTR [eax], 0

; 305  : 			{	// construct with null node pointer
; 306  : 			}

  00008	c3		 ret	 0
??0iterator@?$_Tree@V?$_Tmap_traits@GPAVCTSkill@@U?$less@G@std@@V?$allocator@U?$pair@$$CBGPAVCTSkill@@@std@@@3@$0A@@std@@@std@@QAE@XZ ENDP ; std::_Tree<std::_Tmap_traits<unsigned short,CTSkill *,std::less<unsigned short>,std::allocator<std::pair<unsigned short const ,CTSkill *> >,0> >::iterator::iterator
_TEXT	ENDS
PUBLIC	??9const_iterator@?$_Tree@V?$_Tmap_traits@GPAVCTSkill@@U?$less@G@std@@V?$allocator@U?$pair@$$CBGPAVCTSkill@@@std@@@3@$0A@@std@@@std@@QBE_NABV012@@Z ; std::_Tree<std::_Tmap_traits<unsigned short,CTSkill *,std::less<unsigned short>,std::allocator<std::pair<unsigned short const ,CTSkill *> >,0> >::const_iterator::operator!=
; Function compile flags: /Ogty
;	COMDAT ??9const_iterator@?$_Tree@V?$_Tmap_traits@GPAVCTSkill@@U?$less@G@std@@V?$allocator@U?$pair@$$CBGPAVCTSkill@@@std@@@3@$0A@@std@@@std@@QBE_NABV012@@Z
_TEXT	SEGMENT
__Right$ = 8						; size = 4
??9const_iterator@?$_Tree@V?$_Tmap_traits@GPAVCTSkill@@U?$less@G@std@@V?$allocator@U?$pair@$$CBGPAVCTSkill@@@std@@@3@$0A@@std@@@std@@QBE_NABV012@@Z PROC NEAR ; std::_Tree<std::_Tmap_traits<unsigned short,CTSkill *,std::less<unsigned short>,std::allocator<std::pair<unsigned short const ,CTSkill *> >,0> >::const_iterator::operator!=, COMDAT
; _this$ = ecx

; 246  : 			return (!(*this == _Right));

  00000	8b 01		 mov	 eax, DWORD PTR [ecx]
  00002	8b 54 24 04	 mov	 edx, DWORD PTR __Right$[esp-4]
  00006	56		 push	 esi
  00007	8b 32		 mov	 esi, DWORD PTR [edx]
  00009	33 c9		 xor	 ecx, ecx
  0000b	3b c6		 cmp	 eax, esi
  0000d	0f 95 c1	 setne	 cl
  00010	8a c1		 mov	 al, cl
  00012	5e		 pop	 esi

; 247  : 			}

  00013	c2 04 00	 ret	 4
??9const_iterator@?$_Tree@V?$_Tmap_traits@GPAVCTSkill@@U?$less@G@std@@V?$allocator@U?$pair@$$CBGPAVCTSkill@@@std@@@3@$0A@@std@@@std@@QBE_NABV012@@Z ENDP ; std::_Tree<std::_Tmap_traits<unsigned short,CTSkill *,std::less<unsigned short>,std::allocator<std::pair<unsigned short const ,CTSkill *> >,0> >::const_iterator::operator!=
_TEXT	ENDS
PUBLIC	?_Lmost@?$_Tree@V?$_Tmap_traits@KKU?$less@K@std@@V?$allocator@U?$pair@$$CBKK@std@@@2@$0A@@std@@@std@@IAEAAPAU_Node@?$_Tree_nod@V?$_Tmap_traits@KKU?$less@K@std@@V?$allocator@U?$pair@$$CBKK@std@@@2@$0A@@std@@@2@XZ ; std::_Tree<std::_Tmap_traits<unsigned long,unsigned long,std::less<unsigned long>,std::allocator<std::pair<unsigned long const ,unsigned long> >,0> >::_Lmost
; Function compile flags: /Ogty
;	COMDAT ?_Lmost@?$_Tree@V?$_Tmap_traits@KKU?$less@K@std@@V?$allocator@U?$pair@$$CBKK@std@@@2@$0A@@std@@@std@@IAEAAPAU_Node@?$_Tree_nod@V?$_Tmap_traits@KKU?$less@K@std@@V?$allocator@U?$pair@$$CBKK@std@@@2@$0A@@std@@@2@XZ
_TEXT	SEGMENT
?_Lmost@?$_Tree@V?$_Tmap_traits@KKU?$less@K@std@@V?$allocator@U?$pair@$$CBKK@std@@@2@$0A@@std@@@std@@IAEAAPAU_Node@?$_Tree_nod@V?$_Tmap_traits@KKU?$less@K@std@@V?$allocator@U?$pair@$$CBKK@std@@@2@$0A@@std@@@2@XZ PROC NEAR ; std::_Tree<std::_Tmap_traits<unsigned long,unsigned long,std::less<unsigned long>,std::allocator<std::pair<unsigned long const ,unsigned long> >,0> >::_Lmost, COMDAT
; _this$ = ecx

; 1005 : 		return (_Left(_Myhead));

  00000	8b 41 04	 mov	 eax, DWORD PTR [ecx+4]

; 1006 : 		}

  00003	c3		 ret	 0
?_Lmost@?$_Tree@V?$_Tmap_traits@KKU?$less@K@std@@V?$allocator@U?$pair@$$CBKK@std@@@2@$0A@@std@@@std@@IAEAAPAU_Node@?$_Tree_nod@V?$_Tmap_traits@KKU?$less@K@std@@V?$allocator@U?$pair@$$CBKK@std@@@2@$0A@@std@@@2@XZ ENDP ; std::_Tree<std::_Tmap_traits<unsigned long,unsigned long,std::less<unsigned long>,std::allocator<std::pair<unsigned long const ,unsigned long> >,0> >::_Lmost
_TEXT	ENDS
PUBLIC	?_Rmost@?$_Tree@V?$_Tmap_traits@KKU?$less@K@std@@V?$allocator@U?$pair@$$CBKK@std@@@2@$0A@@std@@@std@@IAEAAPAU_Node@?$_Tree_nod@V?$_Tmap_traits@KKU?$less@K@std@@V?$allocator@U?$pair@$$CBKK@std@@@2@$0A@@std@@@2@XZ ; std::_Tree<std::_Tmap_traits<unsigned long,unsigned long,std::less<unsigned long>,std::allocator<std::pair<unsigned long const ,unsigned long> >,0> >::_Rmost
; Function compile flags: /Ogty
;	COMDAT ?_Rmost@?$_Tree@V?$_Tmap_traits@KKU?$less@K@std@@V?$allocator@U?$pair@$$CBKK@std@@@2@$0A@@std@@@std@@IAEAAPAU_Node@?$_Tree_nod@V?$_Tmap_traits@KKU?$less@K@std@@V?$allocator@U?$pair@$$CBKK@std@@@2@$0A@@std@@@2@XZ
_TEXT	SEGMENT
?_Rmost@?$_Tree@V?$_Tmap_traits@KKU?$less@K@std@@V?$allocator@U?$pair@$$CBKK@std@@@2@$0A@@std@@@std@@IAEAAPAU_Node@?$_Tree_nod@V?$_Tmap_traits@KKU?$less@K@std@@V?$allocator@U?$pair@$$CBKK@std@@@2@$0A@@std@@@2@XZ PROC NEAR ; std::_Tree<std::_Tmap_traits<unsigned long,unsigned long,std::less<unsigned long>,std::allocator<std::pair<unsigned long const ,unsigned long> >,0> >::_Rmost, COMDAT
; _this$ = ecx

; 1049 : 		return (_Right(_Myhead));

  00000	8b 41 04	 mov	 eax, DWORD PTR [ecx+4]
  00003	83 c0 08	 add	 eax, 8

; 1050 : 		}

  00006	c3		 ret	 0
?_Rmost@?$_Tree@V?$_Tmap_traits@KKU?$less@K@std@@V?$allocator@U?$pair@$$CBKK@std@@@2@$0A@@std@@@std@@IAEAAPAU_Node@?$_Tree_nod@V?$_Tmap_traits@KKU?$less@K@std@@V?$allocator@U?$pair@$$CBKK@std@@@2@$0A@@std@@@2@XZ ENDP ; std::_Tree<std::_Tmap_traits<unsigned long,unsigned long,std::less<unsigned long>,std::allocator<std::pair<unsigned long const ,unsigned long> >,0> >::_Rmost
_TEXT	ENDS
PUBLIC	?_Root@?$_Tree@V?$_Tmap_traits@KKU?$less@K@std@@V?$allocator@U?$pair@$$CBKK@std@@@2@$0A@@std@@@std@@IAEAAPAU_Node@?$_Tree_nod@V?$_Tmap_traits@KKU?$less@K@std@@V?$allocator@U?$pair@$$CBKK@std@@@2@$0A@@std@@@2@XZ ; std::_Tree<std::_Tmap_traits<unsigned long,unsigned long,std::less<unsigned long>,std::allocator<std::pair<unsigned long const ,unsigned long> >,0> >::_Root
; Function compile flags: /Ogty
;	COMDAT ?_Root@?$_Tree@V?$_Tmap_traits@KKU?$less@K@std@@V?$allocator@U?$pair@$$CBKK@std@@@2@$0A@@std@@@std@@IAEAAPAU_Node@?$_Tree_nod@V?$_Tmap_traits@KKU?$less@K@std@@V?$allocator@U?$pair@$$CBKK@std@@@2@$0A@@std@@@2@XZ
_TEXT	SEGMENT
?_Root@?$_Tree@V?$_Tmap_traits@KKU?$less@K@std@@V?$allocator@U?$pair@$$CBKK@std@@@2@$0A@@std@@@std@@IAEAAPAU_Node@?$_Tree_nod@V?$_Tmap_traits@KKU?$less@K@std@@V?$allocator@U?$pair@$$CBKK@std@@@2@$0A@@std@@@2@XZ PROC NEAR ; std::_Tree<std::_Tmap_traits<unsigned long,unsigned long,std::less<unsigned long>,std::allocator<std::pair<unsigned long const ,unsigned long> >,0> >::_Root, COMDAT
; _this$ = ecx

; 1059 : 		return (_Parent(_Myhead));

  00000	8b 41 04	 mov	 eax, DWORD PTR [ecx+4]
  00003	83 c0 04	 add	 eax, 4

; 1060 : 		}

  00006	c3		 ret	 0
?_Root@?$_Tree@V?$_Tmap_traits@KKU?$less@K@std@@V?$allocator@U?$pair@$$CBKK@std@@@2@$0A@@std@@@std@@IAEAAPAU_Node@?$_Tree_nod@V?$_Tmap_traits@KKU?$less@K@std@@V?$allocator@U?$pair@$$CBKK@std@@@2@$0A@@std@@@2@XZ ENDP ; std::_Tree<std::_Tmap_traits<unsigned long,unsigned long,std::less<unsigned long>,std::allocator<std::pair<unsigned long const ,unsigned long> >,0> >::_Root
_TEXT	ENDS
PUBLIC	?_Lmost@?$_Tree@V?$_Tmap_traits@GPAVCTSkill@@U?$less@G@std@@V?$allocator@U?$pair@$$CBGPAVCTSkill@@@std@@@3@$0A@@std@@@std@@IAEAAPAU_Node@?$_Tree_nod@V?$_Tmap_traits@GPAVCTSkill@@U?$less@G@std@@V?$allocator@U?$pair@$$CBGPAVCTSkill@@@std@@@3@$0A@@std@@@2@XZ ; std::_Tree<std::_Tmap_traits<unsigned short,CTSkill *,std::less<unsigned short>,std::allocator<std::pair<unsigned short const ,CTSkill *> >,0> >::_Lmost
; Function compile flags: /Ogty
;	COMDAT ?_Lmost@?$_Tree@V?$_Tmap_traits@GPAVCTSkill@@U?$less@G@std@@V?$allocator@U?$pair@$$CBGPAVCTSkill@@@std@@@3@$0A@@std@@@std@@IAEAAPAU_Node@?$_Tree_nod@V?$_Tmap_traits@GPAVCTSkill@@U?$less@G@std@@V?$allocator@U?$pair@$$CBGPAVCTSkill@@@std@@@3@$0A@@std@@@2@XZ
_TEXT	SEGMENT
?_Lmost@?$_Tree@V?$_Tmap_traits@GPAVCTSkill@@U?$less@G@std@@V?$allocator@U?$pair@$$CBGPAVCTSkill@@@std@@@3@$0A@@std@@@std@@IAEAAPAU_Node@?$_Tree_nod@V?$_Tmap_traits@GPAVCTSkill@@U?$less@G@std@@V?$allocator@U?$pair@$$CBGPAVCTSkill@@@std@@@3@$0A@@std@@@2@XZ PROC NEAR ; std::_Tree<std::_Tmap_traits<unsigned short,CTSkill *,std::less<unsigned short>,std::allocator<std::pair<unsigned short const ,CTSkill *> >,0> >::_Lmost, COMDAT
; _this$ = ecx

; 1005 : 		return (_Left(_Myhead));

  00000	8b 41 04	 mov	 eax, DWORD PTR [ecx+4]

; 1006 : 		}

  00003	c3		 ret	 0
?_Lmost@?$_Tree@V?$_Tmap_traits@GPAVCTSkill@@U?$less@G@std@@V?$allocator@U?$pair@$$CBGPAVCTSkill@@@std@@@3@$0A@@std@@@std@@IAEAAPAU_Node@?$_Tree_nod@V?$_Tmap_traits@GPAVCTSkill@@U?$less@G@std@@V?$allocator@U?$pair@$$CBGPAVCTSkill@@@std@@@3@$0A@@std@@@2@XZ ENDP ; std::_Tree<std::_Tmap_traits<unsigned short,CTSkill *,std::less<unsigned short>,std::allocator<std::pair<unsigned short const ,CTSkill *> >,0> >::_Lmost
_TEXT	ENDS
PUBLIC	?_Rmost@?$_Tree@V?$_Tmap_traits@GPAVCTSkill@@U?$less@G@std@@V?$allocator@U?$pair@$$CBGPAVCTSkill@@@std@@@3@$0A@@std@@@std@@IAEAAPAU_Node@?$_Tree_nod@V?$_Tmap_traits@GPAVCTSkill@@U?$less@G@std@@V?$allocator@U?$pair@$$CBGPAVCTSkill@@@std@@@3@$0A@@std@@@2@XZ ; std::_Tree<std::_Tmap_traits<unsigned short,CTSkill *,std::less<unsigned short>,std::allocator<std::pair<unsigned short const ,CTSkill *> >,0> >::_Rmost
; Function compile flags: /Ogty
;	COMDAT ?_Rmost@?$_Tree@V?$_Tmap_traits@GPAVCTSkill@@U?$less@G@std@@V?$allocator@U?$pair@$$CBGPAVCTSkill@@@std@@@3@$0A@@std@@@std@@IAEAAPAU_Node@?$_Tree_nod@V?$_Tmap_traits@GPAVCTSkill@@U?$less@G@std@@V?$allocator@U?$pair@$$CBGPAVCTSkill@@@std@@@3@$0A@@std@@@2@XZ
_TEXT	SEGMENT
?_Rmost@?$_Tree@V?$_Tmap_traits@GPAVCTSkill@@U?$less@G@std@@V?$allocator@U?$pair@$$CBGPAVCTSkill@@@std@@@3@$0A@@std@@@std@@IAEAAPAU_Node@?$_Tree_nod@V?$_Tmap_traits@GPAVCTSkill@@U?$less@G@std@@V?$allocator@U?$pair@$$CBGPAVCTSkill@@@std@@@3@$0A@@std@@@2@XZ PROC NEAR ; std::_Tree<std::_Tmap_traits<unsigned short,CTSkill *,std::less<unsigned short>,std::allocator<std::pair<unsigned short const ,CTSkill *> >,0> >::_Rmost, COMDAT
; _this$ = ecx

; 1049 : 		return (_Right(_Myhead));

  00000	8b 41 04	 mov	 eax, DWORD PTR [ecx+4]
  00003	83 c0 08	 add	 eax, 8

; 1050 : 		}

  00006	c3		 ret	 0
?_Rmost@?$_Tree@V?$_Tmap_traits@GPAVCTSkill@@U?$less@G@std@@V?$allocator@U?$pair@$$CBGPAVCTSkill@@@std@@@3@$0A@@std@@@std@@IAEAAPAU_Node@?$_Tree_nod@V?$_Tmap_traits@GPAVCTSkill@@U?$less@G@std@@V?$allocator@U?$pair@$$CBGPAVCTSkill@@@std@@@3@$0A@@std@@@2@XZ ENDP ; std::_Tree<std::_Tmap_traits<unsigned short,CTSkill *,std::less<unsigned short>,std::allocator<std::pair<unsigned short const ,CTSkill *> >,0> >::_Rmost
_TEXT	ENDS
PUBLIC	?_Root@?$_Tree@V?$_Tmap_traits@GPAVCTSkill@@U?$less@G@std@@V?$allocator@U?$pair@$$CBGPAVCTSkill@@@std@@@3@$0A@@std@@@std@@IAEAAPAU_Node@?$_Tree_nod@V?$_Tmap_traits@GPAVCTSkill@@U?$less@G@std@@V?$allocator@U?$pair@$$CBGPAVCTSkill@@@std@@@3@$0A@@std@@@2@XZ ; std::_Tree<std::_Tmap_traits<unsigned short,CTSkill *,std::less<unsigned short>,std::allocator<std::pair<unsigned short const ,CTSkill *> >,0> >::_Root
; Function compile flags: /Ogty
;	COMDAT ?_Root@?$_Tree@V?$_Tmap_traits@GPAVCTSkill@@U?$less@G@std@@V?$allocator@U?$pair@$$CBGPAVCTSkill@@@std@@@3@$0A@@std@@@std@@IAEAAPAU_Node@?$_Tree_nod@V?$_Tmap_traits@GPAVCTSkill@@U?$less@G@std@@V?$allocator@U?$pair@$$CBGPAVCTSkill@@@std@@@3@$0A@@std@@@2@XZ
_TEXT	SEGMENT
?_Root@?$_Tree@V?$_Tmap_traits@GPAVCTSkill@@U?$less@G@std@@V?$allocator@U?$pair@$$CBGPAVCTSkill@@@std@@@3@$0A@@std@@@std@@IAEAAPAU_Node@?$_Tree_nod@V?$_Tmap_traits@GPAVCTSkill@@U?$less@G@std@@V?$allocator@U?$pair@$$CBGPAVCTSkill@@@std@@@3@$0A@@std@@@2@XZ PROC NEAR ; std::_Tree<std::_Tmap_traits<unsigned short,CTSkill *,std::less<unsigned short>,std::allocator<std::pair<unsigned short const ,CTSkill *> >,0> >::_Root, COMDAT
; _this$ = ecx

; 1059 : 		return (_Parent(_Myhead));

  00000	8b 41 04	 mov	 eax, DWORD PTR [ecx+4]
  00003	83 c0 04	 add	 eax, 4

; 1060 : 		}

  00006	c3		 ret	 0
?_Root@?$_Tree@V?$_Tmap_traits@GPAVCTSkill@@U?$less@G@std@@V?$allocator@U?$pair@$$CBGPAVCTSkill@@@std@@@3@$0A@@std@@@std@@IAEAAPAU_Node@?$_Tree_nod@V?$_Tmap_traits@GPAVCTSkill@@U?$less@G@std@@V?$allocator@U?$pair@$$CBGPAVCTSkill@@@std@@@3@$0A@@std@@@2@XZ ENDP ; std::_Tree<std::_Tmap_traits<unsigned short,CTSkill *,std::less<unsigned short>,std::allocator<std::pair<unsigned short const ,CTSkill *> >,0> >::_Root
_TEXT	ENDS
PUBLIC	?_Lmost@?$_Tree@V?$_Tmap_traits@_J_JU?$less@_J@std@@V?$allocator@U?$pair@$$CB_J_J@std@@@2@$0A@@std@@@std@@IAEAAPAU_Node@?$_Tree_nod@V?$_Tmap_traits@_J_JU?$less@_J@std@@V?$allocator@U?$pair@$$CB_J_J@std@@@2@$0A@@std@@@2@XZ ; std::_Tree<std::_Tmap_traits<__int64,__int64,std::less<__int64>,std::allocator<std::pair<__int64 const ,__int64> >,0> >::_Lmost
; Function compile flags: /Ogty
;	COMDAT ?_Lmost@?$_Tree@V?$_Tmap_traits@_J_JU?$less@_J@std@@V?$allocator@U?$pair@$$CB_J_J@std@@@2@$0A@@std@@@std@@IAEAAPAU_Node@?$_Tree_nod@V?$_Tmap_traits@_J_JU?$less@_J@std@@V?$allocator@U?$pair@$$CB_J_J@std@@@2@$0A@@std@@@2@XZ
_TEXT	SEGMENT
?_Lmost@?$_Tree@V?$_Tmap_traits@_J_JU?$less@_J@std@@V?$allocator@U?$pair@$$CB_J_J@std@@@2@$0A@@std@@@std@@IAEAAPAU_Node@?$_Tree_nod@V?$_Tmap_traits@_J_JU?$less@_J@std@@V?$allocator@U?$pair@$$CB_J_J@std@@@2@$0A@@std@@@2@XZ PROC NEAR ; std::_Tree<std::_Tmap_traits<__int64,__int64,std::less<__int64>,std::allocator<std::pair<__int64 const ,__int64> >,0> >::_Lmost, COMDAT
; _this$ = ecx

; 1005 : 		return (_Left(_Myhead));

  00000	8b 41 04	 mov	 eax, DWORD PTR [ecx+4]

; 1006 : 		}

  00003	c3		 ret	 0
?_Lmost@?$_Tree@V?$_Tmap_traits@_J_JU?$less@_J@std@@V?$allocator@U?$pair@$$CB_J_J@std@@@2@$0A@@std@@@std@@IAEAAPAU_Node@?$_Tree_nod@V?$_Tmap_traits@_J_JU?$less@_J@std@@V?$allocator@U?$pair@$$CB_J_J@std@@@2@$0A@@std@@@2@XZ ENDP ; std::_Tree<std::_Tmap_traits<__int64,__int64,std::less<__int64>,std::allocator<std::pair<__int64 const ,__int64> >,0> >::_Lmost
_TEXT	ENDS
PUBLIC	?_Rmost@?$_Tree@V?$_Tmap_traits@_J_JU?$less@_J@std@@V?$allocator@U?$pair@$$CB_J_J@std@@@2@$0A@@std@@@std@@IAEAAPAU_Node@?$_Tree_nod@V?$_Tmap_traits@_J_JU?$less@_J@std@@V?$allocator@U?$pair@$$CB_J_J@std@@@2@$0A@@std@@@2@XZ ; std::_Tree<std::_Tmap_traits<__int64,__int64,std::less<__int64>,std::allocator<std::pair<__int64 const ,__int64> >,0> >::_Rmost
; Function compile flags: /Ogty
;	COMDAT ?_Rmost@?$_Tree@V?$_Tmap_traits@_J_JU?$less@_J@std@@V?$allocator@U?$pair@$$CB_J_J@std@@@2@$0A@@std@@@std@@IAEAAPAU_Node@?$_Tree_nod@V?$_Tmap_traits@_J_JU?$less@_J@std@@V?$allocator@U?$pair@$$CB_J_J@std@@@2@$0A@@std@@@2@XZ
_TEXT	SEGMENT
?_Rmost@?$_Tree@V?$_Tmap_traits@_J_JU?$less@_J@std@@V?$allocator@U?$pair@$$CB_J_J@std@@@2@$0A@@std@@@std@@IAEAAPAU_Node@?$_Tree_nod@V?$_Tmap_traits@_J_JU?$less@_J@std@@V?$allocator@U?$pair@$$CB_J_J@std@@@2@$0A@@std@@@2@XZ PROC NEAR ; std::_Tree<std::_Tmap_traits<__int64,__int64,std::less<__int64>,std::allocator<std::pair<__int64 const ,__int64> >,0> >::_Rmost, COMDAT
; _this$ = ecx

; 1049 : 		return (_Right(_Myhead));

  00000	8b 41 04	 mov	 eax, DWORD PTR [ecx+4]
  00003	83 c0 08	 add	 eax, 8

; 1050 : 		}

  00006	c3		 ret	 0
?_Rmost@?$_Tree@V?$_Tmap_traits@_J_JU?$less@_J@std@@V?$allocator@U?$pair@$$CB_J_J@std@@@2@$0A@@std@@@std@@IAEAAPAU_Node@?$_Tree_nod@V?$_Tmap_traits@_J_JU?$less@_J@std@@V?$allocator@U?$pair@$$CB_J_J@std@@@2@$0A@@std@@@2@XZ ENDP ; std::_Tree<std::_Tmap_traits<__int64,__int64,std::less<__int64>,std::allocator<std::pair<__int64 const ,__int64> >,0> >::_Rmost
_TEXT	ENDS
PUBLIC	?_Root@?$_Tree@V?$_Tmap_traits@_J_JU?$less@_J@std@@V?$allocator@U?$pair@$$CB_J_J@std@@@2@$0A@@std@@@std@@IAEAAPAU_Node@?$_Tree_nod@V?$_Tmap_traits@_J_JU?$less@_J@std@@V?$allocator@U?$pair@$$CB_J_J@std@@@2@$0A@@std@@@2@XZ ; std::_Tree<std::_Tmap_traits<__int64,__int64,std::less<__int64>,std::allocator<std::pair<__int64 const ,__int64> >,0> >::_Root
; Function compile flags: /Ogty
;	COMDAT ?_Root@?$_Tree@V?$_Tmap_traits@_J_JU?$less@_J@std@@V?$allocator@U?$pair@$$CB_J_J@std@@@2@$0A@@std@@@std@@IAEAAPAU_Node@?$_Tree_nod@V?$_Tmap_traits@_J_JU?$less@_J@std@@V?$allocator@U?$pair@$$CB_J_J@std@@@2@$0A@@std@@@2@XZ
_TEXT	SEGMENT
?_Root@?$_Tree@V?$_Tmap_traits@_J_JU?$less@_J@std@@V?$allocator@U?$pair@$$CB_J_J@std@@@2@$0A@@std@@@std@@IAEAAPAU_Node@?$_Tree_nod@V?$_Tmap_traits@_J_JU?$less@_J@std@@V?$allocator@U?$pair@$$CB_J_J@std@@@2@$0A@@std@@@2@XZ PROC NEAR ; std::_Tree<std::_Tmap_traits<__int64,__int64,std::less<__int64>,std::allocator<std::pair<__int64 const ,__int64> >,0> >::_Root, COMDAT
; _this$ = ecx

; 1059 : 		return (_Parent(_Myhead));

  00000	8b 41 04	 mov	 eax, DWORD PTR [ecx+4]
  00003	83 c0 04	 add	 eax, 4

; 1060 : 		}

  00006	c3		 ret	 0
?_Root@?$_Tree@V?$_Tmap_traits@_J_JU?$less@_J@std@@V?$allocator@U?$pair@$$CB_J_J@std@@@2@$0A@@std@@@std@@IAEAAPAU_Node@?$_Tree_nod@V?$_Tmap_traits@_J_JU?$less@_J@std@@V?$allocator@U?$pair@$$CB_J_J@std@@@2@$0A@@std@@@2@XZ ENDP ; std::_Tree<std::_Tmap_traits<__int64,__int64,std::less<__int64>,std::allocator<std::pair<__int64 const ,__int64> >,0> >::_Root
_TEXT	ENDS
PUBLIC	?_Lmost@?$_Tree@V?$_Tmap_traits@_JUtagAGGRO@@U?$less@_J@std@@V?$allocator@U?$pair@$$CB_JUtagAGGRO@@@std@@@3@$0A@@std@@@std@@IAEAAPAU_Node@?$_Tree_nod@V?$_Tmap_traits@_JUtagAGGRO@@U?$less@_J@std@@V?$allocator@U?$pair@$$CB_JUtagAGGRO@@@std@@@3@$0A@@std@@@2@XZ ; std::_Tree<std::_Tmap_traits<__int64,tagAGGRO,std::less<__int64>,std::allocator<std::pair<__int64 const ,tagAGGRO> >,0> >::_Lmost
; Function compile flags: /Ogty
;	COMDAT ?_Lmost@?$_Tree@V?$_Tmap_traits@_JUtagAGGRO@@U?$less@_J@std@@V?$allocator@U?$pair@$$CB_JUtagAGGRO@@@std@@@3@$0A@@std@@@std@@IAEAAPAU_Node@?$_Tree_nod@V?$_Tmap_traits@_JUtagAGGRO@@U?$less@_J@std@@V?$allocator@U?$pair@$$CB_JUtagAGGRO@@@std@@@3@$0A@@std@@@2@XZ
_TEXT	SEGMENT
?_Lmost@?$_Tree@V?$_Tmap_traits@_JUtagAGGRO@@U?$less@_J@std@@V?$allocator@U?$pair@$$CB_JUtagAGGRO@@@std@@@3@$0A@@std@@@std@@IAEAAPAU_Node@?$_Tree_nod@V?$_Tmap_traits@_JUtagAGGRO@@U?$less@_J@std@@V?$allocator@U?$pair@$$CB_JUtagAGGRO@@@std@@@3@$0A@@std@@@2@XZ PROC NEAR ; std::_Tree<std::_Tmap_traits<__int64,tagAGGRO,std::less<__int64>,std::allocator<std::pair<__int64 const ,tagAGGRO> >,0> >::_Lmost, COMDAT
; _this$ = ecx

; 1005 : 		return (_Left(_Myhead));

  00000	8b 41 04	 mov	 eax, DWORD PTR [ecx+4]

; 1006 : 		}

  00003	c3		 ret	 0
?_Lmost@?$_Tree@V?$_Tmap_traits@_JUtagAGGRO@@U?$less@_J@std@@V?$allocator@U?$pair@$$CB_JUtagAGGRO@@@std@@@3@$0A@@std@@@std@@IAEAAPAU_Node@?$_Tree_nod@V?$_Tmap_traits@_JUtagAGGRO@@U?$less@_J@std@@V?$allocator@U?$pair@$$CB_JUtagAGGRO@@@std@@@3@$0A@@std@@@2@XZ ENDP ; std::_Tree<std::_Tmap_traits<__int64,tagAGGRO,std::less<__int64>,std::allocator<std::pair<__int64 const ,tagAGGRO> >,0> >::_Lmost
_TEXT	ENDS
PUBLIC	?_Rmost@?$_Tree@V?$_Tmap_traits@_JUtagAGGRO@@U?$less@_J@std@@V?$allocator@U?$pair@$$CB_JUtagAGGRO@@@std@@@3@$0A@@std@@@std@@IAEAAPAU_Node@?$_Tree_nod@V?$_Tmap_traits@_JUtagAGGRO@@U?$less@_J@std@@V?$allocator@U?$pair@$$CB_JUtagAGGRO@@@std@@@3@$0A@@std@@@2@XZ ; std::_Tree<std::_Tmap_traits<__int64,tagAGGRO,std::less<__int64>,std::allocator<std::pair<__int64 const ,tagAGGRO> >,0> >::_Rmost
; Function compile flags: /Ogty
;	COMDAT ?_Rmost@?$_Tree@V?$_Tmap_traits@_JUtagAGGRO@@U?$less@_J@std@@V?$allocator@U?$pair@$$CB_JUtagAGGRO@@@std@@@3@$0A@@std@@@std@@IAEAAPAU_Node@?$_Tree_nod@V?$_Tmap_traits@_JUtagAGGRO@@U?$less@_J@std@@V?$allocator@U?$pair@$$CB_JUtagAGGRO@@@std@@@3@$0A@@std@@@2@XZ
_TEXT	SEGMENT
?_Rmost@?$_Tree@V?$_Tmap_traits@_JUtagAGGRO@@U?$less@_J@std@@V?$allocator@U?$pair@$$CB_JUtagAGGRO@@@std@@@3@$0A@@std@@@std@@IAEAAPAU_Node@?$_Tree_nod@V?$_Tmap_traits@_JUtagAGGRO@@U?$less@_J@std@@V?$allocator@U?$pair@$$CB_JUtagAGGRO@@@std@@@3@$0A@@std@@@2@XZ PROC NEAR ; std::_Tree<std::_Tmap_traits<__int64,tagAGGRO,std::less<__int64>,std::allocator<std::pair<__int64 const ,tagAGGRO> >,0> >::_Rmost, COMDAT
; _this$ = ecx

; 1049 : 		return (_Right(_Myhead));

  00000	8b 41 04	 mov	 eax, DWORD PTR [ecx+4]
  00003	83 c0 08	 add	 eax, 8

; 1050 : 		}

  00006	c3		 ret	 0
?_Rmost@?$_Tree@V?$_Tmap_traits@_JUtagAGGRO@@U?$less@_J@std@@V?$allocator@U?$pair@$$CB_JUtagAGGRO@@@std@@@3@$0A@@std@@@std@@IAEAAPAU_Node@?$_Tree_nod@V?$_Tmap_traits@_JUtagAGGRO@@U?$less@_J@std@@V?$allocator@U?$pair@$$CB_JUtagAGGRO@@@std@@@3@$0A@@std@@@2@XZ ENDP ; std::_Tree<std::_Tmap_traits<__int64,tagAGGRO,std::less<__int64>,std::allocator<std::pair<__int64 const ,tagAGGRO> >,0> >::_Rmost
_TEXT	ENDS
PUBLIC	?_Root@?$_Tree@V?$_Tmap_traits@_JUtagAGGRO@@U?$less@_J@std@@V?$allocator@U?$pair@$$CB_JUtagAGGRO@@@std@@@3@$0A@@std@@@std@@IAEAAPAU_Node@?$_Tree_nod@V?$_Tmap_traits@_JUtagAGGRO@@U?$less@_J@std@@V?$allocator@U?$pair@$$CB_JUtagAGGRO@@@std@@@3@$0A@@std@@@2@XZ ; std::_Tree<std::_Tmap_traits<__int64,tagAGGRO,std::less<__int64>,std::allocator<std::pair<__int64 const ,tagAGGRO> >,0> >::_Root
; Function compile flags: /Ogty
;	COMDAT ?_Root@?$_Tree@V?$_Tmap_traits@_JUtagAGGRO@@U?$less@_J@std@@V?$allocator@U?$pair@$$CB_JUtagAGGRO@@@std@@@3@$0A@@std@@@std@@IAEAAPAU_Node@?$_Tree_nod@V?$_Tmap_traits@_JUtagAGGRO@@U?$less@_J@std@@V?$allocator@U?$pair@$$CB_JUtagAGGRO@@@std@@@3@$0A@@std@@@2@XZ
_TEXT	SEGMENT
?_Root@?$_Tree@V?$_Tmap_traits@_JUtagAGGRO@@U?$less@_J@std@@V?$allocator@U?$pair@$$CB_JUtagAGGRO@@@std@@@3@$0A@@std@@@std@@IAEAAPAU_Node@?$_Tree_nod@V?$_Tmap_traits@_JUtagAGGRO@@U?$less@_J@std@@V?$allocator@U?$pair@$$CB_JUtagAGGRO@@@std@@@3@$0A@@std@@@2@XZ PROC NEAR ; std::_Tree<std::_Tmap_traits<__int64,tagAGGRO,std::less<__int64>,std::allocator<std::pair<__int64 const ,tagAGGRO> >,0> >::_Root, COMDAT
; _this$ = ecx

; 1059 : 		return (_Parent(_Myhead));

  00000	8b 41 04	 mov	 eax, DWORD PTR [ecx+4]
  00003	83 c0 04	 add	 eax, 4

; 1060 : 		}

  00006	c3		 ret	 0
?_Root@?$_Tree@V?$_Tmap_traits@_JUtagAGGRO@@U?$less@_J@std@@V?$allocator@U?$pair@$$CB_JUtagAGGRO@@@std@@@3@$0A@@std@@@std@@IAEAAPAU_Node@?$_Tree_nod@V?$_Tmap_traits@_JUtagAGGRO@@U?$less@_J@std@@V?$allocator@U?$pair@$$CB_JUtagAGGRO@@@std@@@3@$0A@@std@@@2@XZ ENDP ; std::_Tree<std::_Tmap_traits<__int64,tagAGGRO,std::less<__int64>,std::allocator<std::pair<__int64 const ,tagAGGRO> >,0> >::_Root
_TEXT	ENDS
PUBLIC	?_Lmost@?$_Tree@V?$_Tmap_traits@EPAVCTItem@@U?$less@E@std@@V?$allocator@U?$pair@$$CBEPAVCTItem@@@std@@@3@$0A@@std@@@std@@IAEAAPAU_Node@?$_Tree_nod@V?$_Tmap_traits@EPAVCTItem@@U?$less@E@std@@V?$allocator@U?$pair@$$CBEPAVCTItem@@@std@@@3@$0A@@std@@@2@XZ ; std::_Tree<std::_Tmap_traits<unsigned char,CTItem *,std::less<unsigned char>,std::allocator<std::pair<unsigned char const ,CTItem *> >,0> >::_Lmost
; Function compile flags: /Ogty
;	COMDAT ?_Lmost@?$_Tree@V?$_Tmap_traits@EPAVCTItem@@U?$less@E@std@@V?$allocator@U?$pair@$$CBEPAVCTItem@@@std@@@3@$0A@@std@@@std@@IAEAAPAU_Node@?$_Tree_nod@V?$_Tmap_traits@EPAVCTItem@@U?$less@E@std@@V?$allocator@U?$pair@$$CBEPAVCTItem@@@std@@@3@$0A@@std@@@2@XZ
_TEXT	SEGMENT
?_Lmost@?$_Tree@V?$_Tmap_traits@EPAVCTItem@@U?$less@E@std@@V?$allocator@U?$pair@$$CBEPAVCTItem@@@std@@@3@$0A@@std@@@std@@IAEAAPAU_Node@?$_Tree_nod@V?$_Tmap_traits@EPAVCTItem@@U?$less@E@std@@V?$allocator@U?$pair@$$CBEPAVCTItem@@@std@@@3@$0A@@std@@@2@XZ PROC NEAR ; std::_Tree<std::_Tmap_traits<unsigned char,CTItem *,std::less<unsigned char>,std::allocator<std::pair<unsigned char const ,CTItem *> >,0> >::_Lmost, COMDAT
; _this$ = ecx

; 1005 : 		return (_Left(_Myhead));

  00000	8b 41 04	 mov	 eax, DWORD PTR [ecx+4]

; 1006 : 		}

  00003	c3		 ret	 0
?_Lmost@?$_Tree@V?$_Tmap_traits@EPAVCTItem@@U?$less@E@std@@V?$allocator@U?$pair@$$CBEPAVCTItem@@@std@@@3@$0A@@std@@@std@@IAEAAPAU_Node@?$_Tree_nod@V?$_Tmap_traits@EPAVCTItem@@U?$less@E@std@@V?$allocator@U?$pair@$$CBEPAVCTItem@@@std@@@3@$0A@@std@@@2@XZ ENDP ; std::_Tree<std::_Tmap_traits<unsigned char,CTItem *,std::less<unsigned char>,std::allocator<std::pair<unsigned char const ,CTItem *> >,0> >::_Lmost
_TEXT	ENDS
PUBLIC	?_Rmost@?$_Tree@V?$_Tmap_traits@EPAVCTItem@@U?$less@E@std@@V?$allocator@U?$pair@$$CBEPAVCTItem@@@std@@@3@$0A@@std@@@std@@IAEAAPAU_Node@?$_Tree_nod@V?$_Tmap_traits@EPAVCTItem@@U?$less@E@std@@V?$allocator@U?$pair@$$CBEPAVCTItem@@@std@@@3@$0A@@std@@@2@XZ ; std::_Tree<std::_Tmap_traits<unsigned char,CTItem *,std::less<unsigned char>,std::allocator<std::pair<unsigned char const ,CTItem *> >,0> >::_Rmost
; Function compile flags: /Ogty
;	COMDAT ?_Rmost@?$_Tree@V?$_Tmap_traits@EPAVCTItem@@U?$less@E@std@@V?$allocator@U?$pair@$$CBEPAVCTItem@@@std@@@3@$0A@@std@@@std@@IAEAAPAU_Node@?$_Tree_nod@V?$_Tmap_traits@EPAVCTItem@@U?$less@E@std@@V?$allocator@U?$pair@$$CBEPAVCTItem@@@std@@@3@$0A@@std@@@2@XZ
_TEXT	SEGMENT
?_Rmost@?$_Tree@V?$_Tmap_traits@EPAVCTItem@@U?$less@E@std@@V?$allocator@U?$pair@$$CBEPAVCTItem@@@std@@@3@$0A@@std@@@std@@IAEAAPAU_Node@?$_Tree_nod@V?$_Tmap_traits@EPAVCTItem@@U?$less@E@std@@V?$allocator@U?$pair@$$CBEPAVCTItem@@@std@@@3@$0A@@std@@@2@XZ PROC NEAR ; std::_Tree<std::_Tmap_traits<unsigned char,CTItem *,std::less<unsigned char>,std::allocator<std::pair<unsigned char const ,CTItem *> >,0> >::_Rmost, COMDAT
; _this$ = ecx

; 1049 : 		return (_Right(_Myhead));

  00000	8b 41 04	 mov	 eax, DWORD PTR [ecx+4]
  00003	83 c0 08	 add	 eax, 8

; 1050 : 		}

  00006	c3		 ret	 0
?_Rmost@?$_Tree@V?$_Tmap_traits@EPAVCTItem@@U?$less@E@std@@V?$allocator@U?$pair@$$CBEPAVCTItem@@@std@@@3@$0A@@std@@@std@@IAEAAPAU_Node@?$_Tree_nod@V?$_Tmap_traits@EPAVCTItem@@U?$less@E@std@@V?$allocator@U?$pair@$$CBEPAVCTItem@@@std@@@3@$0A@@std@@@2@XZ ENDP ; std::_Tree<std::_Tmap_traits<unsigned char,CTItem *,std::less<unsigned char>,std::allocator<std::pair<unsigned char const ,CTItem *> >,0> >::_Rmost
_TEXT	ENDS
PUBLIC	?_Root@?$_Tree@V?$_Tmap_traits@EPAVCTItem@@U?$less@E@std@@V?$allocator@U?$pair@$$CBEPAVCTItem@@@std@@@3@$0A@@std@@@std@@IAEAAPAU_Node@?$_Tree_nod@V?$_Tmap_traits@EPAVCTItem@@U?$less@E@std@@V?$allocator@U?$pair@$$CBEPAVCTItem@@@std@@@3@$0A@@std@@@2@XZ ; std::_Tree<std::_Tmap_traits<unsigned char,CTItem *,std::less<unsigned char>,std::allocator<std::pair<unsigned char const ,CTItem *> >,0> >::_Root
; Function compile flags: /Ogty
;	COMDAT ?_Root@?$_Tree@V?$_Tmap_traits@EPAVCTItem@@U?$less@E@std@@V?$allocator@U?$pair@$$CBEPAVCTItem@@@std@@@3@$0A@@std@@@std@@IAEAAPAU_Node@?$_Tree_nod@V?$_Tmap_traits@EPAVCTItem@@U?$less@E@std@@V?$allocator@U?$pair@$$CBEPAVCTItem@@@std@@@3@$0A@@std@@@2@XZ
_TEXT	SEGMENT
?_Root@?$_Tree@V?$_Tmap_traits@EPAVCTItem@@U?$less@E@std@@V?$allocator@U?$pair@$$CBEPAVCTItem@@@std@@@3@$0A@@std@@@std@@IAEAAPAU_Node@?$_Tree_nod@V?$_Tmap_traits@EPAVCTItem@@U?$less@E@std@@V?$allocator@U?$pair@$$CBEPAVCTItem@@@std@@@3@$0A@@std@@@2@XZ PROC NEAR ; std::_Tree<std::_Tmap_traits<unsigned char,CTItem *,std::less<unsigned char>,std::allocator<std::pair<unsigned char const ,CTItem *> >,0> >::_Root, COMDAT
; _this$ = ecx

; 1059 : 		return (_Parent(_Myhead));

  00000	8b 41 04	 mov	 eax, DWORD PTR [ecx+4]
  00003	83 c0 04	 add	 eax, 4

; 1060 : 		}

  00006	c3		 ret	 0
?_Root@?$_Tree@V?$_Tmap_traits@EPAVCTItem@@U?$less@E@std@@V?$allocator@U?$pair@$$CBEPAVCTItem@@@std@@@3@$0A@@std@@@std@@IAEAAPAU_Node@?$_Tree_nod@V?$_Tmap_traits@EPAVCTItem@@U?$less@E@std@@V?$allocator@U?$pair@$$CBEPAVCTItem@@@std@@@3@$0A@@std@@@2@XZ ENDP ; std::_Tree<std::_Tmap_traits<unsigned char,CTItem *,std::less<unsigned char>,std::allocator<std::pair<unsigned char const ,CTItem *> >,0> >::_Root
_TEXT	ENDS
PUBLIC	??0iterator@?$_Tree@V?$_Tmap_traits@EPAVCTItem@@U?$less@E@std@@V?$allocator@U?$pair@$$CBEPAVCTItem@@@std@@@3@$0A@@std@@@std@@QAE@PAU_Node@?$_Tree_nod@V?$_Tmap_traits@EPAVCTItem@@U?$less@E@std@@V?$allocator@U?$pair@$$CBEPAVCTItem@@@std@@@3@$0A@@std@@@2@@Z ; std::_Tree<std::_Tmap_traits<unsigned char,CTItem *,std::less<unsigned char>,std::allocator<std::pair<unsigned char const ,CTItem *> >,0> >::iterator::iterator
; Function compile flags: /Ogty
;	COMDAT ??0iterator@?$_Tree@V?$_Tmap_traits@EPAVCTItem@@U?$less@E@std@@V?$allocator@U?$pair@$$CBEPAVCTItem@@@std@@@3@$0A@@std@@@std@@QAE@PAU_Node@?$_Tree_nod@V?$_Tmap_traits@EPAVCTItem@@U?$less@E@std@@V?$allocator@U?$pair@$$CBEPAVCTItem@@@std@@@3@$0A@@std@@@2@@Z
_TEXT	SEGMENT
__Pnode$ = 8						; size = 4
??0iterator@?$_Tree@V?$_Tmap_traits@EPAVCTItem@@U?$less@E@std@@V?$allocator@U?$pair@$$CBEPAVCTItem@@@std@@@3@$0A@@std@@@std@@QAE@PAU_Node@?$_Tree_nod@V?$_Tmap_traits@EPAVCTItem@@U?$less@E@std@@V?$allocator@U?$pair@$$CBEPAVCTItem@@@std@@@3@$0A@@std@@@2@@Z PROC NEAR ; std::_Tree<std::_Tmap_traits<unsigned char,CTItem *,std::less<unsigned char>,std::allocator<std::pair<unsigned char const ,CTItem *> >,0> >::iterator::iterator, COMDAT
; _this$ = ecx

; 312  : 			{	// construct with node pointer _Pnode

  00000	8b c1		 mov	 eax, ecx
  00002	8b 4c 24 04	 mov	 ecx, DWORD PTR __Pnode$[esp-4]
  00006	89 08		 mov	 DWORD PTR [eax], ecx

; 313  : 			}

  00008	c2 04 00	 ret	 4
??0iterator@?$_Tree@V?$_Tmap_traits@EPAVCTItem@@U?$less@E@std@@V?$allocator@U?$pair@$$CBEPAVCTItem@@@std@@@3@$0A@@std@@@std@@QAE@PAU_Node@?$_Tree_nod@V?$_Tmap_traits@EPAVCTItem@@U?$less@E@std@@V?$allocator@U?$pair@$$CBEPAVCTItem@@@std@@@3@$0A@@std@@@2@@Z ENDP ; std::_Tree<std::_Tmap_traits<unsigned char,CTItem *,std::less<unsigned char>,std::allocator<std::pair<unsigned char const ,CTItem *> >,0> >::iterator::iterator
_TEXT	ENDS
PUBLIC	??Dconst_iterator@?$_Tree@V?$_Tmap_traits@EPAVCTItem@@U?$less@E@std@@V?$allocator@U?$pair@$$CBEPAVCTItem@@@std@@@3@$0A@@std@@@std@@QBEABU?$pair@$$CBEPAVCTItem@@@2@XZ ; std::_Tree<std::_Tmap_traits<unsigned char,CTItem *,std::less<unsigned char>,std::allocator<std::pair<unsigned char const ,CTItem *> >,0> >::const_iterator::operator*
; Function compile flags: /Ogty
;	COMDAT ??Dconst_iterator@?$_Tree@V?$_Tmap_traits@EPAVCTItem@@U?$less@E@std@@V?$allocator@U?$pair@$$CBEPAVCTItem@@@std@@@3@$0A@@std@@@std@@QBEABU?$pair@$$CBEPAVCTItem@@@2@XZ
_TEXT	SEGMENT
??Dconst_iterator@?$_Tree@V?$_Tmap_traits@EPAVCTItem@@U?$less@E@std@@V?$allocator@U?$pair@$$CBEPAVCTItem@@@std@@@3@$0A@@std@@@std@@QBEABU?$pair@$$CBEPAVCTItem@@@2@XZ PROC NEAR ; std::_Tree<std::_Tmap_traits<unsigned char,CTItem *,std::less<unsigned char>,std::allocator<std::pair<unsigned char const ,CTItem *> >,0> >::const_iterator::operator*, COMDAT
; _this$ = ecx

; 205  : 			return (_Myval(_Ptr));

  00000	8b 01		 mov	 eax, DWORD PTR [ecx]
  00002	83 c0 0c	 add	 eax, 12			; 0000000cH

; 206  : 			}

  00005	c3		 ret	 0
??Dconst_iterator@?$_Tree@V?$_Tmap_traits@EPAVCTItem@@U?$less@E@std@@V?$allocator@U?$pair@$$CBEPAVCTItem@@@std@@@3@$0A@@std@@@std@@QBEABU?$pair@$$CBEPAVCTItem@@@2@XZ ENDP ; std::_Tree<std::_Tmap_traits<unsigned char,CTItem *,std::less<unsigned char>,std::allocator<std::pair<unsigned char const ,CTItem *> >,0> >::const_iterator::operator*
_TEXT	ENDS
PUBLIC	??0iterator@?$_Tree@V?$_Tmap_traits@GPAVCTSkill@@U?$less@G@std@@V?$allocator@U?$pair@$$CBGPAVCTSkill@@@std@@@3@$0A@@std@@@std@@QAE@PAU_Node@?$_Tree_nod@V?$_Tmap_traits@GPAVCTSkill@@U?$less@G@std@@V?$allocator@U?$pair@$$CBGPAVCTSkill@@@std@@@3@$0A@@std@@@2@@Z ; std::_Tree<std::_Tmap_traits<unsigned short,CTSkill *,std::less<unsigned short>,std::allocator<std::pair<unsigned short const ,CTSkill *> >,0> >::iterator::iterator
; Function compile flags: /Ogty
;	COMDAT ??0iterator@?$_Tree@V?$_Tmap_traits@GPAVCTSkill@@U?$less@G@std@@V?$allocator@U?$pair@$$CBGPAVCTSkill@@@std@@@3@$0A@@std@@@std@@QAE@PAU_Node@?$_Tree_nod@V?$_Tmap_traits@GPAVCTSkill@@U?$less@G@std@@V?$allocator@U?$pair@$$CBGPAVCTSkill@@@std@@@3@$0A@@std@@@2@@Z
_TEXT	SEGMENT
__Pnode$ = 8						; size = 4
??0iterator@?$_Tree@V?$_Tmap_traits@GPAVCTSkill@@U?$less@G@std@@V?$allocator@U?$pair@$$CBGPAVCTSkill@@@std@@@3@$0A@@std@@@std@@QAE@PAU_Node@?$_Tree_nod@V?$_Tmap_traits@GPAVCTSkill@@U?$less@G@std@@V?$allocator@U?$pair@$$CBGPAVCTSkill@@@std@@@3@$0A@@std@@@2@@Z PROC NEAR ; std::_Tree<std::_Tmap_traits<unsigned short,CTSkill *,std::less<unsigned short>,std::allocator<std::pair<unsigned short const ,CTSkill *> >,0> >::iterator::iterator, COMDAT
; _this$ = ecx

; 312  : 			{	// construct with node pointer _Pnode

  00000	8b c1		 mov	 eax, ecx
  00002	8b 4c 24 04	 mov	 ecx, DWORD PTR __Pnode$[esp-4]
  00006	89 08		 mov	 DWORD PTR [eax], ecx

; 313  : 			}

  00008	c2 04 00	 ret	 4
??0iterator@?$_Tree@V?$_Tmap_traits@GPAVCTSkill@@U?$less@G@std@@V?$allocator@U?$pair@$$CBGPAVCTSkill@@@std@@@3@$0A@@std@@@std@@QAE@PAU_Node@?$_Tree_nod@V?$_Tmap_traits@GPAVCTSkill@@U?$less@G@std@@V?$allocator@U?$pair@$$CBGPAVCTSkill@@@std@@@3@$0A@@std@@@2@@Z ENDP ; std::_Tree<std::_Tmap_traits<unsigned short,CTSkill *,std::less<unsigned short>,std::allocator<std::pair<unsigned short const ,CTSkill *> >,0> >::iterator::iterator
_TEXT	ENDS
PUBLIC	??Dconst_iterator@?$_Tree@V?$_Tmap_traits@GPAVCTSkill@@U?$less@G@std@@V?$allocator@U?$pair@$$CBGPAVCTSkill@@@std@@@3@$0A@@std@@@std@@QBEABU?$pair@$$CBGPAVCTSkill@@@2@XZ ; std::_Tree<std::_Tmap_traits<unsigned short,CTSkill *,std::less<unsigned short>,std::allocator<std::pair<unsigned short const ,CTSkill *> >,0> >::const_iterator::operator*
; Function compile flags: /Ogty
;	COMDAT ??Dconst_iterator@?$_Tree@V?$_Tmap_traits@GPAVCTSkill@@U?$less@G@std@@V?$allocator@U?$pair@$$CBGPAVCTSkill@@@std@@@3@$0A@@std@@@std@@QBEABU?$pair@$$CBGPAVCTSkill@@@2@XZ
_TEXT	SEGMENT
??Dconst_iterator@?$_Tree@V?$_Tmap_traits@GPAVCTSkill@@U?$less@G@std@@V?$allocator@U?$pair@$$CBGPAVCTSkill@@@std@@@3@$0A@@std@@@std@@QBEABU?$pair@$$CBGPAVCTSkill@@@2@XZ PROC NEAR ; std::_Tree<std::_Tmap_traits<unsigned short,CTSkill *,std::less<unsigned short>,std::allocator<std::pair<unsigned short const ,CTSkill *> >,0> >::const_iterator::operator*, COMDAT
; _this$ = ecx

; 205  : 			return (_Myval(_Ptr));

  00000	8b 01		 mov	 eax, DWORD PTR [ecx]
  00002	83 c0 0c	 add	 eax, 12			; 0000000cH

; 206  : 			}

  00005	c3		 ret	 0
??Dconst_iterator@?$_Tree@V?$_Tmap_traits@GPAVCTSkill@@U?$less@G@std@@V?$allocator@U?$pair@$$CBGPAVCTSkill@@@std@@@3@$0A@@std@@@std@@QBEABU?$pair@$$CBGPAVCTSkill@@@2@XZ ENDP ; std::_Tree<std::_Tmap_traits<unsigned short,CTSkill *,std::less<unsigned short>,std::allocator<std::pair<unsigned short const ,CTSkill *> >,0> >::const_iterator::operator*
_TEXT	ENDS
PUBLIC	?destroy@?$allocator@U_Node@?$_Tree_nod@V?$_Tmap_traits@KKU?$less@K@std@@V?$allocator@U?$pair@$$CBKK@std@@@2@$0A@@std@@@std@@@std@@QAEXPAU_Node@?$_Tree_nod@V?$_Tmap_traits@KKU?$less@K@std@@V?$allocator@U?$pair@$$CBKK@std@@@2@$0A@@std@@@2@@Z ; std::allocator<std::_Tree_nod<std::_Tmap_traits<unsigned long,unsigned long,std::less<unsigned long>,std::allocator<std::pair<unsigned long const ,unsigned long> >,0> >::_Node>::destroy
; Function compile flags: /Ogty
; File c:\program files (x86)\microsoft visual studio .net 2003\vc7\include\xmemory
;	COMDAT ?destroy@?$allocator@U_Node@?$_Tree_nod@V?$_Tmap_traits@KKU?$less@K@std@@V?$allocator@U?$pair@$$CBKK@std@@@2@$0A@@std@@@std@@@std@@QAEXPAU_Node@?$_Tree_nod@V?$_Tmap_traits@KKU?$less@K@std@@V?$allocator@U?$pair@$$CBKK@std@@@2@$0A@@std@@@2@@Z
_TEXT	SEGMENT
__Ptr$ = 8						; size = 4
?destroy@?$allocator@U_Node@?$_Tree_nod@V?$_Tmap_traits@KKU?$less@K@std@@V?$allocator@U?$pair@$$CBKK@std@@@2@$0A@@std@@@std@@@std@@QAEXPAU_Node@?$_Tree_nod@V?$_Tmap_traits@KKU?$less@K@std@@V?$allocator@U?$pair@$$CBKK@std@@@2@$0A@@std@@@2@@Z PROC NEAR ; std::allocator<std::_Tree_nod<std::_Tmap_traits<unsigned long,unsigned long,std::less<unsigned long>,std::allocator<std::pair<unsigned long const ,unsigned long> >,0> >::_Node>::destroy, COMDAT
; _this$ = ecx

; 152  : 		_Destroy(_Ptr);
; 153  : 		}

  00000	c2 04 00	 ret	 4
?destroy@?$allocator@U_Node@?$_Tree_nod@V?$_Tmap_traits@KKU?$less@K@std@@V?$allocator@U?$pair@$$CBKK@std@@@2@$0A@@std@@@std@@@std@@QAEXPAU_Node@?$_Tree_nod@V?$_Tmap_traits@KKU?$less@K@std@@V?$allocator@U?$pair@$$CBKK@std@@@2@$0A@@std@@@2@@Z ENDP ; std::allocator<std::_Tree_nod<std::_Tmap_traits<unsigned long,unsigned long,std::less<unsigned long>,std::allocator<std::pair<unsigned long const ,unsigned long> >,0> >::_Node>::destroy
_TEXT	ENDS
PUBLIC	?destroy@?$allocator@U_Node@?$_Tree_nod@V?$_Tmap_traits@GPAVCTSkill@@U?$less@G@std@@V?$allocator@U?$pair@$$CBGPAVCTSkill@@@std@@@3@$0A@@std@@@std@@@std@@QAEXPAU_Node@?$_Tree_nod@V?$_Tmap_traits@GPAVCTSkill@@U?$less@G@std@@V?$allocator@U?$pair@$$CBGPAVCTSkill@@@std@@@3@$0A@@std@@@2@@Z ; std::allocator<std::_Tree_nod<std::_Tmap_traits<unsigned short,CTSkill *,std::less<unsigned short>,std::allocator<std::pair<unsigned short const ,CTSkill *> >,0> >::_Node>::destroy
; Function compile flags: /Ogty
;	COMDAT ?destroy@?$allocator@U_Node@?$_Tree_nod@V?$_Tmap_traits@GPAVCTSkill@@U?$less@G@std@@V?$allocator@U?$pair@$$CBGPAVCTSkill@@@std@@@3@$0A@@std@@@std@@@std@@QAEXPAU_Node@?$_Tree_nod@V?$_Tmap_traits@GPAVCTSkill@@U?$less@G@std@@V?$allocator@U?$pair@$$CBGPAVCTSkill@@@std@@@3@$0A@@std@@@2@@Z
_TEXT	SEGMENT
__Ptr$ = 8						; size = 4
?destroy@?$allocator@U_Node@?$_Tree_nod@V?$_Tmap_traits@GPAVCTSkill@@U?$less@G@std@@V?$allocator@U?$pair@$$CBGPAVCTSkill@@@std@@@3@$0A@@std@@@std@@@std@@QAEXPAU_Node@?$_Tree_nod@V?$_Tmap_traits@GPAVCTSkill@@U?$less@G@std@@V?$allocator@U?$pair@$$CBGPAVCTSkill@@@std@@@3@$0A@@std@@@2@@Z PROC NEAR ; std::allocator<std::_Tree_nod<std::_Tmap_traits<unsigned short,CTSkill *,std::less<unsigned short>,std::allocator<std::pair<unsigned short const ,CTSkill *> >,0> >::_Node>::destroy, COMDAT
; _this$ = ecx

; 152  : 		_Destroy(_Ptr);
; 153  : 		}

  00000	c2 04 00	 ret	 4
?destroy@?$allocator@U_Node@?$_Tree_nod@V?$_Tmap_traits@GPAVCTSkill@@U?$less@G@std@@V?$allocator@U?$pair@$$CBGPAVCTSkill@@@std@@@3@$0A@@std@@@std@@@std@@QAEXPAU_Node@?$_Tree_nod@V?$_Tmap_traits@GPAVCTSkill@@U?$less@G@std@@V?$allocator@U?$pair@$$CBGPAVCTSkill@@@std@@@3@$0A@@std@@@2@@Z ENDP ; std::allocator<std::_Tree_nod<std::_Tmap_traits<unsigned short,CTSkill *,std::less<unsigned short>,std::allocator<std::pair<unsigned short const ,CTSkill *> >,0> >::_Node>::destroy
_TEXT	ENDS
PUBLIC	?destroy@?$allocator@U_Node@?$_Tree_nod@V?$_Tmap_traits@_J_JU?$less@_J@std@@V?$allocator@U?$pair@$$CB_J_J@std@@@2@$0A@@std@@@std@@@std@@QAEXPAU_Node@?$_Tree_nod@V?$_Tmap_traits@_J_JU?$less@_J@std@@V?$allocator@U?$pair@$$CB_J_J@std@@@2@$0A@@std@@@2@@Z ; std::allocator<std::_Tree_nod<std::_Tmap_traits<__int64,__int64,std::less<__int64>,std::allocator<std::pair<__int64 const ,__int64> >,0> >::_Node>::destroy
; Function compile flags: /Ogty
;	COMDAT ?destroy@?$allocator@U_Node@?$_Tree_nod@V?$_Tmap_traits@_J_JU?$less@_J@std@@V?$allocator@U?$pair@$$CB_J_J@std@@@2@$0A@@std@@@std@@@std@@QAEXPAU_Node@?$_Tree_nod@V?$_Tmap_traits@_J_JU?$less@_J@std@@V?$allocator@U?$pair@$$CB_J_J@std@@@2@$0A@@std@@@2@@Z
_TEXT	SEGMENT
__Ptr$ = 8						; size = 4
?destroy@?$allocator@U_Node@?$_Tree_nod@V?$_Tmap_traits@_J_JU?$less@_J@std@@V?$allocator@U?$pair@$$CB_J_J@std@@@2@$0A@@std@@@std@@@std@@QAEXPAU_Node@?$_Tree_nod@V?$_Tmap_traits@_J_JU?$less@_J@std@@V?$allocator@U?$pair@$$CB_J_J@std@@@2@$0A@@std@@@2@@Z PROC NEAR ; std::allocator<std::_Tree_nod<std::_Tmap_traits<__int64,__int64,std::less<__int64>,std::allocator<std::pair<__int64 const ,__int64> >,0> >::_Node>::destroy, COMDAT
; _this$ = ecx

; 152  : 		_Destroy(_Ptr);
; 153  : 		}

  00000	c2 04 00	 ret	 4
?destroy@?$allocator@U_Node@?$_Tree_nod@V?$_Tmap_traits@_J_JU?$less@_J@std@@V?$allocator@U?$pair@$$CB_J_J@std@@@2@$0A@@std@@@std@@@std@@QAEXPAU_Node@?$_Tree_nod@V?$_Tmap_traits@_J_JU?$less@_J@std@@V?$allocator@U?$pair@$$CB_J_J@std@@@2@$0A@@std@@@2@@Z ENDP ; std::allocator<std::_Tree_nod<std::_Tmap_traits<__int64,__int64,std::less<__int64>,std::allocator<std::pair<__int64 const ,__int64> >,0> >::_Node>::destroy
_TEXT	ENDS
PUBLIC	?destroy@?$allocator@U_Node@?$_Tree_nod@V?$_Tmap_traits@_JUtagAGGRO@@U?$less@_J@std@@V?$allocator@U?$pair@$$CB_JUtagAGGRO@@@std@@@3@$0A@@std@@@std@@@std@@QAEXPAU_Node@?$_Tree_nod@V?$_Tmap_traits@_JUtagAGGRO@@U?$less@_J@std@@V?$allocator@U?$pair@$$CB_JUtagAGGRO@@@std@@@3@$0A@@std@@@2@@Z ; std::allocator<std::_Tree_nod<std::_Tmap_traits<__int64,tagAGGRO,std::less<__int64>,std::allocator<std::pair<__int64 const ,tagAGGRO> >,0> >::_Node>::destroy
; Function compile flags: /Ogty
;	COMDAT ?destroy@?$allocator@U_Node@?$_Tree_nod@V?$_Tmap_traits@_JUtagAGGRO@@U?$less@_J@std@@V?$allocator@U?$pair@$$CB_JUtagAGGRO@@@std@@@3@$0A@@std@@@std@@@std@@QAEXPAU_Node@?$_Tree_nod@V?$_Tmap_traits@_JUtagAGGRO@@U?$less@_J@std@@V?$allocator@U?$pair@$$CB_JUtagAGGRO@@@std@@@3@$0A@@std@@@2@@Z
_TEXT	SEGMENT
__Ptr$ = 8						; size = 4
?destroy@?$allocator@U_Node@?$_Tree_nod@V?$_Tmap_traits@_JUtagAGGRO@@U?$less@_J@std@@V?$allocator@U?$pair@$$CB_JUtagAGGRO@@@std@@@3@$0A@@std@@@std@@@std@@QAEXPAU_Node@?$_Tree_nod@V?$_Tmap_traits@_JUtagAGGRO@@U?$less@_J@std@@V?$allocator@U?$pair@$$CB_JUtagAGGRO@@@std@@@3@$0A@@std@@@2@@Z PROC NEAR ; std::allocator<std::_Tree_nod<std::_Tmap_traits<__int64,tagAGGRO,std::less<__int64>,std::allocator<std::pair<__int64 const ,tagAGGRO> >,0> >::_Node>::destroy, COMDAT
; _this$ = ecx

; 152  : 		_Destroy(_Ptr);
; 153  : 		}

  00000	c2 04 00	 ret	 4
?destroy@?$allocator@U_Node@?$_Tree_nod@V?$_Tmap_traits@_JUtagAGGRO@@U?$less@_J@std@@V?$allocator@U?$pair@$$CB_JUtagAGGRO@@@std@@@3@$0A@@std@@@std@@@std@@QAEXPAU_Node@?$_Tree_nod@V?$_Tmap_traits@_JUtagAGGRO@@U?$less@_J@std@@V?$allocator@U?$pair@$$CB_JUtagAGGRO@@@std@@@3@$0A@@std@@@2@@Z ENDP ; std::allocator<std::_Tree_nod<std::_Tmap_traits<__int64,tagAGGRO,std::less<__int64>,std::allocator<std::pair<__int64 const ,tagAGGRO> >,0> >::_Node>::destroy
_TEXT	ENDS
PUBLIC	?destroy@?$allocator@U_Node@?$_Tree_nod@V?$_Tmap_traits@EPAVCTItem@@U?$less@E@std@@V?$allocator@U?$pair@$$CBEPAVCTItem@@@std@@@3@$0A@@std@@@std@@@std@@QAEXPAU_Node@?$_Tree_nod@V?$_Tmap_traits@EPAVCTItem@@U?$less@E@std@@V?$allocator@U?$pair@$$CBEPAVCTItem@@@std@@@3@$0A@@std@@@2@@Z ; std::allocator<std::_Tree_nod<std::_Tmap_traits<unsigned char,CTItem *,std::less<unsigned char>,std::allocator<std::pair<unsigned char const ,CTItem *> >,0> >::_Node>::destroy
; Function compile flags: /Ogty
;	COMDAT ?destroy@?$allocator@U_Node@?$_Tree_nod@V?$_Tmap_traits@EPAVCTItem@@U?$less@E@std@@V?$allocator@U?$pair@$$CBEPAVCTItem@@@std@@@3@$0A@@std@@@std@@@std@@QAEXPAU_Node@?$_Tree_nod@V?$_Tmap_traits@EPAVCTItem@@U?$less@E@std@@V?$allocator@U?$pair@$$CBEPAVCTItem@@@std@@@3@$0A@@std@@@2@@Z
_TEXT	SEGMENT
__Ptr$ = 8						; size = 4
?destroy@?$allocator@U_Node@?$_Tree_nod@V?$_Tmap_traits@EPAVCTItem@@U?$less@E@std@@V?$allocator@U?$pair@$$CBEPAVCTItem@@@std@@@3@$0A@@std@@@std@@@std@@QAEXPAU_Node@?$_Tree_nod@V?$_Tmap_traits@EPAVCTItem@@U?$less@E@std@@V?$allocator@U?$pair@$$CBEPAVCTItem@@@std@@@3@$0A@@std@@@2@@Z PROC NEAR ; std::allocator<std::_Tree_nod<std::_Tmap_traits<unsigned char,CTItem *,std::less<unsigned char>,std::allocator<std::pair<unsigned char const ,CTItem *> >,0> >::_Node>::destroy, COMDAT
; _this$ = ecx

; 152  : 		_Destroy(_Ptr);
; 153  : 		}

  00000	c2 04 00	 ret	 4
?destroy@?$allocator@U_Node@?$_Tree_nod@V?$_Tmap_traits@EPAVCTItem@@U?$less@E@std@@V?$allocator@U?$pair@$$CBEPAVCTItem@@@std@@@3@$0A@@std@@@std@@@std@@QAEXPAU_Node@?$_Tree_nod@V?$_Tmap_traits@EPAVCTItem@@U?$less@E@std@@V?$allocator@U?$pair@$$CBEPAVCTItem@@@std@@@3@$0A@@std@@@2@@Z ENDP ; std::allocator<std::_Tree_nod<std::_Tmap_traits<unsigned char,CTItem *,std::less<unsigned char>,std::allocator<std::pair<unsigned char const ,CTItem *> >,0> >::_Node>::destroy
_TEXT	ENDS
PUBLIC	?_Inc@const_iterator@?$_Tree@V?$_Tmap_traits@EPAVCTItem@@U?$less@E@std@@V?$allocator@U?$pair@$$CBEPAVCTItem@@@std@@@3@$0A@@std@@@std@@QAEXXZ ; std::_Tree<std::_Tmap_traits<unsigned char,CTItem *,std::less<unsigned char>,std::allocator<std::pair<unsigned char const ,CTItem *> >,0> >::const_iterator::_Inc
; Function compile flags: /Ogty
; File c:\program files (x86)\microsoft visual studio .net 2003\vc7\include\xtree
;	COMDAT ?_Inc@const_iterator@?$_Tree@V?$_Tmap_traits@EPAVCTItem@@U?$less@E@std@@V?$allocator@U?$pair@$$CBEPAVCTItem@@@std@@@3@$0A@@std@@@std@@QAEXXZ
_TEXT	SEGMENT
?_Inc@const_iterator@?$_Tree@V?$_Tmap_traits@EPAVCTItem@@U?$less@E@std@@V?$allocator@U?$pair@$$CBEPAVCTItem@@@std@@@3@$0A@@std@@@std@@QAEXXZ PROC NEAR ; std::_Tree<std::_Tmap_traits<unsigned char,CTItem *,std::less<unsigned char>,std::allocator<std::pair<unsigned char const ,CTItem *> >,0> >::const_iterator::_Inc, COMDAT
; _this$ = ecx

; 268  : 			if (_Isnil(_Ptr))

  00000	8b 01		 mov	 eax, DWORD PTR [ecx]
  00002	8a 50 15	 mov	 dl, BYTE PTR [eax+21]
  00005	84 d2		 test	 dl, dl
  00007	75 4d		 jne	 SHORT $L152849

; 269  : 				;	// end() shouldn't be incremented, don't move
; 270  : 			else if (!_Isnil(_Right(_Ptr)))

  00009	8b 50 08	 mov	 edx, DWORD PTR [eax+8]
  0000c	53		 push	 ebx
  0000d	8a 5a 15	 mov	 bl, BYTE PTR [edx+21]
  00010	84 db		 test	 bl, bl
  00012	75 1b		 jne	 SHORT $L153835

; 271  : 				_Ptr = _Min(_Right(_Ptr));	// ==> smallest of right subtree

  00014	8b 02		 mov	 eax, DWORD PTR [edx]
  00016	8a 58 15	 mov	 bl, BYTE PTR [eax+21]
  00019	84 db		 test	 bl, bl
  0001b	75 0e		 jne	 SHORT $L153823
  0001d	8d 49 00	 npad	 3
$L153822:
  00020	8b d0		 mov	 edx, eax
  00022	8b 02		 mov	 eax, DWORD PTR [edx]
  00024	8a 58 15	 mov	 bl, BYTE PTR [eax+21]
  00027	84 db		 test	 bl, bl
  00029	74 f5		 je	 SHORT $L153822
$L153823:
  0002b	89 11		 mov	 DWORD PTR [ecx], edx
  0002d	5b		 pop	 ebx

; 279  : 				}
; 280  : 			}

  0002e	c3		 ret	 0
$L153835:

; 272  : 			else
; 273  : 				{	// climb looking for right subtree
; 274  : 				_Nodeptr _Pnode;
; 275  : 				while (!_Isnil(_Pnode = _Parent(_Ptr))
; 276  : 					&& _Ptr == _Right(_Pnode))

  0002f	8b 40 04	 mov	 eax, DWORD PTR [eax+4]
  00032	8a 50 15	 mov	 dl, BYTE PTR [eax+21]
  00035	84 d2		 test	 dl, dl
  00037	75 1a		 jne	 SHORT $L152853
  00039	8d a4 24 00 00
	00 00		 npad	 7
$L152852:
  00040	8b 11		 mov	 edx, DWORD PTR [ecx]
  00042	3b 50 08	 cmp	 edx, DWORD PTR [eax+8]
  00045	75 0c		 jne	 SHORT $L152853

; 277  : 					_Ptr = _Pnode;	// ==> parent while right subtree

  00047	89 01		 mov	 DWORD PTR [ecx], eax
  00049	8b 40 04	 mov	 eax, DWORD PTR [eax+4]
  0004c	8a 50 15	 mov	 dl, BYTE PTR [eax+21]
  0004f	84 d2		 test	 dl, dl
  00051	74 ed		 je	 SHORT $L152852
$L152853:

; 278  : 				_Ptr = _Pnode;	// ==> parent (head if end())

  00053	89 01		 mov	 DWORD PTR [ecx], eax
  00055	5b		 pop	 ebx
$L152849:

; 279  : 				}
; 280  : 			}

  00056	c3		 ret	 0
?_Inc@const_iterator@?$_Tree@V?$_Tmap_traits@EPAVCTItem@@U?$less@E@std@@V?$allocator@U?$pair@$$CBEPAVCTItem@@@std@@@3@$0A@@std@@@std@@QAEXXZ ENDP ; std::_Tree<std::_Tmap_traits<unsigned char,CTItem *,std::less<unsigned char>,std::allocator<std::pair<unsigned char const ,CTItem *> >,0> >::const_iterator::_Inc
_TEXT	ENDS
PUBLIC	?_Inc@const_iterator@?$_Tree@V?$_Tmap_traits@GPAVCTSkill@@U?$less@G@std@@V?$allocator@U?$pair@$$CBGPAVCTSkill@@@std@@@3@$0A@@std@@@std@@QAEXXZ ; std::_Tree<std::_Tmap_traits<unsigned short,CTSkill *,std::less<unsigned short>,std::allocator<std::pair<unsigned short const ,CTSkill *> >,0> >::const_iterator::_Inc
; Function compile flags: /Ogty
;	COMDAT ?_Inc@const_iterator@?$_Tree@V?$_Tmap_traits@GPAVCTSkill@@U?$less@G@std@@V?$allocator@U?$pair@$$CBGPAVCTSkill@@@std@@@3@$0A@@std@@@std@@QAEXXZ
_TEXT	SEGMENT
?_Inc@const_iterator@?$_Tree@V?$_Tmap_traits@GPAVCTSkill@@U?$less@G@std@@V?$allocator@U?$pair@$$CBGPAVCTSkill@@@std@@@3@$0A@@std@@@std@@QAEXXZ PROC NEAR ; std::_Tree<std::_Tmap_traits<unsigned short,CTSkill *,std::less<unsigned short>,std::allocator<std::pair<unsigned short const ,CTSkill *> >,0> >::const_iterator::_Inc, COMDAT
; _this$ = ecx

; 268  : 			if (_Isnil(_Ptr))

  00000	8b 01		 mov	 eax, DWORD PTR [ecx]
  00002	8a 50 15	 mov	 dl, BYTE PTR [eax+21]
  00005	84 d2		 test	 dl, dl
  00007	75 4d		 jne	 SHORT $L152859

; 269  : 				;	// end() shouldn't be incremented, don't move
; 270  : 			else if (!_Isnil(_Right(_Ptr)))

  00009	8b 50 08	 mov	 edx, DWORD PTR [eax+8]
  0000c	53		 push	 ebx
  0000d	8a 5a 15	 mov	 bl, BYTE PTR [edx+21]
  00010	84 db		 test	 bl, bl
  00012	75 1b		 jne	 SHORT $L153885

; 271  : 				_Ptr = _Min(_Right(_Ptr));	// ==> smallest of right subtree

  00014	8b 02		 mov	 eax, DWORD PTR [edx]
  00016	8a 58 15	 mov	 bl, BYTE PTR [eax+21]
  00019	84 db		 test	 bl, bl
  0001b	75 0e		 jne	 SHORT $L153873
  0001d	8d 49 00	 npad	 3
$L153872:
  00020	8b d0		 mov	 edx, eax
  00022	8b 02		 mov	 eax, DWORD PTR [edx]
  00024	8a 58 15	 mov	 bl, BYTE PTR [eax+21]
  00027	84 db		 test	 bl, bl
  00029	74 f5		 je	 SHORT $L153872
$L153873:
  0002b	89 11		 mov	 DWORD PTR [ecx], edx
  0002d	5b		 pop	 ebx

; 279  : 				}
; 280  : 			}

  0002e	c3		 ret	 0
$L153885:

; 272  : 			else
; 273  : 				{	// climb looking for right subtree
; 274  : 				_Nodeptr _Pnode;
; 275  : 				while (!_Isnil(_Pnode = _Parent(_Ptr))
; 276  : 					&& _Ptr == _Right(_Pnode))

  0002f	8b 40 04	 mov	 eax, DWORD PTR [eax+4]
  00032	8a 50 15	 mov	 dl, BYTE PTR [eax+21]
  00035	84 d2		 test	 dl, dl
  00037	75 1a		 jne	 SHORT $L152863
  00039	8d a4 24 00 00
	00 00		 npad	 7
$L152862:
  00040	8b 11		 mov	 edx, DWORD PTR [ecx]
  00042	3b 50 08	 cmp	 edx, DWORD PTR [eax+8]
  00045	75 0c		 jne	 SHORT $L152863

; 277  : 					_Ptr = _Pnode;	// ==> parent while right subtree

  00047	89 01		 mov	 DWORD PTR [ecx], eax
  00049	8b 40 04	 mov	 eax, DWORD PTR [eax+4]
  0004c	8a 50 15	 mov	 dl, BYTE PTR [eax+21]
  0004f	84 d2		 test	 dl, dl
  00051	74 ed		 je	 SHORT $L152862
$L152863:

; 278  : 				_Ptr = _Pnode;	// ==> parent (head if end())

  00053	89 01		 mov	 DWORD PTR [ecx], eax
  00055	5b		 pop	 ebx
$L152859:

; 279  : 				}
; 280  : 			}

  00056	c3		 ret	 0
?_Inc@const_iterator@?$_Tree@V?$_Tmap_traits@GPAVCTSkill@@U?$less@G@std@@V?$allocator@U?$pair@$$CBGPAVCTSkill@@@std@@@3@$0A@@std@@@std@@QAEXXZ ENDP ; std::_Tree<std::_Tmap_traits<unsigned short,CTSkill *,std::less<unsigned short>,std::allocator<std::pair<unsigned short const ,CTSkill *> >,0> >::const_iterator::_Inc
_TEXT	ENDS
PUBLIC	??$_Destroy_range@PAVCTSkill@@V?$allocator@PAVCTSkill@@@std@@@std@@YAXPAPAVCTSkill@@0AAV?$allocator@PAVCTSkill@@@0@@Z ; std::_Destroy_range<CTSkill *,std::allocator<CTSkill *> >
; Function compile flags: /Ogty
; File c:\program files (x86)\microsoft visual studio .net 2003\vc7\include\xmemory
;	COMDAT ??$_Destroy_range@PAVCTSkill@@V?$allocator@PAVCTSkill@@@std@@@std@@YAXPAPAVCTSkill@@0AAV?$allocator@PAVCTSkill@@@0@@Z
_TEXT	SEGMENT
__First$ = 8						; size = 4
__Last$ = 12						; size = 4
__Al$ = 16						; size = 4
??$_Destroy_range@PAVCTSkill@@V?$allocator@PAVCTSkill@@@std@@@std@@YAXPAPAVCTSkill@@0AAV?$allocator@PAVCTSkill@@@0@@Z PROC NEAR ; std::_Destroy_range<CTSkill *,std::allocator<CTSkill *> >, COMDAT

; 217  : 	_Destroy_range(_First, _Last, _Al, _Ptr_cat(_First, _Last));
; 218  : 	}

  00000	c3		 ret	 0
??$_Destroy_range@PAVCTSkill@@V?$allocator@PAVCTSkill@@@std@@@std@@YAXPAPAVCTSkill@@0AAV?$allocator@PAVCTSkill@@@0@@Z ENDP ; std::_Destroy_range<CTSkill *,std::allocator<CTSkill *> >
_TEXT	ENDS
PUBLIC	?begin@?$_Tree@V?$_Tmap_traits@GPAVCTSkill@@U?$less@G@std@@V?$allocator@U?$pair@$$CBGPAVCTSkill@@@std@@@3@$0A@@std@@@std@@QAE?AViterator@12@XZ ; std::_Tree<std::_Tmap_traits<unsigned short,CTSkill *,std::less<unsigned short>,std::allocator<std::pair<unsigned short const ,CTSkill *> >,0> >::begin
; Function compile flags: /Ogty
; File c:\program files (x86)\microsoft visual studio .net 2003\vc7\include\xtree
;	COMDAT ?begin@?$_Tree@V?$_Tmap_traits@GPAVCTSkill@@U?$less@G@std@@V?$allocator@U?$pair@$$CBGPAVCTSkill@@@std@@@3@$0A@@std@@@std@@QAE?AViterator@12@XZ
_TEXT	SEGMENT
___$ReturnUdt$ = 8					; size = 4
?begin@?$_Tree@V?$_Tmap_traits@GPAVCTSkill@@U?$less@G@std@@V?$allocator@U?$pair@$$CBGPAVCTSkill@@@std@@@3@$0A@@std@@@std@@QAE?AViterator@12@XZ PROC NEAR ; std::_Tree<std::_Tmap_traits<unsigned short,CTSkill *,std::less<unsigned short>,std::allocator<std::pair<unsigned short const ,CTSkill *> >,0> >::begin, COMDAT
; _this$ = ecx

; 408  : 		return (_TREE_ITERATOR(_Lmost()));

  00000	8b 41 04	 mov	 eax, DWORD PTR [ecx+4]
  00003	8b 08		 mov	 ecx, DWORD PTR [eax]
  00005	8b 44 24 04	 mov	 eax, DWORD PTR ___$ReturnUdt$[esp-4]
  00009	89 08		 mov	 DWORD PTR [eax], ecx

; 409  : 		}

  0000b	c2 04 00	 ret	 4
?begin@?$_Tree@V?$_Tmap_traits@GPAVCTSkill@@U?$less@G@std@@V?$allocator@U?$pair@$$CBGPAVCTSkill@@@std@@@3@$0A@@std@@@std@@QAE?AViterator@12@XZ ENDP ; std::_Tree<std::_Tmap_traits<unsigned short,CTSkill *,std::less<unsigned short>,std::allocator<std::pair<unsigned short const ,CTSkill *> >,0> >::begin
_TEXT	ENDS
PUBLIC	?end@?$_Tree@V?$_Tmap_traits@GPAVCTSkill@@U?$less@G@std@@V?$allocator@U?$pair@$$CBGPAVCTSkill@@@std@@@3@$0A@@std@@@std@@QAE?AViterator@12@XZ ; std::_Tree<std::_Tmap_traits<unsigned short,CTSkill *,std::less<unsigned short>,std::allocator<std::pair<unsigned short const ,CTSkill *> >,0> >::end
; Function compile flags: /Ogty
;	COMDAT ?end@?$_Tree@V?$_Tmap_traits@GPAVCTSkill@@U?$less@G@std@@V?$allocator@U?$pair@$$CBGPAVCTSkill@@@std@@@3@$0A@@std@@@std@@QAE?AViterator@12@XZ
_TEXT	SEGMENT
___$ReturnUdt$ = 8					; size = 4
?end@?$_Tree@V?$_Tmap_traits@GPAVCTSkill@@U?$less@G@std@@V?$allocator@U?$pair@$$CBGPAVCTSkill@@@std@@@3@$0A@@std@@@std@@QAE?AViterator@12@XZ PROC NEAR ; std::_Tree<std::_Tmap_traits<unsigned short,CTSkill *,std::less<unsigned short>,std::allocator<std::pair<unsigned short const ,CTSkill *> >,0> >::end, COMDAT
; _this$ = ecx

; 418  : 		return (_TREE_ITERATOR(_Myhead));

  00000	8b 49 04	 mov	 ecx, DWORD PTR [ecx+4]
  00003	8b 44 24 04	 mov	 eax, DWORD PTR ___$ReturnUdt$[esp-4]
  00007	89 08		 mov	 DWORD PTR [eax], ecx

; 419  : 		}

  00009	c2 04 00	 ret	 4
?end@?$_Tree@V?$_Tmap_traits@GPAVCTSkill@@U?$less@G@std@@V?$allocator@U?$pair@$$CBGPAVCTSkill@@@std@@@3@$0A@@std@@@std@@QAE?AViterator@12@XZ ENDP ; std::_Tree<std::_Tmap_traits<unsigned short,CTSkill *,std::less<unsigned short>,std::allocator<std::pair<unsigned short const ,CTSkill *> >,0> >::end
_TEXT	ENDS
PUBLIC	?begin@?$_Tree@V?$_Tmap_traits@EPAVCTItem@@U?$less@E@std@@V?$allocator@U?$pair@$$CBEPAVCTItem@@@std@@@3@$0A@@std@@@std@@QAE?AViterator@12@XZ ; std::_Tree<std::_Tmap_traits<unsigned char,CTItem *,std::less<unsigned char>,std::allocator<std::pair<unsigned char const ,CTItem *> >,0> >::begin
; Function compile flags: /Ogty
;	COMDAT ?begin@?$_Tree@V?$_Tmap_traits@EPAVCTItem@@U?$less@E@std@@V?$allocator@U?$pair@$$CBEPAVCTItem@@@std@@@3@$0A@@std@@@std@@QAE?AViterator@12@XZ
_TEXT	SEGMENT
___$ReturnUdt$ = 8					; size = 4
?begin@?$_Tree@V?$_Tmap_traits@EPAVCTItem@@U?$less@E@std@@V?$allocator@U?$pair@$$CBEPAVCTItem@@@std@@@3@$0A@@std@@@std@@QAE?AViterator@12@XZ PROC NEAR ; std::_Tree<std::_Tmap_traits<unsigned char,CTItem *,std::less<unsigned char>,std::allocator<std::pair<unsigned char const ,CTItem *> >,0> >::begin, COMDAT
; _this$ = ecx

; 408  : 		return (_TREE_ITERATOR(_Lmost()));

  00000	8b 41 04	 mov	 eax, DWORD PTR [ecx+4]
  00003	8b 08		 mov	 ecx, DWORD PTR [eax]
  00005	8b 44 24 04	 mov	 eax, DWORD PTR ___$ReturnUdt$[esp-4]
  00009	89 08		 mov	 DWORD PTR [eax], ecx

; 409  : 		}

  0000b	c2 04 00	 ret	 4
?begin@?$_Tree@V?$_Tmap_traits@EPAVCTItem@@U?$less@E@std@@V?$allocator@U?$pair@$$CBEPAVCTItem@@@std@@@3@$0A@@std@@@std@@QAE?AViterator@12@XZ ENDP ; std::_Tree<std::_Tmap_traits<unsigned char,CTItem *,std::less<unsigned char>,std::allocator<std::pair<unsigned char const ,CTItem *> >,0> >::begin
_TEXT	ENDS
PUBLIC	?end@?$_Tree@V?$_Tmap_traits@EPAVCTItem@@U?$less@E@std@@V?$allocator@U?$pair@$$CBEPAVCTItem@@@std@@@3@$0A@@std@@@std@@QAE?AViterator@12@XZ ; std::_Tree<std::_Tmap_traits<unsigned char,CTItem *,std::less<unsigned char>,std::allocator<std::pair<unsigned char const ,CTItem *> >,0> >::end
; Function compile flags: /Ogty
;	COMDAT ?end@?$_Tree@V?$_Tmap_traits@EPAVCTItem@@U?$less@E@std@@V?$allocator@U?$pair@$$CBEPAVCTItem@@@std@@@3@$0A@@std@@@std@@QAE?AViterator@12@XZ
_TEXT	SEGMENT
___$ReturnUdt$ = 8					; size = 4
?end@?$_Tree@V?$_Tmap_traits@EPAVCTItem@@U?$less@E@std@@V?$allocator@U?$pair@$$CBEPAVCTItem@@@std@@@3@$0A@@std@@@std@@QAE?AViterator@12@XZ PROC NEAR ; std::_Tree<std::_Tmap_traits<unsigned char,CTItem *,std::less<unsigned char>,std::allocator<std::pair<unsigned char const ,CTItem *> >,0> >::end, COMDAT
; _this$ = ecx

; 418  : 		return (_TREE_ITERATOR(_Myhead));

  00000	8b 49 04	 mov	 ecx, DWORD PTR [ecx+4]
  00003	8b 44 24 04	 mov	 eax, DWORD PTR ___$ReturnUdt$[esp-4]
  00007	89 08		 mov	 DWORD PTR [eax], ecx

; 419  : 		}

  00009	c2 04 00	 ret	 4
?end@?$_Tree@V?$_Tmap_traits@EPAVCTItem@@U?$less@E@std@@V?$allocator@U?$pair@$$CBEPAVCTItem@@@std@@@3@$0A@@std@@@std@@QAE?AViterator@12@XZ ENDP ; std::_Tree<std::_Tmap_traits<unsigned char,CTItem *,std::less<unsigned char>,std::allocator<std::pair<unsigned char const ,CTItem *> >,0> >::end
_TEXT	ENDS
PUBLIC	??Diterator@?$_Tree@V?$_Tmap_traits@EPAVCTItem@@U?$less@E@std@@V?$allocator@U?$pair@$$CBEPAVCTItem@@@std@@@3@$0A@@std@@@std@@QBEAAU?$pair@$$CBEPAVCTItem@@@2@XZ ; std::_Tree<std::_Tmap_traits<unsigned char,CTItem *,std::less<unsigned char>,std::allocator<std::pair<unsigned char const ,CTItem *> >,0> >::iterator::operator*
; Function compile flags: /Ogty
;	COMDAT ??Diterator@?$_Tree@V?$_Tmap_traits@EPAVCTItem@@U?$less@E@std@@V?$allocator@U?$pair@$$CBEPAVCTItem@@@std@@@3@$0A@@std@@@std@@QBEAAU?$pair@$$CBEPAVCTItem@@@2@XZ
_TEXT	SEGMENT
??Diterator@?$_Tree@V?$_Tmap_traits@EPAVCTItem@@U?$less@E@std@@V?$allocator@U?$pair@$$CBEPAVCTItem@@@std@@@3@$0A@@std@@@std@@QBEAAU?$pair@$$CBEPAVCTItem@@@2@XZ PROC NEAR ; std::_Tree<std::_Tmap_traits<unsigned char,CTItem *,std::less<unsigned char>,std::allocator<std::pair<unsigned char const ,CTItem *> >,0> >::iterator::operator*, COMDAT
; _this$ = ecx

; 317  : 			return ((reference)**(const_iterator *)this);

  00000	8b 01		 mov	 eax, DWORD PTR [ecx]
  00002	83 c0 0c	 add	 eax, 12			; 0000000cH

; 318  : 			}

  00005	c3		 ret	 0
??Diterator@?$_Tree@V?$_Tmap_traits@EPAVCTItem@@U?$less@E@std@@V?$allocator@U?$pair@$$CBEPAVCTItem@@@std@@@3@$0A@@std@@@std@@QBEAAU?$pair@$$CBEPAVCTItem@@@2@XZ ENDP ; std::_Tree<std::_Tmap_traits<unsigned char,CTItem *,std::less<unsigned char>,std::allocator<std::pair<unsigned char const ,CTItem *> >,0> >::iterator::operator*
_TEXT	ENDS
PUBLIC	??Diterator@?$_Tree@V?$_Tmap_traits@GPAVCTSkill@@U?$less@G@std@@V?$allocator@U?$pair@$$CBGPAVCTSkill@@@std@@@3@$0A@@std@@@std@@QBEAAU?$pair@$$CBGPAVCTSkill@@@2@XZ ; std::_Tree<std::_Tmap_traits<unsigned short,CTSkill *,std::less<unsigned short>,std::allocator<std::pair<unsigned short const ,CTSkill *> >,0> >::iterator::operator*
; Function compile flags: /Ogty
;	COMDAT ??Diterator@?$_Tree@V?$_Tmap_traits@GPAVCTSkill@@U?$less@G@std@@V?$allocator@U?$pair@$$CBGPAVCTSkill@@@std@@@3@$0A@@std@@@std@@QBEAAU?$pair@$$CBGPAVCTSkill@@@2@XZ
_TEXT	SEGMENT
??Diterator@?$_Tree@V?$_Tmap_traits@GPAVCTSkill@@U?$less@G@std@@V?$allocator@U?$pair@$$CBGPAVCTSkill@@@std@@@3@$0A@@std@@@std@@QBEAAU?$pair@$$CBGPAVCTSkill@@@2@XZ PROC NEAR ; std::_Tree<std::_Tmap_traits<unsigned short,CTSkill *,std::less<unsigned short>,std::allocator<std::pair<unsigned short const ,CTSkill *> >,0> >::iterator::operator*, COMDAT
; _this$ = ecx

; 317  : 			return ((reference)**(const_iterator *)this);

  00000	8b 01		 mov	 eax, DWORD PTR [ecx]
  00002	83 c0 0c	 add	 eax, 12			; 0000000cH

; 318  : 			}

  00005	c3		 ret	 0
??Diterator@?$_Tree@V?$_Tmap_traits@GPAVCTSkill@@U?$less@G@std@@V?$allocator@U?$pair@$$CBGPAVCTSkill@@@std@@@3@$0A@@std@@@std@@QBEAAU?$pair@$$CBGPAVCTSkill@@@2@XZ ENDP ; std::_Tree<std::_Tmap_traits<unsigned short,CTSkill *,std::less<unsigned short>,std::allocator<std::pair<unsigned short const ,CTSkill *> >,0> >::iterator::operator*
_TEXT	ENDS
PUBLIC	?_Erase@?$_Tree@V?$_Tmap_traits@KKU?$less@K@std@@V?$allocator@U?$pair@$$CBKK@std@@@2@$0A@@std@@@std@@IAEXPAU_Node@?$_Tree_nod@V?$_Tmap_traits@KKU?$less@K@std@@V?$allocator@U?$pair@$$CBKK@std@@@2@$0A@@std@@@2@@Z ; std::_Tree<std::_Tmap_traits<unsigned long,unsigned long,std::less<unsigned long>,std::allocator<std::pair<unsigned long const ,unsigned long> >,0> >::_Erase
; Function compile flags: /Ogty
;	COMDAT ?_Erase@?$_Tree@V?$_Tmap_traits@KKU?$less@K@std@@V?$allocator@U?$pair@$$CBKK@std@@@2@$0A@@std@@@std@@IAEXPAU_Node@?$_Tree_nod@V?$_Tmap_traits@KKU?$less@K@std@@V?$allocator@U?$pair@$$CBKK@std@@@2@$0A@@std@@@2@@Z
_TEXT	SEGMENT
__Rootnode$ = 8						; size = 4
?_Erase@?$_Tree@V?$_Tmap_traits@KKU?$less@K@std@@V?$allocator@U?$pair@$$CBKK@std@@@2@$0A@@std@@@std@@IAEXPAU_Node@?$_Tree_nod@V?$_Tmap_traits@KKU?$less@K@std@@V?$allocator@U?$pair@$$CBKK@std@@@2@$0A@@std@@@2@@Z PROC NEAR ; std::_Tree<std::_Tmap_traits<unsigned long,unsigned long,std::less<unsigned long>,std::allocator<std::pair<unsigned long const ,unsigned long> >,0> >::_Erase, COMDAT
; _this$ = ecx

; 890  : 		{	// free entire subtree, recursively

  00000	53		 push	 ebx
  00001	56		 push	 esi
  00002	57		 push	 edi

; 891  : 		for (_Nodeptr _Pnode = _Rootnode; !_Isnil(_Pnode); _Rootnode = _Pnode)

  00003	8b 7c 24 10	 mov	 edi, DWORD PTR __Rootnode$[esp+8]
  00007	8a 47 15	 mov	 al, BYTE PTR [edi+21]
  0000a	84 c0		 test	 al, al
  0000c	8b d9		 mov	 ebx, ecx
  0000e	8b f7		 mov	 esi, edi
  00010	75 1f		 jne	 SHORT $L152532
$L152530:

; 892  : 			{	// free subtrees, then node
; 893  : 			_Erase(_Right(_Pnode));

  00012	8b 46 08	 mov	 eax, DWORD PTR [esi+8]
  00015	50		 push	 eax
  00016	8b cb		 mov	 ecx, ebx
  00018	e8 00 00 00 00	 call	 ?_Erase@?$_Tree@V?$_Tmap_traits@KKU?$less@K@std@@V?$allocator@U?$pair@$$CBKK@std@@@2@$0A@@std@@@std@@IAEXPAU_Node@?$_Tree_nod@V?$_Tmap_traits@KKU?$less@K@std@@V?$allocator@U?$pair@$$CBKK@std@@@2@$0A@@std@@@2@@Z ; std::_Tree<std::_Tmap_traits<unsigned long,unsigned long,std::less<unsigned long>,std::allocator<std::pair<unsigned long const ,unsigned long> >,0> >::_Erase

; 894  : 			_Pnode = _Left(_Pnode);

  0001d	8b 36		 mov	 esi, DWORD PTR [esi]

; 895  : 			this->_Alnod.destroy(_Rootnode);	// destroy, free erased node
; 896  : 			this->_Alnod.deallocate(_Rootnode, 1);

  0001f	57		 push	 edi
  00020	e8 00 00 00 00	 call	 ??3@YAXPAX@Z		; operator delete
  00025	8a 46 15	 mov	 al, BYTE PTR [esi+21]
  00028	83 c4 04	 add	 esp, 4
  0002b	84 c0		 test	 al, al
  0002d	8b fe		 mov	 edi, esi
  0002f	74 e1		 je	 SHORT $L152530
$L152532:
  00031	5f		 pop	 edi
  00032	5e		 pop	 esi
  00033	5b		 pop	 ebx

; 897  : 			}
; 898  : 		}

  00034	c2 04 00	 ret	 4
?_Erase@?$_Tree@V?$_Tmap_traits@KKU?$less@K@std@@V?$allocator@U?$pair@$$CBKK@std@@@2@$0A@@std@@@std@@IAEXPAU_Node@?$_Tree_nod@V?$_Tmap_traits@KKU?$less@K@std@@V?$allocator@U?$pair@$$CBKK@std@@@2@$0A@@std@@@2@@Z ENDP ; std::_Tree<std::_Tmap_traits<unsigned long,unsigned long,std::less<unsigned long>,std::allocator<std::pair<unsigned long const ,unsigned long> >,0> >::_Erase
_TEXT	ENDS
PUBLIC	?_Erase@?$_Tree@V?$_Tmap_traits@GPAVCTSkill@@U?$less@G@std@@V?$allocator@U?$pair@$$CBGPAVCTSkill@@@std@@@3@$0A@@std@@@std@@IAEXPAU_Node@?$_Tree_nod@V?$_Tmap_traits@GPAVCTSkill@@U?$less@G@std@@V?$allocator@U?$pair@$$CBGPAVCTSkill@@@std@@@3@$0A@@std@@@2@@Z ; std::_Tree<std::_Tmap_traits<unsigned short,CTSkill *,std::less<unsigned short>,std::allocator<std::pair<unsigned short const ,CTSkill *> >,0> >::_Erase
; Function compile flags: /Ogty
;	COMDAT ?_Erase@?$_Tree@V?$_Tmap_traits@GPAVCTSkill@@U?$less@G@std@@V?$allocator@U?$pair@$$CBGPAVCTSkill@@@std@@@3@$0A@@std@@@std@@IAEXPAU_Node@?$_Tree_nod@V?$_Tmap_traits@GPAVCTSkill@@U?$less@G@std@@V?$allocator@U?$pair@$$CBGPAVCTSkill@@@std@@@3@$0A@@std@@@2@@Z
_TEXT	SEGMENT
__Rootnode$ = 8						; size = 4
?_Erase@?$_Tree@V?$_Tmap_traits@GPAVCTSkill@@U?$less@G@std@@V?$allocator@U?$pair@$$CBGPAVCTSkill@@@std@@@3@$0A@@std@@@std@@IAEXPAU_Node@?$_Tree_nod@V?$_Tmap_traits@GPAVCTSkill@@U?$less@G@std@@V?$allocator@U?$pair@$$CBGPAVCTSkill@@@std@@@3@$0A@@std@@@2@@Z PROC NEAR ; std::_Tree<std::_Tmap_traits<unsigned short,CTSkill *,std::less<unsigned short>,std::allocator<std::pair<unsigned short const ,CTSkill *> >,0> >::_Erase, COMDAT
; _this$ = ecx

; 890  : 		{	// free entire subtree, recursively

  00000	53		 push	 ebx
  00001	56		 push	 esi
  00002	57		 push	 edi

; 891  : 		for (_Nodeptr _Pnode = _Rootnode; !_Isnil(_Pnode); _Rootnode = _Pnode)

  00003	8b 7c 24 10	 mov	 edi, DWORD PTR __Rootnode$[esp+8]
  00007	8a 47 15	 mov	 al, BYTE PTR [edi+21]
  0000a	84 c0		 test	 al, al
  0000c	8b d9		 mov	 ebx, ecx
  0000e	8b f7		 mov	 esi, edi
  00010	75 1f		 jne	 SHORT $L152544
$L152542:

; 892  : 			{	// free subtrees, then node
; 893  : 			_Erase(_Right(_Pnode));

  00012	8b 46 08	 mov	 eax, DWORD PTR [esi+8]
  00015	50		 push	 eax
  00016	8b cb		 mov	 ecx, ebx
  00018	e8 00 00 00 00	 call	 ?_Erase@?$_Tree@V?$_Tmap_traits@GPAVCTSkill@@U?$less@G@std@@V?$allocator@U?$pair@$$CBGPAVCTSkill@@@std@@@3@$0A@@std@@@std@@IAEXPAU_Node@?$_Tree_nod@V?$_Tmap_traits@GPAVCTSkill@@U?$less@G@std@@V?$allocator@U?$pair@$$CBGPAVCTSkill@@@std@@@3@$0A@@std@@@2@@Z ; std::_Tree<std::_Tmap_traits<unsigned short,CTSkill *,std::less<unsigned short>,std::allocator<std::pair<unsigned short const ,CTSkill *> >,0> >::_Erase

; 894  : 			_Pnode = _Left(_Pnode);

  0001d	8b 36		 mov	 esi, DWORD PTR [esi]

; 895  : 			this->_Alnod.destroy(_Rootnode);	// destroy, free erased node
; 896  : 			this->_Alnod.deallocate(_Rootnode, 1);

  0001f	57		 push	 edi
  00020	e8 00 00 00 00	 call	 ??3@YAXPAX@Z		; operator delete
  00025	8a 46 15	 mov	 al, BYTE PTR [esi+21]
  00028	83 c4 04	 add	 esp, 4
  0002b	84 c0		 test	 al, al
  0002d	8b fe		 mov	 edi, esi
  0002f	74 e1		 je	 SHORT $L152542
$L152544:
  00031	5f		 pop	 edi
  00032	5e		 pop	 esi
  00033	5b		 pop	 ebx

; 897  : 			}
; 898  : 		}

  00034	c2 04 00	 ret	 4
?_Erase@?$_Tree@V?$_Tmap_traits@GPAVCTSkill@@U?$less@G@std@@V?$allocator@U?$pair@$$CBGPAVCTSkill@@@std@@@3@$0A@@std@@@std@@IAEXPAU_Node@?$_Tree_nod@V?$_Tmap_traits@GPAVCTSkill@@U?$less@G@std@@V?$allocator@U?$pair@$$CBGPAVCTSkill@@@std@@@3@$0A@@std@@@2@@Z ENDP ; std::_Tree<std::_Tmap_traits<unsigned short,CTSkill *,std::less<unsigned short>,std::allocator<std::pair<unsigned short const ,CTSkill *> >,0> >::_Erase
_TEXT	ENDS
PUBLIC	?_Erase@?$_Tree@V?$_Tmap_traits@_J_JU?$less@_J@std@@V?$allocator@U?$pair@$$CB_J_J@std@@@2@$0A@@std@@@std@@IAEXPAU_Node@?$_Tree_nod@V?$_Tmap_traits@_J_JU?$less@_J@std@@V?$allocator@U?$pair@$$CB_J_J@std@@@2@$0A@@std@@@2@@Z ; std::_Tree<std::_Tmap_traits<__int64,__int64,std::less<__int64>,std::allocator<std::pair<__int64 const ,__int64> >,0> >::_Erase
; Function compile flags: /Ogty
;	COMDAT ?_Erase@?$_Tree@V?$_Tmap_traits@_J_JU?$less@_J@std@@V?$allocator@U?$pair@$$CB_J_J@std@@@2@$0A@@std@@@std@@IAEXPAU_Node@?$_Tree_nod@V?$_Tmap_traits@_J_JU?$less@_J@std@@V?$allocator@U?$pair@$$CB_J_J@std@@@2@$0A@@std@@@2@@Z
_TEXT	SEGMENT
__Rootnode$ = 8						; size = 4
?_Erase@?$_Tree@V?$_Tmap_traits@_J_JU?$less@_J@std@@V?$allocator@U?$pair@$$CB_J_J@std@@@2@$0A@@std@@@std@@IAEXPAU_Node@?$_Tree_nod@V?$_Tmap_traits@_J_JU?$less@_J@std@@V?$allocator@U?$pair@$$CB_J_J@std@@@2@$0A@@std@@@2@@Z PROC NEAR ; std::_Tree<std::_Tmap_traits<__int64,__int64,std::less<__int64>,std::allocator<std::pair<__int64 const ,__int64> >,0> >::_Erase, COMDAT
; _this$ = ecx

; 890  : 		{	// free entire subtree, recursively

  00000	53		 push	 ebx
  00001	56		 push	 esi
  00002	57		 push	 edi

; 891  : 		for (_Nodeptr _Pnode = _Rootnode; !_Isnil(_Pnode); _Rootnode = _Pnode)

  00003	8b 7c 24 10	 mov	 edi, DWORD PTR __Rootnode$[esp+8]
  00007	8a 47 21	 mov	 al, BYTE PTR [edi+33]
  0000a	84 c0		 test	 al, al
  0000c	8b d9		 mov	 ebx, ecx
  0000e	8b f7		 mov	 esi, edi
  00010	75 1f		 jne	 SHORT $L152559
$L152557:

; 892  : 			{	// free subtrees, then node
; 893  : 			_Erase(_Right(_Pnode));

  00012	8b 46 08	 mov	 eax, DWORD PTR [esi+8]
  00015	50		 push	 eax
  00016	8b cb		 mov	 ecx, ebx
  00018	e8 00 00 00 00	 call	 ?_Erase@?$_Tree@V?$_Tmap_traits@_J_JU?$less@_J@std@@V?$allocator@U?$pair@$$CB_J_J@std@@@2@$0A@@std@@@std@@IAEXPAU_Node@?$_Tree_nod@V?$_Tmap_traits@_J_JU?$less@_J@std@@V?$allocator@U?$pair@$$CB_J_J@std@@@2@$0A@@std@@@2@@Z ; std::_Tree<std::_Tmap_traits<__int64,__int64,std::less<__int64>,std::allocator<std::pair<__int64 const ,__int64> >,0> >::_Erase

; 894  : 			_Pnode = _Left(_Pnode);

  0001d	8b 36		 mov	 esi, DWORD PTR [esi]

; 895  : 			this->_Alnod.destroy(_Rootnode);	// destroy, free erased node
; 896  : 			this->_Alnod.deallocate(_Rootnode, 1);

  0001f	57		 push	 edi
  00020	e8 00 00 00 00	 call	 ??3@YAXPAX@Z		; operator delete
  00025	8a 46 21	 mov	 al, BYTE PTR [esi+33]
  00028	83 c4 04	 add	 esp, 4
  0002b	84 c0		 test	 al, al
  0002d	8b fe		 mov	 edi, esi
  0002f	74 e1		 je	 SHORT $L152557
$L152559:
  00031	5f		 pop	 edi
  00032	5e		 pop	 esi
  00033	5b		 pop	 ebx

; 897  : 			}
; 898  : 		}

  00034	c2 04 00	 ret	 4
?_Erase@?$_Tree@V?$_Tmap_traits@_J_JU?$less@_J@std@@V?$allocator@U?$pair@$$CB_J_J@std@@@2@$0A@@std@@@std@@IAEXPAU_Node@?$_Tree_nod@V?$_Tmap_traits@_J_JU?$less@_J@std@@V?$allocator@U?$pair@$$CB_J_J@std@@@2@$0A@@std@@@2@@Z ENDP ; std::_Tree<std::_Tmap_traits<__int64,__int64,std::less<__int64>,std::allocator<std::pair<__int64 const ,__int64> >,0> >::_Erase
_TEXT	ENDS
PUBLIC	?_Erase@?$_Tree@V?$_Tmap_traits@_JUtagAGGRO@@U?$less@_J@std@@V?$allocator@U?$pair@$$CB_JUtagAGGRO@@@std@@@3@$0A@@std@@@std@@IAEXPAU_Node@?$_Tree_nod@V?$_Tmap_traits@_JUtagAGGRO@@U?$less@_J@std@@V?$allocator@U?$pair@$$CB_JUtagAGGRO@@@std@@@3@$0A@@std@@@2@@Z ; std::_Tree<std::_Tmap_traits<__int64,tagAGGRO,std::less<__int64>,std::allocator<std::pair<__int64 const ,tagAGGRO> >,0> >::_Erase
; Function compile flags: /Ogty
;	COMDAT ?_Erase@?$_Tree@V?$_Tmap_traits@_JUtagAGGRO@@U?$less@_J@std@@V?$allocator@U?$pair@$$CB_JUtagAGGRO@@@std@@@3@$0A@@std@@@std@@IAEXPAU_Node@?$_Tree_nod@V?$_Tmap_traits@_JUtagAGGRO@@U?$less@_J@std@@V?$allocator@U?$pair@$$CB_JUtagAGGRO@@@std@@@3@$0A@@std@@@2@@Z
_TEXT	SEGMENT
__Rootnode$ = 8						; size = 4
?_Erase@?$_Tree@V?$_Tmap_traits@_JUtagAGGRO@@U?$less@_J@std@@V?$allocator@U?$pair@$$CB_JUtagAGGRO@@@std@@@3@$0A@@std@@@std@@IAEXPAU_Node@?$_Tree_nod@V?$_Tmap_traits@_JUtagAGGRO@@U?$less@_J@std@@V?$allocator@U?$pair@$$CB_JUtagAGGRO@@@std@@@3@$0A@@std@@@2@@Z PROC NEAR ; std::_Tree<std::_Tmap_traits<__int64,tagAGGRO,std::less<__int64>,std::allocator<std::pair<__int64 const ,tagAGGRO> >,0> >::_Erase, COMDAT
; _this$ = ecx

; 890  : 		{	// free entire subtree, recursively

  00000	53		 push	 ebx
  00001	56		 push	 esi
  00002	57		 push	 edi

; 891  : 		for (_Nodeptr _Pnode = _Rootnode; !_Isnil(_Pnode); _Rootnode = _Pnode)

  00003	8b 7c 24 10	 mov	 edi, DWORD PTR __Rootnode$[esp+8]
  00007	8a 47 31	 mov	 al, BYTE PTR [edi+49]
  0000a	84 c0		 test	 al, al
  0000c	8b d9		 mov	 ebx, ecx
  0000e	8b f7		 mov	 esi, edi
  00010	75 1f		 jne	 SHORT $L152571
$L152569:

; 892  : 			{	// free subtrees, then node
; 893  : 			_Erase(_Right(_Pnode));

  00012	8b 46 08	 mov	 eax, DWORD PTR [esi+8]
  00015	50		 push	 eax
  00016	8b cb		 mov	 ecx, ebx
  00018	e8 00 00 00 00	 call	 ?_Erase@?$_Tree@V?$_Tmap_traits@_JUtagAGGRO@@U?$less@_J@std@@V?$allocator@U?$pair@$$CB_JUtagAGGRO@@@std@@@3@$0A@@std@@@std@@IAEXPAU_Node@?$_Tree_nod@V?$_Tmap_traits@_JUtagAGGRO@@U?$less@_J@std@@V?$allocator@U?$pair@$$CB_JUtagAGGRO@@@std@@@3@$0A@@std@@@2@@Z ; std::_Tree<std::_Tmap_traits<__int64,tagAGGRO,std::less<__int64>,std::allocator<std::pair<__int64 const ,tagAGGRO> >,0> >::_Erase

; 894  : 			_Pnode = _Left(_Pnode);

  0001d	8b 36		 mov	 esi, DWORD PTR [esi]

; 895  : 			this->_Alnod.destroy(_Rootnode);	// destroy, free erased node
; 896  : 			this->_Alnod.deallocate(_Rootnode, 1);

  0001f	57		 push	 edi
  00020	e8 00 00 00 00	 call	 ??3@YAXPAX@Z		; operator delete
  00025	8a 46 31	 mov	 al, BYTE PTR [esi+49]
  00028	83 c4 04	 add	 esp, 4
  0002b	84 c0		 test	 al, al
  0002d	8b fe		 mov	 edi, esi
  0002f	74 e1		 je	 SHORT $L152569
$L152571:
  00031	5f		 pop	 edi
  00032	5e		 pop	 esi
  00033	5b		 pop	 ebx

; 897  : 			}
; 898  : 		}

  00034	c2 04 00	 ret	 4
?_Erase@?$_Tree@V?$_Tmap_traits@_JUtagAGGRO@@U?$less@_J@std@@V?$allocator@U?$pair@$$CB_JUtagAGGRO@@@std@@@3@$0A@@std@@@std@@IAEXPAU_Node@?$_Tree_nod@V?$_Tmap_traits@_JUtagAGGRO@@U?$less@_J@std@@V?$allocator@U?$pair@$$CB_JUtagAGGRO@@@std@@@3@$0A@@std@@@2@@Z ENDP ; std::_Tree<std::_Tmap_traits<__int64,tagAGGRO,std::less<__int64>,std::allocator<std::pair<__int64 const ,tagAGGRO> >,0> >::_Erase
_TEXT	ENDS
PUBLIC	?_Erase@?$_Tree@V?$_Tmap_traits@EPAVCTItem@@U?$less@E@std@@V?$allocator@U?$pair@$$CBEPAVCTItem@@@std@@@3@$0A@@std@@@std@@IAEXPAU_Node@?$_Tree_nod@V?$_Tmap_traits@EPAVCTItem@@U?$less@E@std@@V?$allocator@U?$pair@$$CBEPAVCTItem@@@std@@@3@$0A@@std@@@2@@Z ; std::_Tree<std::_Tmap_traits<unsigned char,CTItem *,std::less<unsigned char>,std::allocator<std::pair<unsigned char const ,CTItem *> >,0> >::_Erase
; Function compile flags: /Ogty
;	COMDAT ?_Erase@?$_Tree@V?$_Tmap_traits@EPAVCTItem@@U?$less@E@std@@V?$allocator@U?$pair@$$CBEPAVCTItem@@@std@@@3@$0A@@std@@@std@@IAEXPAU_Node@?$_Tree_nod@V?$_Tmap_traits@EPAVCTItem@@U?$less@E@std@@V?$allocator@U?$pair@$$CBEPAVCTItem@@@std@@@3@$0A@@std@@@2@@Z
_TEXT	SEGMENT
__Rootnode$ = 8						; size = 4
?_Erase@?$_Tree@V?$_Tmap_traits@EPAVCTItem@@U?$less@E@std@@V?$allocator@U?$pair@$$CBEPAVCTItem@@@std@@@3@$0A@@std@@@std@@IAEXPAU_Node@?$_Tree_nod@V?$_Tmap_traits@EPAVCTItem@@U?$less@E@std@@V?$allocator@U?$pair@$$CBEPAVCTItem@@@std@@@3@$0A@@std@@@2@@Z PROC NEAR ; std::_Tree<std::_Tmap_traits<unsigned char,CTItem *,std::less<unsigned char>,std::allocator<std::pair<unsigned char const ,CTItem *> >,0> >::_Erase, COMDAT
; _this$ = ecx

; 890  : 		{	// free entire subtree, recursively

  00000	53		 push	 ebx
  00001	56		 push	 esi
  00002	57		 push	 edi

; 891  : 		for (_Nodeptr _Pnode = _Rootnode; !_Isnil(_Pnode); _Rootnode = _Pnode)

  00003	8b 7c 24 10	 mov	 edi, DWORD PTR __Rootnode$[esp+8]
  00007	8a 47 15	 mov	 al, BYTE PTR [edi+21]
  0000a	84 c0		 test	 al, al
  0000c	8b d9		 mov	 ebx, ecx
  0000e	8b f7		 mov	 esi, edi
  00010	75 1f		 jne	 SHORT $L152583
$L152581:

; 892  : 			{	// free subtrees, then node
; 893  : 			_Erase(_Right(_Pnode));

  00012	8b 46 08	 mov	 eax, DWORD PTR [esi+8]
  00015	50		 push	 eax
  00016	8b cb		 mov	 ecx, ebx
  00018	e8 00 00 00 00	 call	 ?_Erase@?$_Tree@V?$_Tmap_traits@EPAVCTItem@@U?$less@E@std@@V?$allocator@U?$pair@$$CBEPAVCTItem@@@std@@@3@$0A@@std@@@std@@IAEXPAU_Node@?$_Tree_nod@V?$_Tmap_traits@EPAVCTItem@@U?$less@E@std@@V?$allocator@U?$pair@$$CBEPAVCTItem@@@std@@@3@$0A@@std@@@2@@Z ; std::_Tree<std::_Tmap_traits<unsigned char,CTItem *,std::less<unsigned char>,std::allocator<std::pair<unsigned char const ,CTItem *> >,0> >::_Erase

; 894  : 			_Pnode = _Left(_Pnode);

  0001d	8b 36		 mov	 esi, DWORD PTR [esi]

; 895  : 			this->_Alnod.destroy(_Rootnode);	// destroy, free erased node
; 896  : 			this->_Alnod.deallocate(_Rootnode, 1);

  0001f	57		 push	 edi
  00020	e8 00 00 00 00	 call	 ??3@YAXPAX@Z		; operator delete
  00025	8a 46 15	 mov	 al, BYTE PTR [esi+21]
  00028	83 c4 04	 add	 esp, 4
  0002b	84 c0		 test	 al, al
  0002d	8b fe		 mov	 edi, esi
  0002f	74 e1		 je	 SHORT $L152581
$L152583:
  00031	5f		 pop	 edi
  00032	5e		 pop	 esi
  00033	5b		 pop	 ebx

; 897  : 			}
; 898  : 		}

  00034	c2 04 00	 ret	 4
?_Erase@?$_Tree@V?$_Tmap_traits@EPAVCTItem@@U?$less@E@std@@V?$allocator@U?$pair@$$CBEPAVCTItem@@@std@@@3@$0A@@std@@@std@@IAEXPAU_Node@?$_Tree_nod@V?$_Tmap_traits@EPAVCTItem@@U?$less@E@std@@V?$allocator@U?$pair@$$CBEPAVCTItem@@@std@@@3@$0A@@std@@@2@@Z ENDP ; std::_Tree<std::_Tmap_traits<unsigned char,CTItem *,std::less<unsigned char>,std::allocator<std::pair<unsigned char const ,CTItem *> >,0> >::_Erase
_TEXT	ENDS
PUBLIC	?_Destroy@?$vector@PAVCTSkill@@V?$allocator@PAVCTSkill@@@std@@@std@@IAEXPAPAVCTSkill@@0@Z ; std::vector<CTSkill *,std::allocator<CTSkill *> >::_Destroy
; Function compile flags: /Ogty
; File c:\program files (x86)\microsoft visual studio .net 2003\vc7\include\vector
;	COMDAT ?_Destroy@?$vector@PAVCTSkill@@V?$allocator@PAVCTSkill@@@std@@@std@@IAEXPAPAVCTSkill@@0@Z
_TEXT	SEGMENT
__First$ = 8						; size = 4
__Last$ = 12						; size = 4
?_Destroy@?$vector@PAVCTSkill@@V?$allocator@PAVCTSkill@@@std@@@std@@IAEXPAPAVCTSkill@@0@Z PROC NEAR ; std::vector<CTSkill *,std::allocator<CTSkill *> >::_Destroy, COMDAT
; _this$ = ecx

; 787  : 		_Destroy_range(_First, _Last, this->_Alval);
; 788  : 		}

  00000	c2 08 00	 ret	 8
?_Destroy@?$vector@PAVCTSkill@@V?$allocator@PAVCTSkill@@@std@@@std@@IAEXPAPAVCTSkill@@0@Z ENDP ; std::vector<CTSkill *,std::allocator<CTSkill *> >::_Destroy
_TEXT	ENDS
PUBLIC	??Econst_iterator@?$_Tree@V?$_Tmap_traits@EPAVCTItem@@U?$less@E@std@@V?$allocator@U?$pair@$$CBEPAVCTItem@@@std@@@3@$0A@@std@@@std@@QAEAAV012@XZ ; std::_Tree<std::_Tmap_traits<unsigned char,CTItem *,std::less<unsigned char>,std::allocator<std::pair<unsigned char const ,CTItem *> >,0> >::const_iterator::operator++
; Function compile flags: /Ogty
; File c:\program files (x86)\microsoft visual studio .net 2003\vc7\include\xtree
;	COMDAT ??Econst_iterator@?$_Tree@V?$_Tmap_traits@EPAVCTItem@@U?$less@E@std@@V?$allocator@U?$pair@$$CBEPAVCTItem@@@std@@@3@$0A@@std@@@std@@QAEAAV012@XZ
_TEXT	SEGMENT
??Econst_iterator@?$_Tree@V?$_Tmap_traits@EPAVCTItem@@U?$less@E@std@@V?$allocator@U?$pair@$$CBEPAVCTItem@@@std@@@3@$0A@@std@@@std@@QAEAAV012@XZ PROC NEAR ; std::_Tree<std::_Tmap_traits<unsigned char,CTItem *,std::less<unsigned char>,std::allocator<std::pair<unsigned char const ,CTItem *> >,0> >::const_iterator::operator++, COMDAT
; _this$ = ecx

; 214  : 			{	// preincrement

  00000	56		 push	 esi
  00001	8b f1		 mov	 esi, ecx

; 215  : 			_Inc();

  00003	e8 00 00 00 00	 call	 ?_Inc@const_iterator@?$_Tree@V?$_Tmap_traits@EPAVCTItem@@U?$less@E@std@@V?$allocator@U?$pair@$$CBEPAVCTItem@@@std@@@3@$0A@@std@@@std@@QAEXXZ ; std::_Tree<std::_Tmap_traits<unsigned char,CTItem *,std::less<unsigned char>,std::allocator<std::pair<unsigned char const ,CTItem *> >,0> >::const_iterator::_Inc

; 216  : 			return (*this);

  00008	8b c6		 mov	 eax, esi
  0000a	5e		 pop	 esi

; 217  : 			}

  0000b	c3		 ret	 0
??Econst_iterator@?$_Tree@V?$_Tmap_traits@EPAVCTItem@@U?$less@E@std@@V?$allocator@U?$pair@$$CBEPAVCTItem@@@std@@@3@$0A@@std@@@std@@QAEAAV012@XZ ENDP ; std::_Tree<std::_Tmap_traits<unsigned char,CTItem *,std::less<unsigned char>,std::allocator<std::pair<unsigned char const ,CTItem *> >,0> >::const_iterator::operator++
_TEXT	ENDS
PUBLIC	??Econst_iterator@?$_Tree@V?$_Tmap_traits@GPAVCTSkill@@U?$less@G@std@@V?$allocator@U?$pair@$$CBGPAVCTSkill@@@std@@@3@$0A@@std@@@std@@QAEAAV012@XZ ; std::_Tree<std::_Tmap_traits<unsigned short,CTSkill *,std::less<unsigned short>,std::allocator<std::pair<unsigned short const ,CTSkill *> >,0> >::const_iterator::operator++
; Function compile flags: /Ogty
;	COMDAT ??Econst_iterator@?$_Tree@V?$_Tmap_traits@GPAVCTSkill@@U?$less@G@std@@V?$allocator@U?$pair@$$CBGPAVCTSkill@@@std@@@3@$0A@@std@@@std@@QAEAAV012@XZ
_TEXT	SEGMENT
??Econst_iterator@?$_Tree@V?$_Tmap_traits@GPAVCTSkill@@U?$less@G@std@@V?$allocator@U?$pair@$$CBGPAVCTSkill@@@std@@@3@$0A@@std@@@std@@QAEAAV012@XZ PROC NEAR ; std::_Tree<std::_Tmap_traits<unsigned short,CTSkill *,std::less<unsigned short>,std::allocator<std::pair<unsigned short const ,CTSkill *> >,0> >::const_iterator::operator++, COMDAT
; _this$ = ecx

; 214  : 			{	// preincrement

  00000	56		 push	 esi
  00001	8b f1		 mov	 esi, ecx

; 215  : 			_Inc();

  00003	e8 00 00 00 00	 call	 ?_Inc@const_iterator@?$_Tree@V?$_Tmap_traits@GPAVCTSkill@@U?$less@G@std@@V?$allocator@U?$pair@$$CBGPAVCTSkill@@@std@@@3@$0A@@std@@@std@@QAEXXZ ; std::_Tree<std::_Tmap_traits<unsigned short,CTSkill *,std::less<unsigned short>,std::allocator<std::pair<unsigned short const ,CTSkill *> >,0> >::const_iterator::_Inc

; 216  : 			return (*this);

  00008	8b c6		 mov	 eax, esi
  0000a	5e		 pop	 esi

; 217  : 			}

  0000b	c3		 ret	 0
??Econst_iterator@?$_Tree@V?$_Tmap_traits@GPAVCTSkill@@U?$less@G@std@@V?$allocator@U?$pair@$$CBGPAVCTSkill@@@std@@@3@$0A@@std@@@std@@QAEAAV012@XZ ENDP ; std::_Tree<std::_Tmap_traits<unsigned short,CTSkill *,std::less<unsigned short>,std::allocator<std::pair<unsigned short const ,CTSkill *> >,0> >::const_iterator::operator++
_TEXT	ENDS
PUBLIC	?clear@?$_Tree@V?$_Tmap_traits@KKU?$less@K@std@@V?$allocator@U?$pair@$$CBKK@std@@@2@$0A@@std@@@std@@QAEXXZ ; std::_Tree<std::_Tmap_traits<unsigned long,unsigned long,std::less<unsigned long>,std::allocator<std::pair<unsigned long const ,unsigned long> >,0> >::clear
; Function compile flags: /Ogty
;	COMDAT ?clear@?$_Tree@V?$_Tmap_traits@KKU?$less@K@std@@V?$allocator@U?$pair@$$CBKK@std@@@2@$0A@@std@@@std@@QAEXXZ
_TEXT	SEGMENT
?clear@?$_Tree@V?$_Tmap_traits@KKU?$less@K@std@@V?$allocator@U?$pair@$$CBKK@std@@@2@$0A@@std@@@std@@QAEXXZ PROC NEAR ; std::_Tree<std::_Tmap_traits<unsigned long,unsigned long,std::less<unsigned long>,std::allocator<std::pair<unsigned long const ,unsigned long> >,0> >::clear, COMDAT
; _this$ = ecx

; 780  : 		{	// erase all

  00000	56		 push	 esi
  00001	8b f1		 mov	 esi, ecx

; 781  : 		_Erase(_Root());

  00003	8b 46 04	 mov	 eax, DWORD PTR [esi+4]
  00006	8b 48 04	 mov	 ecx, DWORD PTR [eax+4]
  00009	51		 push	 ecx
  0000a	8b ce		 mov	 ecx, esi
  0000c	e8 00 00 00 00	 call	 ?_Erase@?$_Tree@V?$_Tmap_traits@KKU?$less@K@std@@V?$allocator@U?$pair@$$CBKK@std@@@2@$0A@@std@@@std@@IAEXPAU_Node@?$_Tree_nod@V?$_Tmap_traits@KKU?$less@K@std@@V?$allocator@U?$pair@$$CBKK@std@@@2@$0A@@std@@@2@@Z ; std::_Tree<std::_Tmap_traits<unsigned long,unsigned long,std::less<unsigned long>,std::allocator<std::pair<unsigned long const ,unsigned long> >,0> >::_Erase

; 782  : 		_Root() = _Myhead, _Mysize = 0;

  00011	8b 46 04	 mov	 eax, DWORD PTR [esi+4]
  00014	89 40 04	 mov	 DWORD PTR [eax+4], eax

; 783  : 		_Lmost() = _Myhead, _Rmost() = _Myhead;

  00017	8b 46 04	 mov	 eax, DWORD PTR [esi+4]
  0001a	c7 46 08 00 00
	00 00		 mov	 DWORD PTR [esi+8], 0
  00021	89 00		 mov	 DWORD PTR [eax], eax
  00023	8b 76 04	 mov	 esi, DWORD PTR [esi+4]
  00026	89 76 08	 mov	 DWORD PTR [esi+8], esi
  00029	5e		 pop	 esi

; 784  : 		}

  0002a	c3		 ret	 0
?clear@?$_Tree@V?$_Tmap_traits@KKU?$less@K@std@@V?$allocator@U?$pair@$$CBKK@std@@@2@$0A@@std@@@std@@QAEXXZ ENDP ; std::_Tree<std::_Tmap_traits<unsigned long,unsigned long,std::less<unsigned long>,std::allocator<std::pair<unsigned long const ,unsigned long> >,0> >::clear
_TEXT	ENDS
PUBLIC	?clear@?$_Tree@V?$_Tmap_traits@GPAVCTSkill@@U?$less@G@std@@V?$allocator@U?$pair@$$CBGPAVCTSkill@@@std@@@3@$0A@@std@@@std@@QAEXXZ ; std::_Tree<std::_Tmap_traits<unsigned short,CTSkill *,std::less<unsigned short>,std::allocator<std::pair<unsigned short const ,CTSkill *> >,0> >::clear
; Function compile flags: /Ogty
;	COMDAT ?clear@?$_Tree@V?$_Tmap_traits@GPAVCTSkill@@U?$less@G@std@@V?$allocator@U?$pair@$$CBGPAVCTSkill@@@std@@@3@$0A@@std@@@std@@QAEXXZ
_TEXT	SEGMENT
?clear@?$_Tree@V?$_Tmap_traits@GPAVCTSkill@@U?$less@G@std@@V?$allocator@U?$pair@$$CBGPAVCTSkill@@@std@@@3@$0A@@std@@@std@@QAEXXZ PROC NEAR ; std::_Tree<std::_Tmap_traits<unsigned short,CTSkill *,std::less<unsigned short>,std::allocator<std::pair<unsigned short const ,CTSkill *> >,0> >::clear, COMDAT
; _this$ = ecx

; 780  : 		{	// erase all

  00000	56		 push	 esi
  00001	8b f1		 mov	 esi, ecx

; 781  : 		_Erase(_Root());

  00003	8b 46 04	 mov	 eax, DWORD PTR [esi+4]
  00006	8b 48 04	 mov	 ecx, DWORD PTR [eax+4]
  00009	51		 push	 ecx
  0000a	8b ce		 mov	 ecx, esi
  0000c	e8 00 00 00 00	 call	 ?_Erase@?$_Tree@V?$_Tmap_traits@GPAVCTSkill@@U?$less@G@std@@V?$allocator@U?$pair@$$CBGPAVCTSkill@@@std@@@3@$0A@@std@@@std@@IAEXPAU_Node@?$_Tree_nod@V?$_Tmap_traits@GPAVCTSkill@@U?$less@G@std@@V?$allocator@U?$pair@$$CBGPAVCTSkill@@@std@@@3@$0A@@std@@@2@@Z ; std::_Tree<std::_Tmap_traits<unsigned short,CTSkill *,std::less<unsigned short>,std::allocator<std::pair<unsigned short const ,CTSkill *> >,0> >::_Erase

; 782  : 		_Root() = _Myhead, _Mysize = 0;

  00011	8b 46 04	 mov	 eax, DWORD PTR [esi+4]
  00014	89 40 04	 mov	 DWORD PTR [eax+4], eax

; 783  : 		_Lmost() = _Myhead, _Rmost() = _Myhead;

  00017	8b 46 04	 mov	 eax, DWORD PTR [esi+4]
  0001a	c7 46 08 00 00
	00 00		 mov	 DWORD PTR [esi+8], 0
  00021	89 00		 mov	 DWORD PTR [eax], eax
  00023	8b 76 04	 mov	 esi, DWORD PTR [esi+4]
  00026	89 76 08	 mov	 DWORD PTR [esi+8], esi
  00029	5e		 pop	 esi

; 784  : 		}

  0002a	c3		 ret	 0
?clear@?$_Tree@V?$_Tmap_traits@GPAVCTSkill@@U?$less@G@std@@V?$allocator@U?$pair@$$CBGPAVCTSkill@@@std@@@3@$0A@@std@@@std@@QAEXXZ ENDP ; std::_Tree<std::_Tmap_traits<unsigned short,CTSkill *,std::less<unsigned short>,std::allocator<std::pair<unsigned short const ,CTSkill *> >,0> >::clear
_TEXT	ENDS
PUBLIC	?clear@?$_Tree@V?$_Tmap_traits@_J_JU?$less@_J@std@@V?$allocator@U?$pair@$$CB_J_J@std@@@2@$0A@@std@@@std@@QAEXXZ ; std::_Tree<std::_Tmap_traits<__int64,__int64,std::less<__int64>,std::allocator<std::pair<__int64 const ,__int64> >,0> >::clear
; Function compile flags: /Ogty
;	COMDAT ?clear@?$_Tree@V?$_Tmap_traits@_J_JU?$less@_J@std@@V?$allocator@U?$pair@$$CB_J_J@std@@@2@$0A@@std@@@std@@QAEXXZ
_TEXT	SEGMENT
?clear@?$_Tree@V?$_Tmap_traits@_J_JU?$less@_J@std@@V?$allocator@U?$pair@$$CB_J_J@std@@@2@$0A@@std@@@std@@QAEXXZ PROC NEAR ; std::_Tree<std::_Tmap_traits<__int64,__int64,std::less<__int64>,std::allocator<std::pair<__int64 const ,__int64> >,0> >::clear, COMDAT
; _this$ = ecx

; 780  : 		{	// erase all

  00000	56		 push	 esi
  00001	8b f1		 mov	 esi, ecx

; 781  : 		_Erase(_Root());

  00003	8b 46 04	 mov	 eax, DWORD PTR [esi+4]
  00006	8b 48 04	 mov	 ecx, DWORD PTR [eax+4]
  00009	51		 push	 ecx
  0000a	8b ce		 mov	 ecx, esi
  0000c	e8 00 00 00 00	 call	 ?_Erase@?$_Tree@V?$_Tmap_traits@_J_JU?$less@_J@std@@V?$allocator@U?$pair@$$CB_J_J@std@@@2@$0A@@std@@@std@@IAEXPAU_Node@?$_Tree_nod@V?$_Tmap_traits@_J_JU?$less@_J@std@@V?$allocator@U?$pair@$$CB_J_J@std@@@2@$0A@@std@@@2@@Z ; std::_Tree<std::_Tmap_traits<__int64,__int64,std::less<__int64>,std::allocator<std::pair<__int64 const ,__int64> >,0> >::_Erase

; 782  : 		_Root() = _Myhead, _Mysize = 0;

  00011	8b 46 04	 mov	 eax, DWORD PTR [esi+4]
  00014	89 40 04	 mov	 DWORD PTR [eax+4], eax

; 783  : 		_Lmost() = _Myhead, _Rmost() = _Myhead;

  00017	8b 46 04	 mov	 eax, DWORD PTR [esi+4]
  0001a	c7 46 08 00 00
	00 00		 mov	 DWORD PTR [esi+8], 0
  00021	89 00		 mov	 DWORD PTR [eax], eax
  00023	8b 76 04	 mov	 esi, DWORD PTR [esi+4]
  00026	89 76 08	 mov	 DWORD PTR [esi+8], esi
  00029	5e		 pop	 esi

; 784  : 		}

  0002a	c3		 ret	 0
?clear@?$_Tree@V?$_Tmap_traits@_J_JU?$less@_J@std@@V?$allocator@U?$pair@$$CB_J_J@std@@@2@$0A@@std@@@std@@QAEXXZ ENDP ; std::_Tree<std::_Tmap_traits<__int64,__int64,std::less<__int64>,std::allocator<std::pair<__int64 const ,__int64> >,0> >::clear
_TEXT	ENDS
PUBLIC	?clear@?$_Tree@V?$_Tmap_traits@_JUtagAGGRO@@U?$less@_J@std@@V?$allocator@U?$pair@$$CB_JUtagAGGRO@@@std@@@3@$0A@@std@@@std@@QAEXXZ ; std::_Tree<std::_Tmap_traits<__int64,tagAGGRO,std::less<__int64>,std::allocator<std::pair<__int64 const ,tagAGGRO> >,0> >::clear
; Function compile flags: /Ogty
;	COMDAT ?clear@?$_Tree@V?$_Tmap_traits@_JUtagAGGRO@@U?$less@_J@std@@V?$allocator@U?$pair@$$CB_JUtagAGGRO@@@std@@@3@$0A@@std@@@std@@QAEXXZ
_TEXT	SEGMENT
?clear@?$_Tree@V?$_Tmap_traits@_JUtagAGGRO@@U?$less@_J@std@@V?$allocator@U?$pair@$$CB_JUtagAGGRO@@@std@@@3@$0A@@std@@@std@@QAEXXZ PROC NEAR ; std::_Tree<std::_Tmap_traits<__int64,tagAGGRO,std::less<__int64>,std::allocator<std::pair<__int64 const ,tagAGGRO> >,0> >::clear, COMDAT
; _this$ = ecx

; 780  : 		{	// erase all

  00000	56		 push	 esi
  00001	8b f1		 mov	 esi, ecx

; 781  : 		_Erase(_Root());

  00003	8b 46 04	 mov	 eax, DWORD PTR [esi+4]
  00006	8b 48 04	 mov	 ecx, DWORD PTR [eax+4]
  00009	51		 push	 ecx
  0000a	8b ce		 mov	 ecx, esi
  0000c	e8 00 00 00 00	 call	 ?_Erase@?$_Tree@V?$_Tmap_traits@_JUtagAGGRO@@U?$less@_J@std@@V?$allocator@U?$pair@$$CB_JUtagAGGRO@@@std@@@3@$0A@@std@@@std@@IAEXPAU_Node@?$_Tree_nod@V?$_Tmap_traits@_JUtagAGGRO@@U?$less@_J@std@@V?$allocator@U?$pair@$$CB_JUtagAGGRO@@@std@@@3@$0A@@std@@@2@@Z ; std::_Tree<std::_Tmap_traits<__int64,tagAGGRO,std::less<__int64>,std::allocator<std::pair<__int64 const ,tagAGGRO> >,0> >::_Erase

; 782  : 		_Root() = _Myhead, _Mysize = 0;

  00011	8b 46 04	 mov	 eax, DWORD PTR [esi+4]
  00014	89 40 04	 mov	 DWORD PTR [eax+4], eax

; 783  : 		_Lmost() = _Myhead, _Rmost() = _Myhead;

  00017	8b 46 04	 mov	 eax, DWORD PTR [esi+4]
  0001a	c7 46 08 00 00
	00 00		 mov	 DWORD PTR [esi+8], 0
  00021	89 00		 mov	 DWORD PTR [eax], eax
  00023	8b 76 04	 mov	 esi, DWORD PTR [esi+4]
  00026	89 76 08	 mov	 DWORD PTR [esi+8], esi
  00029	5e		 pop	 esi

; 784  : 		}

  0002a	c3		 ret	 0
?clear@?$_Tree@V?$_Tmap_traits@_JUtagAGGRO@@U?$less@_J@std@@V?$allocator@U?$pair@$$CB_JUtagAGGRO@@@std@@@3@$0A@@std@@@std@@QAEXXZ ENDP ; std::_Tree<std::_Tmap_traits<__int64,tagAGGRO,std::less<__int64>,std::allocator<std::pair<__int64 const ,tagAGGRO> >,0> >::clear
_TEXT	ENDS
PUBLIC	?clear@?$_Tree@V?$_Tmap_traits@EPAVCTItem@@U?$less@E@std@@V?$allocator@U?$pair@$$CBEPAVCTItem@@@std@@@3@$0A@@std@@@std@@QAEXXZ ; std::_Tree<std::_Tmap_traits<unsigned char,CTItem *,std::less<unsigned char>,std::allocator<std::pair<unsigned char const ,CTItem *> >,0> >::clear
; Function compile flags: /Ogty
;	COMDAT ?clear@?$_Tree@V?$_Tmap_traits@EPAVCTItem@@U?$less@E@std@@V?$allocator@U?$pair@$$CBEPAVCTItem@@@std@@@3@$0A@@std@@@std@@QAEXXZ
_TEXT	SEGMENT
?clear@?$_Tree@V?$_Tmap_traits@EPAVCTItem@@U?$less@E@std@@V?$allocator@U?$pair@$$CBEPAVCTItem@@@std@@@3@$0A@@std@@@std@@QAEXXZ PROC NEAR ; std::_Tree<std::_Tmap_traits<unsigned char,CTItem *,std::less<unsigned char>,std::allocator<std::pair<unsigned char const ,CTItem *> >,0> >::clear, COMDAT
; _this$ = ecx

; 780  : 		{	// erase all

  00000	56		 push	 esi
  00001	8b f1		 mov	 esi, ecx

; 781  : 		_Erase(_Root());

  00003	8b 46 04	 mov	 eax, DWORD PTR [esi+4]
  00006	8b 48 04	 mov	 ecx, DWORD PTR [eax+4]
  00009	51		 push	 ecx
  0000a	8b ce		 mov	 ecx, esi
  0000c	e8 00 00 00 00	 call	 ?_Erase@?$_Tree@V?$_Tmap_traits@EPAVCTItem@@U?$less@E@std@@V?$allocator@U?$pair@$$CBEPAVCTItem@@@std@@@3@$0A@@std@@@std@@IAEXPAU_Node@?$_Tree_nod@V?$_Tmap_traits@EPAVCTItem@@U?$less@E@std@@V?$allocator@U?$pair@$$CBEPAVCTItem@@@std@@@3@$0A@@std@@@2@@Z ; std::_Tree<std::_Tmap_traits<unsigned char,CTItem *,std::less<unsigned char>,std::allocator<std::pair<unsigned char const ,CTItem *> >,0> >::_Erase

; 782  : 		_Root() = _Myhead, _Mysize = 0;

  00011	8b 46 04	 mov	 eax, DWORD PTR [esi+4]
  00014	89 40 04	 mov	 DWORD PTR [eax+4], eax

; 783  : 		_Lmost() = _Myhead, _Rmost() = _Myhead;

  00017	8b 46 04	 mov	 eax, DWORD PTR [esi+4]
  0001a	c7 46 08 00 00
	00 00		 mov	 DWORD PTR [esi+8], 0
  00021	89 00		 mov	 DWORD PTR [eax], eax
  00023	8b 76 04	 mov	 esi, DWORD PTR [esi+4]
  00026	89 76 08	 mov	 DWORD PTR [esi+8], esi
  00029	5e		 pop	 esi

; 784  : 		}

  0002a	c3		 ret	 0
?clear@?$_Tree@V?$_Tmap_traits@EPAVCTItem@@U?$less@E@std@@V?$allocator@U?$pair@$$CBEPAVCTItem@@@std@@@3@$0A@@std@@@std@@QAEXXZ ENDP ; std::_Tree<std::_Tmap_traits<unsigned char,CTItem *,std::less<unsigned char>,std::allocator<std::pair<unsigned char const ,CTItem *> >,0> >::clear
_TEXT	ENDS
PUBLIC	?_Tidy@?$vector@PAVCTSkill@@V?$allocator@PAVCTSkill@@@std@@@std@@IAEXXZ ; std::vector<CTSkill *,std::allocator<CTSkill *> >::_Tidy
; Function compile flags: /Ogty
; File c:\program files (x86)\microsoft visual studio .net 2003\vc7\include\vector
;	COMDAT ?_Tidy@?$vector@PAVCTSkill@@V?$allocator@PAVCTSkill@@@std@@@std@@IAEXXZ
_TEXT	SEGMENT
?_Tidy@?$vector@PAVCTSkill@@V?$allocator@PAVCTSkill@@@std@@@std@@IAEXXZ PROC NEAR ; std::vector<CTSkill *,std::allocator<CTSkill *> >::_Tidy, COMDAT
; _this$ = ecx

; 791  : 		{	// free all storage

  00000	56		 push	 esi
  00001	8b f1		 mov	 esi, ecx

; 792  : 		if (_Myfirst != 0)

  00003	8b 46 04	 mov	 eax, DWORD PTR [esi+4]
  00006	85 c0		 test	 eax, eax
  00008	74 09		 je	 SHORT $L154266

; 793  : 			{	// something to free, destroy and deallocate it
; 794  : 			_Destroy(_Myfirst, _Mylast);
; 795  : 			this->_Alval.deallocate(_Myfirst, _Myend - _Myfirst);

  0000a	50		 push	 eax
  0000b	e8 00 00 00 00	 call	 ??3@YAXPAX@Z		; operator delete
  00010	83 c4 04	 add	 esp, 4
$L154266:

; 796  : 			}
; 797  : 		_Myfirst = 0, _Mylast = 0, _Myend = 0;

  00013	c7 46 04 00 00
	00 00		 mov	 DWORD PTR [esi+4], 0
  0001a	c7 46 08 00 00
	00 00		 mov	 DWORD PTR [esi+8], 0
  00021	c7 46 0c 00 00
	00 00		 mov	 DWORD PTR [esi+12], 0
  00028	5e		 pop	 esi

; 798  : 		}

  00029	c3		 ret	 0
?_Tidy@?$vector@PAVCTSkill@@V?$allocator@PAVCTSkill@@@std@@@std@@IAEXXZ ENDP ; std::vector<CTSkill *,std::allocator<CTSkill *> >::_Tidy
_TEXT	ENDS
PUBLIC	??Eiterator@?$_Tree@V?$_Tmap_traits@EPAVCTItem@@U?$less@E@std@@V?$allocator@U?$pair@$$CBEPAVCTItem@@@std@@@3@$0A@@std@@@std@@QAEAAV012@XZ ; std::_Tree<std::_Tmap_traits<unsigned char,CTItem *,std::less<unsigned char>,std::allocator<std::pair<unsigned char const ,CTItem *> >,0> >::iterator::operator++
; Function compile flags: /Ogty
; File c:\program files (x86)\microsoft visual studio .net 2003\vc7\include\xtree
;	COMDAT ??Eiterator@?$_Tree@V?$_Tmap_traits@EPAVCTItem@@U?$less@E@std@@V?$allocator@U?$pair@$$CBEPAVCTItem@@@std@@@3@$0A@@std@@@std@@QAEAAV012@XZ
_TEXT	SEGMENT
??Eiterator@?$_Tree@V?$_Tmap_traits@EPAVCTItem@@U?$less@E@std@@V?$allocator@U?$pair@$$CBEPAVCTItem@@@std@@@3@$0A@@std@@@std@@QAEAAV012@XZ PROC NEAR ; std::_Tree<std::_Tmap_traits<unsigned char,CTItem *,std::less<unsigned char>,std::allocator<std::pair<unsigned char const ,CTItem *> >,0> >::iterator::operator++, COMDAT
; _this$ = ecx

; 326  : 			{	// preincrement

  00000	56		 push	 esi
  00001	8b f1		 mov	 esi, ecx

; 327  : 			++(*(const_iterator *)this);

  00003	e8 00 00 00 00	 call	 ?_Inc@const_iterator@?$_Tree@V?$_Tmap_traits@EPAVCTItem@@U?$less@E@std@@V?$allocator@U?$pair@$$CBEPAVCTItem@@@std@@@3@$0A@@std@@@std@@QAEXXZ ; std::_Tree<std::_Tmap_traits<unsigned char,CTItem *,std::less<unsigned char>,std::allocator<std::pair<unsigned char const ,CTItem *> >,0> >::const_iterator::_Inc

; 328  : 			return (*this);

  00008	8b c6		 mov	 eax, esi
  0000a	5e		 pop	 esi

; 329  : 			}

  0000b	c3		 ret	 0
??Eiterator@?$_Tree@V?$_Tmap_traits@EPAVCTItem@@U?$less@E@std@@V?$allocator@U?$pair@$$CBEPAVCTItem@@@std@@@3@$0A@@std@@@std@@QAEAAV012@XZ ENDP ; std::_Tree<std::_Tmap_traits<unsigned char,CTItem *,std::less<unsigned char>,std::allocator<std::pair<unsigned char const ,CTItem *> >,0> >::iterator::operator++
_TEXT	ENDS
PUBLIC	??Eiterator@?$_Tree@V?$_Tmap_traits@GPAVCTSkill@@U?$less@G@std@@V?$allocator@U?$pair@$$CBGPAVCTSkill@@@std@@@3@$0A@@std@@@std@@QAEAAV012@XZ ; std::_Tree<std::_Tmap_traits<unsigned short,CTSkill *,std::less<unsigned short>,std::allocator<std::pair<unsigned short const ,CTSkill *> >,0> >::iterator::operator++
; Function compile flags: /Ogty
;	COMDAT ??Eiterator@?$_Tree@V?$_Tmap_traits@GPAVCTSkill@@U?$less@G@std@@V?$allocator@U?$pair@$$CBGPAVCTSkill@@@std@@@3@$0A@@std@@@std@@QAEAAV012@XZ
_TEXT	SEGMENT
??Eiterator@?$_Tree@V?$_Tmap_traits@GPAVCTSkill@@U?$less@G@std@@V?$allocator@U?$pair@$$CBGPAVCTSkill@@@std@@@3@$0A@@std@@@std@@QAEAAV012@XZ PROC NEAR ; std::_Tree<std::_Tmap_traits<unsigned short,CTSkill *,std::less<unsigned short>,std::allocator<std::pair<unsigned short const ,CTSkill *> >,0> >::iterator::operator++, COMDAT
; _this$ = ecx

; 326  : 			{	// preincrement

  00000	56		 push	 esi
  00001	8b f1		 mov	 esi, ecx

; 327  : 			++(*(const_iterator *)this);

  00003	e8 00 00 00 00	 call	 ?_Inc@const_iterator@?$_Tree@V?$_Tmap_traits@GPAVCTSkill@@U?$less@G@std@@V?$allocator@U?$pair@$$CBGPAVCTSkill@@@std@@@3@$0A@@std@@@std@@QAEXXZ ; std::_Tree<std::_Tmap_traits<unsigned short,CTSkill *,std::less<unsigned short>,std::allocator<std::pair<unsigned short const ,CTSkill *> >,0> >::const_iterator::_Inc

; 328  : 			return (*this);

  00008	8b c6		 mov	 eax, esi
  0000a	5e		 pop	 esi

; 329  : 			}

  0000b	c3		 ret	 0
??Eiterator@?$_Tree@V?$_Tmap_traits@GPAVCTSkill@@U?$less@G@std@@V?$allocator@U?$pair@$$CBGPAVCTSkill@@@std@@@3@$0A@@std@@@std@@QAEAAV012@XZ ENDP ; std::_Tree<std::_Tmap_traits<unsigned short,CTSkill *,std::less<unsigned short>,std::allocator<std::pair<unsigned short const ,CTSkill *> >,0> >::iterator::operator++
_TEXT	ENDS
PUBLIC	?clear@?$vector@PAVCTSkill@@V?$allocator@PAVCTSkill@@@std@@@std@@QAEXXZ ; std::vector<CTSkill *,std::allocator<CTSkill *> >::clear
; Function compile flags: /Ogty
; File c:\program files (x86)\microsoft visual studio .net 2003\vc7\include\vector
;	COMDAT ?clear@?$vector@PAVCTSkill@@V?$allocator@PAVCTSkill@@@std@@@std@@QAEXXZ
_TEXT	SEGMENT
?clear@?$vector@PAVCTSkill@@V?$allocator@PAVCTSkill@@@std@@@std@@QAEXXZ PROC NEAR ; std::vector<CTSkill *,std::allocator<CTSkill *> >::clear, COMDAT
; _this$ = ecx

; 743  : 		{	// erase all

  00000	56		 push	 esi
  00001	8b f1		 mov	 esi, ecx

; 744  : 		_Tidy();

  00003	8b 46 04	 mov	 eax, DWORD PTR [esi+4]
  00006	85 c0		 test	 eax, eax
  00008	74 09		 je	 SHORT $L154292
  0000a	50		 push	 eax
  0000b	e8 00 00 00 00	 call	 ??3@YAXPAX@Z		; operator delete
  00010	83 c4 04	 add	 esp, 4
$L154292:
  00013	c7 46 04 00 00
	00 00		 mov	 DWORD PTR [esi+4], 0
  0001a	c7 46 08 00 00
	00 00		 mov	 DWORD PTR [esi+8], 0
  00021	c7 46 0c 00 00
	00 00		 mov	 DWORD PTR [esi+12], 0
  00028	5e		 pop	 esi

; 745  : 		}

  00029	c3		 ret	 0
?clear@?$vector@PAVCTSkill@@V?$allocator@PAVCTSkill@@@std@@@std@@QAEXXZ ENDP ; std::vector<CTSkill *,std::allocator<CTSkill *> >::clear
_TEXT	ENDS
PUBLIC	??Eiterator@?$_Tree@V?$_Tmap_traits@EPAVCTItem@@U?$less@E@std@@V?$allocator@U?$pair@$$CBEPAVCTItem@@@std@@@3@$0A@@std@@@std@@QAE?AV012@H@Z ; std::_Tree<std::_Tmap_traits<unsigned char,CTItem *,std::less<unsigned char>,std::allocator<std::pair<unsigned char const ,CTItem *> >,0> >::iterator::operator++
; Function compile flags: /Ogty
; File c:\program files (x86)\microsoft visual studio .net 2003\vc7\include\xtree
;	COMDAT ??Eiterator@?$_Tree@V?$_Tmap_traits@EPAVCTItem@@U?$less@E@std@@V?$allocator@U?$pair@$$CBEPAVCTItem@@@std@@@3@$0A@@std@@@std@@QAE?AV012@H@Z
_TEXT	SEGMENT
___$ReturnUdt$ = 8					; size = 4
___formal$ = 12						; size = 4
??Eiterator@?$_Tree@V?$_Tmap_traits@EPAVCTItem@@U?$less@E@std@@V?$allocator@U?$pair@$$CBEPAVCTItem@@@std@@@3@$0A@@std@@@std@@QAE?AV012@H@Z PROC NEAR ; std::_Tree<std::_Tmap_traits<unsigned char,CTItem *,std::less<unsigned char>,std::allocator<std::pair<unsigned char const ,CTItem *> >,0> >::iterator::operator++, COMDAT
; _this$ = ecx

; 332  : 			{	// postincrement

  00000	56		 push	 esi

; 333  : 			iterator _Tmp = *this;

  00001	8b 31		 mov	 esi, DWORD PTR [ecx]

; 334  : 			++*this;

  00003	e8 00 00 00 00	 call	 ?_Inc@const_iterator@?$_Tree@V?$_Tmap_traits@EPAVCTItem@@U?$less@E@std@@V?$allocator@U?$pair@$$CBEPAVCTItem@@@std@@@3@$0A@@std@@@std@@QAEXXZ ; std::_Tree<std::_Tmap_traits<unsigned char,CTItem *,std::less<unsigned char>,std::allocator<std::pair<unsigned char const ,CTItem *> >,0> >::const_iterator::_Inc

; 335  : 			return (_Tmp);

  00008	8b 44 24 08	 mov	 eax, DWORD PTR ___$ReturnUdt$[esp]
  0000c	89 30		 mov	 DWORD PTR [eax], esi
  0000e	5e		 pop	 esi

; 336  : 			}

  0000f	c2 08 00	 ret	 8
??Eiterator@?$_Tree@V?$_Tmap_traits@EPAVCTItem@@U?$less@E@std@@V?$allocator@U?$pair@$$CBEPAVCTItem@@@std@@@3@$0A@@std@@@std@@QAE?AV012@H@Z ENDP ; std::_Tree<std::_Tmap_traits<unsigned char,CTItem *,std::less<unsigned char>,std::allocator<std::pair<unsigned char const ,CTItem *> >,0> >::iterator::operator++
_TEXT	ENDS
PUBLIC	??Eiterator@?$_Tree@V?$_Tmap_traits@GPAVCTSkill@@U?$less@G@std@@V?$allocator@U?$pair@$$CBGPAVCTSkill@@@std@@@3@$0A@@std@@@std@@QAE?AV012@H@Z ; std::_Tree<std::_Tmap_traits<unsigned short,CTSkill *,std::less<unsigned short>,std::allocator<std::pair<unsigned short const ,CTSkill *> >,0> >::iterator::operator++
; Function compile flags: /Ogty
;	COMDAT ??Eiterator@?$_Tree@V?$_Tmap_traits@GPAVCTSkill@@U?$less@G@std@@V?$allocator@U?$pair@$$CBGPAVCTSkill@@@std@@@3@$0A@@std@@@std@@QAE?AV012@H@Z
_TEXT	SEGMENT
___$ReturnUdt$ = 8					; size = 4
___formal$ = 12						; size = 4
??Eiterator@?$_Tree@V?$_Tmap_traits@GPAVCTSkill@@U?$less@G@std@@V?$allocator@U?$pair@$$CBGPAVCTSkill@@@std@@@3@$0A@@std@@@std@@QAE?AV012@H@Z PROC NEAR ; std::_Tree<std::_Tmap_traits<unsigned short,CTSkill *,std::less<unsigned short>,std::allocator<std::pair<unsigned short const ,CTSkill *> >,0> >::iterator::operator++, COMDAT
; _this$ = ecx

; 332  : 			{	// postincrement

  00000	56		 push	 esi

; 333  : 			iterator _Tmp = *this;

  00001	8b 31		 mov	 esi, DWORD PTR [ecx]

; 334  : 			++*this;

  00003	e8 00 00 00 00	 call	 ?_Inc@const_iterator@?$_Tree@V?$_Tmap_traits@GPAVCTSkill@@U?$less@G@std@@V?$allocator@U?$pair@$$CBGPAVCTSkill@@@std@@@3@$0A@@std@@@std@@QAEXXZ ; std::_Tree<std::_Tmap_traits<unsigned short,CTSkill *,std::less<unsigned short>,std::allocator<std::pair<unsigned short const ,CTSkill *> >,0> >::const_iterator::_Inc

; 335  : 			return (_Tmp);

  00008	8b 44 24 08	 mov	 eax, DWORD PTR ___$ReturnUdt$[esp]
  0000c	89 30		 mov	 DWORD PTR [eax], esi
  0000e	5e		 pop	 esi

; 336  : 			}

  0000f	c2 08 00	 ret	 8
??Eiterator@?$_Tree@V?$_Tmap_traits@GPAVCTSkill@@U?$less@G@std@@V?$allocator@U?$pair@$$CBGPAVCTSkill@@@std@@@3@$0A@@std@@@std@@QAE?AV012@H@Z ENDP ; std::_Tree<std::_Tmap_traits<unsigned short,CTSkill *,std::less<unsigned short>,std::allocator<std::pair<unsigned short const ,CTSkill *> >,0> >::iterator::operator++
_TEXT	ENDS
EXTRN	?LeaveMAP@CTMap@@QAEXPAVCTMonster@@E@Z:NEAR	; CTMap::LeaveMAP
EXTRN	?ExecAI@CTAICommand@@UAEEPAVCTMonster@@KKE@Z:NEAR ; CTAICommand::ExecAI
EXTRN	?OnEvent@CTMonster@@QAEXW4AI_TRIGGER@@KKKE@Z:NEAR ; CTMonster::OnEvent
EXTRN	?FindTInven@CTObjBase@@QAEPAVCTInven@@E@Z:NEAR	; CTObjBase::FindTInven
; Function compile flags: /Ogty
; File c:\users\pierr\desktop\4story - oldschool\sources\tserver\tmapsvr\taicmdleave.cpp
;	COMDAT ?ExecAI@CTAICmdLeave@@UAEEPAVCTMonster@@KKE@Z
_TEXT	SEGMENT
_this$ = -4						; size = 4
_itList$ = 8						; size = 4
_it$152332 = 8						; size = 4
_pMON$ = 8						; size = 4
_dwEventHost$ = 12					; size = 4
_dwRHId$ = 16						; size = 4
_bRHType$ = 20						; size = 1
_itSk$152448 = 20					; size = 4
?ExecAI@CTAICmdLeave@@UAEEPAVCTMonster@@KKE@Z PROC NEAR	; CTAICmdLeave::ExecAI, COMDAT
; _this$ = ecx

; 23   : {

  00000	51		 push	 ecx
  00001	56		 push	 esi

; 24   : 	if( !pMON->m_bLeaveCount && pMON->m_dwInvenLock)

  00002	8b 74 24 0c	 mov	 esi, DWORD PTR _pMON$[esp+4]
  00006	8a 86 08 01 00
	00		 mov	 al, BYTE PTR [esi+264]
  0000c	84 c0		 test	 al, al
  0000e	89 4c 24 04	 mov	 DWORD PTR _this$[esp+8], ecx
  00012	75 18		 jne	 SHORT $L155082
  00014	8b 86 04 01 00
	00		 mov	 eax, DWORD PTR [esi+260]
  0001a	85 c0		 test	 eax, eax
  0001c	74 0e		 je	 SHORT $L155082

; 25   : 	{
; 26   : 		pMON->m_bLeaveCount++;

  0001e	c6 86 08 01 00
	00 01		 mov	 BYTE PTR [esi+264], 1

; 27   : 		return TRUE;

  00025	b0 01		 mov	 al, 1
  00027	5e		 pop	 esi

; 84   : }

  00028	59		 pop	 ecx
  00029	c2 10 00	 ret	 16			; 00000010H
$L155082:
  0002c	53		 push	 ebx
  0002d	57		 push	 edi

; 28   : 	}
; 29   : 
; 30   : 	CTInven * pInven = pMON->FindTInven(INVEN_DEFAULT);

  0002e	68 ff 00 00 00	 push	 255			; 000000ffH
  00033	8b ce		 mov	 ecx, esi
  00035	e8 00 00 00 00	 call	 ?FindTInven@CTObjBase@@QAEPAVCTInven@@E@Z ; CTObjBase::FindTInven

; 31   : 	if(pInven)

  0003a	85 c0		 test	 eax, eax
  0003c	74 31		 je	 SHORT $L152337

; 32   : 	{
; 33   : 		MAPTITEM::iterator it;
; 34   : 		for(it=pInven->m_mapTITEM.begin(); it!=pInven->m_mapTITEM.end(); )

  0003e	8b 58 0c	 mov	 ebx, DWORD PTR [eax+12]
  00041	8b 03		 mov	 eax, DWORD PTR [ebx]
  00043	3b c3		 cmp	 eax, ebx
  00045	89 44 24 14	 mov	 DWORD PTR _it$152332[esp+12], eax
  00049	74 24		 je	 SHORT $L152337
  0004b	eb 03 8d 49 00	 npad	 5
$L152336:

; 35   : 		{
; 36   : 			CTItem * pItem = (*it).second;

  00050	8b 78 10	 mov	 edi, DWORD PTR [eax+16]

; 37   : 			it++;

  00053	8d 4c 24 14	 lea	 ecx, DWORD PTR _it$152332[esp+12]
  00057	e8 00 00 00 00	 call	 ?_Inc@const_iterator@?$_Tree@V?$_Tmap_traits@EPAVCTItem@@U?$less@E@std@@V?$allocator@U?$pair@$$CBEPAVCTItem@@@std@@@3@$0A@@std@@@std@@QAEXXZ ; std::_Tree<std::_Tmap_traits<unsigned char,CTItem *,std::less<unsigned char>,std::allocator<std::pair<unsigned char const ,CTItem *> >,0> >::const_iterator::_Inc

; 38   : 
; 39   : 			if(pItem->m_bMaxRouting)

  0005c	8a 47 58	 mov	 al, BYTE PTR [edi+88]
  0005f	84 c0		 test	 al, al
  00061	0f 85 79 02 00
	00		 jne	 $L155074
  00067	8b 44 24 14	 mov	 eax, DWORD PTR _it$152332[esp+12]
  0006b	3b c3		 cmp	 eax, ebx
  0006d	75 e1		 jne	 SHORT $L152336
$L152337:

; 41   : 		}
; 42   : 	}
; 43   : 
; 44   : 	MAPTITEM::iterator itList;
; 45   : 	for(itList=pMON->m_mapTItemList.begin(); itList!=pMON->m_mapTItemList.end(); itList++)

  0006f	8b 8e 6c 01 00
	00		 mov	 ecx, DWORD PTR [esi+364]
  00075	8b 01		 mov	 eax, DWORD PTR [ecx]
  00077	3b c1		 cmp	 eax, ecx
  00079	89 44 24 14	 mov	 DWORD PTR _itList$[esp+12], eax
  0007d	74 23		 je	 SHORT $L152365
  0007f	90		 npad	 1
$L154481:

; 46   : 		delete (*itList).second;

  00080	8b 48 10	 mov	 ecx, DWORD PTR [eax+16]
  00083	85 c9		 test	 ecx, ecx
  00085	74 06		 je	 SHORT $L152364
  00087	8b 01		 mov	 eax, DWORD PTR [ecx]
  00089	6a 01		 push	 1
  0008b	ff 10		 call	 DWORD PTR [eax]
$L152364:
  0008d	8d 4c 24 14	 lea	 ecx, DWORD PTR _itList$[esp+12]
  00091	e8 00 00 00 00	 call	 ?_Inc@const_iterator@?$_Tree@V?$_Tmap_traits@EPAVCTItem@@U?$less@E@std@@V?$allocator@U?$pair@$$CBEPAVCTItem@@@std@@@3@$0A@@std@@@std@@QAEXXZ ; std::_Tree<std::_Tmap_traits<unsigned char,CTItem *,std::less<unsigned char>,std::allocator<std::pair<unsigned char const ,CTItem *> >,0> >::const_iterator::_Inc
  00096	8b 44 24 14	 mov	 eax, DWORD PTR _itList$[esp+12]
  0009a	3b 86 6c 01 00
	00		 cmp	 eax, DWORD PTR [esi+364]
  000a0	75 de		 jne	 SHORT $L154481
$L152365:

; 47   : 	pMON->m_mapTItemList.clear();

  000a2	8b 8e 6c 01 00
	00		 mov	 ecx, DWORD PTR [esi+364]
  000a8	8b 59 04	 mov	 ebx, DWORD PTR [ecx+4]
  000ab	8a 43 15	 mov	 al, BYTE PTR [ebx+21]
  000ae	84 c0		 test	 al, al
  000b0	8d be 68 01 00
	00		 lea	 edi, DWORD PTR [esi+360]
  000b6	55		 push	 ebp
  000b7	8b eb		 mov	 ebp, ebx
  000b9	75 25		 jne	 SHORT $L154593
  000bb	eb 03 8d 49 00	 npad	 5
$L154591:
  000c0	8b 55 08	 mov	 edx, DWORD PTR [ebp+8]
  000c3	52		 push	 edx
  000c4	8b cf		 mov	 ecx, edi
  000c6	e8 00 00 00 00	 call	 ?_Erase@?$_Tree@V?$_Tmap_traits@EPAVCTItem@@U?$less@E@std@@V?$allocator@U?$pair@$$CBEPAVCTItem@@@std@@@3@$0A@@std@@@std@@IAEXPAU_Node@?$_Tree_nod@V?$_Tmap_traits@EPAVCTItem@@U?$less@E@std@@V?$allocator@U?$pair@$$CBEPAVCTItem@@@std@@@3@$0A@@std@@@2@@Z ; std::_Tree<std::_Tmap_traits<unsigned char,CTItem *,std::less<unsigned char>,std::allocator<std::pair<unsigned char const ,CTItem *> >,0> >::_Erase
  000cb	8b 6d 00	 mov	 ebp, DWORD PTR [ebp]
  000ce	53		 push	 ebx
  000cf	e8 00 00 00 00	 call	 ??3@YAXPAX@Z		; operator delete
  000d4	8a 45 15	 mov	 al, BYTE PTR [ebp+21]
  000d7	83 c4 04	 add	 esp, 4
  000da	84 c0		 test	 al, al
  000dc	8b dd		 mov	 ebx, ebp
  000de	74 e0		 je	 SHORT $L154591
$L154593:
  000e0	8b 47 04	 mov	 eax, DWORD PTR [edi+4]
  000e3	89 40 04	 mov	 DWORD PTR [eax+4], eax
  000e6	8b 47 04	 mov	 eax, DWORD PTR [edi+4]
  000e9	c7 47 08 00 00
	00 00		 mov	 DWORD PTR [edi+8], 0
  000f0	89 00		 mov	 DWORD PTR [eax], eax
  000f2	8b 7f 04	 mov	 edi, DWORD PTR [edi+4]
  000f5	89 7f 08	 mov	 DWORD PTR [edi+8], edi

; 48   : 
; 49   : 	pMON->m_mapDamage.clear();

  000f8	8b 86 54 01 00
	00		 mov	 eax, DWORD PTR [esi+340]
  000fe	8b 58 04	 mov	 ebx, DWORD PTR [eax+4]
  00101	8a 43 21	 mov	 al, BYTE PTR [ebx+33]
  00104	84 c0		 test	 al, al
  00106	8d be 50 01 00
	00		 lea	 edi, DWORD PTR [esi+336]
  0010c	8b eb		 mov	 ebp, ebx
  0010e	75 20		 jne	 SHORT $L154694
$L154692:
  00110	8b 4d 08	 mov	 ecx, DWORD PTR [ebp+8]
  00113	51		 push	 ecx
  00114	8b cf		 mov	 ecx, edi
  00116	e8 00 00 00 00	 call	 ?_Erase@?$_Tree@V?$_Tmap_traits@_J_JU?$less@_J@std@@V?$allocator@U?$pair@$$CB_J_J@std@@@2@$0A@@std@@@std@@IAEXPAU_Node@?$_Tree_nod@V?$_Tmap_traits@_J_JU?$less@_J@std@@V?$allocator@U?$pair@$$CB_J_J@std@@@2@$0A@@std@@@2@@Z ; std::_Tree<std::_Tmap_traits<__int64,__int64,std::less<__int64>,std::allocator<std::pair<__int64 const ,__int64> >,0> >::_Erase
  0011b	8b 6d 00	 mov	 ebp, DWORD PTR [ebp]
  0011e	53		 push	 ebx
  0011f	e8 00 00 00 00	 call	 ??3@YAXPAX@Z		; operator delete
  00124	8a 45 21	 mov	 al, BYTE PTR [ebp+33]
  00127	83 c4 04	 add	 esp, 4
  0012a	84 c0		 test	 al, al
  0012c	8b dd		 mov	 ebx, ebp
  0012e	74 e0		 je	 SHORT $L154692
$L154694:
  00130	8b 47 04	 mov	 eax, DWORD PTR [edi+4]
  00133	89 40 04	 mov	 DWORD PTR [eax+4], eax
  00136	8b 47 04	 mov	 eax, DWORD PTR [edi+4]
  00139	c7 47 08 00 00
	00 00		 mov	 DWORD PTR [edi+8], 0
  00140	89 00		 mov	 DWORD PTR [eax], eax
  00142	8b 7f 04	 mov	 edi, DWORD PTR [edi+4]
  00145	89 7f 08	 mov	 DWORD PTR [edi+8], edi

; 50   : 	pMON->m_mapAggro.clear();

  00148	8b 96 60 01 00
	00		 mov	 edx, DWORD PTR [esi+352]
  0014e	8b 5a 04	 mov	 ebx, DWORD PTR [edx+4]
  00151	8a 43 31	 mov	 al, BYTE PTR [ebx+49]
  00154	84 c0		 test	 al, al
  00156	8d be 5c 01 00
	00		 lea	 edi, DWORD PTR [esi+348]
  0015c	8b eb		 mov	 ebp, ebx
  0015e	75 20		 jne	 SHORT $L154792
$L154790:
  00160	8b 45 08	 mov	 eax, DWORD PTR [ebp+8]
  00163	50		 push	 eax
  00164	8b cf		 mov	 ecx, edi
  00166	e8 00 00 00 00	 call	 ?_Erase@?$_Tree@V?$_Tmap_traits@_JUtagAGGRO@@U?$less@_J@std@@V?$allocator@U?$pair@$$CB_JUtagAGGRO@@@std@@@3@$0A@@std@@@std@@IAEXPAU_Node@?$_Tree_nod@V?$_Tmap_traits@_JUtagAGGRO@@U?$less@_J@std@@V?$allocator@U?$pair@$$CB_JUtagAGGRO@@@std@@@3@$0A@@std@@@2@@Z ; std::_Tree<std::_Tmap_traits<__int64,tagAGGRO,std::less<__int64>,std::allocator<std::pair<__int64 const ,tagAGGRO> >,0> >::_Erase
  0016b	8b 6d 00	 mov	 ebp, DWORD PTR [ebp]
  0016e	53		 push	 ebx
  0016f	e8 00 00 00 00	 call	 ??3@YAXPAX@Z		; operator delete
  00174	8a 45 31	 mov	 al, BYTE PTR [ebp+49]
  00177	83 c4 04	 add	 esp, 4
  0017a	84 c0		 test	 al, al
  0017c	8b dd		 mov	 ebx, ebp
  0017e	74 e0		 je	 SHORT $L154790
$L154792:
  00180	8b 47 04	 mov	 eax, DWORD PTR [edi+4]
  00183	89 40 04	 mov	 DWORD PTR [eax+4], eax
  00186	8b 47 04	 mov	 eax, DWORD PTR [edi+4]
  00189	c7 47 08 00 00
	00 00		 mov	 DWORD PTR [edi+8], 0
  00190	89 00		 mov	 DWORD PTR [eax], eax
  00192	8b 7f 04	 mov	 edi, DWORD PTR [edi+4]
  00195	89 7f 08	 mov	 DWORD PTR [edi+8], edi

; 51   : 	pMON->m_mapGuildDamage.clear(); 

  00198	8b 8e 48 01 00
	00		 mov	 ecx, DWORD PTR [esi+328]
  0019e	8b 59 04	 mov	 ebx, DWORD PTR [ecx+4]
  001a1	8a 43 15	 mov	 al, BYTE PTR [ebx+21]
  001a4	84 c0		 test	 al, al
  001a6	8d be 44 01 00
	00		 lea	 edi, DWORD PTR [esi+324]
  001ac	8b eb		 mov	 ebp, ebx
  001ae	75 20		 jne	 SHORT $L154887
$L154885:
  001b0	8b 55 08	 mov	 edx, DWORD PTR [ebp+8]
  001b3	52		 push	 edx
  001b4	8b cf		 mov	 ecx, edi
  001b6	e8 00 00 00 00	 call	 ?_Erase@?$_Tree@V?$_Tmap_traits@KKU?$less@K@std@@V?$allocator@U?$pair@$$CBKK@std@@@2@$0A@@std@@@std@@IAEXPAU_Node@?$_Tree_nod@V?$_Tmap_traits@KKU?$less@K@std@@V?$allocator@U?$pair@$$CBKK@std@@@2@$0A@@std@@@2@@Z ; std::_Tree<std::_Tmap_traits<unsigned long,unsigned long,std::less<unsigned long>,std::allocator<std::pair<unsigned long const ,unsigned long> >,0> >::_Erase
  001bb	8b 6d 00	 mov	 ebp, DWORD PTR [ebp]
  001be	53		 push	 ebx
  001bf	e8 00 00 00 00	 call	 ??3@YAXPAX@Z		; operator delete
  001c4	8a 45 15	 mov	 al, BYTE PTR [ebp+21]
  001c7	83 c4 04	 add	 esp, 4
  001ca	84 c0		 test	 al, al
  001cc	8b dd		 mov	 ebx, ebp
  001ce	74 e0		 je	 SHORT $L154885
$L154887:
  001d0	8b 47 04	 mov	 eax, DWORD PTR [edi+4]
  001d3	89 40 04	 mov	 DWORD PTR [eax+4], eax
  001d6	8b 47 04	 mov	 eax, DWORD PTR [edi+4]
  001d9	33 db		 xor	 ebx, ebx
  001db	89 5f 08	 mov	 DWORD PTR [edi+8], ebx
  001de	89 00		 mov	 DWORD PTR [eax], eax
  001e0	8b 7f 04	 mov	 edi, DWORD PTR [edi+4]

; 52   : 
; 53   : 	pMON->m_pMAP->LeaveMAP( pMON, TRUE);

  001e3	6a 01		 push	 1
  001e5	89 7f 08	 mov	 DWORD PTR [edi+8], edi
  001e8	8b 4e 40	 mov	 ecx, DWORD PTR [esi+64]
  001eb	56		 push	 esi
  001ec	e8 00 00 00 00	 call	 ?LeaveMAP@CTMap@@QAEXPAVCTMonster@@E@Z ; CTMap::LeaveMAP

; 54   : 	if(pMON->m_pSPAWN->m_pSPAWN->m_dwDelay &&
; 55   : 		!pMON->m_bRemove)

  001f1	8b 86 e8 00 00
	00		 mov	 eax, DWORD PTR [esi+232]
  001f7	8b 48 04	 mov	 ecx, DWORD PTR [eax+4]
  001fa	39 59 58	 cmp	 DWORD PTR [ecx+88], ebx
  001fd	0f 84 e6 00 00
	00		 je	 $L152368
  00203	8a 86 74 01 00
	00		 mov	 al, BYTE PTR [esi+372]
  00209	84 c0		 test	 al, al
  0020b	0f 85 d8 00 00
	00		 jne	 $L152368

; 56   : 	{
; 57   : 		pMON->OnEvent( AT_DELETE, 0, 0, dwRHId, bRHType);

  00211	8b 6c 24 24	 mov	 ebp, DWORD PTR _bRHType$[esp+16]
  00215	8b 54 24 20	 mov	 edx, DWORD PTR _dwRHId$[esp+16]
  00219	55		 push	 ebp
  0021a	52		 push	 edx
  0021b	53		 push	 ebx
  0021c	53		 push	 ebx
  0021d	6a 06		 push	 6
  0021f	8b ce		 mov	 ecx, esi
  00221	e8 00 00 00 00	 call	 ?OnEvent@CTMonster@@QAEXW4AI_TRIGGER@@KKKE@Z ; CTMonster::OnEvent

; 63   : 	}
; 64   : 
; 65   : 	pMON->m_bStatus = OS_DISAPPEAR;
; 66   : 	pMON->m_dwHostID = 0;
; 67   : 	pMON->m_dwTargetID = 0;
; 68   : 	pMON->m_bTargetType = 0;
; 69   : 	pMON->m_dwInvenLock = 0;
; 70   : 
; 71   : 	if(!pMON->m_bEssential)

  00226	8a 86 fc 00 00
	00		 mov	 al, BYTE PTR [esi+252]
  0022c	84 c0		 test	 al, al
  0022e	88 9e cc 00 00
	00		 mov	 BYTE PTR [esi+204], bl
  00234	89 9e f8 00 00
	00		 mov	 DWORD PTR [esi+248], ebx
  0023a	89 9e 38 01 00
	00		 mov	 DWORD PTR [esi+312], ebx
  00240	88 9e 34 01 00
	00		 mov	 BYTE PTR [esi+308], bl
  00246	89 9e 04 01 00
	00		 mov	 DWORD PTR [esi+260], ebx
  0024c	75 75		 jne	 SHORT $L152370

; 72   : 	{
; 73   : 		MAPTSKILL::iterator itSk;
; 74   : 
; 75   : 		for(itSk=pMON->m_mapTSKILL.begin(); itSk!=pMON->m_mapTSKILL.end(); itSk++)

  0024e	8b 4e 18	 mov	 ecx, DWORD PTR [esi+24]
  00251	8b 01		 mov	 eax, DWORD PTR [ecx]
  00253	3b c1		 cmp	 eax, ecx
  00255	89 44 24 24	 mov	 DWORD PTR _itSk$152448[esp+16], eax
  00259	74 24		 je	 SHORT $L152454
  0025b	eb 03 8d 49 00	 npad	 5
$L154953:

; 76   : 			delete (*itSk).second;

  00260	8b 48 10	 mov	 ecx, DWORD PTR [eax+16]
  00263	3b cb		 cmp	 ecx, ebx
  00265	74 06		 je	 SHORT $L152453
  00267	8b 01		 mov	 eax, DWORD PTR [ecx]
  00269	6a 01		 push	 1
  0026b	ff 10		 call	 DWORD PTR [eax]
$L152453:
  0026d	8d 4c 24 24	 lea	 ecx, DWORD PTR _itSk$152448[esp+16]
  00271	e8 00 00 00 00	 call	 ?_Inc@const_iterator@?$_Tree@V?$_Tmap_traits@GPAVCTSkill@@U?$less@G@std@@V?$allocator@U?$pair@$$CBGPAVCTSkill@@@std@@@3@$0A@@std@@@std@@QAEXXZ ; std::_Tree<std::_Tmap_traits<unsigned short,CTSkill *,std::less<unsigned short>,std::allocator<std::pair<unsigned short const ,CTSkill *> >,0> >::const_iterator::_Inc
  00276	8b 44 24 24	 mov	 eax, DWORD PTR _itSk$152448[esp+16]
  0027a	3b 46 18	 cmp	 eax, DWORD PTR [esi+24]
  0027d	75 e1		 jne	 SHORT $L154953
$L152454:

; 77   : 
; 78   : 		pMON->m_vRemainSkill.clear();

  0027f	8b 46 34	 mov	 eax, DWORD PTR [esi+52]
  00282	3b c3		 cmp	 eax, ebx
  00284	74 09		 je	 SHORT $L155008
  00286	50		 push	 eax
  00287	e8 00 00 00 00	 call	 ??3@YAXPAX@Z		; operator delete
  0028c	83 c4 04	 add	 esp, 4
$L155008:
  0028f	89 5e 34	 mov	 DWORD PTR [esi+52], ebx
  00292	89 5e 38	 mov	 DWORD PTR [esi+56], ebx
  00295	89 5e 3c	 mov	 DWORD PTR [esi+60], ebx

; 79   : 		pMON->m_mapTSKILL.clear();

  00298	8b 4e 18	 mov	 ecx, DWORD PTR [esi+24]
  0029b	8b 51 04	 mov	 edx, DWORD PTR [ecx+4]
  0029e	8d 7e 14	 lea	 edi, DWORD PTR [esi+20]
  002a1	52		 push	 edx
  002a2	8b cf		 mov	 ecx, edi
  002a4	e8 00 00 00 00	 call	 ?_Erase@?$_Tree@V?$_Tmap_traits@GPAVCTSkill@@U?$less@G@std@@V?$allocator@U?$pair@$$CBGPAVCTSkill@@@std@@@3@$0A@@std@@@std@@IAEXPAU_Node@?$_Tree_nod@V?$_Tmap_traits@GPAVCTSkill@@U?$less@G@std@@V?$allocator@U?$pair@$$CBGPAVCTSkill@@@std@@@3@$0A@@std@@@2@@Z ; std::_Tree<std::_Tmap_traits<unsigned short,CTSkill *,std::less<unsigned short>,std::allocator<std::pair<unsigned short const ,CTSkill *> >,0> >::_Erase
  002a9	8b 47 04	 mov	 eax, DWORD PTR [edi+4]
  002ac	89 40 04	 mov	 DWORD PTR [eax+4], eax
  002af	8b 47 04	 mov	 eax, DWORD PTR [edi+4]
  002b2	89 5f 08	 mov	 DWORD PTR [edi+8], ebx
  002b5	89 00		 mov	 DWORD PTR [eax], eax
  002b7	8b 7f 04	 mov	 edi, DWORD PTR [edi+4]
  002ba	89 7f 08	 mov	 DWORD PTR [edi+8], edi

; 80   : 		pMON->m_pMON = NULL;

  002bd	89 9e ec 00 00
	00		 mov	 DWORD PTR [esi+236], ebx
$L152370:

; 81   : 	}
; 82   : 
; 83   : 	return CTAICommand::ExecAI( pMON, dwEventHost, dwRHId, bRHType);

  002c3	8b 44 24 20	 mov	 eax, DWORD PTR _dwRHId$[esp+16]
  002c7	8b 4c 24 1c	 mov	 ecx, DWORD PTR _dwEventHost$[esp+16]
  002cb	55		 push	 ebp
  002cc	50		 push	 eax
  002cd	51		 push	 ecx
  002ce	8b 4c 24 1c	 mov	 ecx, DWORD PTR _this$[esp+32]
  002d2	56		 push	 esi
  002d3	e8 00 00 00 00	 call	 ?ExecAI@CTAICommand@@UAEEPAVCTMonster@@KKE@Z ; CTAICommand::ExecAI
  002d8	5d		 pop	 ebp
  002d9	5f		 pop	 edi
  002da	5b		 pop	 ebx
  002db	5e		 pop	 esi

; 84   : }

  002dc	59		 pop	 ecx
  002dd	c2 10 00	 ret	 16			; 00000010H
$L155074:
  002e0	5f		 pop	 edi
  002e1	5b		 pop	 ebx

; 40   : 				return TRUE;

  002e2	b0 01		 mov	 al, 1
  002e4	5e		 pop	 esi

; 84   : }

  002e5	59		 pop	 ecx
  002e6	c2 10 00	 ret	 16			; 00000010H
$L152368:

; 58   : 	}
; 59   : 	else
; 60   : 	{
; 61   : 		pMON->OnEvent( AT_TIMEOUT, 0, 0, dwRHId, bRHType);

  002e9	8b 54 24 24	 mov	 edx, DWORD PTR _bRHType$[esp+16]
  002ed	8b 44 24 20	 mov	 eax, DWORD PTR _dwRHId$[esp+16]
  002f1	52		 push	 edx
  002f2	50		 push	 eax
  002f3	53		 push	 ebx
  002f4	53		 push	 ebx
  002f5	6a 0a		 push	 10			; 0000000aH
  002f7	8b ce		 mov	 ecx, esi
  002f9	e8 00 00 00 00	 call	 ?OnEvent@CTMonster@@QAEXW4AI_TRIGGER@@KKKE@Z ; CTMonster::OnEvent
  002fe	5d		 pop	 ebp
  002ff	5f		 pop	 edi
  00300	5b		 pop	 ebx

; 62   : 		return FALSE;

  00301	32 c0		 xor	 al, al
  00303	5e		 pop	 esi

; 84   : }

  00304	59		 pop	 ecx
  00305	c2 10 00	 ret	 16			; 00000010H
?ExecAI@CTAICmdLeave@@UAEEPAVCTMonster@@KKE@Z ENDP	; CTAICmdLeave::ExecAI
_TEXT	ENDS
END
