; Listing generated by Microsoft (R) Optimizing Compiler Version 13.10.3077 

	TITLE	.\TCell.cpp
	.386P
include listing.inc
if @Version gt 510
.model FLAT
else
_TEXT	SEGMENT PARA USE32 PUBLIC 'CODE'
_TEXT	ENDS
_DATA	SEGMENT DWORD USE32 PUBLIC 'DATA'
_DATA	ENDS
CONST	SEGMENT DWORD USE32 PUBLIC 'CONST'
CONST	ENDS
_BSS	SEGMENT DWORD USE32 PUBLIC 'BSS'
_BSS	ENDS
$$SYMBOLS	SEGMENT BYTE USE32 'DEBSYM'
$$SYMBOLS	ENDS
$$TYPES	SEGMENT BYTE USE32 'DEBTYP'
$$TYPES	ENDS
_TLS	SEGMENT DWORD USE32 PUBLIC 'TLS'
_TLS	ENDS
;	COMDAT ??_C@_0BE@JONHPENG@map?1set?$DMT?$DO?5too?5long?$AA@
CONST	SEGMENT DWORD USE32 PUBLIC 'CONST'
CONST	ENDS
text$yc	SEGMENT PARA USE32 PUBLIC 'CODE'
text$yc	ENDS
CRT$XCA	SEGMENT DWORD USE32 PUBLIC 'DATA'
CRT$XCA	ENDS
CRT$XCU	SEGMENT DWORD USE32 PUBLIC 'DATA'
CRT$XCU	ENDS
CRT$XCL	SEGMENT DWORD USE32 PUBLIC 'DATA'
CRT$XCL	ENDS
CRT$XCC	SEGMENT DWORD USE32 PUBLIC 'DATA'
CRT$XCC	ENDS
CRT$XCZ	SEGMENT DWORD USE32 PUBLIC 'DATA'
CRT$XCZ	ENDS
text$yd	SEGMENT PARA USE32 PUBLIC 'CODE'
text$yd	ENDS
ATL$__m	SEGMENT DWORD USE32 PUBLIC ''
ATL$__m	ENDS
ATL$__z	SEGMENT DWORD USE32 PUBLIC ''
ATL$__z	ENDS
ATL$__a	SEGMENT DWORD USE32 PUBLIC ''
ATL$__a	ENDS
xdata$x	SEGMENT DWORD USE32 PUBLIC 'CONST'
xdata$x	ENDS
;	COMDAT ??0CTCell@@QAE@XZ
_TEXT	SEGMENT PARA USE32 PUBLIC 'CODE'
_TEXT	ENDS
;	COMDAT ??_GCTCell@@UAEPAXI@Z
_TEXT	SEGMENT PARA USE32 PUBLIC 'CODE'
_TEXT	ENDS
;	COMDAT ??1?$map@KPAVCTRecallMon@@U?$less@K@std@@V?$allocator@U?$pair@$$CBKPAVCTRecallMon@@@std@@@3@@std@@QAE@XZ
_TEXT	SEGMENT PARA USE32 PUBLIC 'CODE'
_TEXT	ENDS
;	COMDAT ??1?$map@KPAVCTSelfObj@@U?$less@K@std@@V?$allocator@U?$pair@$$CBKPAVCTSelfObj@@@std@@@3@@std@@QAE@XZ
_TEXT	SEGMENT PARA USE32 PUBLIC 'CODE'
_TEXT	ENDS
;	COMDAT ??1?$map@KPAVCTMonster@@U?$less@K@std@@V?$allocator@U?$pair@$$CBKPAVCTMonster@@@std@@@3@@std@@QAE@XZ
_TEXT	SEGMENT PARA USE32 PUBLIC 'CODE'
_TEXT	ENDS
;	COMDAT ??1?$map@KPAVCTPlayer@@U?$less@K@std@@V?$allocator@U?$pair@$$CBKPAVCTPlayer@@@std@@@3@@std@@QAE@XZ
_TEXT	SEGMENT PARA USE32 PUBLIC 'CODE'
_TEXT	ENDS
;	COMDAT ??1?$map@KPAUtagSWITCH@@U?$less@K@std@@V?$allocator@U?$pair@$$CBKPAUtagSWITCH@@@std@@@3@@std@@QAE@XZ
_TEXT	SEGMENT PARA USE32 PUBLIC 'CODE'
_TEXT	ENDS
;	COMDAT ??1?$map@KPAUtagGATE@@U?$less@K@std@@V?$allocator@U?$pair@$$CBKPAUtagGATE@@@std@@@3@@std@@QAE@XZ
_TEXT	SEGMENT PARA USE32 PUBLIC 'CODE'
_TEXT	ENDS
;	COMDAT ??1CTCell@@UAE@XZ
_TEXT	SEGMENT PARA USE32 PUBLIC 'CODE'
_TEXT	ENDS
;	COMDAT ?IsMainCell@CTCell@@QAEEE@Z
_TEXT	SEGMENT PARA USE32 PUBLIC 'CODE'
_TEXT	ENDS
;	COMDAT ?IsEnable@CTCell@@QAEEE@Z
_TEXT	SEGMENT PARA USE32 PUBLIC 'CODE'
_TEXT	ENDS
;	COMDAT ?EnterPlayer@CTCell@@QAEXPAVCTPlayer@@PAV1@EK@Z
_TEXT	SEGMENT PARA USE32 PUBLIC 'CODE'
_TEXT	ENDS
;	COMDAT ?EnterMonster@CTCell@@QAEXPAVCTMonster@@PAV1@EK@Z
_TEXT	SEGMENT PARA USE32 PUBLIC 'CODE'
_TEXT	ENDS
;	COMDAT ?AddSwitch@CTCell@@QAEXPAUtagSWITCH@@@Z
_TEXT	SEGMENT PARA USE32 PUBLIC 'CODE'
_TEXT	ENDS
;	COMDAT ?AddGate@CTCell@@QAEXPAUtagGATE@@@Z
_TEXT	SEGMENT PARA USE32 PUBLIC 'CODE'
_TEXT	ENDS
;	COMDAT ?AddPlayer@CTCell@@QAEXPAVCTPlayer@@@Z
_TEXT	SEGMENT PARA USE32 PUBLIC 'CODE'
_TEXT	ENDS
;	COMDAT ?AddMonster@CTCell@@QAEXPAVCTMonster@@@Z
_TEXT	SEGMENT PARA USE32 PUBLIC 'CODE'
_TEXT	ENDS
;	COMDAT ?LeaveChannel@CTCell@@QAEXPAVCTPlayer@@@Z
_TEXT	SEGMENT PARA USE32 PUBLIC 'CODE'
_TEXT	ENDS
;	COMDAT ?LeaveChannel@CTCell@@QAEXPAVCTPlayer@@EE@Z
_TEXT	SEGMENT PARA USE32 PUBLIC 'CODE'
_TEXT	ENDS
;	COMDAT ?LeaveChannel@CTCell@@QAEXPAVCTPlayer@@E@Z
_TEXT	SEGMENT PARA USE32 PUBLIC 'CODE'
_TEXT	ENDS
;	COMDAT ?LeavePlayer@CTCell@@QAEXPAVCTPlayer@@E@Z
_TEXT	SEGMENT PARA USE32 PUBLIC 'CODE'
_TEXT	ENDS
;	COMDAT ?LeaveChannel@CTCell@@QAEXPAVCTMonster@@EE@Z
_TEXT	SEGMENT PARA USE32 PUBLIC 'CODE'
_TEXT	ENDS
;	COMDAT ?LeaveChannel@CTCell@@QAEXPAVCTMonster@@E@Z
_TEXT	SEGMENT PARA USE32 PUBLIC 'CODE'
_TEXT	ENDS
;	COMDAT ?LeaveMonster@CTCell@@QAEXPAVCTMonster@@E@Z
_TEXT	SEGMENT PARA USE32 PUBLIC 'CODE'
_TEXT	ENDS
;	COMDAT ?DelPlayer@CTCell@@QAEXK@Z
_TEXT	SEGMENT PARA USE32 PUBLIC 'CODE'
_TEXT	ENDS
;	COMDAT ?DelMonster@CTCell@@QAEXPAVCTMonster@@@Z
_TEXT	SEGMENT PARA USE32 PUBLIC 'CODE'
_TEXT	ENDS
;	COMDAT ??0?$map@KPAVCTPlayer@@U?$less@K@std@@V?$allocator@U?$pair@$$CBKPAVCTPlayer@@@std@@@3@@std@@QAE@XZ
_TEXT	SEGMENT PARA USE32 PUBLIC 'CODE'
_TEXT	ENDS
;	COMDAT ??1?$_Tree@V?$_Tmap_traits@KPAVCTPlayer@@U?$less@K@std@@V?$allocator@U?$pair@$$CBKPAVCTPlayer@@@std@@@3@$0A@@std@@@std@@QAE@XZ
_TEXT	SEGMENT PARA USE32 PUBLIC 'CODE'
_TEXT	ENDS
;	COMDAT ?begin@?$_Tree@V?$_Tmap_traits@KPAVCTPlayer@@U?$less@K@std@@V?$allocator@U?$pair@$$CBKPAVCTPlayer@@@std@@@3@$0A@@std@@@std@@QAE?AViterator@12@XZ
_TEXT	SEGMENT PARA USE32 PUBLIC 'CODE'
_TEXT	ENDS
;	COMDAT ?end@?$_Tree@V?$_Tmap_traits@KPAVCTPlayer@@U?$less@K@std@@V?$allocator@U?$pair@$$CBKPAVCTPlayer@@@std@@@3@$0A@@std@@@std@@QAE?AViterator@12@XZ
_TEXT	SEGMENT PARA USE32 PUBLIC 'CODE'
_TEXT	ENDS
;	COMDAT ?insert@?$_Tree@V?$_Tmap_traits@KPAVCTPlayer@@U?$less@K@std@@V?$allocator@U?$pair@$$CBKPAVCTPlayer@@@std@@@3@$0A@@std@@@std@@QAE?AU?$pair@Viterator@?$_Tree@V?$_Tmap_traits@KPAVCTPlayer@@U?$less@K@std@@V?$allocator@U?$pair@$$CBKPAVCTPlayer@@@std@@@3@$0A@@std@@@std@@_N@2@ABU?$pair@$$CBKPAVCTPlayer@@@2@@Z
_TEXT	SEGMENT PARA USE32 PUBLIC 'CODE'
_TEXT	ENDS
;	COMDAT ?erase@?$_Tree@V?$_Tmap_traits@KPAVCTPlayer@@U?$less@K@std@@V?$allocator@U?$pair@$$CBKPAVCTPlayer@@@std@@@3@$0A@@std@@@std@@QAE?AViterator@12@V312@@Z
_TEXT	SEGMENT PARA USE32 PUBLIC 'CODE'
_TEXT	ENDS
;	COMDAT ?clear@?$_Tree@V?$_Tmap_traits@KPAVCTPlayer@@U?$less@K@std@@V?$allocator@U?$pair@$$CBKPAVCTPlayer@@@std@@@3@$0A@@std@@@std@@QAEXXZ
_TEXT	SEGMENT PARA USE32 PUBLIC 'CODE'
_TEXT	ENDS
;	COMDAT ?find@?$_Tree@V?$_Tmap_traits@KPAVCTPlayer@@U?$less@K@std@@V?$allocator@U?$pair@$$CBKPAVCTPlayer@@@std@@@3@$0A@@std@@@std@@QAE?AViterator@12@ABK@Z
_TEXT	SEGMENT PARA USE32 PUBLIC 'CODE'
_TEXT	ENDS
;	COMDAT ??0?$map@KPAVCTRecallMon@@U?$less@K@std@@V?$allocator@U?$pair@$$CBKPAVCTRecallMon@@@std@@@3@@std@@QAE@XZ
_TEXT	SEGMENT PARA USE32 PUBLIC 'CODE'
_TEXT	ENDS
;	COMDAT ??1?$_Tree@V?$_Tmap_traits@KPAVCTRecallMon@@U?$less@K@std@@V?$allocator@U?$pair@$$CBKPAVCTRecallMon@@@std@@@3@$0A@@std@@@std@@QAE@XZ
_TEXT	SEGMENT PARA USE32 PUBLIC 'CODE'
_TEXT	ENDS
;	COMDAT ?begin@?$_Tree@V?$_Tmap_traits@KPAVCTRecallMon@@U?$less@K@std@@V?$allocator@U?$pair@$$CBKPAVCTRecallMon@@@std@@@3@$0A@@std@@@std@@QAE?AViterator@12@XZ
_TEXT	SEGMENT PARA USE32 PUBLIC 'CODE'
_TEXT	ENDS
;	COMDAT ?end@?$_Tree@V?$_Tmap_traits@KPAVCTRecallMon@@U?$less@K@std@@V?$allocator@U?$pair@$$CBKPAVCTRecallMon@@@std@@@3@$0A@@std@@@std@@QAE?AViterator@12@XZ
_TEXT	SEGMENT PARA USE32 PUBLIC 'CODE'
_TEXT	ENDS
;	COMDAT ?insert@?$_Tree@V?$_Tmap_traits@KPAVCTRecallMon@@U?$less@K@std@@V?$allocator@U?$pair@$$CBKPAVCTRecallMon@@@std@@@3@$0A@@std@@@std@@QAE?AU?$pair@Viterator@?$_Tree@V?$_Tmap_traits@KPAVCTRecallMon@@U?$less@K@std@@V?$allocator@U?$pair@$$CBKPAVCTRecallMon@@@std@@@3@$0A@@std@@@std@@_N@2@ABU?$pair@$$CBKPAVCTRecallMon@@@2@@Z
_TEXT	SEGMENT PARA USE32 PUBLIC 'CODE'
_TEXT	ENDS
;	COMDAT ?erase@?$_Tree@V?$_Tmap_traits@KPAVCTRecallMon@@U?$less@K@std@@V?$allocator@U?$pair@$$CBKPAVCTRecallMon@@@std@@@3@$0A@@std@@@std@@QAE?AViterator@12@V312@@Z
_TEXT	SEGMENT PARA USE32 PUBLIC 'CODE'
_TEXT	ENDS
;	COMDAT ?clear@?$_Tree@V?$_Tmap_traits@KPAVCTRecallMon@@U?$less@K@std@@V?$allocator@U?$pair@$$CBKPAVCTRecallMon@@@std@@@3@$0A@@std@@@std@@QAEXXZ
_TEXT	SEGMENT PARA USE32 PUBLIC 'CODE'
_TEXT	ENDS
;	COMDAT ?find@?$_Tree@V?$_Tmap_traits@KPAVCTRecallMon@@U?$less@K@std@@V?$allocator@U?$pair@$$CBKPAVCTRecallMon@@@std@@@3@$0A@@std@@@std@@QAE?AViterator@12@ABK@Z
_TEXT	SEGMENT PARA USE32 PUBLIC 'CODE'
_TEXT	ENDS
;	COMDAT ??0?$map@KPAVCTSelfObj@@U?$less@K@std@@V?$allocator@U?$pair@$$CBKPAVCTSelfObj@@@std@@@3@@std@@QAE@XZ
_TEXT	SEGMENT PARA USE32 PUBLIC 'CODE'
_TEXT	ENDS
;	COMDAT ??1?$_Tree@V?$_Tmap_traits@KPAVCTSelfObj@@U?$less@K@std@@V?$allocator@U?$pair@$$CBKPAVCTSelfObj@@@std@@@3@$0A@@std@@@std@@QAE@XZ
_TEXT	SEGMENT PARA USE32 PUBLIC 'CODE'
_TEXT	ENDS
;	COMDAT ?begin@?$_Tree@V?$_Tmap_traits@KPAVCTSelfObj@@U?$less@K@std@@V?$allocator@U?$pair@$$CBKPAVCTSelfObj@@@std@@@3@$0A@@std@@@std@@QAE?AViterator@12@XZ
_TEXT	SEGMENT PARA USE32 PUBLIC 'CODE'
_TEXT	ENDS
;	COMDAT ?end@?$_Tree@V?$_Tmap_traits@KPAVCTSelfObj@@U?$less@K@std@@V?$allocator@U?$pair@$$CBKPAVCTSelfObj@@@std@@@3@$0A@@std@@@std@@QAE?AViterator@12@XZ
_TEXT	SEGMENT PARA USE32 PUBLIC 'CODE'
_TEXT	ENDS
;	COMDAT ?insert@?$_Tree@V?$_Tmap_traits@KPAVCTSelfObj@@U?$less@K@std@@V?$allocator@U?$pair@$$CBKPAVCTSelfObj@@@std@@@3@$0A@@std@@@std@@QAE?AU?$pair@Viterator@?$_Tree@V?$_Tmap_traits@KPAVCTSelfObj@@U?$less@K@std@@V?$allocator@U?$pair@$$CBKPAVCTSelfObj@@@std@@@3@$0A@@std@@@std@@_N@2@ABU?$pair@$$CBKPAVCTSelfObj@@@2@@Z
_TEXT	SEGMENT PARA USE32 PUBLIC 'CODE'
_TEXT	ENDS
;	COMDAT ?erase@?$_Tree@V?$_Tmap_traits@KPAVCTSelfObj@@U?$less@K@std@@V?$allocator@U?$pair@$$CBKPAVCTSelfObj@@@std@@@3@$0A@@std@@@std@@QAE?AViterator@12@V312@@Z
_TEXT	SEGMENT PARA USE32 PUBLIC 'CODE'
_TEXT	ENDS
;	COMDAT ?clear@?$_Tree@V?$_Tmap_traits@KPAVCTSelfObj@@U?$less@K@std@@V?$allocator@U?$pair@$$CBKPAVCTSelfObj@@@std@@@3@$0A@@std@@@std@@QAEXXZ
_TEXT	SEGMENT PARA USE32 PUBLIC 'CODE'
_TEXT	ENDS
;	COMDAT ?find@?$_Tree@V?$_Tmap_traits@KPAVCTSelfObj@@U?$less@K@std@@V?$allocator@U?$pair@$$CBKPAVCTSelfObj@@@std@@@3@$0A@@std@@@std@@QAE?AViterator@12@ABK@Z
_TEXT	SEGMENT PARA USE32 PUBLIC 'CODE'
_TEXT	ENDS
;	COMDAT ??0?$map@KPAVCTMonster@@U?$less@K@std@@V?$allocator@U?$pair@$$CBKPAVCTMonster@@@std@@@3@@std@@QAE@XZ
_TEXT	SEGMENT PARA USE32 PUBLIC 'CODE'
_TEXT	ENDS
;	COMDAT ??1?$_Tree@V?$_Tmap_traits@KPAVCTMonster@@U?$less@K@std@@V?$allocator@U?$pair@$$CBKPAVCTMonster@@@std@@@3@$0A@@std@@@std@@QAE@XZ
_TEXT	SEGMENT PARA USE32 PUBLIC 'CODE'
_TEXT	ENDS
;	COMDAT ?begin@?$_Tree@V?$_Tmap_traits@KPAVCTMonster@@U?$less@K@std@@V?$allocator@U?$pair@$$CBKPAVCTMonster@@@std@@@3@$0A@@std@@@std@@QAE?AViterator@12@XZ
_TEXT	SEGMENT PARA USE32 PUBLIC 'CODE'
_TEXT	ENDS
;	COMDAT ?end@?$_Tree@V?$_Tmap_traits@KPAVCTMonster@@U?$less@K@std@@V?$allocator@U?$pair@$$CBKPAVCTMonster@@@std@@@3@$0A@@std@@@std@@QAE?AViterator@12@XZ
_TEXT	SEGMENT PARA USE32 PUBLIC 'CODE'
_TEXT	ENDS
;	COMDAT ?insert@?$_Tree@V?$_Tmap_traits@KPAVCTMonster@@U?$less@K@std@@V?$allocator@U?$pair@$$CBKPAVCTMonster@@@std@@@3@$0A@@std@@@std@@QAE?AU?$pair@Viterator@?$_Tree@V?$_Tmap_traits@KPAVCTMonster@@U?$less@K@std@@V?$allocator@U?$pair@$$CBKPAVCTMonster@@@std@@@3@$0A@@std@@@std@@_N@2@ABU?$pair@$$CBKPAVCTMonster@@@2@@Z
_TEXT	SEGMENT PARA USE32 PUBLIC 'CODE'
_TEXT	ENDS
;	COMDAT ?erase@?$_Tree@V?$_Tmap_traits@KPAVCTMonster@@U?$less@K@std@@V?$allocator@U?$pair@$$CBKPAVCTMonster@@@std@@@3@$0A@@std@@@std@@QAE?AViterator@12@V312@@Z
_TEXT	SEGMENT PARA USE32 PUBLIC 'CODE'
_TEXT	ENDS
;	COMDAT ?clear@?$_Tree@V?$_Tmap_traits@KPAVCTMonster@@U?$less@K@std@@V?$allocator@U?$pair@$$CBKPAVCTMonster@@@std@@@3@$0A@@std@@@std@@QAEXXZ
_TEXT	SEGMENT PARA USE32 PUBLIC 'CODE'
_TEXT	ENDS
;	COMDAT ?find@?$_Tree@V?$_Tmap_traits@KPAVCTMonster@@U?$less@K@std@@V?$allocator@U?$pair@$$CBKPAVCTMonster@@@std@@@3@$0A@@std@@@std@@QAE?AViterator@12@ABK@Z
_TEXT	SEGMENT PARA USE32 PUBLIC 'CODE'
_TEXT	ENDS
;	COMDAT ??0?$map@KPAUtagSWITCH@@U?$less@K@std@@V?$allocator@U?$pair@$$CBKPAUtagSWITCH@@@std@@@3@@std@@QAE@XZ
_TEXT	SEGMENT PARA USE32 PUBLIC 'CODE'
_TEXT	ENDS
;	COMDAT ??1?$_Tree@V?$_Tmap_traits@KPAUtagSWITCH@@U?$less@K@std@@V?$allocator@U?$pair@$$CBKPAUtagSWITCH@@@std@@@3@$0A@@std@@@std@@QAE@XZ
_TEXT	SEGMENT PARA USE32 PUBLIC 'CODE'
_TEXT	ENDS
;	COMDAT ?begin@?$_Tree@V?$_Tmap_traits@KPAUtagSWITCH@@U?$less@K@std@@V?$allocator@U?$pair@$$CBKPAUtagSWITCH@@@std@@@3@$0A@@std@@@std@@QAE?AViterator@12@XZ
_TEXT	SEGMENT PARA USE32 PUBLIC 'CODE'
_TEXT	ENDS
;	COMDAT ?end@?$_Tree@V?$_Tmap_traits@KPAUtagSWITCH@@U?$less@K@std@@V?$allocator@U?$pair@$$CBKPAUtagSWITCH@@@std@@@3@$0A@@std@@@std@@QAE?AViterator@12@XZ
_TEXT	SEGMENT PARA USE32 PUBLIC 'CODE'
_TEXT	ENDS
;	COMDAT ?insert@?$_Tree@V?$_Tmap_traits@KPAUtagSWITCH@@U?$less@K@std@@V?$allocator@U?$pair@$$CBKPAUtagSWITCH@@@std@@@3@$0A@@std@@@std@@QAE?AU?$pair@Viterator@?$_Tree@V?$_Tmap_traits@KPAUtagSWITCH@@U?$less@K@std@@V?$allocator@U?$pair@$$CBKPAUtagSWITCH@@@std@@@3@$0A@@std@@@std@@_N@2@ABU?$pair@$$CBKPAUtagSWITCH@@@2@@Z
_TEXT	SEGMENT PARA USE32 PUBLIC 'CODE'
_TEXT	ENDS
;	COMDAT ?clear@?$_Tree@V?$_Tmap_traits@KPAUtagSWITCH@@U?$less@K@std@@V?$allocator@U?$pair@$$CBKPAUtagSWITCH@@@std@@@3@$0A@@std@@@std@@QAEXXZ
_TEXT	SEGMENT PARA USE32 PUBLIC 'CODE'
_TEXT	ENDS
;	COMDAT ?find@?$_Tree@V?$_Tmap_traits@KPAUtagSWITCH@@U?$less@K@std@@V?$allocator@U?$pair@$$CBKPAUtagSWITCH@@@std@@@3@$0A@@std@@@std@@QAE?AViterator@12@ABK@Z
_TEXT	SEGMENT PARA USE32 PUBLIC 'CODE'
_TEXT	ENDS
;	COMDAT ??0?$map@KPAUtagGATE@@U?$less@K@std@@V?$allocator@U?$pair@$$CBKPAUtagGATE@@@std@@@3@@std@@QAE@XZ
_TEXT	SEGMENT PARA USE32 PUBLIC 'CODE'
_TEXT	ENDS
;	COMDAT ??1?$_Tree@V?$_Tmap_traits@KPAUtagGATE@@U?$less@K@std@@V?$allocator@U?$pair@$$CBKPAUtagGATE@@@std@@@3@$0A@@std@@@std@@QAE@XZ
_TEXT	SEGMENT PARA USE32 PUBLIC 'CODE'
_TEXT	ENDS
;	COMDAT ?begin@?$_Tree@V?$_Tmap_traits@KPAUtagGATE@@U?$less@K@std@@V?$allocator@U?$pair@$$CBKPAUtagGATE@@@std@@@3@$0A@@std@@@std@@QAE?AViterator@12@XZ
_TEXT	SEGMENT PARA USE32 PUBLIC 'CODE'
_TEXT	ENDS
;	COMDAT ?end@?$_Tree@V?$_Tmap_traits@KPAUtagGATE@@U?$less@K@std@@V?$allocator@U?$pair@$$CBKPAUtagGATE@@@std@@@3@$0A@@std@@@std@@QAE?AViterator@12@XZ
_TEXT	SEGMENT PARA USE32 PUBLIC 'CODE'
_TEXT	ENDS
;	COMDAT ?insert@?$_Tree@V?$_Tmap_traits@KPAUtagGATE@@U?$less@K@std@@V?$allocator@U?$pair@$$CBKPAUtagGATE@@@std@@@3@$0A@@std@@@std@@QAE?AU?$pair@Viterator@?$_Tree@V?$_Tmap_traits@KPAUtagGATE@@U?$less@K@std@@V?$allocator@U?$pair@$$CBKPAUtagGATE@@@std@@@3@$0A@@std@@@std@@_N@2@ABU?$pair@$$CBKPAUtagGATE@@@2@@Z
_TEXT	SEGMENT PARA USE32 PUBLIC 'CODE'
_TEXT	ENDS
;	COMDAT ?clear@?$_Tree@V?$_Tmap_traits@KPAUtagGATE@@U?$less@K@std@@V?$allocator@U?$pair@$$CBKPAUtagGATE@@@std@@@3@$0A@@std@@@std@@QAEXXZ
_TEXT	SEGMENT PARA USE32 PUBLIC 'CODE'
_TEXT	ENDS
;	COMDAT ?find@?$_Tree@V?$_Tmap_traits@KPAUtagGATE@@U?$less@K@std@@V?$allocator@U?$pair@$$CBKPAUtagGATE@@@std@@@3@$0A@@std@@@std@@QAE?AViterator@12@ABK@Z
_TEXT	SEGMENT PARA USE32 PUBLIC 'CODE'
_TEXT	ENDS
;	COMDAT ??0iterator@?$_Tree@V?$_Tmap_traits@KPAVCTRecallMon@@U?$less@K@std@@V?$allocator@U?$pair@$$CBKPAVCTRecallMon@@@std@@@3@$0A@@std@@@std@@QAE@XZ
_TEXT	SEGMENT PARA USE32 PUBLIC 'CODE'
_TEXT	ENDS
;	COMDAT ??Diterator@?$_Tree@V?$_Tmap_traits@KPAVCTRecallMon@@U?$less@K@std@@V?$allocator@U?$pair@$$CBKPAVCTRecallMon@@@std@@@3@$0A@@std@@@std@@QBEAAU?$pair@$$CBKPAVCTRecallMon@@@2@XZ
_TEXT	SEGMENT PARA USE32 PUBLIC 'CODE'
_TEXT	ENDS
;	COMDAT ??Eiterator@?$_Tree@V?$_Tmap_traits@KPAVCTRecallMon@@U?$less@K@std@@V?$allocator@U?$pair@$$CBKPAVCTRecallMon@@@std@@@3@$0A@@std@@@std@@QAE?AV012@H@Z
_TEXT	SEGMENT PARA USE32 PUBLIC 'CODE'
_TEXT	ENDS
;	COMDAT ??8const_iterator@?$_Tree@V?$_Tmap_traits@KPAVCTRecallMon@@U?$less@K@std@@V?$allocator@U?$pair@$$CBKPAVCTRecallMon@@@std@@@3@$0A@@std@@@std@@QBE_NABV012@@Z
_TEXT	SEGMENT PARA USE32 PUBLIC 'CODE'
_TEXT	ENDS
;	COMDAT ??9const_iterator@?$_Tree@V?$_Tmap_traits@KPAVCTRecallMon@@U?$less@K@std@@V?$allocator@U?$pair@$$CBKPAVCTRecallMon@@@std@@@3@$0A@@std@@@std@@QBE_NABV012@@Z
_TEXT	SEGMENT PARA USE32 PUBLIC 'CODE'
_TEXT	ENDS
;	COMDAT ??0iterator@?$_Tree@V?$_Tmap_traits@KPAVCTSelfObj@@U?$less@K@std@@V?$allocator@U?$pair@$$CBKPAVCTSelfObj@@@std@@@3@$0A@@std@@@std@@QAE@XZ
_TEXT	SEGMENT PARA USE32 PUBLIC 'CODE'
_TEXT	ENDS
;	COMDAT ??Diterator@?$_Tree@V?$_Tmap_traits@KPAVCTSelfObj@@U?$less@K@std@@V?$allocator@U?$pair@$$CBKPAVCTSelfObj@@@std@@@3@$0A@@std@@@std@@QBEAAU?$pair@$$CBKPAVCTSelfObj@@@2@XZ
_TEXT	SEGMENT PARA USE32 PUBLIC 'CODE'
_TEXT	ENDS
;	COMDAT ??Eiterator@?$_Tree@V?$_Tmap_traits@KPAVCTSelfObj@@U?$less@K@std@@V?$allocator@U?$pair@$$CBKPAVCTSelfObj@@@std@@@3@$0A@@std@@@std@@QAE?AV012@H@Z
_TEXT	SEGMENT PARA USE32 PUBLIC 'CODE'
_TEXT	ENDS
;	COMDAT ??8const_iterator@?$_Tree@V?$_Tmap_traits@KPAVCTSelfObj@@U?$less@K@std@@V?$allocator@U?$pair@$$CBKPAVCTSelfObj@@@std@@@3@$0A@@std@@@std@@QBE_NABV012@@Z
_TEXT	SEGMENT PARA USE32 PUBLIC 'CODE'
_TEXT	ENDS
;	COMDAT ??9const_iterator@?$_Tree@V?$_Tmap_traits@KPAVCTSelfObj@@U?$less@K@std@@V?$allocator@U?$pair@$$CBKPAVCTSelfObj@@@std@@@3@$0A@@std@@@std@@QBE_NABV012@@Z
_TEXT	SEGMENT PARA USE32 PUBLIC 'CODE'
_TEXT	ENDS
;	COMDAT ??0iterator@?$_Tree@V?$_Tmap_traits@KPAVCTMonster@@U?$less@K@std@@V?$allocator@U?$pair@$$CBKPAVCTMonster@@@std@@@3@$0A@@std@@@std@@QAE@XZ
_TEXT	SEGMENT PARA USE32 PUBLIC 'CODE'
_TEXT	ENDS
;	COMDAT ??Diterator@?$_Tree@V?$_Tmap_traits@KPAVCTMonster@@U?$less@K@std@@V?$allocator@U?$pair@$$CBKPAVCTMonster@@@std@@@3@$0A@@std@@@std@@QBEAAU?$pair@$$CBKPAVCTMonster@@@2@XZ
_TEXT	SEGMENT PARA USE32 PUBLIC 'CODE'
_TEXT	ENDS
;	COMDAT ??Eiterator@?$_Tree@V?$_Tmap_traits@KPAVCTMonster@@U?$less@K@std@@V?$allocator@U?$pair@$$CBKPAVCTMonster@@@std@@@3@$0A@@std@@@std@@QAE?AV012@H@Z
_TEXT	SEGMENT PARA USE32 PUBLIC 'CODE'
_TEXT	ENDS
;	COMDAT ??8const_iterator@?$_Tree@V?$_Tmap_traits@KPAVCTMonster@@U?$less@K@std@@V?$allocator@U?$pair@$$CBKPAVCTMonster@@@std@@@3@$0A@@std@@@std@@QBE_NABV012@@Z
_TEXT	SEGMENT PARA USE32 PUBLIC 'CODE'
_TEXT	ENDS
;	COMDAT ??9const_iterator@?$_Tree@V?$_Tmap_traits@KPAVCTMonster@@U?$less@K@std@@V?$allocator@U?$pair@$$CBKPAVCTMonster@@@std@@@3@$0A@@std@@@std@@QBE_NABV012@@Z
_TEXT	SEGMENT PARA USE32 PUBLIC 'CODE'
_TEXT	ENDS
;	COMDAT ??0iterator@?$_Tree@V?$_Tmap_traits@KPAVCTPlayer@@U?$less@K@std@@V?$allocator@U?$pair@$$CBKPAVCTPlayer@@@std@@@3@$0A@@std@@@std@@QAE@XZ
_TEXT	SEGMENT PARA USE32 PUBLIC 'CODE'
_TEXT	ENDS
;	COMDAT ??Diterator@?$_Tree@V?$_Tmap_traits@KPAVCTPlayer@@U?$less@K@std@@V?$allocator@U?$pair@$$CBKPAVCTPlayer@@@std@@@3@$0A@@std@@@std@@QBEAAU?$pair@$$CBKPAVCTPlayer@@@2@XZ
_TEXT	SEGMENT PARA USE32 PUBLIC 'CODE'
_TEXT	ENDS
;	COMDAT ??Eiterator@?$_Tree@V?$_Tmap_traits@KPAVCTPlayer@@U?$less@K@std@@V?$allocator@U?$pair@$$CBKPAVCTPlayer@@@std@@@3@$0A@@std@@@std@@QAE?AV012@H@Z
_TEXT	SEGMENT PARA USE32 PUBLIC 'CODE'
_TEXT	ENDS
;	COMDAT ??8const_iterator@?$_Tree@V?$_Tmap_traits@KPAVCTPlayer@@U?$less@K@std@@V?$allocator@U?$pair@$$CBKPAVCTPlayer@@@std@@@3@$0A@@std@@@std@@QBE_NABV012@@Z
_TEXT	SEGMENT PARA USE32 PUBLIC 'CODE'
_TEXT	ENDS
;	COMDAT ??9const_iterator@?$_Tree@V?$_Tmap_traits@KPAVCTPlayer@@U?$less@K@std@@V?$allocator@U?$pair@$$CBKPAVCTPlayer@@@std@@@3@$0A@@std@@@std@@QBE_NABV012@@Z
_TEXT	SEGMENT PARA USE32 PUBLIC 'CODE'
_TEXT	ENDS
;	COMDAT ??0iterator@?$_Tree@V?$_Tmap_traits@KPAUtagSWITCH@@U?$less@K@std@@V?$allocator@U?$pair@$$CBKPAUtagSWITCH@@@std@@@3@$0A@@std@@@std@@QAE@XZ
_TEXT	SEGMENT PARA USE32 PUBLIC 'CODE'
_TEXT	ENDS
;	COMDAT ??Diterator@?$_Tree@V?$_Tmap_traits@KPAUtagSWITCH@@U?$less@K@std@@V?$allocator@U?$pair@$$CBKPAUtagSWITCH@@@std@@@3@$0A@@std@@@std@@QBEAAU?$pair@$$CBKPAUtagSWITCH@@@2@XZ
_TEXT	SEGMENT PARA USE32 PUBLIC 'CODE'
_TEXT	ENDS
;	COMDAT ??Eiterator@?$_Tree@V?$_Tmap_traits@KPAUtagSWITCH@@U?$less@K@std@@V?$allocator@U?$pair@$$CBKPAUtagSWITCH@@@std@@@3@$0A@@std@@@std@@QAE?AV012@H@Z
_TEXT	SEGMENT PARA USE32 PUBLIC 'CODE'
_TEXT	ENDS
;	COMDAT ??8const_iterator@?$_Tree@V?$_Tmap_traits@KPAUtagSWITCH@@U?$less@K@std@@V?$allocator@U?$pair@$$CBKPAUtagSWITCH@@@std@@@3@$0A@@std@@@std@@QBE_NABV012@@Z
_TEXT	SEGMENT PARA USE32 PUBLIC 'CODE'
_TEXT	ENDS
;	COMDAT ??9const_iterator@?$_Tree@V?$_Tmap_traits@KPAUtagSWITCH@@U?$less@K@std@@V?$allocator@U?$pair@$$CBKPAUtagSWITCH@@@std@@@3@$0A@@std@@@std@@QBE_NABV012@@Z
_TEXT	SEGMENT PARA USE32 PUBLIC 'CODE'
_TEXT	ENDS
;	COMDAT ??0iterator@?$_Tree@V?$_Tmap_traits@KPAUtagGATE@@U?$less@K@std@@V?$allocator@U?$pair@$$CBKPAUtagGATE@@@std@@@3@$0A@@std@@@std@@QAE@XZ
_TEXT	SEGMENT PARA USE32 PUBLIC 'CODE'
_TEXT	ENDS
;	COMDAT ??Diterator@?$_Tree@V?$_Tmap_traits@KPAUtagGATE@@U?$less@K@std@@V?$allocator@U?$pair@$$CBKPAUtagGATE@@@std@@@3@$0A@@std@@@std@@QBEAAU?$pair@$$CBKPAUtagGATE@@@2@XZ
_TEXT	SEGMENT PARA USE32 PUBLIC 'CODE'
_TEXT	ENDS
;	COMDAT ??Eiterator@?$_Tree@V?$_Tmap_traits@KPAUtagGATE@@U?$less@K@std@@V?$allocator@U?$pair@$$CBKPAUtagGATE@@@std@@@3@$0A@@std@@@std@@QAE?AV012@H@Z
_TEXT	SEGMENT PARA USE32 PUBLIC 'CODE'
_TEXT	ENDS
;	COMDAT ??8const_iterator@?$_Tree@V?$_Tmap_traits@KPAUtagGATE@@U?$less@K@std@@V?$allocator@U?$pair@$$CBKPAUtagGATE@@@std@@@3@$0A@@std@@@std@@QBE_NABV012@@Z
_TEXT	SEGMENT PARA USE32 PUBLIC 'CODE'
_TEXT	ENDS
;	COMDAT ??9const_iterator@?$_Tree@V?$_Tmap_traits@KPAUtagGATE@@U?$less@K@std@@V?$allocator@U?$pair@$$CBKPAUtagGATE@@@std@@@3@$0A@@std@@@std@@QBE_NABV012@@Z
_TEXT	SEGMENT PARA USE32 PUBLIC 'CODE'
_TEXT	ENDS
;	COMDAT ??0?$pair@$$CBKPAVCTRecallMon@@@std@@QAE@ABKABQAVCTRecallMon@@@Z
_TEXT	SEGMENT PARA USE32 PUBLIC 'CODE'
_TEXT	ENDS
;	COMDAT ??0?$pair@$$CBKPAVCTPlayer@@@std@@QAE@ABKABQAVCTPlayer@@@Z
_TEXT	SEGMENT PARA USE32 PUBLIC 'CODE'
_TEXT	ENDS
;	COMDAT ??0?$pair@$$CBKPAVCTMonster@@@std@@QAE@ABKABQAVCTMonster@@@Z
_TEXT	SEGMENT PARA USE32 PUBLIC 'CODE'
_TEXT	ENDS
;	COMDAT ??0?$pair@$$CBKPAUtagSWITCH@@@std@@QAE@ABKABQAUtagSWITCH@@@Z
_TEXT	SEGMENT PARA USE32 PUBLIC 'CODE'
_TEXT	ENDS
;	COMDAT ??0?$pair@$$CBKPAUtagGATE@@@std@@QAE@ABKABQAUtagGATE@@@Z
_TEXT	SEGMENT PARA USE32 PUBLIC 'CODE'
_TEXT	ENDS
;	COMDAT ??0?$pair@$$CBKPAVCTSelfObj@@@std@@QAE@ABKABQAVCTSelfObj@@@Z
_TEXT	SEGMENT PARA USE32 PUBLIC 'CODE'
_TEXT	ENDS
;	COMDAT ??0iterator@?$_Tree@V?$_Tmap_traits@GPAUtagGODTOWER@@U?$less@G@std@@V?$allocator@U?$pair@$$CBGPAUtagGODTOWER@@@std@@@3@$0A@@std@@@std@@QAE@XZ
_TEXT	SEGMENT PARA USE32 PUBLIC 'CODE'
_TEXT	ENDS
;	COMDAT ??0iterator@?$_Tree@V?$_Tmap_traits@GPAUtagGODBALL@@U?$less@G@std@@V?$allocator@U?$pair@$$CBGPAUtagGODBALL@@@std@@@3@$0A@@std@@@std@@QAE@XZ
_TEXT	SEGMENT PARA USE32 PUBLIC 'CODE'
_TEXT	ENDS
;	COMDAT ??R?$less@K@std@@QBE_NABK0@Z
_TEXT	SEGMENT PARA USE32 PUBLIC 'CODE'
_TEXT	ENDS
;	COMDAT ?_Color@?$_Tree@V?$_Tmap_traits@KPAVCTPlayer@@U?$less@K@std@@V?$allocator@U?$pair@$$CBKPAVCTPlayer@@@std@@@3@$0A@@std@@@std@@KAAADPAU_Node@?$_Tree_nod@V?$_Tmap_traits@KPAVCTPlayer@@U?$less@K@std@@V?$allocator@U?$pair@$$CBKPAVCTPlayer@@@std@@@3@$0A@@std@@@2@@Z
_TEXT	SEGMENT PARA USE32 PUBLIC 'CODE'
_TEXT	ENDS
;	COMDAT ?_Isnil@?$_Tree@V?$_Tmap_traits@KPAVCTPlayer@@U?$less@K@std@@V?$allocator@U?$pair@$$CBKPAVCTPlayer@@@std@@@3@$0A@@std@@@std@@KAAADPAU_Node@?$_Tree_nod@V?$_Tmap_traits@KPAVCTPlayer@@U?$less@K@std@@V?$allocator@U?$pair@$$CBKPAVCTPlayer@@@std@@@3@$0A@@std@@@2@@Z
_TEXT	SEGMENT PARA USE32 PUBLIC 'CODE'
_TEXT	ENDS
;	COMDAT ?_Key@?$_Tree@V?$_Tmap_traits@KPAVCTPlayer@@U?$less@K@std@@V?$allocator@U?$pair@$$CBKPAVCTPlayer@@@std@@@3@$0A@@std@@@std@@KAABKPAU_Node@?$_Tree_nod@V?$_Tmap_traits@KPAVCTPlayer@@U?$less@K@std@@V?$allocator@U?$pair@$$CBKPAVCTPlayer@@@std@@@3@$0A@@std@@@2@@Z
_TEXT	SEGMENT PARA USE32 PUBLIC 'CODE'
_TEXT	ENDS
;	COMDAT ?_Left@?$_Tree@V?$_Tmap_traits@KPAVCTPlayer@@U?$less@K@std@@V?$allocator@U?$pair@$$CBKPAVCTPlayer@@@std@@@3@$0A@@std@@@std@@KAAAPAU_Node@?$_Tree_nod@V?$_Tmap_traits@KPAVCTPlayer@@U?$less@K@std@@V?$allocator@U?$pair@$$CBKPAVCTPlayer@@@std@@@3@$0A@@std@@@2@PAU342@@Z
_TEXT	SEGMENT PARA USE32 PUBLIC 'CODE'
_TEXT	ENDS
;	COMDAT ?_Parent@?$_Tree@V?$_Tmap_traits@KPAVCTPlayer@@U?$less@K@std@@V?$allocator@U?$pair@$$CBKPAVCTPlayer@@@std@@@3@$0A@@std@@@std@@KAAAPAU_Node@?$_Tree_nod@V?$_Tmap_traits@KPAVCTPlayer@@U?$less@K@std@@V?$allocator@U?$pair@$$CBKPAVCTPlayer@@@std@@@3@$0A@@std@@@2@PAU342@@Z
_TEXT	SEGMENT PARA USE32 PUBLIC 'CODE'
_TEXT	ENDS
;	COMDAT ?_Right@?$_Tree@V?$_Tmap_traits@KPAVCTPlayer@@U?$less@K@std@@V?$allocator@U?$pair@$$CBKPAVCTPlayer@@@std@@@3@$0A@@std@@@std@@KAAAPAU_Node@?$_Tree_nod@V?$_Tmap_traits@KPAVCTPlayer@@U?$less@K@std@@V?$allocator@U?$pair@$$CBKPAVCTPlayer@@@std@@@3@$0A@@std@@@2@PAU342@@Z
_TEXT	SEGMENT PARA USE32 PUBLIC 'CODE'
_TEXT	ENDS
;	COMDAT ??0?$_Tree@V?$_Tmap_traits@KPAVCTPlayer@@U?$less@K@std@@V?$allocator@U?$pair@$$CBKPAVCTPlayer@@@std@@@3@$0A@@std@@@std@@QAE@ABU?$less@K@1@ABV?$allocator@U?$pair@$$CBKPAVCTPlayer@@@std@@@1@@Z
_TEXT	SEGMENT PARA USE32 PUBLIC 'CODE'
_TEXT	ENDS
;	COMDAT ?lower_bound@?$_Tree@V?$_Tmap_traits@KPAVCTPlayer@@U?$less@K@std@@V?$allocator@U?$pair@$$CBKPAVCTPlayer@@@std@@@3@$0A@@std@@@std@@QAE?AViterator@12@ABK@Z
_TEXT	SEGMENT PARA USE32 PUBLIC 'CODE'
_TEXT	ENDS
;	COMDAT ?_Erase@?$_Tree@V?$_Tmap_traits@KPAVCTPlayer@@U?$less@K@std@@V?$allocator@U?$pair@$$CBKPAVCTPlayer@@@std@@@3@$0A@@std@@@std@@IAEXPAU_Node@?$_Tree_nod@V?$_Tmap_traits@KPAVCTPlayer@@U?$less@K@std@@V?$allocator@U?$pair@$$CBKPAVCTPlayer@@@std@@@3@$0A@@std@@@2@@Z
_TEXT	SEGMENT PARA USE32 PUBLIC 'CODE'
_TEXT	ENDS
;	COMDAT ?_Insert@?$_Tree@V?$_Tmap_traits@KPAVCTPlayer@@U?$less@K@std@@V?$allocator@U?$pair@$$CBKPAVCTPlayer@@@std@@@3@$0A@@std@@@std@@IAE?AViterator@12@_NPAU_Node@?$_Tree_nod@V?$_Tmap_traits@KPAVCTPlayer@@U?$less@K@std@@V?$allocator@U?$pair@$$CBKPAVCTPlayer@@@std@@@3@$0A@@std@@@2@ABU?$pair@$$CBKPAVCTPlayer@@@2@@Z
_TEXT	SEGMENT PARA USE32 PUBLIC 'CODE'
_TEXT	ENDS
;	COMDAT ?_Lmost@?$_Tree@V?$_Tmap_traits@KPAVCTPlayer@@U?$less@K@std@@V?$allocator@U?$pair@$$CBKPAVCTPlayer@@@std@@@3@$0A@@std@@@std@@IAEAAPAU_Node@?$_Tree_nod@V?$_Tmap_traits@KPAVCTPlayer@@U?$less@K@std@@V?$allocator@U?$pair@$$CBKPAVCTPlayer@@@std@@@3@$0A@@std@@@2@XZ
_TEXT	SEGMENT PARA USE32 PUBLIC 'CODE'
_TEXT	ENDS
;	COMDAT ?_Lrotate@?$_Tree@V?$_Tmap_traits@KPAVCTPlayer@@U?$less@K@std@@V?$allocator@U?$pair@$$CBKPAVCTPlayer@@@std@@@3@$0A@@std@@@std@@IAEXPAU_Node@?$_Tree_nod@V?$_Tmap_traits@KPAVCTPlayer@@U?$less@K@std@@V?$allocator@U?$pair@$$CBKPAVCTPlayer@@@std@@@3@$0A@@std@@@2@@Z
_TEXT	SEGMENT PARA USE32 PUBLIC 'CODE'
_TEXT	ENDS
;	COMDAT ?_Max@?$_Tree@V?$_Tmap_traits@KPAVCTPlayer@@U?$less@K@std@@V?$allocator@U?$pair@$$CBKPAVCTPlayer@@@std@@@3@$0A@@std@@@std@@KAPAU_Node@?$_Tree_nod@V?$_Tmap_traits@KPAVCTPlayer@@U?$less@K@std@@V?$allocator@U?$pair@$$CBKPAVCTPlayer@@@std@@@3@$0A@@std@@@2@PAU342@@Z
_TEXT	SEGMENT PARA USE32 PUBLIC 'CODE'
_TEXT	ENDS
;	COMDAT ?_Min@?$_Tree@V?$_Tmap_traits@KPAVCTPlayer@@U?$less@K@std@@V?$allocator@U?$pair@$$CBKPAVCTPlayer@@@std@@@3@$0A@@std@@@std@@KAPAU_Node@?$_Tree_nod@V?$_Tmap_traits@KPAVCTPlayer@@U?$less@K@std@@V?$allocator@U?$pair@$$CBKPAVCTPlayer@@@std@@@3@$0A@@std@@@2@PAU342@@Z
_TEXT	SEGMENT PARA USE32 PUBLIC 'CODE'
_TEXT	ENDS
;	COMDAT ?_Rmost@?$_Tree@V?$_Tmap_traits@KPAVCTPlayer@@U?$less@K@std@@V?$allocator@U?$pair@$$CBKPAVCTPlayer@@@std@@@3@$0A@@std@@@std@@IAEAAPAU_Node@?$_Tree_nod@V?$_Tmap_traits@KPAVCTPlayer@@U?$less@K@std@@V?$allocator@U?$pair@$$CBKPAVCTPlayer@@@std@@@3@$0A@@std@@@2@XZ
_TEXT	SEGMENT PARA USE32 PUBLIC 'CODE'
_TEXT	ENDS
;	COMDAT ?_Root@?$_Tree@V?$_Tmap_traits@KPAVCTPlayer@@U?$less@K@std@@V?$allocator@U?$pair@$$CBKPAVCTPlayer@@@std@@@3@$0A@@std@@@std@@IAEAAPAU_Node@?$_Tree_nod@V?$_Tmap_traits@KPAVCTPlayer@@U?$less@K@std@@V?$allocator@U?$pair@$$CBKPAVCTPlayer@@@std@@@3@$0A@@std@@@2@XZ
_TEXT	SEGMENT PARA USE32 PUBLIC 'CODE'
_TEXT	ENDS
;	COMDAT ?_Rrotate@?$_Tree@V?$_Tmap_traits@KPAVCTPlayer@@U?$less@K@std@@V?$allocator@U?$pair@$$CBKPAVCTPlayer@@@std@@@3@$0A@@std@@@std@@IAEXPAU_Node@?$_Tree_nod@V?$_Tmap_traits@KPAVCTPlayer@@U?$less@K@std@@V?$allocator@U?$pair@$$CBKPAVCTPlayer@@@std@@@3@$0A@@std@@@2@@Z
_TEXT	SEGMENT PARA USE32 PUBLIC 'CODE'
_TEXT	ENDS
;	COMDAT ?_Tidy@?$_Tree@V?$_Tmap_traits@KPAVCTPlayer@@U?$less@K@std@@V?$allocator@U?$pair@$$CBKPAVCTPlayer@@@std@@@3@$0A@@std@@@std@@IAEXXZ
_TEXT	SEGMENT PARA USE32 PUBLIC 'CODE'
_TEXT	ENDS
;	COMDAT ?_Kfn@?$_Tmap_traits@KPAVCTPlayer@@U?$less@K@std@@V?$allocator@U?$pair@$$CBKPAVCTPlayer@@@std@@@3@$0A@@std@@SAABKABU?$pair@$$CBKPAVCTPlayer@@@2@@Z
_TEXT	SEGMENT PARA USE32 PUBLIC 'CODE'
_TEXT	ENDS
;	COMDAT ??0?$allocator@U?$pair@$$CBKPAVCTPlayer@@@std@@@std@@QAE@XZ
_TEXT	SEGMENT PARA USE32 PUBLIC 'CODE'
_TEXT	ENDS
;	COMDAT ?deallocate@?$allocator@U_Node@?$_Tree_nod@V?$_Tmap_traits@KPAVCTPlayer@@U?$less@K@std@@V?$allocator@U?$pair@$$CBKPAVCTPlayer@@@std@@@3@$0A@@std@@@std@@@std@@QAEXPAU_Node@?$_Tree_nod@V?$_Tmap_traits@KPAVCTPlayer@@U?$less@K@std@@V?$allocator@U?$pair@$$CBKPAVCTPlayer@@@std@@@3@$0A@@std@@@2@I@Z
_TEXT	SEGMENT PARA USE32 PUBLIC 'CODE'
_TEXT	ENDS
;	COMDAT ?destroy@?$allocator@U_Node@?$_Tree_nod@V?$_Tmap_traits@KPAVCTPlayer@@U?$less@K@std@@V?$allocator@U?$pair@$$CBKPAVCTPlayer@@@std@@@3@$0A@@std@@@std@@@std@@QAEXPAU_Node@?$_Tree_nod@V?$_Tmap_traits@KPAVCTPlayer@@U?$less@K@std@@V?$allocator@U?$pair@$$CBKPAVCTPlayer@@@std@@@3@$0A@@std@@@2@@Z
_TEXT	SEGMENT PARA USE32 PUBLIC 'CODE'
_TEXT	ENDS
;	COMDAT ?_Color@?$_Tree@V?$_Tmap_traits@KPAVCTRecallMon@@U?$less@K@std@@V?$allocator@U?$pair@$$CBKPAVCTRecallMon@@@std@@@3@$0A@@std@@@std@@KAAADPAU_Node@?$_Tree_nod@V?$_Tmap_traits@KPAVCTRecallMon@@U?$less@K@std@@V?$allocator@U?$pair@$$CBKPAVCTRecallMon@@@std@@@3@$0A@@std@@@2@@Z
_TEXT	SEGMENT PARA USE32 PUBLIC 'CODE'
_TEXT	ENDS
;	COMDAT ?_Isnil@?$_Tree@V?$_Tmap_traits@KPAVCTRecallMon@@U?$less@K@std@@V?$allocator@U?$pair@$$CBKPAVCTRecallMon@@@std@@@3@$0A@@std@@@std@@KAAADPAU_Node@?$_Tree_nod@V?$_Tmap_traits@KPAVCTRecallMon@@U?$less@K@std@@V?$allocator@U?$pair@$$CBKPAVCTRecallMon@@@std@@@3@$0A@@std@@@2@@Z
_TEXT	SEGMENT PARA USE32 PUBLIC 'CODE'
_TEXT	ENDS
;	COMDAT ?_Key@?$_Tree@V?$_Tmap_traits@KPAVCTRecallMon@@U?$less@K@std@@V?$allocator@U?$pair@$$CBKPAVCTRecallMon@@@std@@@3@$0A@@std@@@std@@KAABKPAU_Node@?$_Tree_nod@V?$_Tmap_traits@KPAVCTRecallMon@@U?$less@K@std@@V?$allocator@U?$pair@$$CBKPAVCTRecallMon@@@std@@@3@$0A@@std@@@2@@Z
_TEXT	SEGMENT PARA USE32 PUBLIC 'CODE'
_TEXT	ENDS
;	COMDAT ?_Left@?$_Tree@V?$_Tmap_traits@KPAVCTRecallMon@@U?$less@K@std@@V?$allocator@U?$pair@$$CBKPAVCTRecallMon@@@std@@@3@$0A@@std@@@std@@KAAAPAU_Node@?$_Tree_nod@V?$_Tmap_traits@KPAVCTRecallMon@@U?$less@K@std@@V?$allocator@U?$pair@$$CBKPAVCTRecallMon@@@std@@@3@$0A@@std@@@2@PAU342@@Z
_TEXT	SEGMENT PARA USE32 PUBLIC 'CODE'
_TEXT	ENDS
;	COMDAT ?_Parent@?$_Tree@V?$_Tmap_traits@KPAVCTRecallMon@@U?$less@K@std@@V?$allocator@U?$pair@$$CBKPAVCTRecallMon@@@std@@@3@$0A@@std@@@std@@KAAAPAU_Node@?$_Tree_nod@V?$_Tmap_traits@KPAVCTRecallMon@@U?$less@K@std@@V?$allocator@U?$pair@$$CBKPAVCTRecallMon@@@std@@@3@$0A@@std@@@2@PAU342@@Z
_TEXT	SEGMENT PARA USE32 PUBLIC 'CODE'
_TEXT	ENDS
;	COMDAT ?_Right@?$_Tree@V?$_Tmap_traits@KPAVCTRecallMon@@U?$less@K@std@@V?$allocator@U?$pair@$$CBKPAVCTRecallMon@@@std@@@3@$0A@@std@@@std@@KAAAPAU_Node@?$_Tree_nod@V?$_Tmap_traits@KPAVCTRecallMon@@U?$less@K@std@@V?$allocator@U?$pair@$$CBKPAVCTRecallMon@@@std@@@3@$0A@@std@@@2@PAU342@@Z
_TEXT	SEGMENT PARA USE32 PUBLIC 'CODE'
_TEXT	ENDS
;	COMDAT ??0?$_Tree@V?$_Tmap_traits@KPAVCTRecallMon@@U?$less@K@std@@V?$allocator@U?$pair@$$CBKPAVCTRecallMon@@@std@@@3@$0A@@std@@@std@@QAE@ABU?$less@K@1@ABV?$allocator@U?$pair@$$CBKPAVCTRecallMon@@@std@@@1@@Z
_TEXT	SEGMENT PARA USE32 PUBLIC 'CODE'
_TEXT	ENDS
;	COMDAT ?lower_bound@?$_Tree@V?$_Tmap_traits@KPAVCTRecallMon@@U?$less@K@std@@V?$allocator@U?$pair@$$CBKPAVCTRecallMon@@@std@@@3@$0A@@std@@@std@@QAE?AViterator@12@ABK@Z
_TEXT	SEGMENT PARA USE32 PUBLIC 'CODE'
_TEXT	ENDS
;	COMDAT ?_Erase@?$_Tree@V?$_Tmap_traits@KPAVCTRecallMon@@U?$less@K@std@@V?$allocator@U?$pair@$$CBKPAVCTRecallMon@@@std@@@3@$0A@@std@@@std@@IAEXPAU_Node@?$_Tree_nod@V?$_Tmap_traits@KPAVCTRecallMon@@U?$less@K@std@@V?$allocator@U?$pair@$$CBKPAVCTRecallMon@@@std@@@3@$0A@@std@@@2@@Z
_TEXT	SEGMENT PARA USE32 PUBLIC 'CODE'
_TEXT	ENDS
;	COMDAT ?_Insert@?$_Tree@V?$_Tmap_traits@KPAVCTRecallMon@@U?$less@K@std@@V?$allocator@U?$pair@$$CBKPAVCTRecallMon@@@std@@@3@$0A@@std@@@std@@IAE?AViterator@12@_NPAU_Node@?$_Tree_nod@V?$_Tmap_traits@KPAVCTRecallMon@@U?$less@K@std@@V?$allocator@U?$pair@$$CBKPAVCTRecallMon@@@std@@@3@$0A@@std@@@2@ABU?$pair@$$CBKPAVCTRecallMon@@@2@@Z
_TEXT	SEGMENT PARA USE32 PUBLIC 'CODE'
_TEXT	ENDS
;	COMDAT ?_Lmost@?$_Tree@V?$_Tmap_traits@KPAVCTRecallMon@@U?$less@K@std@@V?$allocator@U?$pair@$$CBKPAVCTRecallMon@@@std@@@3@$0A@@std@@@std@@IAEAAPAU_Node@?$_Tree_nod@V?$_Tmap_traits@KPAVCTRecallMon@@U?$less@K@std@@V?$allocator@U?$pair@$$CBKPAVCTRecallMon@@@std@@@3@$0A@@std@@@2@XZ
_TEXT	SEGMENT PARA USE32 PUBLIC 'CODE'
_TEXT	ENDS
;	COMDAT ?_Lrotate@?$_Tree@V?$_Tmap_traits@KPAVCTRecallMon@@U?$less@K@std@@V?$allocator@U?$pair@$$CBKPAVCTRecallMon@@@std@@@3@$0A@@std@@@std@@IAEXPAU_Node@?$_Tree_nod@V?$_Tmap_traits@KPAVCTRecallMon@@U?$less@K@std@@V?$allocator@U?$pair@$$CBKPAVCTRecallMon@@@std@@@3@$0A@@std@@@2@@Z
_TEXT	SEGMENT PARA USE32 PUBLIC 'CODE'
_TEXT	ENDS
;	COMDAT ?_Max@?$_Tree@V?$_Tmap_traits@KPAVCTRecallMon@@U?$less@K@std@@V?$allocator@U?$pair@$$CBKPAVCTRecallMon@@@std@@@3@$0A@@std@@@std@@KAPAU_Node@?$_Tree_nod@V?$_Tmap_traits@KPAVCTRecallMon@@U?$less@K@std@@V?$allocator@U?$pair@$$CBKPAVCTRecallMon@@@std@@@3@$0A@@std@@@2@PAU342@@Z
_TEXT	SEGMENT PARA USE32 PUBLIC 'CODE'
_TEXT	ENDS
;	COMDAT ?_Min@?$_Tree@V?$_Tmap_traits@KPAVCTRecallMon@@U?$less@K@std@@V?$allocator@U?$pair@$$CBKPAVCTRecallMon@@@std@@@3@$0A@@std@@@std@@KAPAU_Node@?$_Tree_nod@V?$_Tmap_traits@KPAVCTRecallMon@@U?$less@K@std@@V?$allocator@U?$pair@$$CBKPAVCTRecallMon@@@std@@@3@$0A@@std@@@2@PAU342@@Z
_TEXT	SEGMENT PARA USE32 PUBLIC 'CODE'
_TEXT	ENDS
;	COMDAT ?_Rmost@?$_Tree@V?$_Tmap_traits@KPAVCTRecallMon@@U?$less@K@std@@V?$allocator@U?$pair@$$CBKPAVCTRecallMon@@@std@@@3@$0A@@std@@@std@@IAEAAPAU_Node@?$_Tree_nod@V?$_Tmap_traits@KPAVCTRecallMon@@U?$less@K@std@@V?$allocator@U?$pair@$$CBKPAVCTRecallMon@@@std@@@3@$0A@@std@@@2@XZ
_TEXT	SEGMENT PARA USE32 PUBLIC 'CODE'
_TEXT	ENDS
;	COMDAT ?_Root@?$_Tree@V?$_Tmap_traits@KPAVCTRecallMon@@U?$less@K@std@@V?$allocator@U?$pair@$$CBKPAVCTRecallMon@@@std@@@3@$0A@@std@@@std@@IAEAAPAU_Node@?$_Tree_nod@V?$_Tmap_traits@KPAVCTRecallMon@@U?$less@K@std@@V?$allocator@U?$pair@$$CBKPAVCTRecallMon@@@std@@@3@$0A@@std@@@2@XZ
_TEXT	SEGMENT PARA USE32 PUBLIC 'CODE'
_TEXT	ENDS
;	COMDAT ?_Rrotate@?$_Tree@V?$_Tmap_traits@KPAVCTRecallMon@@U?$less@K@std@@V?$allocator@U?$pair@$$CBKPAVCTRecallMon@@@std@@@3@$0A@@std@@@std@@IAEXPAU_Node@?$_Tree_nod@V?$_Tmap_traits@KPAVCTRecallMon@@U?$less@K@std@@V?$allocator@U?$pair@$$CBKPAVCTRecallMon@@@std@@@3@$0A@@std@@@2@@Z
_TEXT	SEGMENT PARA USE32 PUBLIC 'CODE'
_TEXT	ENDS
;	COMDAT ?_Tidy@?$_Tree@V?$_Tmap_traits@KPAVCTRecallMon@@U?$less@K@std@@V?$allocator@U?$pair@$$CBKPAVCTRecallMon@@@std@@@3@$0A@@std@@@std@@IAEXXZ
_TEXT	SEGMENT PARA USE32 PUBLIC 'CODE'
_TEXT	ENDS
;	COMDAT ?_Kfn@?$_Tmap_traits@KPAVCTRecallMon@@U?$less@K@std@@V?$allocator@U?$pair@$$CBKPAVCTRecallMon@@@std@@@3@$0A@@std@@SAABKABU?$pair@$$CBKPAVCTRecallMon@@@2@@Z
_TEXT	SEGMENT PARA USE32 PUBLIC 'CODE'
_TEXT	ENDS
;	COMDAT ??0?$allocator@U?$pair@$$CBKPAVCTRecallMon@@@std@@@std@@QAE@XZ
_TEXT	SEGMENT PARA USE32 PUBLIC 'CODE'
_TEXT	ENDS
;	COMDAT ?deallocate@?$allocator@U_Node@?$_Tree_nod@V?$_Tmap_traits@KPAVCTRecallMon@@U?$less@K@std@@V?$allocator@U?$pair@$$CBKPAVCTRecallMon@@@std@@@3@$0A@@std@@@std@@@std@@QAEXPAU_Node@?$_Tree_nod@V?$_Tmap_traits@KPAVCTRecallMon@@U?$less@K@std@@V?$allocator@U?$pair@$$CBKPAVCTRecallMon@@@std@@@3@$0A@@std@@@2@I@Z
_TEXT	SEGMENT PARA USE32 PUBLIC 'CODE'
_TEXT	ENDS
;	COMDAT ?destroy@?$allocator@U_Node@?$_Tree_nod@V?$_Tmap_traits@KPAVCTRecallMon@@U?$less@K@std@@V?$allocator@U?$pair@$$CBKPAVCTRecallMon@@@std@@@3@$0A@@std@@@std@@@std@@QAEXPAU_Node@?$_Tree_nod@V?$_Tmap_traits@KPAVCTRecallMon@@U?$less@K@std@@V?$allocator@U?$pair@$$CBKPAVCTRecallMon@@@std@@@3@$0A@@std@@@2@@Z
_TEXT	SEGMENT PARA USE32 PUBLIC 'CODE'
_TEXT	ENDS
;	COMDAT ?_Color@?$_Tree@V?$_Tmap_traits@KPAVCTSelfObj@@U?$less@K@std@@V?$allocator@U?$pair@$$CBKPAVCTSelfObj@@@std@@@3@$0A@@std@@@std@@KAAADPAU_Node@?$_Tree_nod@V?$_Tmap_traits@KPAVCTSelfObj@@U?$less@K@std@@V?$allocator@U?$pair@$$CBKPAVCTSelfObj@@@std@@@3@$0A@@std@@@2@@Z
_TEXT	SEGMENT PARA USE32 PUBLIC 'CODE'
_TEXT	ENDS
;	COMDAT ?_Isnil@?$_Tree@V?$_Tmap_traits@KPAVCTSelfObj@@U?$less@K@std@@V?$allocator@U?$pair@$$CBKPAVCTSelfObj@@@std@@@3@$0A@@std@@@std@@KAAADPAU_Node@?$_Tree_nod@V?$_Tmap_traits@KPAVCTSelfObj@@U?$less@K@std@@V?$allocator@U?$pair@$$CBKPAVCTSelfObj@@@std@@@3@$0A@@std@@@2@@Z
_TEXT	SEGMENT PARA USE32 PUBLIC 'CODE'
_TEXT	ENDS
;	COMDAT ?_Key@?$_Tree@V?$_Tmap_traits@KPAVCTSelfObj@@U?$less@K@std@@V?$allocator@U?$pair@$$CBKPAVCTSelfObj@@@std@@@3@$0A@@std@@@std@@KAABKPAU_Node@?$_Tree_nod@V?$_Tmap_traits@KPAVCTSelfObj@@U?$less@K@std@@V?$allocator@U?$pair@$$CBKPAVCTSelfObj@@@std@@@3@$0A@@std@@@2@@Z
_TEXT	SEGMENT PARA USE32 PUBLIC 'CODE'
_TEXT	ENDS
;	COMDAT ?_Left@?$_Tree@V?$_Tmap_traits@KPAVCTSelfObj@@U?$less@K@std@@V?$allocator@U?$pair@$$CBKPAVCTSelfObj@@@std@@@3@$0A@@std@@@std@@KAAAPAU_Node@?$_Tree_nod@V?$_Tmap_traits@KPAVCTSelfObj@@U?$less@K@std@@V?$allocator@U?$pair@$$CBKPAVCTSelfObj@@@std@@@3@$0A@@std@@@2@PAU342@@Z
_TEXT	SEGMENT PARA USE32 PUBLIC 'CODE'
_TEXT	ENDS
;	COMDAT ?_Parent@?$_Tree@V?$_Tmap_traits@KPAVCTSelfObj@@U?$less@K@std@@V?$allocator@U?$pair@$$CBKPAVCTSelfObj@@@std@@@3@$0A@@std@@@std@@KAAAPAU_Node@?$_Tree_nod@V?$_Tmap_traits@KPAVCTSelfObj@@U?$less@K@std@@V?$allocator@U?$pair@$$CBKPAVCTSelfObj@@@std@@@3@$0A@@std@@@2@PAU342@@Z
_TEXT	SEGMENT PARA USE32 PUBLIC 'CODE'
_TEXT	ENDS
;	COMDAT ?_Right@?$_Tree@V?$_Tmap_traits@KPAVCTSelfObj@@U?$less@K@std@@V?$allocator@U?$pair@$$CBKPAVCTSelfObj@@@std@@@3@$0A@@std@@@std@@KAAAPAU_Node@?$_Tree_nod@V?$_Tmap_traits@KPAVCTSelfObj@@U?$less@K@std@@V?$allocator@U?$pair@$$CBKPAVCTSelfObj@@@std@@@3@$0A@@std@@@2@PAU342@@Z
_TEXT	SEGMENT PARA USE32 PUBLIC 'CODE'
_TEXT	ENDS
;	COMDAT ??0?$_Tree@V?$_Tmap_traits@KPAVCTSelfObj@@U?$less@K@std@@V?$allocator@U?$pair@$$CBKPAVCTSelfObj@@@std@@@3@$0A@@std@@@std@@QAE@ABU?$less@K@1@ABV?$allocator@U?$pair@$$CBKPAVCTSelfObj@@@std@@@1@@Z
_TEXT	SEGMENT PARA USE32 PUBLIC 'CODE'
_TEXT	ENDS
;	COMDAT ?lower_bound@?$_Tree@V?$_Tmap_traits@KPAVCTSelfObj@@U?$less@K@std@@V?$allocator@U?$pair@$$CBKPAVCTSelfObj@@@std@@@3@$0A@@std@@@std@@QAE?AViterator@12@ABK@Z
_TEXT	SEGMENT PARA USE32 PUBLIC 'CODE'
_TEXT	ENDS
;	COMDAT ?_Erase@?$_Tree@V?$_Tmap_traits@KPAVCTSelfObj@@U?$less@K@std@@V?$allocator@U?$pair@$$CBKPAVCTSelfObj@@@std@@@3@$0A@@std@@@std@@IAEXPAU_Node@?$_Tree_nod@V?$_Tmap_traits@KPAVCTSelfObj@@U?$less@K@std@@V?$allocator@U?$pair@$$CBKPAVCTSelfObj@@@std@@@3@$0A@@std@@@2@@Z
_TEXT	SEGMENT PARA USE32 PUBLIC 'CODE'
_TEXT	ENDS
;	COMDAT ?_Insert@?$_Tree@V?$_Tmap_traits@KPAVCTSelfObj@@U?$less@K@std@@V?$allocator@U?$pair@$$CBKPAVCTSelfObj@@@std@@@3@$0A@@std@@@std@@IAE?AViterator@12@_NPAU_Node@?$_Tree_nod@V?$_Tmap_traits@KPAVCTSelfObj@@U?$less@K@std@@V?$allocator@U?$pair@$$CBKPAVCTSelfObj@@@std@@@3@$0A@@std@@@2@ABU?$pair@$$CBKPAVCTSelfObj@@@2@@Z
_TEXT	SEGMENT PARA USE32 PUBLIC 'CODE'
_TEXT	ENDS
;	COMDAT ?_Lmost@?$_Tree@V?$_Tmap_traits@KPAVCTSelfObj@@U?$less@K@std@@V?$allocator@U?$pair@$$CBKPAVCTSelfObj@@@std@@@3@$0A@@std@@@std@@IAEAAPAU_Node@?$_Tree_nod@V?$_Tmap_traits@KPAVCTSelfObj@@U?$less@K@std@@V?$allocator@U?$pair@$$CBKPAVCTSelfObj@@@std@@@3@$0A@@std@@@2@XZ
_TEXT	SEGMENT PARA USE32 PUBLIC 'CODE'
_TEXT	ENDS
;	COMDAT ?_Lrotate@?$_Tree@V?$_Tmap_traits@KPAVCTSelfObj@@U?$less@K@std@@V?$allocator@U?$pair@$$CBKPAVCTSelfObj@@@std@@@3@$0A@@std@@@std@@IAEXPAU_Node@?$_Tree_nod@V?$_Tmap_traits@KPAVCTSelfObj@@U?$less@K@std@@V?$allocator@U?$pair@$$CBKPAVCTSelfObj@@@std@@@3@$0A@@std@@@2@@Z
_TEXT	SEGMENT PARA USE32 PUBLIC 'CODE'
_TEXT	ENDS
;	COMDAT ?_Max@?$_Tree@V?$_Tmap_traits@KPAVCTSelfObj@@U?$less@K@std@@V?$allocator@U?$pair@$$CBKPAVCTSelfObj@@@std@@@3@$0A@@std@@@std@@KAPAU_Node@?$_Tree_nod@V?$_Tmap_traits@KPAVCTSelfObj@@U?$less@K@std@@V?$allocator@U?$pair@$$CBKPAVCTSelfObj@@@std@@@3@$0A@@std@@@2@PAU342@@Z
_TEXT	SEGMENT PARA USE32 PUBLIC 'CODE'
_TEXT	ENDS
;	COMDAT ?_Min@?$_Tree@V?$_Tmap_traits@KPAVCTSelfObj@@U?$less@K@std@@V?$allocator@U?$pair@$$CBKPAVCTSelfObj@@@std@@@3@$0A@@std@@@std@@KAPAU_Node@?$_Tree_nod@V?$_Tmap_traits@KPAVCTSelfObj@@U?$less@K@std@@V?$allocator@U?$pair@$$CBKPAVCTSelfObj@@@std@@@3@$0A@@std@@@2@PAU342@@Z
_TEXT	SEGMENT PARA USE32 PUBLIC 'CODE'
_TEXT	ENDS
;	COMDAT ?_Rmost@?$_Tree@V?$_Tmap_traits@KPAVCTSelfObj@@U?$less@K@std@@V?$allocator@U?$pair@$$CBKPAVCTSelfObj@@@std@@@3@$0A@@std@@@std@@IAEAAPAU_Node@?$_Tree_nod@V?$_Tmap_traits@KPAVCTSelfObj@@U?$less@K@std@@V?$allocator@U?$pair@$$CBKPAVCTSelfObj@@@std@@@3@$0A@@std@@@2@XZ
_TEXT	SEGMENT PARA USE32 PUBLIC 'CODE'
_TEXT	ENDS
;	COMDAT ?_Root@?$_Tree@V?$_Tmap_traits@KPAVCTSelfObj@@U?$less@K@std@@V?$allocator@U?$pair@$$CBKPAVCTSelfObj@@@std@@@3@$0A@@std@@@std@@IAEAAPAU_Node@?$_Tree_nod@V?$_Tmap_traits@KPAVCTSelfObj@@U?$less@K@std@@V?$allocator@U?$pair@$$CBKPAVCTSelfObj@@@std@@@3@$0A@@std@@@2@XZ
_TEXT	SEGMENT PARA USE32 PUBLIC 'CODE'
_TEXT	ENDS
;	COMDAT ?_Rrotate@?$_Tree@V?$_Tmap_traits@KPAVCTSelfObj@@U?$less@K@std@@V?$allocator@U?$pair@$$CBKPAVCTSelfObj@@@std@@@3@$0A@@std@@@std@@IAEXPAU_Node@?$_Tree_nod@V?$_Tmap_traits@KPAVCTSelfObj@@U?$less@K@std@@V?$allocator@U?$pair@$$CBKPAVCTSelfObj@@@std@@@3@$0A@@std@@@2@@Z
_TEXT	SEGMENT PARA USE32 PUBLIC 'CODE'
_TEXT	ENDS
;	COMDAT ?_Tidy@?$_Tree@V?$_Tmap_traits@KPAVCTSelfObj@@U?$less@K@std@@V?$allocator@U?$pair@$$CBKPAVCTSelfObj@@@std@@@3@$0A@@std@@@std@@IAEXXZ
_TEXT	SEGMENT PARA USE32 PUBLIC 'CODE'
_TEXT	ENDS
;	COMDAT ?_Kfn@?$_Tmap_traits@KPAVCTSelfObj@@U?$less@K@std@@V?$allocator@U?$pair@$$CBKPAVCTSelfObj@@@std@@@3@$0A@@std@@SAABKABU?$pair@$$CBKPAVCTSelfObj@@@2@@Z
_TEXT	SEGMENT PARA USE32 PUBLIC 'CODE'
_TEXT	ENDS
;	COMDAT ??0?$allocator@U?$pair@$$CBKPAVCTSelfObj@@@std@@@std@@QAE@XZ
_TEXT	SEGMENT PARA USE32 PUBLIC 'CODE'
_TEXT	ENDS
;	COMDAT ?deallocate@?$allocator@U_Node@?$_Tree_nod@V?$_Tmap_traits@KPAVCTSelfObj@@U?$less@K@std@@V?$allocator@U?$pair@$$CBKPAVCTSelfObj@@@std@@@3@$0A@@std@@@std@@@std@@QAEXPAU_Node@?$_Tree_nod@V?$_Tmap_traits@KPAVCTSelfObj@@U?$less@K@std@@V?$allocator@U?$pair@$$CBKPAVCTSelfObj@@@std@@@3@$0A@@std@@@2@I@Z
_TEXT	SEGMENT PARA USE32 PUBLIC 'CODE'
_TEXT	ENDS
;	COMDAT ?destroy@?$allocator@U_Node@?$_Tree_nod@V?$_Tmap_traits@KPAVCTSelfObj@@U?$less@K@std@@V?$allocator@U?$pair@$$CBKPAVCTSelfObj@@@std@@@3@$0A@@std@@@std@@@std@@QAEXPAU_Node@?$_Tree_nod@V?$_Tmap_traits@KPAVCTSelfObj@@U?$less@K@std@@V?$allocator@U?$pair@$$CBKPAVCTSelfObj@@@std@@@3@$0A@@std@@@2@@Z
_TEXT	SEGMENT PARA USE32 PUBLIC 'CODE'
_TEXT	ENDS
;	COMDAT ?_Color@?$_Tree@V?$_Tmap_traits@KPAVCTMonster@@U?$less@K@std@@V?$allocator@U?$pair@$$CBKPAVCTMonster@@@std@@@3@$0A@@std@@@std@@KAAADPAU_Node@?$_Tree_nod@V?$_Tmap_traits@KPAVCTMonster@@U?$less@K@std@@V?$allocator@U?$pair@$$CBKPAVCTMonster@@@std@@@3@$0A@@std@@@2@@Z
_TEXT	SEGMENT PARA USE32 PUBLIC 'CODE'
_TEXT	ENDS
;	COMDAT ?_Isnil@?$_Tree@V?$_Tmap_traits@KPAVCTMonster@@U?$less@K@std@@V?$allocator@U?$pair@$$CBKPAVCTMonster@@@std@@@3@$0A@@std@@@std@@KAAADPAU_Node@?$_Tree_nod@V?$_Tmap_traits@KPAVCTMonster@@U?$less@K@std@@V?$allocator@U?$pair@$$CBKPAVCTMonster@@@std@@@3@$0A@@std@@@2@@Z
_TEXT	SEGMENT PARA USE32 PUBLIC 'CODE'
_TEXT	ENDS
;	COMDAT ?_Key@?$_Tree@V?$_Tmap_traits@KPAVCTMonster@@U?$less@K@std@@V?$allocator@U?$pair@$$CBKPAVCTMonster@@@std@@@3@$0A@@std@@@std@@KAABKPAU_Node@?$_Tree_nod@V?$_Tmap_traits@KPAVCTMonster@@U?$less@K@std@@V?$allocator@U?$pair@$$CBKPAVCTMonster@@@std@@@3@$0A@@std@@@2@@Z
_TEXT	SEGMENT PARA USE32 PUBLIC 'CODE'
_TEXT	ENDS
;	COMDAT ?_Left@?$_Tree@V?$_Tmap_traits@KPAVCTMonster@@U?$less@K@std@@V?$allocator@U?$pair@$$CBKPAVCTMonster@@@std@@@3@$0A@@std@@@std@@KAAAPAU_Node@?$_Tree_nod@V?$_Tmap_traits@KPAVCTMonster@@U?$less@K@std@@V?$allocator@U?$pair@$$CBKPAVCTMonster@@@std@@@3@$0A@@std@@@2@PAU342@@Z
_TEXT	SEGMENT PARA USE32 PUBLIC 'CODE'
_TEXT	ENDS
;	COMDAT ?_Parent@?$_Tree@V?$_Tmap_traits@KPAVCTMonster@@U?$less@K@std@@V?$allocator@U?$pair@$$CBKPAVCTMonster@@@std@@@3@$0A@@std@@@std@@KAAAPAU_Node@?$_Tree_nod@V?$_Tmap_traits@KPAVCTMonster@@U?$less@K@std@@V?$allocator@U?$pair@$$CBKPAVCTMonster@@@std@@@3@$0A@@std@@@2@PAU342@@Z
_TEXT	SEGMENT PARA USE32 PUBLIC 'CODE'
_TEXT	ENDS
;	COMDAT ?_Right@?$_Tree@V?$_Tmap_traits@KPAVCTMonster@@U?$less@K@std@@V?$allocator@U?$pair@$$CBKPAVCTMonster@@@std@@@3@$0A@@std@@@std@@KAAAPAU_Node@?$_Tree_nod@V?$_Tmap_traits@KPAVCTMonster@@U?$less@K@std@@V?$allocator@U?$pair@$$CBKPAVCTMonster@@@std@@@3@$0A@@std@@@2@PAU342@@Z
_TEXT	SEGMENT PARA USE32 PUBLIC 'CODE'
_TEXT	ENDS
;	COMDAT ??0?$_Tree@V?$_Tmap_traits@KPAVCTMonster@@U?$less@K@std@@V?$allocator@U?$pair@$$CBKPAVCTMonster@@@std@@@3@$0A@@std@@@std@@QAE@ABU?$less@K@1@ABV?$allocator@U?$pair@$$CBKPAVCTMonster@@@std@@@1@@Z
_TEXT	SEGMENT PARA USE32 PUBLIC 'CODE'
_TEXT	ENDS
;	COMDAT ?lower_bound@?$_Tree@V?$_Tmap_traits@KPAVCTMonster@@U?$less@K@std@@V?$allocator@U?$pair@$$CBKPAVCTMonster@@@std@@@3@$0A@@std@@@std@@QAE?AViterator@12@ABK@Z
_TEXT	SEGMENT PARA USE32 PUBLIC 'CODE'
_TEXT	ENDS
;	COMDAT ?_Erase@?$_Tree@V?$_Tmap_traits@KPAVCTMonster@@U?$less@K@std@@V?$allocator@U?$pair@$$CBKPAVCTMonster@@@std@@@3@$0A@@std@@@std@@IAEXPAU_Node@?$_Tree_nod@V?$_Tmap_traits@KPAVCTMonster@@U?$less@K@std@@V?$allocator@U?$pair@$$CBKPAVCTMonster@@@std@@@3@$0A@@std@@@2@@Z
_TEXT	SEGMENT PARA USE32 PUBLIC 'CODE'
_TEXT	ENDS
;	COMDAT ?_Insert@?$_Tree@V?$_Tmap_traits@KPAVCTMonster@@U?$less@K@std@@V?$allocator@U?$pair@$$CBKPAVCTMonster@@@std@@@3@$0A@@std@@@std@@IAE?AViterator@12@_NPAU_Node@?$_Tree_nod@V?$_Tmap_traits@KPAVCTMonster@@U?$less@K@std@@V?$allocator@U?$pair@$$CBKPAVCTMonster@@@std@@@3@$0A@@std@@@2@ABU?$pair@$$CBKPAVCTMonster@@@2@@Z
_TEXT	SEGMENT PARA USE32 PUBLIC 'CODE'
_TEXT	ENDS
;	COMDAT ?_Lmost@?$_Tree@V?$_Tmap_traits@KPAVCTMonster@@U?$less@K@std@@V?$allocator@U?$pair@$$CBKPAVCTMonster@@@std@@@3@$0A@@std@@@std@@IAEAAPAU_Node@?$_Tree_nod@V?$_Tmap_traits@KPAVCTMonster@@U?$less@K@std@@V?$allocator@U?$pair@$$CBKPAVCTMonster@@@std@@@3@$0A@@std@@@2@XZ
_TEXT	SEGMENT PARA USE32 PUBLIC 'CODE'
_TEXT	ENDS
;	COMDAT ?_Lrotate@?$_Tree@V?$_Tmap_traits@KPAVCTMonster@@U?$less@K@std@@V?$allocator@U?$pair@$$CBKPAVCTMonster@@@std@@@3@$0A@@std@@@std@@IAEXPAU_Node@?$_Tree_nod@V?$_Tmap_traits@KPAVCTMonster@@U?$less@K@std@@V?$allocator@U?$pair@$$CBKPAVCTMonster@@@std@@@3@$0A@@std@@@2@@Z
_TEXT	SEGMENT PARA USE32 PUBLIC 'CODE'
_TEXT	ENDS
;	COMDAT ?_Max@?$_Tree@V?$_Tmap_traits@KPAVCTMonster@@U?$less@K@std@@V?$allocator@U?$pair@$$CBKPAVCTMonster@@@std@@@3@$0A@@std@@@std@@KAPAU_Node@?$_Tree_nod@V?$_Tmap_traits@KPAVCTMonster@@U?$less@K@std@@V?$allocator@U?$pair@$$CBKPAVCTMonster@@@std@@@3@$0A@@std@@@2@PAU342@@Z
_TEXT	SEGMENT PARA USE32 PUBLIC 'CODE'
_TEXT	ENDS
;	COMDAT ?_Min@?$_Tree@V?$_Tmap_traits@KPAVCTMonster@@U?$less@K@std@@V?$allocator@U?$pair@$$CBKPAVCTMonster@@@std@@@3@$0A@@std@@@std@@KAPAU_Node@?$_Tree_nod@V?$_Tmap_traits@KPAVCTMonster@@U?$less@K@std@@V?$allocator@U?$pair@$$CBKPAVCTMonster@@@std@@@3@$0A@@std@@@2@PAU342@@Z
_TEXT	SEGMENT PARA USE32 PUBLIC 'CODE'
_TEXT	ENDS
;	COMDAT ?_Rmost@?$_Tree@V?$_Tmap_traits@KPAVCTMonster@@U?$less@K@std@@V?$allocator@U?$pair@$$CBKPAVCTMonster@@@std@@@3@$0A@@std@@@std@@IAEAAPAU_Node@?$_Tree_nod@V?$_Tmap_traits@KPAVCTMonster@@U?$less@K@std@@V?$allocator@U?$pair@$$CBKPAVCTMonster@@@std@@@3@$0A@@std@@@2@XZ
_TEXT	SEGMENT PARA USE32 PUBLIC 'CODE'
_TEXT	ENDS
;	COMDAT ?_Root@?$_Tree@V?$_Tmap_traits@KPAVCTMonster@@U?$less@K@std@@V?$allocator@U?$pair@$$CBKPAVCTMonster@@@std@@@3@$0A@@std@@@std@@IAEAAPAU_Node@?$_Tree_nod@V?$_Tmap_traits@KPAVCTMonster@@U?$less@K@std@@V?$allocator@U?$pair@$$CBKPAVCTMonster@@@std@@@3@$0A@@std@@@2@XZ
_TEXT	SEGMENT PARA USE32 PUBLIC 'CODE'
_TEXT	ENDS
;	COMDAT ?_Rrotate@?$_Tree@V?$_Tmap_traits@KPAVCTMonster@@U?$less@K@std@@V?$allocator@U?$pair@$$CBKPAVCTMonster@@@std@@@3@$0A@@std@@@std@@IAEXPAU_Node@?$_Tree_nod@V?$_Tmap_traits@KPAVCTMonster@@U?$less@K@std@@V?$allocator@U?$pair@$$CBKPAVCTMonster@@@std@@@3@$0A@@std@@@2@@Z
_TEXT	SEGMENT PARA USE32 PUBLIC 'CODE'
_TEXT	ENDS
;	COMDAT ?_Tidy@?$_Tree@V?$_Tmap_traits@KPAVCTMonster@@U?$less@K@std@@V?$allocator@U?$pair@$$CBKPAVCTMonster@@@std@@@3@$0A@@std@@@std@@IAEXXZ
_TEXT	SEGMENT PARA USE32 PUBLIC 'CODE'
_TEXT	ENDS
;	COMDAT ?_Kfn@?$_Tmap_traits@KPAVCTMonster@@U?$less@K@std@@V?$allocator@U?$pair@$$CBKPAVCTMonster@@@std@@@3@$0A@@std@@SAABKABU?$pair@$$CBKPAVCTMonster@@@2@@Z
_TEXT	SEGMENT PARA USE32 PUBLIC 'CODE'
_TEXT	ENDS
;	COMDAT ??0?$allocator@U?$pair@$$CBKPAVCTMonster@@@std@@@std@@QAE@XZ
_TEXT	SEGMENT PARA USE32 PUBLIC 'CODE'
_TEXT	ENDS
;	COMDAT ?deallocate@?$allocator@U_Node@?$_Tree_nod@V?$_Tmap_traits@KPAVCTMonster@@U?$less@K@std@@V?$allocator@U?$pair@$$CBKPAVCTMonster@@@std@@@3@$0A@@std@@@std@@@std@@QAEXPAU_Node@?$_Tree_nod@V?$_Tmap_traits@KPAVCTMonster@@U?$less@K@std@@V?$allocator@U?$pair@$$CBKPAVCTMonster@@@std@@@3@$0A@@std@@@2@I@Z
_TEXT	SEGMENT PARA USE32 PUBLIC 'CODE'
_TEXT	ENDS
;	COMDAT ?destroy@?$allocator@U_Node@?$_Tree_nod@V?$_Tmap_traits@KPAVCTMonster@@U?$less@K@std@@V?$allocator@U?$pair@$$CBKPAVCTMonster@@@std@@@3@$0A@@std@@@std@@@std@@QAEXPAU_Node@?$_Tree_nod@V?$_Tmap_traits@KPAVCTMonster@@U?$less@K@std@@V?$allocator@U?$pair@$$CBKPAVCTMonster@@@std@@@3@$0A@@std@@@2@@Z
_TEXT	SEGMENT PARA USE32 PUBLIC 'CODE'
_TEXT	ENDS
;	COMDAT ?_Isnil@?$_Tree@V?$_Tmap_traits@KPAUtagSWITCH@@U?$less@K@std@@V?$allocator@U?$pair@$$CBKPAUtagSWITCH@@@std@@@3@$0A@@std@@@std@@KAAADPAU_Node@?$_Tree_nod@V?$_Tmap_traits@KPAUtagSWITCH@@U?$less@K@std@@V?$allocator@U?$pair@$$CBKPAUtagSWITCH@@@std@@@3@$0A@@std@@@2@@Z
_TEXT	SEGMENT PARA USE32 PUBLIC 'CODE'
_TEXT	ENDS
;	COMDAT ?_Key@?$_Tree@V?$_Tmap_traits@KPAUtagSWITCH@@U?$less@K@std@@V?$allocator@U?$pair@$$CBKPAUtagSWITCH@@@std@@@3@$0A@@std@@@std@@KAABKPAU_Node@?$_Tree_nod@V?$_Tmap_traits@KPAUtagSWITCH@@U?$less@K@std@@V?$allocator@U?$pair@$$CBKPAUtagSWITCH@@@std@@@3@$0A@@std@@@2@@Z
_TEXT	SEGMENT PARA USE32 PUBLIC 'CODE'
_TEXT	ENDS
;	COMDAT ?_Left@?$_Tree@V?$_Tmap_traits@KPAUtagSWITCH@@U?$less@K@std@@V?$allocator@U?$pair@$$CBKPAUtagSWITCH@@@std@@@3@$0A@@std@@@std@@KAAAPAU_Node@?$_Tree_nod@V?$_Tmap_traits@KPAUtagSWITCH@@U?$less@K@std@@V?$allocator@U?$pair@$$CBKPAUtagSWITCH@@@std@@@3@$0A@@std@@@2@PAU342@@Z
_TEXT	SEGMENT PARA USE32 PUBLIC 'CODE'
_TEXT	ENDS
;	COMDAT ?_Right@?$_Tree@V?$_Tmap_traits@KPAUtagSWITCH@@U?$less@K@std@@V?$allocator@U?$pair@$$CBKPAUtagSWITCH@@@std@@@3@$0A@@std@@@std@@KAAAPAU_Node@?$_Tree_nod@V?$_Tmap_traits@KPAUtagSWITCH@@U?$less@K@std@@V?$allocator@U?$pair@$$CBKPAUtagSWITCH@@@std@@@3@$0A@@std@@@2@PAU342@@Z
_TEXT	SEGMENT PARA USE32 PUBLIC 'CODE'
_TEXT	ENDS
;	COMDAT ??0?$_Tree@V?$_Tmap_traits@KPAUtagSWITCH@@U?$less@K@std@@V?$allocator@U?$pair@$$CBKPAUtagSWITCH@@@std@@@3@$0A@@std@@@std@@QAE@ABU?$less@K@1@ABV?$allocator@U?$pair@$$CBKPAUtagSWITCH@@@std@@@1@@Z
_TEXT	SEGMENT PARA USE32 PUBLIC 'CODE'
_TEXT	ENDS
;	COMDAT ?lower_bound@?$_Tree@V?$_Tmap_traits@KPAUtagSWITCH@@U?$less@K@std@@V?$allocator@U?$pair@$$CBKPAUtagSWITCH@@@std@@@3@$0A@@std@@@std@@QAE?AViterator@12@ABK@Z
_TEXT	SEGMENT PARA USE32 PUBLIC 'CODE'
_TEXT	ENDS
;	COMDAT ?_Erase@?$_Tree@V?$_Tmap_traits@KPAUtagSWITCH@@U?$less@K@std@@V?$allocator@U?$pair@$$CBKPAUtagSWITCH@@@std@@@3@$0A@@std@@@std@@IAEXPAU_Node@?$_Tree_nod@V?$_Tmap_traits@KPAUtagSWITCH@@U?$less@K@std@@V?$allocator@U?$pair@$$CBKPAUtagSWITCH@@@std@@@3@$0A@@std@@@2@@Z
_TEXT	SEGMENT PARA USE32 PUBLIC 'CODE'
_TEXT	ENDS
;	COMDAT ?_Insert@?$_Tree@V?$_Tmap_traits@KPAUtagSWITCH@@U?$less@K@std@@V?$allocator@U?$pair@$$CBKPAUtagSWITCH@@@std@@@3@$0A@@std@@@std@@IAE?AViterator@12@_NPAU_Node@?$_Tree_nod@V?$_Tmap_traits@KPAUtagSWITCH@@U?$less@K@std@@V?$allocator@U?$pair@$$CBKPAUtagSWITCH@@@std@@@3@$0A@@std@@@2@ABU?$pair@$$CBKPAUtagSWITCH@@@2@@Z
_TEXT	SEGMENT PARA USE32 PUBLIC 'CODE'
_TEXT	ENDS
;	COMDAT ?_Lmost@?$_Tree@V?$_Tmap_traits@KPAUtagSWITCH@@U?$less@K@std@@V?$allocator@U?$pair@$$CBKPAUtagSWITCH@@@std@@@3@$0A@@std@@@std@@IAEAAPAU_Node@?$_Tree_nod@V?$_Tmap_traits@KPAUtagSWITCH@@U?$less@K@std@@V?$allocator@U?$pair@$$CBKPAUtagSWITCH@@@std@@@3@$0A@@std@@@2@XZ
_TEXT	SEGMENT PARA USE32 PUBLIC 'CODE'
_TEXT	ENDS
;	COMDAT ?_Rmost@?$_Tree@V?$_Tmap_traits@KPAUtagSWITCH@@U?$less@K@std@@V?$allocator@U?$pair@$$CBKPAUtagSWITCH@@@std@@@3@$0A@@std@@@std@@IAEAAPAU_Node@?$_Tree_nod@V?$_Tmap_traits@KPAUtagSWITCH@@U?$less@K@std@@V?$allocator@U?$pair@$$CBKPAUtagSWITCH@@@std@@@3@$0A@@std@@@2@XZ
_TEXT	SEGMENT PARA USE32 PUBLIC 'CODE'
_TEXT	ENDS
;	COMDAT ?_Root@?$_Tree@V?$_Tmap_traits@KPAUtagSWITCH@@U?$less@K@std@@V?$allocator@U?$pair@$$CBKPAUtagSWITCH@@@std@@@3@$0A@@std@@@std@@IAEAAPAU_Node@?$_Tree_nod@V?$_Tmap_traits@KPAUtagSWITCH@@U?$less@K@std@@V?$allocator@U?$pair@$$CBKPAUtagSWITCH@@@std@@@3@$0A@@std@@@2@XZ
_TEXT	SEGMENT PARA USE32 PUBLIC 'CODE'
_TEXT	ENDS
;	COMDAT ?_Tidy@?$_Tree@V?$_Tmap_traits@KPAUtagSWITCH@@U?$less@K@std@@V?$allocator@U?$pair@$$CBKPAUtagSWITCH@@@std@@@3@$0A@@std@@@std@@IAEXXZ
_TEXT	SEGMENT PARA USE32 PUBLIC 'CODE'
_TEXT	ENDS
;	COMDAT ?_Kfn@?$_Tmap_traits@KPAUtagSWITCH@@U?$less@K@std@@V?$allocator@U?$pair@$$CBKPAUtagSWITCH@@@std@@@3@$0A@@std@@SAABKABU?$pair@$$CBKPAUtagSWITCH@@@2@@Z
_TEXT	SEGMENT PARA USE32 PUBLIC 'CODE'
_TEXT	ENDS
;	COMDAT ??0?$allocator@U?$pair@$$CBKPAUtagSWITCH@@@std@@@std@@QAE@XZ
_TEXT	SEGMENT PARA USE32 PUBLIC 'CODE'
_TEXT	ENDS
;	COMDAT ?_Isnil@?$_Tree@V?$_Tmap_traits@KPAUtagGATE@@U?$less@K@std@@V?$allocator@U?$pair@$$CBKPAUtagGATE@@@std@@@3@$0A@@std@@@std@@KAAADPAU_Node@?$_Tree_nod@V?$_Tmap_traits@KPAUtagGATE@@U?$less@K@std@@V?$allocator@U?$pair@$$CBKPAUtagGATE@@@std@@@3@$0A@@std@@@2@@Z
_TEXT	SEGMENT PARA USE32 PUBLIC 'CODE'
_TEXT	ENDS
;	COMDAT ?_Key@?$_Tree@V?$_Tmap_traits@KPAUtagGATE@@U?$less@K@std@@V?$allocator@U?$pair@$$CBKPAUtagGATE@@@std@@@3@$0A@@std@@@std@@KAABKPAU_Node@?$_Tree_nod@V?$_Tmap_traits@KPAUtagGATE@@U?$less@K@std@@V?$allocator@U?$pair@$$CBKPAUtagGATE@@@std@@@3@$0A@@std@@@2@@Z
_TEXT	SEGMENT PARA USE32 PUBLIC 'CODE'
_TEXT	ENDS
;	COMDAT ?_Left@?$_Tree@V?$_Tmap_traits@KPAUtagGATE@@U?$less@K@std@@V?$allocator@U?$pair@$$CBKPAUtagGATE@@@std@@@3@$0A@@std@@@std@@KAAAPAU_Node@?$_Tree_nod@V?$_Tmap_traits@KPAUtagGATE@@U?$less@K@std@@V?$allocator@U?$pair@$$CBKPAUtagGATE@@@std@@@3@$0A@@std@@@2@PAU342@@Z
_TEXT	SEGMENT PARA USE32 PUBLIC 'CODE'
_TEXT	ENDS
;	COMDAT ?_Right@?$_Tree@V?$_Tmap_traits@KPAUtagGATE@@U?$less@K@std@@V?$allocator@U?$pair@$$CBKPAUtagGATE@@@std@@@3@$0A@@std@@@std@@KAAAPAU_Node@?$_Tree_nod@V?$_Tmap_traits@KPAUtagGATE@@U?$less@K@std@@V?$allocator@U?$pair@$$CBKPAUtagGATE@@@std@@@3@$0A@@std@@@2@PAU342@@Z
_TEXT	SEGMENT PARA USE32 PUBLIC 'CODE'
_TEXT	ENDS
;	COMDAT ??0?$_Tree@V?$_Tmap_traits@KPAUtagGATE@@U?$less@K@std@@V?$allocator@U?$pair@$$CBKPAUtagGATE@@@std@@@3@$0A@@std@@@std@@QAE@ABU?$less@K@1@ABV?$allocator@U?$pair@$$CBKPAUtagGATE@@@std@@@1@@Z
_TEXT	SEGMENT PARA USE32 PUBLIC 'CODE'
_TEXT	ENDS
;	COMDAT ?lower_bound@?$_Tree@V?$_Tmap_traits@KPAUtagGATE@@U?$less@K@std@@V?$allocator@U?$pair@$$CBKPAUtagGATE@@@std@@@3@$0A@@std@@@std@@QAE?AViterator@12@ABK@Z
_TEXT	SEGMENT PARA USE32 PUBLIC 'CODE'
_TEXT	ENDS
;	COMDAT ?_Erase@?$_Tree@V?$_Tmap_traits@KPAUtagGATE@@U?$less@K@std@@V?$allocator@U?$pair@$$CBKPAUtagGATE@@@std@@@3@$0A@@std@@@std@@IAEXPAU_Node@?$_Tree_nod@V?$_Tmap_traits@KPAUtagGATE@@U?$less@K@std@@V?$allocator@U?$pair@$$CBKPAUtagGATE@@@std@@@3@$0A@@std@@@2@@Z
_TEXT	SEGMENT PARA USE32 PUBLIC 'CODE'
_TEXT	ENDS
;	COMDAT ?_Insert@?$_Tree@V?$_Tmap_traits@KPAUtagGATE@@U?$less@K@std@@V?$allocator@U?$pair@$$CBKPAUtagGATE@@@std@@@3@$0A@@std@@@std@@IAE?AViterator@12@_NPAU_Node@?$_Tree_nod@V?$_Tmap_traits@KPAUtagGATE@@U?$less@K@std@@V?$allocator@U?$pair@$$CBKPAUtagGATE@@@std@@@3@$0A@@std@@@2@ABU?$pair@$$CBKPAUtagGATE@@@2@@Z
_TEXT	SEGMENT PARA USE32 PUBLIC 'CODE'
_TEXT	ENDS
;	COMDAT ?_Lmost@?$_Tree@V?$_Tmap_traits@KPAUtagGATE@@U?$less@K@std@@V?$allocator@U?$pair@$$CBKPAUtagGATE@@@std@@@3@$0A@@std@@@std@@IAEAAPAU_Node@?$_Tree_nod@V?$_Tmap_traits@KPAUtagGATE@@U?$less@K@std@@V?$allocator@U?$pair@$$CBKPAUtagGATE@@@std@@@3@$0A@@std@@@2@XZ
_TEXT	SEGMENT PARA USE32 PUBLIC 'CODE'
_TEXT	ENDS
;	COMDAT ?_Rmost@?$_Tree@V?$_Tmap_traits@KPAUtagGATE@@U?$less@K@std@@V?$allocator@U?$pair@$$CBKPAUtagGATE@@@std@@@3@$0A@@std@@@std@@IAEAAPAU_Node@?$_Tree_nod@V?$_Tmap_traits@KPAUtagGATE@@U?$less@K@std@@V?$allocator@U?$pair@$$CBKPAUtagGATE@@@std@@@3@$0A@@std@@@2@XZ
_TEXT	SEGMENT PARA USE32 PUBLIC 'CODE'
_TEXT	ENDS
;	COMDAT ?_Root@?$_Tree@V?$_Tmap_traits@KPAUtagGATE@@U?$less@K@std@@V?$allocator@U?$pair@$$CBKPAUtagGATE@@@std@@@3@$0A@@std@@@std@@IAEAAPAU_Node@?$_Tree_nod@V?$_Tmap_traits@KPAUtagGATE@@U?$less@K@std@@V?$allocator@U?$pair@$$CBKPAUtagGATE@@@std@@@3@$0A@@std@@@2@XZ
_TEXT	SEGMENT PARA USE32 PUBLIC 'CODE'
_TEXT	ENDS
;	COMDAT ?_Tidy@?$_Tree@V?$_Tmap_traits@KPAUtagGATE@@U?$less@K@std@@V?$allocator@U?$pair@$$CBKPAUtagGATE@@@std@@@3@$0A@@std@@@std@@IAEXXZ
_TEXT	SEGMENT PARA USE32 PUBLIC 'CODE'
_TEXT	ENDS
;	COMDAT ?_Kfn@?$_Tmap_traits@KPAUtagGATE@@U?$less@K@std@@V?$allocator@U?$pair@$$CBKPAUtagGATE@@@std@@@3@$0A@@std@@SAABKABU?$pair@$$CBKPAUtagGATE@@@2@@Z
_TEXT	SEGMENT PARA USE32 PUBLIC 'CODE'
_TEXT	ENDS
;	COMDAT ??0?$allocator@U?$pair@$$CBKPAUtagGATE@@@std@@@std@@QAE@XZ
_TEXT	SEGMENT PARA USE32 PUBLIC 'CODE'
_TEXT	ENDS
;	COMDAT ??0iterator@?$_Tree@V?$_Tmap_traits@KPAVCTRecallMon@@U?$less@K@std@@V?$allocator@U?$pair@$$CBKPAVCTRecallMon@@@std@@@3@$0A@@std@@@std@@QAE@PAU_Node@?$_Tree_nod@V?$_Tmap_traits@KPAVCTRecallMon@@U?$less@K@std@@V?$allocator@U?$pair@$$CBKPAVCTRecallMon@@@std@@@3@$0A@@std@@@2@@Z
_TEXT	SEGMENT PARA USE32 PUBLIC 'CODE'
_TEXT	ENDS
;	COMDAT ??Eiterator@?$_Tree@V?$_Tmap_traits@KPAVCTRecallMon@@U?$less@K@std@@V?$allocator@U?$pair@$$CBKPAVCTRecallMon@@@std@@@3@$0A@@std@@@std@@QAEAAV012@XZ
_TEXT	SEGMENT PARA USE32 PUBLIC 'CODE'
_TEXT	ENDS
;	COMDAT ??Fiterator@?$_Tree@V?$_Tmap_traits@KPAVCTRecallMon@@U?$less@K@std@@V?$allocator@U?$pair@$$CBKPAVCTRecallMon@@@std@@@3@$0A@@std@@@std@@QAEAAV012@XZ
_TEXT	SEGMENT PARA USE32 PUBLIC 'CODE'
_TEXT	ENDS
;	COMDAT ??0const_iterator@?$_Tree@V?$_Tmap_traits@KPAVCTRecallMon@@U?$less@K@std@@V?$allocator@U?$pair@$$CBKPAVCTRecallMon@@@std@@@3@$0A@@std@@@std@@QAE@XZ
_TEXT	SEGMENT PARA USE32 PUBLIC 'CODE'
_TEXT	ENDS
;	COMDAT ??Dconst_iterator@?$_Tree@V?$_Tmap_traits@KPAVCTRecallMon@@U?$less@K@std@@V?$allocator@U?$pair@$$CBKPAVCTRecallMon@@@std@@@3@$0A@@std@@@std@@QBEABU?$pair@$$CBKPAVCTRecallMon@@@2@XZ
_TEXT	SEGMENT PARA USE32 PUBLIC 'CODE'
_TEXT	ENDS
;	COMDAT ?_Mynode@const_iterator@?$_Tree@V?$_Tmap_traits@KPAVCTRecallMon@@U?$less@K@std@@V?$allocator@U?$pair@$$CBKPAVCTRecallMon@@@std@@@3@$0A@@std@@@std@@QBEPAU_Node@?$_Tree_nod@V?$_Tmap_traits@KPAVCTRecallMon@@U?$less@K@std@@V?$allocator@U?$pair@$$CBKPAVCTRecallMon@@@std@@@3@$0A@@std@@@3@XZ
_TEXT	SEGMENT PARA USE32 PUBLIC 'CODE'
_TEXT	ENDS
;	COMDAT ??0iterator@?$_Tree@V?$_Tmap_traits@KPAVCTSelfObj@@U?$less@K@std@@V?$allocator@U?$pair@$$CBKPAVCTSelfObj@@@std@@@3@$0A@@std@@@std@@QAE@PAU_Node@?$_Tree_nod@V?$_Tmap_traits@KPAVCTSelfObj@@U?$less@K@std@@V?$allocator@U?$pair@$$CBKPAVCTSelfObj@@@std@@@3@$0A@@std@@@2@@Z
_TEXT	SEGMENT PARA USE32 PUBLIC 'CODE'
_TEXT	ENDS
;	COMDAT ??Eiterator@?$_Tree@V?$_Tmap_traits@KPAVCTSelfObj@@U?$less@K@std@@V?$allocator@U?$pair@$$CBKPAVCTSelfObj@@@std@@@3@$0A@@std@@@std@@QAEAAV012@XZ
_TEXT	SEGMENT PARA USE32 PUBLIC 'CODE'
_TEXT	ENDS
;	COMDAT ??Fiterator@?$_Tree@V?$_Tmap_traits@KPAVCTSelfObj@@U?$less@K@std@@V?$allocator@U?$pair@$$CBKPAVCTSelfObj@@@std@@@3@$0A@@std@@@std@@QAEAAV012@XZ
_TEXT	SEGMENT PARA USE32 PUBLIC 'CODE'
_TEXT	ENDS
;	COMDAT ??0const_iterator@?$_Tree@V?$_Tmap_traits@KPAVCTSelfObj@@U?$less@K@std@@V?$allocator@U?$pair@$$CBKPAVCTSelfObj@@@std@@@3@$0A@@std@@@std@@QAE@XZ
_TEXT	SEGMENT PARA USE32 PUBLIC 'CODE'
_TEXT	ENDS
;	COMDAT ??Dconst_iterator@?$_Tree@V?$_Tmap_traits@KPAVCTSelfObj@@U?$less@K@std@@V?$allocator@U?$pair@$$CBKPAVCTSelfObj@@@std@@@3@$0A@@std@@@std@@QBEABU?$pair@$$CBKPAVCTSelfObj@@@2@XZ
_TEXT	SEGMENT PARA USE32 PUBLIC 'CODE'
_TEXT	ENDS
;	COMDAT ?_Mynode@const_iterator@?$_Tree@V?$_Tmap_traits@KPAVCTSelfObj@@U?$less@K@std@@V?$allocator@U?$pair@$$CBKPAVCTSelfObj@@@std@@@3@$0A@@std@@@std@@QBEPAU_Node@?$_Tree_nod@V?$_Tmap_traits@KPAVCTSelfObj@@U?$less@K@std@@V?$allocator@U?$pair@$$CBKPAVCTSelfObj@@@std@@@3@$0A@@std@@@3@XZ
_TEXT	SEGMENT PARA USE32 PUBLIC 'CODE'
_TEXT	ENDS
;	COMDAT ??0iterator@?$_Tree@V?$_Tmap_traits@KPAVCTMonster@@U?$less@K@std@@V?$allocator@U?$pair@$$CBKPAVCTMonster@@@std@@@3@$0A@@std@@@std@@QAE@PAU_Node@?$_Tree_nod@V?$_Tmap_traits@KPAVCTMonster@@U?$less@K@std@@V?$allocator@U?$pair@$$CBKPAVCTMonster@@@std@@@3@$0A@@std@@@2@@Z
_TEXT	SEGMENT PARA USE32 PUBLIC 'CODE'
_TEXT	ENDS
;	COMDAT ??Eiterator@?$_Tree@V?$_Tmap_traits@KPAVCTMonster@@U?$less@K@std@@V?$allocator@U?$pair@$$CBKPAVCTMonster@@@std@@@3@$0A@@std@@@std@@QAEAAV012@XZ
_TEXT	SEGMENT PARA USE32 PUBLIC 'CODE'
_TEXT	ENDS
;	COMDAT ??Fiterator@?$_Tree@V?$_Tmap_traits@KPAVCTMonster@@U?$less@K@std@@V?$allocator@U?$pair@$$CBKPAVCTMonster@@@std@@@3@$0A@@std@@@std@@QAEAAV012@XZ
_TEXT	SEGMENT PARA USE32 PUBLIC 'CODE'
_TEXT	ENDS
;	COMDAT ??0const_iterator@?$_Tree@V?$_Tmap_traits@KPAVCTMonster@@U?$less@K@std@@V?$allocator@U?$pair@$$CBKPAVCTMonster@@@std@@@3@$0A@@std@@@std@@QAE@XZ
_TEXT	SEGMENT PARA USE32 PUBLIC 'CODE'
_TEXT	ENDS
;	COMDAT ??Dconst_iterator@?$_Tree@V?$_Tmap_traits@KPAVCTMonster@@U?$less@K@std@@V?$allocator@U?$pair@$$CBKPAVCTMonster@@@std@@@3@$0A@@std@@@std@@QBEABU?$pair@$$CBKPAVCTMonster@@@2@XZ
_TEXT	SEGMENT PARA USE32 PUBLIC 'CODE'
_TEXT	ENDS
;	COMDAT ?_Mynode@const_iterator@?$_Tree@V?$_Tmap_traits@KPAVCTMonster@@U?$less@K@std@@V?$allocator@U?$pair@$$CBKPAVCTMonster@@@std@@@3@$0A@@std@@@std@@QBEPAU_Node@?$_Tree_nod@V?$_Tmap_traits@KPAVCTMonster@@U?$less@K@std@@V?$allocator@U?$pair@$$CBKPAVCTMonster@@@std@@@3@$0A@@std@@@3@XZ
_TEXT	SEGMENT PARA USE32 PUBLIC 'CODE'
_TEXT	ENDS
;	COMDAT ??0iterator@?$_Tree@V?$_Tmap_traits@KPAVCTPlayer@@U?$less@K@std@@V?$allocator@U?$pair@$$CBKPAVCTPlayer@@@std@@@3@$0A@@std@@@std@@QAE@PAU_Node@?$_Tree_nod@V?$_Tmap_traits@KPAVCTPlayer@@U?$less@K@std@@V?$allocator@U?$pair@$$CBKPAVCTPlayer@@@std@@@3@$0A@@std@@@2@@Z
_TEXT	SEGMENT PARA USE32 PUBLIC 'CODE'
_TEXT	ENDS
;	COMDAT ??Eiterator@?$_Tree@V?$_Tmap_traits@KPAVCTPlayer@@U?$less@K@std@@V?$allocator@U?$pair@$$CBKPAVCTPlayer@@@std@@@3@$0A@@std@@@std@@QAEAAV012@XZ
_TEXT	SEGMENT PARA USE32 PUBLIC 'CODE'
_TEXT	ENDS
;	COMDAT ??Fiterator@?$_Tree@V?$_Tmap_traits@KPAVCTPlayer@@U?$less@K@std@@V?$allocator@U?$pair@$$CBKPAVCTPlayer@@@std@@@3@$0A@@std@@@std@@QAEAAV012@XZ
_TEXT	SEGMENT PARA USE32 PUBLIC 'CODE'
_TEXT	ENDS
;	COMDAT ??0const_iterator@?$_Tree@V?$_Tmap_traits@KPAVCTPlayer@@U?$less@K@std@@V?$allocator@U?$pair@$$CBKPAVCTPlayer@@@std@@@3@$0A@@std@@@std@@QAE@XZ
_TEXT	SEGMENT PARA USE32 PUBLIC 'CODE'
_TEXT	ENDS
;	COMDAT ??Dconst_iterator@?$_Tree@V?$_Tmap_traits@KPAVCTPlayer@@U?$less@K@std@@V?$allocator@U?$pair@$$CBKPAVCTPlayer@@@std@@@3@$0A@@std@@@std@@QBEABU?$pair@$$CBKPAVCTPlayer@@@2@XZ
_TEXT	SEGMENT PARA USE32 PUBLIC 'CODE'
_TEXT	ENDS
;	COMDAT ?_Mynode@const_iterator@?$_Tree@V?$_Tmap_traits@KPAVCTPlayer@@U?$less@K@std@@V?$allocator@U?$pair@$$CBKPAVCTPlayer@@@std@@@3@$0A@@std@@@std@@QBEPAU_Node@?$_Tree_nod@V?$_Tmap_traits@KPAVCTPlayer@@U?$less@K@std@@V?$allocator@U?$pair@$$CBKPAVCTPlayer@@@std@@@3@$0A@@std@@@3@XZ
_TEXT	SEGMENT PARA USE32 PUBLIC 'CODE'
_TEXT	ENDS
;	COMDAT ??0iterator@?$_Tree@V?$_Tmap_traits@KPAUtagSWITCH@@U?$less@K@std@@V?$allocator@U?$pair@$$CBKPAUtagSWITCH@@@std@@@3@$0A@@std@@@std@@QAE@PAU_Node@?$_Tree_nod@V?$_Tmap_traits@KPAUtagSWITCH@@U?$less@K@std@@V?$allocator@U?$pair@$$CBKPAUtagSWITCH@@@std@@@3@$0A@@std@@@2@@Z
_TEXT	SEGMENT PARA USE32 PUBLIC 'CODE'
_TEXT	ENDS
;	COMDAT ??Eiterator@?$_Tree@V?$_Tmap_traits@KPAUtagSWITCH@@U?$less@K@std@@V?$allocator@U?$pair@$$CBKPAUtagSWITCH@@@std@@@3@$0A@@std@@@std@@QAEAAV012@XZ
_TEXT	SEGMENT PARA USE32 PUBLIC 'CODE'
_TEXT	ENDS
;	COMDAT ??Fiterator@?$_Tree@V?$_Tmap_traits@KPAUtagSWITCH@@U?$less@K@std@@V?$allocator@U?$pair@$$CBKPAUtagSWITCH@@@std@@@3@$0A@@std@@@std@@QAEAAV012@XZ
_TEXT	SEGMENT PARA USE32 PUBLIC 'CODE'
_TEXT	ENDS
;	COMDAT ??0const_iterator@?$_Tree@V?$_Tmap_traits@KPAUtagSWITCH@@U?$less@K@std@@V?$allocator@U?$pair@$$CBKPAUtagSWITCH@@@std@@@3@$0A@@std@@@std@@QAE@XZ
_TEXT	SEGMENT PARA USE32 PUBLIC 'CODE'
_TEXT	ENDS
;	COMDAT ??Dconst_iterator@?$_Tree@V?$_Tmap_traits@KPAUtagSWITCH@@U?$less@K@std@@V?$allocator@U?$pair@$$CBKPAUtagSWITCH@@@std@@@3@$0A@@std@@@std@@QBEABU?$pair@$$CBKPAUtagSWITCH@@@2@XZ
_TEXT	SEGMENT PARA USE32 PUBLIC 'CODE'
_TEXT	ENDS
;	COMDAT ?_Mynode@const_iterator@?$_Tree@V?$_Tmap_traits@KPAUtagSWITCH@@U?$less@K@std@@V?$allocator@U?$pair@$$CBKPAUtagSWITCH@@@std@@@3@$0A@@std@@@std@@QBEPAU_Node@?$_Tree_nod@V?$_Tmap_traits@KPAUtagSWITCH@@U?$less@K@std@@V?$allocator@U?$pair@$$CBKPAUtagSWITCH@@@std@@@3@$0A@@std@@@3@XZ
_TEXT	SEGMENT PARA USE32 PUBLIC 'CODE'
_TEXT	ENDS
;	COMDAT ??0iterator@?$_Tree@V?$_Tmap_traits@KPAUtagGATE@@U?$less@K@std@@V?$allocator@U?$pair@$$CBKPAUtagGATE@@@std@@@3@$0A@@std@@@std@@QAE@PAU_Node@?$_Tree_nod@V?$_Tmap_traits@KPAUtagGATE@@U?$less@K@std@@V?$allocator@U?$pair@$$CBKPAUtagGATE@@@std@@@3@$0A@@std@@@2@@Z
_TEXT	SEGMENT PARA USE32 PUBLIC 'CODE'
_TEXT	ENDS
;	COMDAT ??Eiterator@?$_Tree@V?$_Tmap_traits@KPAUtagGATE@@U?$less@K@std@@V?$allocator@U?$pair@$$CBKPAUtagGATE@@@std@@@3@$0A@@std@@@std@@QAEAAV012@XZ
_TEXT	SEGMENT PARA USE32 PUBLIC 'CODE'
_TEXT	ENDS
;	COMDAT ??Fiterator@?$_Tree@V?$_Tmap_traits@KPAUtagGATE@@U?$less@K@std@@V?$allocator@U?$pair@$$CBKPAUtagGATE@@@std@@@3@$0A@@std@@@std@@QAEAAV012@XZ
_TEXT	SEGMENT PARA USE32 PUBLIC 'CODE'
_TEXT	ENDS
;	COMDAT ??0const_iterator@?$_Tree@V?$_Tmap_traits@KPAUtagGATE@@U?$less@K@std@@V?$allocator@U?$pair@$$CBKPAUtagGATE@@@std@@@3@$0A@@std@@@std@@QAE@XZ
_TEXT	SEGMENT PARA USE32 PUBLIC 'CODE'
_TEXT	ENDS
;	COMDAT ??Dconst_iterator@?$_Tree@V?$_Tmap_traits@KPAUtagGATE@@U?$less@K@std@@V?$allocator@U?$pair@$$CBKPAUtagGATE@@@std@@@3@$0A@@std@@@std@@QBEABU?$pair@$$CBKPAUtagGATE@@@2@XZ
_TEXT	SEGMENT PARA USE32 PUBLIC 'CODE'
_TEXT	ENDS
;	COMDAT ?_Mynode@const_iterator@?$_Tree@V?$_Tmap_traits@KPAUtagGATE@@U?$less@K@std@@V?$allocator@U?$pair@$$CBKPAUtagGATE@@@std@@@3@$0A@@std@@@std@@QBEPAU_Node@?$_Tree_nod@V?$_Tmap_traits@KPAUtagGATE@@U?$less@K@std@@V?$allocator@U?$pair@$$CBKPAUtagGATE@@@std@@@3@$0A@@std@@@3@XZ
_TEXT	SEGMENT PARA USE32 PUBLIC 'CODE'
_TEXT	ENDS
;	COMDAT ??0?$pair@Viterator@?$_Tree@V?$_Tmap_traits@KPAUtagSWITCH@@U?$less@K@std@@V?$allocator@U?$pair@$$CBKPAUtagSWITCH@@@std@@@3@$0A@@std@@@std@@_N@std@@QAE@ABViterator@?$_Tree@V?$_Tmap_traits@KPAUtagSWITCH@@U?$less@K@std@@V?$allocator@U?$pair@$$CBKPAUtagSWITCH@@@std@@@3@$0A@@std@@@1@AB_N@Z
_TEXT	SEGMENT PARA USE32 PUBLIC 'CODE'
_TEXT	ENDS
;	COMDAT ??0?$pair@Viterator@?$_Tree@V?$_Tmap_traits@KPAUtagGATE@@U?$less@K@std@@V?$allocator@U?$pair@$$CBKPAUtagGATE@@@std@@@3@$0A@@std@@@std@@_N@std@@QAE@ABViterator@?$_Tree@V?$_Tmap_traits@KPAUtagGATE@@U?$less@K@std@@V?$allocator@U?$pair@$$CBKPAUtagGATE@@@std@@@3@$0A@@std@@@1@AB_N@Z
_TEXT	SEGMENT PARA USE32 PUBLIC 'CODE'
_TEXT	ENDS
;	COMDAT ??0?$pair@Viterator@?$_Tree@V?$_Tmap_traits@KPAVCTPlayer@@U?$less@K@std@@V?$allocator@U?$pair@$$CBKPAVCTPlayer@@@std@@@3@$0A@@std@@@std@@_N@std@@QAE@ABViterator@?$_Tree@V?$_Tmap_traits@KPAVCTPlayer@@U?$less@K@std@@V?$allocator@U?$pair@$$CBKPAVCTPlayer@@@std@@@3@$0A@@std@@@1@AB_N@Z
_TEXT	SEGMENT PARA USE32 PUBLIC 'CODE'
_TEXT	ENDS
;	COMDAT ??0?$pair@Viterator@?$_Tree@V?$_Tmap_traits@KPAVCTRecallMon@@U?$less@K@std@@V?$allocator@U?$pair@$$CBKPAVCTRecallMon@@@std@@@3@$0A@@std@@@std@@_N@std@@QAE@ABViterator@?$_Tree@V?$_Tmap_traits@KPAVCTRecallMon@@U?$less@K@std@@V?$allocator@U?$pair@$$CBKPAVCTRecallMon@@@std@@@3@$0A@@std@@@1@AB_N@Z
_TEXT	SEGMENT PARA USE32 PUBLIC 'CODE'
_TEXT	ENDS
;	COMDAT ??0?$pair@Viterator@?$_Tree@V?$_Tmap_traits@KPAVCTSelfObj@@U?$less@K@std@@V?$allocator@U?$pair@$$CBKPAVCTSelfObj@@@std@@@3@$0A@@std@@@std@@_N@std@@QAE@ABViterator@?$_Tree@V?$_Tmap_traits@KPAVCTSelfObj@@U?$less@K@std@@V?$allocator@U?$pair@$$CBKPAVCTSelfObj@@@std@@@3@$0A@@std@@@1@AB_N@Z
_TEXT	SEGMENT PARA USE32 PUBLIC 'CODE'
_TEXT	ENDS
;	COMDAT ??0?$pair@Viterator@?$_Tree@V?$_Tmap_traits@KPAVCTMonster@@U?$less@K@std@@V?$allocator@U?$pair@$$CBKPAVCTMonster@@@std@@@3@$0A@@std@@@std@@_N@std@@QAE@ABViterator@?$_Tree@V?$_Tmap_traits@KPAVCTMonster@@U?$less@K@std@@V?$allocator@U?$pair@$$CBKPAVCTMonster@@@std@@@3@$0A@@std@@@1@AB_N@Z
_TEXT	SEGMENT PARA USE32 PUBLIC 'CODE'
_TEXT	ENDS
;	COMDAT ??0const_iterator@?$_Tree@V?$_Tmap_traits@GPAUtagGODTOWER@@U?$less@G@std@@V?$allocator@U?$pair@$$CBGPAUtagGODTOWER@@@std@@@3@$0A@@std@@@std@@QAE@XZ
_TEXT	SEGMENT PARA USE32 PUBLIC 'CODE'
_TEXT	ENDS
;	COMDAT ??0const_iterator@?$_Tree@V?$_Tmap_traits@GPAUtagGODBALL@@U?$less@G@std@@V?$allocator@U?$pair@$$CBGPAUtagGODBALL@@@std@@@3@$0A@@std@@@std@@QAE@XZ
_TEXT	SEGMENT PARA USE32 PUBLIC 'CODE'
_TEXT	ENDS
;	COMDAT ?_Myval@?$_Tree@V?$_Tmap_traits@KPAVCTPlayer@@U?$less@K@std@@V?$allocator@U?$pair@$$CBKPAVCTPlayer@@@std@@@3@$0A@@std@@@std@@KAAAU?$pair@$$CBKPAVCTPlayer@@@2@PAU_Node@?$_Tree_nod@V?$_Tmap_traits@KPAVCTPlayer@@U?$less@K@std@@V?$allocator@U?$pair@$$CBKPAVCTPlayer@@@std@@@3@$0A@@std@@@2@@Z
_TEXT	SEGMENT PARA USE32 PUBLIC 'CODE'
_TEXT	ENDS
;	COMDAT ?max_size@?$_Tree@V?$_Tmap_traits@KPAVCTPlayer@@U?$less@K@std@@V?$allocator@U?$pair@$$CBKPAVCTPlayer@@@std@@@3@$0A@@std@@@std@@QBEIXZ
_TEXT	SEGMENT PARA USE32 PUBLIC 'CODE'
_TEXT	ENDS
;	COMDAT ?erase@?$_Tree@V?$_Tmap_traits@KPAVCTPlayer@@U?$less@K@std@@V?$allocator@U?$pair@$$CBKPAVCTPlayer@@@std@@@3@$0A@@std@@@std@@QAE?AViterator@12@V312@0@Z
_TEXT	SEGMENT PARA USE32 PUBLIC 'CODE'
_TEXT	ENDS
;	COMDAT ?_Init@?$_Tree@V?$_Tmap_traits@KPAVCTPlayer@@U?$less@K@std@@V?$allocator@U?$pair@$$CBKPAVCTPlayer@@@std@@@3@$0A@@std@@@std@@IAEXXZ
_TEXT	SEGMENT PARA USE32 PUBLIC 'CODE'
_TEXT	ENDS
;	COMDAT ?_Lbound@?$_Tree@V?$_Tmap_traits@KPAVCTPlayer@@U?$less@K@std@@V?$allocator@U?$pair@$$CBKPAVCTPlayer@@@std@@@3@$0A@@std@@@std@@IBEPAU_Node@?$_Tree_nod@V?$_Tmap_traits@KPAVCTPlayer@@U?$less@K@std@@V?$allocator@U?$pair@$$CBKPAVCTPlayer@@@std@@@3@$0A@@std@@@2@ABK@Z
_TEXT	SEGMENT PARA USE32 PUBLIC 'CODE'
_TEXT	ENDS
;	COMDAT ?_Buynode@?$_Tree@V?$_Tmap_traits@KPAVCTPlayer@@U?$less@K@std@@V?$allocator@U?$pair@$$CBKPAVCTPlayer@@@std@@@3@$0A@@std@@@std@@IAEPAU_Node@?$_Tree_nod@V?$_Tmap_traits@KPAVCTPlayer@@U?$less@K@std@@V?$allocator@U?$pair@$$CBKPAVCTPlayer@@@std@@@3@$0A@@std@@@2@PAU342@00ABU?$pair@$$CBKPAVCTPlayer@@@2@D@Z
_TEXT	SEGMENT PARA USE32 PUBLIC 'CODE'
_TEXT	ENDS
;	COMDAT ??0?$_Tree_val@V?$_Tmap_traits@KPAVCTPlayer@@U?$less@K@std@@V?$allocator@U?$pair@$$CBKPAVCTPlayer@@@std@@@3@$0A@@std@@@std@@IAE@ABU?$less@K@1@V?$allocator@U?$pair@$$CBKPAVCTPlayer@@@std@@@1@@Z
_TEXT	SEGMENT PARA USE32 PUBLIC 'CODE'
_TEXT	ENDS
;	COMDAT ??0?$allocator@U?$pair@$$CBKPAVCTPlayer@@@std@@@std@@QAE@ABV01@@Z
_TEXT	SEGMENT PARA USE32 PUBLIC 'CODE'
_TEXT	ENDS
;	COMDAT ?destroy@?$allocator@PAU_Node@?$_Tree_nod@V?$_Tmap_traits@KPAVCTPlayer@@U?$less@K@std@@V?$allocator@U?$pair@$$CBKPAVCTPlayer@@@std@@@3@$0A@@std@@@std@@@std@@QAEXPAPAU_Node@?$_Tree_nod@V?$_Tmap_traits@KPAVCTPlayer@@U?$less@K@std@@V?$allocator@U?$pair@$$CBKPAVCTPlayer@@@std@@@3@$0A@@std@@@2@@Z
_TEXT	SEGMENT PARA USE32 PUBLIC 'CODE'
_TEXT	ENDS
;	COMDAT ?_Myval@?$_Tree@V?$_Tmap_traits@KPAVCTRecallMon@@U?$less@K@std@@V?$allocator@U?$pair@$$CBKPAVCTRecallMon@@@std@@@3@$0A@@std@@@std@@KAAAU?$pair@$$CBKPAVCTRecallMon@@@2@PAU_Node@?$_Tree_nod@V?$_Tmap_traits@KPAVCTRecallMon@@U?$less@K@std@@V?$allocator@U?$pair@$$CBKPAVCTRecallMon@@@std@@@3@$0A@@std@@@2@@Z
_TEXT	SEGMENT PARA USE32 PUBLIC 'CODE'
_TEXT	ENDS
;	COMDAT ?max_size@?$_Tree@V?$_Tmap_traits@KPAVCTRecallMon@@U?$less@K@std@@V?$allocator@U?$pair@$$CBKPAVCTRecallMon@@@std@@@3@$0A@@std@@@std@@QBEIXZ
_TEXT	SEGMENT PARA USE32 PUBLIC 'CODE'
_TEXT	ENDS
;	COMDAT ?erase@?$_Tree@V?$_Tmap_traits@KPAVCTRecallMon@@U?$less@K@std@@V?$allocator@U?$pair@$$CBKPAVCTRecallMon@@@std@@@3@$0A@@std@@@std@@QAE?AViterator@12@V312@0@Z
_TEXT	SEGMENT PARA USE32 PUBLIC 'CODE'
_TEXT	ENDS
;	COMDAT ?_Init@?$_Tree@V?$_Tmap_traits@KPAVCTRecallMon@@U?$less@K@std@@V?$allocator@U?$pair@$$CBKPAVCTRecallMon@@@std@@@3@$0A@@std@@@std@@IAEXXZ
_TEXT	SEGMENT PARA USE32 PUBLIC 'CODE'
_TEXT	ENDS
;	COMDAT ?_Lbound@?$_Tree@V?$_Tmap_traits@KPAVCTRecallMon@@U?$less@K@std@@V?$allocator@U?$pair@$$CBKPAVCTRecallMon@@@std@@@3@$0A@@std@@@std@@IBEPAU_Node@?$_Tree_nod@V?$_Tmap_traits@KPAVCTRecallMon@@U?$less@K@std@@V?$allocator@U?$pair@$$CBKPAVCTRecallMon@@@std@@@3@$0A@@std@@@2@ABK@Z
_TEXT	SEGMENT PARA USE32 PUBLIC 'CODE'
_TEXT	ENDS
;	COMDAT ?_Buynode@?$_Tree@V?$_Tmap_traits@KPAVCTRecallMon@@U?$less@K@std@@V?$allocator@U?$pair@$$CBKPAVCTRecallMon@@@std@@@3@$0A@@std@@@std@@IAEPAU_Node@?$_Tree_nod@V?$_Tmap_traits@KPAVCTRecallMon@@U?$less@K@std@@V?$allocator@U?$pair@$$CBKPAVCTRecallMon@@@std@@@3@$0A@@std@@@2@PAU342@00ABU?$pair@$$CBKPAVCTRecallMon@@@2@D@Z
_TEXT	SEGMENT PARA USE32 PUBLIC 'CODE'
_TEXT	ENDS
;	COMDAT ??0?$_Tree_val@V?$_Tmap_traits@KPAVCTRecallMon@@U?$less@K@std@@V?$allocator@U?$pair@$$CBKPAVCTRecallMon@@@std@@@3@$0A@@std@@@std@@IAE@ABU?$less@K@1@V?$allocator@U?$pair@$$CBKPAVCTRecallMon@@@std@@@1@@Z
_TEXT	SEGMENT PARA USE32 PUBLIC 'CODE'
_TEXT	ENDS
;	COMDAT ??0?$allocator@U?$pair@$$CBKPAVCTRecallMon@@@std@@@std@@QAE@ABV01@@Z
_TEXT	SEGMENT PARA USE32 PUBLIC 'CODE'
_TEXT	ENDS
;	COMDAT ?destroy@?$allocator@PAU_Node@?$_Tree_nod@V?$_Tmap_traits@KPAVCTRecallMon@@U?$less@K@std@@V?$allocator@U?$pair@$$CBKPAVCTRecallMon@@@std@@@3@$0A@@std@@@std@@@std@@QAEXPAPAU_Node@?$_Tree_nod@V?$_Tmap_traits@KPAVCTRecallMon@@U?$less@K@std@@V?$allocator@U?$pair@$$CBKPAVCTRecallMon@@@std@@@3@$0A@@std@@@2@@Z
_TEXT	SEGMENT PARA USE32 PUBLIC 'CODE'
_TEXT	ENDS
;	COMDAT ?_Myval@?$_Tree@V?$_Tmap_traits@KPAVCTSelfObj@@U?$less@K@std@@V?$allocator@U?$pair@$$CBKPAVCTSelfObj@@@std@@@3@$0A@@std@@@std@@KAAAU?$pair@$$CBKPAVCTSelfObj@@@2@PAU_Node@?$_Tree_nod@V?$_Tmap_traits@KPAVCTSelfObj@@U?$less@K@std@@V?$allocator@U?$pair@$$CBKPAVCTSelfObj@@@std@@@3@$0A@@std@@@2@@Z
_TEXT	SEGMENT PARA USE32 PUBLIC 'CODE'
_TEXT	ENDS
;	COMDAT ?max_size@?$_Tree@V?$_Tmap_traits@KPAVCTSelfObj@@U?$less@K@std@@V?$allocator@U?$pair@$$CBKPAVCTSelfObj@@@std@@@3@$0A@@std@@@std@@QBEIXZ
_TEXT	SEGMENT PARA USE32 PUBLIC 'CODE'
_TEXT	ENDS
;	COMDAT ?erase@?$_Tree@V?$_Tmap_traits@KPAVCTSelfObj@@U?$less@K@std@@V?$allocator@U?$pair@$$CBKPAVCTSelfObj@@@std@@@3@$0A@@std@@@std@@QAE?AViterator@12@V312@0@Z
_TEXT	SEGMENT PARA USE32 PUBLIC 'CODE'
_TEXT	ENDS
;	COMDAT ?_Init@?$_Tree@V?$_Tmap_traits@KPAVCTSelfObj@@U?$less@K@std@@V?$allocator@U?$pair@$$CBKPAVCTSelfObj@@@std@@@3@$0A@@std@@@std@@IAEXXZ
_TEXT	SEGMENT PARA USE32 PUBLIC 'CODE'
_TEXT	ENDS
;	COMDAT ?_Lbound@?$_Tree@V?$_Tmap_traits@KPAVCTSelfObj@@U?$less@K@std@@V?$allocator@U?$pair@$$CBKPAVCTSelfObj@@@std@@@3@$0A@@std@@@std@@IBEPAU_Node@?$_Tree_nod@V?$_Tmap_traits@KPAVCTSelfObj@@U?$less@K@std@@V?$allocator@U?$pair@$$CBKPAVCTSelfObj@@@std@@@3@$0A@@std@@@2@ABK@Z
_TEXT	SEGMENT PARA USE32 PUBLIC 'CODE'
_TEXT	ENDS
;	COMDAT ?_Buynode@?$_Tree@V?$_Tmap_traits@KPAVCTSelfObj@@U?$less@K@std@@V?$allocator@U?$pair@$$CBKPAVCTSelfObj@@@std@@@3@$0A@@std@@@std@@IAEPAU_Node@?$_Tree_nod@V?$_Tmap_traits@KPAVCTSelfObj@@U?$less@K@std@@V?$allocator@U?$pair@$$CBKPAVCTSelfObj@@@std@@@3@$0A@@std@@@2@PAU342@00ABU?$pair@$$CBKPAVCTSelfObj@@@2@D@Z
_TEXT	SEGMENT PARA USE32 PUBLIC 'CODE'
_TEXT	ENDS
;	COMDAT ??0?$_Tree_val@V?$_Tmap_traits@KPAVCTSelfObj@@U?$less@K@std@@V?$allocator@U?$pair@$$CBKPAVCTSelfObj@@@std@@@3@$0A@@std@@@std@@IAE@ABU?$less@K@1@V?$allocator@U?$pair@$$CBKPAVCTSelfObj@@@std@@@1@@Z
_TEXT	SEGMENT PARA USE32 PUBLIC 'CODE'
_TEXT	ENDS
;	COMDAT ??0?$allocator@U?$pair@$$CBKPAVCTSelfObj@@@std@@@std@@QAE@ABV01@@Z
_TEXT	SEGMENT PARA USE32 PUBLIC 'CODE'
_TEXT	ENDS
;	COMDAT ?destroy@?$allocator@PAU_Node@?$_Tree_nod@V?$_Tmap_traits@KPAVCTSelfObj@@U?$less@K@std@@V?$allocator@U?$pair@$$CBKPAVCTSelfObj@@@std@@@3@$0A@@std@@@std@@@std@@QAEXPAPAU_Node@?$_Tree_nod@V?$_Tmap_traits@KPAVCTSelfObj@@U?$less@K@std@@V?$allocator@U?$pair@$$CBKPAVCTSelfObj@@@std@@@3@$0A@@std@@@2@@Z
_TEXT	SEGMENT PARA USE32 PUBLIC 'CODE'
_TEXT	ENDS
;	COMDAT ?_Myval@?$_Tree@V?$_Tmap_traits@KPAVCTMonster@@U?$less@K@std@@V?$allocator@U?$pair@$$CBKPAVCTMonster@@@std@@@3@$0A@@std@@@std@@KAAAU?$pair@$$CBKPAVCTMonster@@@2@PAU_Node@?$_Tree_nod@V?$_Tmap_traits@KPAVCTMonster@@U?$less@K@std@@V?$allocator@U?$pair@$$CBKPAVCTMonster@@@std@@@3@$0A@@std@@@2@@Z
_TEXT	SEGMENT PARA USE32 PUBLIC 'CODE'
_TEXT	ENDS
;	COMDAT ?max_size@?$_Tree@V?$_Tmap_traits@KPAVCTMonster@@U?$less@K@std@@V?$allocator@U?$pair@$$CBKPAVCTMonster@@@std@@@3@$0A@@std@@@std@@QBEIXZ
_TEXT	SEGMENT PARA USE32 PUBLIC 'CODE'
_TEXT	ENDS
;	COMDAT ?erase@?$_Tree@V?$_Tmap_traits@KPAVCTMonster@@U?$less@K@std@@V?$allocator@U?$pair@$$CBKPAVCTMonster@@@std@@@3@$0A@@std@@@std@@QAE?AViterator@12@V312@0@Z
_TEXT	SEGMENT PARA USE32 PUBLIC 'CODE'
_TEXT	ENDS
;	COMDAT ?_Init@?$_Tree@V?$_Tmap_traits@KPAVCTMonster@@U?$less@K@std@@V?$allocator@U?$pair@$$CBKPAVCTMonster@@@std@@@3@$0A@@std@@@std@@IAEXXZ
_TEXT	SEGMENT PARA USE32 PUBLIC 'CODE'
_TEXT	ENDS
;	COMDAT ?_Lbound@?$_Tree@V?$_Tmap_traits@KPAVCTMonster@@U?$less@K@std@@V?$allocator@U?$pair@$$CBKPAVCTMonster@@@std@@@3@$0A@@std@@@std@@IBEPAU_Node@?$_Tree_nod@V?$_Tmap_traits@KPAVCTMonster@@U?$less@K@std@@V?$allocator@U?$pair@$$CBKPAVCTMonster@@@std@@@3@$0A@@std@@@2@ABK@Z
_TEXT	SEGMENT PARA USE32 PUBLIC 'CODE'
_TEXT	ENDS
;	COMDAT ?_Buynode@?$_Tree@V?$_Tmap_traits@KPAVCTMonster@@U?$less@K@std@@V?$allocator@U?$pair@$$CBKPAVCTMonster@@@std@@@3@$0A@@std@@@std@@IAEPAU_Node@?$_Tree_nod@V?$_Tmap_traits@KPAVCTMonster@@U?$less@K@std@@V?$allocator@U?$pair@$$CBKPAVCTMonster@@@std@@@3@$0A@@std@@@2@PAU342@00ABU?$pair@$$CBKPAVCTMonster@@@2@D@Z
_TEXT	SEGMENT PARA USE32 PUBLIC 'CODE'
_TEXT	ENDS
;	COMDAT ??0?$_Tree_val@V?$_Tmap_traits@KPAVCTMonster@@U?$less@K@std@@V?$allocator@U?$pair@$$CBKPAVCTMonster@@@std@@@3@$0A@@std@@@std@@IAE@ABU?$less@K@1@V?$allocator@U?$pair@$$CBKPAVCTMonster@@@std@@@1@@Z
_TEXT	SEGMENT PARA USE32 PUBLIC 'CODE'
_TEXT	ENDS
;	COMDAT ??0?$allocator@U?$pair@$$CBKPAVCTMonster@@@std@@@std@@QAE@ABV01@@Z
_TEXT	SEGMENT PARA USE32 PUBLIC 'CODE'
_TEXT	ENDS
;	COMDAT ?destroy@?$allocator@PAU_Node@?$_Tree_nod@V?$_Tmap_traits@KPAVCTMonster@@U?$less@K@std@@V?$allocator@U?$pair@$$CBKPAVCTMonster@@@std@@@3@$0A@@std@@@std@@@std@@QAEXPAPAU_Node@?$_Tree_nod@V?$_Tmap_traits@KPAVCTMonster@@U?$less@K@std@@V?$allocator@U?$pair@$$CBKPAVCTMonster@@@std@@@3@$0A@@std@@@2@@Z
_TEXT	SEGMENT PARA USE32 PUBLIC 'CODE'
_TEXT	ENDS
;	COMDAT ?_Color@?$_Tree@V?$_Tmap_traits@KPAUtagSWITCH@@U?$less@K@std@@V?$allocator@U?$pair@$$CBKPAUtagSWITCH@@@std@@@3@$0A@@std@@@std@@KAAADPAU_Node@?$_Tree_nod@V?$_Tmap_traits@KPAUtagSWITCH@@U?$less@K@std@@V?$allocator@U?$pair@$$CBKPAUtagSWITCH@@@std@@@3@$0A@@std@@@2@@Z
_TEXT	SEGMENT PARA USE32 PUBLIC 'CODE'
_TEXT	ENDS
;	COMDAT ?_Parent@?$_Tree@V?$_Tmap_traits@KPAUtagSWITCH@@U?$less@K@std@@V?$allocator@U?$pair@$$CBKPAUtagSWITCH@@@std@@@3@$0A@@std@@@std@@KAAAPAU_Node@?$_Tree_nod@V?$_Tmap_traits@KPAUtagSWITCH@@U?$less@K@std@@V?$allocator@U?$pair@$$CBKPAUtagSWITCH@@@std@@@3@$0A@@std@@@2@PAU342@@Z
_TEXT	SEGMENT PARA USE32 PUBLIC 'CODE'
_TEXT	ENDS
;	COMDAT ?_Myval@?$_Tree@V?$_Tmap_traits@KPAUtagSWITCH@@U?$less@K@std@@V?$allocator@U?$pair@$$CBKPAUtagSWITCH@@@std@@@3@$0A@@std@@@std@@KAAAU?$pair@$$CBKPAUtagSWITCH@@@2@PAU_Node@?$_Tree_nod@V?$_Tmap_traits@KPAUtagSWITCH@@U?$less@K@std@@V?$allocator@U?$pair@$$CBKPAUtagSWITCH@@@std@@@3@$0A@@std@@@2@@Z
_TEXT	SEGMENT PARA USE32 PUBLIC 'CODE'
_TEXT	ENDS
;	COMDAT ?max_size@?$_Tree@V?$_Tmap_traits@KPAUtagSWITCH@@U?$less@K@std@@V?$allocator@U?$pair@$$CBKPAUtagSWITCH@@@std@@@3@$0A@@std@@@std@@QBEIXZ
_TEXT	SEGMENT PARA USE32 PUBLIC 'CODE'
_TEXT	ENDS
;	COMDAT ?erase@?$_Tree@V?$_Tmap_traits@KPAUtagSWITCH@@U?$less@K@std@@V?$allocator@U?$pair@$$CBKPAUtagSWITCH@@@std@@@3@$0A@@std@@@std@@QAE?AViterator@12@V312@0@Z
_TEXT	SEGMENT PARA USE32 PUBLIC 'CODE'
_TEXT	ENDS
;	COMDAT ?_Init@?$_Tree@V?$_Tmap_traits@KPAUtagSWITCH@@U?$less@K@std@@V?$allocator@U?$pair@$$CBKPAUtagSWITCH@@@std@@@3@$0A@@std@@@std@@IAEXXZ
_TEXT	SEGMENT PARA USE32 PUBLIC 'CODE'
_TEXT	ENDS
;	COMDAT ?_Lbound@?$_Tree@V?$_Tmap_traits@KPAUtagSWITCH@@U?$less@K@std@@V?$allocator@U?$pair@$$CBKPAUtagSWITCH@@@std@@@3@$0A@@std@@@std@@IBEPAU_Node@?$_Tree_nod@V?$_Tmap_traits@KPAUtagSWITCH@@U?$less@K@std@@V?$allocator@U?$pair@$$CBKPAUtagSWITCH@@@std@@@3@$0A@@std@@@2@ABK@Z
_TEXT	SEGMENT PARA USE32 PUBLIC 'CODE'
_TEXT	ENDS
;	COMDAT ?_Lrotate@?$_Tree@V?$_Tmap_traits@KPAUtagSWITCH@@U?$less@K@std@@V?$allocator@U?$pair@$$CBKPAUtagSWITCH@@@std@@@3@$0A@@std@@@std@@IAEXPAU_Node@?$_Tree_nod@V?$_Tmap_traits@KPAUtagSWITCH@@U?$less@K@std@@V?$allocator@U?$pair@$$CBKPAUtagSWITCH@@@std@@@3@$0A@@std@@@2@@Z
_TEXT	SEGMENT PARA USE32 PUBLIC 'CODE'
_TEXT	ENDS
;	COMDAT ?_Rrotate@?$_Tree@V?$_Tmap_traits@KPAUtagSWITCH@@U?$less@K@std@@V?$allocator@U?$pair@$$CBKPAUtagSWITCH@@@std@@@3@$0A@@std@@@std@@IAEXPAU_Node@?$_Tree_nod@V?$_Tmap_traits@KPAUtagSWITCH@@U?$less@K@std@@V?$allocator@U?$pair@$$CBKPAUtagSWITCH@@@std@@@3@$0A@@std@@@2@@Z
_TEXT	SEGMENT PARA USE32 PUBLIC 'CODE'
_TEXT	ENDS
;	COMDAT ?_Buynode@?$_Tree@V?$_Tmap_traits@KPAUtagSWITCH@@U?$less@K@std@@V?$allocator@U?$pair@$$CBKPAUtagSWITCH@@@std@@@3@$0A@@std@@@std@@IAEPAU_Node@?$_Tree_nod@V?$_Tmap_traits@KPAUtagSWITCH@@U?$less@K@std@@V?$allocator@U?$pair@$$CBKPAUtagSWITCH@@@std@@@3@$0A@@std@@@2@PAU342@00ABU?$pair@$$CBKPAUtagSWITCH@@@2@D@Z
_TEXT	SEGMENT PARA USE32 PUBLIC 'CODE'
_TEXT	ENDS
;	COMDAT ??0?$_Tree_val@V?$_Tmap_traits@KPAUtagSWITCH@@U?$less@K@std@@V?$allocator@U?$pair@$$CBKPAUtagSWITCH@@@std@@@3@$0A@@std@@@std@@IAE@ABU?$less@K@1@V?$allocator@U?$pair@$$CBKPAUtagSWITCH@@@std@@@1@@Z
_TEXT	SEGMENT PARA USE32 PUBLIC 'CODE'
_TEXT	ENDS
;	COMDAT ??0?$allocator@U?$pair@$$CBKPAUtagSWITCH@@@std@@@std@@QAE@ABV01@@Z
_TEXT	SEGMENT PARA USE32 PUBLIC 'CODE'
_TEXT	ENDS
;	COMDAT ?deallocate@?$allocator@U_Node@?$_Tree_nod@V?$_Tmap_traits@KPAUtagSWITCH@@U?$less@K@std@@V?$allocator@U?$pair@$$CBKPAUtagSWITCH@@@std@@@3@$0A@@std@@@std@@@std@@QAEXPAU_Node@?$_Tree_nod@V?$_Tmap_traits@KPAUtagSWITCH@@U?$less@K@std@@V?$allocator@U?$pair@$$CBKPAUtagSWITCH@@@std@@@3@$0A@@std@@@2@I@Z
_TEXT	SEGMENT PARA USE32 PUBLIC 'CODE'
_TEXT	ENDS
;	COMDAT ?destroy@?$allocator@U_Node@?$_Tree_nod@V?$_Tmap_traits@KPAUtagSWITCH@@U?$less@K@std@@V?$allocator@U?$pair@$$CBKPAUtagSWITCH@@@std@@@3@$0A@@std@@@std@@@std@@QAEXPAU_Node@?$_Tree_nod@V?$_Tmap_traits@KPAUtagSWITCH@@U?$less@K@std@@V?$allocator@U?$pair@$$CBKPAUtagSWITCH@@@std@@@3@$0A@@std@@@2@@Z
_TEXT	SEGMENT PARA USE32 PUBLIC 'CODE'
_TEXT	ENDS
;	COMDAT ?destroy@?$allocator@PAU_Node@?$_Tree_nod@V?$_Tmap_traits@KPAUtagSWITCH@@U?$less@K@std@@V?$allocator@U?$pair@$$CBKPAUtagSWITCH@@@std@@@3@$0A@@std@@@std@@@std@@QAEXPAPAU_Node@?$_Tree_nod@V?$_Tmap_traits@KPAUtagSWITCH@@U?$less@K@std@@V?$allocator@U?$pair@$$CBKPAUtagSWITCH@@@std@@@3@$0A@@std@@@2@@Z
_TEXT	SEGMENT PARA USE32 PUBLIC 'CODE'
_TEXT	ENDS
;	COMDAT ?_Color@?$_Tree@V?$_Tmap_traits@KPAUtagGATE@@U?$less@K@std@@V?$allocator@U?$pair@$$CBKPAUtagGATE@@@std@@@3@$0A@@std@@@std@@KAAADPAU_Node@?$_Tree_nod@V?$_Tmap_traits@KPAUtagGATE@@U?$less@K@std@@V?$allocator@U?$pair@$$CBKPAUtagGATE@@@std@@@3@$0A@@std@@@2@@Z
_TEXT	SEGMENT PARA USE32 PUBLIC 'CODE'
_TEXT	ENDS
;	COMDAT ?_Parent@?$_Tree@V?$_Tmap_traits@KPAUtagGATE@@U?$less@K@std@@V?$allocator@U?$pair@$$CBKPAUtagGATE@@@std@@@3@$0A@@std@@@std@@KAAAPAU_Node@?$_Tree_nod@V?$_Tmap_traits@KPAUtagGATE@@U?$less@K@std@@V?$allocator@U?$pair@$$CBKPAUtagGATE@@@std@@@3@$0A@@std@@@2@PAU342@@Z
_TEXT	SEGMENT PARA USE32 PUBLIC 'CODE'
_TEXT	ENDS
;	COMDAT ?_Myval@?$_Tree@V?$_Tmap_traits@KPAUtagGATE@@U?$less@K@std@@V?$allocator@U?$pair@$$CBKPAUtagGATE@@@std@@@3@$0A@@std@@@std@@KAAAU?$pair@$$CBKPAUtagGATE@@@2@PAU_Node@?$_Tree_nod@V?$_Tmap_traits@KPAUtagGATE@@U?$less@K@std@@V?$allocator@U?$pair@$$CBKPAUtagGATE@@@std@@@3@$0A@@std@@@2@@Z
_TEXT	SEGMENT PARA USE32 PUBLIC 'CODE'
_TEXT	ENDS
;	COMDAT ?max_size@?$_Tree@V?$_Tmap_traits@KPAUtagGATE@@U?$less@K@std@@V?$allocator@U?$pair@$$CBKPAUtagGATE@@@std@@@3@$0A@@std@@@std@@QBEIXZ
_TEXT	SEGMENT PARA USE32 PUBLIC 'CODE'
_TEXT	ENDS
;	COMDAT ?erase@?$_Tree@V?$_Tmap_traits@KPAUtagGATE@@U?$less@K@std@@V?$allocator@U?$pair@$$CBKPAUtagGATE@@@std@@@3@$0A@@std@@@std@@QAE?AViterator@12@V312@0@Z
_TEXT	SEGMENT PARA USE32 PUBLIC 'CODE'
_TEXT	ENDS
;	COMDAT ?_Init@?$_Tree@V?$_Tmap_traits@KPAUtagGATE@@U?$less@K@std@@V?$allocator@U?$pair@$$CBKPAUtagGATE@@@std@@@3@$0A@@std@@@std@@IAEXXZ
_TEXT	SEGMENT PARA USE32 PUBLIC 'CODE'
_TEXT	ENDS
;	COMDAT ?_Lbound@?$_Tree@V?$_Tmap_traits@KPAUtagGATE@@U?$less@K@std@@V?$allocator@U?$pair@$$CBKPAUtagGATE@@@std@@@3@$0A@@std@@@std@@IBEPAU_Node@?$_Tree_nod@V?$_Tmap_traits@KPAUtagGATE@@U?$less@K@std@@V?$allocator@U?$pair@$$CBKPAUtagGATE@@@std@@@3@$0A@@std@@@2@ABK@Z
_TEXT	SEGMENT PARA USE32 PUBLIC 'CODE'
_TEXT	ENDS
;	COMDAT ?_Lrotate@?$_Tree@V?$_Tmap_traits@KPAUtagGATE@@U?$less@K@std@@V?$allocator@U?$pair@$$CBKPAUtagGATE@@@std@@@3@$0A@@std@@@std@@IAEXPAU_Node@?$_Tree_nod@V?$_Tmap_traits@KPAUtagGATE@@U?$less@K@std@@V?$allocator@U?$pair@$$CBKPAUtagGATE@@@std@@@3@$0A@@std@@@2@@Z
_TEXT	SEGMENT PARA USE32 PUBLIC 'CODE'
_TEXT	ENDS
;	COMDAT ?_Rrotate@?$_Tree@V?$_Tmap_traits@KPAUtagGATE@@U?$less@K@std@@V?$allocator@U?$pair@$$CBKPAUtagGATE@@@std@@@3@$0A@@std@@@std@@IAEXPAU_Node@?$_Tree_nod@V?$_Tmap_traits@KPAUtagGATE@@U?$less@K@std@@V?$allocator@U?$pair@$$CBKPAUtagGATE@@@std@@@3@$0A@@std@@@2@@Z
_TEXT	SEGMENT PARA USE32 PUBLIC 'CODE'
_TEXT	ENDS
;	COMDAT ?_Buynode@?$_Tree@V?$_Tmap_traits@KPAUtagGATE@@U?$less@K@std@@V?$allocator@U?$pair@$$CBKPAUtagGATE@@@std@@@3@$0A@@std@@@std@@IAEPAU_Node@?$_Tree_nod@V?$_Tmap_traits@KPAUtagGATE@@U?$less@K@std@@V?$allocator@U?$pair@$$CBKPAUtagGATE@@@std@@@3@$0A@@std@@@2@PAU342@00ABU?$pair@$$CBKPAUtagGATE@@@2@D@Z
_TEXT	SEGMENT PARA USE32 PUBLIC 'CODE'
_TEXT	ENDS
;	COMDAT ??0?$_Tree_val@V?$_Tmap_traits@KPAUtagGATE@@U?$less@K@std@@V?$allocator@U?$pair@$$CBKPAUtagGATE@@@std@@@3@$0A@@std@@@std@@IAE@ABU?$less@K@1@V?$allocator@U?$pair@$$CBKPAUtagGATE@@@std@@@1@@Z
_TEXT	SEGMENT PARA USE32 PUBLIC 'CODE'
_TEXT	ENDS
;	COMDAT ??0?$allocator@U?$pair@$$CBKPAUtagGATE@@@std@@@std@@QAE@ABV01@@Z
_TEXT	SEGMENT PARA USE32 PUBLIC 'CODE'
_TEXT	ENDS
;	COMDAT ?deallocate@?$allocator@U_Node@?$_Tree_nod@V?$_Tmap_traits@KPAUtagGATE@@U?$less@K@std@@V?$allocator@U?$pair@$$CBKPAUtagGATE@@@std@@@3@$0A@@std@@@std@@@std@@QAEXPAU_Node@?$_Tree_nod@V?$_Tmap_traits@KPAUtagGATE@@U?$less@K@std@@V?$allocator@U?$pair@$$CBKPAUtagGATE@@@std@@@3@$0A@@std@@@2@I@Z
_TEXT	SEGMENT PARA USE32 PUBLIC 'CODE'
_TEXT	ENDS
;	COMDAT ?destroy@?$allocator@U_Node@?$_Tree_nod@V?$_Tmap_traits@KPAUtagGATE@@U?$less@K@std@@V?$allocator@U?$pair@$$CBKPAUtagGATE@@@std@@@3@$0A@@std@@@std@@@std@@QAEXPAU_Node@?$_Tree_nod@V?$_Tmap_traits@KPAUtagGATE@@U?$less@K@std@@V?$allocator@U?$pair@$$CBKPAUtagGATE@@@std@@@3@$0A@@std@@@2@@Z
_TEXT	SEGMENT PARA USE32 PUBLIC 'CODE'
_TEXT	ENDS
;	COMDAT ?destroy@?$allocator@PAU_Node@?$_Tree_nod@V?$_Tmap_traits@KPAUtagGATE@@U?$less@K@std@@V?$allocator@U?$pair@$$CBKPAUtagGATE@@@std@@@3@$0A@@std@@@std@@@std@@QAEXPAPAU_Node@?$_Tree_nod@V?$_Tmap_traits@KPAUtagGATE@@U?$less@K@std@@V?$allocator@U?$pair@$$CBKPAUtagGATE@@@std@@@3@$0A@@std@@@2@@Z
_TEXT	SEGMENT PARA USE32 PUBLIC 'CODE'
_TEXT	ENDS
;	COMDAT ??0const_iterator@?$_Tree@V?$_Tmap_traits@KPAVCTRecallMon@@U?$less@K@std@@V?$allocator@U?$pair@$$CBKPAVCTRecallMon@@@std@@@3@$0A@@std@@@std@@QAE@PAU_Node@?$_Tree_nod@V?$_Tmap_traits@KPAVCTRecallMon@@U?$less@K@std@@V?$allocator@U?$pair@$$CBKPAVCTRecallMon@@@std@@@3@$0A@@std@@@2@@Z
_TEXT	SEGMENT PARA USE32 PUBLIC 'CODE'
_TEXT	ENDS
;	COMDAT ??Econst_iterator@?$_Tree@V?$_Tmap_traits@KPAVCTRecallMon@@U?$less@K@std@@V?$allocator@U?$pair@$$CBKPAVCTRecallMon@@@std@@@3@$0A@@std@@@std@@QAEAAV012@XZ
_TEXT	SEGMENT PARA USE32 PUBLIC 'CODE'
_TEXT	ENDS
;	COMDAT ??Fconst_iterator@?$_Tree@V?$_Tmap_traits@KPAVCTRecallMon@@U?$less@K@std@@V?$allocator@U?$pair@$$CBKPAVCTRecallMon@@@std@@@3@$0A@@std@@@std@@QAEAAV012@XZ
_TEXT	SEGMENT PARA USE32 PUBLIC 'CODE'
_TEXT	ENDS
;	COMDAT ??0const_iterator@?$_Tree@V?$_Tmap_traits@KPAVCTSelfObj@@U?$less@K@std@@V?$allocator@U?$pair@$$CBKPAVCTSelfObj@@@std@@@3@$0A@@std@@@std@@QAE@PAU_Node@?$_Tree_nod@V?$_Tmap_traits@KPAVCTSelfObj@@U?$less@K@std@@V?$allocator@U?$pair@$$CBKPAVCTSelfObj@@@std@@@3@$0A@@std@@@2@@Z
_TEXT	SEGMENT PARA USE32 PUBLIC 'CODE'
_TEXT	ENDS
;	COMDAT ??Econst_iterator@?$_Tree@V?$_Tmap_traits@KPAVCTSelfObj@@U?$less@K@std@@V?$allocator@U?$pair@$$CBKPAVCTSelfObj@@@std@@@3@$0A@@std@@@std@@QAEAAV012@XZ
_TEXT	SEGMENT PARA USE32 PUBLIC 'CODE'
_TEXT	ENDS
;	COMDAT ??Fconst_iterator@?$_Tree@V?$_Tmap_traits@KPAVCTSelfObj@@U?$less@K@std@@V?$allocator@U?$pair@$$CBKPAVCTSelfObj@@@std@@@3@$0A@@std@@@std@@QAEAAV012@XZ
_TEXT	SEGMENT PARA USE32 PUBLIC 'CODE'
_TEXT	ENDS
;	COMDAT ??0const_iterator@?$_Tree@V?$_Tmap_traits@KPAVCTMonster@@U?$less@K@std@@V?$allocator@U?$pair@$$CBKPAVCTMonster@@@std@@@3@$0A@@std@@@std@@QAE@PAU_Node@?$_Tree_nod@V?$_Tmap_traits@KPAVCTMonster@@U?$less@K@std@@V?$allocator@U?$pair@$$CBKPAVCTMonster@@@std@@@3@$0A@@std@@@2@@Z
_TEXT	SEGMENT PARA USE32 PUBLIC 'CODE'
_TEXT	ENDS
;	COMDAT ??Econst_iterator@?$_Tree@V?$_Tmap_traits@KPAVCTMonster@@U?$less@K@std@@V?$allocator@U?$pair@$$CBKPAVCTMonster@@@std@@@3@$0A@@std@@@std@@QAEAAV012@XZ
_TEXT	SEGMENT PARA USE32 PUBLIC 'CODE'
_TEXT	ENDS
;	COMDAT ??Fconst_iterator@?$_Tree@V?$_Tmap_traits@KPAVCTMonster@@U?$less@K@std@@V?$allocator@U?$pair@$$CBKPAVCTMonster@@@std@@@3@$0A@@std@@@std@@QAEAAV012@XZ
_TEXT	SEGMENT PARA USE32 PUBLIC 'CODE'
_TEXT	ENDS
;	COMDAT ??0const_iterator@?$_Tree@V?$_Tmap_traits@KPAVCTPlayer@@U?$less@K@std@@V?$allocator@U?$pair@$$CBKPAVCTPlayer@@@std@@@3@$0A@@std@@@std@@QAE@PAU_Node@?$_Tree_nod@V?$_Tmap_traits@KPAVCTPlayer@@U?$less@K@std@@V?$allocator@U?$pair@$$CBKPAVCTPlayer@@@std@@@3@$0A@@std@@@2@@Z
_TEXT	SEGMENT PARA USE32 PUBLIC 'CODE'
_TEXT	ENDS
;	COMDAT ??Econst_iterator@?$_Tree@V?$_Tmap_traits@KPAVCTPlayer@@U?$less@K@std@@V?$allocator@U?$pair@$$CBKPAVCTPlayer@@@std@@@3@$0A@@std@@@std@@QAEAAV012@XZ
_TEXT	SEGMENT PARA USE32 PUBLIC 'CODE'
_TEXT	ENDS
;	COMDAT ??Fconst_iterator@?$_Tree@V?$_Tmap_traits@KPAVCTPlayer@@U?$less@K@std@@V?$allocator@U?$pair@$$CBKPAVCTPlayer@@@std@@@3@$0A@@std@@@std@@QAEAAV012@XZ
_TEXT	SEGMENT PARA USE32 PUBLIC 'CODE'
_TEXT	ENDS
;	COMDAT ??0const_iterator@?$_Tree@V?$_Tmap_traits@KPAUtagSWITCH@@U?$less@K@std@@V?$allocator@U?$pair@$$CBKPAUtagSWITCH@@@std@@@3@$0A@@std@@@std@@QAE@PAU_Node@?$_Tree_nod@V?$_Tmap_traits@KPAUtagSWITCH@@U?$less@K@std@@V?$allocator@U?$pair@$$CBKPAUtagSWITCH@@@std@@@3@$0A@@std@@@2@@Z
_TEXT	SEGMENT PARA USE32 PUBLIC 'CODE'
_TEXT	ENDS
;	COMDAT ??Econst_iterator@?$_Tree@V?$_Tmap_traits@KPAUtagSWITCH@@U?$less@K@std@@V?$allocator@U?$pair@$$CBKPAUtagSWITCH@@@std@@@3@$0A@@std@@@std@@QAEAAV012@XZ
_TEXT	SEGMENT PARA USE32 PUBLIC 'CODE'
_TEXT	ENDS
;	COMDAT ??Fconst_iterator@?$_Tree@V?$_Tmap_traits@KPAUtagSWITCH@@U?$less@K@std@@V?$allocator@U?$pair@$$CBKPAUtagSWITCH@@@std@@@3@$0A@@std@@@std@@QAEAAV012@XZ
_TEXT	SEGMENT PARA USE32 PUBLIC 'CODE'
_TEXT	ENDS
;	COMDAT ??0const_iterator@?$_Tree@V?$_Tmap_traits@KPAUtagGATE@@U?$less@K@std@@V?$allocator@U?$pair@$$CBKPAUtagGATE@@@std@@@3@$0A@@std@@@std@@QAE@PAU_Node@?$_Tree_nod@V?$_Tmap_traits@KPAUtagGATE@@U?$less@K@std@@V?$allocator@U?$pair@$$CBKPAUtagGATE@@@std@@@3@$0A@@std@@@2@@Z
_TEXT	SEGMENT PARA USE32 PUBLIC 'CODE'
_TEXT	ENDS
;	COMDAT ??Econst_iterator@?$_Tree@V?$_Tmap_traits@KPAUtagGATE@@U?$less@K@std@@V?$allocator@U?$pair@$$CBKPAUtagGATE@@@std@@@3@$0A@@std@@@std@@QAEAAV012@XZ
_TEXT	SEGMENT PARA USE32 PUBLIC 'CODE'
_TEXT	ENDS
;	COMDAT ??Fconst_iterator@?$_Tree@V?$_Tmap_traits@KPAUtagGATE@@U?$less@K@std@@V?$allocator@U?$pair@$$CBKPAUtagGATE@@@std@@@3@$0A@@std@@@std@@QAEAAV012@XZ
_TEXT	SEGMENT PARA USE32 PUBLIC 'CODE'
_TEXT	ENDS
;	COMDAT ?_Root@?$_Tree@V?$_Tmap_traits@KPAVCTPlayer@@U?$less@K@std@@V?$allocator@U?$pair@$$CBKPAVCTPlayer@@@std@@@3@$0A@@std@@@std@@IBEAAPAU_Node@?$_Tree_nod@V?$_Tmap_traits@KPAVCTPlayer@@U?$less@K@std@@V?$allocator@U?$pair@$$CBKPAVCTPlayer@@@std@@@3@$0A@@std@@@2@XZ
_TEXT	SEGMENT PARA USE32 PUBLIC 'CODE'
_TEXT	ENDS
;	COMDAT ?_Buynode@?$_Tree@V?$_Tmap_traits@KPAVCTPlayer@@U?$less@K@std@@V?$allocator@U?$pair@$$CBKPAVCTPlayer@@@std@@@3@$0A@@std@@@std@@IAEPAU_Node@?$_Tree_nod@V?$_Tmap_traits@KPAVCTPlayer@@U?$less@K@std@@V?$allocator@U?$pair@$$CBKPAVCTPlayer@@@std@@@3@$0A@@std@@@2@XZ
_TEXT	SEGMENT PARA USE32 PUBLIC 'CODE'
_TEXT	ENDS
;	COMDAT ??0?$_Tree_ptr@V?$_Tmap_traits@KPAVCTPlayer@@U?$less@K@std@@V?$allocator@U?$pair@$$CBKPAVCTPlayer@@@std@@@3@$0A@@std@@@std@@IAE@ABU?$less@K@1@V?$allocator@U?$pair@$$CBKPAVCTPlayer@@@std@@@1@@Z
_TEXT	SEGMENT PARA USE32 PUBLIC 'CODE'
_TEXT	ENDS
;	COMDAT ?max_size@?$allocator@U?$pair@$$CBKPAVCTPlayer@@@std@@@std@@QBEIXZ
_TEXT	SEGMENT PARA USE32 PUBLIC 'CODE'
_TEXT	ENDS
;	COMDAT ?allocate@?$allocator@U_Node@?$_Tree_nod@V?$_Tmap_traits@KPAVCTPlayer@@U?$less@K@std@@V?$allocator@U?$pair@$$CBKPAVCTPlayer@@@std@@@3@$0A@@std@@@std@@@std@@QAEPAU_Node@?$_Tree_nod@V?$_Tmap_traits@KPAVCTPlayer@@U?$less@K@std@@V?$allocator@U?$pair@$$CBKPAVCTPlayer@@@std@@@3@$0A@@std@@@2@I@Z
_TEXT	SEGMENT PARA USE32 PUBLIC 'CODE'
_TEXT	ENDS
;	COMDAT ?_Root@?$_Tree@V?$_Tmap_traits@KPAVCTRecallMon@@U?$less@K@std@@V?$allocator@U?$pair@$$CBKPAVCTRecallMon@@@std@@@3@$0A@@std@@@std@@IBEAAPAU_Node@?$_Tree_nod@V?$_Tmap_traits@KPAVCTRecallMon@@U?$less@K@std@@V?$allocator@U?$pair@$$CBKPAVCTRecallMon@@@std@@@3@$0A@@std@@@2@XZ
_TEXT	SEGMENT PARA USE32 PUBLIC 'CODE'
_TEXT	ENDS
;	COMDAT ?_Buynode@?$_Tree@V?$_Tmap_traits@KPAVCTRecallMon@@U?$less@K@std@@V?$allocator@U?$pair@$$CBKPAVCTRecallMon@@@std@@@3@$0A@@std@@@std@@IAEPAU_Node@?$_Tree_nod@V?$_Tmap_traits@KPAVCTRecallMon@@U?$less@K@std@@V?$allocator@U?$pair@$$CBKPAVCTRecallMon@@@std@@@3@$0A@@std@@@2@XZ
_TEXT	SEGMENT PARA USE32 PUBLIC 'CODE'
_TEXT	ENDS
;	COMDAT ??0?$_Tree_ptr@V?$_Tmap_traits@KPAVCTRecallMon@@U?$less@K@std@@V?$allocator@U?$pair@$$CBKPAVCTRecallMon@@@std@@@3@$0A@@std@@@std@@IAE@ABU?$less@K@1@V?$allocator@U?$pair@$$CBKPAVCTRecallMon@@@std@@@1@@Z
_TEXT	SEGMENT PARA USE32 PUBLIC 'CODE'
_TEXT	ENDS
;	COMDAT ?max_size@?$allocator@U?$pair@$$CBKPAVCTRecallMon@@@std@@@std@@QBEIXZ
_TEXT	SEGMENT PARA USE32 PUBLIC 'CODE'
_TEXT	ENDS
;	COMDAT ?allocate@?$allocator@U_Node@?$_Tree_nod@V?$_Tmap_traits@KPAVCTRecallMon@@U?$less@K@std@@V?$allocator@U?$pair@$$CBKPAVCTRecallMon@@@std@@@3@$0A@@std@@@std@@@std@@QAEPAU_Node@?$_Tree_nod@V?$_Tmap_traits@KPAVCTRecallMon@@U?$less@K@std@@V?$allocator@U?$pair@$$CBKPAVCTRecallMon@@@std@@@3@$0A@@std@@@2@I@Z
_TEXT	SEGMENT PARA USE32 PUBLIC 'CODE'
_TEXT	ENDS
;	COMDAT ?_Root@?$_Tree@V?$_Tmap_traits@KPAVCTSelfObj@@U?$less@K@std@@V?$allocator@U?$pair@$$CBKPAVCTSelfObj@@@std@@@3@$0A@@std@@@std@@IBEAAPAU_Node@?$_Tree_nod@V?$_Tmap_traits@KPAVCTSelfObj@@U?$less@K@std@@V?$allocator@U?$pair@$$CBKPAVCTSelfObj@@@std@@@3@$0A@@std@@@2@XZ
_TEXT	SEGMENT PARA USE32 PUBLIC 'CODE'
_TEXT	ENDS
;	COMDAT ?_Buynode@?$_Tree@V?$_Tmap_traits@KPAVCTSelfObj@@U?$less@K@std@@V?$allocator@U?$pair@$$CBKPAVCTSelfObj@@@std@@@3@$0A@@std@@@std@@IAEPAU_Node@?$_Tree_nod@V?$_Tmap_traits@KPAVCTSelfObj@@U?$less@K@std@@V?$allocator@U?$pair@$$CBKPAVCTSelfObj@@@std@@@3@$0A@@std@@@2@XZ
_TEXT	SEGMENT PARA USE32 PUBLIC 'CODE'
_TEXT	ENDS
;	COMDAT ??0?$_Tree_ptr@V?$_Tmap_traits@KPAVCTSelfObj@@U?$less@K@std@@V?$allocator@U?$pair@$$CBKPAVCTSelfObj@@@std@@@3@$0A@@std@@@std@@IAE@ABU?$less@K@1@V?$allocator@U?$pair@$$CBKPAVCTSelfObj@@@std@@@1@@Z
_TEXT	SEGMENT PARA USE32 PUBLIC 'CODE'
_TEXT	ENDS
;	COMDAT ?max_size@?$allocator@U?$pair@$$CBKPAVCTSelfObj@@@std@@@std@@QBEIXZ
_TEXT	SEGMENT PARA USE32 PUBLIC 'CODE'
_TEXT	ENDS
;	COMDAT ?allocate@?$allocator@U_Node@?$_Tree_nod@V?$_Tmap_traits@KPAVCTSelfObj@@U?$less@K@std@@V?$allocator@U?$pair@$$CBKPAVCTSelfObj@@@std@@@3@$0A@@std@@@std@@@std@@QAEPAU_Node@?$_Tree_nod@V?$_Tmap_traits@KPAVCTSelfObj@@U?$less@K@std@@V?$allocator@U?$pair@$$CBKPAVCTSelfObj@@@std@@@3@$0A@@std@@@2@I@Z
_TEXT	SEGMENT PARA USE32 PUBLIC 'CODE'
_TEXT	ENDS
;	COMDAT ?_Root@?$_Tree@V?$_Tmap_traits@KPAVCTMonster@@U?$less@K@std@@V?$allocator@U?$pair@$$CBKPAVCTMonster@@@std@@@3@$0A@@std@@@std@@IBEAAPAU_Node@?$_Tree_nod@V?$_Tmap_traits@KPAVCTMonster@@U?$less@K@std@@V?$allocator@U?$pair@$$CBKPAVCTMonster@@@std@@@3@$0A@@std@@@2@XZ
_TEXT	SEGMENT PARA USE32 PUBLIC 'CODE'
_TEXT	ENDS
;	COMDAT ?_Buynode@?$_Tree@V?$_Tmap_traits@KPAVCTMonster@@U?$less@K@std@@V?$allocator@U?$pair@$$CBKPAVCTMonster@@@std@@@3@$0A@@std@@@std@@IAEPAU_Node@?$_Tree_nod@V?$_Tmap_traits@KPAVCTMonster@@U?$less@K@std@@V?$allocator@U?$pair@$$CBKPAVCTMonster@@@std@@@3@$0A@@std@@@2@XZ
_TEXT	SEGMENT PARA USE32 PUBLIC 'CODE'
_TEXT	ENDS
;	COMDAT ??0?$_Tree_ptr@V?$_Tmap_traits@KPAVCTMonster@@U?$less@K@std@@V?$allocator@U?$pair@$$CBKPAVCTMonster@@@std@@@3@$0A@@std@@@std@@IAE@ABU?$less@K@1@V?$allocator@U?$pair@$$CBKPAVCTMonster@@@std@@@1@@Z
_TEXT	SEGMENT PARA USE32 PUBLIC 'CODE'
_TEXT	ENDS
;	COMDAT ?max_size@?$allocator@U?$pair@$$CBKPAVCTMonster@@@std@@@std@@QBEIXZ
_TEXT	SEGMENT PARA USE32 PUBLIC 'CODE'
_TEXT	ENDS
;	COMDAT ?allocate@?$allocator@U_Node@?$_Tree_nod@V?$_Tmap_traits@KPAVCTMonster@@U?$less@K@std@@V?$allocator@U?$pair@$$CBKPAVCTMonster@@@std@@@3@$0A@@std@@@std@@@std@@QAEPAU_Node@?$_Tree_nod@V?$_Tmap_traits@KPAVCTMonster@@U?$less@K@std@@V?$allocator@U?$pair@$$CBKPAVCTMonster@@@std@@@3@$0A@@std@@@2@I@Z
_TEXT	SEGMENT PARA USE32 PUBLIC 'CODE'
_TEXT	ENDS
;	COMDAT ?erase@?$_Tree@V?$_Tmap_traits@KPAUtagSWITCH@@U?$less@K@std@@V?$allocator@U?$pair@$$CBKPAUtagSWITCH@@@std@@@3@$0A@@std@@@std@@QAE?AViterator@12@V312@@Z
_TEXT	SEGMENT PARA USE32 PUBLIC 'CODE'
_TEXT	ENDS
;	COMDAT ?_Root@?$_Tree@V?$_Tmap_traits@KPAUtagSWITCH@@U?$less@K@std@@V?$allocator@U?$pair@$$CBKPAUtagSWITCH@@@std@@@3@$0A@@std@@@std@@IBEAAPAU_Node@?$_Tree_nod@V?$_Tmap_traits@KPAUtagSWITCH@@U?$less@K@std@@V?$allocator@U?$pair@$$CBKPAUtagSWITCH@@@std@@@3@$0A@@std@@@2@XZ
_TEXT	SEGMENT PARA USE32 PUBLIC 'CODE'
_TEXT	ENDS
;	COMDAT ?_Buynode@?$_Tree@V?$_Tmap_traits@KPAUtagSWITCH@@U?$less@K@std@@V?$allocator@U?$pair@$$CBKPAUtagSWITCH@@@std@@@3@$0A@@std@@@std@@IAEPAU_Node@?$_Tree_nod@V?$_Tmap_traits@KPAUtagSWITCH@@U?$less@K@std@@V?$allocator@U?$pair@$$CBKPAUtagSWITCH@@@std@@@3@$0A@@std@@@2@XZ
_TEXT	SEGMENT PARA USE32 PUBLIC 'CODE'
_TEXT	ENDS
;	COMDAT ??0?$_Tree_ptr@V?$_Tmap_traits@KPAUtagSWITCH@@U?$less@K@std@@V?$allocator@U?$pair@$$CBKPAUtagSWITCH@@@std@@@3@$0A@@std@@@std@@IAE@ABU?$less@K@1@V?$allocator@U?$pair@$$CBKPAUtagSWITCH@@@std@@@1@@Z
_TEXT	SEGMENT PARA USE32 PUBLIC 'CODE'
_TEXT	ENDS
;	COMDAT ?max_size@?$allocator@U?$pair@$$CBKPAUtagSWITCH@@@std@@@std@@QBEIXZ
_TEXT	SEGMENT PARA USE32 PUBLIC 'CODE'
_TEXT	ENDS
;	COMDAT ?allocate@?$allocator@U_Node@?$_Tree_nod@V?$_Tmap_traits@KPAUtagSWITCH@@U?$less@K@std@@V?$allocator@U?$pair@$$CBKPAUtagSWITCH@@@std@@@3@$0A@@std@@@std@@@std@@QAEPAU_Node@?$_Tree_nod@V?$_Tmap_traits@KPAUtagSWITCH@@U?$less@K@std@@V?$allocator@U?$pair@$$CBKPAUtagSWITCH@@@std@@@3@$0A@@std@@@2@I@Z
_TEXT	SEGMENT PARA USE32 PUBLIC 'CODE'
_TEXT	ENDS
;	COMDAT ?erase@?$_Tree@V?$_Tmap_traits@KPAUtagGATE@@U?$less@K@std@@V?$allocator@U?$pair@$$CBKPAUtagGATE@@@std@@@3@$0A@@std@@@std@@QAE?AViterator@12@V312@@Z
_TEXT	SEGMENT PARA USE32 PUBLIC 'CODE'
_TEXT	ENDS
;	COMDAT ?_Root@?$_Tree@V?$_Tmap_traits@KPAUtagGATE@@U?$less@K@std@@V?$allocator@U?$pair@$$CBKPAUtagGATE@@@std@@@3@$0A@@std@@@std@@IBEAAPAU_Node@?$_Tree_nod@V?$_Tmap_traits@KPAUtagGATE@@U?$less@K@std@@V?$allocator@U?$pair@$$CBKPAUtagGATE@@@std@@@3@$0A@@std@@@2@XZ
_TEXT	SEGMENT PARA USE32 PUBLIC 'CODE'
_TEXT	ENDS
;	COMDAT ?_Buynode@?$_Tree@V?$_Tmap_traits@KPAUtagGATE@@U?$less@K@std@@V?$allocator@U?$pair@$$CBKPAUtagGATE@@@std@@@3@$0A@@std@@@std@@IAEPAU_Node@?$_Tree_nod@V?$_Tmap_traits@KPAUtagGATE@@U?$less@K@std@@V?$allocator@U?$pair@$$CBKPAUtagGATE@@@std@@@3@$0A@@std@@@2@XZ
_TEXT	SEGMENT PARA USE32 PUBLIC 'CODE'
_TEXT	ENDS
;	COMDAT ??0?$_Tree_ptr@V?$_Tmap_traits@KPAUtagGATE@@U?$less@K@std@@V?$allocator@U?$pair@$$CBKPAUtagGATE@@@std@@@3@$0A@@std@@@std@@IAE@ABU?$less@K@1@V?$allocator@U?$pair@$$CBKPAUtagGATE@@@std@@@1@@Z
_TEXT	SEGMENT PARA USE32 PUBLIC 'CODE'
_TEXT	ENDS
;	COMDAT ?max_size@?$allocator@U?$pair@$$CBKPAUtagGATE@@@std@@@std@@QBEIXZ
_TEXT	SEGMENT PARA USE32 PUBLIC 'CODE'
_TEXT	ENDS
;	COMDAT ?allocate@?$allocator@U_Node@?$_Tree_nod@V?$_Tmap_traits@KPAUtagGATE@@U?$less@K@std@@V?$allocator@U?$pair@$$CBKPAUtagGATE@@@std@@@3@$0A@@std@@@std@@@std@@QAEPAU_Node@?$_Tree_nod@V?$_Tmap_traits@KPAUtagGATE@@U?$less@K@std@@V?$allocator@U?$pair@$$CBKPAUtagGATE@@@std@@@3@$0A@@std@@@2@I@Z
_TEXT	SEGMENT PARA USE32 PUBLIC 'CODE'
_TEXT	ENDS
;	COMDAT ?_Dec@const_iterator@?$_Tree@V?$_Tmap_traits@KPAVCTRecallMon@@U?$less@K@std@@V?$allocator@U?$pair@$$CBKPAVCTRecallMon@@@std@@@3@$0A@@std@@@std@@QAEXXZ
_TEXT	SEGMENT PARA USE32 PUBLIC 'CODE'
_TEXT	ENDS
;	COMDAT ?_Inc@const_iterator@?$_Tree@V?$_Tmap_traits@KPAVCTRecallMon@@U?$less@K@std@@V?$allocator@U?$pair@$$CBKPAVCTRecallMon@@@std@@@3@$0A@@std@@@std@@QAEXXZ
_TEXT	SEGMENT PARA USE32 PUBLIC 'CODE'
_TEXT	ENDS
;	COMDAT ?_Dec@const_iterator@?$_Tree@V?$_Tmap_traits@KPAVCTSelfObj@@U?$less@K@std@@V?$allocator@U?$pair@$$CBKPAVCTSelfObj@@@std@@@3@$0A@@std@@@std@@QAEXXZ
_TEXT	SEGMENT PARA USE32 PUBLIC 'CODE'
_TEXT	ENDS
;	COMDAT ?_Inc@const_iterator@?$_Tree@V?$_Tmap_traits@KPAVCTSelfObj@@U?$less@K@std@@V?$allocator@U?$pair@$$CBKPAVCTSelfObj@@@std@@@3@$0A@@std@@@std@@QAEXXZ
_TEXT	SEGMENT PARA USE32 PUBLIC 'CODE'
_TEXT	ENDS
;	COMDAT ?_Dec@const_iterator@?$_Tree@V?$_Tmap_traits@KPAVCTMonster@@U?$less@K@std@@V?$allocator@U?$pair@$$CBKPAVCTMonster@@@std@@@3@$0A@@std@@@std@@QAEXXZ
_TEXT	SEGMENT PARA USE32 PUBLIC 'CODE'
_TEXT	ENDS
;	COMDAT ?_Inc@const_iterator@?$_Tree@V?$_Tmap_traits@KPAVCTMonster@@U?$less@K@std@@V?$allocator@U?$pair@$$CBKPAVCTMonster@@@std@@@3@$0A@@std@@@std@@QAEXXZ
_TEXT	SEGMENT PARA USE32 PUBLIC 'CODE'
_TEXT	ENDS
;	COMDAT ?_Dec@const_iterator@?$_Tree@V?$_Tmap_traits@KPAVCTPlayer@@U?$less@K@std@@V?$allocator@U?$pair@$$CBKPAVCTPlayer@@@std@@@3@$0A@@std@@@std@@QAEXXZ
_TEXT	SEGMENT PARA USE32 PUBLIC 'CODE'
_TEXT	ENDS
;	COMDAT ?_Inc@const_iterator@?$_Tree@V?$_Tmap_traits@KPAVCTPlayer@@U?$less@K@std@@V?$allocator@U?$pair@$$CBKPAVCTPlayer@@@std@@@3@$0A@@std@@@std@@QAEXXZ
_TEXT	SEGMENT PARA USE32 PUBLIC 'CODE'
_TEXT	ENDS
;	COMDAT ?_Dec@const_iterator@?$_Tree@V?$_Tmap_traits@KPAUtagSWITCH@@U?$less@K@std@@V?$allocator@U?$pair@$$CBKPAUtagSWITCH@@@std@@@3@$0A@@std@@@std@@QAEXXZ
_TEXT	SEGMENT PARA USE32 PUBLIC 'CODE'
_TEXT	ENDS
;	COMDAT ?_Inc@const_iterator@?$_Tree@V?$_Tmap_traits@KPAUtagSWITCH@@U?$less@K@std@@V?$allocator@U?$pair@$$CBKPAUtagSWITCH@@@std@@@3@$0A@@std@@@std@@QAEXXZ
_TEXT	SEGMENT PARA USE32 PUBLIC 'CODE'
_TEXT	ENDS
;	COMDAT ?_Dec@const_iterator@?$_Tree@V?$_Tmap_traits@KPAUtagGATE@@U?$less@K@std@@V?$allocator@U?$pair@$$CBKPAUtagGATE@@@std@@@3@$0A@@std@@@std@@QAEXXZ
_TEXT	SEGMENT PARA USE32 PUBLIC 'CODE'
_TEXT	ENDS
;	COMDAT ?_Inc@const_iterator@?$_Tree@V?$_Tmap_traits@KPAUtagGATE@@U?$less@K@std@@V?$allocator@U?$pair@$$CBKPAUtagGATE@@@std@@@3@$0A@@std@@@std@@QAEXXZ
_TEXT	SEGMENT PARA USE32 PUBLIC 'CODE'
_TEXT	ENDS
;	COMDAT ??0_Node@?$_Tree_nod@V?$_Tmap_traits@KPAVCTPlayer@@U?$less@K@std@@V?$allocator@U?$pair@$$CBKPAVCTPlayer@@@std@@@3@$0A@@std@@@std@@QAE@PAU012@00ABU?$pair@$$CBKPAVCTPlayer@@@2@D@Z
_TEXT	SEGMENT PARA USE32 PUBLIC 'CODE'
_TEXT	ENDS
;	COMDAT ??0_Node@?$_Tree_nod@V?$_Tmap_traits@KPAVCTRecallMon@@U?$less@K@std@@V?$allocator@U?$pair@$$CBKPAVCTRecallMon@@@std@@@3@$0A@@std@@@std@@QAE@PAU012@00ABU?$pair@$$CBKPAVCTRecallMon@@@2@D@Z
_TEXT	SEGMENT PARA USE32 PUBLIC 'CODE'
_TEXT	ENDS
;	COMDAT ??0_Node@?$_Tree_nod@V?$_Tmap_traits@KPAVCTSelfObj@@U?$less@K@std@@V?$allocator@U?$pair@$$CBKPAVCTSelfObj@@@std@@@3@$0A@@std@@@std@@QAE@PAU012@00ABU?$pair@$$CBKPAVCTSelfObj@@@2@D@Z
_TEXT	SEGMENT PARA USE32 PUBLIC 'CODE'
_TEXT	ENDS
;	COMDAT ??0_Node@?$_Tree_nod@V?$_Tmap_traits@KPAVCTMonster@@U?$less@K@std@@V?$allocator@U?$pair@$$CBKPAVCTMonster@@@std@@@3@$0A@@std@@@std@@QAE@PAU012@00ABU?$pair@$$CBKPAVCTMonster@@@2@D@Z
_TEXT	SEGMENT PARA USE32 PUBLIC 'CODE'
_TEXT	ENDS
;	COMDAT ??0_Node@?$_Tree_nod@V?$_Tmap_traits@KPAUtagSWITCH@@U?$less@K@std@@V?$allocator@U?$pair@$$CBKPAUtagSWITCH@@@std@@@3@$0A@@std@@@std@@QAE@PAU012@00ABU?$pair@$$CBKPAUtagSWITCH@@@2@D@Z
_TEXT	SEGMENT PARA USE32 PUBLIC 'CODE'
_TEXT	ENDS
;	COMDAT ??0_Node@?$_Tree_nod@V?$_Tmap_traits@KPAUtagGATE@@U?$less@K@std@@V?$allocator@U?$pair@$$CBKPAUtagGATE@@@std@@@3@$0A@@std@@@std@@QAE@PAU012@00ABU?$pair@$$CBKPAUtagGATE@@@2@D@Z
_TEXT	SEGMENT PARA USE32 PUBLIC 'CODE'
_TEXT	ENDS
;	COMDAT ??0?$_Tree_nod@V?$_Tmap_traits@KPAVCTPlayer@@U?$less@K@std@@V?$allocator@U?$pair@$$CBKPAVCTPlayer@@@std@@@3@$0A@@std@@@std@@IAE@ABU?$less@K@1@V?$allocator@U?$pair@$$CBKPAVCTPlayer@@@std@@@1@@Z
_TEXT	SEGMENT PARA USE32 PUBLIC 'CODE'
_TEXT	ENDS
;	COMDAT ?construct@?$allocator@PAU_Node@?$_Tree_nod@V?$_Tmap_traits@KPAVCTPlayer@@U?$less@K@std@@V?$allocator@U?$pair@$$CBKPAVCTPlayer@@@std@@@3@$0A@@std@@@std@@@std@@QAEXPAPAU_Node@?$_Tree_nod@V?$_Tmap_traits@KPAVCTPlayer@@U?$less@K@std@@V?$allocator@U?$pair@$$CBKPAVCTPlayer@@@std@@@3@$0A@@std@@@2@ABQAU342@@Z
_TEXT	SEGMENT PARA USE32 PUBLIC 'CODE'
_TEXT	ENDS
;	COMDAT ??0?$_Tree_nod@V?$_Tmap_traits@KPAVCTRecallMon@@U?$less@K@std@@V?$allocator@U?$pair@$$CBKPAVCTRecallMon@@@std@@@3@$0A@@std@@@std@@IAE@ABU?$less@K@1@V?$allocator@U?$pair@$$CBKPAVCTRecallMon@@@std@@@1@@Z
_TEXT	SEGMENT PARA USE32 PUBLIC 'CODE'
_TEXT	ENDS
;	COMDAT ?construct@?$allocator@PAU_Node@?$_Tree_nod@V?$_Tmap_traits@KPAVCTRecallMon@@U?$less@K@std@@V?$allocator@U?$pair@$$CBKPAVCTRecallMon@@@std@@@3@$0A@@std@@@std@@@std@@QAEXPAPAU_Node@?$_Tree_nod@V?$_Tmap_traits@KPAVCTRecallMon@@U?$less@K@std@@V?$allocator@U?$pair@$$CBKPAVCTRecallMon@@@std@@@3@$0A@@std@@@2@ABQAU342@@Z
_TEXT	SEGMENT PARA USE32 PUBLIC 'CODE'
_TEXT	ENDS
;	COMDAT ??0?$_Tree_nod@V?$_Tmap_traits@KPAVCTSelfObj@@U?$less@K@std@@V?$allocator@U?$pair@$$CBKPAVCTSelfObj@@@std@@@3@$0A@@std@@@std@@IAE@ABU?$less@K@1@V?$allocator@U?$pair@$$CBKPAVCTSelfObj@@@std@@@1@@Z
_TEXT	SEGMENT PARA USE32 PUBLIC 'CODE'
_TEXT	ENDS
;	COMDAT ?construct@?$allocator@PAU_Node@?$_Tree_nod@V?$_Tmap_traits@KPAVCTSelfObj@@U?$less@K@std@@V?$allocator@U?$pair@$$CBKPAVCTSelfObj@@@std@@@3@$0A@@std@@@std@@@std@@QAEXPAPAU_Node@?$_Tree_nod@V?$_Tmap_traits@KPAVCTSelfObj@@U?$less@K@std@@V?$allocator@U?$pair@$$CBKPAVCTSelfObj@@@std@@@3@$0A@@std@@@2@ABQAU342@@Z
_TEXT	SEGMENT PARA USE32 PUBLIC 'CODE'
_TEXT	ENDS
;	COMDAT ??0?$_Tree_nod@V?$_Tmap_traits@KPAVCTMonster@@U?$less@K@std@@V?$allocator@U?$pair@$$CBKPAVCTMonster@@@std@@@3@$0A@@std@@@std@@IAE@ABU?$less@K@1@V?$allocator@U?$pair@$$CBKPAVCTMonster@@@std@@@1@@Z
_TEXT	SEGMENT PARA USE32 PUBLIC 'CODE'
_TEXT	ENDS
;	COMDAT ?construct@?$allocator@PAU_Node@?$_Tree_nod@V?$_Tmap_traits@KPAVCTMonster@@U?$less@K@std@@V?$allocator@U?$pair@$$CBKPAVCTMonster@@@std@@@3@$0A@@std@@@std@@@std@@QAEXPAPAU_Node@?$_Tree_nod@V?$_Tmap_traits@KPAVCTMonster@@U?$less@K@std@@V?$allocator@U?$pair@$$CBKPAVCTMonster@@@std@@@3@$0A@@std@@@2@ABQAU342@@Z
_TEXT	SEGMENT PARA USE32 PUBLIC 'CODE'
_TEXT	ENDS
;	COMDAT ?_Max@?$_Tree@V?$_Tmap_traits@KPAUtagSWITCH@@U?$less@K@std@@V?$allocator@U?$pair@$$CBKPAUtagSWITCH@@@std@@@3@$0A@@std@@@std@@KAPAU_Node@?$_Tree_nod@V?$_Tmap_traits@KPAUtagSWITCH@@U?$less@K@std@@V?$allocator@U?$pair@$$CBKPAUtagSWITCH@@@std@@@3@$0A@@std@@@2@PAU342@@Z
_TEXT	SEGMENT PARA USE32 PUBLIC 'CODE'
_TEXT	ENDS
;	COMDAT ?_Min@?$_Tree@V?$_Tmap_traits@KPAUtagSWITCH@@U?$less@K@std@@V?$allocator@U?$pair@$$CBKPAUtagSWITCH@@@std@@@3@$0A@@std@@@std@@KAPAU_Node@?$_Tree_nod@V?$_Tmap_traits@KPAUtagSWITCH@@U?$less@K@std@@V?$allocator@U?$pair@$$CBKPAUtagSWITCH@@@std@@@3@$0A@@std@@@2@PAU342@@Z
_TEXT	SEGMENT PARA USE32 PUBLIC 'CODE'
_TEXT	ENDS
;	COMDAT ??0?$_Tree_nod@V?$_Tmap_traits@KPAUtagSWITCH@@U?$less@K@std@@V?$allocator@U?$pair@$$CBKPAUtagSWITCH@@@std@@@3@$0A@@std@@@std@@IAE@ABU?$less@K@1@V?$allocator@U?$pair@$$CBKPAUtagSWITCH@@@std@@@1@@Z
_TEXT	SEGMENT PARA USE32 PUBLIC 'CODE'
_TEXT	ENDS
;	COMDAT ?construct@?$allocator@PAU_Node@?$_Tree_nod@V?$_Tmap_traits@KPAUtagSWITCH@@U?$less@K@std@@V?$allocator@U?$pair@$$CBKPAUtagSWITCH@@@std@@@3@$0A@@std@@@std@@@std@@QAEXPAPAU_Node@?$_Tree_nod@V?$_Tmap_traits@KPAUtagSWITCH@@U?$less@K@std@@V?$allocator@U?$pair@$$CBKPAUtagSWITCH@@@std@@@3@$0A@@std@@@2@ABQAU342@@Z
_TEXT	SEGMENT PARA USE32 PUBLIC 'CODE'
_TEXT	ENDS
;	COMDAT ?_Max@?$_Tree@V?$_Tmap_traits@KPAUtagGATE@@U?$less@K@std@@V?$allocator@U?$pair@$$CBKPAUtagGATE@@@std@@@3@$0A@@std@@@std@@KAPAU_Node@?$_Tree_nod@V?$_Tmap_traits@KPAUtagGATE@@U?$less@K@std@@V?$allocator@U?$pair@$$CBKPAUtagGATE@@@std@@@3@$0A@@std@@@2@PAU342@@Z
_TEXT	SEGMENT PARA USE32 PUBLIC 'CODE'
_TEXT	ENDS
;	COMDAT ?_Min@?$_Tree@V?$_Tmap_traits@KPAUtagGATE@@U?$less@K@std@@V?$allocator@U?$pair@$$CBKPAUtagGATE@@@std@@@3@$0A@@std@@@std@@KAPAU_Node@?$_Tree_nod@V?$_Tmap_traits@KPAUtagGATE@@U?$less@K@std@@V?$allocator@U?$pair@$$CBKPAUtagGATE@@@std@@@3@$0A@@std@@@2@PAU342@@Z
_TEXT	SEGMENT PARA USE32 PUBLIC 'CODE'
_TEXT	ENDS
;	COMDAT ??0?$_Tree_nod@V?$_Tmap_traits@KPAUtagGATE@@U?$less@K@std@@V?$allocator@U?$pair@$$CBKPAUtagGATE@@@std@@@3@$0A@@std@@@std@@IAE@ABU?$less@K@1@V?$allocator@U?$pair@$$CBKPAUtagGATE@@@std@@@1@@Z
_TEXT	SEGMENT PARA USE32 PUBLIC 'CODE'
_TEXT	ENDS
;	COMDAT ?construct@?$allocator@PAU_Node@?$_Tree_nod@V?$_Tmap_traits@KPAUtagGATE@@U?$less@K@std@@V?$allocator@U?$pair@$$CBKPAUtagGATE@@@std@@@3@$0A@@std@@@std@@@std@@QAEXPAPAU_Node@?$_Tree_nod@V?$_Tmap_traits@KPAUtagGATE@@U?$less@K@std@@V?$allocator@U?$pair@$$CBKPAUtagGATE@@@std@@@3@$0A@@std@@@2@ABQAU342@@Z
_TEXT	SEGMENT PARA USE32 PUBLIC 'CODE'
_TEXT	ENDS
;	COMDAT ??0?$_Tmap_traits@KPAVCTPlayer@@U?$less@K@std@@V?$allocator@U?$pair@$$CBKPAVCTPlayer@@@std@@@3@$0A@@std@@QAE@U?$less@K@1@@Z
_TEXT	SEGMENT PARA USE32 PUBLIC 'CODE'
_TEXT	ENDS
;	COMDAT ??0?$_Tmap_traits@KPAVCTRecallMon@@U?$less@K@std@@V?$allocator@U?$pair@$$CBKPAVCTRecallMon@@@std@@@3@$0A@@std@@QAE@U?$less@K@1@@Z
_TEXT	SEGMENT PARA USE32 PUBLIC 'CODE'
_TEXT	ENDS
;	COMDAT ??0?$_Tmap_traits@KPAVCTSelfObj@@U?$less@K@std@@V?$allocator@U?$pair@$$CBKPAVCTSelfObj@@@std@@@3@$0A@@std@@QAE@U?$less@K@1@@Z
_TEXT	SEGMENT PARA USE32 PUBLIC 'CODE'
_TEXT	ENDS
;	COMDAT ??0?$_Tmap_traits@KPAVCTMonster@@U?$less@K@std@@V?$allocator@U?$pair@$$CBKPAVCTMonster@@@std@@@3@$0A@@std@@QAE@U?$less@K@1@@Z
_TEXT	SEGMENT PARA USE32 PUBLIC 'CODE'
_TEXT	ENDS
;	COMDAT ??0?$_Tmap_traits@KPAUtagSWITCH@@U?$less@K@std@@V?$allocator@U?$pair@$$CBKPAUtagSWITCH@@@std@@@3@$0A@@std@@QAE@U?$less@K@1@@Z
_TEXT	SEGMENT PARA USE32 PUBLIC 'CODE'
_TEXT	ENDS
;	COMDAT ??0?$_Tmap_traits@KPAUtagGATE@@U?$less@K@std@@V?$allocator@U?$pair@$$CBKPAUtagGATE@@@std@@@3@$0A@@std@@QAE@U?$less@K@1@@Z
_TEXT	SEGMENT PARA USE32 PUBLIC 'CODE'
_TEXT	ENDS
;	COMDAT ?Unlock@?$CComCritSecLock@VCComCriticalSection@ATL@@@ATL@@QAEXXZ
_TEXT	SEGMENT PARA USE32 PUBLIC 'CODE'
_TEXT	ENDS
;	COMDAT ??$_Uninit_fill_n@GIG@std@@YAXPAGIABGAAV?$allocator@G@0@U_Scalar_ptr_iterator_tag@0@@Z
_TEXT	SEGMENT PARA USE32 PUBLIC 'CODE'
_TEXT	ENDS
;	COMDAT ??$_Ptr_cat@UtagTAICONDITION@@@std@@YA?AU_Scalar_ptr_iterator_tag@0@PAPAUtagTAICONDITION@@0@Z
_TEXT	SEGMENT PARA USE32 PUBLIC 'CODE'
_TEXT	ENDS
;	COMDAT ??$_Destroy_range@PAUtagTAICONDITION@@V?$allocator@PAUtagTAICONDITION@@@std@@@std@@YAXPAPAUtagTAICONDITION@@0AAV?$allocator@PAUtagTAICONDITION@@@0@U_Scalar_ptr_iterator_tag@0@@Z
_TEXT	SEGMENT PARA USE32 PUBLIC 'CODE'
_TEXT	ENDS
;	COMDAT ??$_Ptr_cat@UtagTMONITEM@@@std@@YA?AU_Scalar_ptr_iterator_tag@0@PAPAUtagTMONITEM@@0@Z
_TEXT	SEGMENT PARA USE32 PUBLIC 'CODE'
_TEXT	ENDS
;	COMDAT ??$_Destroy_range@PAUtagTMONITEM@@V?$allocator@PAUtagTMONITEM@@@std@@@std@@YAXPAPAUtagTMONITEM@@0AAV?$allocator@PAUtagTMONITEM@@@0@U_Scalar_ptr_iterator_tag@0@@Z
_TEXT	SEGMENT PARA USE32 PUBLIC 'CODE'
_TEXT	ENDS
;	COMDAT ??$_Ptr_cat@UtagTMAPMON@@@std@@YA?AU_Scalar_ptr_iterator_tag@0@PAPAUtagTMAPMON@@0@Z
_TEXT	SEGMENT PARA USE32 PUBLIC 'CODE'
_TEXT	ENDS
;	COMDAT ??$_Destroy_range@PAUtagTMAPMON@@V?$allocator@PAUtagTMAPMON@@@std@@@std@@YAXPAPAUtagTMAPMON@@0AAV?$allocator@PAUtagTMAPMON@@@0@U_Scalar_ptr_iterator_tag@0@@Z
_TEXT	SEGMENT PARA USE32 PUBLIC 'CODE'
_TEXT	ENDS
;	COMDAT ??$_Ptr_cat@UtagPATHPOINT@@@std@@YA?AU_Scalar_ptr_iterator_tag@0@PAPAUtagPATHPOINT@@0@Z
_TEXT	SEGMENT PARA USE32 PUBLIC 'CODE'
_TEXT	ENDS
;	COMDAT ??$_Destroy_range@PAUtagPATHPOINT@@V?$allocator@PAUtagPATHPOINT@@@std@@@std@@YAXPAPAUtagPATHPOINT@@0AAV?$allocator@PAUtagPATHPOINT@@@0@U_Scalar_ptr_iterator_tag@0@@Z
_TEXT	SEGMENT PARA USE32 PUBLIC 'CODE'
_TEXT	ENDS
;	COMDAT ??$_Ptr_cat@UtagQUESTCONDITION@@@std@@YA?AU_Scalar_ptr_iterator_tag@0@PAPAUtagQUESTCONDITION@@0@Z
_TEXT	SEGMENT PARA USE32 PUBLIC 'CODE'
_TEXT	ENDS
;	COMDAT ??$_Destroy_range@PAUtagQUESTCONDITION@@V?$allocator@PAUtagQUESTCONDITION@@@std@@@std@@YAXPAPAUtagQUESTCONDITION@@0AAV?$allocator@PAUtagQUESTCONDITION@@@0@U_Scalar_ptr_iterator_tag@0@@Z
_TEXT	SEGMENT PARA USE32 PUBLIC 'CODE'
_TEXT	ENDS
;	COMDAT ??$_Ptr_cat@UtagQUESTREWARD@@@std@@YA?AU_Scalar_ptr_iterator_tag@0@PAPAUtagQUESTREWARD@@0@Z
_TEXT	SEGMENT PARA USE32 PUBLIC 'CODE'
_TEXT	ENDS
;	COMDAT ??$_Destroy_range@PAUtagQUESTREWARD@@V?$allocator@PAUtagQUESTREWARD@@@std@@@std@@YAXPAPAUtagQUESTREWARD@@0AAV?$allocator@PAUtagQUESTREWARD@@@0@U_Scalar_ptr_iterator_tag@0@@Z
_TEXT	SEGMENT PARA USE32 PUBLIC 'CODE'
_TEXT	ENDS
;	COMDAT ??$_Ptr_cat@UtagQUESTTERM@@@std@@YA?AU_Scalar_ptr_iterator_tag@0@PAPAUtagQUESTTERM@@0@Z
_TEXT	SEGMENT PARA USE32 PUBLIC 'CODE'
_TEXT	ENDS
;	COMDAT ??$_Destroy_range@PAUtagQUESTTERM@@V?$allocator@PAUtagQUESTTERM@@@std@@@std@@YAXPAPAUtagQUESTTERM@@0AAV?$allocator@PAUtagQUESTTERM@@@0@U_Scalar_ptr_iterator_tag@0@@Z
_TEXT	SEGMENT PARA USE32 PUBLIC 'CODE'
_TEXT	ENDS
;	COMDAT ??$_Ptr_cat@PAUtagTCASHITMSALE@@PAU1@@std@@YA?AU_Nonscalar_ptr_iterator_tag@0@AAPAUtagTCASHITMSALE@@0@Z
_TEXT	SEGMENT PARA USE32 PUBLIC 'CODE'
_TEXT	ENDS
;	COMDAT ??$_Uninit_fill_n@PAUtagTCASHITMSALE@@IU1@V?$allocator@UtagTCASHITMSALE@@@std@@@std@@YAXPAUtagTCASHITMSALE@@IABU1@AAV?$allocator@UtagTCASHITMSALE@@@0@U_Nonscalar_ptr_iterator_tag@0@@Z
_TEXT	SEGMENT PARA USE32 PUBLIC 'CODE'
_TEXT	ENDS
;	COMDAT ??$_Ptr_cat@PAUtagMONREGEN@@PAU1@@std@@YA?AU_Nonscalar_ptr_iterator_tag@0@AAPAUtagMONREGEN@@0@Z
_TEXT	SEGMENT PARA USE32 PUBLIC 'CODE'
_TEXT	ENDS
;	COMDAT ??$_Uninit_fill_n@PAUtagMONREGEN@@IU1@V?$allocator@UtagMONREGEN@@@std@@@std@@YAXPAUtagMONREGEN@@IABU1@AAV?$allocator@UtagMONREGEN@@@0@U_Nonscalar_ptr_iterator_tag@0@@Z
_TEXT	SEGMENT PARA USE32 PUBLIC 'CODE'
_TEXT	ENDS
;	COMDAT ??$_Ptr_cat@PAUtagLOTTERY@@PAU1@@std@@YA?AU_Nonscalar_ptr_iterator_tag@0@AAPAUtagLOTTERY@@0@Z
_TEXT	SEGMENT PARA USE32 PUBLIC 'CODE'
_TEXT	ENDS
;	COMDAT ??$_Uninit_fill_n@PAUtagLOTTERY@@IU1@V?$allocator@UtagLOTTERY@@@std@@@std@@YAXPAUtagLOTTERY@@IABU1@AAV?$allocator@UtagLOTTERY@@@0@U_Nonscalar_ptr_iterator_tag@0@@Z
_TEXT	SEGMENT PARA USE32 PUBLIC 'CODE'
_TEXT	ENDS
;	COMDAT ??$_Destroy_range@GV?$allocator@G@std@@@std@@YAXPAG0AAV?$allocator@G@0@U_Scalar_ptr_iterator_tag@0@@Z
_TEXT	SEGMENT PARA USE32 PUBLIC 'CODE'
_TEXT	ENDS
;	COMDAT ??$_Uninitialized_copy@PAGPAGV?$allocator@G@std@@@std@@YAPAGPAG00AAV?$allocator@G@0@@Z
_TEXT	SEGMENT PARA USE32 PUBLIC 'CODE'
_TEXT	ENDS
;	COMDAT ??$_Copy_backward_opt@PAGPAG@std@@YAPAGPAG00U_Scalar_ptr_iterator_tag@0@@Z
_TEXT	SEGMENT PARA USE32 PUBLIC 'CODE'
_TEXT	ENDS
;	COMDAT ??$_Ptr_cat@VCTPlayer@@@std@@YA?AU_Scalar_ptr_iterator_tag@0@PAPAVCTPlayer@@0@Z
_TEXT	SEGMENT PARA USE32 PUBLIC 'CODE'
_TEXT	ENDS
;	COMDAT ??$_Destroy_range@PAVCTPlayer@@V?$allocator@PAVCTPlayer@@@std@@@std@@YAXPAPAVCTPlayer@@0AAV?$allocator@PAVCTPlayer@@@0@U_Scalar_ptr_iterator_tag@0@@Z
_TEXT	SEGMENT PARA USE32 PUBLIC 'CODE'
_TEXT	ENDS
;	COMDAT ??$_Destroy_range@UtagTCASHITMSALE@@V?$allocator@UtagTCASHITMSALE@@@std@@@std@@YAXPAUtagTCASHITMSALE@@0AAV?$allocator@UtagTCASHITMSALE@@@0@U_Nonscalar_ptr_iterator_tag@0@@Z
_TEXT	SEGMENT PARA USE32 PUBLIC 'CODE'
_TEXT	ENDS
;	COMDAT ??$_Uninitialized_copy@PAUtagTCASHITMSALE@@PAU1@V?$allocator@UtagTCASHITMSALE@@@std@@@std@@YAPAUtagTCASHITMSALE@@PAU1@00AAV?$allocator@UtagTCASHITMSALE@@@0@@Z
_TEXT	SEGMENT PARA USE32 PUBLIC 'CODE'
_TEXT	ENDS
;	COMDAT ??$_Copy_backward_opt@PAUtagTCASHITMSALE@@PAU1@@std@@YAPAUtagTCASHITMSALE@@PAU1@00U_Nonscalar_ptr_iterator_tag@0@@Z
_TEXT	SEGMENT PARA USE32 PUBLIC 'CODE'
_TEXT	ENDS
;	COMDAT ??$_Destroy_range@UtagMONREGEN@@V?$allocator@UtagMONREGEN@@@std@@@std@@YAXPAUtagMONREGEN@@0AAV?$allocator@UtagMONREGEN@@@0@U_Nonscalar_ptr_iterator_tag@0@@Z
_TEXT	SEGMENT PARA USE32 PUBLIC 'CODE'
_TEXT	ENDS
;	COMDAT ??$_Uninitialized_copy@PAUtagMONREGEN@@PAU1@V?$allocator@UtagMONREGEN@@@std@@@std@@YAPAUtagMONREGEN@@PAU1@00AAV?$allocator@UtagMONREGEN@@@0@@Z
_TEXT	SEGMENT PARA USE32 PUBLIC 'CODE'
_TEXT	ENDS
;	COMDAT ??$_Copy_backward_opt@PAUtagMONREGEN@@PAU1@@std@@YAPAUtagMONREGEN@@PAU1@00U_Nonscalar_ptr_iterator_tag@0@@Z
_TEXT	SEGMENT PARA USE32 PUBLIC 'CODE'
_TEXT	ENDS
;	COMDAT ??$_Destroy_range@UtagLOTTERY@@V?$allocator@UtagLOTTERY@@@std@@@std@@YAXPAUtagLOTTERY@@0AAV?$allocator@UtagLOTTERY@@@0@U_Nonscalar_ptr_iterator_tag@0@@Z
_TEXT	SEGMENT PARA USE32 PUBLIC 'CODE'
_TEXT	ENDS
;	COMDAT ??$_Uninitialized_copy@PAUtagLOTTERY@@PAU1@V?$allocator@UtagLOTTERY@@@std@@@std@@YAPAUtagLOTTERY@@PAU1@00AAV?$allocator@UtagLOTTERY@@@0@@Z
_TEXT	SEGMENT PARA USE32 PUBLIC 'CODE'
_TEXT	ENDS
;	COMDAT ??$_Copy_backward_opt@PAUtagLOTTERY@@PAU1@@std@@YAPAUtagLOTTERY@@PAU1@00U_Nonscalar_ptr_iterator_tag@0@@Z
_TEXT	SEGMENT PARA USE32 PUBLIC 'CODE'
_TEXT	ENDS
;	COMDAT ??$_Destroy@U_Node@?$_Tree_nod@V?$_Tmap_traits@KPAVCTPlayer@@U?$less@K@std@@V?$allocator@U?$pair@$$CBKPAVCTPlayer@@@std@@@3@$0A@@std@@@std@@@std@@YAXPAU_Node@?$_Tree_nod@V?$_Tmap_traits@KPAVCTPlayer@@U?$less@K@std@@V?$allocator@U?$pair@$$CBKPAVCTPlayer@@@std@@@3@$0A@@std@@@0@@Z
_TEXT	SEGMENT PARA USE32 PUBLIC 'CODE'
_TEXT	ENDS
;	COMDAT ??$_Destroy@U_Node@?$_Tree_nod@V?$_Tmap_traits@KPAVCTRecallMon@@U?$less@K@std@@V?$allocator@U?$pair@$$CBKPAVCTRecallMon@@@std@@@3@$0A@@std@@@std@@@std@@YAXPAU_Node@?$_Tree_nod@V?$_Tmap_traits@KPAVCTRecallMon@@U?$less@K@std@@V?$allocator@U?$pair@$$CBKPAVCTRecallMon@@@std@@@3@$0A@@std@@@0@@Z
_TEXT	SEGMENT PARA USE32 PUBLIC 'CODE'
_TEXT	ENDS
;	COMDAT ??$_Destroy@U_Node@?$_Tree_nod@V?$_Tmap_traits@KPAVCTSelfObj@@U?$less@K@std@@V?$allocator@U?$pair@$$CBKPAVCTSelfObj@@@std@@@3@$0A@@std@@@std@@@std@@YAXPAU_Node@?$_Tree_nod@V?$_Tmap_traits@KPAVCTSelfObj@@U?$less@K@std@@V?$allocator@U?$pair@$$CBKPAVCTSelfObj@@@std@@@3@$0A@@std@@@0@@Z
_TEXT	SEGMENT PARA USE32 PUBLIC 'CODE'
_TEXT	ENDS
;	COMDAT ??$_Destroy@U_Node@?$_Tree_nod@V?$_Tmap_traits@KPAVCTMonster@@U?$less@K@std@@V?$allocator@U?$pair@$$CBKPAVCTMonster@@@std@@@3@$0A@@std@@@std@@@std@@YAXPAU_Node@?$_Tree_nod@V?$_Tmap_traits@KPAVCTMonster@@U?$less@K@std@@V?$allocator@U?$pair@$$CBKPAVCTMonster@@@std@@@3@$0A@@std@@@0@@Z
_TEXT	SEGMENT PARA USE32 PUBLIC 'CODE'
_TEXT	ENDS
;	COMDAT ??$_Destroy@PAU_Node@?$_Tree_nod@V?$_Tmap_traits@KPAVCTPlayer@@U?$less@K@std@@V?$allocator@U?$pair@$$CBKPAVCTPlayer@@@std@@@3@$0A@@std@@@std@@@std@@YAXPAPAU_Node@?$_Tree_nod@V?$_Tmap_traits@KPAVCTPlayer@@U?$less@K@std@@V?$allocator@U?$pair@$$CBKPAVCTPlayer@@@std@@@3@$0A@@std@@@0@@Z
_TEXT	SEGMENT PARA USE32 PUBLIC 'CODE'
_TEXT	ENDS
;	COMDAT ??$_Destroy@PAU_Node@?$_Tree_nod@V?$_Tmap_traits@KPAVCTRecallMon@@U?$less@K@std@@V?$allocator@U?$pair@$$CBKPAVCTRecallMon@@@std@@@3@$0A@@std@@@std@@@std@@YAXPAPAU_Node@?$_Tree_nod@V?$_Tmap_traits@KPAVCTRecallMon@@U?$less@K@std@@V?$allocator@U?$pair@$$CBKPAVCTRecallMon@@@std@@@3@$0A@@std@@@0@@Z
_TEXT	SEGMENT PARA USE32 PUBLIC 'CODE'
_TEXT	ENDS
;	COMDAT ??$_Destroy@PAU_Node@?$_Tree_nod@V?$_Tmap_traits@KPAVCTSelfObj@@U?$less@K@std@@V?$allocator@U?$pair@$$CBKPAVCTSelfObj@@@std@@@3@$0A@@std@@@std@@@std@@YAXPAPAU_Node@?$_Tree_nod@V?$_Tmap_traits@KPAVCTSelfObj@@U?$less@K@std@@V?$allocator@U?$pair@$$CBKPAVCTSelfObj@@@std@@@3@$0A@@std@@@0@@Z
_TEXT	SEGMENT PARA USE32 PUBLIC 'CODE'
_TEXT	ENDS
;	COMDAT ??$_Destroy@PAU_Node@?$_Tree_nod@V?$_Tmap_traits@KPAVCTMonster@@U?$less@K@std@@V?$allocator@U?$pair@$$CBKPAVCTMonster@@@std@@@3@$0A@@std@@@std@@@std@@YAXPAPAU_Node@?$_Tree_nod@V?$_Tmap_traits@KPAVCTMonster@@U?$less@K@std@@V?$allocator@U?$pair@$$CBKPAVCTMonster@@@std@@@3@$0A@@std@@@0@@Z
_TEXT	SEGMENT PARA USE32 PUBLIC 'CODE'
_TEXT	ENDS
;	COMDAT ??$_Destroy@U_Node@?$_Tree_nod@V?$_Tmap_traits@KPAUtagSWITCH@@U?$less@K@std@@V?$allocator@U?$pair@$$CBKPAUtagSWITCH@@@std@@@3@$0A@@std@@@std@@@std@@YAXPAU_Node@?$_Tree_nod@V?$_Tmap_traits@KPAUtagSWITCH@@U?$less@K@std@@V?$allocator@U?$pair@$$CBKPAUtagSWITCH@@@std@@@3@$0A@@std@@@0@@Z
_TEXT	SEGMENT PARA USE32 PUBLIC 'CODE'
_TEXT	ENDS
;	COMDAT ??$_Destroy@PAU_Node@?$_Tree_nod@V?$_Tmap_traits@KPAUtagSWITCH@@U?$less@K@std@@V?$allocator@U?$pair@$$CBKPAUtagSWITCH@@@std@@@3@$0A@@std@@@std@@@std@@YAXPAPAU_Node@?$_Tree_nod@V?$_Tmap_traits@KPAUtagSWITCH@@U?$less@K@std@@V?$allocator@U?$pair@$$CBKPAUtagSWITCH@@@std@@@3@$0A@@std@@@0@@Z
_TEXT	SEGMENT PARA USE32 PUBLIC 'CODE'
_TEXT	ENDS
;	COMDAT ??$_Destroy@U_Node@?$_Tree_nod@V?$_Tmap_traits@KPAUtagGATE@@U?$less@K@std@@V?$allocator@U?$pair@$$CBKPAUtagGATE@@@std@@@3@$0A@@std@@@std@@@std@@YAXPAU_Node@?$_Tree_nod@V?$_Tmap_traits@KPAUtagGATE@@U?$less@K@std@@V?$allocator@U?$pair@$$CBKPAUtagGATE@@@std@@@3@$0A@@std@@@0@@Z
_TEXT	SEGMENT PARA USE32 PUBLIC 'CODE'
_TEXT	ENDS
;	COMDAT ??$_Destroy@PAU_Node@?$_Tree_nod@V?$_Tmap_traits@KPAUtagGATE@@U?$less@K@std@@V?$allocator@U?$pair@$$CBKPAUtagGATE@@@std@@@3@$0A@@std@@@std@@@std@@YAXPAPAU_Node@?$_Tree_nod@V?$_Tmap_traits@KPAUtagGATE@@U?$less@K@std@@V?$allocator@U?$pair@$$CBKPAUtagGATE@@@std@@@3@$0A@@std@@@0@@Z
_TEXT	SEGMENT PARA USE32 PUBLIC 'CODE'
_TEXT	ENDS
;	COMDAT ??$?0U?$pair@$$CBKPAVCTPlayer@@@std@@@?$allocator@PAU_Node@?$_Tree_nod@V?$_Tmap_traits@KPAVCTPlayer@@U?$less@K@std@@V?$allocator@U?$pair@$$CBKPAVCTPlayer@@@std@@@3@$0A@@std@@@std@@@std@@QAE@ABV?$allocator@U?$pair@$$CBKPAVCTPlayer@@@std@@@1@@Z
_TEXT	SEGMENT PARA USE32 PUBLIC 'CODE'
_TEXT	ENDS
;	COMDAT ??$_Allocate@U_Node@?$_Tree_nod@V?$_Tmap_traits@KPAVCTPlayer@@U?$less@K@std@@V?$allocator@U?$pair@$$CBKPAVCTPlayer@@@std@@@3@$0A@@std@@@std@@@std@@YAPAU_Node@?$_Tree_nod@V?$_Tmap_traits@KPAVCTPlayer@@U?$less@K@std@@V?$allocator@U?$pair@$$CBKPAVCTPlayer@@@std@@@3@$0A@@std@@@0@IPAU120@@Z
_TEXT	SEGMENT PARA USE32 PUBLIC 'CODE'
_TEXT	ENDS
;	COMDAT ??$?0U?$pair@$$CBKPAVCTRecallMon@@@std@@@?$allocator@PAU_Node@?$_Tree_nod@V?$_Tmap_traits@KPAVCTRecallMon@@U?$less@K@std@@V?$allocator@U?$pair@$$CBKPAVCTRecallMon@@@std@@@3@$0A@@std@@@std@@@std@@QAE@ABV?$allocator@U?$pair@$$CBKPAVCTRecallMon@@@std@@@1@@Z
_TEXT	SEGMENT PARA USE32 PUBLIC 'CODE'
_TEXT	ENDS
;	COMDAT ??$_Allocate@U_Node@?$_Tree_nod@V?$_Tmap_traits@KPAVCTRecallMon@@U?$less@K@std@@V?$allocator@U?$pair@$$CBKPAVCTRecallMon@@@std@@@3@$0A@@std@@@std@@@std@@YAPAU_Node@?$_Tree_nod@V?$_Tmap_traits@KPAVCTRecallMon@@U?$less@K@std@@V?$allocator@U?$pair@$$CBKPAVCTRecallMon@@@std@@@3@$0A@@std@@@0@IPAU120@@Z
_TEXT	SEGMENT PARA USE32 PUBLIC 'CODE'
_TEXT	ENDS
;	COMDAT ??$?0U?$pair@$$CBKPAVCTSelfObj@@@std@@@?$allocator@PAU_Node@?$_Tree_nod@V?$_Tmap_traits@KPAVCTSelfObj@@U?$less@K@std@@V?$allocator@U?$pair@$$CBKPAVCTSelfObj@@@std@@@3@$0A@@std@@@std@@@std@@QAE@ABV?$allocator@U?$pair@$$CBKPAVCTSelfObj@@@std@@@1@@Z
_TEXT	SEGMENT PARA USE32 PUBLIC 'CODE'
_TEXT	ENDS
;	COMDAT ??$_Allocate@U_Node@?$_Tree_nod@V?$_Tmap_traits@KPAVCTSelfObj@@U?$less@K@std@@V?$allocator@U?$pair@$$CBKPAVCTSelfObj@@@std@@@3@$0A@@std@@@std@@@std@@YAPAU_Node@?$_Tree_nod@V?$_Tmap_traits@KPAVCTSelfObj@@U?$less@K@std@@V?$allocator@U?$pair@$$CBKPAVCTSelfObj@@@std@@@3@$0A@@std@@@0@IPAU120@@Z
_TEXT	SEGMENT PARA USE32 PUBLIC 'CODE'
_TEXT	ENDS
;	COMDAT ??$?0U?$pair@$$CBKPAVCTMonster@@@std@@@?$allocator@PAU_Node@?$_Tree_nod@V?$_Tmap_traits@KPAVCTMonster@@U?$less@K@std@@V?$allocator@U?$pair@$$CBKPAVCTMonster@@@std@@@3@$0A@@std@@@std@@@std@@QAE@ABV?$allocator@U?$pair@$$CBKPAVCTMonster@@@std@@@1@@Z
_TEXT	SEGMENT PARA USE32 PUBLIC 'CODE'
_TEXT	ENDS
;	COMDAT ??$_Allocate@U_Node@?$_Tree_nod@V?$_Tmap_traits@KPAVCTMonster@@U?$less@K@std@@V?$allocator@U?$pair@$$CBKPAVCTMonster@@@std@@@3@$0A@@std@@@std@@@std@@YAPAU_Node@?$_Tree_nod@V?$_Tmap_traits@KPAVCTMonster@@U?$less@K@std@@V?$allocator@U?$pair@$$CBKPAVCTMonster@@@std@@@3@$0A@@std@@@0@IPAU120@@Z
_TEXT	SEGMENT PARA USE32 PUBLIC 'CODE'
_TEXT	ENDS
;	COMDAT ??$?0U?$pair@$$CBKPAUtagSWITCH@@@std@@@?$allocator@PAU_Node@?$_Tree_nod@V?$_Tmap_traits@KPAUtagSWITCH@@U?$less@K@std@@V?$allocator@U?$pair@$$CBKPAUtagSWITCH@@@std@@@3@$0A@@std@@@std@@@std@@QAE@ABV?$allocator@U?$pair@$$CBKPAUtagSWITCH@@@std@@@1@@Z
_TEXT	SEGMENT PARA USE32 PUBLIC 'CODE'
_TEXT	ENDS
;	COMDAT ??$_Allocate@U_Node@?$_Tree_nod@V?$_Tmap_traits@KPAUtagSWITCH@@U?$less@K@std@@V?$allocator@U?$pair@$$CBKPAUtagSWITCH@@@std@@@3@$0A@@std@@@std@@@std@@YAPAU_Node@?$_Tree_nod@V?$_Tmap_traits@KPAUtagSWITCH@@U?$less@K@std@@V?$allocator@U?$pair@$$CBKPAUtagSWITCH@@@std@@@3@$0A@@std@@@0@IPAU120@@Z
_TEXT	SEGMENT PARA USE32 PUBLIC 'CODE'
_TEXT	ENDS
;	COMDAT ??$?0U?$pair@$$CBKPAUtagGATE@@@std@@@?$allocator@PAU_Node@?$_Tree_nod@V?$_Tmap_traits@KPAUtagGATE@@U?$less@K@std@@V?$allocator@U?$pair@$$CBKPAUtagGATE@@@std@@@3@$0A@@std@@@std@@@std@@QAE@ABV?$allocator@U?$pair@$$CBKPAUtagGATE@@@std@@@1@@Z
_TEXT	SEGMENT PARA USE32 PUBLIC 'CODE'
_TEXT	ENDS
;	COMDAT ??$_Allocate@U_Node@?$_Tree_nod@V?$_Tmap_traits@KPAUtagGATE@@U?$less@K@std@@V?$allocator@U?$pair@$$CBKPAUtagGATE@@@std@@@3@$0A@@std@@@std@@@std@@YAPAU_Node@?$_Tree_nod@V?$_Tmap_traits@KPAUtagGATE@@U?$less@K@std@@V?$allocator@U?$pair@$$CBKPAUtagGATE@@@std@@@3@$0A@@std@@@0@IPAU120@@Z
_TEXT	SEGMENT PARA USE32 PUBLIC 'CODE'
_TEXT	ENDS
;	COMDAT ??$?0U?$pair@$$CBKPAVCTPlayer@@@std@@@?$allocator@U_Node@?$_Tree_nod@V?$_Tmap_traits@KPAVCTPlayer@@U?$less@K@std@@V?$allocator@U?$pair@$$CBKPAVCTPlayer@@@std@@@3@$0A@@std@@@std@@@std@@QAE@ABV?$allocator@U?$pair@$$CBKPAVCTPlayer@@@std@@@1@@Z
_TEXT	SEGMENT PARA USE32 PUBLIC 'CODE'
_TEXT	ENDS
;	COMDAT ??$_Construct@PAU_Node@?$_Tree_nod@V?$_Tmap_traits@KPAVCTPlayer@@U?$less@K@std@@V?$allocator@U?$pair@$$CBKPAVCTPlayer@@@std@@@3@$0A@@std@@@std@@PAU123@@std@@YAXPAPAU_Node@?$_Tree_nod@V?$_Tmap_traits@KPAVCTPlayer@@U?$less@K@std@@V?$allocator@U?$pair@$$CBKPAVCTPlayer@@@std@@@3@$0A@@std@@@0@ABQAU120@@Z
_TEXT	SEGMENT PARA USE32 PUBLIC 'CODE'
_TEXT	ENDS
;	COMDAT ??$?0U?$pair@$$CBKPAVCTRecallMon@@@std@@@?$allocator@U_Node@?$_Tree_nod@V?$_Tmap_traits@KPAVCTRecallMon@@U?$less@K@std@@V?$allocator@U?$pair@$$CBKPAVCTRecallMon@@@std@@@3@$0A@@std@@@std@@@std@@QAE@ABV?$allocator@U?$pair@$$CBKPAVCTRecallMon@@@std@@@1@@Z
_TEXT	SEGMENT PARA USE32 PUBLIC 'CODE'
_TEXT	ENDS
;	COMDAT ??$_Construct@PAU_Node@?$_Tree_nod@V?$_Tmap_traits@KPAVCTRecallMon@@U?$less@K@std@@V?$allocator@U?$pair@$$CBKPAVCTRecallMon@@@std@@@3@$0A@@std@@@std@@PAU123@@std@@YAXPAPAU_Node@?$_Tree_nod@V?$_Tmap_traits@KPAVCTRecallMon@@U?$less@K@std@@V?$allocator@U?$pair@$$CBKPAVCTRecallMon@@@std@@@3@$0A@@std@@@0@ABQAU120@@Z
_TEXT	SEGMENT PARA USE32 PUBLIC 'CODE'
_TEXT	ENDS
;	COMDAT ??$?0U?$pair@$$CBKPAVCTSelfObj@@@std@@@?$allocator@U_Node@?$_Tree_nod@V?$_Tmap_traits@KPAVCTSelfObj@@U?$less@K@std@@V?$allocator@U?$pair@$$CBKPAVCTSelfObj@@@std@@@3@$0A@@std@@@std@@@std@@QAE@ABV?$allocator@U?$pair@$$CBKPAVCTSelfObj@@@std@@@1@@Z
_TEXT	SEGMENT PARA USE32 PUBLIC 'CODE'
_TEXT	ENDS
;	COMDAT ??$_Construct@PAU_Node@?$_Tree_nod@V?$_Tmap_traits@KPAVCTSelfObj@@U?$less@K@std@@V?$allocator@U?$pair@$$CBKPAVCTSelfObj@@@std@@@3@$0A@@std@@@std@@PAU123@@std@@YAXPAPAU_Node@?$_Tree_nod@V?$_Tmap_traits@KPAVCTSelfObj@@U?$less@K@std@@V?$allocator@U?$pair@$$CBKPAVCTSelfObj@@@std@@@3@$0A@@std@@@0@ABQAU120@@Z
_TEXT	SEGMENT PARA USE32 PUBLIC 'CODE'
_TEXT	ENDS
;	COMDAT ??$?0U?$pair@$$CBKPAVCTMonster@@@std@@@?$allocator@U_Node@?$_Tree_nod@V?$_Tmap_traits@KPAVCTMonster@@U?$less@K@std@@V?$allocator@U?$pair@$$CBKPAVCTMonster@@@std@@@3@$0A@@std@@@std@@@std@@QAE@ABV?$allocator@U?$pair@$$CBKPAVCTMonster@@@std@@@1@@Z
_TEXT	SEGMENT PARA USE32 PUBLIC 'CODE'
_TEXT	ENDS
;	COMDAT ??$_Construct@PAU_Node@?$_Tree_nod@V?$_Tmap_traits@KPAVCTMonster@@U?$less@K@std@@V?$allocator@U?$pair@$$CBKPAVCTMonster@@@std@@@3@$0A@@std@@@std@@PAU123@@std@@YAXPAPAU_Node@?$_Tree_nod@V?$_Tmap_traits@KPAVCTMonster@@U?$less@K@std@@V?$allocator@U?$pair@$$CBKPAVCTMonster@@@std@@@3@$0A@@std@@@0@ABQAU120@@Z
_TEXT	SEGMENT PARA USE32 PUBLIC 'CODE'
_TEXT	ENDS
;	COMDAT ??$?0U?$pair@$$CBKPAUtagSWITCH@@@std@@@?$allocator@U_Node@?$_Tree_nod@V?$_Tmap_traits@KPAUtagSWITCH@@U?$less@K@std@@V?$allocator@U?$pair@$$CBKPAUtagSWITCH@@@std@@@3@$0A@@std@@@std@@@std@@QAE@ABV?$allocator@U?$pair@$$CBKPAUtagSWITCH@@@std@@@1@@Z
_TEXT	SEGMENT PARA USE32 PUBLIC 'CODE'
_TEXT	ENDS
;	COMDAT ??$_Construct@PAU_Node@?$_Tree_nod@V?$_Tmap_traits@KPAUtagSWITCH@@U?$less@K@std@@V?$allocator@U?$pair@$$CBKPAUtagSWITCH@@@std@@@3@$0A@@std@@@std@@PAU123@@std@@YAXPAPAU_Node@?$_Tree_nod@V?$_Tmap_traits@KPAUtagSWITCH@@U?$less@K@std@@V?$allocator@U?$pair@$$CBKPAUtagSWITCH@@@std@@@3@$0A@@std@@@0@ABQAU120@@Z
_TEXT	SEGMENT PARA USE32 PUBLIC 'CODE'
_TEXT	ENDS
;	COMDAT ??$?0U?$pair@$$CBKPAUtagGATE@@@std@@@?$allocator@U_Node@?$_Tree_nod@V?$_Tmap_traits@KPAUtagGATE@@U?$less@K@std@@V?$allocator@U?$pair@$$CBKPAUtagGATE@@@std@@@3@$0A@@std@@@std@@@std@@QAE@ABV?$allocator@U?$pair@$$CBKPAUtagGATE@@@std@@@1@@Z
_TEXT	SEGMENT PARA USE32 PUBLIC 'CODE'
_TEXT	ENDS
;	COMDAT ??$_Construct@PAU_Node@?$_Tree_nod@V?$_Tmap_traits@KPAUtagGATE@@U?$less@K@std@@V?$allocator@U?$pair@$$CBKPAUtagGATE@@@std@@@3@$0A@@std@@@std@@PAU123@@std@@YAXPAPAU_Node@?$_Tree_nod@V?$_Tmap_traits@KPAUtagGATE@@U?$less@K@std@@V?$allocator@U?$pair@$$CBKPAUtagGATE@@@std@@@3@$0A@@std@@@0@ABQAU120@@Z
_TEXT	SEGMENT PARA USE32 PUBLIC 'CODE'
_TEXT	ENDS
;	COMDAT ?construct@?$allocator@UtagTCASHITMSALE@@@std@@QAEXPAUtagTCASHITMSALE@@ABU3@@Z
_TEXT	SEGMENT PARA USE32 PUBLIC 'CODE'
_TEXT	ENDS
;	COMDAT ?destroy@?$allocator@UtagTCASHITMSALE@@@std@@QAEXPAUtagTCASHITMSALE@@@Z
_TEXT	SEGMENT PARA USE32 PUBLIC 'CODE'
_TEXT	ENDS
;	COMDAT ?construct@?$allocator@UtagMONREGEN@@@std@@QAEXPAUtagMONREGEN@@ABU3@@Z
_TEXT	SEGMENT PARA USE32 PUBLIC 'CODE'
_TEXT	ENDS
;	COMDAT ?destroy@?$allocator@UtagMONREGEN@@@std@@QAEXPAUtagMONREGEN@@@Z
_TEXT	SEGMENT PARA USE32 PUBLIC 'CODE'
_TEXT	ENDS
;	COMDAT ?construct@?$allocator@UtagLOTTERY@@@std@@QAEXPAUtagLOTTERY@@ABU3@@Z
_TEXT	SEGMENT PARA USE32 PUBLIC 'CODE'
_TEXT	ENDS
;	COMDAT ?destroy@?$allocator@UtagLOTTERY@@@std@@QAEXPAUtagLOTTERY@@@Z
_TEXT	SEGMENT PARA USE32 PUBLIC 'CODE'
_TEXT	ENDS
;	COMDAT ??$fill_n@PAGIG@std@@YAXPAGIABG@Z
_TEXT	SEGMENT PARA USE32 PUBLIC 'CODE'
_TEXT	ENDS
;	COMDAT ??$_Uninit_copy@GG@std@@YAPAGPAG00AAV?$allocator@G@0@U_Scalar_ptr_iterator_tag@0@@Z
_TEXT	SEGMENT PARA USE32 PUBLIC 'CODE'
_TEXT	ENDS
;	COMDAT ??$_Uninit_copy@PAUtagTCASHITMSALE@@PAU1@V?$allocator@UtagTCASHITMSALE@@@std@@@std@@YAPAUtagTCASHITMSALE@@PAU1@00AAV?$allocator@UtagTCASHITMSALE@@@0@U_Nonscalar_ptr_iterator_tag@0@@Z
_TEXT	SEGMENT PARA USE32 PUBLIC 'CODE'
_TEXT	ENDS
;	COMDAT ??$_Uninit_copy@PAUtagMONREGEN@@PAU1@V?$allocator@UtagMONREGEN@@@std@@@std@@YAPAUtagMONREGEN@@PAU1@00AAV?$allocator@UtagMONREGEN@@@0@U_Nonscalar_ptr_iterator_tag@0@@Z
_TEXT	SEGMENT PARA USE32 PUBLIC 'CODE'
_TEXT	ENDS
;	COMDAT ??$_Uninit_copy@PAUtagLOTTERY@@PAU1@V?$allocator@UtagLOTTERY@@@std@@@std@@YAPAUtagLOTTERY@@PAU1@00AAV?$allocator@UtagLOTTERY@@@0@U_Nonscalar_ptr_iterator_tag@0@@Z
_TEXT	SEGMENT PARA USE32 PUBLIC 'CODE'
_TEXT	ENDS
;	COMDAT ??$_Construct@UtagTCASHITMSALE@@U1@@std@@YAXPAUtagTCASHITMSALE@@ABU1@@Z
_TEXT	SEGMENT PARA USE32 PUBLIC 'CODE'
_TEXT	ENDS
;	COMDAT ??$_Destroy@UtagTCASHITMSALE@@@std@@YAXPAUtagTCASHITMSALE@@@Z
_TEXT	SEGMENT PARA USE32 PUBLIC 'CODE'
_TEXT	ENDS
;	COMDAT ??$_Construct@UtagMONREGEN@@U1@@std@@YAXPAUtagMONREGEN@@ABU1@@Z
_TEXT	SEGMENT PARA USE32 PUBLIC 'CODE'
_TEXT	ENDS
;	COMDAT ??$_Destroy@UtagMONREGEN@@@std@@YAXPAUtagMONREGEN@@@Z
_TEXT	SEGMENT PARA USE32 PUBLIC 'CODE'
_TEXT	ENDS
;	COMDAT ??$_Construct@UtagLOTTERY@@U1@@std@@YAXPAUtagLOTTERY@@ABU1@@Z
_TEXT	SEGMENT PARA USE32 PUBLIC 'CODE'
_TEXT	ENDS
;	COMDAT ??$_Destroy@UtagLOTTERY@@@std@@YAXPAUtagLOTTERY@@@Z
_TEXT	SEGMENT PARA USE32 PUBLIC 'CODE'
_TEXT	ENDS
;	COMDAT ?_Ptr_cat@std@@YA?AU_Scalar_ptr_iterator_tag@1@PAG0@Z
_TEXT	SEGMENT PARA USE32 PUBLIC 'CODE'
_TEXT	ENDS
;	COMDAT ?_Psave@?$_Facetptr@V?$ctype@G@std@@@std@@2PBVfacet@locale@2@B
_DATA	SEGMENT DWORD USE32 PUBLIC 'DATA'
_DATA	ENDS
;	COMDAT ?_Psave@?$_Facetptr@V?$ctype@D@std@@@std@@2PBVfacet@locale@2@B
_DATA	SEGMENT DWORD USE32 PUBLIC 'DATA'
_DATA	ENDS
;	COMDAT ?Unlock@CComCriticalSection@ATL@@QAEJXZ
_TEXT	SEGMENT PARA USE32 PUBLIC 'CODE'
_TEXT	ENDS
;	COMDAT ??3@YAXPAX0@Z
_TEXT	SEGMENT PARA USE32 PUBLIC 'CODE'
_TEXT	ENDS
;	COMDAT ??2@YAPAXIPAX@Z
_TEXT	SEGMENT PARA USE32 PUBLIC 'CODE'
_TEXT	ENDS
;	COMDAT __TI3?AVlength_error@std@@
xdata$x	SEGMENT DWORD USE32 PUBLIC 'CONST'
xdata$x	ENDS
;	COMDAT ??1length_error@std@@UAE@XZ
_TEXT	SEGMENT PARA USE32 PUBLIC 'CODE'
_TEXT	ENDS
;	COMDAT ??_7length_error@std@@6B@
CONST	SEGMENT DWORD USE32 PUBLIC 'CONST'
CONST	ENDS
;	COMDAT ??_Glength_error@std@@UAEPAXI@Z
_TEXT	SEGMENT PARA USE32 PUBLIC 'CODE'
_TEXT	ENDS
;	COMDAT ?what@logic_error@std@@UBEPBDXZ
_TEXT	SEGMENT PARA USE32 PUBLIC 'CODE'
_TEXT	ENDS
;	COMDAT ?c_str@?$basic_string@DU?$char_traits@D@std@@V?$allocator@D@2@@std@@QBEPBDXZ
_TEXT	SEGMENT PARA USE32 PUBLIC 'CODE'
_TEXT	ENDS
;	COMDAT ?_Myptr@?$basic_string@DU?$char_traits@D@std@@V?$allocator@D@2@@std@@QBEPBDXZ
_TEXT	SEGMENT PARA USE32 PUBLIC 'CODE'
_TEXT	ENDS
;	COMDAT ??1logic_error@std@@UAE@XZ
_TEXT	SEGMENT PARA USE32 PUBLIC 'CODE'
_TEXT	ENDS
;	COMDAT ??_7logic_error@std@@6B@
CONST	SEGMENT DWORD USE32 PUBLIC 'CONST'
CONST	ENDS
;	COMDAT ??_Glogic_error@std@@UAEPAXI@Z
_TEXT	SEGMENT PARA USE32 PUBLIC 'CODE'
_TEXT	ENDS
;	COMDAT __CTA3?AVlength_error@std@@
xdata$x	SEGMENT DWORD USE32 PUBLIC 'CONST'
xdata$x	ENDS
;	COMDAT __CT??_R0?AVlength_error@std@@@8??0length_error@std@@QAE@ABV01@@Z40
xdata$x	SEGMENT DWORD USE32 PUBLIC 'CONST'
xdata$x	ENDS
;	COMDAT ??_R0?AVlength_error@std@@@8
_DATA	SEGMENT DWORD USE32 PUBLIC 'DATA'
_DATA	ENDS
;	COMDAT ??0length_error@std@@QAE@ABV01@@Z
_TEXT	SEGMENT PARA USE32 PUBLIC 'CODE'
_TEXT	ENDS
;	COMDAT ??0logic_error@std@@QAE@ABV01@@Z
_TEXT	SEGMENT PARA USE32 PUBLIC 'CODE'
_TEXT	ENDS
;	COMDAT ??0?$basic_string@DU?$char_traits@D@std@@V?$allocator@D@2@@std@@QAE@ABV01@@Z
_TEXT	SEGMENT PARA USE32 PUBLIC 'CODE'
_TEXT	ENDS
;	COMDAT ??0?$_String_val@DV?$allocator@D@std@@@std@@IAE@V?$allocator@D@1@@Z
_TEXT	SEGMENT PARA USE32 PUBLIC 'CODE'
_TEXT	ENDS
;	COMDAT ??0?$allocator@D@std@@QAE@ABV01@@Z
_TEXT	SEGMENT PARA USE32 PUBLIC 'CODE'
_TEXT	ENDS
;	COMDAT ?_Tidy@?$basic_string@DU?$char_traits@D@std@@V?$allocator@D@2@@std@@IAEX_NI@Z
_TEXT	SEGMENT PARA USE32 PUBLIC 'CODE'
_TEXT	ENDS
;	COMDAT ?copy@?$char_traits@D@std@@SAPADPADPBDI@Z
_TEXT	SEGMENT PARA USE32 PUBLIC 'CODE'
_TEXT	ENDS
;	COMDAT ?deallocate@?$allocator@D@std@@QAEXPADI@Z
_TEXT	SEGMENT PARA USE32 PUBLIC 'CODE'
_TEXT	ENDS
;	COMDAT ?_Eos@?$basic_string@DU?$char_traits@D@std@@V?$allocator@D@2@@std@@IAEXI@Z
_TEXT	SEGMENT PARA USE32 PUBLIC 'CODE'
_TEXT	ENDS
;	COMDAT ?assign@?$char_traits@D@std@@SAXAADABD@Z
_TEXT	SEGMENT PARA USE32 PUBLIC 'CODE'
_TEXT	ENDS
;	COMDAT ?_Myptr@?$basic_string@DU?$char_traits@D@std@@V?$allocator@D@2@@std@@QAEPADXZ
_TEXT	SEGMENT PARA USE32 PUBLIC 'CODE'
_TEXT	ENDS
;	COMDAT ?assign@?$basic_string@DU?$char_traits@D@std@@V?$allocator@D@2@@std@@QAEAAV12@ABV12@II@Z
_TEXT	SEGMENT PARA USE32 PUBLIC 'CODE'
_TEXT	ENDS
;	COMDAT ?size@?$basic_string@DU?$char_traits@D@std@@V?$allocator@D@2@@std@@QBEIXZ
_TEXT	SEGMENT PARA USE32 PUBLIC 'CODE'
_TEXT	ENDS
;	COMDAT ?erase@?$basic_string@DU?$char_traits@D@std@@V?$allocator@D@2@@std@@QAEAAV12@II@Z
_TEXT	SEGMENT PARA USE32 PUBLIC 'CODE'
_TEXT	ENDS
;	COMDAT ?move@?$char_traits@D@std@@SAPADPADPBDI@Z
_TEXT	SEGMENT PARA USE32 PUBLIC 'CODE'
_TEXT	ENDS
;	COMDAT ?_Grow@?$basic_string@DU?$char_traits@D@std@@V?$allocator@D@2@@std@@IAE_NI_N@Z
_TEXT	SEGMENT PARA USE32 PUBLIC 'CODE'
_TEXT	ENDS
;	COMDAT ?max_size@?$basic_string@DU?$char_traits@D@std@@V?$allocator@D@2@@std@@QBEIXZ
_TEXT	SEGMENT PARA USE32 PUBLIC 'CODE'
_TEXT	ENDS
;	COMDAT ?max_size@?$allocator@D@std@@QBEIXZ
_TEXT	SEGMENT PARA USE32 PUBLIC 'CODE'
_TEXT	ENDS
;	COMDAT ?_Copy@?$basic_string@DU?$char_traits@D@std@@V?$allocator@D@2@@std@@IAEXII@Z
_TEXT	SEGMENT PARA USE32 PUBLIC 'CODE'
_TEXT	ENDS
;	COMDAT ?allocate@?$allocator@D@std@@QAEPADI@Z
_TEXT	SEGMENT PARA USE32 PUBLIC 'CODE'
_TEXT	ENDS
;	COMDAT ??$_Allocate@D@std@@YAPADIPAD@Z
_TEXT	SEGMENT PARA USE32 PUBLIC 'CODE'
_TEXT	ENDS
;	COMDAT ?npos@?$basic_string@DU?$char_traits@D@std@@V?$allocator@D@2@@std@@2IB
CONST	SEGMENT DWORD USE32 PUBLIC 'CONST'
CONST	ENDS
;	COMDAT __CT??_R0?AVlogic_error@std@@@8??0logic_error@std@@QAE@ABV01@@Z40
xdata$x	SEGMENT DWORD USE32 PUBLIC 'CONST'
xdata$x	ENDS
;	COMDAT ??_R0?AVlogic_error@std@@@8
_DATA	SEGMENT DWORD USE32 PUBLIC 'DATA'
_DATA	ENDS
;	COMDAT __CT??_R0?AVexception@@@8??0exception@@QAE@ABV0@@Z12
xdata$x	SEGMENT DWORD USE32 PUBLIC 'CONST'
xdata$x	ENDS
;	COMDAT ??_R0?AVexception@@@8
_DATA	SEGMENT DWORD USE32 PUBLIC 'DATA'
_DATA	ENDS
;	COMDAT ??0length_error@std@@QAE@ABV?$basic_string@DU?$char_traits@D@std@@V?$allocator@D@2@@1@@Z
_TEXT	SEGMENT PARA USE32 PUBLIC 'CODE'
_TEXT	ENDS
;	COMDAT ??0logic_error@std@@QAE@ABV?$basic_string@DU?$char_traits@D@std@@V?$allocator@D@2@@1@@Z
_TEXT	SEGMENT PARA USE32 PUBLIC 'CODE'
_TEXT	ENDS
;	COMDAT ??$swap@D@std@@YAXAAD0@Z
_TEXT	SEGMENT PARA USE32 PUBLIC 'CODE'
_TEXT	ENDS
;	COMDAT __TI3?AVout_of_range@std@@
xdata$x	SEGMENT DWORD USE32 PUBLIC 'CONST'
xdata$x	ENDS
;	COMDAT ??1out_of_range@std@@UAE@XZ
_TEXT	SEGMENT PARA USE32 PUBLIC 'CODE'
_TEXT	ENDS
;	COMDAT ??_7out_of_range@std@@6B@
CONST	SEGMENT DWORD USE32 PUBLIC 'CONST'
CONST	ENDS
;	COMDAT ??_Gout_of_range@std@@UAEPAXI@Z
_TEXT	SEGMENT PARA USE32 PUBLIC 'CODE'
_TEXT	ENDS
;	COMDAT __CTA3?AVout_of_range@std@@
xdata$x	SEGMENT DWORD USE32 PUBLIC 'CONST'
xdata$x	ENDS
;	COMDAT __CT??_R0?AVout_of_range@std@@@8??0out_of_range@std@@QAE@ABV01@@Z40
xdata$x	SEGMENT DWORD USE32 PUBLIC 'CONST'
xdata$x	ENDS
;	COMDAT ??_R0?AVout_of_range@std@@@8
_DATA	SEGMENT DWORD USE32 PUBLIC 'DATA'
_DATA	ENDS
;	COMDAT ??0out_of_range@std@@QAE@ABV01@@Z
_TEXT	SEGMENT PARA USE32 PUBLIC 'CODE'
_TEXT	ENDS
;	COMDAT ??1?$basic_string@DU?$char_traits@D@std@@V?$allocator@D@2@@std@@QAE@XZ
_TEXT	SEGMENT PARA USE32 PUBLIC 'CODE'
_TEXT	ENDS
;	COMDAT ??_C@_0BM@PAPJHAGI@invalid?5map?1set?$DMT?$DO?5iterator?$AA@
CONST	SEGMENT DWORD USE32 PUBLIC 'CONST'
CONST	ENDS
;	COMDAT ??0?$basic_string@DU?$char_traits@D@std@@V?$allocator@D@2@@std@@QAE@PBD@Z
_TEXT	SEGMENT PARA USE32 PUBLIC 'CODE'
_TEXT	ENDS
;	COMDAT ??0?$allocator@D@std@@QAE@XZ
_TEXT	SEGMENT PARA USE32 PUBLIC 'CODE'
_TEXT	ENDS
;	COMDAT ?assign@?$basic_string@DU?$char_traits@D@std@@V?$allocator@D@2@@std@@QAEAAV12@PBD@Z
_TEXT	SEGMENT PARA USE32 PUBLIC 'CODE'
_TEXT	ENDS
;	COMDAT ?assign@?$basic_string@DU?$char_traits@D@std@@V?$allocator@D@2@@std@@QAEAAV12@PBDI@Z
_TEXT	SEGMENT PARA USE32 PUBLIC 'CODE'
_TEXT	ENDS
;	COMDAT ?_Inside@?$basic_string@DU?$char_traits@D@std@@V?$allocator@D@2@@std@@IAE_NPBD@Z
_TEXT	SEGMENT PARA USE32 PUBLIC 'CODE'
_TEXT	ENDS
;	COMDAT ?length@?$char_traits@D@std@@SAIPBD@Z
_TEXT	SEGMENT PARA USE32 PUBLIC 'CODE'
_TEXT	ENDS
;	COMDAT ??0out_of_range@std@@QAE@ABV?$basic_string@DU?$char_traits@D@std@@V?$allocator@D@2@@1@@Z
_TEXT	SEGMENT PARA USE32 PUBLIC 'CODE'
_TEXT	ENDS
;	COMDAT ??_7CTCell@@6B@
CONST	SEGMENT DWORD USE32 PUBLIC 'CONST'
CONST	ENDS
sxdata	SEGMENT DWORD USE32 'SXDATA'
sxdata	ENDS
FLAT	GROUP _DATA, CONST, _BSS
	ASSUME	CS: FLAT, DS: FLAT, SS: FLAT
endif

INCLUDELIB LIBCMT
INCLUDELIB OLDNAMES

PUBLIC	?IsMainCell@CTCell@@QAEEE@Z			; CTCell::IsMainCell
; Function compile flags: /Ogty
; File c:\users\pierr\desktop\4story - oldschool\sources\tserver\tmapsvr\tcell.cpp
;	COMDAT ?IsMainCell@CTCell@@QAEEE@Z
_TEXT	SEGMENT
_bChannel$ = 8						; size = 1
?IsMainCell@CTCell@@QAEEE@Z PROC NEAR			; CTCell::IsMainCell, COMDAT
; _this$ = ecx

; 41   : 	return bChannel == MAX_CHANNEL || (m_vEnable[bChannel] && !m_vExtCell[bChannel]) ? TRUE : FALSE;

  00000	8a 44 24 04	 mov	 al, BYTE PTR _bChannel$[esp-4]
  00004	3c 1e		 cmp	 al, 30			; 0000001eH
  00006	74 1e		 je	 SHORT $L156937
  00008	0f b6 c0	 movzx	 eax, al
  0000b	03 c1		 add	 eax, ecx
  0000d	8a 88 5a 01 00
	00		 mov	 cl, BYTE PTR [eax+346]
  00013	84 c9		 test	 cl, cl
  00015	74 0a		 je	 SHORT $L156936
  00017	8a 88 3c 01 00
	00		 mov	 cl, BYTE PTR [eax+316]
  0001d	84 c9		 test	 cl, cl
  0001f	74 05		 je	 SHORT $L156937
$L156936:
  00021	33 c0		 xor	 eax, eax

; 42   : }

  00023	c2 04 00	 ret	 4
$L156937:

; 41   : 	return bChannel == MAX_CHANNEL || (m_vEnable[bChannel] && !m_vExtCell[bChannel]) ? TRUE : FALSE;

  00026	b8 01 00 00 00	 mov	 eax, 1

; 42   : }

  0002b	c2 04 00	 ret	 4
?IsMainCell@CTCell@@QAEEE@Z ENDP			; CTCell::IsMainCell
_TEXT	ENDS
PUBLIC	?IsEnable@CTCell@@QAEEE@Z			; CTCell::IsEnable
; Function compile flags: /Ogty
;	COMDAT ?IsEnable@CTCell@@QAEEE@Z
_TEXT	SEGMENT
_bChannel$ = 8						; size = 1
?IsEnable@CTCell@@QAEEE@Z PROC NEAR			; CTCell::IsEnable, COMDAT
; _this$ = ecx

; 46   : 	return bChannel == MAX_CHANNEL || m_vEnable[bChannel] ? TRUE : FALSE;

  00000	8a 44 24 04	 mov	 al, BYTE PTR _bChannel$[esp-4]
  00004	3c 1e		 cmp	 al, 30			; 0000001eH
  00006	74 13		 je	 SHORT $L156944
  00008	0f b6 c0	 movzx	 eax, al
  0000b	8a 94 08 5a 01
	00 00		 mov	 dl, BYTE PTR [eax+ecx+346]
  00012	84 d2		 test	 dl, dl
  00014	75 05		 jne	 SHORT $L156944
  00016	33 c0		 xor	 eax, eax

; 47   : }

  00018	c2 04 00	 ret	 4
$L156944:

; 46   : 	return bChannel == MAX_CHANNEL || m_vEnable[bChannel] ? TRUE : FALSE;

  0001b	b8 01 00 00 00	 mov	 eax, 1

; 47   : }

  00020	c2 04 00	 ret	 4
?IsEnable@CTCell@@QAEEE@Z ENDP				; CTCell::IsEnable
_TEXT	ENDS
PUBLIC	??8const_iterator@?$_Tree@V?$_Tmap_traits@KPAVCTRecallMon@@U?$less@K@std@@V?$allocator@U?$pair@$$CBKPAVCTRecallMon@@@std@@@3@$0A@@std@@@std@@QBE_NABV012@@Z ; std::_Tree<std::_Tmap_traits<unsigned long,CTRecallMon *,std::less<unsigned long>,std::allocator<std::pair<unsigned long const ,CTRecallMon *> >,0> >::const_iterator::operator==
; Function compile flags: /Ogty
; File c:\program files (x86)\microsoft visual studio .net 2003\vc7\include\xtree
;	COMDAT ??8const_iterator@?$_Tree@V?$_Tmap_traits@KPAVCTRecallMon@@U?$less@K@std@@V?$allocator@U?$pair@$$CBKPAVCTRecallMon@@@std@@@3@$0A@@std@@@std@@QBE_NABV012@@Z
_TEXT	SEGMENT
__Right$ = 8						; size = 4
??8const_iterator@?$_Tree@V?$_Tmap_traits@KPAVCTRecallMon@@U?$less@K@std@@V?$allocator@U?$pair@$$CBKPAVCTRecallMon@@@std@@@3@$0A@@std@@@std@@QBE_NABV012@@Z PROC NEAR ; std::_Tree<std::_Tmap_traits<unsigned long,CTRecallMon *,std::less<unsigned long>,std::allocator<std::pair<unsigned long const ,CTRecallMon *> >,0> >::const_iterator::operator==, COMDAT
; _this$ = ecx

; 241  : 			return (_Ptr == _Right._Ptr);

  00000	8b 01		 mov	 eax, DWORD PTR [ecx]
  00002	8b 4c 24 04	 mov	 ecx, DWORD PTR __Right$[esp-4]
  00006	2b 01		 sub	 eax, DWORD PTR [ecx]
  00008	f7 d8		 neg	 eax
  0000a	1b c0		 sbb	 eax, eax
  0000c	40		 inc	 eax

; 242  : 			}

  0000d	c2 04 00	 ret	 4
??8const_iterator@?$_Tree@V?$_Tmap_traits@KPAVCTRecallMon@@U?$less@K@std@@V?$allocator@U?$pair@$$CBKPAVCTRecallMon@@@std@@@3@$0A@@std@@@std@@QBE_NABV012@@Z ENDP ; std::_Tree<std::_Tmap_traits<unsigned long,CTRecallMon *,std::less<unsigned long>,std::allocator<std::pair<unsigned long const ,CTRecallMon *> >,0> >::const_iterator::operator==
_TEXT	ENDS
PUBLIC	??9const_iterator@?$_Tree@V?$_Tmap_traits@KPAVCTRecallMon@@U?$less@K@std@@V?$allocator@U?$pair@$$CBKPAVCTRecallMon@@@std@@@3@$0A@@std@@@std@@QBE_NABV012@@Z ; std::_Tree<std::_Tmap_traits<unsigned long,CTRecallMon *,std::less<unsigned long>,std::allocator<std::pair<unsigned long const ,CTRecallMon *> >,0> >::const_iterator::operator!=
; Function compile flags: /Ogty
;	COMDAT ??9const_iterator@?$_Tree@V?$_Tmap_traits@KPAVCTRecallMon@@U?$less@K@std@@V?$allocator@U?$pair@$$CBKPAVCTRecallMon@@@std@@@3@$0A@@std@@@std@@QBE_NABV012@@Z
_TEXT	SEGMENT
__Right$ = 8						; size = 4
??9const_iterator@?$_Tree@V?$_Tmap_traits@KPAVCTRecallMon@@U?$less@K@std@@V?$allocator@U?$pair@$$CBKPAVCTRecallMon@@@std@@@3@$0A@@std@@@std@@QBE_NABV012@@Z PROC NEAR ; std::_Tree<std::_Tmap_traits<unsigned long,CTRecallMon *,std::less<unsigned long>,std::allocator<std::pair<unsigned long const ,CTRecallMon *> >,0> >::const_iterator::operator!=, COMDAT
; _this$ = ecx

; 246  : 			return (!(*this == _Right));

  00000	8b 01		 mov	 eax, DWORD PTR [ecx]
  00002	8b 54 24 04	 mov	 edx, DWORD PTR __Right$[esp-4]
  00006	56		 push	 esi
  00007	8b 32		 mov	 esi, DWORD PTR [edx]
  00009	33 c9		 xor	 ecx, ecx
  0000b	3b c6		 cmp	 eax, esi
  0000d	0f 95 c1	 setne	 cl
  00010	8a c1		 mov	 al, cl
  00012	5e		 pop	 esi

; 247  : 			}

  00013	c2 04 00	 ret	 4
??9const_iterator@?$_Tree@V?$_Tmap_traits@KPAVCTRecallMon@@U?$less@K@std@@V?$allocator@U?$pair@$$CBKPAVCTRecallMon@@@std@@@3@$0A@@std@@@std@@QBE_NABV012@@Z ENDP ; std::_Tree<std::_Tmap_traits<unsigned long,CTRecallMon *,std::less<unsigned long>,std::allocator<std::pair<unsigned long const ,CTRecallMon *> >,0> >::const_iterator::operator!=
_TEXT	ENDS
PUBLIC	??8const_iterator@?$_Tree@V?$_Tmap_traits@KPAVCTSelfObj@@U?$less@K@std@@V?$allocator@U?$pair@$$CBKPAVCTSelfObj@@@std@@@3@$0A@@std@@@std@@QBE_NABV012@@Z ; std::_Tree<std::_Tmap_traits<unsigned long,CTSelfObj *,std::less<unsigned long>,std::allocator<std::pair<unsigned long const ,CTSelfObj *> >,0> >::const_iterator::operator==
; Function compile flags: /Ogty
;	COMDAT ??8const_iterator@?$_Tree@V?$_Tmap_traits@KPAVCTSelfObj@@U?$less@K@std@@V?$allocator@U?$pair@$$CBKPAVCTSelfObj@@@std@@@3@$0A@@std@@@std@@QBE_NABV012@@Z
_TEXT	SEGMENT
__Right$ = 8						; size = 4
??8const_iterator@?$_Tree@V?$_Tmap_traits@KPAVCTSelfObj@@U?$less@K@std@@V?$allocator@U?$pair@$$CBKPAVCTSelfObj@@@std@@@3@$0A@@std@@@std@@QBE_NABV012@@Z PROC NEAR ; std::_Tree<std::_Tmap_traits<unsigned long,CTSelfObj *,std::less<unsigned long>,std::allocator<std::pair<unsigned long const ,CTSelfObj *> >,0> >::const_iterator::operator==, COMDAT
; _this$ = ecx

; 241  : 			return (_Ptr == _Right._Ptr);

  00000	8b 01		 mov	 eax, DWORD PTR [ecx]
  00002	8b 4c 24 04	 mov	 ecx, DWORD PTR __Right$[esp-4]
  00006	2b 01		 sub	 eax, DWORD PTR [ecx]
  00008	f7 d8		 neg	 eax
  0000a	1b c0		 sbb	 eax, eax
  0000c	40		 inc	 eax

; 242  : 			}

  0000d	c2 04 00	 ret	 4
??8const_iterator@?$_Tree@V?$_Tmap_traits@KPAVCTSelfObj@@U?$less@K@std@@V?$allocator@U?$pair@$$CBKPAVCTSelfObj@@@std@@@3@$0A@@std@@@std@@QBE_NABV012@@Z ENDP ; std::_Tree<std::_Tmap_traits<unsigned long,CTSelfObj *,std::less<unsigned long>,std::allocator<std::pair<unsigned long const ,CTSelfObj *> >,0> >::const_iterator::operator==
_TEXT	ENDS
PUBLIC	??9const_iterator@?$_Tree@V?$_Tmap_traits@KPAVCTSelfObj@@U?$less@K@std@@V?$allocator@U?$pair@$$CBKPAVCTSelfObj@@@std@@@3@$0A@@std@@@std@@QBE_NABV012@@Z ; std::_Tree<std::_Tmap_traits<unsigned long,CTSelfObj *,std::less<unsigned long>,std::allocator<std::pair<unsigned long const ,CTSelfObj *> >,0> >::const_iterator::operator!=
; Function compile flags: /Ogty
;	COMDAT ??9const_iterator@?$_Tree@V?$_Tmap_traits@KPAVCTSelfObj@@U?$less@K@std@@V?$allocator@U?$pair@$$CBKPAVCTSelfObj@@@std@@@3@$0A@@std@@@std@@QBE_NABV012@@Z
_TEXT	SEGMENT
__Right$ = 8						; size = 4
??9const_iterator@?$_Tree@V?$_Tmap_traits@KPAVCTSelfObj@@U?$less@K@std@@V?$allocator@U?$pair@$$CBKPAVCTSelfObj@@@std@@@3@$0A@@std@@@std@@QBE_NABV012@@Z PROC NEAR ; std::_Tree<std::_Tmap_traits<unsigned long,CTSelfObj *,std::less<unsigned long>,std::allocator<std::pair<unsigned long const ,CTSelfObj *> >,0> >::const_iterator::operator!=, COMDAT
; _this$ = ecx

; 246  : 			return (!(*this == _Right));

  00000	8b 01		 mov	 eax, DWORD PTR [ecx]
  00002	8b 54 24 04	 mov	 edx, DWORD PTR __Right$[esp-4]
  00006	56		 push	 esi
  00007	8b 32		 mov	 esi, DWORD PTR [edx]
  00009	33 c9		 xor	 ecx, ecx
  0000b	3b c6		 cmp	 eax, esi
  0000d	0f 95 c1	 setne	 cl
  00010	8a c1		 mov	 al, cl
  00012	5e		 pop	 esi

; 247  : 			}

  00013	c2 04 00	 ret	 4
??9const_iterator@?$_Tree@V?$_Tmap_traits@KPAVCTSelfObj@@U?$less@K@std@@V?$allocator@U?$pair@$$CBKPAVCTSelfObj@@@std@@@3@$0A@@std@@@std@@QBE_NABV012@@Z ENDP ; std::_Tree<std::_Tmap_traits<unsigned long,CTSelfObj *,std::less<unsigned long>,std::allocator<std::pair<unsigned long const ,CTSelfObj *> >,0> >::const_iterator::operator!=
_TEXT	ENDS
PUBLIC	??8const_iterator@?$_Tree@V?$_Tmap_traits@KPAVCTMonster@@U?$less@K@std@@V?$allocator@U?$pair@$$CBKPAVCTMonster@@@std@@@3@$0A@@std@@@std@@QBE_NABV012@@Z ; std::_Tree<std::_Tmap_traits<unsigned long,CTMonster *,std::less<unsigned long>,std::allocator<std::pair<unsigned long const ,CTMonster *> >,0> >::const_iterator::operator==
; Function compile flags: /Ogty
;	COMDAT ??8const_iterator@?$_Tree@V?$_Tmap_traits@KPAVCTMonster@@U?$less@K@std@@V?$allocator@U?$pair@$$CBKPAVCTMonster@@@std@@@3@$0A@@std@@@std@@QBE_NABV012@@Z
_TEXT	SEGMENT
__Right$ = 8						; size = 4
??8const_iterator@?$_Tree@V?$_Tmap_traits@KPAVCTMonster@@U?$less@K@std@@V?$allocator@U?$pair@$$CBKPAVCTMonster@@@std@@@3@$0A@@std@@@std@@QBE_NABV012@@Z PROC NEAR ; std::_Tree<std::_Tmap_traits<unsigned long,CTMonster *,std::less<unsigned long>,std::allocator<std::pair<unsigned long const ,CTMonster *> >,0> >::const_iterator::operator==, COMDAT
; _this$ = ecx

; 241  : 			return (_Ptr == _Right._Ptr);

  00000	8b 01		 mov	 eax, DWORD PTR [ecx]
  00002	8b 4c 24 04	 mov	 ecx, DWORD PTR __Right$[esp-4]
  00006	2b 01		 sub	 eax, DWORD PTR [ecx]
  00008	f7 d8		 neg	 eax
  0000a	1b c0		 sbb	 eax, eax
  0000c	40		 inc	 eax

; 242  : 			}

  0000d	c2 04 00	 ret	 4
??8const_iterator@?$_Tree@V?$_Tmap_traits@KPAVCTMonster@@U?$less@K@std@@V?$allocator@U?$pair@$$CBKPAVCTMonster@@@std@@@3@$0A@@std@@@std@@QBE_NABV012@@Z ENDP ; std::_Tree<std::_Tmap_traits<unsigned long,CTMonster *,std::less<unsigned long>,std::allocator<std::pair<unsigned long const ,CTMonster *> >,0> >::const_iterator::operator==
_TEXT	ENDS
PUBLIC	??9const_iterator@?$_Tree@V?$_Tmap_traits@KPAVCTMonster@@U?$less@K@std@@V?$allocator@U?$pair@$$CBKPAVCTMonster@@@std@@@3@$0A@@std@@@std@@QBE_NABV012@@Z ; std::_Tree<std::_Tmap_traits<unsigned long,CTMonster *,std::less<unsigned long>,std::allocator<std::pair<unsigned long const ,CTMonster *> >,0> >::const_iterator::operator!=
; Function compile flags: /Ogty
;	COMDAT ??9const_iterator@?$_Tree@V?$_Tmap_traits@KPAVCTMonster@@U?$less@K@std@@V?$allocator@U?$pair@$$CBKPAVCTMonster@@@std@@@3@$0A@@std@@@std@@QBE_NABV012@@Z
_TEXT	SEGMENT
__Right$ = 8						; size = 4
??9const_iterator@?$_Tree@V?$_Tmap_traits@KPAVCTMonster@@U?$less@K@std@@V?$allocator@U?$pair@$$CBKPAVCTMonster@@@std@@@3@$0A@@std@@@std@@QBE_NABV012@@Z PROC NEAR ; std::_Tree<std::_Tmap_traits<unsigned long,CTMonster *,std::less<unsigned long>,std::allocator<std::pair<unsigned long const ,CTMonster *> >,0> >::const_iterator::operator!=, COMDAT
; _this$ = ecx

; 246  : 			return (!(*this == _Right));

  00000	8b 01		 mov	 eax, DWORD PTR [ecx]
  00002	8b 54 24 04	 mov	 edx, DWORD PTR __Right$[esp-4]
  00006	56		 push	 esi
  00007	8b 32		 mov	 esi, DWORD PTR [edx]
  00009	33 c9		 xor	 ecx, ecx
  0000b	3b c6		 cmp	 eax, esi
  0000d	0f 95 c1	 setne	 cl
  00010	8a c1		 mov	 al, cl
  00012	5e		 pop	 esi

; 247  : 			}

  00013	c2 04 00	 ret	 4
??9const_iterator@?$_Tree@V?$_Tmap_traits@KPAVCTMonster@@U?$less@K@std@@V?$allocator@U?$pair@$$CBKPAVCTMonster@@@std@@@3@$0A@@std@@@std@@QBE_NABV012@@Z ENDP ; std::_Tree<std::_Tmap_traits<unsigned long,CTMonster *,std::less<unsigned long>,std::allocator<std::pair<unsigned long const ,CTMonster *> >,0> >::const_iterator::operator!=
_TEXT	ENDS
PUBLIC	??8const_iterator@?$_Tree@V?$_Tmap_traits@KPAVCTPlayer@@U?$less@K@std@@V?$allocator@U?$pair@$$CBKPAVCTPlayer@@@std@@@3@$0A@@std@@@std@@QBE_NABV012@@Z ; std::_Tree<std::_Tmap_traits<unsigned long,CTPlayer *,std::less<unsigned long>,std::allocator<std::pair<unsigned long const ,CTPlayer *> >,0> >::const_iterator::operator==
; Function compile flags: /Ogty
;	COMDAT ??8const_iterator@?$_Tree@V?$_Tmap_traits@KPAVCTPlayer@@U?$less@K@std@@V?$allocator@U?$pair@$$CBKPAVCTPlayer@@@std@@@3@$0A@@std@@@std@@QBE_NABV012@@Z
_TEXT	SEGMENT
__Right$ = 8						; size = 4
??8const_iterator@?$_Tree@V?$_Tmap_traits@KPAVCTPlayer@@U?$less@K@std@@V?$allocator@U?$pair@$$CBKPAVCTPlayer@@@std@@@3@$0A@@std@@@std@@QBE_NABV012@@Z PROC NEAR ; std::_Tree<std::_Tmap_traits<unsigned long,CTPlayer *,std::less<unsigned long>,std::allocator<std::pair<unsigned long const ,CTPlayer *> >,0> >::const_iterator::operator==, COMDAT
; _this$ = ecx

; 241  : 			return (_Ptr == _Right._Ptr);

  00000	8b 01		 mov	 eax, DWORD PTR [ecx]
  00002	8b 4c 24 04	 mov	 ecx, DWORD PTR __Right$[esp-4]
  00006	2b 01		 sub	 eax, DWORD PTR [ecx]
  00008	f7 d8		 neg	 eax
  0000a	1b c0		 sbb	 eax, eax
  0000c	40		 inc	 eax

; 242  : 			}

  0000d	c2 04 00	 ret	 4
??8const_iterator@?$_Tree@V?$_Tmap_traits@KPAVCTPlayer@@U?$less@K@std@@V?$allocator@U?$pair@$$CBKPAVCTPlayer@@@std@@@3@$0A@@std@@@std@@QBE_NABV012@@Z ENDP ; std::_Tree<std::_Tmap_traits<unsigned long,CTPlayer *,std::less<unsigned long>,std::allocator<std::pair<unsigned long const ,CTPlayer *> >,0> >::const_iterator::operator==
_TEXT	ENDS
PUBLIC	??9const_iterator@?$_Tree@V?$_Tmap_traits@KPAVCTPlayer@@U?$less@K@std@@V?$allocator@U?$pair@$$CBKPAVCTPlayer@@@std@@@3@$0A@@std@@@std@@QBE_NABV012@@Z ; std::_Tree<std::_Tmap_traits<unsigned long,CTPlayer *,std::less<unsigned long>,std::allocator<std::pair<unsigned long const ,CTPlayer *> >,0> >::const_iterator::operator!=
; Function compile flags: /Ogty
;	COMDAT ??9const_iterator@?$_Tree@V?$_Tmap_traits@KPAVCTPlayer@@U?$less@K@std@@V?$allocator@U?$pair@$$CBKPAVCTPlayer@@@std@@@3@$0A@@std@@@std@@QBE_NABV012@@Z
_TEXT	SEGMENT
__Right$ = 8						; size = 4
??9const_iterator@?$_Tree@V?$_Tmap_traits@KPAVCTPlayer@@U?$less@K@std@@V?$allocator@U?$pair@$$CBKPAVCTPlayer@@@std@@@3@$0A@@std@@@std@@QBE_NABV012@@Z PROC NEAR ; std::_Tree<std::_Tmap_traits<unsigned long,CTPlayer *,std::less<unsigned long>,std::allocator<std::pair<unsigned long const ,CTPlayer *> >,0> >::const_iterator::operator!=, COMDAT
; _this$ = ecx

; 246  : 			return (!(*this == _Right));

  00000	8b 01		 mov	 eax, DWORD PTR [ecx]
  00002	8b 54 24 04	 mov	 edx, DWORD PTR __Right$[esp-4]
  00006	56		 push	 esi
  00007	8b 32		 mov	 esi, DWORD PTR [edx]
  00009	33 c9		 xor	 ecx, ecx
  0000b	3b c6		 cmp	 eax, esi
  0000d	0f 95 c1	 setne	 cl
  00010	8a c1		 mov	 al, cl
  00012	5e		 pop	 esi

; 247  : 			}

  00013	c2 04 00	 ret	 4
??9const_iterator@?$_Tree@V?$_Tmap_traits@KPAVCTPlayer@@U?$less@K@std@@V?$allocator@U?$pair@$$CBKPAVCTPlayer@@@std@@@3@$0A@@std@@@std@@QBE_NABV012@@Z ENDP ; std::_Tree<std::_Tmap_traits<unsigned long,CTPlayer *,std::less<unsigned long>,std::allocator<std::pair<unsigned long const ,CTPlayer *> >,0> >::const_iterator::operator!=
_TEXT	ENDS
PUBLIC	??8const_iterator@?$_Tree@V?$_Tmap_traits@KPAUtagSWITCH@@U?$less@K@std@@V?$allocator@U?$pair@$$CBKPAUtagSWITCH@@@std@@@3@$0A@@std@@@std@@QBE_NABV012@@Z ; std::_Tree<std::_Tmap_traits<unsigned long,tagSWITCH *,std::less<unsigned long>,std::allocator<std::pair<unsigned long const ,tagSWITCH *> >,0> >::const_iterator::operator==
; Function compile flags: /Ogty
;	COMDAT ??8const_iterator@?$_Tree@V?$_Tmap_traits@KPAUtagSWITCH@@U?$less@K@std@@V?$allocator@U?$pair@$$CBKPAUtagSWITCH@@@std@@@3@$0A@@std@@@std@@QBE_NABV012@@Z
_TEXT	SEGMENT
__Right$ = 8						; size = 4
??8const_iterator@?$_Tree@V?$_Tmap_traits@KPAUtagSWITCH@@U?$less@K@std@@V?$allocator@U?$pair@$$CBKPAUtagSWITCH@@@std@@@3@$0A@@std@@@std@@QBE_NABV012@@Z PROC NEAR ; std::_Tree<std::_Tmap_traits<unsigned long,tagSWITCH *,std::less<unsigned long>,std::allocator<std::pair<unsigned long const ,tagSWITCH *> >,0> >::const_iterator::operator==, COMDAT
; _this$ = ecx

; 241  : 			return (_Ptr == _Right._Ptr);

  00000	8b 01		 mov	 eax, DWORD PTR [ecx]
  00002	8b 4c 24 04	 mov	 ecx, DWORD PTR __Right$[esp-4]
  00006	2b 01		 sub	 eax, DWORD PTR [ecx]
  00008	f7 d8		 neg	 eax
  0000a	1b c0		 sbb	 eax, eax
  0000c	40		 inc	 eax

; 242  : 			}

  0000d	c2 04 00	 ret	 4
??8const_iterator@?$_Tree@V?$_Tmap_traits@KPAUtagSWITCH@@U?$less@K@std@@V?$allocator@U?$pair@$$CBKPAUtagSWITCH@@@std@@@3@$0A@@std@@@std@@QBE_NABV012@@Z ENDP ; std::_Tree<std::_Tmap_traits<unsigned long,tagSWITCH *,std::less<unsigned long>,std::allocator<std::pair<unsigned long const ,tagSWITCH *> >,0> >::const_iterator::operator==
_TEXT	ENDS
PUBLIC	??9const_iterator@?$_Tree@V?$_Tmap_traits@KPAUtagSWITCH@@U?$less@K@std@@V?$allocator@U?$pair@$$CBKPAUtagSWITCH@@@std@@@3@$0A@@std@@@std@@QBE_NABV012@@Z ; std::_Tree<std::_Tmap_traits<unsigned long,tagSWITCH *,std::less<unsigned long>,std::allocator<std::pair<unsigned long const ,tagSWITCH *> >,0> >::const_iterator::operator!=
; Function compile flags: /Ogty
;	COMDAT ??9const_iterator@?$_Tree@V?$_Tmap_traits@KPAUtagSWITCH@@U?$less@K@std@@V?$allocator@U?$pair@$$CBKPAUtagSWITCH@@@std@@@3@$0A@@std@@@std@@QBE_NABV012@@Z
_TEXT	SEGMENT
__Right$ = 8						; size = 4
??9const_iterator@?$_Tree@V?$_Tmap_traits@KPAUtagSWITCH@@U?$less@K@std@@V?$allocator@U?$pair@$$CBKPAUtagSWITCH@@@std@@@3@$0A@@std@@@std@@QBE_NABV012@@Z PROC NEAR ; std::_Tree<std::_Tmap_traits<unsigned long,tagSWITCH *,std::less<unsigned long>,std::allocator<std::pair<unsigned long const ,tagSWITCH *> >,0> >::const_iterator::operator!=, COMDAT
; _this$ = ecx

; 246  : 			return (!(*this == _Right));

  00000	8b 01		 mov	 eax, DWORD PTR [ecx]
  00002	8b 54 24 04	 mov	 edx, DWORD PTR __Right$[esp-4]
  00006	56		 push	 esi
  00007	8b 32		 mov	 esi, DWORD PTR [edx]
  00009	33 c9		 xor	 ecx, ecx
  0000b	3b c6		 cmp	 eax, esi
  0000d	0f 95 c1	 setne	 cl
  00010	8a c1		 mov	 al, cl
  00012	5e		 pop	 esi

; 247  : 			}

  00013	c2 04 00	 ret	 4
??9const_iterator@?$_Tree@V?$_Tmap_traits@KPAUtagSWITCH@@U?$less@K@std@@V?$allocator@U?$pair@$$CBKPAUtagSWITCH@@@std@@@3@$0A@@std@@@std@@QBE_NABV012@@Z ENDP ; std::_Tree<std::_Tmap_traits<unsigned long,tagSWITCH *,std::less<unsigned long>,std::allocator<std::pair<unsigned long const ,tagSWITCH *> >,0> >::const_iterator::operator!=
_TEXT	ENDS
PUBLIC	??8const_iterator@?$_Tree@V?$_Tmap_traits@KPAUtagGATE@@U?$less@K@std@@V?$allocator@U?$pair@$$CBKPAUtagGATE@@@std@@@3@$0A@@std@@@std@@QBE_NABV012@@Z ; std::_Tree<std::_Tmap_traits<unsigned long,tagGATE *,std::less<unsigned long>,std::allocator<std::pair<unsigned long const ,tagGATE *> >,0> >::const_iterator::operator==
; Function compile flags: /Ogty
;	COMDAT ??8const_iterator@?$_Tree@V?$_Tmap_traits@KPAUtagGATE@@U?$less@K@std@@V?$allocator@U?$pair@$$CBKPAUtagGATE@@@std@@@3@$0A@@std@@@std@@QBE_NABV012@@Z
_TEXT	SEGMENT
__Right$ = 8						; size = 4
??8const_iterator@?$_Tree@V?$_Tmap_traits@KPAUtagGATE@@U?$less@K@std@@V?$allocator@U?$pair@$$CBKPAUtagGATE@@@std@@@3@$0A@@std@@@std@@QBE_NABV012@@Z PROC NEAR ; std::_Tree<std::_Tmap_traits<unsigned long,tagGATE *,std::less<unsigned long>,std::allocator<std::pair<unsigned long const ,tagGATE *> >,0> >::const_iterator::operator==, COMDAT
; _this$ = ecx

; 241  : 			return (_Ptr == _Right._Ptr);

  00000	8b 01		 mov	 eax, DWORD PTR [ecx]
  00002	8b 4c 24 04	 mov	 ecx, DWORD PTR __Right$[esp-4]
  00006	2b 01		 sub	 eax, DWORD PTR [ecx]
  00008	f7 d8		 neg	 eax
  0000a	1b c0		 sbb	 eax, eax
  0000c	40		 inc	 eax

; 242  : 			}

  0000d	c2 04 00	 ret	 4
??8const_iterator@?$_Tree@V?$_Tmap_traits@KPAUtagGATE@@U?$less@K@std@@V?$allocator@U?$pair@$$CBKPAUtagGATE@@@std@@@3@$0A@@std@@@std@@QBE_NABV012@@Z ENDP ; std::_Tree<std::_Tmap_traits<unsigned long,tagGATE *,std::less<unsigned long>,std::allocator<std::pair<unsigned long const ,tagGATE *> >,0> >::const_iterator::operator==
_TEXT	ENDS
PUBLIC	??9const_iterator@?$_Tree@V?$_Tmap_traits@KPAUtagGATE@@U?$less@K@std@@V?$allocator@U?$pair@$$CBKPAUtagGATE@@@std@@@3@$0A@@std@@@std@@QBE_NABV012@@Z ; std::_Tree<std::_Tmap_traits<unsigned long,tagGATE *,std::less<unsigned long>,std::allocator<std::pair<unsigned long const ,tagGATE *> >,0> >::const_iterator::operator!=
; Function compile flags: /Ogty
;	COMDAT ??9const_iterator@?$_Tree@V?$_Tmap_traits@KPAUtagGATE@@U?$less@K@std@@V?$allocator@U?$pair@$$CBKPAUtagGATE@@@std@@@3@$0A@@std@@@std@@QBE_NABV012@@Z
_TEXT	SEGMENT
__Right$ = 8						; size = 4
??9const_iterator@?$_Tree@V?$_Tmap_traits@KPAUtagGATE@@U?$less@K@std@@V?$allocator@U?$pair@$$CBKPAUtagGATE@@@std@@@3@$0A@@std@@@std@@QBE_NABV012@@Z PROC NEAR ; std::_Tree<std::_Tmap_traits<unsigned long,tagGATE *,std::less<unsigned long>,std::allocator<std::pair<unsigned long const ,tagGATE *> >,0> >::const_iterator::operator!=, COMDAT
; _this$ = ecx

; 246  : 			return (!(*this == _Right));

  00000	8b 01		 mov	 eax, DWORD PTR [ecx]
  00002	8b 54 24 04	 mov	 edx, DWORD PTR __Right$[esp-4]
  00006	56		 push	 esi
  00007	8b 32		 mov	 esi, DWORD PTR [edx]
  00009	33 c9		 xor	 ecx, ecx
  0000b	3b c6		 cmp	 eax, esi
  0000d	0f 95 c1	 setne	 cl
  00010	8a c1		 mov	 al, cl
  00012	5e		 pop	 esi

; 247  : 			}

  00013	c2 04 00	 ret	 4
??9const_iterator@?$_Tree@V?$_Tmap_traits@KPAUtagGATE@@U?$less@K@std@@V?$allocator@U?$pair@$$CBKPAUtagGATE@@@std@@@3@$0A@@std@@@std@@QBE_NABV012@@Z ENDP ; std::_Tree<std::_Tmap_traits<unsigned long,tagGATE *,std::less<unsigned long>,std::allocator<std::pair<unsigned long const ,tagGATE *> >,0> >::const_iterator::operator!=
_TEXT	ENDS
PUBLIC	??0?$pair@$$CBKPAVCTRecallMon@@@std@@QAE@ABKABQAVCTRecallMon@@@Z ; std::pair<unsigned long const ,CTRecallMon *>::pair<unsigned long const ,CTRecallMon *>
; Function compile flags: /Ogty
; File c:\program files (x86)\microsoft visual studio .net 2003\vc7\include\utility
;	COMDAT ??0?$pair@$$CBKPAVCTRecallMon@@@std@@QAE@ABKABQAVCTRecallMon@@@Z
_TEXT	SEGMENT
__Val1$ = 8						; size = 4
__Val2$ = 12						; size = 4
??0?$pair@$$CBKPAVCTRecallMon@@@std@@QAE@ABKABQAVCTRecallMon@@@Z PROC NEAR ; std::pair<unsigned long const ,CTRecallMon *>::pair<unsigned long const ,CTRecallMon *>, COMDAT
; _this$ = ecx

; 34   : 		{	// construct from specified values

  00000	8b c1		 mov	 eax, ecx
  00002	8b 4c 24 04	 mov	 ecx, DWORD PTR __Val1$[esp-4]
  00006	8b 11		 mov	 edx, DWORD PTR [ecx]
  00008	8b 4c 24 08	 mov	 ecx, DWORD PTR __Val2$[esp-4]
  0000c	89 10		 mov	 DWORD PTR [eax], edx
  0000e	8b 11		 mov	 edx, DWORD PTR [ecx]
  00010	89 50 04	 mov	 DWORD PTR [eax+4], edx

; 35   : 		}

  00013	c2 08 00	 ret	 8
??0?$pair@$$CBKPAVCTRecallMon@@@std@@QAE@ABKABQAVCTRecallMon@@@Z ENDP ; std::pair<unsigned long const ,CTRecallMon *>::pair<unsigned long const ,CTRecallMon *>
_TEXT	ENDS
PUBLIC	??0?$pair@$$CBKPAVCTPlayer@@@std@@QAE@ABKABQAVCTPlayer@@@Z ; std::pair<unsigned long const ,CTPlayer *>::pair<unsigned long const ,CTPlayer *>
; Function compile flags: /Ogty
;	COMDAT ??0?$pair@$$CBKPAVCTPlayer@@@std@@QAE@ABKABQAVCTPlayer@@@Z
_TEXT	SEGMENT
__Val1$ = 8						; size = 4
__Val2$ = 12						; size = 4
??0?$pair@$$CBKPAVCTPlayer@@@std@@QAE@ABKABQAVCTPlayer@@@Z PROC NEAR ; std::pair<unsigned long const ,CTPlayer *>::pair<unsigned long const ,CTPlayer *>, COMDAT
; _this$ = ecx

; 34   : 		{	// construct from specified values

  00000	8b c1		 mov	 eax, ecx
  00002	8b 4c 24 04	 mov	 ecx, DWORD PTR __Val1$[esp-4]
  00006	8b 11		 mov	 edx, DWORD PTR [ecx]
  00008	8b 4c 24 08	 mov	 ecx, DWORD PTR __Val2$[esp-4]
  0000c	89 10		 mov	 DWORD PTR [eax], edx
  0000e	8b 11		 mov	 edx, DWORD PTR [ecx]
  00010	89 50 04	 mov	 DWORD PTR [eax+4], edx

; 35   : 		}

  00013	c2 08 00	 ret	 8
??0?$pair@$$CBKPAVCTPlayer@@@std@@QAE@ABKABQAVCTPlayer@@@Z ENDP ; std::pair<unsigned long const ,CTPlayer *>::pair<unsigned long const ,CTPlayer *>
_TEXT	ENDS
PUBLIC	??0?$pair@$$CBKPAVCTMonster@@@std@@QAE@ABKABQAVCTMonster@@@Z ; std::pair<unsigned long const ,CTMonster *>::pair<unsigned long const ,CTMonster *>
; Function compile flags: /Ogty
;	COMDAT ??0?$pair@$$CBKPAVCTMonster@@@std@@QAE@ABKABQAVCTMonster@@@Z
_TEXT	SEGMENT
__Val1$ = 8						; size = 4
__Val2$ = 12						; size = 4
??0?$pair@$$CBKPAVCTMonster@@@std@@QAE@ABKABQAVCTMonster@@@Z PROC NEAR ; std::pair<unsigned long const ,CTMonster *>::pair<unsigned long const ,CTMonster *>, COMDAT
; _this$ = ecx

; 34   : 		{	// construct from specified values

  00000	8b c1		 mov	 eax, ecx
  00002	8b 4c 24 04	 mov	 ecx, DWORD PTR __Val1$[esp-4]
  00006	8b 11		 mov	 edx, DWORD PTR [ecx]
  00008	8b 4c 24 08	 mov	 ecx, DWORD PTR __Val2$[esp-4]
  0000c	89 10		 mov	 DWORD PTR [eax], edx
  0000e	8b 11		 mov	 edx, DWORD PTR [ecx]
  00010	89 50 04	 mov	 DWORD PTR [eax+4], edx

; 35   : 		}

  00013	c2 08 00	 ret	 8
??0?$pair@$$CBKPAVCTMonster@@@std@@QAE@ABKABQAVCTMonster@@@Z ENDP ; std::pair<unsigned long const ,CTMonster *>::pair<unsigned long const ,CTMonster *>
_TEXT	ENDS
PUBLIC	??0?$pair@$$CBKPAUtagSWITCH@@@std@@QAE@ABKABQAUtagSWITCH@@@Z ; std::pair<unsigned long const ,tagSWITCH *>::pair<unsigned long const ,tagSWITCH *>
; Function compile flags: /Ogty
;	COMDAT ??0?$pair@$$CBKPAUtagSWITCH@@@std@@QAE@ABKABQAUtagSWITCH@@@Z
_TEXT	SEGMENT
__Val1$ = 8						; size = 4
__Val2$ = 12						; size = 4
??0?$pair@$$CBKPAUtagSWITCH@@@std@@QAE@ABKABQAUtagSWITCH@@@Z PROC NEAR ; std::pair<unsigned long const ,tagSWITCH *>::pair<unsigned long const ,tagSWITCH *>, COMDAT
; _this$ = ecx

; 34   : 		{	// construct from specified values

  00000	8b c1		 mov	 eax, ecx
  00002	8b 4c 24 04	 mov	 ecx, DWORD PTR __Val1$[esp-4]
  00006	8b 11		 mov	 edx, DWORD PTR [ecx]
  00008	8b 4c 24 08	 mov	 ecx, DWORD PTR __Val2$[esp-4]
  0000c	89 10		 mov	 DWORD PTR [eax], edx
  0000e	8b 11		 mov	 edx, DWORD PTR [ecx]
  00010	89 50 04	 mov	 DWORD PTR [eax+4], edx

; 35   : 		}

  00013	c2 08 00	 ret	 8
??0?$pair@$$CBKPAUtagSWITCH@@@std@@QAE@ABKABQAUtagSWITCH@@@Z ENDP ; std::pair<unsigned long const ,tagSWITCH *>::pair<unsigned long const ,tagSWITCH *>
_TEXT	ENDS
PUBLIC	??0?$pair@$$CBKPAUtagGATE@@@std@@QAE@ABKABQAUtagGATE@@@Z ; std::pair<unsigned long const ,tagGATE *>::pair<unsigned long const ,tagGATE *>
; Function compile flags: /Ogty
;	COMDAT ??0?$pair@$$CBKPAUtagGATE@@@std@@QAE@ABKABQAUtagGATE@@@Z
_TEXT	SEGMENT
__Val1$ = 8						; size = 4
__Val2$ = 12						; size = 4
??0?$pair@$$CBKPAUtagGATE@@@std@@QAE@ABKABQAUtagGATE@@@Z PROC NEAR ; std::pair<unsigned long const ,tagGATE *>::pair<unsigned long const ,tagGATE *>, COMDAT
; _this$ = ecx

; 34   : 		{	// construct from specified values

  00000	8b c1		 mov	 eax, ecx
  00002	8b 4c 24 04	 mov	 ecx, DWORD PTR __Val1$[esp-4]
  00006	8b 11		 mov	 edx, DWORD PTR [ecx]
  00008	8b 4c 24 08	 mov	 ecx, DWORD PTR __Val2$[esp-4]
  0000c	89 10		 mov	 DWORD PTR [eax], edx
  0000e	8b 11		 mov	 edx, DWORD PTR [ecx]
  00010	89 50 04	 mov	 DWORD PTR [eax+4], edx

; 35   : 		}

  00013	c2 08 00	 ret	 8
??0?$pair@$$CBKPAUtagGATE@@@std@@QAE@ABKABQAUtagGATE@@@Z ENDP ; std::pair<unsigned long const ,tagGATE *>::pair<unsigned long const ,tagGATE *>
_TEXT	ENDS
PUBLIC	??0?$pair@$$CBKPAVCTSelfObj@@@std@@QAE@ABKABQAVCTSelfObj@@@Z ; std::pair<unsigned long const ,CTSelfObj *>::pair<unsigned long const ,CTSelfObj *>
; Function compile flags: /Ogty
;	COMDAT ??0?$pair@$$CBKPAVCTSelfObj@@@std@@QAE@ABKABQAVCTSelfObj@@@Z
_TEXT	SEGMENT
__Val1$ = 8						; size = 4
__Val2$ = 12						; size = 4
??0?$pair@$$CBKPAVCTSelfObj@@@std@@QAE@ABKABQAVCTSelfObj@@@Z PROC NEAR ; std::pair<unsigned long const ,CTSelfObj *>::pair<unsigned long const ,CTSelfObj *>, COMDAT
; _this$ = ecx

; 34   : 		{	// construct from specified values

  00000	8b c1		 mov	 eax, ecx
  00002	8b 4c 24 04	 mov	 ecx, DWORD PTR __Val1$[esp-4]
  00006	8b 11		 mov	 edx, DWORD PTR [ecx]
  00008	8b 4c 24 08	 mov	 ecx, DWORD PTR __Val2$[esp-4]
  0000c	89 10		 mov	 DWORD PTR [eax], edx
  0000e	8b 11		 mov	 edx, DWORD PTR [ecx]
  00010	89 50 04	 mov	 DWORD PTR [eax+4], edx

; 35   : 		}

  00013	c2 08 00	 ret	 8
??0?$pair@$$CBKPAVCTSelfObj@@@std@@QAE@ABKABQAVCTSelfObj@@@Z ENDP ; std::pair<unsigned long const ,CTSelfObj *>::pair<unsigned long const ,CTSelfObj *>
_TEXT	ENDS
PUBLIC	??R?$less@K@std@@QBE_NABK0@Z			; std::less<unsigned long>::operator()
; Function compile flags: /Ogty
; File c:\program files (x86)\microsoft visual studio .net 2003\vc7\include\functional
;	COMDAT ??R?$less@K@std@@QBE_NABK0@Z
_TEXT	SEGMENT
__Left$ = 8						; size = 4
__Right$ = 12						; size = 4
??R?$less@K@std@@QBE_NABK0@Z PROC NEAR			; std::less<unsigned long>::operator(), COMDAT
; _this$ = ecx

; 139  : 		return (_Left < _Right);

  00000	8b 44 24 04	 mov	 eax, DWORD PTR __Left$[esp-4]
  00004	8b 08		 mov	 ecx, DWORD PTR [eax]
  00006	8b 54 24 08	 mov	 edx, DWORD PTR __Right$[esp-4]
  0000a	3b 0a		 cmp	 ecx, DWORD PTR [edx]
  0000c	1b c0		 sbb	 eax, eax
  0000e	f7 d8		 neg	 eax

; 140  : 		}

  00010	c2 08 00	 ret	 8
??R?$less@K@std@@QBE_NABK0@Z ENDP			; std::less<unsigned long>::operator()
_TEXT	ENDS
PUBLIC	?_Color@?$_Tree@V?$_Tmap_traits@KPAVCTPlayer@@U?$less@K@std@@V?$allocator@U?$pair@$$CBKPAVCTPlayer@@@std@@@3@$0A@@std@@@std@@KAAADPAU_Node@?$_Tree_nod@V?$_Tmap_traits@KPAVCTPlayer@@U?$less@K@std@@V?$allocator@U?$pair@$$CBKPAVCTPlayer@@@std@@@3@$0A@@std@@@2@@Z ; std::_Tree<std::_Tmap_traits<unsigned long,CTPlayer *,std::less<unsigned long>,std::allocator<std::pair<unsigned long const ,CTPlayer *> >,0> >::_Color
; Function compile flags: /Ogty
; File c:\program files (x86)\microsoft visual studio .net 2003\vc7\include\xtree
;	COMDAT ?_Color@?$_Tree@V?$_Tmap_traits@KPAVCTPlayer@@U?$less@K@std@@V?$allocator@U?$pair@$$CBKPAVCTPlayer@@@std@@@3@$0A@@std@@@std@@KAAADPAU_Node@?$_Tree_nod@V?$_Tmap_traits@KPAVCTPlayer@@U?$less@K@std@@V?$allocator@U?$pair@$$CBKPAVCTPlayer@@@std@@@3@$0A@@std@@@2@@Z
_TEXT	SEGMENT
__Pnode$ = 8						; size = 4
?_Color@?$_Tree@V?$_Tmap_traits@KPAVCTPlayer@@U?$less@K@std@@V?$allocator@U?$pair@$$CBKPAVCTPlayer@@@std@@@3@$0A@@std@@@std@@KAAADPAU_Node@?$_Tree_nod@V?$_Tmap_traits@KPAVCTPlayer@@U?$less@K@std@@V?$allocator@U?$pair@$$CBKPAVCTPlayer@@@std@@@3@$0A@@std@@@2@@Z PROC NEAR ; std::_Tree<std::_Tmap_traits<unsigned long,CTPlayer *,std::less<unsigned long>,std::allocator<std::pair<unsigned long const ,CTPlayer *> >,0> >::_Color, COMDAT

; 132  : 		return ((_Charref)(*_Pnode)._Color);

  00000	8b 44 24 04	 mov	 eax, DWORD PTR __Pnode$[esp-4]
  00004	83 c0 14	 add	 eax, 20			; 00000014H

; 133  : 		}

  00007	c3		 ret	 0
?_Color@?$_Tree@V?$_Tmap_traits@KPAVCTPlayer@@U?$less@K@std@@V?$allocator@U?$pair@$$CBKPAVCTPlayer@@@std@@@3@$0A@@std@@@std@@KAAADPAU_Node@?$_Tree_nod@V?$_Tmap_traits@KPAVCTPlayer@@U?$less@K@std@@V?$allocator@U?$pair@$$CBKPAVCTPlayer@@@std@@@3@$0A@@std@@@2@@Z ENDP ; std::_Tree<std::_Tmap_traits<unsigned long,CTPlayer *,std::less<unsigned long>,std::allocator<std::pair<unsigned long const ,CTPlayer *> >,0> >::_Color
_TEXT	ENDS
PUBLIC	?_Isnil@?$_Tree@V?$_Tmap_traits@KPAVCTPlayer@@U?$less@K@std@@V?$allocator@U?$pair@$$CBKPAVCTPlayer@@@std@@@3@$0A@@std@@@std@@KAAADPAU_Node@?$_Tree_nod@V?$_Tmap_traits@KPAVCTPlayer@@U?$less@K@std@@V?$allocator@U?$pair@$$CBKPAVCTPlayer@@@std@@@3@$0A@@std@@@2@@Z ; std::_Tree<std::_Tmap_traits<unsigned long,CTPlayer *,std::less<unsigned long>,std::allocator<std::pair<unsigned long const ,CTPlayer *> >,0> >::_Isnil
; Function compile flags: /Ogty
;	COMDAT ?_Isnil@?$_Tree@V?$_Tmap_traits@KPAVCTPlayer@@U?$less@K@std@@V?$allocator@U?$pair@$$CBKPAVCTPlayer@@@std@@@3@$0A@@std@@@std@@KAAADPAU_Node@?$_Tree_nod@V?$_Tmap_traits@KPAVCTPlayer@@U?$less@K@std@@V?$allocator@U?$pair@$$CBKPAVCTPlayer@@@std@@@3@$0A@@std@@@2@@Z
_TEXT	SEGMENT
__Pnode$ = 8						; size = 4
?_Isnil@?$_Tree@V?$_Tmap_traits@KPAVCTPlayer@@U?$less@K@std@@V?$allocator@U?$pair@$$CBKPAVCTPlayer@@@std@@@3@$0A@@std@@@std@@KAAADPAU_Node@?$_Tree_nod@V?$_Tmap_traits@KPAVCTPlayer@@U?$less@K@std@@V?$allocator@U?$pair@$$CBKPAVCTPlayer@@@std@@@3@$0A@@std@@@2@@Z PROC NEAR ; std::_Tree<std::_Tmap_traits<unsigned long,CTPlayer *,std::less<unsigned long>,std::allocator<std::pair<unsigned long const ,CTPlayer *> >,0> >::_Isnil, COMDAT

; 137  : 		return ((_Charref)(*_Pnode)._Isnil);

  00000	8b 44 24 04	 mov	 eax, DWORD PTR __Pnode$[esp-4]
  00004	83 c0 15	 add	 eax, 21			; 00000015H

; 138  : 		}

  00007	c3		 ret	 0
?_Isnil@?$_Tree@V?$_Tmap_traits@KPAVCTPlayer@@U?$less@K@std@@V?$allocator@U?$pair@$$CBKPAVCTPlayer@@@std@@@3@$0A@@std@@@std@@KAAADPAU_Node@?$_Tree_nod@V?$_Tmap_traits@KPAVCTPlayer@@U?$less@K@std@@V?$allocator@U?$pair@$$CBKPAVCTPlayer@@@std@@@3@$0A@@std@@@2@@Z ENDP ; std::_Tree<std::_Tmap_traits<unsigned long,CTPlayer *,std::less<unsigned long>,std::allocator<std::pair<unsigned long const ,CTPlayer *> >,0> >::_Isnil
_TEXT	ENDS
PUBLIC	?_Left@?$_Tree@V?$_Tmap_traits@KPAVCTPlayer@@U?$less@K@std@@V?$allocator@U?$pair@$$CBKPAVCTPlayer@@@std@@@3@$0A@@std@@@std@@KAAAPAU_Node@?$_Tree_nod@V?$_Tmap_traits@KPAVCTPlayer@@U?$less@K@std@@V?$allocator@U?$pair@$$CBKPAVCTPlayer@@@std@@@3@$0A@@std@@@2@PAU342@@Z ; std::_Tree<std::_Tmap_traits<unsigned long,CTPlayer *,std::less<unsigned long>,std::allocator<std::pair<unsigned long const ,CTPlayer *> >,0> >::_Left
; Function compile flags: /Ogty
;	COMDAT ?_Left@?$_Tree@V?$_Tmap_traits@KPAVCTPlayer@@U?$less@K@std@@V?$allocator@U?$pair@$$CBKPAVCTPlayer@@@std@@@3@$0A@@std@@@std@@KAAAPAU_Node@?$_Tree_nod@V?$_Tmap_traits@KPAVCTPlayer@@U?$less@K@std@@V?$allocator@U?$pair@$$CBKPAVCTPlayer@@@std@@@3@$0A@@std@@@2@PAU342@@Z
_TEXT	SEGMENT
__Pnode$ = 8						; size = 4
?_Left@?$_Tree@V?$_Tmap_traits@KPAVCTPlayer@@U?$less@K@std@@V?$allocator@U?$pair@$$CBKPAVCTPlayer@@@std@@@3@$0A@@std@@@std@@KAAAPAU_Node@?$_Tree_nod@V?$_Tmap_traits@KPAVCTPlayer@@U?$less@K@std@@V?$allocator@U?$pair@$$CBKPAVCTPlayer@@@std@@@3@$0A@@std@@@2@PAU342@@Z PROC NEAR ; std::_Tree<std::_Tmap_traits<unsigned long,CTPlayer *,std::less<unsigned long>,std::allocator<std::pair<unsigned long const ,CTPlayer *> >,0> >::_Left, COMDAT

; 147  : 		return ((_Nodepref)(*_Pnode)._Left);

  00000	8b 44 24 04	 mov	 eax, DWORD PTR __Pnode$[esp-4]

; 148  : 		}

  00004	c3		 ret	 0
?_Left@?$_Tree@V?$_Tmap_traits@KPAVCTPlayer@@U?$less@K@std@@V?$allocator@U?$pair@$$CBKPAVCTPlayer@@@std@@@3@$0A@@std@@@std@@KAAAPAU_Node@?$_Tree_nod@V?$_Tmap_traits@KPAVCTPlayer@@U?$less@K@std@@V?$allocator@U?$pair@$$CBKPAVCTPlayer@@@std@@@3@$0A@@std@@@2@PAU342@@Z ENDP ; std::_Tree<std::_Tmap_traits<unsigned long,CTPlayer *,std::less<unsigned long>,std::allocator<std::pair<unsigned long const ,CTPlayer *> >,0> >::_Left
_TEXT	ENDS
PUBLIC	?_Parent@?$_Tree@V?$_Tmap_traits@KPAVCTPlayer@@U?$less@K@std@@V?$allocator@U?$pair@$$CBKPAVCTPlayer@@@std@@@3@$0A@@std@@@std@@KAAAPAU_Node@?$_Tree_nod@V?$_Tmap_traits@KPAVCTPlayer@@U?$less@K@std@@V?$allocator@U?$pair@$$CBKPAVCTPlayer@@@std@@@3@$0A@@std@@@2@PAU342@@Z ; std::_Tree<std::_Tmap_traits<unsigned long,CTPlayer *,std::less<unsigned long>,std::allocator<std::pair<unsigned long const ,CTPlayer *> >,0> >::_Parent
; Function compile flags: /Ogty
;	COMDAT ?_Parent@?$_Tree@V?$_Tmap_traits@KPAVCTPlayer@@U?$less@K@std@@V?$allocator@U?$pair@$$CBKPAVCTPlayer@@@std@@@3@$0A@@std@@@std@@KAAAPAU_Node@?$_Tree_nod@V?$_Tmap_traits@KPAVCTPlayer@@U?$less@K@std@@V?$allocator@U?$pair@$$CBKPAVCTPlayer@@@std@@@3@$0A@@std@@@2@PAU342@@Z
_TEXT	SEGMENT
__Pnode$ = 8						; size = 4
?_Parent@?$_Tree@V?$_Tmap_traits@KPAVCTPlayer@@U?$less@K@std@@V?$allocator@U?$pair@$$CBKPAVCTPlayer@@@std@@@3@$0A@@std@@@std@@KAAAPAU_Node@?$_Tree_nod@V?$_Tmap_traits@KPAVCTPlayer@@U?$less@K@std@@V?$allocator@U?$pair@$$CBKPAVCTPlayer@@@std@@@3@$0A@@std@@@2@PAU342@@Z PROC NEAR ; std::_Tree<std::_Tmap_traits<unsigned long,CTPlayer *,std::less<unsigned long>,std::allocator<std::pair<unsigned long const ,CTPlayer *> >,0> >::_Parent, COMDAT

; 152  : 		return ((_Nodepref)(*_Pnode)._Parent);

  00000	8b 44 24 04	 mov	 eax, DWORD PTR __Pnode$[esp-4]
  00004	83 c0 04	 add	 eax, 4

; 153  : 		}

  00007	c3		 ret	 0
?_Parent@?$_Tree@V?$_Tmap_traits@KPAVCTPlayer@@U?$less@K@std@@V?$allocator@U?$pair@$$CBKPAVCTPlayer@@@std@@@3@$0A@@std@@@std@@KAAAPAU_Node@?$_Tree_nod@V?$_Tmap_traits@KPAVCTPlayer@@U?$less@K@std@@V?$allocator@U?$pair@$$CBKPAVCTPlayer@@@std@@@3@$0A@@std@@@2@PAU342@@Z ENDP ; std::_Tree<std::_Tmap_traits<unsigned long,CTPlayer *,std::less<unsigned long>,std::allocator<std::pair<unsigned long const ,CTPlayer *> >,0> >::_Parent
_TEXT	ENDS
PUBLIC	?_Right@?$_Tree@V?$_Tmap_traits@KPAVCTPlayer@@U?$less@K@std@@V?$allocator@U?$pair@$$CBKPAVCTPlayer@@@std@@@3@$0A@@std@@@std@@KAAAPAU_Node@?$_Tree_nod@V?$_Tmap_traits@KPAVCTPlayer@@U?$less@K@std@@V?$allocator@U?$pair@$$CBKPAVCTPlayer@@@std@@@3@$0A@@std@@@2@PAU342@@Z ; std::_Tree<std::_Tmap_traits<unsigned long,CTPlayer *,std::less<unsigned long>,std::allocator<std::pair<unsigned long const ,CTPlayer *> >,0> >::_Right
; Function compile flags: /Ogty
;	COMDAT ?_Right@?$_Tree@V?$_Tmap_traits@KPAVCTPlayer@@U?$less@K@std@@V?$allocator@U?$pair@$$CBKPAVCTPlayer@@@std@@@3@$0A@@std@@@std@@KAAAPAU_Node@?$_Tree_nod@V?$_Tmap_traits@KPAVCTPlayer@@U?$less@K@std@@V?$allocator@U?$pair@$$CBKPAVCTPlayer@@@std@@@3@$0A@@std@@@2@PAU342@@Z
_TEXT	SEGMENT
__Pnode$ = 8						; size = 4
?_Right@?$_Tree@V?$_Tmap_traits@KPAVCTPlayer@@U?$less@K@std@@V?$allocator@U?$pair@$$CBKPAVCTPlayer@@@std@@@3@$0A@@std@@@std@@KAAAPAU_Node@?$_Tree_nod@V?$_Tmap_traits@KPAVCTPlayer@@U?$less@K@std@@V?$allocator@U?$pair@$$CBKPAVCTPlayer@@@std@@@3@$0A@@std@@@2@PAU342@@Z PROC NEAR ; std::_Tree<std::_Tmap_traits<unsigned long,CTPlayer *,std::less<unsigned long>,std::allocator<std::pair<unsigned long const ,CTPlayer *> >,0> >::_Right, COMDAT

; 157  : 		return ((_Nodepref)(*_Pnode)._Right);

  00000	8b 44 24 04	 mov	 eax, DWORD PTR __Pnode$[esp-4]
  00004	83 c0 08	 add	 eax, 8

; 158  : 		}

  00007	c3		 ret	 0
?_Right@?$_Tree@V?$_Tmap_traits@KPAVCTPlayer@@U?$less@K@std@@V?$allocator@U?$pair@$$CBKPAVCTPlayer@@@std@@@3@$0A@@std@@@std@@KAAAPAU_Node@?$_Tree_nod@V?$_Tmap_traits@KPAVCTPlayer@@U?$less@K@std@@V?$allocator@U?$pair@$$CBKPAVCTPlayer@@@std@@@3@$0A@@std@@@2@PAU342@@Z ENDP ; std::_Tree<std::_Tmap_traits<unsigned long,CTPlayer *,std::less<unsigned long>,std::allocator<std::pair<unsigned long const ,CTPlayer *> >,0> >::_Right
_TEXT	ENDS
PUBLIC	?_Lmost@?$_Tree@V?$_Tmap_traits@KPAVCTPlayer@@U?$less@K@std@@V?$allocator@U?$pair@$$CBKPAVCTPlayer@@@std@@@3@$0A@@std@@@std@@IAEAAPAU_Node@?$_Tree_nod@V?$_Tmap_traits@KPAVCTPlayer@@U?$less@K@std@@V?$allocator@U?$pair@$$CBKPAVCTPlayer@@@std@@@3@$0A@@std@@@2@XZ ; std::_Tree<std::_Tmap_traits<unsigned long,CTPlayer *,std::less<unsigned long>,std::allocator<std::pair<unsigned long const ,CTPlayer *> >,0> >::_Lmost
; Function compile flags: /Ogty
;	COMDAT ?_Lmost@?$_Tree@V?$_Tmap_traits@KPAVCTPlayer@@U?$less@K@std@@V?$allocator@U?$pair@$$CBKPAVCTPlayer@@@std@@@3@$0A@@std@@@std@@IAEAAPAU_Node@?$_Tree_nod@V?$_Tmap_traits@KPAVCTPlayer@@U?$less@K@std@@V?$allocator@U?$pair@$$CBKPAVCTPlayer@@@std@@@3@$0A@@std@@@2@XZ
_TEXT	SEGMENT
?_Lmost@?$_Tree@V?$_Tmap_traits@KPAVCTPlayer@@U?$less@K@std@@V?$allocator@U?$pair@$$CBKPAVCTPlayer@@@std@@@3@$0A@@std@@@std@@IAEAAPAU_Node@?$_Tree_nod@V?$_Tmap_traits@KPAVCTPlayer@@U?$less@K@std@@V?$allocator@U?$pair@$$CBKPAVCTPlayer@@@std@@@3@$0A@@std@@@2@XZ PROC NEAR ; std::_Tree<std::_Tmap_traits<unsigned long,CTPlayer *,std::less<unsigned long>,std::allocator<std::pair<unsigned long const ,CTPlayer *> >,0> >::_Lmost, COMDAT
; _this$ = ecx

; 1005 : 		return (_Left(_Myhead));

  00000	8b 41 04	 mov	 eax, DWORD PTR [ecx+4]

; 1006 : 		}

  00003	c3		 ret	 0
?_Lmost@?$_Tree@V?$_Tmap_traits@KPAVCTPlayer@@U?$less@K@std@@V?$allocator@U?$pair@$$CBKPAVCTPlayer@@@std@@@3@$0A@@std@@@std@@IAEAAPAU_Node@?$_Tree_nod@V?$_Tmap_traits@KPAVCTPlayer@@U?$less@K@std@@V?$allocator@U?$pair@$$CBKPAVCTPlayer@@@std@@@3@$0A@@std@@@2@XZ ENDP ; std::_Tree<std::_Tmap_traits<unsigned long,CTPlayer *,std::less<unsigned long>,std::allocator<std::pair<unsigned long const ,CTPlayer *> >,0> >::_Lmost
_TEXT	ENDS
PUBLIC	?_Max@?$_Tree@V?$_Tmap_traits@KPAVCTPlayer@@U?$less@K@std@@V?$allocator@U?$pair@$$CBKPAVCTPlayer@@@std@@@3@$0A@@std@@@std@@KAPAU_Node@?$_Tree_nod@V?$_Tmap_traits@KPAVCTPlayer@@U?$less@K@std@@V?$allocator@U?$pair@$$CBKPAVCTPlayer@@@std@@@3@$0A@@std@@@2@PAU342@@Z ; std::_Tree<std::_Tmap_traits<unsigned long,CTPlayer *,std::less<unsigned long>,std::allocator<std::pair<unsigned long const ,CTPlayer *> >,0> >::_Max
; Function compile flags: /Ogty
;	COMDAT ?_Max@?$_Tree@V?$_Tmap_traits@KPAVCTPlayer@@U?$less@K@std@@V?$allocator@U?$pair@$$CBKPAVCTPlayer@@@std@@@3@$0A@@std@@@std@@KAPAU_Node@?$_Tree_nod@V?$_Tmap_traits@KPAVCTPlayer@@U?$less@K@std@@V?$allocator@U?$pair@$$CBKPAVCTPlayer@@@std@@@3@$0A@@std@@@2@PAU342@@Z
_TEXT	SEGMENT
__Pnode$ = 8						; size = 4
?_Max@?$_Tree@V?$_Tmap_traits@KPAVCTPlayer@@U?$less@K@std@@V?$allocator@U?$pair@$$CBKPAVCTPlayer@@@std@@@3@$0A@@std@@@std@@KAPAU_Node@?$_Tree_nod@V?$_Tmap_traits@KPAVCTPlayer@@U?$less@K@std@@V?$allocator@U?$pair@$$CBKPAVCTPlayer@@@std@@@3@$0A@@std@@@2@PAU342@@Z PROC NEAR ; std::_Tree<std::_Tmap_traits<unsigned long,CTPlayer *,std::less<unsigned long>,std::allocator<std::pair<unsigned long const ,CTPlayer *> >,0> >::_Max, COMDAT

; 1035 : 		while (!_Isnil(_Right(_Pnode)))

  00000	8b 44 24 04	 mov	 eax, DWORD PTR __Pnode$[esp-4]
  00004	8b 48 08	 mov	 ecx, DWORD PTR [eax+8]
  00007	8a 51 15	 mov	 dl, BYTE PTR [ecx+21]
  0000a	84 d2		 test	 dl, dl
  0000c	75 0e		 jne	 SHORT $L154344
  0000e	8b ff		 npad	 2
$L154343:

; 1036 : 			_Pnode = _Right(_Pnode);

  00010	8b c1		 mov	 eax, ecx
  00012	8b 48 08	 mov	 ecx, DWORD PTR [eax+8]
  00015	8a 51 15	 mov	 dl, BYTE PTR [ecx+21]
  00018	84 d2		 test	 dl, dl
  0001a	74 f4		 je	 SHORT $L154343
$L154344:

; 1037 : 		return (_Pnode);
; 1038 : 		}

  0001c	c3		 ret	 0
?_Max@?$_Tree@V?$_Tmap_traits@KPAVCTPlayer@@U?$less@K@std@@V?$allocator@U?$pair@$$CBKPAVCTPlayer@@@std@@@3@$0A@@std@@@std@@KAPAU_Node@?$_Tree_nod@V?$_Tmap_traits@KPAVCTPlayer@@U?$less@K@std@@V?$allocator@U?$pair@$$CBKPAVCTPlayer@@@std@@@3@$0A@@std@@@2@PAU342@@Z ENDP ; std::_Tree<std::_Tmap_traits<unsigned long,CTPlayer *,std::less<unsigned long>,std::allocator<std::pair<unsigned long const ,CTPlayer *> >,0> >::_Max
_TEXT	ENDS
PUBLIC	?_Min@?$_Tree@V?$_Tmap_traits@KPAVCTPlayer@@U?$less@K@std@@V?$allocator@U?$pair@$$CBKPAVCTPlayer@@@std@@@3@$0A@@std@@@std@@KAPAU_Node@?$_Tree_nod@V?$_Tmap_traits@KPAVCTPlayer@@U?$less@K@std@@V?$allocator@U?$pair@$$CBKPAVCTPlayer@@@std@@@3@$0A@@std@@@2@PAU342@@Z ; std::_Tree<std::_Tmap_traits<unsigned long,CTPlayer *,std::less<unsigned long>,std::allocator<std::pair<unsigned long const ,CTPlayer *> >,0> >::_Min
; Function compile flags: /Ogty
;	COMDAT ?_Min@?$_Tree@V?$_Tmap_traits@KPAVCTPlayer@@U?$less@K@std@@V?$allocator@U?$pair@$$CBKPAVCTPlayer@@@std@@@3@$0A@@std@@@std@@KAPAU_Node@?$_Tree_nod@V?$_Tmap_traits@KPAVCTPlayer@@U?$less@K@std@@V?$allocator@U?$pair@$$CBKPAVCTPlayer@@@std@@@3@$0A@@std@@@2@PAU342@@Z
_TEXT	SEGMENT
__Pnode$ = 8						; size = 4
?_Min@?$_Tree@V?$_Tmap_traits@KPAVCTPlayer@@U?$less@K@std@@V?$allocator@U?$pair@$$CBKPAVCTPlayer@@@std@@@3@$0A@@std@@@std@@KAPAU_Node@?$_Tree_nod@V?$_Tmap_traits@KPAVCTPlayer@@U?$less@K@std@@V?$allocator@U?$pair@$$CBKPAVCTPlayer@@@std@@@3@$0A@@std@@@2@PAU342@@Z PROC NEAR ; std::_Tree<std::_Tmap_traits<unsigned long,CTPlayer *,std::less<unsigned long>,std::allocator<std::pair<unsigned long const ,CTPlayer *> >,0> >::_Min, COMDAT

; 1042 : 		while (!_Isnil(_Left(_Pnode)))

  00000	8b 44 24 04	 mov	 eax, DWORD PTR __Pnode$[esp-4]
  00004	8b 08		 mov	 ecx, DWORD PTR [eax]
  00006	8a 51 15	 mov	 dl, BYTE PTR [ecx+21]
  00009	84 d2		 test	 dl, dl
  0000b	75 0e		 jne	 SHORT $L154348
  0000d	8d 49 00	 npad	 3
$L154347:

; 1043 : 			_Pnode = _Left(_Pnode);

  00010	8b c1		 mov	 eax, ecx
  00012	8b 08		 mov	 ecx, DWORD PTR [eax]
  00014	8a 51 15	 mov	 dl, BYTE PTR [ecx+21]
  00017	84 d2		 test	 dl, dl
  00019	74 f5		 je	 SHORT $L154347
$L154348:

; 1044 : 		return (_Pnode);
; 1045 : 		}

  0001b	c3		 ret	 0
?_Min@?$_Tree@V?$_Tmap_traits@KPAVCTPlayer@@U?$less@K@std@@V?$allocator@U?$pair@$$CBKPAVCTPlayer@@@std@@@3@$0A@@std@@@std@@KAPAU_Node@?$_Tree_nod@V?$_Tmap_traits@KPAVCTPlayer@@U?$less@K@std@@V?$allocator@U?$pair@$$CBKPAVCTPlayer@@@std@@@3@$0A@@std@@@2@PAU342@@Z ENDP ; std::_Tree<std::_Tmap_traits<unsigned long,CTPlayer *,std::less<unsigned long>,std::allocator<std::pair<unsigned long const ,CTPlayer *> >,0> >::_Min
_TEXT	ENDS
PUBLIC	?_Rmost@?$_Tree@V?$_Tmap_traits@KPAVCTPlayer@@U?$less@K@std@@V?$allocator@U?$pair@$$CBKPAVCTPlayer@@@std@@@3@$0A@@std@@@std@@IAEAAPAU_Node@?$_Tree_nod@V?$_Tmap_traits@KPAVCTPlayer@@U?$less@K@std@@V?$allocator@U?$pair@$$CBKPAVCTPlayer@@@std@@@3@$0A@@std@@@2@XZ ; std::_Tree<std::_Tmap_traits<unsigned long,CTPlayer *,std::less<unsigned long>,std::allocator<std::pair<unsigned long const ,CTPlayer *> >,0> >::_Rmost
; Function compile flags: /Ogty
;	COMDAT ?_Rmost@?$_Tree@V?$_Tmap_traits@KPAVCTPlayer@@U?$less@K@std@@V?$allocator@U?$pair@$$CBKPAVCTPlayer@@@std@@@3@$0A@@std@@@std@@IAEAAPAU_Node@?$_Tree_nod@V?$_Tmap_traits@KPAVCTPlayer@@U?$less@K@std@@V?$allocator@U?$pair@$$CBKPAVCTPlayer@@@std@@@3@$0A@@std@@@2@XZ
_TEXT	SEGMENT
?_Rmost@?$_Tree@V?$_Tmap_traits@KPAVCTPlayer@@U?$less@K@std@@V?$allocator@U?$pair@$$CBKPAVCTPlayer@@@std@@@3@$0A@@std@@@std@@IAEAAPAU_Node@?$_Tree_nod@V?$_Tmap_traits@KPAVCTPlayer@@U?$less@K@std@@V?$allocator@U?$pair@$$CBKPAVCTPlayer@@@std@@@3@$0A@@std@@@2@XZ PROC NEAR ; std::_Tree<std::_Tmap_traits<unsigned long,CTPlayer *,std::less<unsigned long>,std::allocator<std::pair<unsigned long const ,CTPlayer *> >,0> >::_Rmost, COMDAT
; _this$ = ecx

; 1049 : 		return (_Right(_Myhead));

  00000	8b 41 04	 mov	 eax, DWORD PTR [ecx+4]
  00003	83 c0 08	 add	 eax, 8

; 1050 : 		}

  00006	c3		 ret	 0
?_Rmost@?$_Tree@V?$_Tmap_traits@KPAVCTPlayer@@U?$less@K@std@@V?$allocator@U?$pair@$$CBKPAVCTPlayer@@@std@@@3@$0A@@std@@@std@@IAEAAPAU_Node@?$_Tree_nod@V?$_Tmap_traits@KPAVCTPlayer@@U?$less@K@std@@V?$allocator@U?$pair@$$CBKPAVCTPlayer@@@std@@@3@$0A@@std@@@2@XZ ENDP ; std::_Tree<std::_Tmap_traits<unsigned long,CTPlayer *,std::less<unsigned long>,std::allocator<std::pair<unsigned long const ,CTPlayer *> >,0> >::_Rmost
_TEXT	ENDS
PUBLIC	?_Root@?$_Tree@V?$_Tmap_traits@KPAVCTPlayer@@U?$less@K@std@@V?$allocator@U?$pair@$$CBKPAVCTPlayer@@@std@@@3@$0A@@std@@@std@@IAEAAPAU_Node@?$_Tree_nod@V?$_Tmap_traits@KPAVCTPlayer@@U?$less@K@std@@V?$allocator@U?$pair@$$CBKPAVCTPlayer@@@std@@@3@$0A@@std@@@2@XZ ; std::_Tree<std::_Tmap_traits<unsigned long,CTPlayer *,std::less<unsigned long>,std::allocator<std::pair<unsigned long const ,CTPlayer *> >,0> >::_Root
; Function compile flags: /Ogty
;	COMDAT ?_Root@?$_Tree@V?$_Tmap_traits@KPAVCTPlayer@@U?$less@K@std@@V?$allocator@U?$pair@$$CBKPAVCTPlayer@@@std@@@3@$0A@@std@@@std@@IAEAAPAU_Node@?$_Tree_nod@V?$_Tmap_traits@KPAVCTPlayer@@U?$less@K@std@@V?$allocator@U?$pair@$$CBKPAVCTPlayer@@@std@@@3@$0A@@std@@@2@XZ
_TEXT	SEGMENT
?_Root@?$_Tree@V?$_Tmap_traits@KPAVCTPlayer@@U?$less@K@std@@V?$allocator@U?$pair@$$CBKPAVCTPlayer@@@std@@@3@$0A@@std@@@std@@IAEAAPAU_Node@?$_Tree_nod@V?$_Tmap_traits@KPAVCTPlayer@@U?$less@K@std@@V?$allocator@U?$pair@$$CBKPAVCTPlayer@@@std@@@3@$0A@@std@@@2@XZ PROC NEAR ; std::_Tree<std::_Tmap_traits<unsigned long,CTPlayer *,std::less<unsigned long>,std::allocator<std::pair<unsigned long const ,CTPlayer *> >,0> >::_Root, COMDAT
; _this$ = ecx

; 1059 : 		return (_Parent(_Myhead));

  00000	8b 41 04	 mov	 eax, DWORD PTR [ecx+4]
  00003	83 c0 04	 add	 eax, 4

; 1060 : 		}

  00006	c3		 ret	 0
?_Root@?$_Tree@V?$_Tmap_traits@KPAVCTPlayer@@U?$less@K@std@@V?$allocator@U?$pair@$$CBKPAVCTPlayer@@@std@@@3@$0A@@std@@@std@@IAEAAPAU_Node@?$_Tree_nod@V?$_Tmap_traits@KPAVCTPlayer@@U?$less@K@std@@V?$allocator@U?$pair@$$CBKPAVCTPlayer@@@std@@@3@$0A@@std@@@2@XZ ENDP ; std::_Tree<std::_Tmap_traits<unsigned long,CTPlayer *,std::less<unsigned long>,std::allocator<std::pair<unsigned long const ,CTPlayer *> >,0> >::_Root
_TEXT	ENDS
PUBLIC	?_Rrotate@?$_Tree@V?$_Tmap_traits@KPAVCTPlayer@@U?$less@K@std@@V?$allocator@U?$pair@$$CBKPAVCTPlayer@@@std@@@3@$0A@@std@@@std@@IAEXPAU_Node@?$_Tree_nod@V?$_Tmap_traits@KPAVCTPlayer@@U?$less@K@std@@V?$allocator@U?$pair@$$CBKPAVCTPlayer@@@std@@@3@$0A@@std@@@2@@Z ; std::_Tree<std::_Tmap_traits<unsigned long,CTPlayer *,std::less<unsigned long>,std::allocator<std::pair<unsigned long const ,CTPlayer *> >,0> >::_Rrotate
; Function compile flags: /Ogty
;	COMDAT ?_Rrotate@?$_Tree@V?$_Tmap_traits@KPAVCTPlayer@@U?$less@K@std@@V?$allocator@U?$pair@$$CBKPAVCTPlayer@@@std@@@3@$0A@@std@@@std@@IAEXPAU_Node@?$_Tree_nod@V?$_Tmap_traits@KPAVCTPlayer@@U?$less@K@std@@V?$allocator@U?$pair@$$CBKPAVCTPlayer@@@std@@@3@$0A@@std@@@2@@Z
_TEXT	SEGMENT
__Wherenode$ = 8					; size = 4
?_Rrotate@?$_Tree@V?$_Tmap_traits@KPAVCTPlayer@@U?$less@K@std@@V?$allocator@U?$pair@$$CBKPAVCTPlayer@@@std@@@3@$0A@@std@@@std@@IAEXPAU_Node@?$_Tree_nod@V?$_Tmap_traits@KPAVCTPlayer@@U?$less@K@std@@V?$allocator@U?$pair@$$CBKPAVCTPlayer@@@std@@@3@$0A@@std@@@2@@Z PROC NEAR ; std::_Tree<std::_Tmap_traits<unsigned long,CTPlayer *,std::less<unsigned long>,std::allocator<std::pair<unsigned long const ,CTPlayer *> >,0> >::_Rrotate, COMDAT
; _this$ = ecx

; 1069 : 		_Nodeptr _Pnode = _Left(_Wherenode);

  00000	8b 54 24 04	 mov	 edx, DWORD PTR __Wherenode$[esp-4]
  00004	8b 02		 mov	 eax, DWORD PTR [edx]
  00006	53		 push	 ebx
  00007	56		 push	 esi

; 1070 : 		_Left(_Wherenode) = _Right(_Pnode);

  00008	8b 70 08	 mov	 esi, DWORD PTR [eax+8]
  0000b	89 32		 mov	 DWORD PTR [edx], esi

; 1071 : 
; 1072 : 		if (!_Isnil(_Right(_Pnode)))

  0000d	8b 70 08	 mov	 esi, DWORD PTR [eax+8]
  00010	8a 5e 15	 mov	 bl, BYTE PTR [esi+21]
  00013	84 db		 test	 bl, bl
  00015	75 03		 jne	 SHORT $L154356

; 1073 : 			_Parent(_Right(_Pnode)) = _Wherenode;

  00017	89 56 04	 mov	 DWORD PTR [esi+4], edx
$L154356:

; 1074 : 		_Parent(_Pnode) = _Parent(_Wherenode);

  0001a	8b 72 04	 mov	 esi, DWORD PTR [edx+4]
  0001d	89 70 04	 mov	 DWORD PTR [eax+4], esi

; 1075 : 
; 1076 : 		if (_Wherenode == _Root())

  00020	8b 49 04	 mov	 ecx, DWORD PTR [ecx+4]
  00023	3b 51 04	 cmp	 edx, DWORD PTR [ecx+4]
  00026	75 0e		 jne	 SHORT $L154357

; 1077 : 			_Root() = _Pnode;

  00028	89 41 04	 mov	 DWORD PTR [ecx+4], eax
  0002b	5e		 pop	 esi

; 1082 : 
; 1083 : 		_Right(_Pnode) = _Wherenode;

  0002c	89 50 08	 mov	 DWORD PTR [eax+8], edx

; 1084 : 		_Parent(_Wherenode) = _Pnode;

  0002f	89 42 04	 mov	 DWORD PTR [edx+4], eax
  00032	5b		 pop	 ebx

; 1085 : 		}

  00033	c2 04 00	 ret	 4
$L154357:

; 1078 : 		else if (_Wherenode == _Right(_Parent(_Wherenode)))

  00036	8b 4a 04	 mov	 ecx, DWORD PTR [edx+4]
  00039	3b 51 08	 cmp	 edx, DWORD PTR [ecx+8]
  0003c	75 0e		 jne	 SHORT $L154359

; 1079 : 			_Right(_Parent(_Wherenode)) = _Pnode;

  0003e	89 41 08	 mov	 DWORD PTR [ecx+8], eax
  00041	5e		 pop	 esi

; 1082 : 
; 1083 : 		_Right(_Pnode) = _Wherenode;

  00042	89 50 08	 mov	 DWORD PTR [eax+8], edx

; 1084 : 		_Parent(_Wherenode) = _Pnode;

  00045	89 42 04	 mov	 DWORD PTR [edx+4], eax
  00048	5b		 pop	 ebx

; 1085 : 		}

  00049	c2 04 00	 ret	 4
$L154359:

; 1080 : 		else
; 1081 : 			_Left(_Parent(_Wherenode)) = _Pnode;

  0004c	89 01		 mov	 DWORD PTR [ecx], eax
  0004e	5e		 pop	 esi

; 1082 : 
; 1083 : 		_Right(_Pnode) = _Wherenode;

  0004f	89 50 08	 mov	 DWORD PTR [eax+8], edx

; 1084 : 		_Parent(_Wherenode) = _Pnode;

  00052	89 42 04	 mov	 DWORD PTR [edx+4], eax
  00055	5b		 pop	 ebx

; 1085 : 		}

  00056	c2 04 00	 ret	 4
?_Rrotate@?$_Tree@V?$_Tmap_traits@KPAVCTPlayer@@U?$less@K@std@@V?$allocator@U?$pair@$$CBKPAVCTPlayer@@@std@@@3@$0A@@std@@@std@@IAEXPAU_Node@?$_Tree_nod@V?$_Tmap_traits@KPAVCTPlayer@@U?$less@K@std@@V?$allocator@U?$pair@$$CBKPAVCTPlayer@@@std@@@3@$0A@@std@@@2@@Z ENDP ; std::_Tree<std::_Tmap_traits<unsigned long,CTPlayer *,std::less<unsigned long>,std::allocator<std::pair<unsigned long const ,CTPlayer *> >,0> >::_Rrotate
_TEXT	ENDS
PUBLIC	?_Kfn@?$_Tmap_traits@KPAVCTPlayer@@U?$less@K@std@@V?$allocator@U?$pair@$$CBKPAVCTPlayer@@@std@@@3@$0A@@std@@SAABKABU?$pair@$$CBKPAVCTPlayer@@@2@@Z ; std::_Tmap_traits<unsigned long,CTPlayer *,std::less<unsigned long>,std::allocator<std::pair<unsigned long const ,CTPlayer *> >,0>::_Kfn
; Function compile flags: /Ogty
; File c:\program files (x86)\microsoft visual studio .net 2003\vc7\include\map
;	COMDAT ?_Kfn@?$_Tmap_traits@KPAVCTPlayer@@U?$less@K@std@@V?$allocator@U?$pair@$$CBKPAVCTPlayer@@@std@@@3@$0A@@std@@SAABKABU?$pair@$$CBKPAVCTPlayer@@@2@@Z
_TEXT	SEGMENT
__Val$ = 8						; size = 4
?_Kfn@?$_Tmap_traits@KPAVCTPlayer@@U?$less@K@std@@V?$allocator@U?$pair@$$CBKPAVCTPlayer@@@std@@@3@$0A@@std@@SAABKABU?$pair@$$CBKPAVCTPlayer@@@2@@Z PROC NEAR ; std::_Tmap_traits<unsigned long,CTPlayer *,std::less<unsigned long>,std::allocator<std::pair<unsigned long const ,CTPlayer *> >,0>::_Kfn, COMDAT

; 64   : 		return (_Val.first);

  00000	8b 44 24 04	 mov	 eax, DWORD PTR __Val$[esp-4]

; 65   : 		}

  00004	c3		 ret	 0
?_Kfn@?$_Tmap_traits@KPAVCTPlayer@@U?$less@K@std@@V?$allocator@U?$pair@$$CBKPAVCTPlayer@@@std@@@3@$0A@@std@@SAABKABU?$pair@$$CBKPAVCTPlayer@@@2@@Z ENDP ; std::_Tmap_traits<unsigned long,CTPlayer *,std::less<unsigned long>,std::allocator<std::pair<unsigned long const ,CTPlayer *> >,0>::_Kfn
_TEXT	ENDS
PUBLIC	??0?$allocator@U?$pair@$$CBKPAVCTPlayer@@@std@@@std@@QAE@XZ ; std::allocator<std::pair<unsigned long const ,CTPlayer *> >::allocator<std::pair<unsigned long const ,CTPlayer *> >
; Function compile flags: /Ogty
; File c:\program files (x86)\microsoft visual studio .net 2003\vc7\include\xmemory
;	COMDAT ??0?$allocator@U?$pair@$$CBKPAVCTPlayer@@@std@@@std@@QAE@XZ
_TEXT	SEGMENT
??0?$allocator@U?$pair@$$CBKPAVCTPlayer@@@std@@@std@@QAE@XZ PROC NEAR ; std::allocator<std::pair<unsigned long const ,CTPlayer *> >::allocator<std::pair<unsigned long const ,CTPlayer *> >, COMDAT
; _this$ = ecx

; 111  : 	allocator()

  00000	8b c1		 mov	 eax, ecx

; 112  : 		{	// construct default allocator (do nothing)
; 113  : 		}

  00002	c3		 ret	 0
??0?$allocator@U?$pair@$$CBKPAVCTPlayer@@@std@@@std@@QAE@XZ ENDP ; std::allocator<std::pair<unsigned long const ,CTPlayer *> >::allocator<std::pair<unsigned long const ,CTPlayer *> >
_TEXT	ENDS
PUBLIC	?deallocate@?$allocator@U_Node@?$_Tree_nod@V?$_Tmap_traits@KPAVCTPlayer@@U?$less@K@std@@V?$allocator@U?$pair@$$CBKPAVCTPlayer@@@std@@@3@$0A@@std@@@std@@@std@@QAEXPAU_Node@?$_Tree_nod@V?$_Tmap_traits@KPAVCTPlayer@@U?$less@K@std@@V?$allocator@U?$pair@$$CBKPAVCTPlayer@@@std@@@3@$0A@@std@@@2@I@Z ; std::allocator<std::_Tree_nod<std::_Tmap_traits<unsigned long,CTPlayer *,std::less<unsigned long>,std::allocator<std::pair<unsigned long const ,CTPlayer *> >,0> >::_Node>::deallocate
EXTRN	??3@YAXPAX@Z:NEAR				; operator delete
; Function compile flags: /Ogty
;	COMDAT ?deallocate@?$allocator@U_Node@?$_Tree_nod@V?$_Tmap_traits@KPAVCTPlayer@@U?$less@K@std@@V?$allocator@U?$pair@$$CBKPAVCTPlayer@@@std@@@3@$0A@@std@@@std@@@std@@QAEXPAU_Node@?$_Tree_nod@V?$_Tmap_traits@KPAVCTPlayer@@U?$less@K@std@@V?$allocator@U?$pair@$$CBKPAVCTPlayer@@@std@@@3@$0A@@std@@@2@I@Z
_TEXT	SEGMENT
__Ptr$ = 8						; size = 4
___formal$ = 12						; size = 4
?deallocate@?$allocator@U_Node@?$_Tree_nod@V?$_Tmap_traits@KPAVCTPlayer@@U?$less@K@std@@V?$allocator@U?$pair@$$CBKPAVCTPlayer@@@std@@@3@$0A@@std@@@std@@@std@@QAEXPAU_Node@?$_Tree_nod@V?$_Tmap_traits@KPAVCTPlayer@@U?$less@K@std@@V?$allocator@U?$pair@$$CBKPAVCTPlayer@@@std@@@3@$0A@@std@@@2@I@Z PROC NEAR ; std::allocator<std::_Tree_nod<std::_Tmap_traits<unsigned long,CTPlayer *,std::less<unsigned long>,std::allocator<std::pair<unsigned long const ,CTPlayer *> >,0> >::_Node>::deallocate, COMDAT
; _this$ = ecx

; 132  : 		operator delete(_Ptr);

  00000	8b 44 24 04	 mov	 eax, DWORD PTR __Ptr$[esp-4]
  00004	50		 push	 eax
  00005	e8 00 00 00 00	 call	 ??3@YAXPAX@Z		; operator delete
  0000a	59		 pop	 ecx

; 133  : 		}

  0000b	c2 08 00	 ret	 8
?deallocate@?$allocator@U_Node@?$_Tree_nod@V?$_Tmap_traits@KPAVCTPlayer@@U?$less@K@std@@V?$allocator@U?$pair@$$CBKPAVCTPlayer@@@std@@@3@$0A@@std@@@std@@@std@@QAEXPAU_Node@?$_Tree_nod@V?$_Tmap_traits@KPAVCTPlayer@@U?$less@K@std@@V?$allocator@U?$pair@$$CBKPAVCTPlayer@@@std@@@3@$0A@@std@@@2@I@Z ENDP ; std::allocator<std::_Tree_nod<std::_Tmap_traits<unsigned long,CTPlayer *,std::less<unsigned long>,std::allocator<std::pair<unsigned long const ,CTPlayer *> >,0> >::_Node>::deallocate
_TEXT	ENDS
PUBLIC	?_Color@?$_Tree@V?$_Tmap_traits@KPAVCTRecallMon@@U?$less@K@std@@V?$allocator@U?$pair@$$CBKPAVCTRecallMon@@@std@@@3@$0A@@std@@@std@@KAAADPAU_Node@?$_Tree_nod@V?$_Tmap_traits@KPAVCTRecallMon@@U?$less@K@std@@V?$allocator@U?$pair@$$CBKPAVCTRecallMon@@@std@@@3@$0A@@std@@@2@@Z ; std::_Tree<std::_Tmap_traits<unsigned long,CTRecallMon *,std::less<unsigned long>,std::allocator<std::pair<unsigned long const ,CTRecallMon *> >,0> >::_Color
; Function compile flags: /Ogty
; File c:\program files (x86)\microsoft visual studio .net 2003\vc7\include\xtree
;	COMDAT ?_Color@?$_Tree@V?$_Tmap_traits@KPAVCTRecallMon@@U?$less@K@std@@V?$allocator@U?$pair@$$CBKPAVCTRecallMon@@@std@@@3@$0A@@std@@@std@@KAAADPAU_Node@?$_Tree_nod@V?$_Tmap_traits@KPAVCTRecallMon@@U?$less@K@std@@V?$allocator@U?$pair@$$CBKPAVCTRecallMon@@@std@@@3@$0A@@std@@@2@@Z
_TEXT	SEGMENT
__Pnode$ = 8						; size = 4
?_Color@?$_Tree@V?$_Tmap_traits@KPAVCTRecallMon@@U?$less@K@std@@V?$allocator@U?$pair@$$CBKPAVCTRecallMon@@@std@@@3@$0A@@std@@@std@@KAAADPAU_Node@?$_Tree_nod@V?$_Tmap_traits@KPAVCTRecallMon@@U?$less@K@std@@V?$allocator@U?$pair@$$CBKPAVCTRecallMon@@@std@@@3@$0A@@std@@@2@@Z PROC NEAR ; std::_Tree<std::_Tmap_traits<unsigned long,CTRecallMon *,std::less<unsigned long>,std::allocator<std::pair<unsigned long const ,CTRecallMon *> >,0> >::_Color, COMDAT

; 132  : 		return ((_Charref)(*_Pnode)._Color);

  00000	8b 44 24 04	 mov	 eax, DWORD PTR __Pnode$[esp-4]
  00004	83 c0 14	 add	 eax, 20			; 00000014H

; 133  : 		}

  00007	c3		 ret	 0
?_Color@?$_Tree@V?$_Tmap_traits@KPAVCTRecallMon@@U?$less@K@std@@V?$allocator@U?$pair@$$CBKPAVCTRecallMon@@@std@@@3@$0A@@std@@@std@@KAAADPAU_Node@?$_Tree_nod@V?$_Tmap_traits@KPAVCTRecallMon@@U?$less@K@std@@V?$allocator@U?$pair@$$CBKPAVCTRecallMon@@@std@@@3@$0A@@std@@@2@@Z ENDP ; std::_Tree<std::_Tmap_traits<unsigned long,CTRecallMon *,std::less<unsigned long>,std::allocator<std::pair<unsigned long const ,CTRecallMon *> >,0> >::_Color
_TEXT	ENDS
PUBLIC	?_Isnil@?$_Tree@V?$_Tmap_traits@KPAVCTRecallMon@@U?$less@K@std@@V?$allocator@U?$pair@$$CBKPAVCTRecallMon@@@std@@@3@$0A@@std@@@std@@KAAADPAU_Node@?$_Tree_nod@V?$_Tmap_traits@KPAVCTRecallMon@@U?$less@K@std@@V?$allocator@U?$pair@$$CBKPAVCTRecallMon@@@std@@@3@$0A@@std@@@2@@Z ; std::_Tree<std::_Tmap_traits<unsigned long,CTRecallMon *,std::less<unsigned long>,std::allocator<std::pair<unsigned long const ,CTRecallMon *> >,0> >::_Isnil
; Function compile flags: /Ogty
;	COMDAT ?_Isnil@?$_Tree@V?$_Tmap_traits@KPAVCTRecallMon@@U?$less@K@std@@V?$allocator@U?$pair@$$CBKPAVCTRecallMon@@@std@@@3@$0A@@std@@@std@@KAAADPAU_Node@?$_Tree_nod@V?$_Tmap_traits@KPAVCTRecallMon@@U?$less@K@std@@V?$allocator@U?$pair@$$CBKPAVCTRecallMon@@@std@@@3@$0A@@std@@@2@@Z
_TEXT	SEGMENT
__Pnode$ = 8						; size = 4
?_Isnil@?$_Tree@V?$_Tmap_traits@KPAVCTRecallMon@@U?$less@K@std@@V?$allocator@U?$pair@$$CBKPAVCTRecallMon@@@std@@@3@$0A@@std@@@std@@KAAADPAU_Node@?$_Tree_nod@V?$_Tmap_traits@KPAVCTRecallMon@@U?$less@K@std@@V?$allocator@U?$pair@$$CBKPAVCTRecallMon@@@std@@@3@$0A@@std@@@2@@Z PROC NEAR ; std::_Tree<std::_Tmap_traits<unsigned long,CTRecallMon *,std::less<unsigned long>,std::allocator<std::pair<unsigned long const ,CTRecallMon *> >,0> >::_Isnil, COMDAT

; 137  : 		return ((_Charref)(*_Pnode)._Isnil);

  00000	8b 44 24 04	 mov	 eax, DWORD PTR __Pnode$[esp-4]
  00004	83 c0 15	 add	 eax, 21			; 00000015H

; 138  : 		}

  00007	c3		 ret	 0
?_Isnil@?$_Tree@V?$_Tmap_traits@KPAVCTRecallMon@@U?$less@K@std@@V?$allocator@U?$pair@$$CBKPAVCTRecallMon@@@std@@@3@$0A@@std@@@std@@KAAADPAU_Node@?$_Tree_nod@V?$_Tmap_traits@KPAVCTRecallMon@@U?$less@K@std@@V?$allocator@U?$pair@$$CBKPAVCTRecallMon@@@std@@@3@$0A@@std@@@2@@Z ENDP ; std::_Tree<std::_Tmap_traits<unsigned long,CTRecallMon *,std::less<unsigned long>,std::allocator<std::pair<unsigned long const ,CTRecallMon *> >,0> >::_Isnil
_TEXT	ENDS
PUBLIC	?_Left@?$_Tree@V?$_Tmap_traits@KPAVCTRecallMon@@U?$less@K@std@@V?$allocator@U?$pair@$$CBKPAVCTRecallMon@@@std@@@3@$0A@@std@@@std@@KAAAPAU_Node@?$_Tree_nod@V?$_Tmap_traits@KPAVCTRecallMon@@U?$less@K@std@@V?$allocator@U?$pair@$$CBKPAVCTRecallMon@@@std@@@3@$0A@@std@@@2@PAU342@@Z ; std::_Tree<std::_Tmap_traits<unsigned long,CTRecallMon *,std::less<unsigned long>,std::allocator<std::pair<unsigned long const ,CTRecallMon *> >,0> >::_Left
; Function compile flags: /Ogty
;	COMDAT ?_Left@?$_Tree@V?$_Tmap_traits@KPAVCTRecallMon@@U?$less@K@std@@V?$allocator@U?$pair@$$CBKPAVCTRecallMon@@@std@@@3@$0A@@std@@@std@@KAAAPAU_Node@?$_Tree_nod@V?$_Tmap_traits@KPAVCTRecallMon@@U?$less@K@std@@V?$allocator@U?$pair@$$CBKPAVCTRecallMon@@@std@@@3@$0A@@std@@@2@PAU342@@Z
_TEXT	SEGMENT
__Pnode$ = 8						; size = 4
?_Left@?$_Tree@V?$_Tmap_traits@KPAVCTRecallMon@@U?$less@K@std@@V?$allocator@U?$pair@$$CBKPAVCTRecallMon@@@std@@@3@$0A@@std@@@std@@KAAAPAU_Node@?$_Tree_nod@V?$_Tmap_traits@KPAVCTRecallMon@@U?$less@K@std@@V?$allocator@U?$pair@$$CBKPAVCTRecallMon@@@std@@@3@$0A@@std@@@2@PAU342@@Z PROC NEAR ; std::_Tree<std::_Tmap_traits<unsigned long,CTRecallMon *,std::less<unsigned long>,std::allocator<std::pair<unsigned long const ,CTRecallMon *> >,0> >::_Left, COMDAT

; 147  : 		return ((_Nodepref)(*_Pnode)._Left);

  00000	8b 44 24 04	 mov	 eax, DWORD PTR __Pnode$[esp-4]

; 148  : 		}

  00004	c3		 ret	 0
?_Left@?$_Tree@V?$_Tmap_traits@KPAVCTRecallMon@@U?$less@K@std@@V?$allocator@U?$pair@$$CBKPAVCTRecallMon@@@std@@@3@$0A@@std@@@std@@KAAAPAU_Node@?$_Tree_nod@V?$_Tmap_traits@KPAVCTRecallMon@@U?$less@K@std@@V?$allocator@U?$pair@$$CBKPAVCTRecallMon@@@std@@@3@$0A@@std@@@2@PAU342@@Z ENDP ; std::_Tree<std::_Tmap_traits<unsigned long,CTRecallMon *,std::less<unsigned long>,std::allocator<std::pair<unsigned long const ,CTRecallMon *> >,0> >::_Left
_TEXT	ENDS
PUBLIC	?_Parent@?$_Tree@V?$_Tmap_traits@KPAVCTRecallMon@@U?$less@K@std@@V?$allocator@U?$pair@$$CBKPAVCTRecallMon@@@std@@@3@$0A@@std@@@std@@KAAAPAU_Node@?$_Tree_nod@V?$_Tmap_traits@KPAVCTRecallMon@@U?$less@K@std@@V?$allocator@U?$pair@$$CBKPAVCTRecallMon@@@std@@@3@$0A@@std@@@2@PAU342@@Z ; std::_Tree<std::_Tmap_traits<unsigned long,CTRecallMon *,std::less<unsigned long>,std::allocator<std::pair<unsigned long const ,CTRecallMon *> >,0> >::_Parent
; Function compile flags: /Ogty
;	COMDAT ?_Parent@?$_Tree@V?$_Tmap_traits@KPAVCTRecallMon@@U?$less@K@std@@V?$allocator@U?$pair@$$CBKPAVCTRecallMon@@@std@@@3@$0A@@std@@@std@@KAAAPAU_Node@?$_Tree_nod@V?$_Tmap_traits@KPAVCTRecallMon@@U?$less@K@std@@V?$allocator@U?$pair@$$CBKPAVCTRecallMon@@@std@@@3@$0A@@std@@@2@PAU342@@Z
_TEXT	SEGMENT
__Pnode$ = 8						; size = 4
?_Parent@?$_Tree@V?$_Tmap_traits@KPAVCTRecallMon@@U?$less@K@std@@V?$allocator@U?$pair@$$CBKPAVCTRecallMon@@@std@@@3@$0A@@std@@@std@@KAAAPAU_Node@?$_Tree_nod@V?$_Tmap_traits@KPAVCTRecallMon@@U?$less@K@std@@V?$allocator@U?$pair@$$CBKPAVCTRecallMon@@@std@@@3@$0A@@std@@@2@PAU342@@Z PROC NEAR ; std::_Tree<std::_Tmap_traits<unsigned long,CTRecallMon *,std::less<unsigned long>,std::allocator<std::pair<unsigned long const ,CTRecallMon *> >,0> >::_Parent, COMDAT

; 152  : 		return ((_Nodepref)(*_Pnode)._Parent);

  00000	8b 44 24 04	 mov	 eax, DWORD PTR __Pnode$[esp-4]
  00004	83 c0 04	 add	 eax, 4

; 153  : 		}

  00007	c3		 ret	 0
?_Parent@?$_Tree@V?$_Tmap_traits@KPAVCTRecallMon@@U?$less@K@std@@V?$allocator@U?$pair@$$CBKPAVCTRecallMon@@@std@@@3@$0A@@std@@@std@@KAAAPAU_Node@?$_Tree_nod@V?$_Tmap_traits@KPAVCTRecallMon@@U?$less@K@std@@V?$allocator@U?$pair@$$CBKPAVCTRecallMon@@@std@@@3@$0A@@std@@@2@PAU342@@Z ENDP ; std::_Tree<std::_Tmap_traits<unsigned long,CTRecallMon *,std::less<unsigned long>,std::allocator<std::pair<unsigned long const ,CTRecallMon *> >,0> >::_Parent
_TEXT	ENDS
PUBLIC	?_Right@?$_Tree@V?$_Tmap_traits@KPAVCTRecallMon@@U?$less@K@std@@V?$allocator@U?$pair@$$CBKPAVCTRecallMon@@@std@@@3@$0A@@std@@@std@@KAAAPAU_Node@?$_Tree_nod@V?$_Tmap_traits@KPAVCTRecallMon@@U?$less@K@std@@V?$allocator@U?$pair@$$CBKPAVCTRecallMon@@@std@@@3@$0A@@std@@@2@PAU342@@Z ; std::_Tree<std::_Tmap_traits<unsigned long,CTRecallMon *,std::less<unsigned long>,std::allocator<std::pair<unsigned long const ,CTRecallMon *> >,0> >::_Right
; Function compile flags: /Ogty
;	COMDAT ?_Right@?$_Tree@V?$_Tmap_traits@KPAVCTRecallMon@@U?$less@K@std@@V?$allocator@U?$pair@$$CBKPAVCTRecallMon@@@std@@@3@$0A@@std@@@std@@KAAAPAU_Node@?$_Tree_nod@V?$_Tmap_traits@KPAVCTRecallMon@@U?$less@K@std@@V?$allocator@U?$pair@$$CBKPAVCTRecallMon@@@std@@@3@$0A@@std@@@2@PAU342@@Z
_TEXT	SEGMENT
__Pnode$ = 8						; size = 4
?_Right@?$_Tree@V?$_Tmap_traits@KPAVCTRecallMon@@U?$less@K@std@@V?$allocator@U?$pair@$$CBKPAVCTRecallMon@@@std@@@3@$0A@@std@@@std@@KAAAPAU_Node@?$_Tree_nod@V?$_Tmap_traits@KPAVCTRecallMon@@U?$less@K@std@@V?$allocator@U?$pair@$$CBKPAVCTRecallMon@@@std@@@3@$0A@@std@@@2@PAU342@@Z PROC NEAR ; std::_Tree<std::_Tmap_traits<unsigned long,CTRecallMon *,std::less<unsigned long>,std::allocator<std::pair<unsigned long const ,CTRecallMon *> >,0> >::_Right, COMDAT

; 157  : 		return ((_Nodepref)(*_Pnode)._Right);

  00000	8b 44 24 04	 mov	 eax, DWORD PTR __Pnode$[esp-4]
  00004	83 c0 08	 add	 eax, 8

; 158  : 		}

  00007	c3		 ret	 0
?_Right@?$_Tree@V?$_Tmap_traits@KPAVCTRecallMon@@U?$less@K@std@@V?$allocator@U?$pair@$$CBKPAVCTRecallMon@@@std@@@3@$0A@@std@@@std@@KAAAPAU_Node@?$_Tree_nod@V?$_Tmap_traits@KPAVCTRecallMon@@U?$less@K@std@@V?$allocator@U?$pair@$$CBKPAVCTRecallMon@@@std@@@3@$0A@@std@@@2@PAU342@@Z ENDP ; std::_Tree<std::_Tmap_traits<unsigned long,CTRecallMon *,std::less<unsigned long>,std::allocator<std::pair<unsigned long const ,CTRecallMon *> >,0> >::_Right
_TEXT	ENDS
PUBLIC	?_Lmost@?$_Tree@V?$_Tmap_traits@KPAVCTRecallMon@@U?$less@K@std@@V?$allocator@U?$pair@$$CBKPAVCTRecallMon@@@std@@@3@$0A@@std@@@std@@IAEAAPAU_Node@?$_Tree_nod@V?$_Tmap_traits@KPAVCTRecallMon@@U?$less@K@std@@V?$allocator@U?$pair@$$CBKPAVCTRecallMon@@@std@@@3@$0A@@std@@@2@XZ ; std::_Tree<std::_Tmap_traits<unsigned long,CTRecallMon *,std::less<unsigned long>,std::allocator<std::pair<unsigned long const ,CTRecallMon *> >,0> >::_Lmost
; Function compile flags: /Ogty
;	COMDAT ?_Lmost@?$_Tree@V?$_Tmap_traits@KPAVCTRecallMon@@U?$less@K@std@@V?$allocator@U?$pair@$$CBKPAVCTRecallMon@@@std@@@3@$0A@@std@@@std@@IAEAAPAU_Node@?$_Tree_nod@V?$_Tmap_traits@KPAVCTRecallMon@@U?$less@K@std@@V?$allocator@U?$pair@$$CBKPAVCTRecallMon@@@std@@@3@$0A@@std@@@2@XZ
_TEXT	SEGMENT
?_Lmost@?$_Tree@V?$_Tmap_traits@KPAVCTRecallMon@@U?$less@K@std@@V?$allocator@U?$pair@$$CBKPAVCTRecallMon@@@std@@@3@$0A@@std@@@std@@IAEAAPAU_Node@?$_Tree_nod@V?$_Tmap_traits@KPAVCTRecallMon@@U?$less@K@std@@V?$allocator@U?$pair@$$CBKPAVCTRecallMon@@@std@@@3@$0A@@std@@@2@XZ PROC NEAR ; std::_Tree<std::_Tmap_traits<unsigned long,CTRecallMon *,std::less<unsigned long>,std::allocator<std::pair<unsigned long const ,CTRecallMon *> >,0> >::_Lmost, COMDAT
; _this$ = ecx

; 1005 : 		return (_Left(_Myhead));

  00000	8b 41 04	 mov	 eax, DWORD PTR [ecx+4]

; 1006 : 		}

  00003	c3		 ret	 0
?_Lmost@?$_Tree@V?$_Tmap_traits@KPAVCTRecallMon@@U?$less@K@std@@V?$allocator@U?$pair@$$CBKPAVCTRecallMon@@@std@@@3@$0A@@std@@@std@@IAEAAPAU_Node@?$_Tree_nod@V?$_Tmap_traits@KPAVCTRecallMon@@U?$less@K@std@@V?$allocator@U?$pair@$$CBKPAVCTRecallMon@@@std@@@3@$0A@@std@@@2@XZ ENDP ; std::_Tree<std::_Tmap_traits<unsigned long,CTRecallMon *,std::less<unsigned long>,std::allocator<std::pair<unsigned long const ,CTRecallMon *> >,0> >::_Lmost
_TEXT	ENDS
PUBLIC	?_Max@?$_Tree@V?$_Tmap_traits@KPAVCTRecallMon@@U?$less@K@std@@V?$allocator@U?$pair@$$CBKPAVCTRecallMon@@@std@@@3@$0A@@std@@@std@@KAPAU_Node@?$_Tree_nod@V?$_Tmap_traits@KPAVCTRecallMon@@U?$less@K@std@@V?$allocator@U?$pair@$$CBKPAVCTRecallMon@@@std@@@3@$0A@@std@@@2@PAU342@@Z ; std::_Tree<std::_Tmap_traits<unsigned long,CTRecallMon *,std::less<unsigned long>,std::allocator<std::pair<unsigned long const ,CTRecallMon *> >,0> >::_Max
; Function compile flags: /Ogty
;	COMDAT ?_Max@?$_Tree@V?$_Tmap_traits@KPAVCTRecallMon@@U?$less@K@std@@V?$allocator@U?$pair@$$CBKPAVCTRecallMon@@@std@@@3@$0A@@std@@@std@@KAPAU_Node@?$_Tree_nod@V?$_Tmap_traits@KPAVCTRecallMon@@U?$less@K@std@@V?$allocator@U?$pair@$$CBKPAVCTRecallMon@@@std@@@3@$0A@@std@@@2@PAU342@@Z
_TEXT	SEGMENT
__Pnode$ = 8						; size = 4
?_Max@?$_Tree@V?$_Tmap_traits@KPAVCTRecallMon@@U?$less@K@std@@V?$allocator@U?$pair@$$CBKPAVCTRecallMon@@@std@@@3@$0A@@std@@@std@@KAPAU_Node@?$_Tree_nod@V?$_Tmap_traits@KPAVCTRecallMon@@U?$less@K@std@@V?$allocator@U?$pair@$$CBKPAVCTRecallMon@@@std@@@3@$0A@@std@@@2@PAU342@@Z PROC NEAR ; std::_Tree<std::_Tmap_traits<unsigned long,CTRecallMon *,std::less<unsigned long>,std::allocator<std::pair<unsigned long const ,CTRecallMon *> >,0> >::_Max, COMDAT

; 1035 : 		while (!_Isnil(_Right(_Pnode)))

  00000	8b 44 24 04	 mov	 eax, DWORD PTR __Pnode$[esp-4]
  00004	8b 48 08	 mov	 ecx, DWORD PTR [eax+8]
  00007	8a 51 15	 mov	 dl, BYTE PTR [ecx+21]
  0000a	84 d2		 test	 dl, dl
  0000c	75 0e		 jne	 SHORT $L154459
  0000e	8b ff		 npad	 2
$L154458:

; 1036 : 			_Pnode = _Right(_Pnode);

  00010	8b c1		 mov	 eax, ecx
  00012	8b 48 08	 mov	 ecx, DWORD PTR [eax+8]
  00015	8a 51 15	 mov	 dl, BYTE PTR [ecx+21]
  00018	84 d2		 test	 dl, dl
  0001a	74 f4		 je	 SHORT $L154458
$L154459:

; 1037 : 		return (_Pnode);
; 1038 : 		}

  0001c	c3		 ret	 0
?_Max@?$_Tree@V?$_Tmap_traits@KPAVCTRecallMon@@U?$less@K@std@@V?$allocator@U?$pair@$$CBKPAVCTRecallMon@@@std@@@3@$0A@@std@@@std@@KAPAU_Node@?$_Tree_nod@V?$_Tmap_traits@KPAVCTRecallMon@@U?$less@K@std@@V?$allocator@U?$pair@$$CBKPAVCTRecallMon@@@std@@@3@$0A@@std@@@2@PAU342@@Z ENDP ; std::_Tree<std::_Tmap_traits<unsigned long,CTRecallMon *,std::less<unsigned long>,std::allocator<std::pair<unsigned long const ,CTRecallMon *> >,0> >::_Max
_TEXT	ENDS
PUBLIC	?_Min@?$_Tree@V?$_Tmap_traits@KPAVCTRecallMon@@U?$less@K@std@@V?$allocator@U?$pair@$$CBKPAVCTRecallMon@@@std@@@3@$0A@@std@@@std@@KAPAU_Node@?$_Tree_nod@V?$_Tmap_traits@KPAVCTRecallMon@@U?$less@K@std@@V?$allocator@U?$pair@$$CBKPAVCTRecallMon@@@std@@@3@$0A@@std@@@2@PAU342@@Z ; std::_Tree<std::_Tmap_traits<unsigned long,CTRecallMon *,std::less<unsigned long>,std::allocator<std::pair<unsigned long const ,CTRecallMon *> >,0> >::_Min
; Function compile flags: /Ogty
;	COMDAT ?_Min@?$_Tree@V?$_Tmap_traits@KPAVCTRecallMon@@U?$less@K@std@@V?$allocator@U?$pair@$$CBKPAVCTRecallMon@@@std@@@3@$0A@@std@@@std@@KAPAU_Node@?$_Tree_nod@V?$_Tmap_traits@KPAVCTRecallMon@@U?$less@K@std@@V?$allocator@U?$pair@$$CBKPAVCTRecallMon@@@std@@@3@$0A@@std@@@2@PAU342@@Z
_TEXT	SEGMENT
__Pnode$ = 8						; size = 4
?_Min@?$_Tree@V?$_Tmap_traits@KPAVCTRecallMon@@U?$less@K@std@@V?$allocator@U?$pair@$$CBKPAVCTRecallMon@@@std@@@3@$0A@@std@@@std@@KAPAU_Node@?$_Tree_nod@V?$_Tmap_traits@KPAVCTRecallMon@@U?$less@K@std@@V?$allocator@U?$pair@$$CBKPAVCTRecallMon@@@std@@@3@$0A@@std@@@2@PAU342@@Z PROC NEAR ; std::_Tree<std::_Tmap_traits<unsigned long,CTRecallMon *,std::less<unsigned long>,std::allocator<std::pair<unsigned long const ,CTRecallMon *> >,0> >::_Min, COMDAT

; 1042 : 		while (!_Isnil(_Left(_Pnode)))

  00000	8b 44 24 04	 mov	 eax, DWORD PTR __Pnode$[esp-4]
  00004	8b 08		 mov	 ecx, DWORD PTR [eax]
  00006	8a 51 15	 mov	 dl, BYTE PTR [ecx+21]
  00009	84 d2		 test	 dl, dl
  0000b	75 0e		 jne	 SHORT $L154463
  0000d	8d 49 00	 npad	 3
$L154462:

; 1043 : 			_Pnode = _Left(_Pnode);

  00010	8b c1		 mov	 eax, ecx
  00012	8b 08		 mov	 ecx, DWORD PTR [eax]
  00014	8a 51 15	 mov	 dl, BYTE PTR [ecx+21]
  00017	84 d2		 test	 dl, dl
  00019	74 f5		 je	 SHORT $L154462
$L154463:

; 1044 : 		return (_Pnode);
; 1045 : 		}

  0001b	c3		 ret	 0
?_Min@?$_Tree@V?$_Tmap_traits@KPAVCTRecallMon@@U?$less@K@std@@V?$allocator@U?$pair@$$CBKPAVCTRecallMon@@@std@@@3@$0A@@std@@@std@@KAPAU_Node@?$_Tree_nod@V?$_Tmap_traits@KPAVCTRecallMon@@U?$less@K@std@@V?$allocator@U?$pair@$$CBKPAVCTRecallMon@@@std@@@3@$0A@@std@@@2@PAU342@@Z ENDP ; std::_Tree<std::_Tmap_traits<unsigned long,CTRecallMon *,std::less<unsigned long>,std::allocator<std::pair<unsigned long const ,CTRecallMon *> >,0> >::_Min
_TEXT	ENDS
PUBLIC	?_Rmost@?$_Tree@V?$_Tmap_traits@KPAVCTRecallMon@@U?$less@K@std@@V?$allocator@U?$pair@$$CBKPAVCTRecallMon@@@std@@@3@$0A@@std@@@std@@IAEAAPAU_Node@?$_Tree_nod@V?$_Tmap_traits@KPAVCTRecallMon@@U?$less@K@std@@V?$allocator@U?$pair@$$CBKPAVCTRecallMon@@@std@@@3@$0A@@std@@@2@XZ ; std::_Tree<std::_Tmap_traits<unsigned long,CTRecallMon *,std::less<unsigned long>,std::allocator<std::pair<unsigned long const ,CTRecallMon *> >,0> >::_Rmost
; Function compile flags: /Ogty
;	COMDAT ?_Rmost@?$_Tree@V?$_Tmap_traits@KPAVCTRecallMon@@U?$less@K@std@@V?$allocator@U?$pair@$$CBKPAVCTRecallMon@@@std@@@3@$0A@@std@@@std@@IAEAAPAU_Node@?$_Tree_nod@V?$_Tmap_traits@KPAVCTRecallMon@@U?$less@K@std@@V?$allocator@U?$pair@$$CBKPAVCTRecallMon@@@std@@@3@$0A@@std@@@2@XZ
_TEXT	SEGMENT
?_Rmost@?$_Tree@V?$_Tmap_traits@KPAVCTRecallMon@@U?$less@K@std@@V?$allocator@U?$pair@$$CBKPAVCTRecallMon@@@std@@@3@$0A@@std@@@std@@IAEAAPAU_Node@?$_Tree_nod@V?$_Tmap_traits@KPAVCTRecallMon@@U?$less@K@std@@V?$allocator@U?$pair@$$CBKPAVCTRecallMon@@@std@@@3@$0A@@std@@@2@XZ PROC NEAR ; std::_Tree<std::_Tmap_traits<unsigned long,CTRecallMon *,std::less<unsigned long>,std::allocator<std::pair<unsigned long const ,CTRecallMon *> >,0> >::_Rmost, COMDAT
; _this$ = ecx

; 1049 : 		return (_Right(_Myhead));

  00000	8b 41 04	 mov	 eax, DWORD PTR [ecx+4]
  00003	83 c0 08	 add	 eax, 8

; 1050 : 		}

  00006	c3		 ret	 0
?_Rmost@?$_Tree@V?$_Tmap_traits@KPAVCTRecallMon@@U?$less@K@std@@V?$allocator@U?$pair@$$CBKPAVCTRecallMon@@@std@@@3@$0A@@std@@@std@@IAEAAPAU_Node@?$_Tree_nod@V?$_Tmap_traits@KPAVCTRecallMon@@U?$less@K@std@@V?$allocator@U?$pair@$$CBKPAVCTRecallMon@@@std@@@3@$0A@@std@@@2@XZ ENDP ; std::_Tree<std::_Tmap_traits<unsigned long,CTRecallMon *,std::less<unsigned long>,std::allocator<std::pair<unsigned long const ,CTRecallMon *> >,0> >::_Rmost
_TEXT	ENDS
PUBLIC	?_Root@?$_Tree@V?$_Tmap_traits@KPAVCTRecallMon@@U?$less@K@std@@V?$allocator@U?$pair@$$CBKPAVCTRecallMon@@@std@@@3@$0A@@std@@@std@@IAEAAPAU_Node@?$_Tree_nod@V?$_Tmap_traits@KPAVCTRecallMon@@U?$less@K@std@@V?$allocator@U?$pair@$$CBKPAVCTRecallMon@@@std@@@3@$0A@@std@@@2@XZ ; std::_Tree<std::_Tmap_traits<unsigned long,CTRecallMon *,std::less<unsigned long>,std::allocator<std::pair<unsigned long const ,CTRecallMon *> >,0> >::_Root
; Function compile flags: /Ogty
;	COMDAT ?_Root@?$_Tree@V?$_Tmap_traits@KPAVCTRecallMon@@U?$less@K@std@@V?$allocator@U?$pair@$$CBKPAVCTRecallMon@@@std@@@3@$0A@@std@@@std@@IAEAAPAU_Node@?$_Tree_nod@V?$_Tmap_traits@KPAVCTRecallMon@@U?$less@K@std@@V?$allocator@U?$pair@$$CBKPAVCTRecallMon@@@std@@@3@$0A@@std@@@2@XZ
_TEXT	SEGMENT
?_Root@?$_Tree@V?$_Tmap_traits@KPAVCTRecallMon@@U?$less@K@std@@V?$allocator@U?$pair@$$CBKPAVCTRecallMon@@@std@@@3@$0A@@std@@@std@@IAEAAPAU_Node@?$_Tree_nod@V?$_Tmap_traits@KPAVCTRecallMon@@U?$less@K@std@@V?$allocator@U?$pair@$$CBKPAVCTRecallMon@@@std@@@3@$0A@@std@@@2@XZ PROC NEAR ; std::_Tree<std::_Tmap_traits<unsigned long,CTRecallMon *,std::less<unsigned long>,std::allocator<std::pair<unsigned long const ,CTRecallMon *> >,0> >::_Root, COMDAT
; _this$ = ecx

; 1059 : 		return (_Parent(_Myhead));

  00000	8b 41 04	 mov	 eax, DWORD PTR [ecx+4]
  00003	83 c0 04	 add	 eax, 4

; 1060 : 		}

  00006	c3		 ret	 0
?_Root@?$_Tree@V?$_Tmap_traits@KPAVCTRecallMon@@U?$less@K@std@@V?$allocator@U?$pair@$$CBKPAVCTRecallMon@@@std@@@3@$0A@@std@@@std@@IAEAAPAU_Node@?$_Tree_nod@V?$_Tmap_traits@KPAVCTRecallMon@@U?$less@K@std@@V?$allocator@U?$pair@$$CBKPAVCTRecallMon@@@std@@@3@$0A@@std@@@2@XZ ENDP ; std::_Tree<std::_Tmap_traits<unsigned long,CTRecallMon *,std::less<unsigned long>,std::allocator<std::pair<unsigned long const ,CTRecallMon *> >,0> >::_Root
_TEXT	ENDS
PUBLIC	?_Rrotate@?$_Tree@V?$_Tmap_traits@KPAVCTRecallMon@@U?$less@K@std@@V?$allocator@U?$pair@$$CBKPAVCTRecallMon@@@std@@@3@$0A@@std@@@std@@IAEXPAU_Node@?$_Tree_nod@V?$_Tmap_traits@KPAVCTRecallMon@@U?$less@K@std@@V?$allocator@U?$pair@$$CBKPAVCTRecallMon@@@std@@@3@$0A@@std@@@2@@Z ; std::_Tree<std::_Tmap_traits<unsigned long,CTRecallMon *,std::less<unsigned long>,std::allocator<std::pair<unsigned long const ,CTRecallMon *> >,0> >::_Rrotate
; Function compile flags: /Ogty
;	COMDAT ?_Rrotate@?$_Tree@V?$_Tmap_traits@KPAVCTRecallMon@@U?$less@K@std@@V?$allocator@U?$pair@$$CBKPAVCTRecallMon@@@std@@@3@$0A@@std@@@std@@IAEXPAU_Node@?$_Tree_nod@V?$_Tmap_traits@KPAVCTRecallMon@@U?$less@K@std@@V?$allocator@U?$pair@$$CBKPAVCTRecallMon@@@std@@@3@$0A@@std@@@2@@Z
_TEXT	SEGMENT
__Wherenode$ = 8					; size = 4
?_Rrotate@?$_Tree@V?$_Tmap_traits@KPAVCTRecallMon@@U?$less@K@std@@V?$allocator@U?$pair@$$CBKPAVCTRecallMon@@@std@@@3@$0A@@std@@@std@@IAEXPAU_Node@?$_Tree_nod@V?$_Tmap_traits@KPAVCTRecallMon@@U?$less@K@std@@V?$allocator@U?$pair@$$CBKPAVCTRecallMon@@@std@@@3@$0A@@std@@@2@@Z PROC NEAR ; std::_Tree<std::_Tmap_traits<unsigned long,CTRecallMon *,std::less<unsigned long>,std::allocator<std::pair<unsigned long const ,CTRecallMon *> >,0> >::_Rrotate, COMDAT
; _this$ = ecx

; 1069 : 		_Nodeptr _Pnode = _Left(_Wherenode);

  00000	8b 54 24 04	 mov	 edx, DWORD PTR __Wherenode$[esp-4]
  00004	8b 02		 mov	 eax, DWORD PTR [edx]
  00006	53		 push	 ebx
  00007	56		 push	 esi

; 1070 : 		_Left(_Wherenode) = _Right(_Pnode);

  00008	8b 70 08	 mov	 esi, DWORD PTR [eax+8]
  0000b	89 32		 mov	 DWORD PTR [edx], esi

; 1071 : 
; 1072 : 		if (!_Isnil(_Right(_Pnode)))

  0000d	8b 70 08	 mov	 esi, DWORD PTR [eax+8]
  00010	8a 5e 15	 mov	 bl, BYTE PTR [esi+21]
  00013	84 db		 test	 bl, bl
  00015	75 03		 jne	 SHORT $L154471

; 1073 : 			_Parent(_Right(_Pnode)) = _Wherenode;

  00017	89 56 04	 mov	 DWORD PTR [esi+4], edx
$L154471:

; 1074 : 		_Parent(_Pnode) = _Parent(_Wherenode);

  0001a	8b 72 04	 mov	 esi, DWORD PTR [edx+4]
  0001d	89 70 04	 mov	 DWORD PTR [eax+4], esi

; 1075 : 
; 1076 : 		if (_Wherenode == _Root())

  00020	8b 49 04	 mov	 ecx, DWORD PTR [ecx+4]
  00023	3b 51 04	 cmp	 edx, DWORD PTR [ecx+4]
  00026	75 0e		 jne	 SHORT $L154472

; 1077 : 			_Root() = _Pnode;

  00028	89 41 04	 mov	 DWORD PTR [ecx+4], eax
  0002b	5e		 pop	 esi

; 1082 : 
; 1083 : 		_Right(_Pnode) = _Wherenode;

  0002c	89 50 08	 mov	 DWORD PTR [eax+8], edx

; 1084 : 		_Parent(_Wherenode) = _Pnode;

  0002f	89 42 04	 mov	 DWORD PTR [edx+4], eax
  00032	5b		 pop	 ebx

; 1085 : 		}

  00033	c2 04 00	 ret	 4
$L154472:

; 1078 : 		else if (_Wherenode == _Right(_Parent(_Wherenode)))

  00036	8b 4a 04	 mov	 ecx, DWORD PTR [edx+4]
  00039	3b 51 08	 cmp	 edx, DWORD PTR [ecx+8]
  0003c	75 0e		 jne	 SHORT $L154474

; 1079 : 			_Right(_Parent(_Wherenode)) = _Pnode;

  0003e	89 41 08	 mov	 DWORD PTR [ecx+8], eax
  00041	5e		 pop	 esi

; 1082 : 
; 1083 : 		_Right(_Pnode) = _Wherenode;

  00042	89 50 08	 mov	 DWORD PTR [eax+8], edx

; 1084 : 		_Parent(_Wherenode) = _Pnode;

  00045	89 42 04	 mov	 DWORD PTR [edx+4], eax
  00048	5b		 pop	 ebx

; 1085 : 		}

  00049	c2 04 00	 ret	 4
$L154474:

; 1080 : 		else
; 1081 : 			_Left(_Parent(_Wherenode)) = _Pnode;

  0004c	89 01		 mov	 DWORD PTR [ecx], eax
  0004e	5e		 pop	 esi

; 1082 : 
; 1083 : 		_Right(_Pnode) = _Wherenode;

  0004f	89 50 08	 mov	 DWORD PTR [eax+8], edx

; 1084 : 		_Parent(_Wherenode) = _Pnode;

  00052	89 42 04	 mov	 DWORD PTR [edx+4], eax
  00055	5b		 pop	 ebx

; 1085 : 		}

  00056	c2 04 00	 ret	 4
?_Rrotate@?$_Tree@V?$_Tmap_traits@KPAVCTRecallMon@@U?$less@K@std@@V?$allocator@U?$pair@$$CBKPAVCTRecallMon@@@std@@@3@$0A@@std@@@std@@IAEXPAU_Node@?$_Tree_nod@V?$_Tmap_traits@KPAVCTRecallMon@@U?$less@K@std@@V?$allocator@U?$pair@$$CBKPAVCTRecallMon@@@std@@@3@$0A@@std@@@2@@Z ENDP ; std::_Tree<std::_Tmap_traits<unsigned long,CTRecallMon *,std::less<unsigned long>,std::allocator<std::pair<unsigned long const ,CTRecallMon *> >,0> >::_Rrotate
_TEXT	ENDS
PUBLIC	?_Kfn@?$_Tmap_traits@KPAVCTRecallMon@@U?$less@K@std@@V?$allocator@U?$pair@$$CBKPAVCTRecallMon@@@std@@@3@$0A@@std@@SAABKABU?$pair@$$CBKPAVCTRecallMon@@@2@@Z ; std::_Tmap_traits<unsigned long,CTRecallMon *,std::less<unsigned long>,std::allocator<std::pair<unsigned long const ,CTRecallMon *> >,0>::_Kfn
; Function compile flags: /Ogty
; File c:\program files (x86)\microsoft visual studio .net 2003\vc7\include\map
;	COMDAT ?_Kfn@?$_Tmap_traits@KPAVCTRecallMon@@U?$less@K@std@@V?$allocator@U?$pair@$$CBKPAVCTRecallMon@@@std@@@3@$0A@@std@@SAABKABU?$pair@$$CBKPAVCTRecallMon@@@2@@Z
_TEXT	SEGMENT
__Val$ = 8						; size = 4
?_Kfn@?$_Tmap_traits@KPAVCTRecallMon@@U?$less@K@std@@V?$allocator@U?$pair@$$CBKPAVCTRecallMon@@@std@@@3@$0A@@std@@SAABKABU?$pair@$$CBKPAVCTRecallMon@@@2@@Z PROC NEAR ; std::_Tmap_traits<unsigned long,CTRecallMon *,std::less<unsigned long>,std::allocator<std::pair<unsigned long const ,CTRecallMon *> >,0>::_Kfn, COMDAT

; 64   : 		return (_Val.first);

  00000	8b 44 24 04	 mov	 eax, DWORD PTR __Val$[esp-4]

; 65   : 		}

  00004	c3		 ret	 0
?_Kfn@?$_Tmap_traits@KPAVCTRecallMon@@U?$less@K@std@@V?$allocator@U?$pair@$$CBKPAVCTRecallMon@@@std@@@3@$0A@@std@@SAABKABU?$pair@$$CBKPAVCTRecallMon@@@2@@Z ENDP ; std::_Tmap_traits<unsigned long,CTRecallMon *,std::less<unsigned long>,std::allocator<std::pair<unsigned long const ,CTRecallMon *> >,0>::_Kfn
_TEXT	ENDS
PUBLIC	??0?$allocator@U?$pair@$$CBKPAVCTRecallMon@@@std@@@std@@QAE@XZ ; std::allocator<std::pair<unsigned long const ,CTRecallMon *> >::allocator<std::pair<unsigned long const ,CTRecallMon *> >
; Function compile flags: /Ogty
; File c:\program files (x86)\microsoft visual studio .net 2003\vc7\include\xmemory
;	COMDAT ??0?$allocator@U?$pair@$$CBKPAVCTRecallMon@@@std@@@std@@QAE@XZ
_TEXT	SEGMENT
??0?$allocator@U?$pair@$$CBKPAVCTRecallMon@@@std@@@std@@QAE@XZ PROC NEAR ; std::allocator<std::pair<unsigned long const ,CTRecallMon *> >::allocator<std::pair<unsigned long const ,CTRecallMon *> >, COMDAT
; _this$ = ecx

; 111  : 	allocator()

  00000	8b c1		 mov	 eax, ecx

; 112  : 		{	// construct default allocator (do nothing)
; 113  : 		}

  00002	c3		 ret	 0
??0?$allocator@U?$pair@$$CBKPAVCTRecallMon@@@std@@@std@@QAE@XZ ENDP ; std::allocator<std::pair<unsigned long const ,CTRecallMon *> >::allocator<std::pair<unsigned long const ,CTRecallMon *> >
_TEXT	ENDS
PUBLIC	?deallocate@?$allocator@U_Node@?$_Tree_nod@V?$_Tmap_traits@KPAVCTRecallMon@@U?$less@K@std@@V?$allocator@U?$pair@$$CBKPAVCTRecallMon@@@std@@@3@$0A@@std@@@std@@@std@@QAEXPAU_Node@?$_Tree_nod@V?$_Tmap_traits@KPAVCTRecallMon@@U?$less@K@std@@V?$allocator@U?$pair@$$CBKPAVCTRecallMon@@@std@@@3@$0A@@std@@@2@I@Z ; std::allocator<std::_Tree_nod<std::_Tmap_traits<unsigned long,CTRecallMon *,std::less<unsigned long>,std::allocator<std::pair<unsigned long const ,CTRecallMon *> >,0> >::_Node>::deallocate
; Function compile flags: /Ogty
;	COMDAT ?deallocate@?$allocator@U_Node@?$_Tree_nod@V?$_Tmap_traits@KPAVCTRecallMon@@U?$less@K@std@@V?$allocator@U?$pair@$$CBKPAVCTRecallMon@@@std@@@3@$0A@@std@@@std@@@std@@QAEXPAU_Node@?$_Tree_nod@V?$_Tmap_traits@KPAVCTRecallMon@@U?$less@K@std@@V?$allocator@U?$pair@$$CBKPAVCTRecallMon@@@std@@@3@$0A@@std@@@2@I@Z
_TEXT	SEGMENT
__Ptr$ = 8						; size = 4
___formal$ = 12						; size = 4
?deallocate@?$allocator@U_Node@?$_Tree_nod@V?$_Tmap_traits@KPAVCTRecallMon@@U?$less@K@std@@V?$allocator@U?$pair@$$CBKPAVCTRecallMon@@@std@@@3@$0A@@std@@@std@@@std@@QAEXPAU_Node@?$_Tree_nod@V?$_Tmap_traits@KPAVCTRecallMon@@U?$less@K@std@@V?$allocator@U?$pair@$$CBKPAVCTRecallMon@@@std@@@3@$0A@@std@@@2@I@Z PROC NEAR ; std::allocator<std::_Tree_nod<std::_Tmap_traits<unsigned long,CTRecallMon *,std::less<unsigned long>,std::allocator<std::pair<unsigned long const ,CTRecallMon *> >,0> >::_Node>::deallocate, COMDAT
; _this$ = ecx

; 132  : 		operator delete(_Ptr);

  00000	8b 44 24 04	 mov	 eax, DWORD PTR __Ptr$[esp-4]
  00004	50		 push	 eax
  00005	e8 00 00 00 00	 call	 ??3@YAXPAX@Z		; operator delete
  0000a	59		 pop	 ecx

; 133  : 		}

  0000b	c2 08 00	 ret	 8
?deallocate@?$allocator@U_Node@?$_Tree_nod@V?$_Tmap_traits@KPAVCTRecallMon@@U?$less@K@std@@V?$allocator@U?$pair@$$CBKPAVCTRecallMon@@@std@@@3@$0A@@std@@@std@@@std@@QAEXPAU_Node@?$_Tree_nod@V?$_Tmap_traits@KPAVCTRecallMon@@U?$less@K@std@@V?$allocator@U?$pair@$$CBKPAVCTRecallMon@@@std@@@3@$0A@@std@@@2@I@Z ENDP ; std::allocator<std::_Tree_nod<std::_Tmap_traits<unsigned long,CTRecallMon *,std::less<unsigned long>,std::allocator<std::pair<unsigned long const ,CTRecallMon *> >,0> >::_Node>::deallocate
_TEXT	ENDS
PUBLIC	?_Color@?$_Tree@V?$_Tmap_traits@KPAVCTSelfObj@@U?$less@K@std@@V?$allocator@U?$pair@$$CBKPAVCTSelfObj@@@std@@@3@$0A@@std@@@std@@KAAADPAU_Node@?$_Tree_nod@V?$_Tmap_traits@KPAVCTSelfObj@@U?$less@K@std@@V?$allocator@U?$pair@$$CBKPAVCTSelfObj@@@std@@@3@$0A@@std@@@2@@Z ; std::_Tree<std::_Tmap_traits<unsigned long,CTSelfObj *,std::less<unsigned long>,std::allocator<std::pair<unsigned long const ,CTSelfObj *> >,0> >::_Color
; Function compile flags: /Ogty
; File c:\program files (x86)\microsoft visual studio .net 2003\vc7\include\xtree
;	COMDAT ?_Color@?$_Tree@V?$_Tmap_traits@KPAVCTSelfObj@@U?$less@K@std@@V?$allocator@U?$pair@$$CBKPAVCTSelfObj@@@std@@@3@$0A@@std@@@std@@KAAADPAU_Node@?$_Tree_nod@V?$_Tmap_traits@KPAVCTSelfObj@@U?$less@K@std@@V?$allocator@U?$pair@$$CBKPAVCTSelfObj@@@std@@@3@$0A@@std@@@2@@Z
_TEXT	SEGMENT
__Pnode$ = 8						; size = 4
?_Color@?$_Tree@V?$_Tmap_traits@KPAVCTSelfObj@@U?$less@K@std@@V?$allocator@U?$pair@$$CBKPAVCTSelfObj@@@std@@@3@$0A@@std@@@std@@KAAADPAU_Node@?$_Tree_nod@V?$_Tmap_traits@KPAVCTSelfObj@@U?$less@K@std@@V?$allocator@U?$pair@$$CBKPAVCTSelfObj@@@std@@@3@$0A@@std@@@2@@Z PROC NEAR ; std::_Tree<std::_Tmap_traits<unsigned long,CTSelfObj *,std::less<unsigned long>,std::allocator<std::pair<unsigned long const ,CTSelfObj *> >,0> >::_Color, COMDAT

; 132  : 		return ((_Charref)(*_Pnode)._Color);

  00000	8b 44 24 04	 mov	 eax, DWORD PTR __Pnode$[esp-4]
  00004	83 c0 14	 add	 eax, 20			; 00000014H

; 133  : 		}

  00007	c3		 ret	 0
?_Color@?$_Tree@V?$_Tmap_traits@KPAVCTSelfObj@@U?$less@K@std@@V?$allocator@U?$pair@$$CBKPAVCTSelfObj@@@std@@@3@$0A@@std@@@std@@KAAADPAU_Node@?$_Tree_nod@V?$_Tmap_traits@KPAVCTSelfObj@@U?$less@K@std@@V?$allocator@U?$pair@$$CBKPAVCTSelfObj@@@std@@@3@$0A@@std@@@2@@Z ENDP ; std::_Tree<std::_Tmap_traits<unsigned long,CTSelfObj *,std::less<unsigned long>,std::allocator<std::pair<unsigned long const ,CTSelfObj *> >,0> >::_Color
_TEXT	ENDS
PUBLIC	?_Isnil@?$_Tree@V?$_Tmap_traits@KPAVCTSelfObj@@U?$less@K@std@@V?$allocator@U?$pair@$$CBKPAVCTSelfObj@@@std@@@3@$0A@@std@@@std@@KAAADPAU_Node@?$_Tree_nod@V?$_Tmap_traits@KPAVCTSelfObj@@U?$less@K@std@@V?$allocator@U?$pair@$$CBKPAVCTSelfObj@@@std@@@3@$0A@@std@@@2@@Z ; std::_Tree<std::_Tmap_traits<unsigned long,CTSelfObj *,std::less<unsigned long>,std::allocator<std::pair<unsigned long const ,CTSelfObj *> >,0> >::_Isnil
; Function compile flags: /Ogty
;	COMDAT ?_Isnil@?$_Tree@V?$_Tmap_traits@KPAVCTSelfObj@@U?$less@K@std@@V?$allocator@U?$pair@$$CBKPAVCTSelfObj@@@std@@@3@$0A@@std@@@std@@KAAADPAU_Node@?$_Tree_nod@V?$_Tmap_traits@KPAVCTSelfObj@@U?$less@K@std@@V?$allocator@U?$pair@$$CBKPAVCTSelfObj@@@std@@@3@$0A@@std@@@2@@Z
_TEXT	SEGMENT
__Pnode$ = 8						; size = 4
?_Isnil@?$_Tree@V?$_Tmap_traits@KPAVCTSelfObj@@U?$less@K@std@@V?$allocator@U?$pair@$$CBKPAVCTSelfObj@@@std@@@3@$0A@@std@@@std@@KAAADPAU_Node@?$_Tree_nod@V?$_Tmap_traits@KPAVCTSelfObj@@U?$less@K@std@@V?$allocator@U?$pair@$$CBKPAVCTSelfObj@@@std@@@3@$0A@@std@@@2@@Z PROC NEAR ; std::_Tree<std::_Tmap_traits<unsigned long,CTSelfObj *,std::less<unsigned long>,std::allocator<std::pair<unsigned long const ,CTSelfObj *> >,0> >::_Isnil, COMDAT

; 137  : 		return ((_Charref)(*_Pnode)._Isnil);

  00000	8b 44 24 04	 mov	 eax, DWORD PTR __Pnode$[esp-4]
  00004	83 c0 15	 add	 eax, 21			; 00000015H

; 138  : 		}

  00007	c3		 ret	 0
?_Isnil@?$_Tree@V?$_Tmap_traits@KPAVCTSelfObj@@U?$less@K@std@@V?$allocator@U?$pair@$$CBKPAVCTSelfObj@@@std@@@3@$0A@@std@@@std@@KAAADPAU_Node@?$_Tree_nod@V?$_Tmap_traits@KPAVCTSelfObj@@U?$less@K@std@@V?$allocator@U?$pair@$$CBKPAVCTSelfObj@@@std@@@3@$0A@@std@@@2@@Z ENDP ; std::_Tree<std::_Tmap_traits<unsigned long,CTSelfObj *,std::less<unsigned long>,std::allocator<std::pair<unsigned long const ,CTSelfObj *> >,0> >::_Isnil
_TEXT	ENDS
PUBLIC	?_Left@?$_Tree@V?$_Tmap_traits@KPAVCTSelfObj@@U?$less@K@std@@V?$allocator@U?$pair@$$CBKPAVCTSelfObj@@@std@@@3@$0A@@std@@@std@@KAAAPAU_Node@?$_Tree_nod@V?$_Tmap_traits@KPAVCTSelfObj@@U?$less@K@std@@V?$allocator@U?$pair@$$CBKPAVCTSelfObj@@@std@@@3@$0A@@std@@@2@PAU342@@Z ; std::_Tree<std::_Tmap_traits<unsigned long,CTSelfObj *,std::less<unsigned long>,std::allocator<std::pair<unsigned long const ,CTSelfObj *> >,0> >::_Left
; Function compile flags: /Ogty
;	COMDAT ?_Left@?$_Tree@V?$_Tmap_traits@KPAVCTSelfObj@@U?$less@K@std@@V?$allocator@U?$pair@$$CBKPAVCTSelfObj@@@std@@@3@$0A@@std@@@std@@KAAAPAU_Node@?$_Tree_nod@V?$_Tmap_traits@KPAVCTSelfObj@@U?$less@K@std@@V?$allocator@U?$pair@$$CBKPAVCTSelfObj@@@std@@@3@$0A@@std@@@2@PAU342@@Z
_TEXT	SEGMENT
__Pnode$ = 8						; size = 4
?_Left@?$_Tree@V?$_Tmap_traits@KPAVCTSelfObj@@U?$less@K@std@@V?$allocator@U?$pair@$$CBKPAVCTSelfObj@@@std@@@3@$0A@@std@@@std@@KAAAPAU_Node@?$_Tree_nod@V?$_Tmap_traits@KPAVCTSelfObj@@U?$less@K@std@@V?$allocator@U?$pair@$$CBKPAVCTSelfObj@@@std@@@3@$0A@@std@@@2@PAU342@@Z PROC NEAR ; std::_Tree<std::_Tmap_traits<unsigned long,CTSelfObj *,std::less<unsigned long>,std::allocator<std::pair<unsigned long const ,CTSelfObj *> >,0> >::_Left, COMDAT

; 147  : 		return ((_Nodepref)(*_Pnode)._Left);

  00000	8b 44 24 04	 mov	 eax, DWORD PTR __Pnode$[esp-4]

; 148  : 		}

  00004	c3		 ret	 0
?_Left@?$_Tree@V?$_Tmap_traits@KPAVCTSelfObj@@U?$less@K@std@@V?$allocator@U?$pair@$$CBKPAVCTSelfObj@@@std@@@3@$0A@@std@@@std@@KAAAPAU_Node@?$_Tree_nod@V?$_Tmap_traits@KPAVCTSelfObj@@U?$less@K@std@@V?$allocator@U?$pair@$$CBKPAVCTSelfObj@@@std@@@3@$0A@@std@@@2@PAU342@@Z ENDP ; std::_Tree<std::_Tmap_traits<unsigned long,CTSelfObj *,std::less<unsigned long>,std::allocator<std::pair<unsigned long const ,CTSelfObj *> >,0> >::_Left
_TEXT	ENDS
PUBLIC	?_Parent@?$_Tree@V?$_Tmap_traits@KPAVCTSelfObj@@U?$less@K@std@@V?$allocator@U?$pair@$$CBKPAVCTSelfObj@@@std@@@3@$0A@@std@@@std@@KAAAPAU_Node@?$_Tree_nod@V?$_Tmap_traits@KPAVCTSelfObj@@U?$less@K@std@@V?$allocator@U?$pair@$$CBKPAVCTSelfObj@@@std@@@3@$0A@@std@@@2@PAU342@@Z ; std::_Tree<std::_Tmap_traits<unsigned long,CTSelfObj *,std::less<unsigned long>,std::allocator<std::pair<unsigned long const ,CTSelfObj *> >,0> >::_Parent
; Function compile flags: /Ogty
;	COMDAT ?_Parent@?$_Tree@V?$_Tmap_traits@KPAVCTSelfObj@@U?$less@K@std@@V?$allocator@U?$pair@$$CBKPAVCTSelfObj@@@std@@@3@$0A@@std@@@std@@KAAAPAU_Node@?$_Tree_nod@V?$_Tmap_traits@KPAVCTSelfObj@@U?$less@K@std@@V?$allocator@U?$pair@$$CBKPAVCTSelfObj@@@std@@@3@$0A@@std@@@2@PAU342@@Z
_TEXT	SEGMENT
__Pnode$ = 8						; size = 4
?_Parent@?$_Tree@V?$_Tmap_traits@KPAVCTSelfObj@@U?$less@K@std@@V?$allocator@U?$pair@$$CBKPAVCTSelfObj@@@std@@@3@$0A@@std@@@std@@KAAAPAU_Node@?$_Tree_nod@V?$_Tmap_traits@KPAVCTSelfObj@@U?$less@K@std@@V?$allocator@U?$pair@$$CBKPAVCTSelfObj@@@std@@@3@$0A@@std@@@2@PAU342@@Z PROC NEAR ; std::_Tree<std::_Tmap_traits<unsigned long,CTSelfObj *,std::less<unsigned long>,std::allocator<std::pair<unsigned long const ,CTSelfObj *> >,0> >::_Parent, COMDAT

; 152  : 		return ((_Nodepref)(*_Pnode)._Parent);

  00000	8b 44 24 04	 mov	 eax, DWORD PTR __Pnode$[esp-4]
  00004	83 c0 04	 add	 eax, 4

; 153  : 		}

  00007	c3		 ret	 0
?_Parent@?$_Tree@V?$_Tmap_traits@KPAVCTSelfObj@@U?$less@K@std@@V?$allocator@U?$pair@$$CBKPAVCTSelfObj@@@std@@@3@$0A@@std@@@std@@KAAAPAU_Node@?$_Tree_nod@V?$_Tmap_traits@KPAVCTSelfObj@@U?$less@K@std@@V?$allocator@U?$pair@$$CBKPAVCTSelfObj@@@std@@@3@$0A@@std@@@2@PAU342@@Z ENDP ; std::_Tree<std::_Tmap_traits<unsigned long,CTSelfObj *,std::less<unsigned long>,std::allocator<std::pair<unsigned long const ,CTSelfObj *> >,0> >::_Parent
_TEXT	ENDS
PUBLIC	?_Right@?$_Tree@V?$_Tmap_traits@KPAVCTSelfObj@@U?$less@K@std@@V?$allocator@U?$pair@$$CBKPAVCTSelfObj@@@std@@@3@$0A@@std@@@std@@KAAAPAU_Node@?$_Tree_nod@V?$_Tmap_traits@KPAVCTSelfObj@@U?$less@K@std@@V?$allocator@U?$pair@$$CBKPAVCTSelfObj@@@std@@@3@$0A@@std@@@2@PAU342@@Z ; std::_Tree<std::_Tmap_traits<unsigned long,CTSelfObj *,std::less<unsigned long>,std::allocator<std::pair<unsigned long const ,CTSelfObj *> >,0> >::_Right
; Function compile flags: /Ogty
;	COMDAT ?_Right@?$_Tree@V?$_Tmap_traits@KPAVCTSelfObj@@U?$less@K@std@@V?$allocator@U?$pair@$$CBKPAVCTSelfObj@@@std@@@3@$0A@@std@@@std@@KAAAPAU_Node@?$_Tree_nod@V?$_Tmap_traits@KPAVCTSelfObj@@U?$less@K@std@@V?$allocator@U?$pair@$$CBKPAVCTSelfObj@@@std@@@3@$0A@@std@@@2@PAU342@@Z
_TEXT	SEGMENT
__Pnode$ = 8						; size = 4
?_Right@?$_Tree@V?$_Tmap_traits@KPAVCTSelfObj@@U?$less@K@std@@V?$allocator@U?$pair@$$CBKPAVCTSelfObj@@@std@@@3@$0A@@std@@@std@@KAAAPAU_Node@?$_Tree_nod@V?$_Tmap_traits@KPAVCTSelfObj@@U?$less@K@std@@V?$allocator@U?$pair@$$CBKPAVCTSelfObj@@@std@@@3@$0A@@std@@@2@PAU342@@Z PROC NEAR ; std::_Tree<std::_Tmap_traits<unsigned long,CTSelfObj *,std::less<unsigned long>,std::allocator<std::pair<unsigned long const ,CTSelfObj *> >,0> >::_Right, COMDAT

; 157  : 		return ((_Nodepref)(*_Pnode)._Right);

  00000	8b 44 24 04	 mov	 eax, DWORD PTR __Pnode$[esp-4]
  00004	83 c0 08	 add	 eax, 8

; 158  : 		}

  00007	c3		 ret	 0
?_Right@?$_Tree@V?$_Tmap_traits@KPAVCTSelfObj@@U?$less@K@std@@V?$allocator@U?$pair@$$CBKPAVCTSelfObj@@@std@@@3@$0A@@std@@@std@@KAAAPAU_Node@?$_Tree_nod@V?$_Tmap_traits@KPAVCTSelfObj@@U?$less@K@std@@V?$allocator@U?$pair@$$CBKPAVCTSelfObj@@@std@@@3@$0A@@std@@@2@PAU342@@Z ENDP ; std::_Tree<std::_Tmap_traits<unsigned long,CTSelfObj *,std::less<unsigned long>,std::allocator<std::pair<unsigned long const ,CTSelfObj *> >,0> >::_Right
_TEXT	ENDS
PUBLIC	?_Lmost@?$_Tree@V?$_Tmap_traits@KPAVCTSelfObj@@U?$less@K@std@@V?$allocator@U?$pair@$$CBKPAVCTSelfObj@@@std@@@3@$0A@@std@@@std@@IAEAAPAU_Node@?$_Tree_nod@V?$_Tmap_traits@KPAVCTSelfObj@@U?$less@K@std@@V?$allocator@U?$pair@$$CBKPAVCTSelfObj@@@std@@@3@$0A@@std@@@2@XZ ; std::_Tree<std::_Tmap_traits<unsigned long,CTSelfObj *,std::less<unsigned long>,std::allocator<std::pair<unsigned long const ,CTSelfObj *> >,0> >::_Lmost
; Function compile flags: /Ogty
;	COMDAT ?_Lmost@?$_Tree@V?$_Tmap_traits@KPAVCTSelfObj@@U?$less@K@std@@V?$allocator@U?$pair@$$CBKPAVCTSelfObj@@@std@@@3@$0A@@std@@@std@@IAEAAPAU_Node@?$_Tree_nod@V?$_Tmap_traits@KPAVCTSelfObj@@U?$less@K@std@@V?$allocator@U?$pair@$$CBKPAVCTSelfObj@@@std@@@3@$0A@@std@@@2@XZ
_TEXT	SEGMENT
?_Lmost@?$_Tree@V?$_Tmap_traits@KPAVCTSelfObj@@U?$less@K@std@@V?$allocator@U?$pair@$$CBKPAVCTSelfObj@@@std@@@3@$0A@@std@@@std@@IAEAAPAU_Node@?$_Tree_nod@V?$_Tmap_traits@KPAVCTSelfObj@@U?$less@K@std@@V?$allocator@U?$pair@$$CBKPAVCTSelfObj@@@std@@@3@$0A@@std@@@2@XZ PROC NEAR ; std::_Tree<std::_Tmap_traits<unsigned long,CTSelfObj *,std::less<unsigned long>,std::allocator<std::pair<unsigned long const ,CTSelfObj *> >,0> >::_Lmost, COMDAT
; _this$ = ecx

; 1005 : 		return (_Left(_Myhead));

  00000	8b 41 04	 mov	 eax, DWORD PTR [ecx+4]

; 1006 : 		}

  00003	c3		 ret	 0
?_Lmost@?$_Tree@V?$_Tmap_traits@KPAVCTSelfObj@@U?$less@K@std@@V?$allocator@U?$pair@$$CBKPAVCTSelfObj@@@std@@@3@$0A@@std@@@std@@IAEAAPAU_Node@?$_Tree_nod@V?$_Tmap_traits@KPAVCTSelfObj@@U?$less@K@std@@V?$allocator@U?$pair@$$CBKPAVCTSelfObj@@@std@@@3@$0A@@std@@@2@XZ ENDP ; std::_Tree<std::_Tmap_traits<unsigned long,CTSelfObj *,std::less<unsigned long>,std::allocator<std::pair<unsigned long const ,CTSelfObj *> >,0> >::_Lmost
_TEXT	ENDS
PUBLIC	?_Max@?$_Tree@V?$_Tmap_traits@KPAVCTSelfObj@@U?$less@K@std@@V?$allocator@U?$pair@$$CBKPAVCTSelfObj@@@std@@@3@$0A@@std@@@std@@KAPAU_Node@?$_Tree_nod@V?$_Tmap_traits@KPAVCTSelfObj@@U?$less@K@std@@V?$allocator@U?$pair@$$CBKPAVCTSelfObj@@@std@@@3@$0A@@std@@@2@PAU342@@Z ; std::_Tree<std::_Tmap_traits<unsigned long,CTSelfObj *,std::less<unsigned long>,std::allocator<std::pair<unsigned long const ,CTSelfObj *> >,0> >::_Max
; Function compile flags: /Ogty
;	COMDAT ?_Max@?$_Tree@V?$_Tmap_traits@KPAVCTSelfObj@@U?$less@K@std@@V?$allocator@U?$pair@$$CBKPAVCTSelfObj@@@std@@@3@$0A@@std@@@std@@KAPAU_Node@?$_Tree_nod@V?$_Tmap_traits@KPAVCTSelfObj@@U?$less@K@std@@V?$allocator@U?$pair@$$CBKPAVCTSelfObj@@@std@@@3@$0A@@std@@@2@PAU342@@Z
_TEXT	SEGMENT
__Pnode$ = 8						; size = 4
?_Max@?$_Tree@V?$_Tmap_traits@KPAVCTSelfObj@@U?$less@K@std@@V?$allocator@U?$pair@$$CBKPAVCTSelfObj@@@std@@@3@$0A@@std@@@std@@KAPAU_Node@?$_Tree_nod@V?$_Tmap_traits@KPAVCTSelfObj@@U?$less@K@std@@V?$allocator@U?$pair@$$CBKPAVCTSelfObj@@@std@@@3@$0A@@std@@@2@PAU342@@Z PROC NEAR ; std::_Tree<std::_Tmap_traits<unsigned long,CTSelfObj *,std::less<unsigned long>,std::allocator<std::pair<unsigned long const ,CTSelfObj *> >,0> >::_Max, COMDAT

; 1035 : 		while (!_Isnil(_Right(_Pnode)))

  00000	8b 44 24 04	 mov	 eax, DWORD PTR __Pnode$[esp-4]
  00004	8b 48 08	 mov	 ecx, DWORD PTR [eax+8]
  00007	8a 51 15	 mov	 dl, BYTE PTR [ecx+21]
  0000a	84 d2		 test	 dl, dl
  0000c	75 0e		 jne	 SHORT $L154574
  0000e	8b ff		 npad	 2
$L154573:

; 1036 : 			_Pnode = _Right(_Pnode);

  00010	8b c1		 mov	 eax, ecx
  00012	8b 48 08	 mov	 ecx, DWORD PTR [eax+8]
  00015	8a 51 15	 mov	 dl, BYTE PTR [ecx+21]
  00018	84 d2		 test	 dl, dl
  0001a	74 f4		 je	 SHORT $L154573
$L154574:

; 1037 : 		return (_Pnode);
; 1038 : 		}

  0001c	c3		 ret	 0
?_Max@?$_Tree@V?$_Tmap_traits@KPAVCTSelfObj@@U?$less@K@std@@V?$allocator@U?$pair@$$CBKPAVCTSelfObj@@@std@@@3@$0A@@std@@@std@@KAPAU_Node@?$_Tree_nod@V?$_Tmap_traits@KPAVCTSelfObj@@U?$less@K@std@@V?$allocator@U?$pair@$$CBKPAVCTSelfObj@@@std@@@3@$0A@@std@@@2@PAU342@@Z ENDP ; std::_Tree<std::_Tmap_traits<unsigned long,CTSelfObj *,std::less<unsigned long>,std::allocator<std::pair<unsigned long const ,CTSelfObj *> >,0> >::_Max
_TEXT	ENDS
PUBLIC	?_Min@?$_Tree@V?$_Tmap_traits@KPAVCTSelfObj@@U?$less@K@std@@V?$allocator@U?$pair@$$CBKPAVCTSelfObj@@@std@@@3@$0A@@std@@@std@@KAPAU_Node@?$_Tree_nod@V?$_Tmap_traits@KPAVCTSelfObj@@U?$less@K@std@@V?$allocator@U?$pair@$$CBKPAVCTSelfObj@@@std@@@3@$0A@@std@@@2@PAU342@@Z ; std::_Tree<std::_Tmap_traits<unsigned long,CTSelfObj *,std::less<unsigned long>,std::allocator<std::pair<unsigned long const ,CTSelfObj *> >,0> >::_Min
; Function compile flags: /Ogty
;	COMDAT ?_Min@?$_Tree@V?$_Tmap_traits@KPAVCTSelfObj@@U?$less@K@std@@V?$allocator@U?$pair@$$CBKPAVCTSelfObj@@@std@@@3@$0A@@std@@@std@@KAPAU_Node@?$_Tree_nod@V?$_Tmap_traits@KPAVCTSelfObj@@U?$less@K@std@@V?$allocator@U?$pair@$$CBKPAVCTSelfObj@@@std@@@3@$0A@@std@@@2@PAU342@@Z
_TEXT	SEGMENT
__Pnode$ = 8						; size = 4
?_Min@?$_Tree@V?$_Tmap_traits@KPAVCTSelfObj@@U?$less@K@std@@V?$allocator@U?$pair@$$CBKPAVCTSelfObj@@@std@@@3@$0A@@std@@@std@@KAPAU_Node@?$_Tree_nod@V?$_Tmap_traits@KPAVCTSelfObj@@U?$less@K@std@@V?$allocator@U?$pair@$$CBKPAVCTSelfObj@@@std@@@3@$0A@@std@@@2@PAU342@@Z PROC NEAR ; std::_Tree<std::_Tmap_traits<unsigned long,CTSelfObj *,std::less<unsigned long>,std::allocator<std::pair<unsigned long const ,CTSelfObj *> >,0> >::_Min, COMDAT

; 1042 : 		while (!_Isnil(_Left(_Pnode)))

  00000	8b 44 24 04	 mov	 eax, DWORD PTR __Pnode$[esp-4]
  00004	8b 08		 mov	 ecx, DWORD PTR [eax]
  00006	8a 51 15	 mov	 dl, BYTE PTR [ecx+21]
  00009	84 d2		 test	 dl, dl
  0000b	75 0e		 jne	 SHORT $L154578
  0000d	8d 49 00	 npad	 3
$L154577:

; 1043 : 			_Pnode = _Left(_Pnode);

  00010	8b c1		 mov	 eax, ecx
  00012	8b 08		 mov	 ecx, DWORD PTR [eax]
  00014	8a 51 15	 mov	 dl, BYTE PTR [ecx+21]
  00017	84 d2		 test	 dl, dl
  00019	74 f5		 je	 SHORT $L154577
$L154578:

; 1044 : 		return (_Pnode);
; 1045 : 		}

  0001b	c3		 ret	 0
?_Min@?$_Tree@V?$_Tmap_traits@KPAVCTSelfObj@@U?$less@K@std@@V?$allocator@U?$pair@$$CBKPAVCTSelfObj@@@std@@@3@$0A@@std@@@std@@KAPAU_Node@?$_Tree_nod@V?$_Tmap_traits@KPAVCTSelfObj@@U?$less@K@std@@V?$allocator@U?$pair@$$CBKPAVCTSelfObj@@@std@@@3@$0A@@std@@@2@PAU342@@Z ENDP ; std::_Tree<std::_Tmap_traits<unsigned long,CTSelfObj *,std::less<unsigned long>,std::allocator<std::pair<unsigned long const ,CTSelfObj *> >,0> >::_Min
_TEXT	ENDS
PUBLIC	?_Rmost@?$_Tree@V?$_Tmap_traits@KPAVCTSelfObj@@U?$less@K@std@@V?$allocator@U?$pair@$$CBKPAVCTSelfObj@@@std@@@3@$0A@@std@@@std@@IAEAAPAU_Node@?$_Tree_nod@V?$_Tmap_traits@KPAVCTSelfObj@@U?$less@K@std@@V?$allocator@U?$pair@$$CBKPAVCTSelfObj@@@std@@@3@$0A@@std@@@2@XZ ; std::_Tree<std::_Tmap_traits<unsigned long,CTSelfObj *,std::less<unsigned long>,std::allocator<std::pair<unsigned long const ,CTSelfObj *> >,0> >::_Rmost
; Function compile flags: /Ogty
;	COMDAT ?_Rmost@?$_Tree@V?$_Tmap_traits@KPAVCTSelfObj@@U?$less@K@std@@V?$allocator@U?$pair@$$CBKPAVCTSelfObj@@@std@@@3@$0A@@std@@@std@@IAEAAPAU_Node@?$_Tree_nod@V?$_Tmap_traits@KPAVCTSelfObj@@U?$less@K@std@@V?$allocator@U?$pair@$$CBKPAVCTSelfObj@@@std@@@3@$0A@@std@@@2@XZ
_TEXT	SEGMENT
?_Rmost@?$_Tree@V?$_Tmap_traits@KPAVCTSelfObj@@U?$less@K@std@@V?$allocator@U?$pair@$$CBKPAVCTSelfObj@@@std@@@3@$0A@@std@@@std@@IAEAAPAU_Node@?$_Tree_nod@V?$_Tmap_traits@KPAVCTSelfObj@@U?$less@K@std@@V?$allocator@U?$pair@$$CBKPAVCTSelfObj@@@std@@@3@$0A@@std@@@2@XZ PROC NEAR ; std::_Tree<std::_Tmap_traits<unsigned long,CTSelfObj *,std::less<unsigned long>,std::allocator<std::pair<unsigned long const ,CTSelfObj *> >,0> >::_Rmost, COMDAT
; _this$ = ecx

; 1049 : 		return (_Right(_Myhead));

  00000	8b 41 04	 mov	 eax, DWORD PTR [ecx+4]
  00003	83 c0 08	 add	 eax, 8

; 1050 : 		}

  00006	c3		 ret	 0
?_Rmost@?$_Tree@V?$_Tmap_traits@KPAVCTSelfObj@@U?$less@K@std@@V?$allocator@U?$pair@$$CBKPAVCTSelfObj@@@std@@@3@$0A@@std@@@std@@IAEAAPAU_Node@?$_Tree_nod@V?$_Tmap_traits@KPAVCTSelfObj@@U?$less@K@std@@V?$allocator@U?$pair@$$CBKPAVCTSelfObj@@@std@@@3@$0A@@std@@@2@XZ ENDP ; std::_Tree<std::_Tmap_traits<unsigned long,CTSelfObj *,std::less<unsigned long>,std::allocator<std::pair<unsigned long const ,CTSelfObj *> >,0> >::_Rmost
_TEXT	ENDS
PUBLIC	?_Root@?$_Tree@V?$_Tmap_traits@KPAVCTSelfObj@@U?$less@K@std@@V?$allocator@U?$pair@$$CBKPAVCTSelfObj@@@std@@@3@$0A@@std@@@std@@IAEAAPAU_Node@?$_Tree_nod@V?$_Tmap_traits@KPAVCTSelfObj@@U?$less@K@std@@V?$allocator@U?$pair@$$CBKPAVCTSelfObj@@@std@@@3@$0A@@std@@@2@XZ ; std::_Tree<std::_Tmap_traits<unsigned long,CTSelfObj *,std::less<unsigned long>,std::allocator<std::pair<unsigned long const ,CTSelfObj *> >,0> >::_Root
; Function compile flags: /Ogty
;	COMDAT ?_Root@?$_Tree@V?$_Tmap_traits@KPAVCTSelfObj@@U?$less@K@std@@V?$allocator@U?$pair@$$CBKPAVCTSelfObj@@@std@@@3@$0A@@std@@@std@@IAEAAPAU_Node@?$_Tree_nod@V?$_Tmap_traits@KPAVCTSelfObj@@U?$less@K@std@@V?$allocator@U?$pair@$$CBKPAVCTSelfObj@@@std@@@3@$0A@@std@@@2@XZ
_TEXT	SEGMENT
?_Root@?$_Tree@V?$_Tmap_traits@KPAVCTSelfObj@@U?$less@K@std@@V?$allocator@U?$pair@$$CBKPAVCTSelfObj@@@std@@@3@$0A@@std@@@std@@IAEAAPAU_Node@?$_Tree_nod@V?$_Tmap_traits@KPAVCTSelfObj@@U?$less@K@std@@V?$allocator@U?$pair@$$CBKPAVCTSelfObj@@@std@@@3@$0A@@std@@@2@XZ PROC NEAR ; std::_Tree<std::_Tmap_traits<unsigned long,CTSelfObj *,std::less<unsigned long>,std::allocator<std::pair<unsigned long const ,CTSelfObj *> >,0> >::_Root, COMDAT
; _this$ = ecx

; 1059 : 		return (_Parent(_Myhead));

  00000	8b 41 04	 mov	 eax, DWORD PTR [ecx+4]
  00003	83 c0 04	 add	 eax, 4

; 1060 : 		}

  00006	c3		 ret	 0
?_Root@?$_Tree@V?$_Tmap_traits@KPAVCTSelfObj@@U?$less@K@std@@V?$allocator@U?$pair@$$CBKPAVCTSelfObj@@@std@@@3@$0A@@std@@@std@@IAEAAPAU_Node@?$_Tree_nod@V?$_Tmap_traits@KPAVCTSelfObj@@U?$less@K@std@@V?$allocator@U?$pair@$$CBKPAVCTSelfObj@@@std@@@3@$0A@@std@@@2@XZ ENDP ; std::_Tree<std::_Tmap_traits<unsigned long,CTSelfObj *,std::less<unsigned long>,std::allocator<std::pair<unsigned long const ,CTSelfObj *> >,0> >::_Root
_TEXT	ENDS
PUBLIC	?_Rrotate@?$_Tree@V?$_Tmap_traits@KPAVCTSelfObj@@U?$less@K@std@@V?$allocator@U?$pair@$$CBKPAVCTSelfObj@@@std@@@3@$0A@@std@@@std@@IAEXPAU_Node@?$_Tree_nod@V?$_Tmap_traits@KPAVCTSelfObj@@U?$less@K@std@@V?$allocator@U?$pair@$$CBKPAVCTSelfObj@@@std@@@3@$0A@@std@@@2@@Z ; std::_Tree<std::_Tmap_traits<unsigned long,CTSelfObj *,std::less<unsigned long>,std::allocator<std::pair<unsigned long const ,CTSelfObj *> >,0> >::_Rrotate
; Function compile flags: /Ogty
;	COMDAT ?_Rrotate@?$_Tree@V?$_Tmap_traits@KPAVCTSelfObj@@U?$less@K@std@@V?$allocator@U?$pair@$$CBKPAVCTSelfObj@@@std@@@3@$0A@@std@@@std@@IAEXPAU_Node@?$_Tree_nod@V?$_Tmap_traits@KPAVCTSelfObj@@U?$less@K@std@@V?$allocator@U?$pair@$$CBKPAVCTSelfObj@@@std@@@3@$0A@@std@@@2@@Z
_TEXT	SEGMENT
__Wherenode$ = 8					; size = 4
?_Rrotate@?$_Tree@V?$_Tmap_traits@KPAVCTSelfObj@@U?$less@K@std@@V?$allocator@U?$pair@$$CBKPAVCTSelfObj@@@std@@@3@$0A@@std@@@std@@IAEXPAU_Node@?$_Tree_nod@V?$_Tmap_traits@KPAVCTSelfObj@@U?$less@K@std@@V?$allocator@U?$pair@$$CBKPAVCTSelfObj@@@std@@@3@$0A@@std@@@2@@Z PROC NEAR ; std::_Tree<std::_Tmap_traits<unsigned long,CTSelfObj *,std::less<unsigned long>,std::allocator<std::pair<unsigned long const ,CTSelfObj *> >,0> >::_Rrotate, COMDAT
; _this$ = ecx

; 1069 : 		_Nodeptr _Pnode = _Left(_Wherenode);

  00000	8b 54 24 04	 mov	 edx, DWORD PTR __Wherenode$[esp-4]
  00004	8b 02		 mov	 eax, DWORD PTR [edx]
  00006	53		 push	 ebx
  00007	56		 push	 esi

; 1070 : 		_Left(_Wherenode) = _Right(_Pnode);

  00008	8b 70 08	 mov	 esi, DWORD PTR [eax+8]
  0000b	89 32		 mov	 DWORD PTR [edx], esi

; 1071 : 
; 1072 : 		if (!_Isnil(_Right(_Pnode)))

  0000d	8b 70 08	 mov	 esi, DWORD PTR [eax+8]
  00010	8a 5e 15	 mov	 bl, BYTE PTR [esi+21]
  00013	84 db		 test	 bl, bl
  00015	75 03		 jne	 SHORT $L154586

; 1073 : 			_Parent(_Right(_Pnode)) = _Wherenode;

  00017	89 56 04	 mov	 DWORD PTR [esi+4], edx
$L154586:

; 1074 : 		_Parent(_Pnode) = _Parent(_Wherenode);

  0001a	8b 72 04	 mov	 esi, DWORD PTR [edx+4]
  0001d	89 70 04	 mov	 DWORD PTR [eax+4], esi

; 1075 : 
; 1076 : 		if (_Wherenode == _Root())

  00020	8b 49 04	 mov	 ecx, DWORD PTR [ecx+4]
  00023	3b 51 04	 cmp	 edx, DWORD PTR [ecx+4]
  00026	75 0e		 jne	 SHORT $L154587

; 1077 : 			_Root() = _Pnode;

  00028	89 41 04	 mov	 DWORD PTR [ecx+4], eax
  0002b	5e		 pop	 esi

; 1082 : 
; 1083 : 		_Right(_Pnode) = _Wherenode;

  0002c	89 50 08	 mov	 DWORD PTR [eax+8], edx

; 1084 : 		_Parent(_Wherenode) = _Pnode;

  0002f	89 42 04	 mov	 DWORD PTR [edx+4], eax
  00032	5b		 pop	 ebx

; 1085 : 		}

  00033	c2 04 00	 ret	 4
$L154587:

; 1078 : 		else if (_Wherenode == _Right(_Parent(_Wherenode)))

  00036	8b 4a 04	 mov	 ecx, DWORD PTR [edx+4]
  00039	3b 51 08	 cmp	 edx, DWORD PTR [ecx+8]
  0003c	75 0e		 jne	 SHORT $L154589

; 1079 : 			_Right(_Parent(_Wherenode)) = _Pnode;

  0003e	89 41 08	 mov	 DWORD PTR [ecx+8], eax
  00041	5e		 pop	 esi

; 1082 : 
; 1083 : 		_Right(_Pnode) = _Wherenode;

  00042	89 50 08	 mov	 DWORD PTR [eax+8], edx

; 1084 : 		_Parent(_Wherenode) = _Pnode;

  00045	89 42 04	 mov	 DWORD PTR [edx+4], eax
  00048	5b		 pop	 ebx

; 1085 : 		}

  00049	c2 04 00	 ret	 4
$L154589:

; 1080 : 		else
; 1081 : 			_Left(_Parent(_Wherenode)) = _Pnode;

  0004c	89 01		 mov	 DWORD PTR [ecx], eax
  0004e	5e		 pop	 esi

; 1082 : 
; 1083 : 		_Right(_Pnode) = _Wherenode;

  0004f	89 50 08	 mov	 DWORD PTR [eax+8], edx

; 1084 : 		_Parent(_Wherenode) = _Pnode;

  00052	89 42 04	 mov	 DWORD PTR [edx+4], eax
  00055	5b		 pop	 ebx

; 1085 : 		}

  00056	c2 04 00	 ret	 4
?_Rrotate@?$_Tree@V?$_Tmap_traits@KPAVCTSelfObj@@U?$less@K@std@@V?$allocator@U?$pair@$$CBKPAVCTSelfObj@@@std@@@3@$0A@@std@@@std@@IAEXPAU_Node@?$_Tree_nod@V?$_Tmap_traits@KPAVCTSelfObj@@U?$less@K@std@@V?$allocator@U?$pair@$$CBKPAVCTSelfObj@@@std@@@3@$0A@@std@@@2@@Z ENDP ; std::_Tree<std::_Tmap_traits<unsigned long,CTSelfObj *,std::less<unsigned long>,std::allocator<std::pair<unsigned long const ,CTSelfObj *> >,0> >::_Rrotate
_TEXT	ENDS
PUBLIC	?_Kfn@?$_Tmap_traits@KPAVCTSelfObj@@U?$less@K@std@@V?$allocator@U?$pair@$$CBKPAVCTSelfObj@@@std@@@3@$0A@@std@@SAABKABU?$pair@$$CBKPAVCTSelfObj@@@2@@Z ; std::_Tmap_traits<unsigned long,CTSelfObj *,std::less<unsigned long>,std::allocator<std::pair<unsigned long const ,CTSelfObj *> >,0>::_Kfn
; Function compile flags: /Ogty
; File c:\program files (x86)\microsoft visual studio .net 2003\vc7\include\map
;	COMDAT ?_Kfn@?$_Tmap_traits@KPAVCTSelfObj@@U?$less@K@std@@V?$allocator@U?$pair@$$CBKPAVCTSelfObj@@@std@@@3@$0A@@std@@SAABKABU?$pair@$$CBKPAVCTSelfObj@@@2@@Z
_TEXT	SEGMENT
__Val$ = 8						; size = 4
?_Kfn@?$_Tmap_traits@KPAVCTSelfObj@@U?$less@K@std@@V?$allocator@U?$pair@$$CBKPAVCTSelfObj@@@std@@@3@$0A@@std@@SAABKABU?$pair@$$CBKPAVCTSelfObj@@@2@@Z PROC NEAR ; std::_Tmap_traits<unsigned long,CTSelfObj *,std::less<unsigned long>,std::allocator<std::pair<unsigned long const ,CTSelfObj *> >,0>::_Kfn, COMDAT

; 64   : 		return (_Val.first);

  00000	8b 44 24 04	 mov	 eax, DWORD PTR __Val$[esp-4]

; 65   : 		}

  00004	c3		 ret	 0
?_Kfn@?$_Tmap_traits@KPAVCTSelfObj@@U?$less@K@std@@V?$allocator@U?$pair@$$CBKPAVCTSelfObj@@@std@@@3@$0A@@std@@SAABKABU?$pair@$$CBKPAVCTSelfObj@@@2@@Z ENDP ; std::_Tmap_traits<unsigned long,CTSelfObj *,std::less<unsigned long>,std::allocator<std::pair<unsigned long const ,CTSelfObj *> >,0>::_Kfn
_TEXT	ENDS
PUBLIC	??0?$allocator@U?$pair@$$CBKPAVCTSelfObj@@@std@@@std@@QAE@XZ ; std::allocator<std::pair<unsigned long const ,CTSelfObj *> >::allocator<std::pair<unsigned long const ,CTSelfObj *> >
; Function compile flags: /Ogty
; File c:\program files (x86)\microsoft visual studio .net 2003\vc7\include\xmemory
;	COMDAT ??0?$allocator@U?$pair@$$CBKPAVCTSelfObj@@@std@@@std@@QAE@XZ
_TEXT	SEGMENT
??0?$allocator@U?$pair@$$CBKPAVCTSelfObj@@@std@@@std@@QAE@XZ PROC NEAR ; std::allocator<std::pair<unsigned long const ,CTSelfObj *> >::allocator<std::pair<unsigned long const ,CTSelfObj *> >, COMDAT
; _this$ = ecx

; 111  : 	allocator()

  00000	8b c1		 mov	 eax, ecx

; 112  : 		{	// construct default allocator (do nothing)
; 113  : 		}

  00002	c3		 ret	 0
??0?$allocator@U?$pair@$$CBKPAVCTSelfObj@@@std@@@std@@QAE@XZ ENDP ; std::allocator<std::pair<unsigned long const ,CTSelfObj *> >::allocator<std::pair<unsigned long const ,CTSelfObj *> >
_TEXT	ENDS
PUBLIC	?deallocate@?$allocator@U_Node@?$_Tree_nod@V?$_Tmap_traits@KPAVCTSelfObj@@U?$less@K@std@@V?$allocator@U?$pair@$$CBKPAVCTSelfObj@@@std@@@3@$0A@@std@@@std@@@std@@QAEXPAU_Node@?$_Tree_nod@V?$_Tmap_traits@KPAVCTSelfObj@@U?$less@K@std@@V?$allocator@U?$pair@$$CBKPAVCTSelfObj@@@std@@@3@$0A@@std@@@2@I@Z ; std::allocator<std::_Tree_nod<std::_Tmap_traits<unsigned long,CTSelfObj *,std::less<unsigned long>,std::allocator<std::pair<unsigned long const ,CTSelfObj *> >,0> >::_Node>::deallocate
; Function compile flags: /Ogty
;	COMDAT ?deallocate@?$allocator@U_Node@?$_Tree_nod@V?$_Tmap_traits@KPAVCTSelfObj@@U?$less@K@std@@V?$allocator@U?$pair@$$CBKPAVCTSelfObj@@@std@@@3@$0A@@std@@@std@@@std@@QAEXPAU_Node@?$_Tree_nod@V?$_Tmap_traits@KPAVCTSelfObj@@U?$less@K@std@@V?$allocator@U?$pair@$$CBKPAVCTSelfObj@@@std@@@3@$0A@@std@@@2@I@Z
_TEXT	SEGMENT
__Ptr$ = 8						; size = 4
___formal$ = 12						; size = 4
?deallocate@?$allocator@U_Node@?$_Tree_nod@V?$_Tmap_traits@KPAVCTSelfObj@@U?$less@K@std@@V?$allocator@U?$pair@$$CBKPAVCTSelfObj@@@std@@@3@$0A@@std@@@std@@@std@@QAEXPAU_Node@?$_Tree_nod@V?$_Tmap_traits@KPAVCTSelfObj@@U?$less@K@std@@V?$allocator@U?$pair@$$CBKPAVCTSelfObj@@@std@@@3@$0A@@std@@@2@I@Z PROC NEAR ; std::allocator<std::_Tree_nod<std::_Tmap_traits<unsigned long,CTSelfObj *,std::less<unsigned long>,std::allocator<std::pair<unsigned long const ,CTSelfObj *> >,0> >::_Node>::deallocate, COMDAT
; _this$ = ecx

; 132  : 		operator delete(_Ptr);

  00000	8b 44 24 04	 mov	 eax, DWORD PTR __Ptr$[esp-4]
  00004	50		 push	 eax
  00005	e8 00 00 00 00	 call	 ??3@YAXPAX@Z		; operator delete
  0000a	59		 pop	 ecx

; 133  : 		}

  0000b	c2 08 00	 ret	 8
?deallocate@?$allocator@U_Node@?$_Tree_nod@V?$_Tmap_traits@KPAVCTSelfObj@@U?$less@K@std@@V?$allocator@U?$pair@$$CBKPAVCTSelfObj@@@std@@@3@$0A@@std@@@std@@@std@@QAEXPAU_Node@?$_Tree_nod@V?$_Tmap_traits@KPAVCTSelfObj@@U?$less@K@std@@V?$allocator@U?$pair@$$CBKPAVCTSelfObj@@@std@@@3@$0A@@std@@@2@I@Z ENDP ; std::allocator<std::_Tree_nod<std::_Tmap_traits<unsigned long,CTSelfObj *,std::less<unsigned long>,std::allocator<std::pair<unsigned long const ,CTSelfObj *> >,0> >::_Node>::deallocate
_TEXT	ENDS
PUBLIC	?_Color@?$_Tree@V?$_Tmap_traits@KPAVCTMonster@@U?$less@K@std@@V?$allocator@U?$pair@$$CBKPAVCTMonster@@@std@@@3@$0A@@std@@@std@@KAAADPAU_Node@?$_Tree_nod@V?$_Tmap_traits@KPAVCTMonster@@U?$less@K@std@@V?$allocator@U?$pair@$$CBKPAVCTMonster@@@std@@@3@$0A@@std@@@2@@Z ; std::_Tree<std::_Tmap_traits<unsigned long,CTMonster *,std::less<unsigned long>,std::allocator<std::pair<unsigned long const ,CTMonster *> >,0> >::_Color
; Function compile flags: /Ogty
; File c:\program files (x86)\microsoft visual studio .net 2003\vc7\include\xtree
;	COMDAT ?_Color@?$_Tree@V?$_Tmap_traits@KPAVCTMonster@@U?$less@K@std@@V?$allocator@U?$pair@$$CBKPAVCTMonster@@@std@@@3@$0A@@std@@@std@@KAAADPAU_Node@?$_Tree_nod@V?$_Tmap_traits@KPAVCTMonster@@U?$less@K@std@@V?$allocator@U?$pair@$$CBKPAVCTMonster@@@std@@@3@$0A@@std@@@2@@Z
_TEXT	SEGMENT
__Pnode$ = 8						; size = 4
