; Listing generated by Microsoft (R) Optimizing Compiler Version 13.10.3077 

	TITLE	.\TNpc.cpp
	.386P
include listing.inc
if @Version gt 510
.model FLAT
else
_TEXT	SEGMENT PARA USE32 PUBLIC 'CODE'
_TEXT	ENDS
_DATA	SEGMENT DWORD USE32 PUBLIC 'DATA'
_DATA	ENDS
CONST	SEGMENT DWORD USE32 PUBLIC 'CONST'
CONST	ENDS
_BSS	SEGMENT DWORD USE32 PUBLIC 'BSS'
_BSS	ENDS
$$SYMBOLS	SEGMENT BYTE USE32 'DEBSYM'
$$SYMBOLS	ENDS
$$TYPES	SEGMENT BYTE USE32 'DEBTYP'
$$TYPES	ENDS
_TLS	SEGMENT DWORD USE32 PUBLIC 'TLS'
_TLS	ENDS
;	COMDAT ??_C@_1EO@BGAEGJFB@?$AA?$HL?$AA5?$AA1?$AAA?$AAB?$AA7?$AAA?$AA3?$AA0?$AA?9?$AA9?$AA9?$AA5?$AAA?$AA?9?$AA4?$AA4?$AAA?$AAB?$AA?9@
CONST	SEGMENT DWORD USE32 PUBLIC 'CONST'
CONST	ENDS
;	COMDAT ??_C@_0CH@JJOAEHDK@?$HL51AB7A30?9995A?944AB?9B869?97D79E92@
CONST	SEGMENT DWORD USE32 PUBLIC 'CONST'
CONST	ENDS
;	COMDAT ??_C@_0N@OGFEPDED@LocalService?$AA@
CONST	SEGMENT DWORD USE32 PUBLIC 'CONST'
CONST	ENDS
;	COMDAT ??_C@_02CCDHMLDD@?9?1?$AA@
CONST	SEGMENT DWORD USE32 PUBLIC 'CONST'
CONST	ENDS
;	COMDAT ??_C@_0M@MIGBKCMN@UnregServer?$AA@
CONST	SEGMENT DWORD USE32 PUBLIC 'CONST'
CONST	ENDS
;	COMDAT ??_C@_09LJBJJPCG@RegServer?$AA@
CONST	SEGMENT DWORD USE32 PUBLIC 'CONST'
CONST	ENDS
;	COMDAT ??_C@_07LMLHFMEG@Service?$AA@
CONST	SEGMENT DWORD USE32 PUBLIC 'CONST'
CONST	ENDS
;	COMDAT ??_C@_07PNHNHBAB@Install?$AA@
CONST	SEGMENT DWORD USE32 PUBLIC 'CONST'
CONST	ENDS
;	COMDAT ??_C@_09LAEJNBCE@UnInstall?$AA@
CONST	SEGMENT DWORD USE32 PUBLIC 'CONST'
CONST	ENDS
;	COMDAT ??_C@_04FABLJDN@Name?$AA@
CONST	SEGMENT DWORD USE32 PUBLIC 'CONST'
CONST	ENDS
;	COMDAT ??_C@_01CLKCMJKC@?5?$AA@
CONST	SEGMENT DWORD USE32 PUBLIC 'CONST'
CONST	ENDS
;	COMDAT ??_C@_0M@DBFDLFJJ@?$CFs?5?9Name?5?$CFs?$AA@
CONST	SEGMENT DWORD USE32 PUBLIC 'CONST'
CONST	ENDS
;	COMDAT ??_C@_0BP@GECJKCAK@Could?5not?5open?5Service?5Manager?$AA@
CONST	SEGMENT DWORD USE32 PUBLIC 'CONST'
CONST	ENDS
;	COMDAT ??_C@_06HCEGMCNE@RPCSS?$AA?$AA@
CONST	SEGMENT DWORD USE32 PUBLIC 'CONST'
CONST	ENDS
;	COMDAT ??_C@_0BI@HDJFCBEP@Could?5not?5start?5service?$AA@
CONST	SEGMENT DWORD USE32 PUBLIC 'CONST'
CONST	ENDS
;	COMDAT ??_C@_0BH@JMOCNDDL@Could?5not?5open?5service?$AA@
CONST	SEGMENT DWORD USE32 PUBLIC 'CONST'
CONST	ENDS
;	COMDAT ??_C@_0BH@GKJBBOLK@Could?5not?5stop?5service?$AA@
CONST	SEGMENT DWORD USE32 PUBLIC 'CONST'
CONST	ENDS
;	COMDAT ??_C@_0BJ@NMBIIKKI@Could?5not?5delete?5service?$AA@
CONST	SEGMENT DWORD USE32 PUBLIC 'CONST'
CONST	ENDS
;	COMDAT ??_C@_0BE@JONHPENG@map?1set?$DMT?$DO?5too?5long?$AA@
CONST	SEGMENT DWORD USE32 PUBLIC 'CONST'
CONST	ENDS
text$yc	SEGMENT PARA USE32 PUBLIC 'CODE'
text$yc	ENDS
CRT$XCA	SEGMENT DWORD USE32 PUBLIC 'DATA'
CRT$XCA	ENDS
CRT$XCU	SEGMENT DWORD USE32 PUBLIC 'DATA'
CRT$XCU	ENDS
CRT$XCL	SEGMENT DWORD USE32 PUBLIC 'DATA'
CRT$XCL	ENDS
CRT$XCC	SEGMENT DWORD USE32 PUBLIC 'DATA'
CRT$XCC	ENDS
CRT$XCZ	SEGMENT DWORD USE32 PUBLIC 'DATA'
CRT$XCZ	ENDS
text$yd	SEGMENT PARA USE32 PUBLIC 'CODE'
text$yd	ENDS
ATL$__m	SEGMENT DWORD USE32 PUBLIC ''
ATL$__m	ENDS
ATL$__z	SEGMENT DWORD USE32 PUBLIC ''
ATL$__z	ENDS
ATL$__a	SEGMENT DWORD USE32 PUBLIC ''
ATL$__a	ENDS
xdata$x	SEGMENT DWORD USE32 PUBLIC 'CONST'
xdata$x	ENDS
;	COMDAT ?GetAppId@CTMapSvrModule@@SAPBGXZ
_TEXT	SEGMENT PARA USE32 PUBLIC 'CODE'
_TEXT	ENDS
;	COMDAT ?GetAppIdT@CTMapSvrModule@@SAPADXZ
_TEXT	SEGMENT PARA USE32 PUBLIC 'CODE'
_TEXT	ENDS
;	COMDAT ?UpdateRegistryAppId@CTMapSvrModule@@SGJH@Z
_TEXT	SEGMENT PARA USE32 PUBLIC 'CODE'
_TEXT	ENDS
;	COMDAT ?RegisterAppId@CTMapSvrModule@@QAEJ_N@Z
_TEXT	SEGMENT PARA USE32 PUBLIC 'CODE'
_TEXT	ENDS
;	COMDAT ?Install@CTMapSvrModule@@QAEHXZ
_TEXT	SEGMENT PARA USE32 PUBLIC 'CODE'
_TEXT	ENDS
;	COMDAT ??0CTNpc@@QAE@XZ
_TEXT	SEGMENT PARA USE32 PUBLIC 'CODE'
_TEXT	ENDS
;	COMDAT ??1?$map@GPAUtagTITEM@@U?$less@G@std@@V?$allocator@U?$pair@$$CBGPAUtagTITEM@@@std@@@3@@std@@QAE@XZ
_TEXT	SEGMENT PARA USE32 PUBLIC 'CODE'
_TEXT	ENDS
;	COMDAT ??1?$map@GPAVCTSkillTemp@@U?$less@G@std@@V?$allocator@U?$pair@$$CBGPAVCTSkillTemp@@@std@@@3@@std@@QAE@XZ
_TEXT	SEGMENT PARA USE32 PUBLIC 'CODE'
_TEXT	ENDS
;	COMDAT ??1?$map@GPAUtagMONSTERSHOP@@U?$less@G@std@@V?$allocator@U?$pair@$$CBGPAUtagMONSTERSHOP@@@std@@@3@@std@@QAE@XZ
_TEXT	SEGMENT PARA USE32 PUBLIC 'CODE'
_TEXT	ENDS
;	COMDAT ??1?$map@KPAUtagTAUCTION@@U?$less@K@std@@V?$allocator@U?$pair@$$CBKPAUtagTAUCTION@@@std@@@3@@std@@QAE@XZ
_TEXT	SEGMENT PARA USE32 PUBLIC 'CODE'
_TEXT	ENDS
;	COMDAT ??1?$map@KPAV?$map@KPAUtagTAUCTION@@U?$less@K@std@@V?$allocator@U?$pair@$$CBKPAUtagTAUCTION@@@std@@@3@@std@@U?$less@K@2@V?$allocator@U?$pair@$$CBKPAV?$map@KPAUtagTAUCTION@@U?$less@K@std@@V?$allocator@U?$pair@$$CBKPAUtagTAUCTION@@@std@@@3@@std@@@std@@@2@@std@@QAE@XZ
_TEXT	SEGMENT PARA USE32 PUBLIC 'CODE'
_TEXT	ENDS
;	COMDAT ??1CTNpc@@QAE@XZ
_TEXT	SEGMENT PARA USE32 PUBLIC 'CODE'
_TEXT	ENDS
;	COMDAT ??_G?$map@KPAUtagTAUCTION@@U?$less@K@std@@V?$allocator@U?$pair@$$CBKPAUtagTAUCTION@@@std@@@3@@std@@QAEPAXI@Z
_TEXT	SEGMENT PARA USE32 PUBLIC 'CODE'
_TEXT	ENDS
;	COMDAT ??_GtagTAUCTION@@QAEPAXI@Z
_TEXT	SEGMENT PARA USE32 PUBLIC 'CODE'
_TEXT	ENDS
;	COMDAT ??1tagTAUCTION@@QAE@XZ
_TEXT	SEGMENT PARA USE32 PUBLIC 'CODE'
_TEXT	ENDS
;	COMDAT ?GetItem@CTNpc@@QAEPAUtagTITEM@@G@Z
_TEXT	SEGMENT PARA USE32 PUBLIC 'CODE'
_TEXT	ENDS
;	COMDAT ?GetMagicItem@CTNpc@@QAEPAVCTItem@@K@Z
_TEXT	SEGMENT PARA USE32 PUBLIC 'CODE'
_TEXT	ENDS
;	COMDAT ?GetSkill@CTNpc@@QAEPAVCTSkillTemp@@G@Z
_TEXT	SEGMENT PARA USE32 PUBLIC 'CODE'
_TEXT	ENDS
;	COMDAT ?GetPortal@CTNpc@@QAEPAUtagPORTAL@@XZ
_TEXT	SEGMENT PARA USE32 PUBLIC 'CODE'
_TEXT	ENDS
;	COMDAT ?GetSpawnPos@CTNpc@@QAEGXZ
_TEXT	SEGMENT PARA USE32 PUBLIC 'CODE'
_TEXT	ENDS
;	COMDAT ?CanTalk@CTNpc@@QAEEEEE@Z
_TEXT	SEGMENT PARA USE32 PUBLIC 'CODE'
_TEXT	ENDS
;	COMDAT ?GetMon@CTNpc@@QAEPAUtagMONSTERSHOP@@G@Z
_TEXT	SEGMENT PARA USE32 PUBLIC 'CODE'
_TEXT	ENDS
;	COMDAT ?AddAuction@CTNpc@@QAEEKPAUtagTAUCTION@@@Z
_TEXT	SEGMENT PARA USE32 PUBLIC 'CODE'
_TEXT	ENDS
;	COMDAT ?DelAuction@CTNpc@@QAEXKK@Z
_TEXT	SEGMENT PARA USE32 PUBLIC 'CODE'
_TEXT	ENDS
;	COMDAT ?AuctionCondition@CTNpc@@QAEEPAUtagTAUCTION@@EEEEEG@Z
_TEXT	SEGMENT PARA USE32 PUBLIC 'CODE'
_TEXT	ENDS
;	COMDAT ?SearchAuctions@CTNpc@@QAEXPAV?$map@KKU?$less@K@std@@V?$allocator@U?$pair@$$CBKK@std@@@2@@std@@KEEEEEG@Z
_TEXT	SEGMENT PARA USE32 PUBLIC 'CODE'
_TEXT	ENDS
;	COMDAT ?SearchAuctionAll@CTNpc@@QAEXPAV?$vector@PAUtagTAUCTION@@V?$allocator@PAUtagTAUCTION@@@std@@@std@@EEEEEG@Z
_TEXT	SEGMENT PARA USE32 PUBLIC 'CODE'
_TEXT	ENDS
;	COMDAT ?AlignAuction@CTNpc@@QAEXPAV?$vector@PAUtagTAUCTION@@V?$allocator@PAUtagTAUCTION@@@std@@@std@@E@Z
_TEXT	SEGMENT PARA USE32 PUBLIC 'CODE'
_TEXT	ENDS
;	COMDAT ?Tokenize@?$CStringT@DV?$StrTraitATL@DV?$ChTraitsCRT@D@ATL@@@ATL@@@ATL@@QBE?AV12@PBDAAH@Z
_TEXT	SEGMENT PARA USE32 PUBLIC 'CODE'
_TEXT	ENDS
;	COMDAT ?Format@?$CStringT@DV?$StrTraitATL@DV?$ChTraitsCRT@D@ATL@@@ATL@@@ATL@@QAAXPBDZZ
_TEXT	SEGMENT PARA USE32 PUBLIC 'CODE'
_TEXT	ENDS
;	COMDAT ?end@?$_Tree@V?$_Tmap_traits@KKU?$less@K@std@@V?$allocator@U?$pair@$$CBKK@std@@@2@$0A@@std@@@std@@QAE?AViterator@12@XZ
_TEXT	SEGMENT PARA USE32 PUBLIC 'CODE'
_TEXT	ENDS
;	COMDAT ?insert@?$_Tree@V?$_Tmap_traits@KKU?$less@K@std@@V?$allocator@U?$pair@$$CBKK@std@@@2@$0A@@std@@@std@@QAE?AU?$pair@Viterator@?$_Tree@V?$_Tmap_traits@KKU?$less@K@std@@V?$allocator@U?$pair@$$CBKK@std@@@2@$0A@@std@@@std@@_N@2@ABU?$pair@$$CBKK@2@@Z
_TEXT	SEGMENT PARA USE32 PUBLIC 'CODE'
_TEXT	ENDS
;	COMDAT ?find@?$_Tree@V?$_Tmap_traits@KKU?$less@K@std@@V?$allocator@U?$pair@$$CBKK@std@@@2@$0A@@std@@@std@@QAE?AViterator@12@ABK@Z
_TEXT	SEGMENT PARA USE32 PUBLIC 'CODE'
_TEXT	ENDS
;	COMDAT ?find@?$_Tree@V?$_Tmap_traits@KPAVCTItem@@U?$less@K@std@@V?$allocator@U?$pair@$$CBKPAVCTItem@@@std@@@3@$0A@@std@@@std@@QAE?AViterator@12@ABK@Z
_TEXT	SEGMENT PARA USE32 PUBLIC 'CODE'
_TEXT	ENDS
;	COMDAT ?end@?$_Tree@V?$_Tmap_traits@EPAUtagTMAGIC@@U?$less@E@std@@V?$allocator@U?$pair@$$CBEPAUtagTMAGIC@@@std@@@3@$0A@@std@@@std@@QAE?AViterator@12@XZ
_TEXT	SEGMENT PARA USE32 PUBLIC 'CODE'
_TEXT	ENDS
;	COMDAT ?find@?$_Tree@V?$_Tmap_traits@EPAUtagTMAGIC@@U?$less@E@std@@V?$allocator@U?$pair@$$CBEPAUtagTMAGIC@@@std@@@3@$0A@@std@@@std@@QAE?AViterator@12@ABE@Z
_TEXT	SEGMENT PARA USE32 PUBLIC 'CODE'
_TEXT	ENDS
;	COMDAT ??0?$map@GPAUtagTITEM@@U?$less@G@std@@V?$allocator@U?$pair@$$CBGPAUtagTITEM@@@std@@@3@@std@@QAE@XZ
_TEXT	SEGMENT PARA USE32 PUBLIC 'CODE'
_TEXT	ENDS
;	COMDAT ??1?$_Tree@V?$_Tmap_traits@GPAUtagTITEM@@U?$less@G@std@@V?$allocator@U?$pair@$$CBGPAUtagTITEM@@@std@@@3@$0A@@std@@@std@@QAE@XZ
_TEXT	SEGMENT PARA USE32 PUBLIC 'CODE'
_TEXT	ENDS
;	COMDAT ?end@?$_Tree@V?$_Tmap_traits@GPAUtagTITEM@@U?$less@G@std@@V?$allocator@U?$pair@$$CBGPAUtagTITEM@@@std@@@3@$0A@@std@@@std@@QAE?AViterator@12@XZ
_TEXT	SEGMENT PARA USE32 PUBLIC 'CODE'
_TEXT	ENDS
;	COMDAT ?clear@?$_Tree@V?$_Tmap_traits@GPAUtagTITEM@@U?$less@G@std@@V?$allocator@U?$pair@$$CBGPAUtagTITEM@@@std@@@3@$0A@@std@@@std@@QAEXXZ
_TEXT	SEGMENT PARA USE32 PUBLIC 'CODE'
_TEXT	ENDS
;	COMDAT ?find@?$_Tree@V?$_Tmap_traits@GPAUtagTITEM@@U?$less@G@std@@V?$allocator@U?$pair@$$CBGPAUtagTITEM@@@std@@@3@$0A@@std@@@std@@QAE?AViterator@12@ABG@Z
_TEXT	SEGMENT PARA USE32 PUBLIC 'CODE'
_TEXT	ENDS
;	COMDAT ??0?$map@GPAVCTSkillTemp@@U?$less@G@std@@V?$allocator@U?$pair@$$CBGPAVCTSkillTemp@@@std@@@3@@std@@QAE@XZ
_TEXT	SEGMENT PARA USE32 PUBLIC 'CODE'
_TEXT	ENDS
;	COMDAT ??1?$_Tree@V?$_Tmap_traits@GPAVCTSkillTemp@@U?$less@G@std@@V?$allocator@U?$pair@$$CBGPAVCTSkillTemp@@@std@@@3@$0A@@std@@@std@@QAE@XZ
_TEXT	SEGMENT PARA USE32 PUBLIC 'CODE'
_TEXT	ENDS
;	COMDAT ?end@?$_Tree@V?$_Tmap_traits@GPAVCTSkillTemp@@U?$less@G@std@@V?$allocator@U?$pair@$$CBGPAVCTSkillTemp@@@std@@@3@$0A@@std@@@std@@QAE?AViterator@12@XZ
_TEXT	SEGMENT PARA USE32 PUBLIC 'CODE'
_TEXT	ENDS
;	COMDAT ?clear@?$_Tree@V?$_Tmap_traits@GPAVCTSkillTemp@@U?$less@G@std@@V?$allocator@U?$pair@$$CBGPAVCTSkillTemp@@@std@@@3@$0A@@std@@@std@@QAEXXZ
_TEXT	SEGMENT PARA USE32 PUBLIC 'CODE'
_TEXT	ENDS
;	COMDAT ?find@?$_Tree@V?$_Tmap_traits@GPAVCTSkillTemp@@U?$less@G@std@@V?$allocator@U?$pair@$$CBGPAVCTSkillTemp@@@std@@@3@$0A@@std@@@std@@QAE?AViterator@12@ABG@Z
_TEXT	SEGMENT PARA USE32 PUBLIC 'CODE'
_TEXT	ENDS
;	COMDAT ??0?$map@GPAUtagMONSTERSHOP@@U?$less@G@std@@V?$allocator@U?$pair@$$CBGPAUtagMONSTERSHOP@@@std@@@3@@std@@QAE@XZ
_TEXT	SEGMENT PARA USE32 PUBLIC 'CODE'
_TEXT	ENDS
;	COMDAT ??1?$_Tree@V?$_Tmap_traits@GPAUtagMONSTERSHOP@@U?$less@G@std@@V?$allocator@U?$pair@$$CBGPAUtagMONSTERSHOP@@@std@@@3@$0A@@std@@@std@@QAE@XZ
_TEXT	SEGMENT PARA USE32 PUBLIC 'CODE'
_TEXT	ENDS
;	COMDAT ?begin@?$_Tree@V?$_Tmap_traits@GPAUtagMONSTERSHOP@@U?$less@G@std@@V?$allocator@U?$pair@$$CBGPAUtagMONSTERSHOP@@@std@@@3@$0A@@std@@@std@@QAE?AViterator@12@XZ
_TEXT	SEGMENT PARA USE32 PUBLIC 'CODE'
_TEXT	ENDS
;	COMDAT ?end@?$_Tree@V?$_Tmap_traits@GPAUtagMONSTERSHOP@@U?$less@G@std@@V?$allocator@U?$pair@$$CBGPAUtagMONSTERSHOP@@@std@@@3@$0A@@std@@@std@@QAE?AViterator@12@XZ
_TEXT	SEGMENT PARA USE32 PUBLIC 'CODE'
_TEXT	ENDS
;	COMDAT ?clear@?$_Tree@V?$_Tmap_traits@GPAUtagMONSTERSHOP@@U?$less@G@std@@V?$allocator@U?$pair@$$CBGPAUtagMONSTERSHOP@@@std@@@3@$0A@@std@@@std@@QAEXXZ
_TEXT	SEGMENT PARA USE32 PUBLIC 'CODE'
_TEXT	ENDS
;	COMDAT ?find@?$_Tree@V?$_Tmap_traits@GPAUtagMONSTERSHOP@@U?$less@G@std@@V?$allocator@U?$pair@$$CBGPAUtagMONSTERSHOP@@@std@@@3@$0A@@std@@@std@@QAE?AViterator@12@ABG@Z
_TEXT	SEGMENT PARA USE32 PUBLIC 'CODE'
_TEXT	ENDS
;	COMDAT ??0?$map@KPAUtagTAUCTION@@U?$less@K@std@@V?$allocator@U?$pair@$$CBKPAUtagTAUCTION@@@std@@@3@@std@@QAE@XZ
_TEXT	SEGMENT PARA USE32 PUBLIC 'CODE'
_TEXT	ENDS
;	COMDAT ??1?$_Tree@V?$_Tmap_traits@KPAUtagTAUCTION@@U?$less@K@std@@V?$allocator@U?$pair@$$CBKPAUtagTAUCTION@@@std@@@3@$0A@@std@@@std@@QAE@XZ
_TEXT	SEGMENT PARA USE32 PUBLIC 'CODE'
_TEXT	ENDS
;	COMDAT ?begin@?$_Tree@V?$_Tmap_traits@KPAUtagTAUCTION@@U?$less@K@std@@V?$allocator@U?$pair@$$CBKPAUtagTAUCTION@@@std@@@3@$0A@@std@@@std@@QAE?AViterator@12@XZ
_TEXT	SEGMENT PARA USE32 PUBLIC 'CODE'
_TEXT	ENDS
;	COMDAT ?end@?$_Tree@V?$_Tmap_traits@KPAUtagTAUCTION@@U?$less@K@std@@V?$allocator@U?$pair@$$CBKPAUtagTAUCTION@@@std@@@3@$0A@@std@@@std@@QAE?AViterator@12@XZ
_TEXT	SEGMENT PARA USE32 PUBLIC 'CODE'
_TEXT	ENDS
;	COMDAT ?insert@?$_Tree@V?$_Tmap_traits@KPAUtagTAUCTION@@U?$less@K@std@@V?$allocator@U?$pair@$$CBKPAUtagTAUCTION@@@std@@@3@$0A@@std@@@std@@QAE?AU?$pair@Viterator@?$_Tree@V?$_Tmap_traits@KPAUtagTAUCTION@@U?$less@K@std@@V?$allocator@U?$pair@$$CBKPAUtagTAUCTION@@@std@@@3@$0A@@std@@@std@@_N@2@ABU?$pair@$$CBKPAUtagTAUCTION@@@2@@Z
_TEXT	SEGMENT PARA USE32 PUBLIC 'CODE'
_TEXT	ENDS
;	COMDAT ?erase@?$_Tree@V?$_Tmap_traits@KPAUtagTAUCTION@@U?$less@K@std@@V?$allocator@U?$pair@$$CBKPAUtagTAUCTION@@@std@@@3@$0A@@std@@@std@@QAE?AViterator@12@V312@@Z
_TEXT	SEGMENT PARA USE32 PUBLIC 'CODE'
_TEXT	ENDS
;	COMDAT ?clear@?$_Tree@V?$_Tmap_traits@KPAUtagTAUCTION@@U?$less@K@std@@V?$allocator@U?$pair@$$CBKPAUtagTAUCTION@@@std@@@3@$0A@@std@@@std@@QAEXXZ
_TEXT	SEGMENT PARA USE32 PUBLIC 'CODE'
_TEXT	ENDS
;	COMDAT ?find@?$_Tree@V?$_Tmap_traits@KPAUtagTAUCTION@@U?$less@K@std@@V?$allocator@U?$pair@$$CBKPAUtagTAUCTION@@@std@@@3@$0A@@std@@@std@@QAE?AViterator@12@ABK@Z
_TEXT	SEGMENT PARA USE32 PUBLIC 'CODE'
_TEXT	ENDS
;	COMDAT ??0?$map@KPAV?$map@KPAUtagTAUCTION@@U?$less@K@std@@V?$allocator@U?$pair@$$CBKPAUtagTAUCTION@@@std@@@3@@std@@U?$less@K@2@V?$allocator@U?$pair@$$CBKPAV?$map@KPAUtagTAUCTION@@U?$less@K@std@@V?$allocator@U?$pair@$$CBKPAUtagTAUCTION@@@std@@@3@@std@@@std@@@2@@std@@QAE@XZ
_TEXT	SEGMENT PARA USE32 PUBLIC 'CODE'
_TEXT	ENDS
;	COMDAT ??1?$_Tree@V?$_Tmap_traits@KPAV?$map@KPAUtagTAUCTION@@U?$less@K@std@@V?$allocator@U?$pair@$$CBKPAUtagTAUCTION@@@std@@@3@@std@@U?$less@K@2@V?$allocator@U?$pair@$$CBKPAV?$map@KPAUtagTAUCTION@@U?$less@K@std@@V?$allocator@U?$pair@$$CBKPAUtagTAUCTION@@@std@@@3@@std@@@std@@@2@$0A@@std@@@std@@QAE@XZ
_TEXT	SEGMENT PARA USE32 PUBLIC 'CODE'
_TEXT	ENDS
;	COMDAT ?begin@?$_Tree@V?$_Tmap_traits@KPAV?$map@KPAUtagTAUCTION@@U?$less@K@std@@V?$allocator@U?$pair@$$CBKPAUtagTAUCTION@@@std@@@3@@std@@U?$less@K@2@V?$allocator@U?$pair@$$CBKPAV?$map@KPAUtagTAUCTION@@U?$less@K@std@@V?$allocator@U?$pair@$$CBKPAUtagTAUCTION@@@std@@@3@@std@@@std@@@2@$0A@@std@@@std@@QAE?AViterator@12@XZ
_TEXT	SEGMENT PARA USE32 PUBLIC 'CODE'
_TEXT	ENDS
;	COMDAT ?end@?$_Tree@V?$_Tmap_traits@KPAV?$map@KPAUtagTAUCTION@@U?$less@K@std@@V?$allocator@U?$pair@$$CBKPAUtagTAUCTION@@@std@@@3@@std@@U?$less@K@2@V?$allocator@U?$pair@$$CBKPAV?$map@KPAUtagTAUCTION@@U?$less@K@std@@V?$allocator@U?$pair@$$CBKPAUtagTAUCTION@@@std@@@3@@std@@@std@@@2@$0A@@std@@@std@@QAE?AViterator@12@XZ
_TEXT	SEGMENT PARA USE32 PUBLIC 'CODE'
_TEXT	ENDS
;	COMDAT ?insert@?$_Tree@V?$_Tmap_traits@KPAV?$map@KPAUtagTAUCTION@@U?$less@K@std@@V?$allocator@U?$pair@$$CBKPAUtagTAUCTION@@@std@@@3@@std@@U?$less@K@2@V?$allocator@U?$pair@$$CBKPAV?$map@KPAUtagTAUCTION@@U?$less@K@std@@V?$allocator@U?$pair@$$CBKPAUtagTAUCTION@@@std@@@3@@std@@@std@@@2@$0A@@std@@@std@@QAE?AU?$pair@Viterator@?$_Tree@V?$_Tmap_traits@KPAV?$map@KPAUtagTAUCTION@@U?$less@K@std@@V?$allocator@U?$pair@$$CBKPAUtagTAUCTION@@@std@@@3@@std@@U?$less@K@2@V?$allocator@U?$pair@$$CBKPAV?$map@KPAUtagTAUCTION@@U?$less@K@std@@V?$allocator@U?$pair@$$CBKPAUtagTAUCTION@@@std@@@3@@std@@@std@@@2@$0A@@std@@@std@@_N@2@ABU?$pair@$$CBKPAV?$map@KPAUtagTAUCTION@@U?$less@K@std@@V?$allocator@U?$pair@$$CBKPAUtagTAUCTION@@@std@@@3@@std@@@2@@Z
_TEXT	SEGMENT PARA USE32 PUBLIC 'CODE'
_TEXT	ENDS
;	COMDAT ?clear@?$_Tree@V?$_Tmap_traits@KPAV?$map@KPAUtagTAUCTION@@U?$less@K@std@@V?$allocator@U?$pair@$$CBKPAUtagTAUCTION@@@std@@@3@@std@@U?$less@K@2@V?$allocator@U?$pair@$$CBKPAV?$map@KPAUtagTAUCTION@@U?$less@K@std@@V?$allocator@U?$pair@$$CBKPAUtagTAUCTION@@@std@@@3@@std@@@std@@@2@$0A@@std@@@std@@QAEXXZ
_TEXT	SEGMENT PARA USE32 PUBLIC 'CODE'
_TEXT	ENDS
;	COMDAT ?find@?$_Tree@V?$_Tmap_traits@KPAV?$map@KPAUtagTAUCTION@@U?$less@K@std@@V?$allocator@U?$pair@$$CBKPAUtagTAUCTION@@@std@@@3@@std@@U?$less@K@2@V?$allocator@U?$pair@$$CBKPAV?$map@KPAUtagTAUCTION@@U?$less@K@std@@V?$allocator@U?$pair@$$CBKPAUtagTAUCTION@@@std@@@3@@std@@@std@@@2@$0A@@std@@@std@@QAE?AViterator@12@ABK@Z
_TEXT	SEGMENT PARA USE32 PUBLIC 'CODE'
_TEXT	ENDS
;	COMDAT ??Diterator@?$_Tree@V?$_Tmap_traits@KPAVCTItem@@U?$less@K@std@@V?$allocator@U?$pair@$$CBKPAVCTItem@@@std@@@3@$0A@@std@@@std@@QBEAAU?$pair@$$CBKPAVCTItem@@@2@XZ
_TEXT	SEGMENT PARA USE32 PUBLIC 'CODE'
_TEXT	ENDS
;	COMDAT ?UnregisterAppId@?$CAtlServiceModuleT@VCTMapSvrModule@@$0GE@@ATL@@QAEJXZ
_TEXT	SEGMENT PARA USE32 PUBLIC 'CODE'
_TEXT	ENDS
;	COMDAT ?IsInstalled@?$CAtlServiceModuleT@VCTMapSvrModule@@$0GE@@ATL@@QAEHXZ
_TEXT	SEGMENT PARA USE32 PUBLIC 'CODE'
_TEXT	ENDS
;	COMDAT ?Uninstall@?$CAtlServiceModuleT@VCTMapSvrModule@@$0GE@@ATL@@QAEHXZ
_TEXT	SEGMENT PARA USE32 PUBLIC 'CODE'
_TEXT	ENDS
;	COMDAT ??1?$CAtlExeModuleT@VCTMapSvrModule@@@ATL@@UAE@XZ
_TEXT	SEGMENT PARA USE32 PUBLIC 'CODE'
_TEXT	ENDS
;	COMDAT ?Unlock@?$CAtlExeModuleT@VCTMapSvrModule@@@ATL@@UAEJXZ
_TEXT	SEGMENT PARA USE32 PUBLIC 'CODE'
_TEXT	ENDS
;	COMDAT ?RegisterServer@?$CAtlModuleT@VCTMapSvrModule@@@ATL@@QAEJHPBU_GUID@@@Z
_TEXT	SEGMENT PARA USE32 PUBLIC 'CODE'
_TEXT	ENDS
;	COMDAT ?UnregisterServer@?$CAtlModuleT@VCTMapSvrModule@@@ATL@@QAEJHPBU_GUID@@@Z
_TEXT	SEGMENT PARA USE32 PUBLIC 'CODE'
_TEXT	ENDS
;	COMDAT ?AddCommonRGSReplacements@?$CAtlModuleT@VCTMapSvrModule@@@ATL@@UAEJPAUIRegistrarBase@@@Z
_TEXT	SEGMENT PARA USE32 PUBLIC 'CODE'
_TEXT	ENDS
;	COMDAT ??0iterator@?$_Tree@V?$_Tmap_traits@GPAUtagMONSTERSHOP@@U?$less@G@std@@V?$allocator@U?$pair@$$CBGPAUtagMONSTERSHOP@@@std@@@3@$0A@@std@@@std@@QAE@XZ
_TEXT	SEGMENT PARA USE32 PUBLIC 'CODE'
_TEXT	ENDS
;	COMDAT ??Diterator@?$_Tree@V?$_Tmap_traits@GPAUtagMONSTERSHOP@@U?$less@G@std@@V?$allocator@U?$pair@$$CBGPAUtagMONSTERSHOP@@@std@@@3@$0A@@std@@@std@@QBEAAU?$pair@$$CBGPAUtagMONSTERSHOP@@@2@XZ
_TEXT	SEGMENT PARA USE32 PUBLIC 'CODE'
_TEXT	ENDS
;	COMDAT ??Eiterator@?$_Tree@V?$_Tmap_traits@GPAUtagMONSTERSHOP@@U?$less@G@std@@V?$allocator@U?$pair@$$CBGPAUtagMONSTERSHOP@@@std@@@3@$0A@@std@@@std@@QAE?AV012@H@Z
_TEXT	SEGMENT PARA USE32 PUBLIC 'CODE'
_TEXT	ENDS
;	COMDAT ??9const_iterator@?$_Tree@V?$_Tmap_traits@GPAUtagMONSTERSHOP@@U?$less@G@std@@V?$allocator@U?$pair@$$CBGPAUtagMONSTERSHOP@@@std@@@3@$0A@@std@@@std@@QBE_NABV012@@Z
_TEXT	SEGMENT PARA USE32 PUBLIC 'CODE'
_TEXT	ENDS
;	COMDAT ??0iterator@?$_Tree@V?$_Tmap_traits@KPAV?$map@KPAUtagTAUCTION@@U?$less@K@std@@V?$allocator@U?$pair@$$CBKPAUtagTAUCTION@@@std@@@3@@std@@U?$less@K@2@V?$allocator@U?$pair@$$CBKPAV?$map@KPAUtagTAUCTION@@U?$less@K@std@@V?$allocator@U?$pair@$$CBKPAUtagTAUCTION@@@std@@@3@@std@@@std@@@2@$0A@@std@@@std@@QAE@XZ
_TEXT	SEGMENT PARA USE32 PUBLIC 'CODE'
_TEXT	ENDS
;	COMDAT ??Diterator@?$_Tree@V?$_Tmap_traits@KPAV?$map@KPAUtagTAUCTION@@U?$less@K@std@@V?$allocator@U?$pair@$$CBKPAUtagTAUCTION@@@std@@@3@@std@@U?$less@K@2@V?$allocator@U?$pair@$$CBKPAV?$map@KPAUtagTAUCTION@@U?$less@K@std@@V?$allocator@U?$pair@$$CBKPAUtagTAUCTION@@@std@@@3@@std@@@std@@@2@$0A@@std@@@std@@QBEAAU?$pair@$$CBKPAV?$map@KPAUtagTAUCTION@@U?$less@K@std@@V?$allocator@U?$pair@$$CBKPAUtagTAUCTION@@@std@@@3@@std@@@2@XZ
_TEXT	SEGMENT PARA USE32 PUBLIC 'CODE'
_TEXT	ENDS
;	COMDAT ??Eiterator@?$_Tree@V?$_Tmap_traits@KPAV?$map@KPAUtagTAUCTION@@U?$less@K@std@@V?$allocator@U?$pair@$$CBKPAUtagTAUCTION@@@std@@@3@@std@@U?$less@K@2@V?$allocator@U?$pair@$$CBKPAV?$map@KPAUtagTAUCTION@@U?$less@K@std@@V?$allocator@U?$pair@$$CBKPAUtagTAUCTION@@@std@@@3@@std@@@std@@@2@$0A@@std@@@std@@QAE?AV012@H@Z
_TEXT	SEGMENT PARA USE32 PUBLIC 'CODE'
_TEXT	ENDS
;	COMDAT ??8const_iterator@?$_Tree@V?$_Tmap_traits@KPAV?$map@KPAUtagTAUCTION@@U?$less@K@std@@V?$allocator@U?$pair@$$CBKPAUtagTAUCTION@@@std@@@3@@std@@U?$less@K@2@V?$allocator@U?$pair@$$CBKPAV?$map@KPAUtagTAUCTION@@U?$less@K@std@@V?$allocator@U?$pair@$$CBKPAUtagTAUCTION@@@std@@@3@@std@@@std@@@2@$0A@@std@@@std@@QBE_NABV012@@Z
_TEXT	SEGMENT PARA USE32 PUBLIC 'CODE'
_TEXT	ENDS
;	COMDAT ??9const_iterator@?$_Tree@V?$_Tmap_traits@KPAV?$map@KPAUtagTAUCTION@@U?$less@K@std@@V?$allocator@U?$pair@$$CBKPAUtagTAUCTION@@@std@@@3@@std@@U?$less@K@2@V?$allocator@U?$pair@$$CBKPAV?$map@KPAUtagTAUCTION@@U?$less@K@std@@V?$allocator@U?$pair@$$CBKPAUtagTAUCTION@@@std@@@3@@std@@@std@@@2@$0A@@std@@@std@@QBE_NABV012@@Z
_TEXT	SEGMENT PARA USE32 PUBLIC 'CODE'
_TEXT	ENDS
;	COMDAT ??0?$pair@$$CBKPAV?$map@KPAUtagTAUCTION@@U?$less@K@std@@V?$allocator@U?$pair@$$CBKPAUtagTAUCTION@@@std@@@3@@std@@@std@@QAE@ABKABQAV?$map@KPAUtagTAUCTION@@U?$less@K@std@@V?$allocator@U?$pair@$$CBKPAUtagTAUCTION@@@std@@@3@@1@@Z
_TEXT	SEGMENT PARA USE32 PUBLIC 'CODE'
_TEXT	ENDS
;	COMDAT ??0iterator@?$_Tree@V?$_Tmap_traits@KPAUtagTAUCTION@@U?$less@K@std@@V?$allocator@U?$pair@$$CBKPAUtagTAUCTION@@@std@@@3@$0A@@std@@@std@@QAE@XZ
_TEXT	SEGMENT PARA USE32 PUBLIC 'CODE'
_TEXT	ENDS
;	COMDAT ??Diterator@?$_Tree@V?$_Tmap_traits@KPAUtagTAUCTION@@U?$less@K@std@@V?$allocator@U?$pair@$$CBKPAUtagTAUCTION@@@std@@@3@$0A@@std@@@std@@QBEAAU?$pair@$$CBKPAUtagTAUCTION@@@2@XZ
_TEXT	SEGMENT PARA USE32 PUBLIC 'CODE'
_TEXT	ENDS
;	COMDAT ??Eiterator@?$_Tree@V?$_Tmap_traits@KPAUtagTAUCTION@@U?$less@K@std@@V?$allocator@U?$pair@$$CBKPAUtagTAUCTION@@@std@@@3@$0A@@std@@@std@@QAE?AV012@H@Z
_TEXT	SEGMENT PARA USE32 PUBLIC 'CODE'
_TEXT	ENDS
;	COMDAT ??8const_iterator@?$_Tree@V?$_Tmap_traits@KPAUtagTAUCTION@@U?$less@K@std@@V?$allocator@U?$pair@$$CBKPAUtagTAUCTION@@@std@@@3@$0A@@std@@@std@@QBE_NABV012@@Z
_TEXT	SEGMENT PARA USE32 PUBLIC 'CODE'
_TEXT	ENDS
;	COMDAT ??9const_iterator@?$_Tree@V?$_Tmap_traits@KPAUtagTAUCTION@@U?$less@K@std@@V?$allocator@U?$pair@$$CBKPAUtagTAUCTION@@@std@@@3@$0A@@std@@@std@@QBE_NABV012@@Z
_TEXT	SEGMENT PARA USE32 PUBLIC 'CODE'
_TEXT	ENDS
;	COMDAT ??0?$pair@$$CBKPAUtagTAUCTION@@@std@@QAE@ABKABQAUtagTAUCTION@@@Z
_TEXT	SEGMENT PARA USE32 PUBLIC 'CODE'
_TEXT	ENDS
;	COMDAT ??Diterator@?$_Tree@V?$_Tmap_traits@GPAUtagTITEM@@U?$less@G@std@@V?$allocator@U?$pair@$$CBGPAUtagTITEM@@@std@@@3@$0A@@std@@@std@@QBEAAU?$pair@$$CBGPAUtagTITEM@@@2@XZ
_TEXT	SEGMENT PARA USE32 PUBLIC 'CODE'
_TEXT	ENDS
;	COMDAT ??9const_iterator@?$_Tree@V?$_Tmap_traits@GPAUtagTITEM@@U?$less@G@std@@V?$allocator@U?$pair@$$CBGPAUtagTITEM@@@std@@@3@$0A@@std@@@std@@QBE_NABV012@@Z
_TEXT	SEGMENT PARA USE32 PUBLIC 'CODE'
_TEXT	ENDS
;	COMDAT ??Diterator@?$_Tree@V?$_Tmap_traits@GPAVCTSkillTemp@@U?$less@G@std@@V?$allocator@U?$pair@$$CBGPAVCTSkillTemp@@@std@@@3@$0A@@std@@@std@@QBEAAU?$pair@$$CBGPAVCTSkillTemp@@@2@XZ
_TEXT	SEGMENT PARA USE32 PUBLIC 'CODE'
_TEXT	ENDS
;	COMDAT ??9const_iterator@?$_Tree@V?$_Tmap_traits@GPAVCTSkillTemp@@U?$less@G@std@@V?$allocator@U?$pair@$$CBGPAVCTSkillTemp@@@std@@@3@$0A@@std@@@std@@QBE_NABV012@@Z
_TEXT	SEGMENT PARA USE32 PUBLIC 'CODE'
_TEXT	ENDS
;	COMDAT ??8const_iterator@?$_Tree@V?$_Tmap_traits@EPAUtagTMAGIC@@U?$less@E@std@@V?$allocator@U?$pair@$$CBEPAUtagTMAGIC@@@std@@@3@$0A@@std@@@std@@QBE_NABV012@@Z
_TEXT	SEGMENT PARA USE32 PUBLIC 'CODE'
_TEXT	ENDS
;	COMDAT ??8const_iterator@?$_Tree@V?$_Tmap_traits@KKU?$less@K@std@@V?$allocator@U?$pair@$$CBKK@std@@@2@$0A@@std@@@std@@QBE_NABV012@@Z
_TEXT	SEGMENT PARA USE32 PUBLIC 'CODE'
_TEXT	ENDS
;	COMDAT ??0?$pair@$$CBKK@std@@QAE@ABK0@Z
_TEXT	SEGMENT PARA USE32 PUBLIC 'CODE'
_TEXT	ENDS
;	COMDAT ?begin@?$vector@PAUtagTAUCTION@@V?$allocator@PAUtagTAUCTION@@@std@@@std@@QAE?AViterator@12@XZ
_TEXT	SEGMENT PARA USE32 PUBLIC 'CODE'
_TEXT	ENDS
;	COMDAT ?end@?$vector@PAUtagTAUCTION@@V?$allocator@PAUtagTAUCTION@@@std@@@std@@QAE?AViterator@12@XZ
_TEXT	SEGMENT PARA USE32 PUBLIC 'CODE'
_TEXT	ENDS
;	COMDAT ?push_back@?$vector@PAUtagTAUCTION@@V?$allocator@PAUtagTAUCTION@@@std@@@std@@QAEXABQAUtagTAUCTION@@@Z
_TEXT	SEGMENT PARA USE32 PUBLIC 'CODE'
_TEXT	ENDS
;	COMDAT ??_G?$CAtlExeModuleT@VCTMapSvrModule@@@ATL@@UAEPAXI@Z
_TEXT	SEGMENT PARA USE32 PUBLIC 'CODE'
_TEXT	ENDS
;	COMDAT ??1?$CAtlModuleT@VCTMapSvrModule@@@ATL@@UAE@XZ
_TEXT	SEGMENT PARA USE32 PUBLIC 'CODE'
_TEXT	ENDS
;	COMDAT ??0?$CStringT@DV?$StrTraitATL@DV?$ChTraitsCRT@D@ATL@@@ATL@@@ATL@@QAE@PAUIAtlStringMgr@1@@Z
_TEXT	SEGMENT PARA USE32 PUBLIC 'CODE'
_TEXT	ENDS
;	COMDAT ?Mid@?$CStringT@DV?$StrTraitATL@DV?$ChTraitsCRT@D@ATL@@@ATL@@@ATL@@QBE?AV12@HH@Z
_TEXT	SEGMENT PARA USE32 PUBLIC 'CODE'
_TEXT	ENDS
;	COMDAT ?FormatV@?$CStringT@DV?$StrTraitATL@DV?$ChTraitsCRT@D@ATL@@@ATL@@@ATL@@QAEXPBDPAD@Z
_TEXT	SEGMENT PARA USE32 PUBLIC 'CODE'
_TEXT	ENDS
;	COMDAT ?GetManager@?$CSimpleStringT@D$0A@@ATL@@QBEPAUIAtlStringMgr@2@XZ
_TEXT	SEGMENT PARA USE32 PUBLIC 'CODE'
_TEXT	ENDS
;	COMDAT ?StringSpanIncluding@?$ChTraitsCRT@D@ATL@@SAHPBD0@Z
_TEXT	SEGMENT PARA USE32 PUBLIC 'CODE'
_TEXT	ENDS
;	COMDAT ?StringSpanExcluding@?$ChTraitsCRT@D@ATL@@SAHPBD0@Z
_TEXT	SEGMENT PARA USE32 PUBLIC 'CODE'
_TEXT	ENDS
;	COMDAT ??R?$less@G@std@@QBE_NABG0@Z
_TEXT	SEGMENT PARA USE32 PUBLIC 'CODE'
_TEXT	ENDS
;	COMDAT ??R?$less@K@std@@QBE_NABK0@Z
_TEXT	SEGMENT PARA USE32 PUBLIC 'CODE'
_TEXT	ENDS
;	COMDAT ?_Isnil@?$_Tree@V?$_Tmap_traits@KKU?$less@K@std@@V?$allocator@U?$pair@$$CBKK@std@@@2@$0A@@std@@@std@@KAAADPAU_Node@?$_Tree_nod@V?$_Tmap_traits@KKU?$less@K@std@@V?$allocator@U?$pair@$$CBKK@std@@@2@$0A@@std@@@2@@Z
_TEXT	SEGMENT PARA USE32 PUBLIC 'CODE'
_TEXT	ENDS
;	COMDAT ?_Key@?$_Tree@V?$_Tmap_traits@KKU?$less@K@std@@V?$allocator@U?$pair@$$CBKK@std@@@2@$0A@@std@@@std@@KAABKPAU_Node@?$_Tree_nod@V?$_Tmap_traits@KKU?$less@K@std@@V?$allocator@U?$pair@$$CBKK@std@@@2@$0A@@std@@@2@@Z
_TEXT	SEGMENT PARA USE32 PUBLIC 'CODE'
_TEXT	ENDS
;	COMDAT ?_Left@?$_Tree@V?$_Tmap_traits@KKU?$less@K@std@@V?$allocator@U?$pair@$$CBKK@std@@@2@$0A@@std@@@std@@KAAAPAU_Node@?$_Tree_nod@V?$_Tmap_traits@KKU?$less@K@std@@V?$allocator@U?$pair@$$CBKK@std@@@2@$0A@@std@@@2@PAU342@@Z
_TEXT	SEGMENT PARA USE32 PUBLIC 'CODE'
_TEXT	ENDS
;	COMDAT ?_Right@?$_Tree@V?$_Tmap_traits@KKU?$less@K@std@@V?$allocator@U?$pair@$$CBKK@std@@@2@$0A@@std@@@std@@KAAAPAU_Node@?$_Tree_nod@V?$_Tmap_traits@KKU?$less@K@std@@V?$allocator@U?$pair@$$CBKK@std@@@2@$0A@@std@@@2@PAU342@@Z
_TEXT	SEGMENT PARA USE32 PUBLIC 'CODE'
_TEXT	ENDS
;	COMDAT ?begin@?$_Tree@V?$_Tmap_traits@KKU?$less@K@std@@V?$allocator@U?$pair@$$CBKK@std@@@2@$0A@@std@@@std@@QAE?AViterator@12@XZ
_TEXT	SEGMENT PARA USE32 PUBLIC 'CODE'
_TEXT	ENDS
;	COMDAT ?lower_bound@?$_Tree@V?$_Tmap_traits@KKU?$less@K@std@@V?$allocator@U?$pair@$$CBKK@std@@@2@$0A@@std@@@std@@QAE?AViterator@12@ABK@Z
_TEXT	SEGMENT PARA USE32 PUBLIC 'CODE'
_TEXT	ENDS
;	COMDAT ?_Insert@?$_Tree@V?$_Tmap_traits@KKU?$less@K@std@@V?$allocator@U?$pair@$$CBKK@std@@@2@$0A@@std@@@std@@IAE?AViterator@12@_NPAU_Node@?$_Tree_nod@V?$_Tmap_traits@KKU?$less@K@std@@V?$allocator@U?$pair@$$CBKK@std@@@2@$0A@@std@@@2@ABU?$pair@$$CBKK@2@@Z
_TEXT	SEGMENT PARA USE32 PUBLIC 'CODE'
_TEXT	ENDS
;	COMDAT ?_Root@?$_Tree@V?$_Tmap_traits@KKU?$less@K@std@@V?$allocator@U?$pair@$$CBKK@std@@@2@$0A@@std@@@std@@IAEAAPAU_Node@?$_Tree_nod@V?$_Tmap_traits@KKU?$less@K@std@@V?$allocator@U?$pair@$$CBKK@std@@@2@$0A@@std@@@2@XZ
_TEXT	SEGMENT PARA USE32 PUBLIC 'CODE'
_TEXT	ENDS
;	COMDAT ?_Kfn@?$_Tmap_traits@KKU?$less@K@std@@V?$allocator@U?$pair@$$CBKK@std@@@2@$0A@@std@@SAABKABU?$pair@$$CBKK@2@@Z
_TEXT	SEGMENT PARA USE32 PUBLIC 'CODE'
_TEXT	ENDS
;	COMDAT ?_Key@?$_Tree@V?$_Tmap_traits@KPAVCTItem@@U?$less@K@std@@V?$allocator@U?$pair@$$CBKPAVCTItem@@@std@@@3@$0A@@std@@@std@@KAABKPAU_Node@?$_Tree_nod@V?$_Tmap_traits@KPAVCTItem@@U?$less@K@std@@V?$allocator@U?$pair@$$CBKPAVCTItem@@@std@@@3@$0A@@std@@@2@@Z
_TEXT	SEGMENT PARA USE32 PUBLIC 'CODE'
_TEXT	ENDS
;	COMDAT ?lower_bound@?$_Tree@V?$_Tmap_traits@KPAVCTItem@@U?$less@K@std@@V?$allocator@U?$pair@$$CBKPAVCTItem@@@std@@@3@$0A@@std@@@std@@QAE?AViterator@12@ABK@Z
_TEXT	SEGMENT PARA USE32 PUBLIC 'CODE'
_TEXT	ENDS
;	COMDAT ??R?$less@E@std@@QBE_NABE0@Z
_TEXT	SEGMENT PARA USE32 PUBLIC 'CODE'
_TEXT	ENDS
;	COMDAT ?_Key@?$_Tree@V?$_Tmap_traits@EPAUtagTMAGIC@@U?$less@E@std@@V?$allocator@U?$pair@$$CBEPAUtagTMAGIC@@@std@@@3@$0A@@std@@@std@@KAABEPAU_Node@?$_Tree_nod@V?$_Tmap_traits@EPAUtagTMAGIC@@U?$less@E@std@@V?$allocator@U?$pair@$$CBEPAUtagTMAGIC@@@std@@@3@$0A@@std@@@2@@Z
_TEXT	SEGMENT PARA USE32 PUBLIC 'CODE'
_TEXT	ENDS
;	COMDAT ?lower_bound@?$_Tree@V?$_Tmap_traits@EPAUtagTMAGIC@@U?$less@E@std@@V?$allocator@U?$pair@$$CBEPAUtagTMAGIC@@@std@@@3@$0A@@std@@@std@@QAE?AViterator@12@ABE@Z
_TEXT	SEGMENT PARA USE32 PUBLIC 'CODE'
_TEXT	ENDS
;	COMDAT ?_Key@?$_Tree@V?$_Tmap_traits@GPAUtagTITEM@@U?$less@G@std@@V?$allocator@U?$pair@$$CBGPAUtagTITEM@@@std@@@3@$0A@@std@@@std@@KAABGPAU_Node@?$_Tree_nod@V?$_Tmap_traits@GPAUtagTITEM@@U?$less@G@std@@V?$allocator@U?$pair@$$CBGPAUtagTITEM@@@std@@@3@$0A@@std@@@2@@Z
_TEXT	SEGMENT PARA USE32 PUBLIC 'CODE'
_TEXT	ENDS
;	COMDAT ??0?$_Tree@V?$_Tmap_traits@GPAUtagTITEM@@U?$less@G@std@@V?$allocator@U?$pair@$$CBGPAUtagTITEM@@@std@@@3@$0A@@std@@@std@@QAE@ABU?$less@G@1@ABV?$allocator@U?$pair@$$CBGPAUtagTITEM@@@std@@@1@@Z
_TEXT	SEGMENT PARA USE32 PUBLIC 'CODE'
_TEXT	ENDS
;	COMDAT ?lower_bound@?$_Tree@V?$_Tmap_traits@GPAUtagTITEM@@U?$less@G@std@@V?$allocator@U?$pair@$$CBGPAUtagTITEM@@@std@@@3@$0A@@std@@@std@@QAE?AViterator@12@ABG@Z
_TEXT	SEGMENT PARA USE32 PUBLIC 'CODE'
_TEXT	ENDS
;	COMDAT ?_Erase@?$_Tree@V?$_Tmap_traits@GPAUtagTITEM@@U?$less@G@std@@V?$allocator@U?$pair@$$CBGPAUtagTITEM@@@std@@@3@$0A@@std@@@std@@IAEXPAU_Node@?$_Tree_nod@V?$_Tmap_traits@GPAUtagTITEM@@U?$less@G@std@@V?$allocator@U?$pair@$$CBGPAUtagTITEM@@@std@@@3@$0A@@std@@@2@@Z
_TEXT	SEGMENT PARA USE32 PUBLIC 'CODE'
_TEXT	ENDS
;	COMDAT ?_Lmost@?$_Tree@V?$_Tmap_traits@GPAUtagTITEM@@U?$less@G@std@@V?$allocator@U?$pair@$$CBGPAUtagTITEM@@@std@@@3@$0A@@std@@@std@@IAEAAPAU_Node@?$_Tree_nod@V?$_Tmap_traits@GPAUtagTITEM@@U?$less@G@std@@V?$allocator@U?$pair@$$CBGPAUtagTITEM@@@std@@@3@$0A@@std@@@2@XZ
_TEXT	SEGMENT PARA USE32 PUBLIC 'CODE'
_TEXT	ENDS
;	COMDAT ?_Rmost@?$_Tree@V?$_Tmap_traits@GPAUtagTITEM@@U?$less@G@std@@V?$allocator@U?$pair@$$CBGPAUtagTITEM@@@std@@@3@$0A@@std@@@std@@IAEAAPAU_Node@?$_Tree_nod@V?$_Tmap_traits@GPAUtagTITEM@@U?$less@G@std@@V?$allocator@U?$pair@$$CBGPAUtagTITEM@@@std@@@3@$0A@@std@@@2@XZ
_TEXT	SEGMENT PARA USE32 PUBLIC 'CODE'
_TEXT	ENDS
;	COMDAT ?_Root@?$_Tree@V?$_Tmap_traits@GPAUtagTITEM@@U?$less@G@std@@V?$allocator@U?$pair@$$CBGPAUtagTITEM@@@std@@@3@$0A@@std@@@std@@IAEAAPAU_Node@?$_Tree_nod@V?$_Tmap_traits@GPAUtagTITEM@@U?$less@G@std@@V?$allocator@U?$pair@$$CBGPAUtagTITEM@@@std@@@3@$0A@@std@@@2@XZ
_TEXT	SEGMENT PARA USE32 PUBLIC 'CODE'
_TEXT	ENDS
;	COMDAT ?_Tidy@?$_Tree@V?$_Tmap_traits@GPAUtagTITEM@@U?$less@G@std@@V?$allocator@U?$pair@$$CBGPAUtagTITEM@@@std@@@3@$0A@@std@@@std@@IAEXXZ
_TEXT	SEGMENT PARA USE32 PUBLIC 'CODE'
_TEXT	ENDS
;	COMDAT ??0?$allocator@U?$pair@$$CBGPAUtagTITEM@@@std@@@std@@QAE@XZ
_TEXT	SEGMENT PARA USE32 PUBLIC 'CODE'
_TEXT	ENDS
;	COMDAT ?_Key@?$_Tree@V?$_Tmap_traits@GPAVCTSkillTemp@@U?$less@G@std@@V?$allocator@U?$pair@$$CBGPAVCTSkillTemp@@@std@@@3@$0A@@std@@@std@@KAABGPAU_Node@?$_Tree_nod@V?$_Tmap_traits@GPAVCTSkillTemp@@U?$less@G@std@@V?$allocator@U?$pair@$$CBGPAVCTSkillTemp@@@std@@@3@$0A@@std@@@2@@Z
_TEXT	SEGMENT PARA USE32 PUBLIC 'CODE'
_TEXT	ENDS
;	COMDAT ??0?$_Tree@V?$_Tmap_traits@GPAVCTSkillTemp@@U?$less@G@std@@V?$allocator@U?$pair@$$CBGPAVCTSkillTemp@@@std@@@3@$0A@@std@@@std@@QAE@ABU?$less@G@1@ABV?$allocator@U?$pair@$$CBGPAVCTSkillTemp@@@std@@@1@@Z
_TEXT	SEGMENT PARA USE32 PUBLIC 'CODE'
_TEXT	ENDS
;	COMDAT ?lower_bound@?$_Tree@V?$_Tmap_traits@GPAVCTSkillTemp@@U?$less@G@std@@V?$allocator@U?$pair@$$CBGPAVCTSkillTemp@@@std@@@3@$0A@@std@@@std@@QAE?AViterator@12@ABG@Z
_TEXT	SEGMENT PARA USE32 PUBLIC 'CODE'
_TEXT	ENDS
;	COMDAT ?_Erase@?$_Tree@V?$_Tmap_traits@GPAVCTSkillTemp@@U?$less@G@std@@V?$allocator@U?$pair@$$CBGPAVCTSkillTemp@@@std@@@3@$0A@@std@@@std@@IAEXPAU_Node@?$_Tree_nod@V?$_Tmap_traits@GPAVCTSkillTemp@@U?$less@G@std@@V?$allocator@U?$pair@$$CBGPAVCTSkillTemp@@@std@@@3@$0A@@std@@@2@@Z
_TEXT	SEGMENT PARA USE32 PUBLIC 'CODE'
_TEXT	ENDS
;	COMDAT ?_Lmost@?$_Tree@V?$_Tmap_traits@GPAVCTSkillTemp@@U?$less@G@std@@V?$allocator@U?$pair@$$CBGPAVCTSkillTemp@@@std@@@3@$0A@@std@@@std@@IAEAAPAU_Node@?$_Tree_nod@V?$_Tmap_traits@GPAVCTSkillTemp@@U?$less@G@std@@V?$allocator@U?$pair@$$CBGPAVCTSkillTemp@@@std@@@3@$0A@@std@@@2@XZ
_TEXT	SEGMENT PARA USE32 PUBLIC 'CODE'
_TEXT	ENDS
;	COMDAT ?_Rmost@?$_Tree@V?$_Tmap_traits@GPAVCTSkillTemp@@U?$less@G@std@@V?$allocator@U?$pair@$$CBGPAVCTSkillTemp@@@std@@@3@$0A@@std@@@std@@IAEAAPAU_Node@?$_Tree_nod@V?$_Tmap_traits@GPAVCTSkillTemp@@U?$less@G@std@@V?$allocator@U?$pair@$$CBGPAVCTSkillTemp@@@std@@@3@$0A@@std@@@2@XZ
_TEXT	SEGMENT PARA USE32 PUBLIC 'CODE'
_TEXT	ENDS
;	COMDAT ?_Root@?$_Tree@V?$_Tmap_traits@GPAVCTSkillTemp@@U?$less@G@std@@V?$allocator@U?$pair@$$CBGPAVCTSkillTemp@@@std@@@3@$0A@@std@@@std@@IAEAAPAU_Node@?$_Tree_nod@V?$_Tmap_traits@GPAVCTSkillTemp@@U?$less@G@std@@V?$allocator@U?$pair@$$CBGPAVCTSkillTemp@@@std@@@3@$0A@@std@@@2@XZ
_TEXT	SEGMENT PARA USE32 PUBLIC 'CODE'
_TEXT	ENDS
;	COMDAT ?_Tidy@?$_Tree@V?$_Tmap_traits@GPAVCTSkillTemp@@U?$less@G@std@@V?$allocator@U?$pair@$$CBGPAVCTSkillTemp@@@std@@@3@$0A@@std@@@std@@IAEXXZ
_TEXT	SEGMENT PARA USE32 PUBLIC 'CODE'
_TEXT	ENDS
;	COMDAT ??0?$allocator@U?$pair@$$CBGPAVCTSkillTemp@@@std@@@std@@QAE@XZ
_TEXT	SEGMENT PARA USE32 PUBLIC 'CODE'
_TEXT	ENDS
;	COMDAT ?_Key@?$_Tree@V?$_Tmap_traits@GPAUtagMONSTERSHOP@@U?$less@G@std@@V?$allocator@U?$pair@$$CBGPAUtagMONSTERSHOP@@@std@@@3@$0A@@std@@@std@@KAABGPAU_Node@?$_Tree_nod@V?$_Tmap_traits@GPAUtagMONSTERSHOP@@U?$less@G@std@@V?$allocator@U?$pair@$$CBGPAUtagMONSTERSHOP@@@std@@@3@$0A@@std@@@2@@Z
_TEXT	SEGMENT PARA USE32 PUBLIC 'CODE'
_TEXT	ENDS
;	COMDAT ??0?$_Tree@V?$_Tmap_traits@GPAUtagMONSTERSHOP@@U?$less@G@std@@V?$allocator@U?$pair@$$CBGPAUtagMONSTERSHOP@@@std@@@3@$0A@@std@@@std@@QAE@ABU?$less@G@1@ABV?$allocator@U?$pair@$$CBGPAUtagMONSTERSHOP@@@std@@@1@@Z
_TEXT	SEGMENT PARA USE32 PUBLIC 'CODE'
_TEXT	ENDS
;	COMDAT ?lower_bound@?$_Tree@V?$_Tmap_traits@GPAUtagMONSTERSHOP@@U?$less@G@std@@V?$allocator@U?$pair@$$CBGPAUtagMONSTERSHOP@@@std@@@3@$0A@@std@@@std@@QAE?AViterator@12@ABG@Z
_TEXT	SEGMENT PARA USE32 PUBLIC 'CODE'
_TEXT	ENDS
;	COMDAT ?_Erase@?$_Tree@V?$_Tmap_traits@GPAUtagMONSTERSHOP@@U?$less@G@std@@V?$allocator@U?$pair@$$CBGPAUtagMONSTERSHOP@@@std@@@3@$0A@@std@@@std@@IAEXPAU_Node@?$_Tree_nod@V?$_Tmap_traits@GPAUtagMONSTERSHOP@@U?$less@G@std@@V?$allocator@U?$pair@$$CBGPAUtagMONSTERSHOP@@@std@@@3@$0A@@std@@@2@@Z
_TEXT	SEGMENT PARA USE32 PUBLIC 'CODE'
_TEXT	ENDS
;	COMDAT ?_Lmost@?$_Tree@V?$_Tmap_traits@GPAUtagMONSTERSHOP@@U?$less@G@std@@V?$allocator@U?$pair@$$CBGPAUtagMONSTERSHOP@@@std@@@3@$0A@@std@@@std@@IAEAAPAU_Node@?$_Tree_nod@V?$_Tmap_traits@GPAUtagMONSTERSHOP@@U?$less@G@std@@V?$allocator@U?$pair@$$CBGPAUtagMONSTERSHOP@@@std@@@3@$0A@@std@@@2@XZ
_TEXT	SEGMENT PARA USE32 PUBLIC 'CODE'
_TEXT	ENDS
;	COMDAT ?_Rmost@?$_Tree@V?$_Tmap_traits@GPAUtagMONSTERSHOP@@U?$less@G@std@@V?$allocator@U?$pair@$$CBGPAUtagMONSTERSHOP@@@std@@@3@$0A@@std@@@std@@IAEAAPAU_Node@?$_Tree_nod@V?$_Tmap_traits@GPAUtagMONSTERSHOP@@U?$less@G@std@@V?$allocator@U?$pair@$$CBGPAUtagMONSTERSHOP@@@std@@@3@$0A@@std@@@2@XZ
_TEXT	SEGMENT PARA USE32 PUBLIC 'CODE'
_TEXT	ENDS
;	COMDAT ?_Root@?$_Tree@V?$_Tmap_traits@GPAUtagMONSTERSHOP@@U?$less@G@std@@V?$allocator@U?$pair@$$CBGPAUtagMONSTERSHOP@@@std@@@3@$0A@@std@@@std@@IAEAAPAU_Node@?$_Tree_nod@V?$_Tmap_traits@GPAUtagMONSTERSHOP@@U?$less@G@std@@V?$allocator@U?$pair@$$CBGPAUtagMONSTERSHOP@@@std@@@3@$0A@@std@@@2@XZ
_TEXT	SEGMENT PARA USE32 PUBLIC 'CODE'
_TEXT	ENDS
;	COMDAT ?_Tidy@?$_Tree@V?$_Tmap_traits@GPAUtagMONSTERSHOP@@U?$less@G@std@@V?$allocator@U?$pair@$$CBGPAUtagMONSTERSHOP@@@std@@@3@$0A@@std@@@std@@IAEXXZ
_TEXT	SEGMENT PARA USE32 PUBLIC 'CODE'
_TEXT	ENDS
;	COMDAT ??0?$allocator@U?$pair@$$CBGPAUtagMONSTERSHOP@@@std@@@std@@QAE@XZ
_TEXT	SEGMENT PARA USE32 PUBLIC 'CODE'
_TEXT	ENDS
;	COMDAT ?_Color@?$_Tree@V?$_Tmap_traits@KPAUtagTAUCTION@@U?$less@K@std@@V?$allocator@U?$pair@$$CBKPAUtagTAUCTION@@@std@@@3@$0A@@std@@@std@@KAAADPAU_Node@?$_Tree_nod@V?$_Tmap_traits@KPAUtagTAUCTION@@U?$less@K@std@@V?$allocator@U?$pair@$$CBKPAUtagTAUCTION@@@std@@@3@$0A@@std@@@2@@Z
_TEXT	SEGMENT PARA USE32 PUBLIC 'CODE'
_TEXT	ENDS
;	COMDAT ?_Isnil@?$_Tree@V?$_Tmap_traits@KPAUtagTAUCTION@@U?$less@K@std@@V?$allocator@U?$pair@$$CBKPAUtagTAUCTION@@@std@@@3@$0A@@std@@@std@@KAAADPAU_Node@?$_Tree_nod@V?$_Tmap_traits@KPAUtagTAUCTION@@U?$less@K@std@@V?$allocator@U?$pair@$$CBKPAUtagTAUCTION@@@std@@@3@$0A@@std@@@2@@Z
_TEXT	SEGMENT PARA USE32 PUBLIC 'CODE'
_TEXT	ENDS
;	COMDAT ?_Key@?$_Tree@V?$_Tmap_traits@KPAUtagTAUCTION@@U?$less@K@std@@V?$allocator@U?$pair@$$CBKPAUtagTAUCTION@@@std@@@3@$0A@@std@@@std@@KAABKPAU_Node@?$_Tree_nod@V?$_Tmap_traits@KPAUtagTAUCTION@@U?$less@K@std@@V?$allocator@U?$pair@$$CBKPAUtagTAUCTION@@@std@@@3@$0A@@std@@@2@@Z
_TEXT	SEGMENT PARA USE32 PUBLIC 'CODE'
_TEXT	ENDS
;	COMDAT ?_Left@?$_Tree@V?$_Tmap_traits@KPAUtagTAUCTION@@U?$less@K@std@@V?$allocator@U?$pair@$$CBKPAUtagTAUCTION@@@std@@@3@$0A@@std@@@std@@KAAAPAU_Node@?$_Tree_nod@V?$_Tmap_traits@KPAUtagTAUCTION@@U?$less@K@std@@V?$allocator@U?$pair@$$CBKPAUtagTAUCTION@@@std@@@3@$0A@@std@@@2@PAU342@@Z
_TEXT	SEGMENT PARA USE32 PUBLIC 'CODE'
_TEXT	ENDS
;	COMDAT ?_Parent@?$_Tree@V?$_Tmap_traits@KPAUtagTAUCTION@@U?$less@K@std@@V?$allocator@U?$pair@$$CBKPAUtagTAUCTION@@@std@@@3@$0A@@std@@@std@@KAAAPAU_Node@?$_Tree_nod@V?$_Tmap_traits@KPAUtagTAUCTION@@U?$less@K@std@@V?$allocator@U?$pair@$$CBKPAUtagTAUCTION@@@std@@@3@$0A@@std@@@2@PAU342@@Z
_TEXT	SEGMENT PARA USE32 PUBLIC 'CODE'
_TEXT	ENDS
;	COMDAT ?_Right@?$_Tree@V?$_Tmap_traits@KPAUtagTAUCTION@@U?$less@K@std@@V?$allocator@U?$pair@$$CBKPAUtagTAUCTION@@@std@@@3@$0A@@std@@@std@@KAAAPAU_Node@?$_Tree_nod@V?$_Tmap_traits@KPAUtagTAUCTION@@U?$less@K@std@@V?$allocator@U?$pair@$$CBKPAUtagTAUCTION@@@std@@@3@$0A@@std@@@2@PAU342@@Z
_TEXT	SEGMENT PARA USE32 PUBLIC 'CODE'
_TEXT	ENDS
;	COMDAT ??0?$_Tree@V?$_Tmap_traits@KPAUtagTAUCTION@@U?$less@K@std@@V?$allocator@U?$pair@$$CBKPAUtagTAUCTION@@@std@@@3@$0A@@std@@@std@@QAE@ABU?$less@K@1@ABV?$allocator@U?$pair@$$CBKPAUtagTAUCTION@@@std@@@1@@Z
_TEXT	SEGMENT PARA USE32 PUBLIC 'CODE'
_TEXT	ENDS
;	COMDAT ?lower_bound@?$_Tree@V?$_Tmap_traits@KPAUtagTAUCTION@@U?$less@K@std@@V?$allocator@U?$pair@$$CBKPAUtagTAUCTION@@@std@@@3@$0A@@std@@@std@@QAE?AViterator@12@ABK@Z
_TEXT	SEGMENT PARA USE32 PUBLIC 'CODE'
_TEXT	ENDS
;	COMDAT ?_Erase@?$_Tree@V?$_Tmap_traits@KPAUtagTAUCTION@@U?$less@K@std@@V?$allocator@U?$pair@$$CBKPAUtagTAUCTION@@@std@@@3@$0A@@std@@@std@@IAEXPAU_Node@?$_Tree_nod@V?$_Tmap_traits@KPAUtagTAUCTION@@U?$less@K@std@@V?$allocator@U?$pair@$$CBKPAUtagTAUCTION@@@std@@@3@$0A@@std@@@2@@Z
_TEXT	SEGMENT PARA USE32 PUBLIC 'CODE'
_TEXT	ENDS
;	COMDAT ?_Insert@?$_Tree@V?$_Tmap_traits@KPAUtagTAUCTION@@U?$less@K@std@@V?$allocator@U?$pair@$$CBKPAUtagTAUCTION@@@std@@@3@$0A@@std@@@std@@IAE?AViterator@12@_NPAU_Node@?$_Tree_nod@V?$_Tmap_traits@KPAUtagTAUCTION@@U?$less@K@std@@V?$allocator@U?$pair@$$CBKPAUtagTAUCTION@@@std@@@3@$0A@@std@@@2@ABU?$pair@$$CBKPAUtagTAUCTION@@@2@@Z
_TEXT	SEGMENT PARA USE32 PUBLIC 'CODE'
_TEXT	ENDS
;	COMDAT ?_Lmost@?$_Tree@V?$_Tmap_traits@KPAUtagTAUCTION@@U?$less@K@std@@V?$allocator@U?$pair@$$CBKPAUtagTAUCTION@@@std@@@3@$0A@@std@@@std@@IAEAAPAU_Node@?$_Tree_nod@V?$_Tmap_traits@KPAUtagTAUCTION@@U?$less@K@std@@V?$allocator@U?$pair@$$CBKPAUtagTAUCTION@@@std@@@3@$0A@@std@@@2@XZ
_TEXT	SEGMENT PARA USE32 PUBLIC 'CODE'
_TEXT	ENDS
;	COMDAT ?_Lrotate@?$_Tree@V?$_Tmap_traits@KPAUtagTAUCTION@@U?$less@K@std@@V?$allocator@U?$pair@$$CBKPAUtagTAUCTION@@@std@@@3@$0A@@std@@@std@@IAEXPAU_Node@?$_Tree_nod@V?$_Tmap_traits@KPAUtagTAUCTION@@U?$less@K@std@@V?$allocator@U?$pair@$$CBKPAUtagTAUCTION@@@std@@@3@$0A@@std@@@2@@Z
_TEXT	SEGMENT PARA USE32 PUBLIC 'CODE'
_TEXT	ENDS
;	COMDAT ?_Max@?$_Tree@V?$_Tmap_traits@KPAUtagTAUCTION@@U?$less@K@std@@V?$allocator@U?$pair@$$CBKPAUtagTAUCTION@@@std@@@3@$0A@@std@@@std@@KAPAU_Node@?$_Tree_nod@V?$_Tmap_traits@KPAUtagTAUCTION@@U?$less@K@std@@V?$allocator@U?$pair@$$CBKPAUtagTAUCTION@@@std@@@3@$0A@@std@@@2@PAU342@@Z
_TEXT	SEGMENT PARA USE32 PUBLIC 'CODE'
_TEXT	ENDS
;	COMDAT ?_Min@?$_Tree@V?$_Tmap_traits@KPAUtagTAUCTION@@U?$less@K@std@@V?$allocator@U?$pair@$$CBKPAUtagTAUCTION@@@std@@@3@$0A@@std@@@std@@KAPAU_Node@?$_Tree_nod@V?$_Tmap_traits@KPAUtagTAUCTION@@U?$less@K@std@@V?$allocator@U?$pair@$$CBKPAUtagTAUCTION@@@std@@@3@$0A@@std@@@2@PAU342@@Z
_TEXT	SEGMENT PARA USE32 PUBLIC 'CODE'
_TEXT	ENDS
;	COMDAT ?_Rmost@?$_Tree@V?$_Tmap_traits@KPAUtagTAUCTION@@U?$less@K@std@@V?$allocator@U?$pair@$$CBKPAUtagTAUCTION@@@std@@@3@$0A@@std@@@std@@IAEAAPAU_Node@?$_Tree_nod@V?$_Tmap_traits@KPAUtagTAUCTION@@U?$less@K@std@@V?$allocator@U?$pair@$$CBKPAUtagTAUCTION@@@std@@@3@$0A@@std@@@2@XZ
_TEXT	SEGMENT PARA USE32 PUBLIC 'CODE'
_TEXT	ENDS
;	COMDAT ?_Root@?$_Tree@V?$_Tmap_traits@KPAUtagTAUCTION@@U?$less@K@std@@V?$allocator@U?$pair@$$CBKPAUtagTAUCTION@@@std@@@3@$0A@@std@@@std@@IAEAAPAU_Node@?$_Tree_nod@V?$_Tmap_traits@KPAUtagTAUCTION@@U?$less@K@std@@V?$allocator@U?$pair@$$CBKPAUtagTAUCTION@@@std@@@3@$0A@@std@@@2@XZ
_TEXT	SEGMENT PARA USE32 PUBLIC 'CODE'
_TEXT	ENDS
;	COMDAT ?_Rrotate@?$_Tree@V?$_Tmap_traits@KPAUtagTAUCTION@@U?$less@K@std@@V?$allocator@U?$pair@$$CBKPAUtagTAUCTION@@@std@@@3@$0A@@std@@@std@@IAEXPAU_Node@?$_Tree_nod@V?$_Tmap_traits@KPAUtagTAUCTION@@U?$less@K@std@@V?$allocator@U?$pair@$$CBKPAUtagTAUCTION@@@std@@@3@$0A@@std@@@2@@Z
_TEXT	SEGMENT PARA USE32 PUBLIC 'CODE'
_TEXT	ENDS
;	COMDAT ?_Tidy@?$_Tree@V?$_Tmap_traits@KPAUtagTAUCTION@@U?$less@K@std@@V?$allocator@U?$pair@$$CBKPAUtagTAUCTION@@@std@@@3@$0A@@std@@@std@@IAEXXZ
_TEXT	SEGMENT PARA USE32 PUBLIC 'CODE'
_TEXT	ENDS
;	COMDAT ?_Kfn@?$_Tmap_traits@KPAUtagTAUCTION@@U?$less@K@std@@V?$allocator@U?$pair@$$CBKPAUtagTAUCTION@@@std@@@3@$0A@@std@@SAABKABU?$pair@$$CBKPAUtagTAUCTION@@@2@@Z
_TEXT	SEGMENT PARA USE32 PUBLIC 'CODE'
_TEXT	ENDS
;	COMDAT ??0?$allocator@U?$pair@$$CBKPAUtagTAUCTION@@@std@@@std@@QAE@XZ
_TEXT	SEGMENT PARA USE32 PUBLIC 'CODE'
_TEXT	ENDS
;	COMDAT ?deallocate@?$allocator@U_Node@?$_Tree_nod@V?$_Tmap_traits@KPAUtagTAUCTION@@U?$less@K@std@@V?$allocator@U?$pair@$$CBKPAUtagTAUCTION@@@std@@@3@$0A@@std@@@std@@@std@@QAEXPAU_Node@?$_Tree_nod@V?$_Tmap_traits@KPAUtagTAUCTION@@U?$less@K@std@@V?$allocator@U?$pair@$$CBKPAUtagTAUCTION@@@std@@@3@$0A@@std@@@2@I@Z
_TEXT	SEGMENT PARA USE32 PUBLIC 'CODE'
_TEXT	ENDS
;	COMDAT ?destroy@?$allocator@U_Node@?$_Tree_nod@V?$_Tmap_traits@KPAUtagTAUCTION@@U?$less@K@std@@V?$allocator@U?$pair@$$CBKPAUtagTAUCTION@@@std@@@3@$0A@@std@@@std@@@std@@QAEXPAU_Node@?$_Tree_nod@V?$_Tmap_traits@KPAUtagTAUCTION@@U?$less@K@std@@V?$allocator@U?$pair@$$CBKPAUtagTAUCTION@@@std@@@3@$0A@@std@@@2@@Z
_TEXT	SEGMENT PARA USE32 PUBLIC 'CODE'
_TEXT	ENDS
;	COMDAT ?_Isnil@?$_Tree@V?$_Tmap_traits@KPAV?$map@KPAUtagTAUCTION@@U?$less@K@std@@V?$allocator@U?$pair@$$CBKPAUtagTAUCTION@@@std@@@3@@std@@U?$less@K@2@V?$allocator@U?$pair@$$CBKPAV?$map@KPAUtagTAUCTION@@U?$less@K@std@@V?$allocator@U?$pair@$$CBKPAUtagTAUCTION@@@std@@@3@@std@@@std@@@2@$0A@@std@@@std@@KAAADPAU_Node@?$_Tree_nod@V?$_Tmap_traits@KPAV?$map@KPAUtagTAUCTION@@U?$less@K@std@@V?$allocator@U?$pair@$$CBKPAUtagTAUCTION@@@std@@@3@@std@@U?$less@K@2@V?$allocator@U?$pair@$$CBKPAV?$map@KPAUtagTAUCTION@@U?$less@K@std@@V?$allocator@U?$pair@$$CBKPAUtagTAUCTION@@@std@@@3@@std@@@std@@@2@$0A@@std@@@2@@Z
_TEXT	SEGMENT PARA USE32 PUBLIC 'CODE'
_TEXT	ENDS
;	COMDAT ?_Key@?$_Tree@V?$_Tmap_traits@KPAV?$map@KPAUtagTAUCTION@@U?$less@K@std@@V?$allocator@U?$pair@$$CBKPAUtagTAUCTION@@@std@@@3@@std@@U?$less@K@2@V?$allocator@U?$pair@$$CBKPAV?$map@KPAUtagTAUCTION@@U?$less@K@std@@V?$allocator@U?$pair@$$CBKPAUtagTAUCTION@@@std@@@3@@std@@@std@@@2@$0A@@std@@@std@@KAABKPAU_Node@?$_Tree_nod@V?$_Tmap_traits@KPAV?$map@KPAUtagTAUCTION@@U?$less@K@std@@V?$allocator@U?$pair@$$CBKPAUtagTAUCTION@@@std@@@3@@std@@U?$less@K@2@V?$allocator@U?$pair@$$CBKPAV?$map@KPAUtagTAUCTION@@U?$less@K@std@@V?$allocator@U?$pair@$$CBKPAUtagTAUCTION@@@std@@@3@@std@@@std@@@2@$0A@@std@@@2@@Z
_TEXT	SEGMENT PARA USE32 PUBLIC 'CODE'
_TEXT	ENDS
;	COMDAT ?_Left@?$_Tree@V?$_Tmap_traits@KPAV?$map@KPAUtagTAUCTION@@U?$less@K@std@@V?$allocator@U?$pair@$$CBKPAUtagTAUCTION@@@std@@@3@@std@@U?$less@K@2@V?$allocator@U?$pair@$$CBKPAV?$map@KPAUtagTAUCTION@@U?$less@K@std@@V?$allocator@U?$pair@$$CBKPAUtagTAUCTION@@@std@@@3@@std@@@std@@@2@$0A@@std@@@std@@KAAAPAU_Node@?$_Tree_nod@V?$_Tmap_traits@KPAV?$map@KPAUtagTAUCTION@@U?$less@K@std@@V?$allocator@U?$pair@$$CBKPAUtagTAUCTION@@@std@@@3@@std@@U?$less@K@2@V?$allocator@U?$pair@$$CBKPAV?$map@KPAUtagTAUCTION@@U?$less@K@std@@V?$allocator@U?$pair@$$CBKPAUtagTAUCTION@@@std@@@3@@std@@@std@@@2@$0A@@std@@@2@PAU342@@Z
_TEXT	SEGMENT PARA USE32 PUBLIC 'CODE'
_TEXT	ENDS
;	COMDAT ?_Right@?$_Tree@V?$_Tmap_traits@KPAV?$map@KPAUtagTAUCTION@@U?$less@K@std@@V?$allocator@U?$pair@$$CBKPAUtagTAUCTION@@@std@@@3@@std@@U?$less@K@2@V?$allocator@U?$pair@$$CBKPAV?$map@KPAUtagTAUCTION@@U?$less@K@std@@V?$allocator@U?$pair@$$CBKPAUtagTAUCTION@@@std@@@3@@std@@@std@@@2@$0A@@std@@@std@@KAAAPAU_Node@?$_Tree_nod@V?$_Tmap_traits@KPAV?$map@KPAUtagTAUCTION@@U?$less@K@std@@V?$allocator@U?$pair@$$CBKPAUtagTAUCTION@@@std@@@3@@std@@U?$less@K@2@V?$allocator@U?$pair@$$CBKPAV?$map@KPAUtagTAUCTION@@U?$less@K@std@@V?$allocator@U?$pair@$$CBKPAUtagTAUCTION@@@std@@@3@@std@@@std@@@2@$0A@@std@@@2@PAU342@@Z
_TEXT	SEGMENT PARA USE32 PUBLIC 'CODE'
_TEXT	ENDS
;	COMDAT ??0?$_Tree@V?$_Tmap_traits@KPAV?$map@KPAUtagTAUCTION@@U?$less@K@std@@V?$allocator@U?$pair@$$CBKPAUtagTAUCTION@@@std@@@3@@std@@U?$less@K@2@V?$allocator@U?$pair@$$CBKPAV?$map@KPAUtagTAUCTION@@U?$less@K@std@@V?$allocator@U?$pair@$$CBKPAUtagTAUCTION@@@std@@@3@@std@@@std@@@2@$0A@@std@@@std@@QAE@ABU?$less@K@1@ABV?$allocator@U?$pair@$$CBKPAV?$map@KPAUtagTAUCTION@@U?$less@K@std@@V?$allocator@U?$pair@$$CBKPAUtagTAUCTION@@@std@@@3@@std@@@std@@@1@@Z
_TEXT	SEGMENT PARA USE32 PUBLIC 'CODE'
_TEXT	ENDS
;	COMDAT ?lower_bound@?$_Tree@V?$_Tmap_traits@KPAV?$map@KPAUtagTAUCTION@@U?$less@K@std@@V?$allocator@U?$pair@$$CBKPAUtagTAUCTION@@@std@@@3@@std@@U?$less@K@2@V?$allocator@U?$pair@$$CBKPAV?$map@KPAUtagTAUCTION@@U?$less@K@std@@V?$allocator@U?$pair@$$CBKPAUtagTAUCTION@@@std@@@3@@std@@@std@@@2@$0A@@std@@@std@@QAE?AViterator@12@ABK@Z
_TEXT	SEGMENT PARA USE32 PUBLIC 'CODE'
_TEXT	ENDS
;	COMDAT ?_Erase@?$_Tree@V?$_Tmap_traits@KPAV?$map@KPAUtagTAUCTION@@U?$less@K@std@@V?$allocator@U?$pair@$$CBKPAUtagTAUCTION@@@std@@@3@@std@@U?$less@K@2@V?$allocator@U?$pair@$$CBKPAV?$map@KPAUtagTAUCTION@@U?$less@K@std@@V?$allocator@U?$pair@$$CBKPAUtagTAUCTION@@@std@@@3@@std@@@std@@@2@$0A@@std@@@std@@IAEXPAU_Node@?$_Tree_nod@V?$_Tmap_traits@KPAV?$map@KPAUtagTAUCTION@@U?$less@K@std@@V?$allocator@U?$pair@$$CBKPAUtagTAUCTION@@@std@@@3@@std@@U?$less@K@2@V?$allocator@U?$pair@$$CBKPAV?$map@KPAUtagTAUCTION@@U?$less@K@std@@V?$allocator@U?$pair@$$CBKPAUtagTAUCTION@@@std@@@3@@std@@@std@@@2@$0A@@std@@@2@@Z
_TEXT	SEGMENT PARA USE32 PUBLIC 'CODE'
_TEXT	ENDS
;	COMDAT ?_Insert@?$_Tree@V?$_Tmap_traits@KPAV?$map@KPAUtagTAUCTION@@U?$less@K@std@@V?$allocator@U?$pair@$$CBKPAUtagTAUCTION@@@std@@@3@@std@@U?$less@K@2@V?$allocator@U?$pair@$$CBKPAV?$map@KPAUtagTAUCTION@@U?$less@K@std@@V?$allocator@U?$pair@$$CBKPAUtagTAUCTION@@@std@@@3@@std@@@std@@@2@$0A@@std@@@std@@IAE?AViterator@12@_NPAU_Node@?$_Tree_nod@V?$_Tmap_traits@KPAV?$map@KPAUtagTAUCTION@@U?$less@K@std@@V?$allocator@U?$pair@$$CBKPAUtagTAUCTION@@@std@@@3@@std@@U?$less@K@2@V?$allocator@U?$pair@$$CBKPAV?$map@KPAUtagTAUCTION@@U?$less@K@std@@V?$allocator@U?$pair@$$CBKPAUtagTAUCTION@@@std@@@3@@std@@@std@@@2@$0A@@std@@@2@ABU?$pair@$$CBKPAV?$map@KPAUtagTAUCTION@@U?$less@K@std@@V?$allocator@U?$pair@$$CBKPAUtagTAUCTION@@@std@@@3@@std@@@2@@Z
_TEXT	SEGMENT PARA USE32 PUBLIC 'CODE'
_TEXT	ENDS
;	COMDAT ?_Lmost@?$_Tree@V?$_Tmap_traits@KPAV?$map@KPAUtagTAUCTION@@U?$less@K@std@@V?$allocator@U?$pair@$$CBKPAUtagTAUCTION@@@std@@@3@@std@@U?$less@K@2@V?$allocator@U?$pair@$$CBKPAV?$map@KPAUtagTAUCTION@@U?$less@K@std@@V?$allocator@U?$pair@$$CBKPAUtagTAUCTION@@@std@@@3@@std@@@std@@@2@$0A@@std@@@std@@IAEAAPAU_Node@?$_Tree_nod@V?$_Tmap_traits@KPAV?$map@KPAUtagTAUCTION@@U?$less@K@std@@V?$allocator@U?$pair@$$CBKPAUtagTAUCTION@@@std@@@3@@std@@U?$less@K@2@V?$allocator@U?$pair@$$CBKPAV?$map@KPAUtagTAUCTION@@U?$less@K@std@@V?$allocator@U?$pair@$$CBKPAUtagTAUCTION@@@std@@@3@@std@@@std@@@2@$0A@@std@@@2@XZ
_TEXT	SEGMENT PARA USE32 PUBLIC 'CODE'
_TEXT	ENDS
;	COMDAT ?_Rmost@?$_Tree@V?$_Tmap_traits@KPAV?$map@KPAUtagTAUCTION@@U?$less@K@std@@V?$allocator@U?$pair@$$CBKPAUtagTAUCTION@@@std@@@3@@std@@U?$less@K@2@V?$allocator@U?$pair@$$CBKPAV?$map@KPAUtagTAUCTION@@U?$less@K@std@@V?$allocator@U?$pair@$$CBKPAUtagTAUCTION@@@std@@@3@@std@@@std@@@2@$0A@@std@@@std@@IAEAAPAU_Node@?$_Tree_nod@V?$_Tmap_traits@KPAV?$map@KPAUtagTAUCTION@@U?$less@K@std@@V?$allocator@U?$pair@$$CBKPAUtagTAUCTION@@@std@@@3@@std@@U?$less@K@2@V?$allocator@U?$pair@$$CBKPAV?$map@KPAUtagTAUCTION@@U?$less@K@std@@V?$allocator@U?$pair@$$CBKPAUtagTAUCTION@@@std@@@3@@std@@@std@@@2@$0A@@std@@@2@XZ
_TEXT	SEGMENT PARA USE32 PUBLIC 'CODE'
_TEXT	ENDS
;	COMDAT ?_Root@?$_Tree@V?$_Tmap_traits@KPAV?$map@KPAUtagTAUCTION@@U?$less@K@std@@V?$allocator@U?$pair@$$CBKPAUtagTAUCTION@@@std@@@3@@std@@U?$less@K@2@V?$allocator@U?$pair@$$CBKPAV?$map@KPAUtagTAUCTION@@U?$less@K@std@@V?$allocator@U?$pair@$$CBKPAUtagTAUCTION@@@std@@@3@@std@@@std@@@2@$0A@@std@@@std@@IAEAAPAU_Node@?$_Tree_nod@V?$_Tmap_traits@KPAV?$map@KPAUtagTAUCTION@@U?$less@K@std@@V?$allocator@U?$pair@$$CBKPAUtagTAUCTION@@@std@@@3@@std@@U?$less@K@2@V?$allocator@U?$pair@$$CBKPAV?$map@KPAUtagTAUCTION@@U?$less@K@std@@V?$allocator@U?$pair@$$CBKPAUtagTAUCTION@@@std@@@3@@std@@@std@@@2@$0A@@std@@@2@XZ
_TEXT	SEGMENT PARA USE32 PUBLIC 'CODE'
_TEXT	ENDS
;	COMDAT ?_Tidy@?$_Tree@V?$_Tmap_traits@KPAV?$map@KPAUtagTAUCTION@@U?$less@K@std@@V?$allocator@U?$pair@$$CBKPAUtagTAUCTION@@@std@@@3@@std@@U?$less@K@2@V?$allocator@U?$pair@$$CBKPAV?$map@KPAUtagTAUCTION@@U?$less@K@std@@V?$allocator@U?$pair@$$CBKPAUtagTAUCTION@@@std@@@3@@std@@@std@@@2@$0A@@std@@@std@@IAEXXZ
_TEXT	SEGMENT PARA USE32 PUBLIC 'CODE'
_TEXT	ENDS
;	COMDAT ?_Kfn@?$_Tmap_traits@KPAV?$map@KPAUtagTAUCTION@@U?$less@K@std@@V?$allocator@U?$pair@$$CBKPAUtagTAUCTION@@@std@@@3@@std@@U?$less@K@2@V?$allocator@U?$pair@$$CBKPAV?$map@KPAUtagTAUCTION@@U?$less@K@std@@V?$allocator@U?$pair@$$CBKPAUtagTAUCTION@@@std@@@3@@std@@@std@@@2@$0A@@std@@SAABKABU?$pair@$$CBKPAV?$map@KPAUtagTAUCTION@@U?$less@K@std@@V?$allocator@U?$pair@$$CBKPAUtagTAUCTION@@@std@@@3@@std@@@2@@Z
_TEXT	SEGMENT PARA USE32 PUBLIC 'CODE'
_TEXT	ENDS
;	COMDAT ??0?$allocator@U?$pair@$$CBKPAV?$map@KPAUtagTAUCTION@@U?$less@K@std@@V?$allocator@U?$pair@$$CBKPAUtagTAUCTION@@@std@@@3@@std@@@std@@@std@@QAE@XZ
_TEXT	SEGMENT PARA USE32 PUBLIC 'CODE'
_TEXT	ENDS
;	COMDAT ??Dconst_iterator@?$_Tree@V?$_Tmap_traits@KPAVCTItem@@U?$less@K@std@@V?$allocator@U?$pair@$$CBKPAVCTItem@@@std@@@3@$0A@@std@@@std@@QBEABU?$pair@$$CBKPAVCTItem@@@2@XZ
_TEXT	SEGMENT PARA USE32 PUBLIC 'CODE'
_TEXT	ENDS
;	COMDAT ?UninitializeCom@?$CAtlExeModuleT@VCTMapSvrModule@@@ATL@@SAXXZ
_TEXT	SEGMENT PARA USE32 PUBLIC 'CODE'
_TEXT	ENDS
;	COMDAT ??0iterator@?$_Tree@V?$_Tmap_traits@GPAUtagMONSTERSHOP@@U?$less@G@std@@V?$allocator@U?$pair@$$CBGPAUtagMONSTERSHOP@@@std@@@3@$0A@@std@@@std@@QAE@PAU_Node@?$_Tree_nod@V?$_Tmap_traits@GPAUtagMONSTERSHOP@@U?$less@G@std@@V?$allocator@U?$pair@$$CBGPAUtagMONSTERSHOP@@@std@@@3@$0A@@std@@@2@@Z
_TEXT	SEGMENT PARA USE32 PUBLIC 'CODE'
_TEXT	ENDS
;	COMDAT ??Eiterator@?$_Tree@V?$_Tmap_traits@GPAUtagMONSTERSHOP@@U?$less@G@std@@V?$allocator@U?$pair@$$CBGPAUtagMONSTERSHOP@@@std@@@3@$0A@@std@@@std@@QAEAAV012@XZ
_TEXT	SEGMENT PARA USE32 PUBLIC 'CODE'
_TEXT	ENDS
;	COMDAT ??0const_iterator@?$_Tree@V?$_Tmap_traits@GPAUtagMONSTERSHOP@@U?$less@G@std@@V?$allocator@U?$pair@$$CBGPAUtagMONSTERSHOP@@@std@@@3@$0A@@std@@@std@@QAE@XZ
_TEXT	SEGMENT PARA USE32 PUBLIC 'CODE'
_TEXT	ENDS
;	COMDAT ??Dconst_iterator@?$_Tree@V?$_Tmap_traits@GPAUtagMONSTERSHOP@@U?$less@G@std@@V?$allocator@U?$pair@$$CBGPAUtagMONSTERSHOP@@@std@@@3@$0A@@std@@@std@@QBEABU?$pair@$$CBGPAUtagMONSTERSHOP@@@2@XZ
_TEXT	SEGMENT PARA USE32 PUBLIC 'CODE'
_TEXT	ENDS
;	COMDAT ??8const_iterator@?$_Tree@V?$_Tmap_traits@GPAUtagMONSTERSHOP@@U?$less@G@std@@V?$allocator@U?$pair@$$CBGPAUtagMONSTERSHOP@@@std@@@3@$0A@@std@@@std@@QBE_NABV012@@Z
_TEXT	SEGMENT PARA USE32 PUBLIC 'CODE'
_TEXT	ENDS
;	COMDAT ?_Mynode@const_iterator@?$_Tree@V?$_Tmap_traits@GPAUtagMONSTERSHOP@@U?$less@G@std@@V?$allocator@U?$pair@$$CBGPAUtagMONSTERSHOP@@@std@@@3@$0A@@std@@@std@@QBEPAU_Node@?$_Tree_nod@V?$_Tmap_traits@GPAUtagMONSTERSHOP@@U?$less@G@std@@V?$allocator@U?$pair@$$CBGPAUtagMONSTERSHOP@@@std@@@3@$0A@@std@@@3@XZ
_TEXT	SEGMENT PARA USE32 PUBLIC 'CODE'
_TEXT	ENDS
;	COMDAT ??0iterator@?$_Tree@V?$_Tmap_traits@KPAV?$map@KPAUtagTAUCTION@@U?$less@K@std@@V?$allocator@U?$pair@$$CBKPAUtagTAUCTION@@@std@@@3@@std@@U?$less@K@2@V?$allocator@U?$pair@$$CBKPAV?$map@KPAUtagTAUCTION@@U?$less@K@std@@V?$allocator@U?$pair@$$CBKPAUtagTAUCTION@@@std@@@3@@std@@@std@@@2@$0A@@std@@@std@@QAE@PAU_Node@?$_Tree_nod@V?$_Tmap_traits@KPAV?$map@KPAUtagTAUCTION@@U?$less@K@std@@V?$allocator@U?$pair@$$CBKPAUtagTAUCTION@@@std@@@3@@std@@U?$less@K@2@V?$allocator@U?$pair@$$CBKPAV?$map@KPAUtagTAUCTION@@U?$less@K@std@@V?$allocator@U?$pair@$$CBKPAUtagTAUCTION@@@std@@@3@@std@@@std@@@2@$0A@@std@@@2@@Z
_TEXT	SEGMENT PARA USE32 PUBLIC 'CODE'
_TEXT	ENDS
;	COMDAT ??Eiterator@?$_Tree@V?$_Tmap_traits@KPAV?$map@KPAUtagTAUCTION@@U?$less@K@std@@V?$allocator@U?$pair@$$CBKPAUtagTAUCTION@@@std@@@3@@std@@U?$less@K@2@V?$allocator@U?$pair@$$CBKPAV?$map@KPAUtagTAUCTION@@U?$less@K@std@@V?$allocator@U?$pair@$$CBKPAUtagTAUCTION@@@std@@@3@@std@@@std@@@2@$0A@@std@@@std@@QAEAAV012@XZ
_TEXT	SEGMENT PARA USE32 PUBLIC 'CODE'
_TEXT	ENDS
;	COMDAT ??Fiterator@?$_Tree@V?$_Tmap_traits@KPAV?$map@KPAUtagTAUCTION@@U?$less@K@std@@V?$allocator@U?$pair@$$CBKPAUtagTAUCTION@@@std@@@3@@std@@U?$less@K@2@V?$allocator@U?$pair@$$CBKPAV?$map@KPAUtagTAUCTION@@U?$less@K@std@@V?$allocator@U?$pair@$$CBKPAUtagTAUCTION@@@std@@@3@@std@@@std@@@2@$0A@@std@@@std@@QAEAAV012@XZ
_TEXT	SEGMENT PARA USE32 PUBLIC 'CODE'
_TEXT	ENDS
;	COMDAT ??0const_iterator@?$_Tree@V?$_Tmap_traits@KPAV?$map@KPAUtagTAUCTION@@U?$less@K@std@@V?$allocator@U?$pair@$$CBKPAUtagTAUCTION@@@std@@@3@@std@@U?$less@K@2@V?$allocator@U?$pair@$$CBKPAV?$map@KPAUtagTAUCTION@@U?$less@K@std@@V?$allocator@U?$pair@$$CBKPAUtagTAUCTION@@@std@@@3@@std@@@std@@@2@$0A@@std@@@std@@QAE@XZ
_TEXT	SEGMENT PARA USE32 PUBLIC 'CODE'
_TEXT	ENDS
;	COMDAT ??Dconst_iterator@?$_Tree@V?$_Tmap_traits@KPAV?$map@KPAUtagTAUCTION@@U?$less@K@std@@V?$allocator@U?$pair@$$CBKPAUtagTAUCTION@@@std@@@3@@std@@U?$less@K@2@V?$allocator@U?$pair@$$CBKPAV?$map@KPAUtagTAUCTION@@U?$less@K@std@@V?$allocator@U?$pair@$$CBKPAUtagTAUCTION@@@std@@@3@@std@@@std@@@2@$0A@@std@@@std@@QBEABU?$pair@$$CBKPAV?$map@KPAUtagTAUCTION@@U?$less@K@std@@V?$allocator@U?$pair@$$CBKPAUtagTAUCTION@@@std@@@3@@std@@@2@XZ
_TEXT	SEGMENT PARA USE32 PUBLIC 'CODE'
_TEXT	ENDS
;	COMDAT ?_Mynode@const_iterator@?$_Tree@V?$_Tmap_traits@KPAV?$map@KPAUtagTAUCTION@@U?$less@K@std@@V?$allocator@U?$pair@$$CBKPAUtagTAUCTION@@@std@@@3@@std@@U?$less@K@2@V?$allocator@U?$pair@$$CBKPAV?$map@KPAUtagTAUCTION@@U?$less@K@std@@V?$allocator@U?$pair@$$CBKPAUtagTAUCTION@@@std@@@3@@std@@@std@@@2@$0A@@std@@@std@@QBEPAU_Node@?$_Tree_nod@V?$_Tmap_traits@KPAV?$map@KPAUtagTAUCTION@@U?$less@K@std@@V?$allocator@U?$pair@$$CBKPAUtagTAUCTION@@@std@@@3@@std@@U?$less@K@2@V?$allocator@U?$pair@$$CBKPAV?$map@KPAUtagTAUCTION@@U?$less@K@std@@V?$allocator@U?$pair@$$CBKPAUtagTAUCTION@@@std@@@3@@std@@@std@@@2@$0A@@std@@@3@XZ
_TEXT	SEGMENT PARA USE32 PUBLIC 'CODE'
_TEXT	ENDS
;	COMDAT ??0iterator@?$_Tree@V?$_Tmap_traits@KPAUtagTAUCTION@@U?$less@K@std@@V?$allocator@U?$pair@$$CBKPAUtagTAUCTION@@@std@@@3@$0A@@std@@@std@@QAE@PAU_Node@?$_Tree_nod@V?$_Tmap_traits@KPAUtagTAUCTION@@U?$less@K@std@@V?$allocator@U?$pair@$$CBKPAUtagTAUCTION@@@std@@@3@$0A@@std@@@2@@Z
_TEXT	SEGMENT PARA USE32 PUBLIC 'CODE'
_TEXT	ENDS
;	COMDAT ??Eiterator@?$_Tree@V?$_Tmap_traits@KPAUtagTAUCTION@@U?$less@K@std@@V?$allocator@U?$pair@$$CBKPAUtagTAUCTION@@@std@@@3@$0A@@std@@@std@@QAEAAV012@XZ
_TEXT	SEGMENT PARA USE32 PUBLIC 'CODE'
_TEXT	ENDS
;	COMDAT ??Fiterator@?$_Tree@V?$_Tmap_traits@KPAUtagTAUCTION@@U?$less@K@std@@V?$allocator@U?$pair@$$CBKPAUtagTAUCTION@@@std@@@3@$0A@@std@@@std@@QAEAAV012@XZ
_TEXT	SEGMENT PARA USE32 PUBLIC 'CODE'
_TEXT	ENDS
;	COMDAT ??0const_iterator@?$_Tree@V?$_Tmap_traits@KPAUtagTAUCTION@@U?$less@K@std@@V?$allocator@U?$pair@$$CBKPAUtagTAUCTION@@@std@@@3@$0A@@std@@@std@@QAE@XZ
_TEXT	SEGMENT PARA USE32 PUBLIC 'CODE'
_TEXT	ENDS
;	COMDAT ??Dconst_iterator@?$_Tree@V?$_Tmap_traits@KPAUtagTAUCTION@@U?$less@K@std@@V?$allocator@U?$pair@$$CBKPAUtagTAUCTION@@@std@@@3@$0A@@std@@@std@@QBEABU?$pair@$$CBKPAUtagTAUCTION@@@2@XZ
_TEXT	SEGMENT PARA USE32 PUBLIC 'CODE'
_TEXT	ENDS
;	COMDAT ?_Mynode@const_iterator@?$_Tree@V?$_Tmap_traits@KPAUtagTAUCTION@@U?$less@K@std@@V?$allocator@U?$pair@$$CBKPAUtagTAUCTION@@@std@@@3@$0A@@std@@@std@@QBEPAU_Node@?$_Tree_nod@V?$_Tmap_traits@KPAUtagTAUCTION@@U?$less@K@std@@V?$allocator@U?$pair@$$CBKPAUtagTAUCTION@@@std@@@3@$0A@@std@@@3@XZ
_TEXT	SEGMENT PARA USE32 PUBLIC 'CODE'
_TEXT	ENDS
;	COMDAT ??0iterator@?$_Tree@V?$_Tmap_traits@GPAUtagTITEM@@U?$less@G@std@@V?$allocator@U?$pair@$$CBGPAUtagTITEM@@@std@@@3@$0A@@std@@@std@@QAE@PAU_Node@?$_Tree_nod@V?$_Tmap_traits@GPAUtagTITEM@@U?$less@G@std@@V?$allocator@U?$pair@$$CBGPAUtagTITEM@@@std@@@3@$0A@@std@@@2@@Z
_TEXT	SEGMENT PARA USE32 PUBLIC 'CODE'
_TEXT	ENDS
;	COMDAT ??Dconst_iterator@?$_Tree@V?$_Tmap_traits@GPAUtagTITEM@@U?$less@G@std@@V?$allocator@U?$pair@$$CBGPAUtagTITEM@@@std@@@3@$0A@@std@@@std@@QBEABU?$pair@$$CBGPAUtagTITEM@@@2@XZ
_TEXT	SEGMENT PARA USE32 PUBLIC 'CODE'
_TEXT	ENDS
;	COMDAT ??8const_iterator@?$_Tree@V?$_Tmap_traits@GPAUtagTITEM@@U?$less@G@std@@V?$allocator@U?$pair@$$CBGPAUtagTITEM@@@std@@@3@$0A@@std@@@std@@QBE_NABV012@@Z
_TEXT	SEGMENT PARA USE32 PUBLIC 'CODE'
_TEXT	ENDS
;	COMDAT ?_Mynode@const_iterator@?$_Tree@V?$_Tmap_traits@GPAUtagTITEM@@U?$less@G@std@@V?$allocator@U?$pair@$$CBGPAUtagTITEM@@@std@@@3@$0A@@std@@@std@@QBEPAU_Node@?$_Tree_nod@V?$_Tmap_traits@GPAUtagTITEM@@U?$less@G@std@@V?$allocator@U?$pair@$$CBGPAUtagTITEM@@@std@@@3@$0A@@std@@@3@XZ
_TEXT	SEGMENT PARA USE32 PUBLIC 'CODE'
_TEXT	ENDS
;	COMDAT ??0iterator@?$_Tree@V?$_Tmap_traits@GPAVCTSkillTemp@@U?$less@G@std@@V?$allocator@U?$pair@$$CBGPAVCTSkillTemp@@@std@@@3@$0A@@std@@@std@@QAE@PAU_Node@?$_Tree_nod@V?$_Tmap_traits@GPAVCTSkillTemp@@U?$less@G@std@@V?$allocator@U?$pair@$$CBGPAVCTSkillTemp@@@std@@@3@$0A@@std@@@2@@Z
_TEXT	SEGMENT PARA USE32 PUBLIC 'CODE'
_TEXT	ENDS
;	COMDAT ??Dconst_iterator@?$_Tree@V?$_Tmap_traits@GPAVCTSkillTemp@@U?$less@G@std@@V?$allocator@U?$pair@$$CBGPAVCTSkillTemp@@@std@@@3@$0A@@std@@@std@@QBEABU?$pair@$$CBGPAVCTSkillTemp@@@2@XZ
_TEXT	SEGMENT PARA USE32 PUBLIC 'CODE'
_TEXT	ENDS
;	COMDAT ??8const_iterator@?$_Tree@V?$_Tmap_traits@GPAVCTSkillTemp@@U?$less@G@std@@V?$allocator@U?$pair@$$CBGPAVCTSkillTemp@@@std@@@3@$0A@@std@@@std@@QBE_NABV012@@Z
_TEXT	SEGMENT PARA USE32 PUBLIC 'CODE'
_TEXT	ENDS
;	COMDAT ?_Mynode@const_iterator@?$_Tree@V?$_Tmap_traits@GPAVCTSkillTemp@@U?$less@G@std@@V?$allocator@U?$pair@$$CBGPAVCTSkillTemp@@@std@@@3@$0A@@std@@@std@@QBEPAU_Node@?$_Tree_nod@V?$_Tmap_traits@GPAVCTSkillTemp@@U?$less@G@std@@V?$allocator@U?$pair@$$CBGPAVCTSkillTemp@@@std@@@3@$0A@@std@@@3@XZ
_TEXT	SEGMENT PARA USE32 PUBLIC 'CODE'
_TEXT	ENDS
;	COMDAT ??0?$pair@Viterator@?$_Tree@V?$_Tmap_traits@KPAUtagTAUCTION@@U?$less@K@std@@V?$allocator@U?$pair@$$CBKPAUtagTAUCTION@@@std@@@3@$0A@@std@@@std@@_N@std@@QAE@ABViterator@?$_Tree@V?$_Tmap_traits@KPAUtagTAUCTION@@U?$less@K@std@@V?$allocator@U?$pair@$$CBKPAUtagTAUCTION@@@std@@@3@$0A@@std@@@1@AB_N@Z
_TEXT	SEGMENT PARA USE32 PUBLIC 'CODE'
_TEXT	ENDS
;	COMDAT ??0?$pair@Viterator@?$_Tree@V?$_Tmap_traits@KPAV?$map@KPAUtagTAUCTION@@U?$less@K@std@@V?$allocator@U?$pair@$$CBKPAUtagTAUCTION@@@std@@@3@@std@@U?$less@K@2@V?$allocator@U?$pair@$$CBKPAV?$map@KPAUtagTAUCTION@@U?$less@K@std@@V?$allocator@U?$pair@$$CBKPAUtagTAUCTION@@@std@@@3@@std@@@std@@@2@$0A@@std@@@std@@_N@std@@QAE@ABViterator@?$_Tree@V?$_Tmap_traits@KPAV?$map@KPAUtagTAUCTION@@U?$less@K@std@@V?$allocator@U?$pair@$$CBKPAUtagTAUCTION@@@std@@@3@@std@@U?$less@K@2@V?$allocator@U?$pair@$$CBKPAV?$map@KPAUtagTAUCTION@@U?$less@K@std@@V?$allocator@U?$pair@$$CBKPAUtagTAUCTION@@@std@@@3@@std@@@std@@@2@$0A@@std@@@1@AB_N@Z
_TEXT	SEGMENT PARA USE32 PUBLIC 'CODE'
_TEXT	ENDS
;	COMDAT ??0iterator@?$_Tree@V?$_Tmap_traits@EPAUtagTMAGIC@@U?$less@E@std@@V?$allocator@U?$pair@$$CBEPAUtagTMAGIC@@@std@@@3@$0A@@std@@@std@@QAE@PAU_Node@?$_Tree_nod@V?$_Tmap_traits@EPAUtagTMAGIC@@U?$less@E@std@@V?$allocator@U?$pair@$$CBEPAUtagTMAGIC@@@std@@@3@$0A@@std@@@2@@Z
_TEXT	SEGMENT PARA USE32 PUBLIC 'CODE'
_TEXT	ENDS
;	COMDAT ?_Mynode@const_iterator@?$_Tree@V?$_Tmap_traits@EPAUtagTMAGIC@@U?$less@E@std@@V?$allocator@U?$pair@$$CBEPAUtagTMAGIC@@@std@@@3@$0A@@std@@@std@@QBEPAU_Node@?$_Tree_nod@V?$_Tmap_traits@EPAUtagTMAGIC@@U?$less@E@std@@V?$allocator@U?$pair@$$CBEPAUtagTMAGIC@@@std@@@3@$0A@@std@@@3@XZ
_TEXT	SEGMENT PARA USE32 PUBLIC 'CODE'
_TEXT	ENDS
;	COMDAT ??0iterator@?$_Tree@V?$_Tmap_traits@KKU?$less@K@std@@V?$allocator@U?$pair@$$CBKK@std@@@2@$0A@@std@@@std@@QAE@PAU_Node@?$_Tree_nod@V?$_Tmap_traits@KKU?$less@K@std@@V?$allocator@U?$pair@$$CBKK@std@@@2@$0A@@std@@@2@@Z
_TEXT	SEGMENT PARA USE32 PUBLIC 'CODE'
_TEXT	ENDS
;	COMDAT ??Fiterator@?$_Tree@V?$_Tmap_traits@KKU?$less@K@std@@V?$allocator@U?$pair@$$CBKK@std@@@2@$0A@@std@@@std@@QAEAAV012@XZ
_TEXT	SEGMENT PARA USE32 PUBLIC 'CODE'
_TEXT	ENDS
;	COMDAT ?_Mynode@const_iterator@?$_Tree@V?$_Tmap_traits@KKU?$less@K@std@@V?$allocator@U?$pair@$$CBKK@std@@@2@$0A@@std@@@std@@QBEPAU_Node@?$_Tree_nod@V?$_Tmap_traits@KKU?$less@K@std@@V?$allocator@U?$pair@$$CBKK@std@@@2@$0A@@std@@@3@XZ
_TEXT	SEGMENT PARA USE32 PUBLIC 'CODE'
_TEXT	ENDS
;	COMDAT ??0?$pair@Viterator@?$_Tree@V?$_Tmap_traits@KKU?$less@K@std@@V?$allocator@U?$pair@$$CBKK@std@@@2@$0A@@std@@@std@@_N@std@@QAE@ABViterator@?$_Tree@V?$_Tmap_traits@KKU?$less@K@std@@V?$allocator@U?$pair@$$CBKK@std@@@2@$0A@@std@@@1@AB_N@Z
_TEXT	SEGMENT PARA USE32 PUBLIC 'CODE'
_TEXT	ENDS
;	COMDAT ?capacity@?$vector@PAUtagTAUCTION@@V?$allocator@PAUtagTAUCTION@@@std@@@std@@QBEIXZ
_TEXT	SEGMENT PARA USE32 PUBLIC 'CODE'
_TEXT	ENDS
;	COMDAT ?size@?$vector@PAUtagTAUCTION@@V?$allocator@PAUtagTAUCTION@@@std@@@std@@QBEIXZ
_TEXT	SEGMENT PARA USE32 PUBLIC 'CODE'
_TEXT	ENDS
;	COMDAT ?insert@?$vector@PAUtagTAUCTION@@V?$allocator@PAUtagTAUCTION@@@std@@@std@@QAE?AViterator@12@V312@ABQAUtagTAUCTION@@@Z
_TEXT	SEGMENT PARA USE32 PUBLIC 'CODE'
_TEXT	ENDS
;	COMDAT ?_Ufill@?$vector@PAUtagTAUCTION@@V?$allocator@PAUtagTAUCTION@@@std@@@std@@IAEPAPAUtagTAUCTION@@PAPAU3@IABQAU3@@Z
_TEXT	SEGMENT PARA USE32 PUBLIC 'CODE'
_TEXT	ENDS
;	COMDAT ??0iterator@?$vector@PAUtagTAUCTION@@V?$allocator@PAUtagTAUCTION@@@std@@@std@@QAE@PAPAUtagTAUCTION@@@Z
_TEXT	SEGMENT PARA USE32 PUBLIC 'CODE'
_TEXT	ENDS
;	COMDAT ??0?$CStringT@DV?$StrTraitATL@DV?$ChTraitsCRT@D@ATL@@@ATL@@@ATL@@QAE@PBDHPAUIAtlStringMgr@1@@Z
_TEXT	SEGMENT PARA USE32 PUBLIC 'CODE'
_TEXT	ENDS
;	COMDAT ?_Color@?$_Tree@V?$_Tmap_traits@KKU?$less@K@std@@V?$allocator@U?$pair@$$CBKK@std@@@2@$0A@@std@@@std@@KAAADPAU_Node@?$_Tree_nod@V?$_Tmap_traits@KKU?$less@K@std@@V?$allocator@U?$pair@$$CBKK@std@@@2@$0A@@std@@@2@@Z
_TEXT	SEGMENT PARA USE32 PUBLIC 'CODE'
_TEXT	ENDS
;	COMDAT ?_Parent@?$_Tree@V?$_Tmap_traits@KKU?$less@K@std@@V?$allocator@U?$pair@$$CBKK@std@@@2@$0A@@std@@@std@@KAAAPAU_Node@?$_Tree_nod@V?$_Tmap_traits@KKU?$less@K@std@@V?$allocator@U?$pair@$$CBKK@std@@@2@$0A@@std@@@2@PAU342@@Z
_TEXT	SEGMENT PARA USE32 PUBLIC 'CODE'
_TEXT	ENDS
;	COMDAT ?_Myval@?$_Tree@V?$_Tmap_traits@KKU?$less@K@std@@V?$allocator@U?$pair@$$CBKK@std@@@2@$0A@@std@@@std@@KAAAU?$pair@$$CBKK@2@PAU_Node@?$_Tree_nod@V?$_Tmap_traits@KKU?$less@K@std@@V?$allocator@U?$pair@$$CBKK@std@@@2@$0A@@std@@@2@@Z
_TEXT	SEGMENT PARA USE32 PUBLIC 'CODE'
_TEXT	ENDS
;	COMDAT ?max_size@?$_Tree@V?$_Tmap_traits@KKU?$less@K@std@@V?$allocator@U?$pair@$$CBKK@std@@@2@$0A@@std@@@std@@QBEIXZ
_TEXT	SEGMENT PARA USE32 PUBLIC 'CODE'
_TEXT	ENDS
;	COMDAT ?_Lbound@?$_Tree@V?$_Tmap_traits@KKU?$less@K@std@@V?$allocator@U?$pair@$$CBKK@std@@@2@$0A@@std@@@std@@IBEPAU_Node@?$_Tree_nod@V?$_Tmap_traits@KKU?$less@K@std@@V?$allocator@U?$pair@$$CBKK@std@@@2@$0A@@std@@@2@ABK@Z
_TEXT	SEGMENT PARA USE32 PUBLIC 'CODE'
_TEXT	ENDS
;	COMDAT ?_Lmost@?$_Tree@V?$_Tmap_traits@KKU?$less@K@std@@V?$allocator@U?$pair@$$CBKK@std@@@2@$0A@@std@@@std@@IAEAAPAU_Node@?$_Tree_nod@V?$_Tmap_traits@KKU?$less@K@std@@V?$allocator@U?$pair@$$CBKK@std@@@2@$0A@@std@@@2@XZ
_TEXT	SEGMENT PARA USE32 PUBLIC 'CODE'
_TEXT	ENDS
;	COMDAT ?_Lrotate@?$_Tree@V?$_Tmap_traits@KKU?$less@K@std@@V?$allocator@U?$pair@$$CBKK@std@@@2@$0A@@std@@@std@@IAEXPAU_Node@?$_Tree_nod@V?$_Tmap_traits@KKU?$less@K@std@@V?$allocator@U?$pair@$$CBKK@std@@@2@$0A@@std@@@2@@Z
_TEXT	SEGMENT PARA USE32 PUBLIC 'CODE'
_TEXT	ENDS
;	COMDAT ?_Rmost@?$_Tree@V?$_Tmap_traits@KKU?$less@K@std@@V?$allocator@U?$pair@$$CBKK@std@@@2@$0A@@std@@@std@@IAEAAPAU_Node@?$_Tree_nod@V?$_Tmap_traits@KKU?$less@K@std@@V?$allocator@U?$pair@$$CBKK@std@@@2@$0A@@std@@@2@XZ
_TEXT	SEGMENT PARA USE32 PUBLIC 'CODE'
_TEXT	ENDS
;	COMDAT ?_Rrotate@?$_Tree@V?$_Tmap_traits@KKU?$less@K@std@@V?$allocator@U?$pair@$$CBKK@std@@@2@$0A@@std@@@std@@IAEXPAU_Node@?$_Tree_nod@V?$_Tmap_traits@KKU?$less@K@std@@V?$allocator@U?$pair@$$CBKK@std@@@2@$0A@@std@@@2@@Z
_TEXT	SEGMENT PARA USE32 PUBLIC 'CODE'
_TEXT	ENDS
;	COMDAT ?_Buynode@?$_Tree@V?$_Tmap_traits@KKU?$less@K@std@@V?$allocator@U?$pair@$$CBKK@std@@@2@$0A@@std@@@std@@IAEPAU_Node@?$_Tree_nod@V?$_Tmap_traits@KKU?$less@K@std@@V?$allocator@U?$pair@$$CBKK@std@@@2@$0A@@std@@@2@PAU342@00ABU?$pair@$$CBKK@2@D@Z
_TEXT	SEGMENT PARA USE32 PUBLIC 'CODE'
_TEXT	ENDS
;	COMDAT ?_Myval@?$_Tree@V?$_Tmap_traits@KPAVCTItem@@U?$less@K@std@@V?$allocator@U?$pair@$$CBKPAVCTItem@@@std@@@3@$0A@@std@@@std@@KAAAU?$pair@$$CBKPAVCTItem@@@2@PAU_Node@?$_Tree_nod@V?$_Tmap_traits@KPAVCTItem@@U?$less@K@std@@V?$allocator@U?$pair@$$CBKPAVCTItem@@@std@@@3@$0A@@std@@@2@@Z
_TEXT	SEGMENT PARA USE32 PUBLIC 'CODE'
_TEXT	ENDS
;	COMDAT ?_Lbound@?$_Tree@V?$_Tmap_traits@KPAVCTItem@@U?$less@K@std@@V?$allocator@U?$pair@$$CBKPAVCTItem@@@std@@@3@$0A@@std@@@std@@IBEPAU_Node@?$_Tree_nod@V?$_Tmap_traits@KPAVCTItem@@U?$less@K@std@@V?$allocator@U?$pair@$$CBKPAVCTItem@@@std@@@3@$0A@@std@@@2@ABK@Z
_TEXT	SEGMENT PARA USE32 PUBLIC 'CODE'
_TEXT	ENDS
;	COMDAT ?_Kfn@?$_Tmap_traits@KPAVCTItem@@U?$less@K@std@@V?$allocator@U?$pair@$$CBKPAVCTItem@@@std@@@3@$0A@@std@@SAABKABU?$pair@$$CBKPAVCTItem@@@2@@Z
_TEXT	SEGMENT PARA USE32 PUBLIC 'CODE'
_TEXT	ENDS
;	COMDAT ?_Myval@?$_Tree@V?$_Tmap_traits@EPAUtagTMAGIC@@U?$less@E@std@@V?$allocator@U?$pair@$$CBEPAUtagTMAGIC@@@std@@@3@$0A@@std@@@std@@KAAAU?$pair@$$CBEPAUtagTMAGIC@@@2@PAU_Node@?$_Tree_nod@V?$_Tmap_traits@EPAUtagTMAGIC@@U?$less@E@std@@V?$allocator@U?$pair@$$CBEPAUtagTMAGIC@@@std@@@3@$0A@@std@@@2@@Z
_TEXT	SEGMENT PARA USE32 PUBLIC 'CODE'
_TEXT	ENDS
;	COMDAT ?_Lbound@?$_Tree@V?$_Tmap_traits@EPAUtagTMAGIC@@U?$less@E@std@@V?$allocator@U?$pair@$$CBEPAUtagTMAGIC@@@std@@@3@$0A@@std@@@std@@IBEPAU_Node@?$_Tree_nod@V?$_Tmap_traits@EPAUtagTMAGIC@@U?$less@E@std@@V?$allocator@U?$pair@$$CBEPAUtagTMAGIC@@@std@@@3@$0A@@std@@@2@ABE@Z
_TEXT	SEGMENT PARA USE32 PUBLIC 'CODE'
_TEXT	ENDS
;	COMDAT ?_Kfn@?$_Tmap_traits@EPAUtagTMAGIC@@U?$less@E@std@@V?$allocator@U?$pair@$$CBEPAUtagTMAGIC@@@std@@@3@$0A@@std@@SAABEABU?$pair@$$CBEPAUtagTMAGIC@@@2@@Z
_TEXT	SEGMENT PARA USE32 PUBLIC 'CODE'
_TEXT	ENDS
;	COMDAT ?_Isnil@?$_Tree@V?$_Tmap_traits@GPAUtagTITEM@@U?$less@G@std@@V?$allocator@U?$pair@$$CBGPAUtagTITEM@@@std@@@3@$0A@@std@@@std@@KAAADPAU_Node@?$_Tree_nod@V?$_Tmap_traits@GPAUtagTITEM@@U?$less@G@std@@V?$allocator@U?$pair@$$CBGPAUtagTITEM@@@std@@@3@$0A@@std@@@2@@Z
_TEXT	SEGMENT PARA USE32 PUBLIC 'CODE'
_TEXT	ENDS
;	COMDAT ?_Left@?$_Tree@V?$_Tmap_traits@GPAUtagTITEM@@U?$less@G@std@@V?$allocator@U?$pair@$$CBGPAUtagTITEM@@@std@@@3@$0A@@std@@@std@@KAAAPAU_Node@?$_Tree_nod@V?$_Tmap_traits@GPAUtagTITEM@@U?$less@G@std@@V?$allocator@U?$pair@$$CBGPAUtagTITEM@@@std@@@3@$0A@@std@@@2@PAU342@@Z
_TEXT	SEGMENT PARA USE32 PUBLIC 'CODE'
_TEXT	ENDS
;	COMDAT ?_Parent@?$_Tree@V?$_Tmap_traits@GPAUtagTITEM@@U?$less@G@std@@V?$allocator@U?$pair@$$CBGPAUtagTITEM@@@std@@@3@$0A@@std@@@std@@KAAAPAU_Node@?$_Tree_nod@V?$_Tmap_traits@GPAUtagTITEM@@U?$less@G@std@@V?$allocator@U?$pair@$$CBGPAUtagTITEM@@@std@@@3@$0A@@std@@@2@PAU342@@Z
_TEXT	SEGMENT PARA USE32 PUBLIC 'CODE'
_TEXT	ENDS
;	COMDAT ?_Right@?$_Tree@V?$_Tmap_traits@GPAUtagTITEM@@U?$less@G@std@@V?$allocator@U?$pair@$$CBGPAUtagTITEM@@@std@@@3@$0A@@std@@@std@@KAAAPAU_Node@?$_Tree_nod@V?$_Tmap_traits@GPAUtagTITEM@@U?$less@G@std@@V?$allocator@U?$pair@$$CBGPAUtagTITEM@@@std@@@3@$0A@@std@@@2@PAU342@@Z
_TEXT	SEGMENT PARA USE32 PUBLIC 'CODE'
_TEXT	ENDS
;	COMDAT ?_Myval@?$_Tree@V?$_Tmap_traits@GPAUtagTITEM@@U?$less@G@std@@V?$allocator@U?$pair@$$CBGPAUtagTITEM@@@std@@@3@$0A@@std@@@std@@KAAAU?$pair@$$CBGPAUtagTITEM@@@2@PAU_Node@?$_Tree_nod@V?$_Tmap_traits@GPAUtagTITEM@@U?$less@G@std@@V?$allocator@U?$pair@$$CBGPAUtagTITEM@@@std@@@3@$0A@@std@@@2@@Z
_TEXT	SEGMENT PARA USE32 PUBLIC 'CODE'
_TEXT	ENDS
;	COMDAT ?begin@?$_Tree@V?$_Tmap_traits@GPAUtagTITEM@@U?$less@G@std@@V?$allocator@U?$pair@$$CBGPAUtagTITEM@@@std@@@3@$0A@@std@@@std@@QAE?AViterator@12@XZ
_TEXT	SEGMENT PARA USE32 PUBLIC 'CODE'
_TEXT	ENDS
;	COMDAT ?erase@?$_Tree@V?$_Tmap_traits@GPAUtagTITEM@@U?$less@G@std@@V?$allocator@U?$pair@$$CBGPAUtagTITEM@@@std@@@3@$0A@@std@@@std@@QAE?AViterator@12@V312@0@Z
_TEXT	SEGMENT PARA USE32 PUBLIC 'CODE'
_TEXT	ENDS
;	COMDAT ?_Init@?$_Tree@V?$_Tmap_traits@GPAUtagTITEM@@U?$less@G@std@@V?$allocator@U?$pair@$$CBGPAUtagTITEM@@@std@@@3@$0A@@std@@@std@@IAEXXZ
_TEXT	SEGMENT PARA USE32 PUBLIC 'CODE'
_TEXT	ENDS
;	COMDAT ?_Lbound@?$_Tree@V?$_Tmap_traits@GPAUtagTITEM@@U?$less@G@std@@V?$allocator@U?$pair@$$CBGPAUtagTITEM@@@std@@@3@$0A@@std@@@std@@IBEPAU_Node@?$_Tree_nod@V?$_Tmap_traits@GPAUtagTITEM@@U?$less@G@std@@V?$allocator@U?$pair@$$CBGPAUtagTITEM@@@std@@@3@$0A@@std@@@2@ABG@Z
_TEXT	SEGMENT PARA USE32 PUBLIC 'CODE'
_TEXT	ENDS
;	COMDAT ??0?$_Tree_val@V?$_Tmap_traits@GPAUtagTITEM@@U?$less@G@std@@V?$allocator@U?$pair@$$CBGPAUtagTITEM@@@std@@@3@$0A@@std@@@std@@IAE@ABU?$less@G@1@V?$allocator@U?$pair@$$CBGPAUtagTITEM@@@std@@@1@@Z
_TEXT	SEGMENT PARA USE32 PUBLIC 'CODE'
_TEXT	ENDS
;	COMDAT ?_Kfn@?$_Tmap_traits@GPAUtagTITEM@@U?$less@G@std@@V?$allocator@U?$pair@$$CBGPAUtagTITEM@@@std@@@3@$0A@@std@@SAABGABU?$pair@$$CBGPAUtagTITEM@@@2@@Z
_TEXT	SEGMENT PARA USE32 PUBLIC 'CODE'
_TEXT	ENDS
;	COMDAT ??0?$allocator@U?$pair@$$CBGPAUtagTITEM@@@std@@@std@@QAE@ABV01@@Z
_TEXT	SEGMENT PARA USE32 PUBLIC 'CODE'
_TEXT	ENDS
;	COMDAT ?deallocate@?$allocator@U_Node@?$_Tree_nod@V?$_Tmap_traits@GPAUtagTITEM@@U?$less@G@std@@V?$allocator@U?$pair@$$CBGPAUtagTITEM@@@std@@@3@$0A@@std@@@std@@@std@@QAEXPAU_Node@?$_Tree_nod@V?$_Tmap_traits@GPAUtagTITEM@@U?$less@G@std@@V?$allocator@U?$pair@$$CBGPAUtagTITEM@@@std@@@3@$0A@@std@@@2@I@Z
_TEXT	SEGMENT PARA USE32 PUBLIC 'CODE'
_TEXT	ENDS
;	COMDAT ?destroy@?$allocator@U_Node@?$_Tree_nod@V?$_Tmap_traits@GPAUtagTITEM@@U?$less@G@std@@V?$allocator@U?$pair@$$CBGPAUtagTITEM@@@std@@@3@$0A@@std@@@std@@@std@@QAEXPAU_Node@?$_Tree_nod@V?$_Tmap_traits@GPAUtagTITEM@@U?$less@G@std@@V?$allocator@U?$pair@$$CBGPAUtagTITEM@@@std@@@3@$0A@@std@@@2@@Z
_TEXT	SEGMENT PARA USE32 PUBLIC 'CODE'
_TEXT	ENDS
;	COMDAT ?destroy@?$allocator@PAU_Node@?$_Tree_nod@V?$_Tmap_traits@GPAUtagTITEM@@U?$less@G@std@@V?$allocator@U?$pair@$$CBGPAUtagTITEM@@@std@@@3@$0A@@std@@@std@@@std@@QAEXPAPAU_Node@?$_Tree_nod@V?$_Tmap_traits@GPAUtagTITEM@@U?$less@G@std@@V?$allocator@U?$pair@$$CBGPAUtagTITEM@@@std@@@3@$0A@@std@@@2@@Z
_TEXT	SEGMENT PARA USE32 PUBLIC 'CODE'
_TEXT	ENDS
;	COMDAT ?_Isnil@?$_Tree@V?$_Tmap_traits@GPAVCTSkillTemp@@U?$less@G@std@@V?$allocator@U?$pair@$$CBGPAVCTSkillTemp@@@std@@@3@$0A@@std@@@std@@KAAADPAU_Node@?$_Tree_nod@V?$_Tmap_traits@GPAVCTSkillTemp@@U?$less@G@std@@V?$allocator@U?$pair@$$CBGPAVCTSkillTemp@@@std@@@3@$0A@@std@@@2@@Z
_TEXT	SEGMENT PARA USE32 PUBLIC 'CODE'
_TEXT	ENDS
;	COMDAT ?_Left@?$_Tree@V?$_Tmap_traits@GPAVCTSkillTemp@@U?$less@G@std@@V?$allocator@U?$pair@$$CBGPAVCTSkillTemp@@@std@@@3@$0A@@std@@@std@@KAAAPAU_Node@?$_Tree_nod@V?$_Tmap_traits@GPAVCTSkillTemp@@U?$less@G@std@@V?$allocator@U?$pair@$$CBGPAVCTSkillTemp@@@std@@@3@$0A@@std@@@2@PAU342@@Z
_TEXT	SEGMENT PARA USE32 PUBLIC 'CODE'
_TEXT	ENDS
;	COMDAT ?_Parent@?$_Tree@V?$_Tmap_traits@GPAVCTSkillTemp@@U?$less@G@std@@V?$allocator@U?$pair@$$CBGPAVCTSkillTemp@@@std@@@3@$0A@@std@@@std@@KAAAPAU_Node@?$_Tree_nod@V?$_Tmap_traits@GPAVCTSkillTemp@@U?$less@G@std@@V?$allocator@U?$pair@$$CBGPAVCTSkillTemp@@@std@@@3@$0A@@std@@@2@PAU342@@Z
_TEXT	SEGMENT PARA USE32 PUBLIC 'CODE'
_TEXT	ENDS
;	COMDAT ?_Right@?$_Tree@V?$_Tmap_traits@GPAVCTSkillTemp@@U?$less@G@std@@V?$allocator@U?$pair@$$CBGPAVCTSkillTemp@@@std@@@3@$0A@@std@@@std@@KAAAPAU_Node@?$_Tree_nod@V?$_Tmap_traits@GPAVCTSkillTemp@@U?$less@G@std@@V?$allocator@U?$pair@$$CBGPAVCTSkillTemp@@@std@@@3@$0A@@std@@@2@PAU342@@Z
_TEXT	SEGMENT PARA USE32 PUBLIC 'CODE'
_TEXT	ENDS
;	COMDAT ?_Myval@?$_Tree@V?$_Tmap_traits@GPAVCTSkillTemp@@U?$less@G@std@@V?$allocator@U?$pair@$$CBGPAVCTSkillTemp@@@std@@@3@$0A@@std@@@std@@KAAAU?$pair@$$CBGPAVCTSkillTemp@@@2@PAU_Node@?$_Tree_nod@V?$_Tmap_traits@GPAVCTSkillTemp@@U?$less@G@std@@V?$allocator@U?$pair@$$CBGPAVCTSkillTemp@@@std@@@3@$0A@@std@@@2@@Z
_TEXT	SEGMENT PARA USE32 PUBLIC 'CODE'
_TEXT	ENDS
;	COMDAT ?begin@?$_Tree@V?$_Tmap_traits@GPAVCTSkillTemp@@U?$less@G@std@@V?$allocator@U?$pair@$$CBGPAVCTSkillTemp@@@std@@@3@$0A@@std@@@std@@QAE?AViterator@12@XZ
_TEXT	SEGMENT PARA USE32 PUBLIC 'CODE'
_TEXT	ENDS
;	COMDAT ?erase@?$_Tree@V?$_Tmap_traits@GPAVCTSkillTemp@@U?$less@G@std@@V?$allocator@U?$pair@$$CBGPAVCTSkillTemp@@@std@@@3@$0A@@std@@@std@@QAE?AViterator@12@V312@0@Z
_TEXT	SEGMENT PARA USE32 PUBLIC 'CODE'
_TEXT	ENDS
;	COMDAT ?_Init@?$_Tree@V?$_Tmap_traits@GPAVCTSkillTemp@@U?$less@G@std@@V?$allocator@U?$pair@$$CBGPAVCTSkillTemp@@@std@@@3@$0A@@std@@@std@@IAEXXZ
_TEXT	SEGMENT PARA USE32 PUBLIC 'CODE'
_TEXT	ENDS
;	COMDAT ?_Lbound@?$_Tree@V?$_Tmap_traits@GPAVCTSkillTemp@@U?$less@G@std@@V?$allocator@U?$pair@$$CBGPAVCTSkillTemp@@@std@@@3@$0A@@std@@@std@@IBEPAU_Node@?$_Tree_nod@V?$_Tmap_traits@GPAVCTSkillTemp@@U?$less@G@std@@V?$allocator@U?$pair@$$CBGPAVCTSkillTemp@@@std@@@3@$0A@@std@@@2@ABG@Z
_TEXT	SEGMENT PARA USE32 PUBLIC 'CODE'
_TEXT	ENDS
;	COMDAT ??0?$_Tree_val@V?$_Tmap_traits@GPAVCTSkillTemp@@U?$less@G@std@@V?$allocator@U?$pair@$$CBGPAVCTSkillTemp@@@std@@@3@$0A@@std@@@std@@IAE@ABU?$less@G@1@V?$allocator@U?$pair@$$CBGPAVCTSkillTemp@@@std@@@1@@Z
_TEXT	SEGMENT PARA USE32 PUBLIC 'CODE'
_TEXT	ENDS
;	COMDAT ?_Kfn@?$_Tmap_traits@GPAVCTSkillTemp@@U?$less@G@std@@V?$allocator@U?$pair@$$CBGPAVCTSkillTemp@@@std@@@3@$0A@@std@@SAABGABU?$pair@$$CBGPAVCTSkillTemp@@@2@@Z
_TEXT	SEGMENT PARA USE32 PUBLIC 'CODE'
_TEXT	ENDS
;	COMDAT ??0?$allocator@U?$pair@$$CBGPAVCTSkillTemp@@@std@@@std@@QAE@ABV01@@Z
_TEXT	SEGMENT PARA USE32 PUBLIC 'CODE'
_TEXT	ENDS
;	COMDAT ?deallocate@?$allocator@U_Node@?$_Tree_nod@V?$_Tmap_traits@GPAVCTSkillTemp@@U?$less@G@std@@V?$allocator@U?$pair@$$CBGPAVCTSkillTemp@@@std@@@3@$0A@@std@@@std@@@std@@QAEXPAU_Node@?$_Tree_nod@V?$_Tmap_traits@GPAVCTSkillTemp@@U?$less@G@std@@V?$allocator@U?$pair@$$CBGPAVCTSkillTemp@@@std@@@3@$0A@@std@@@2@I@Z
_TEXT	SEGMENT PARA USE32 PUBLIC 'CODE'
_TEXT	ENDS
;	COMDAT ?destroy@?$allocator@U_Node@?$_Tree_nod@V?$_Tmap_traits@GPAVCTSkillTemp@@U?$less@G@std@@V?$allocator@U?$pair@$$CBGPAVCTSkillTemp@@@std@@@3@$0A@@std@@@std@@@std@@QAEXPAU_Node@?$_Tree_nod@V?$_Tmap_traits@GPAVCTSkillTemp@@U?$less@G@std@@V?$allocator@U?$pair@$$CBGPAVCTSkillTemp@@@std@@@3@$0A@@std@@@2@@Z
_TEXT	SEGMENT PARA USE32 PUBLIC 'CODE'
_TEXT	ENDS
;	COMDAT ?destroy@?$allocator@PAU_Node@?$_Tree_nod@V?$_Tmap_traits@GPAVCTSkillTemp@@U?$less@G@std@@V?$allocator@U?$pair@$$CBGPAVCTSkillTemp@@@std@@@3@$0A@@std@@@std@@@std@@QAEXPAPAU_Node@?$_Tree_nod@V?$_Tmap_traits@GPAVCTSkillTemp@@U?$less@G@std@@V?$allocator@U?$pair@$$CBGPAVCTSkillTemp@@@std@@@3@$0A@@std@@@2@@Z
_TEXT	SEGMENT PARA USE32 PUBLIC 'CODE'
_TEXT	ENDS
;	COMDAT ?_Isnil@?$_Tree@V?$_Tmap_traits@GPAUtagMONSTERSHOP@@U?$less@G@std@@V?$allocator@U?$pair@$$CBGPAUtagMONSTERSHOP@@@std@@@3@$0A@@std@@@std@@KAAADPAU_Node@?$_Tree_nod@V?$_Tmap_traits@GPAUtagMONSTERSHOP@@U?$less@G@std@@V?$allocator@U?$pair@$$CBGPAUtagMONSTERSHOP@@@std@@@3@$0A@@std@@@2@@Z
_TEXT	SEGMENT PARA USE32 PUBLIC 'CODE'
_TEXT	ENDS
;	COMDAT ?_Left@?$_Tree@V?$_Tmap_traits@GPAUtagMONSTERSHOP@@U?$less@G@std@@V?$allocator@U?$pair@$$CBGPAUtagMONSTERSHOP@@@std@@@3@$0A@@std@@@std@@KAAAPAU_Node@?$_Tree_nod@V?$_Tmap_traits@GPAUtagMONSTERSHOP@@U?$less@G@std@@V?$allocator@U?$pair@$$CBGPAUtagMONSTERSHOP@@@std@@@3@$0A@@std@@@2@PAU342@@Z
_TEXT	SEGMENT PARA USE32 PUBLIC 'CODE'
_TEXT	ENDS
;	COMDAT ?_Parent@?$_Tree@V?$_Tmap_traits@GPAUtagMONSTERSHOP@@U?$less@G@std@@V?$allocator@U?$pair@$$CBGPAUtagMONSTERSHOP@@@std@@@3@$0A@@std@@@std@@KAAAPAU_Node@?$_Tree_nod@V?$_Tmap_traits@GPAUtagMONSTERSHOP@@U?$less@G@std@@V?$allocator@U?$pair@$$CBGPAUtagMONSTERSHOP@@@std@@@3@$0A@@std@@@2@PAU342@@Z
_TEXT	SEGMENT PARA USE32 PUBLIC 'CODE'
_TEXT	ENDS
;	COMDAT ?_Right@?$_Tree@V?$_Tmap_traits@GPAUtagMONSTERSHOP@@U?$less@G@std@@V?$allocator@U?$pair@$$CBGPAUtagMONSTERSHOP@@@std@@@3@$0A@@std@@@std@@KAAAPAU_Node@?$_Tree_nod@V?$_Tmap_traits@GPAUtagMONSTERSHOP@@U?$less@G@std@@V?$allocator@U?$pair@$$CBGPAUtagMONSTERSHOP@@@std@@@3@$0A@@std@@@2@PAU342@@Z
_TEXT	SEGMENT PARA USE32 PUBLIC 'CODE'
_TEXT	ENDS
;	COMDAT ?_Myval@?$_Tree@V?$_Tmap_traits@GPAUtagMONSTERSHOP@@U?$less@G@std@@V?$allocator@U?$pair@$$CBGPAUtagMONSTERSHOP@@@std@@@3@$0A@@std@@@std@@KAAAU?$pair@$$CBGPAUtagMONSTERSHOP@@@2@PAU_Node@?$_Tree_nod@V?$_Tmap_traits@GPAUtagMONSTERSHOP@@U?$less@G@std@@V?$allocator@U?$pair@$$CBGPAUtagMONSTERSHOP@@@std@@@3@$0A@@std@@@2@@Z
_TEXT	SEGMENT PARA USE32 PUBLIC 'CODE'
_TEXT	ENDS
;	COMDAT ?erase@?$_Tree@V?$_Tmap_traits@GPAUtagMONSTERSHOP@@U?$less@G@std@@V?$allocator@U?$pair@$$CBGPAUtagMONSTERSHOP@@@std@@@3@$0A@@std@@@std@@QAE?AViterator@12@V312@0@Z
_TEXT	SEGMENT PARA USE32 PUBLIC 'CODE'
_TEXT	ENDS
;	COMDAT ?_Init@?$_Tree@V?$_Tmap_traits@GPAUtagMONSTERSHOP@@U?$less@G@std@@V?$allocator@U?$pair@$$CBGPAUtagMONSTERSHOP@@@std@@@3@$0A@@std@@@std@@IAEXXZ
_TEXT	SEGMENT PARA USE32 PUBLIC 'CODE'
_TEXT	ENDS
;	COMDAT ?_Lbound@?$_Tree@V?$_Tmap_traits@GPAUtagMONSTERSHOP@@U?$less@G@std@@V?$allocator@U?$pair@$$CBGPAUtagMONSTERSHOP@@@std@@@3@$0A@@std@@@std@@IBEPAU_Node@?$_Tree_nod@V?$_Tmap_traits@GPAUtagMONSTERSHOP@@U?$less@G@std@@V?$allocator@U?$pair@$$CBGPAUtagMONSTERSHOP@@@std@@@3@$0A@@std@@@2@ABG@Z
_TEXT	SEGMENT PARA USE32 PUBLIC 'CODE'
_TEXT	ENDS
;	COMDAT ??0?$_Tree_val@V?$_Tmap_traits@GPAUtagMONSTERSHOP@@U?$less@G@std@@V?$allocator@U?$pair@$$CBGPAUtagMONSTERSHOP@@@std@@@3@$0A@@std@@@std@@IAE@ABU?$less@G@1@V?$allocator@U?$pair@$$CBGPAUtagMONSTERSHOP@@@std@@@1@@Z
_TEXT	SEGMENT PARA USE32 PUBLIC 'CODE'
_TEXT	ENDS
;	COMDAT ?_Kfn@?$_Tmap_traits@GPAUtagMONSTERSHOP@@U?$less@G@std@@V?$allocator@U?$pair@$$CBGPAUtagMONSTERSHOP@@@std@@@3@$0A@@std@@SAABGABU?$pair@$$CBGPAUtagMONSTERSHOP@@@2@@Z
_TEXT	SEGMENT PARA USE32 PUBLIC 'CODE'
_TEXT	ENDS
;	COMDAT ??0?$allocator@U?$pair@$$CBGPAUtagMONSTERSHOP@@@std@@@std@@QAE@ABV01@@Z
_TEXT	SEGMENT PARA USE32 PUBLIC 'CODE'
_TEXT	ENDS
;	COMDAT ?deallocate@?$allocator@U_Node@?$_Tree_nod@V?$_Tmap_traits@GPAUtagMONSTERSHOP@@U?$less@G@std@@V?$allocator@U?$pair@$$CBGPAUtagMONSTERSHOP@@@std@@@3@$0A@@std@@@std@@@std@@QAEXPAU_Node@?$_Tree_nod@V?$_Tmap_traits@GPAUtagMONSTERSHOP@@U?$less@G@std@@V?$allocator@U?$pair@$$CBGPAUtagMONSTERSHOP@@@std@@@3@$0A@@std@@@2@I@Z
_TEXT	SEGMENT PARA USE32 PUBLIC 'CODE'
_TEXT	ENDS
;	COMDAT ?destroy@?$allocator@U_Node@?$_Tree_nod@V?$_Tmap_traits@GPAUtagMONSTERSHOP@@U?$less@G@std@@V?$allocator@U?$pair@$$CBGPAUtagMONSTERSHOP@@@std@@@3@$0A@@std@@@std@@@std@@QAEXPAU_Node@?$_Tree_nod@V?$_Tmap_traits@GPAUtagMONSTERSHOP@@U?$less@G@std@@V?$allocator@U?$pair@$$CBGPAUtagMONSTERSHOP@@@std@@@3@$0A@@std@@@2@@Z
_TEXT	SEGMENT PARA USE32 PUBLIC 'CODE'
_TEXT	ENDS
;	COMDAT ?destroy@?$allocator@PAU_Node@?$_Tree_nod@V?$_Tmap_traits@GPAUtagMONSTERSHOP@@U?$less@G@std@@V?$allocator@U?$pair@$$CBGPAUtagMONSTERSHOP@@@std@@@3@$0A@@std@@@std@@@std@@QAEXPAPAU_Node@?$_Tree_nod@V?$_Tmap_traits@GPAUtagMONSTERSHOP@@U?$less@G@std@@V?$allocator@U?$pair@$$CBGPAUtagMONSTERSHOP@@@std@@@3@$0A@@std@@@2@@Z
_TEXT	SEGMENT PARA USE32 PUBLIC 'CODE'
_TEXT	ENDS
;	COMDAT ?_Myval@?$_Tree@V?$_Tmap_traits@KPAUtagTAUCTION@@U?$less@K@std@@V?$allocator@U?$pair@$$CBKPAUtagTAUCTION@@@std@@@3@$0A@@std@@@std@@KAAAU?$pair@$$CBKPAUtagTAUCTION@@@2@PAU_Node@?$_Tree_nod@V?$_Tmap_traits@KPAUtagTAUCTION@@U?$less@K@std@@V?$allocator@U?$pair@$$CBKPAUtagTAUCTION@@@std@@@3@$0A@@std@@@2@@Z
_TEXT	SEGMENT PARA USE32 PUBLIC 'CODE'
_TEXT	ENDS
;	COMDAT ?max_size@?$_Tree@V?$_Tmap_traits@KPAUtagTAUCTION@@U?$less@K@std@@V?$allocator@U?$pair@$$CBKPAUtagTAUCTION@@@std@@@3@$0A@@std@@@std@@QBEIXZ
_TEXT	SEGMENT PARA USE32 PUBLIC 'CODE'
_TEXT	ENDS
;	COMDAT ?erase@?$_Tree@V?$_Tmap_traits@KPAUtagTAUCTION@@U?$less@K@std@@V?$allocator@U?$pair@$$CBKPAUtagTAUCTION@@@std@@@3@$0A@@std@@@std@@QAE?AViterator@12@V312@0@Z
_TEXT	SEGMENT PARA USE32 PUBLIC 'CODE'
_TEXT	ENDS
;	COMDAT ?_Init@?$_Tree@V?$_Tmap_traits@KPAUtagTAUCTION@@U?$less@K@std@@V?$allocator@U?$pair@$$CBKPAUtagTAUCTION@@@std@@@3@$0A@@std@@@std@@IAEXXZ
_TEXT	SEGMENT PARA USE32 PUBLIC 'CODE'
_TEXT	ENDS
;	COMDAT ?_Lbound@?$_Tree@V?$_Tmap_traits@KPAUtagTAUCTION@@U?$less@K@std@@V?$allocator@U?$pair@$$CBKPAUtagTAUCTION@@@std@@@3@$0A@@std@@@std@@IBEPAU_Node@?$_Tree_nod@V?$_Tmap_traits@KPAUtagTAUCTION@@U?$less@K@std@@V?$allocator@U?$pair@$$CBKPAUtagTAUCTION@@@std@@@3@$0A@@std@@@2@ABK@Z
_TEXT	SEGMENT PARA USE32 PUBLIC 'CODE'
_TEXT	ENDS
;	COMDAT ?_Buynode@?$_Tree@V?$_Tmap_traits@KPAUtagTAUCTION@@U?$less@K@std@@V?$allocator@U?$pair@$$CBKPAUtagTAUCTION@@@std@@@3@$0A@@std@@@std@@IAEPAU_Node@?$_Tree_nod@V?$_Tmap_traits@KPAUtagTAUCTION@@U?$less@K@std@@V?$allocator@U?$pair@$$CBKPAUtagTAUCTION@@@std@@@3@$0A@@std@@@2@PAU342@00ABU?$pair@$$CBKPAUtagTAUCTION@@@2@D@Z
_TEXT	SEGMENT PARA USE32 PUBLIC 'CODE'
_TEXT	ENDS
;	COMDAT ??0?$_Tree_val@V?$_Tmap_traits@KPAUtagTAUCTION@@U?$less@K@std@@V?$allocator@U?$pair@$$CBKPAUtagTAUCTION@@@std@@@3@$0A@@std@@@std@@IAE@ABU?$less@K@1@V?$allocator@U?$pair@$$CBKPAUtagTAUCTION@@@std@@@1@@Z
_TEXT	SEGMENT PARA USE32 PUBLIC 'CODE'
_TEXT	ENDS
;	COMDAT ??0?$allocator@U?$pair@$$CBKPAUtagTAUCTION@@@std@@@std@@QAE@ABV01@@Z
_TEXT	SEGMENT PARA USE32 PUBLIC 'CODE'
_TEXT	ENDS
;	COMDAT ?destroy@?$allocator@PAU_Node@?$_Tree_nod@V?$_Tmap_traits@KPAUtagTAUCTION@@U?$less@K@std@@V?$allocator@U?$pair@$$CBKPAUtagTAUCTION@@@std@@@3@$0A@@std@@@std@@@std@@QAEXPAPAU_Node@?$_Tree_nod@V?$_Tmap_traits@KPAUtagTAUCTION@@U?$less@K@std@@V?$allocator@U?$pair@$$CBKPAUtagTAUCTION@@@std@@@3@$0A@@std@@@2@@Z
_TEXT	SEGMENT PARA USE32 PUBLIC 'CODE'
_TEXT	ENDS
;	COMDAT ?_Color@?$_Tree@V?$_Tmap_traits@KPAV?$map@KPAUtagTAUCTION@@U?$less@K@std@@V?$allocator@U?$pair@$$CBKPAUtagTAUCTION@@@std@@@3@@std@@U?$less@K@2@V?$allocator@U?$pair@$$CBKPAV?$map@KPAUtagTAUCTION@@U?$less@K@std@@V?$allocator@U?$pair@$$CBKPAUtagTAUCTION@@@std@@@3@@std@@@std@@@2@$0A@@std@@@std@@KAAADPAU_Node@?$_Tree_nod@V?$_Tmap_traits@KPAV?$map@KPAUtagTAUCTION@@U?$less@K@std@@V?$allocator@U?$pair@$$CBKPAUtagTAUCTION@@@std@@@3@@std@@U?$less@K@2@V?$allocator@U?$pair@$$CBKPAV?$map@KPAUtagTAUCTION@@U?$less@K@std@@V?$allocator@U?$pair@$$CBKPAUtagTAUCTION@@@std@@@3@@std@@@std@@@2@$0A@@std@@@2@@Z
_TEXT	SEGMENT PARA USE32 PUBLIC 'CODE'
_TEXT	ENDS
;	COMDAT ?_Parent@?$_Tree@V?$_Tmap_traits@KPAV?$map@KPAUtagTAUCTION@@U?$less@K@std@@V?$allocator@U?$pair@$$CBKPAUtagTAUCTION@@@std@@@3@@std@@U?$less@K@2@V?$allocator@U?$pair@$$CBKPAV?$map@KPAUtagTAUCTION@@U?$less@K@std@@V?$allocator@U?$pair@$$CBKPAUtagTAUCTION@@@std@@@3@@std@@@std@@@2@$0A@@std@@@std@@KAAAPAU_Node@?$_Tree_nod@V?$_Tmap_traits@KPAV?$map@KPAUtagTAUCTION@@U?$less@K@std@@V?$allocator@U?$pair@$$CBKPAUtagTAUCTION@@@std@@@3@@std@@U?$less@K@2@V?$allocator@U?$pair@$$CBKPAV?$map@KPAUtagTAUCTION@@U?$less@K@std@@V?$allocator@U?$pair@$$CBKPAUtagTAUCTION@@@std@@@3@@std@@@std@@@2@$0A@@std@@@2@PAU342@@Z
_TEXT	SEGMENT PARA USE32 PUBLIC 'CODE'
_TEXT	ENDS
;	COMDAT ?_Myval@?$_Tree@V?$_Tmap_traits@KPAV?$map@KPAUtagTAUCTION@@U?$less@K@std@@V?$allocator@U?$pair@$$CBKPAUtagTAUCTION@@@std@@@3@@std@@U?$less@K@2@V?$allocator@U?$pair@$$CBKPAV?$map@KPAUtagTAUCTION@@U?$less@K@std@@V?$allocator@U?$pair@$$CBKPAUtagTAUCTION@@@std@@@3@@std@@@std@@@2@$0A@@std@@@std@@KAAAU?$pair@$$CBKPAV?$map@KPAUtagTAUCTION@@U?$less@K@std@@V?$allocator@U?$pair@$$CBKPAUtagTAUCTION@@@std@@@3@@std@@@2@PAU_Node@?$_Tree_nod@V?$_Tmap_traits@KPAV?$map@KPAUtagTAUCTION@@U?$less@K@std@@V?$allocator@U?$pair@$$CBKPAUtagTAUCTION@@@std@@@3@@std@@U?$less@K@2@V?$allocator@U?$pair@$$CBKPAV?$map@KPAUtagTAUCTION@@U?$less@K@std@@V?$allocator@U?$pair@$$CBKPAUtagTAUCTION@@@std@@@3@@std@@@std@@@2@$0A@@std@@@2@@Z
_TEXT	SEGMENT PARA USE32 PUBLIC 'CODE'
_TEXT	ENDS
;	COMDAT ?max_size@?$_Tree@V?$_Tmap_traits@KPAV?$map@KPAUtagTAUCTION@@U?$less@K@std@@V?$allocator@U?$pair@$$CBKPAUtagTAUCTION@@@std@@@3@@std@@U?$less@K@2@V?$allocator@U?$pair@$$CBKPAV?$map@KPAUtagTAUCTION@@U?$less@K@std@@V?$allocator@U?$pair@$$CBKPAUtagTAUCTION@@@std@@@3@@std@@@std@@@2@$0A@@std@@@std@@QBEIXZ
_TEXT	SEGMENT PARA USE32 PUBLIC 'CODE'
_TEXT	ENDS
;	COMDAT ?erase@?$_Tree@V?$_Tmap_traits@KPAV?$map@KPAUtagTAUCTION@@U?$less@K@std@@V?$allocator@U?$pair@$$CBKPAUtagTAUCTION@@@std@@@3@@std@@U?$less@K@2@V?$allocator@U?$pair@$$CBKPAV?$map@KPAUtagTAUCTION@@U?$less@K@std@@V?$allocator@U?$pair@$$CBKPAUtagTAUCTION@@@std@@@3@@std@@@std@@@2@$0A@@std@@@std@@QAE?AViterator@12@V312@0@Z
_TEXT	SEGMENT PARA USE32 PUBLIC 'CODE'
_TEXT	ENDS
;	COMDAT ?_Init@?$_Tree@V?$_Tmap_traits@KPAV?$map@KPAUtagTAUCTION@@U?$less@K@std@@V?$allocator@U?$pair@$$CBKPAUtagTAUCTION@@@std@@@3@@std@@U?$less@K@2@V?$allocator@U?$pair@$$CBKPAV?$map@KPAUtagTAUCTION@@U?$less@K@std@@V?$allocator@U?$pair@$$CBKPAUtagTAUCTION@@@std@@@3@@std@@@std@@@2@$0A@@std@@@std@@IAEXXZ
_TEXT	SEGMENT PARA USE32 PUBLIC 'CODE'
_TEXT	ENDS
;	COMDAT ?_Lbound@?$_Tree@V?$_Tmap_traits@KPAV?$map@KPAUtagTAUCTION@@U?$less@K@std@@V?$allocator@U?$pair@$$CBKPAUtagTAUCTION@@@std@@@3@@std@@U?$less@K@2@V?$allocator@U?$pair@$$CBKPAV?$map@KPAUtagTAUCTION@@U?$less@K@std@@V?$allocator@U?$pair@$$CBKPAUtagTAUCTION@@@std@@@3@@std@@@std@@@2@$0A@@std@@@std@@IBEPAU_Node@?$_Tree_nod@V?$_Tmap_traits@KPAV?$map@KPAUtagTAUCTION@@U?$less@K@std@@V?$allocator@U?$pair@$$CBKPAUtagTAUCTION@@@std@@@3@@std@@U?$less@K@2@V?$allocator@U?$pair@$$CBKPAV?$map@KPAUtagTAUCTION@@U?$less@K@std@@V?$allocator@U?$pair@$$CBKPAUtagTAUCTION@@@std@@@3@@std@@@std@@@2@$0A@@std@@@2@ABK@Z
_TEXT	SEGMENT PARA USE32 PUBLIC 'CODE'
_TEXT	ENDS
;	COMDAT ?_Lrotate@?$_Tree@V?$_Tmap_traits@KPAV?$map@KPAUtagTAUCTION@@U?$less@K@std@@V?$allocator@U?$pair@$$CBKPAUtagTAUCTION@@@std@@@3@@std@@U?$less@K@2@V?$allocator@U?$pair@$$CBKPAV?$map@KPAUtagTAUCTION@@U?$less@K@std@@V?$allocator@U?$pair@$$CBKPAUtagTAUCTION@@@std@@@3@@std@@@std@@@2@$0A@@std@@@std@@IAEXPAU_Node@?$_Tree_nod@V?$_Tmap_traits@KPAV?$map@KPAUtagTAUCTION@@U?$less@K@std@@V?$allocator@U?$pair@$$CBKPAUtagTAUCTION@@@std@@@3@@std@@U?$less@K@2@V?$allocator@U?$pair@$$CBKPAV?$map@KPAUtagTAUCTION@@U?$less@K@std@@V?$allocator@U?$pair@$$CBKPAUtagTAUCTION@@@std@@@3@@std@@@std@@@2@$0A@@std@@@2@@Z
_TEXT	SEGMENT PARA USE32 PUBLIC 'CODE'
_TEXT	ENDS
;	COMDAT ?_Rrotate@?$_Tree@V?$_Tmap_traits@KPAV?$map@KPAUtagTAUCTION@@U?$less@K@std@@V?$allocator@U?$pair@$$CBKPAUtagTAUCTION@@@std@@@3@@std@@U?$less@K@2@V?$allocator@U?$pair@$$CBKPAV?$map@KPAUtagTAUCTION@@U?$less@K@std@@V?$allocator@U?$pair@$$CBKPAUtagTAUCTION@@@std@@@3@@std@@@std@@@2@$0A@@std@@@std@@IAEXPAU_Node@?$_Tree_nod@V?$_Tmap_traits@KPAV?$map@KPAUtagTAUCTION@@U?$less@K@std@@V?$allocator@U?$pair@$$CBKPAUtagTAUCTION@@@std@@@3@@std@@U?$less@K@2@V?$allocator@U?$pair@$$CBKPAV?$map@KPAUtagTAUCTION@@U?$less@K@std@@V?$allocator@U?$pair@$$CBKPAUtagTAUCTION@@@std@@@3@@std@@@std@@@2@$0A@@std@@@2@@Z
_TEXT	SEGMENT PARA USE32 PUBLIC 'CODE'
_TEXT	ENDS
;	COMDAT ?_Buynode@?$_Tree@V?$_Tmap_traits@KPAV?$map@KPAUtagTAUCTION@@U?$less@K@std@@V?$allocator@U?$pair@$$CBKPAUtagTAUCTION@@@std@@@3@@std@@U?$less@K@2@V?$allocator@U?$pair@$$CBKPAV?$map@KPAUtagTAUCTION@@U?$less@K@std@@V?$allocator@U?$pair@$$CBKPAUtagTAUCTION@@@std@@@3@@std@@@std@@@2@$0A@@std@@@std@@IAEPAU_Node@?$_Tree_nod@V?$_Tmap_traits@KPAV?$map@KPAUtagTAUCTION@@U?$less@K@std@@V?$allocator@U?$pair@$$CBKPAUtagTAUCTION@@@std@@@3@@std@@U?$less@K@2@V?$allocator@U?$pair@$$CBKPAV?$map@KPAUtagTAUCTION@@U?$less@K@std@@V?$allocator@U?$pair@$$CBKPAUtagTAUCTION@@@std@@@3@@std@@@std@@@2@$0A@@std@@@2@PAU342@00ABU?$pair@$$CBKPAV?$map@KPAUtagTAUCTION@@U?$less@K@std@@V?$allocator@U?$pair@$$CBKPAUtagTAUCTION@@@std@@@3@@std@@@2@D@Z
_TEXT	SEGMENT PARA USE32 PUBLIC 'CODE'
_TEXT	ENDS
;	COMDAT ??0?$_Tree_val@V?$_Tmap_traits@KPAV?$map@KPAUtagTAUCTION@@U?$less@K@std@@V?$allocator@U?$pair@$$CBKPAUtagTAUCTION@@@std@@@3@@std@@U?$less@K@2@V?$allocator@U?$pair@$$CBKPAV?$map@KPAUtagTAUCTION@@U?$less@K@std@@V?$allocator@U?$pair@$$CBKPAUtagTAUCTION@@@std@@@3@@std@@@std@@@2@$0A@@std@@@std@@IAE@ABU?$less@K@1@V?$allocator@U?$pair@$$CBKPAV?$map@KPAUtagTAUCTION@@U?$less@K@std@@V?$allocator@U?$pair@$$CBKPAUtagTAUCTION@@@std@@@3@@std@@@std@@@1@@Z
_TEXT	SEGMENT PARA USE32 PUBLIC 'CODE'
_TEXT	ENDS
;	COMDAT ??0?$allocator@U?$pair@$$CBKPAV?$map@KPAUtagTAUCTION@@U?$less@K@std@@V?$allocator@U?$pair@$$CBKPAUtagTAUCTION@@@std@@@3@@std@@@std@@@std@@QAE@ABV01@@Z
_TEXT	SEGMENT PARA USE32 PUBLIC 'CODE'
_TEXT	ENDS
;	COMDAT ?deallocate@?$allocator@U_Node@?$_Tree_nod@V?$_Tmap_traits@KPAV?$map@KPAUtagTAUCTION@@U?$less@K@std@@V?$allocator@U?$pair@$$CBKPAUtagTAUCTION@@@std@@@3@@std@@U?$less@K@2@V?$allocator@U?$pair@$$CBKPAV?$map@KPAUtagTAUCTION@@U?$less@K@std@@V?$allocator@U?$pair@$$CBKPAUtagTAUCTION@@@std@@@3@@std@@@std@@@2@$0A@@std@@@std@@@std@@QAEXPAU_Node@?$_Tree_nod@V?$_Tmap_traits@KPAV?$map@KPAUtagTAUCTION@@U?$less@K@std@@V?$allocator@U?$pair@$$CBKPAUtagTAUCTION@@@std@@@3@@std@@U?$less@K@2@V?$allocator@U?$pair@$$CBKPAV?$map@KPAUtagTAUCTION@@U?$less@K@std@@V?$allocator@U?$pair@$$CBKPAUtagTAUCTION@@@std@@@3@@std@@@std@@@2@$0A@@std@@@2@I@Z
_TEXT	SEGMENT PARA USE32 PUBLIC 'CODE'
_TEXT	ENDS
;	COMDAT ?destroy@?$allocator@U_Node@?$_Tree_nod@V?$_Tmap_traits@KPAV?$map@KPAUtagTAUCTION@@U?$less@K@std@@V?$allocator@U?$pair@$$CBKPAUtagTAUCTION@@@std@@@3@@std@@U?$less@K@2@V?$allocator@U?$pair@$$CBKPAV?$map@KPAUtagTAUCTION@@U?$less@K@std@@V?$allocator@U?$pair@$$CBKPAUtagTAUCTION@@@std@@@3@@std@@@std@@@2@$0A@@std@@@std@@@std@@QAEXPAU_Node@?$_Tree_nod@V?$_Tmap_traits@KPAV?$map@KPAUtagTAUCTION@@U?$less@K@std@@V?$allocator@U?$pair@$$CBKPAUtagTAUCTION@@@std@@@3@@std@@U?$less@K@2@V?$allocator@U?$pair@$$CBKPAV?$map@KPAUtagTAUCTION@@U?$less@K@std@@V?$allocator@U?$pair@$$CBKPAUtagTAUCTION@@@std@@@3@@std@@@std@@@2@$0A@@std@@@2@@Z
_TEXT	SEGMENT PARA USE32 PUBLIC 'CODE'
_TEXT	ENDS
;	COMDAT ?destroy@?$allocator@PAU_Node@?$_Tree_nod@V?$_Tmap_traits@KPAV?$map@KPAUtagTAUCTION@@U?$less@K@std@@V?$allocator@U?$pair@$$CBKPAUtagTAUCTION@@@std@@@3@@std@@U?$less@K@2@V?$allocator@U?$pair@$$CBKPAV?$map@KPAUtagTAUCTION@@U?$less@K@std@@V?$allocator@U?$pair@$$CBKPAUtagTAUCTION@@@std@@@3@@std@@@std@@@2@$0A@@std@@@std@@@std@@QAEXPAPAU_Node@?$_Tree_nod@V?$_Tmap_traits@KPAV?$map@KPAUtagTAUCTION@@U?$less@K@std@@V?$allocator@U?$pair@$$CBKPAUtagTAUCTION@@@std@@@3@@std@@U?$less@K@2@V?$allocator@U?$pair@$$CBKPAV?$map@KPAUtagTAUCTION@@U?$less@K@std@@V?$allocator@U?$pair@$$CBKPAUtagTAUCTION@@@std@@@3@@std@@@std@@@2@$0A@@std@@@2@@Z
_TEXT	SEGMENT PARA USE32 PUBLIC 'CODE'
_TEXT	ENDS
;	COMDAT ??0const_iterator@?$_Tree@V?$_Tmap_traits@GPAUtagMONSTERSHOP@@U?$less@G@std@@V?$allocator@U?$pair@$$CBGPAUtagMONSTERSHOP@@@std@@@3@$0A@@std@@@std@@QAE@PAU_Node@?$_Tree_nod@V?$_Tmap_traits@GPAUtagMONSTERSHOP@@U?$less@G@std@@V?$allocator@U?$pair@$$CBGPAUtagMONSTERSHOP@@@std@@@3@$0A@@std@@@2@@Z
_TEXT	SEGMENT PARA USE32 PUBLIC 'CODE'
_TEXT	ENDS
;	COMDAT ??Econst_iterator@?$_Tree@V?$_Tmap_traits@GPAUtagMONSTERSHOP@@U?$less@G@std@@V?$allocator@U?$pair@$$CBGPAUtagMONSTERSHOP@@@std@@@3@$0A@@std@@@std@@QAEAAV012@XZ
_TEXT	SEGMENT PARA USE32 PUBLIC 'CODE'
_TEXT	ENDS
;	COMDAT ??0const_iterator@?$_Tree@V?$_Tmap_traits@KPAV?$map@KPAUtagTAUCTION@@U?$less@K@std@@V?$allocator@U?$pair@$$CBKPAUtagTAUCTION@@@std@@@3@@std@@U?$less@K@2@V?$allocator@U?$pair@$$CBKPAV?$map@KPAUtagTAUCTION@@U?$less@K@std@@V?$allocator@U?$pair@$$CBKPAUtagTAUCTION@@@std@@@3@@std@@@std@@@2@$0A@@std@@@std@@QAE@PAU_Node@?$_Tree_nod@V?$_Tmap_traits@KPAV?$map@KPAUtagTAUCTION@@U?$less@K@std@@V?$allocator@U?$pair@$$CBKPAUtagTAUCTION@@@std@@@3@@std@@U?$less@K@2@V?$allocator@U?$pair@$$CBKPAV?$map@KPAUtagTAUCTION@@U?$less@K@std@@V?$allocator@U?$pair@$$CBKPAUtagTAUCTION@@@std@@@3@@std@@@std@@@2@$0A@@std@@@2@@Z
_TEXT	SEGMENT PARA USE32 PUBLIC 'CODE'
_TEXT	ENDS
;	COMDAT ??Econst_iterator@?$_Tree@V?$_Tmap_traits@KPAV?$map@KPAUtagTAUCTION@@U?$less@K@std@@V?$allocator@U?$pair@$$CBKPAUtagTAUCTION@@@std@@@3@@std@@U?$less@K@2@V?$allocator@U?$pair@$$CBKPAV?$map@KPAUtagTAUCTION@@U?$less@K@std@@V?$allocator@U?$pair@$$CBKPAUtagTAUCTION@@@std@@@3@@std@@@std@@@2@$0A@@std@@@std@@QAEAAV012@XZ
_TEXT	SEGMENT PARA USE32 PUBLIC 'CODE'
_TEXT	ENDS
;	COMDAT ??Fconst_iterator@?$_Tree@V?$_Tmap_traits@KPAV?$map@KPAUtagTAUCTION@@U?$less@K@std@@V?$allocator@U?$pair@$$CBKPAUtagTAUCTION@@@std@@@3@@std@@U?$less@K@2@V?$allocator@U?$pair@$$CBKPAV?$map@KPAUtagTAUCTION@@U?$less@K@std@@V?$allocator@U?$pair@$$CBKPAUtagTAUCTION@@@std@@@3@@std@@@std@@@2@$0A@@std@@@std@@QAEAAV012@XZ
_TEXT	SEGMENT PARA USE32 PUBLIC 'CODE'
_TEXT	ENDS
;	COMDAT ??0const_iterator@?$_Tree@V?$_Tmap_traits@KPAUtagTAUCTION@@U?$less@K@std@@V?$allocator@U?$pair@$$CBKPAUtagTAUCTION@@@std@@@3@$0A@@std@@@std@@QAE@PAU_Node@?$_Tree_nod@V?$_Tmap_traits@KPAUtagTAUCTION@@U?$less@K@std@@V?$allocator@U?$pair@$$CBKPAUtagTAUCTION@@@std@@@3@$0A@@std@@@2@@Z
_TEXT	SEGMENT PARA USE32 PUBLIC 'CODE'
_TEXT	ENDS
;	COMDAT ??Econst_iterator@?$_Tree@V?$_Tmap_traits@KPAUtagTAUCTION@@U?$less@K@std@@V?$allocator@U?$pair@$$CBKPAUtagTAUCTION@@@std@@@3@$0A@@std@@@std@@QAEAAV012@XZ
_TEXT	SEGMENT PARA USE32 PUBLIC 'CODE'
_TEXT	ENDS
;	COMDAT ??Fconst_iterator@?$_Tree@V?$_Tmap_traits@KPAUtagTAUCTION@@U?$less@K@std@@V?$allocator@U?$pair@$$CBKPAUtagTAUCTION@@@std@@@3@$0A@@std@@@std@@QAEAAV012@XZ
_TEXT	SEGMENT PARA USE32 PUBLIC 'CODE'
_TEXT	ENDS
;	COMDAT ??0const_iterator@?$_Tree@V?$_Tmap_traits@GPAUtagTITEM@@U?$less@G@std@@V?$allocator@U?$pair@$$CBGPAUtagTITEM@@@std@@@3@$0A@@std@@@std@@QAE@PAU_Node@?$_Tree_nod@V?$_Tmap_traits@GPAUtagTITEM@@U?$less@G@std@@V?$allocator@U?$pair@$$CBGPAUtagTITEM@@@std@@@3@$0A@@std@@@2@@Z
_TEXT	SEGMENT PARA USE32 PUBLIC 'CODE'
_TEXT	ENDS
;	COMDAT ??0const_iterator@?$_Tree@V?$_Tmap_traits@GPAVCTSkillTemp@@U?$less@G@std@@V?$allocator@U?$pair@$$CBGPAVCTSkillTemp@@@std@@@3@$0A@@std@@@std@@QAE@PAU_Node@?$_Tree_nod@V?$_Tmap_traits@GPAVCTSkillTemp@@U?$less@G@std@@V?$allocator@U?$pair@$$CBGPAVCTSkillTemp@@@std@@@3@$0A@@std@@@2@@Z
_TEXT	SEGMENT PARA USE32 PUBLIC 'CODE'
_TEXT	ENDS
;	COMDAT ??0const_iterator@?$_Tree@V?$_Tmap_traits@EPAUtagTMAGIC@@U?$less@E@std@@V?$allocator@U?$pair@$$CBEPAUtagTMAGIC@@@std@@@3@$0A@@std@@@std@@QAE@PAU_Node@?$_Tree_nod@V?$_Tmap_traits@EPAUtagTMAGIC@@U?$less@E@std@@V?$allocator@U?$pair@$$CBEPAUtagTMAGIC@@@std@@@3@$0A@@std@@@2@@Z
_TEXT	SEGMENT PARA USE32 PUBLIC 'CODE'
_TEXT	ENDS
;	COMDAT ??0const_iterator@?$_Tree@V?$_Tmap_traits@KKU?$less@K@std@@V?$allocator@U?$pair@$$CBKK@std@@@2@$0A@@std@@@std@@QAE@PAU_Node@?$_Tree_nod@V?$_Tmap_traits@KKU?$less@K@std@@V?$allocator@U?$pair@$$CBKK@std@@@2@$0A@@std@@@2@@Z
_TEXT	SEGMENT PARA USE32 PUBLIC 'CODE'
_TEXT	ENDS
;	COMDAT ??Fconst_iterator@?$_Tree@V?$_Tmap_traits@KKU?$less@K@std@@V?$allocator@U?$pair@$$CBKK@std@@@2@$0A@@std@@@std@@QAEAAV012@XZ
_TEXT	SEGMENT PARA USE32 PUBLIC 'CODE'
_TEXT	ENDS
;	COMDAT ?_Insert_n@?$vector@PAUtagTAUCTION@@V?$allocator@PAUtagTAUCTION@@@std@@@std@@IAEXViterator@12@IABQAUtagTAUCTION@@@Z
_TEXT	SEGMENT PARA USE32 PUBLIC 'CODE'
_TEXT	ENDS
;	COMDAT ??Hiterator@?$vector@PAUtagTAUCTION@@V?$allocator@PAUtagTAUCTION@@@std@@@std@@QBE?AV012@H@Z
_TEXT	SEGMENT PARA USE32 PUBLIC 'CODE'
_TEXT	ENDS
;	COMDAT ??Giterator@?$vector@PAUtagTAUCTION@@V?$allocator@PAUtagTAUCTION@@@std@@@std@@QBEHABVconst_iterator@12@@Z
_TEXT	SEGMENT PARA USE32 PUBLIC 'CODE'
_TEXT	ENDS
;	COMDAT ??0const_iterator@?$vector@PAUtagTAUCTION@@V?$allocator@PAUtagTAUCTION@@@std@@@std@@QAE@PAPAUtagTAUCTION@@@Z
_TEXT	SEGMENT PARA USE32 PUBLIC 'CODE'
_TEXT	ENDS
;	COMDAT ??0?$CSimpleStringT@D$0A@@ATL@@QAE@PBDHPAUIAtlStringMgr@1@@Z
_TEXT	SEGMENT PARA USE32 PUBLIC 'CODE'
_TEXT	ENDS
;	COMDAT ?_Root@?$_Tree@V?$_Tmap_traits@KKU?$less@K@std@@V?$allocator@U?$pair@$$CBKK@std@@@2@$0A@@std@@@std@@IBEAAPAU_Node@?$_Tree_nod@V?$_Tmap_traits@KKU?$less@K@std@@V?$allocator@U?$pair@$$CBKK@std@@@2@$0A@@std@@@2@XZ
_TEXT	SEGMENT PARA USE32 PUBLIC 'CODE'
_TEXT	ENDS
;	COMDAT ?max_size@?$allocator@U?$pair@$$CBKK@std@@@std@@QBEIXZ
_TEXT	SEGMENT PARA USE32 PUBLIC 'CODE'
_TEXT	ENDS
;	COMDAT ?deallocate@?$allocator@U_Node@?$_Tree_nod@V?$_Tmap_traits@KKU?$less@K@std@@V?$allocator@U?$pair@$$CBKK@std@@@2@$0A@@std@@@std@@@std@@QAEXPAU_Node@?$_Tree_nod@V?$_Tmap_traits@KKU?$less@K@std@@V?$allocator@U?$pair@$$CBKK@std@@@2@$0A@@std@@@2@I@Z
_TEXT	SEGMENT PARA USE32 PUBLIC 'CODE'
_TEXT	ENDS
;	COMDAT ?allocate@?$allocator@U_Node@?$_Tree_nod@V?$_Tmap_traits@KKU?$less@K@std@@V?$allocator@U?$pair@$$CBKK@std@@@2@$0A@@std@@@std@@@std@@QAEPAU_Node@?$_Tree_nod@V?$_Tmap_traits@KKU?$less@K@std@@V?$allocator@U?$pair@$$CBKK@std@@@2@$0A@@std@@@2@I@Z
_TEXT	SEGMENT PARA USE32 PUBLIC 'CODE'
_TEXT	ENDS
;	COMDAT ?_Root@?$_Tree@V?$_Tmap_traits@KPAVCTItem@@U?$less@K@std@@V?$allocator@U?$pair@$$CBKPAVCTItem@@@std@@@3@$0A@@std@@@std@@IBEAAPAU_Node@?$_Tree_nod@V?$_Tmap_traits@KPAVCTItem@@U?$less@K@std@@V?$allocator@U?$pair@$$CBKPAVCTItem@@@std@@@3@$0A@@std@@@2@XZ
_TEXT	SEGMENT PARA USE32 PUBLIC 'CODE'
_TEXT	ENDS
;	COMDAT ?_Isnil@?$_Tree@V?$_Tmap_traits@EPAUtagTMAGIC@@U?$less@E@std@@V?$allocator@U?$pair@$$CBEPAUtagTMAGIC@@@std@@@3@$0A@@std@@@std@@KAAADPAU_Node@?$_Tree_nod@V?$_Tmap_traits@EPAUtagTMAGIC@@U?$less@E@std@@V?$allocator@U?$pair@$$CBEPAUtagTMAGIC@@@std@@@3@$0A@@std@@@2@@Z
_TEXT	SEGMENT PARA USE32 PUBLIC 'CODE'
_TEXT	ENDS
;	COMDAT ?_Left@?$_Tree@V?$_Tmap_traits@EPAUtagTMAGIC@@U?$less@E@std@@V?$allocator@U?$pair@$$CBEPAUtagTMAGIC@@@std@@@3@$0A@@std@@@std@@KAAAPAU_Node@?$_Tree_nod@V?$_Tmap_traits@EPAUtagTMAGIC@@U?$less@E@std@@V?$allocator@U?$pair@$$CBEPAUtagTMAGIC@@@std@@@3@$0A@@std@@@2@PAU342@@Z
_TEXT	SEGMENT PARA USE32 PUBLIC 'CODE'
_TEXT	ENDS
;	COMDAT ?_Right@?$_Tree@V?$_Tmap_traits@EPAUtagTMAGIC@@U?$less@E@std@@V?$allocator@U?$pair@$$CBEPAUtagTMAGIC@@@std@@@3@$0A@@std@@@std@@KAAAPAU_Node@?$_Tree_nod@V?$_Tmap_traits@EPAUtagTMAGIC@@U?$less@E@std@@V?$allocator@U?$pair@$$CBEPAUtagTMAGIC@@@std@@@3@$0A@@std@@@2@PAU342@@Z
_TEXT	SEGMENT PARA USE32 PUBLIC 'CODE'
_TEXT	ENDS
;	COMDAT ?_Root@?$_Tree@V?$_Tmap_traits@EPAUtagTMAGIC@@U?$less@E@std@@V?$allocator@U?$pair@$$CBEPAUtagTMAGIC@@@std@@@3@$0A@@std@@@std@@IBEAAPAU_Node@?$_Tree_nod@V?$_Tmap_traits@EPAUtagTMAGIC@@U?$less@E@std@@V?$allocator@U?$pair@$$CBEPAUtagTMAGIC@@@std@@@3@$0A@@std@@@2@XZ
_TEXT	SEGMENT PARA USE32 PUBLIC 'CODE'
_TEXT	ENDS
;	COMDAT ?erase@?$_Tree@V?$_Tmap_traits@GPAUtagTITEM@@U?$less@G@std@@V?$allocator@U?$pair@$$CBGPAUtagTITEM@@@std@@@3@$0A@@std@@@std@@QAE?AViterator@12@V312@@Z
_TEXT	SEGMENT PARA USE32 PUBLIC 'CODE'
_TEXT	ENDS
;	COMDAT ?_Root@?$_Tree@V?$_Tmap_traits@GPAUtagTITEM@@U?$less@G@std@@V?$allocator@U?$pair@$$CBGPAUtagTITEM@@@std@@@3@$0A@@std@@@std@@IBEAAPAU_Node@?$_Tree_nod@V?$_Tmap_traits@GPAUtagTITEM@@U?$less@G@std@@V?$allocator@U?$pair@$$CBGPAUtagTITEM@@@std@@@3@$0A@@std@@@2@XZ
_TEXT	SEGMENT PARA USE32 PUBLIC 'CODE'
_TEXT	ENDS
;	COMDAT ?_Buynode@?$_Tree@V?$_Tmap_traits@GPAUtagTITEM@@U?$less@G@std@@V?$allocator@U?$pair@$$CBGPAUtagTITEM@@@std@@@3@$0A@@std@@@std@@IAEPAU_Node@?$_Tree_nod@V?$_Tmap_traits@GPAUtagTITEM@@U?$less@G@std@@V?$allocator@U?$pair@$$CBGPAUtagTITEM@@@std@@@3@$0A@@std@@@2@XZ
_TEXT	SEGMENT PARA USE32 PUBLIC 'CODE'
_TEXT	ENDS
;	COMDAT ??0?$_Tree_ptr@V?$_Tmap_traits@GPAUtagTITEM@@U?$less@G@std@@V?$allocator@U?$pair@$$CBGPAUtagTITEM@@@std@@@3@$0A@@std@@@std@@IAE@ABU?$less@G@1@V?$allocator@U?$pair@$$CBGPAUtagTITEM@@@std@@@1@@Z
_TEXT	SEGMENT PARA USE32 PUBLIC 'CODE'
_TEXT	ENDS
;	COMDAT ?erase@?$_Tree@V?$_Tmap_traits@GPAVCTSkillTemp@@U?$less@G@std@@V?$allocator@U?$pair@$$CBGPAVCTSkillTemp@@@std@@@3@$0A@@std@@@std@@QAE?AViterator@12@V312@@Z
_TEXT	SEGMENT PARA USE32 PUBLIC 'CODE'
_TEXT	ENDS
;	COMDAT ?_Root@?$_Tree@V?$_Tmap_traits@GPAVCTSkillTemp@@U?$less@G@std@@V?$allocator@U?$pair@$$CBGPAVCTSkillTemp@@@std@@@3@$0A@@std@@@std@@IBEAAPAU_Node@?$_Tree_nod@V?$_Tmap_traits@GPAVCTSkillTemp@@U?$less@G@std@@V?$allocator@U?$pair@$$CBGPAVCTSkillTemp@@@std@@@3@$0A@@std@@@2@XZ
_TEXT	SEGMENT PARA USE32 PUBLIC 'CODE'
_TEXT	ENDS
;	COMDAT ?_Buynode@?$_Tree@V?$_Tmap_traits@GPAVCTSkillTemp@@U?$less@G@std@@V?$allocator@U?$pair@$$CBGPAVCTSkillTemp@@@std@@@3@$0A@@std@@@std@@IAEPAU_Node@?$_Tree_nod@V?$_Tmap_traits@GPAVCTSkillTemp@@U?$less@G@std@@V?$allocator@U?$pair@$$CBGPAVCTSkillTemp@@@std@@@3@$0A@@std@@@2@XZ
_TEXT	SEGMENT PARA USE32 PUBLIC 'CODE'
_TEXT	ENDS
;	COMDAT ??0?$_Tree_ptr@V?$_Tmap_traits@GPAVCTSkillTemp@@U?$less@G@std@@V?$allocator@U?$pair@$$CBGPAVCTSkillTemp@@@std@@@3@$0A@@std@@@std@@IAE@ABU?$less@G@1@V?$allocator@U?$pair@$$CBGPAVCTSkillTemp@@@std@@@1@@Z
_TEXT	SEGMENT PARA USE32 PUBLIC 'CODE'
_TEXT	ENDS
;	COMDAT ?erase@?$_Tree@V?$_Tmap_traits@GPAUtagMONSTERSHOP@@U?$less@G@std@@V?$allocator@U?$pair@$$CBGPAUtagMONSTERSHOP@@@std@@@3@$0A@@std@@@std@@QAE?AViterator@12@V312@@Z
_TEXT	SEGMENT PARA USE32 PUBLIC 'CODE'
_TEXT	ENDS
;	COMDAT ?_Root@?$_Tree@V?$_Tmap_traits@GPAUtagMONSTERSHOP@@U?$less@G@std@@V?$allocator@U?$pair@$$CBGPAUtagMONSTERSHOP@@@std@@@3@$0A@@std@@@std@@IBEAAPAU_Node@?$_Tree_nod@V?$_Tmap_traits@GPAUtagMONSTERSHOP@@U?$less@G@std@@V?$allocator@U?$pair@$$CBGPAUtagMONSTERSHOP@@@std@@@3@$0A@@std@@@2@XZ
_TEXT	SEGMENT PARA USE32 PUBLIC 'CODE'
_TEXT	ENDS
;	COMDAT ?_Buynode@?$_Tree@V?$_Tmap_traits@GPAUtagMONSTERSHOP@@U?$less@G@std@@V?$allocator@U?$pair@$$CBGPAUtagMONSTERSHOP@@@std@@@3@$0A@@std@@@std@@IAEPAU_Node@?$_Tree_nod@V?$_Tmap_traits@GPAUtagMONSTERSHOP@@U?$less@G@std@@V?$allocator@U?$pair@$$CBGPAUtagMONSTERSHOP@@@std@@@3@$0A@@std@@@2@XZ
_TEXT	SEGMENT PARA USE32 PUBLIC 'CODE'
_TEXT	ENDS
;	COMDAT ??0?$_Tree_ptr@V?$_Tmap_traits@GPAUtagMONSTERSHOP@@U?$less@G@std@@V?$allocator@U?$pair@$$CBGPAUtagMONSTERSHOP@@@std@@@3@$0A@@std@@@std@@IAE@ABU?$less@G@1@V?$allocator@U?$pair@$$CBGPAUtagMONSTERSHOP@@@std@@@1@@Z
_TEXT	SEGMENT PARA USE32 PUBLIC 'CODE'
_TEXT	ENDS
;	COMDAT ?_Root@?$_Tree@V?$_Tmap_traits@KPAUtagTAUCTION@@U?$less@K@std@@V?$allocator@U?$pair@$$CBKPAUtagTAUCTION@@@std@@@3@$0A@@std@@@std@@IBEAAPAU_Node@?$_Tree_nod@V?$_Tmap_traits@KPAUtagTAUCTION@@U?$less@K@std@@V?$allocator@U?$pair@$$CBKPAUtagTAUCTION@@@std@@@3@$0A@@std@@@2@XZ
_TEXT	SEGMENT PARA USE32 PUBLIC 'CODE'
_TEXT	ENDS
;	COMDAT ?_Buynode@?$_Tree@V?$_Tmap_traits@KPAUtagTAUCTION@@U?$less@K@std@@V?$allocator@U?$pair@$$CBKPAUtagTAUCTION@@@std@@@3@$0A@@std@@@std@@IAEPAU_Node@?$_Tree_nod@V?$_Tmap_traits@KPAUtagTAUCTION@@U?$less@K@std@@V?$allocator@U?$pair@$$CBKPAUtagTAUCTION@@@std@@@3@$0A@@std@@@2@XZ
_TEXT	SEGMENT PARA USE32 PUBLIC 'CODE'
_TEXT	ENDS
;	COMDAT ??0?$_Tree_ptr@V?$_Tmap_traits@KPAUtagTAUCTION@@U?$less@K@std@@V?$allocator@U?$pair@$$CBKPAUtagTAUCTION@@@std@@@3@$0A@@std@@@std@@IAE@ABU?$less@K@1@V?$allocator@U?$pair@$$CBKPAUtagTAUCTION@@@std@@@1@@Z
_TEXT	SEGMENT PARA USE32 PUBLIC 'CODE'
_TEXT	ENDS
;	COMDAT ?max_size@?$allocator@U?$pair@$$CBKPAUtagTAUCTION@@@std@@@std@@QBEIXZ
_TEXT	SEGMENT PARA USE32 PUBLIC 'CODE'
_TEXT	ENDS
;	COMDAT ?allocate@?$allocator@U_Node@?$_Tree_nod@V?$_Tmap_traits@KPAUtagTAUCTION@@U?$less@K@std@@V?$allocator@U?$pair@$$CBKPAUtagTAUCTION@@@std@@@3@$0A@@std@@@std@@@std@@QAEPAU_Node@?$_Tree_nod@V?$_Tmap_traits@KPAUtagTAUCTION@@U?$less@K@std@@V?$allocator@U?$pair@$$CBKPAUtagTAUCTION@@@std@@@3@$0A@@std@@@2@I@Z
_TEXT	SEGMENT PARA USE32 PUBLIC 'CODE'
_TEXT	ENDS
;	COMDAT ?erase@?$_Tree@V?$_Tmap_traits@KPAV?$map@KPAUtagTAUCTION@@U?$less@K@std@@V?$allocator@U?$pair@$$CBKPAUtagTAUCTION@@@std@@@3@@std@@U?$less@K@2@V?$allocator@U?$pair@$$CBKPAV?$map@KPAUtagTAUCTION@@U?$less@K@std@@V?$allocator@U?$pair@$$CBKPAUtagTAUCTION@@@std@@@3@@std@@@std@@@2@$0A@@std@@@std@@QAE?AViterator@12@V312@@Z
_TEXT	SEGMENT PARA USE32 PUBLIC 'CODE'
_TEXT	ENDS
;	COMDAT ?_Root@?$_Tree@V?$_Tmap_traits@KPAV?$map@KPAUtagTAUCTION@@U?$less@K@std@@V?$allocator@U?$pair@$$CBKPAUtagTAUCTION@@@std@@@3@@std@@U?$less@K@2@V?$allocator@U?$pair@$$CBKPAV?$map@KPAUtagTAUCTION@@U?$less@K@std@@V?$allocator@U?$pair@$$CBKPAUtagTAUCTION@@@std@@@3@@std@@@std@@@2@$0A@@std@@@std@@IBEAAPAU_Node@?$_Tree_nod@V?$_Tmap_traits@KPAV?$map@KPAUtagTAUCTION@@U?$less@K@std@@V?$allocator@U?$pair@$$CBKPAUtagTAUCTION@@@std@@@3@@std@@U?$less@K@2@V?$allocator@U?$pair@$$CBKPAV?$map@KPAUtagTAUCTION@@U?$less@K@std@@V?$allocator@U?$pair@$$CBKPAUtagTAUCTION@@@std@@@3@@std@@@std@@@2@$0A@@std@@@2@XZ
_TEXT	SEGMENT PARA USE32 PUBLIC 'CODE'
_TEXT	ENDS
;	COMDAT ?_Buynode@?$_Tree@V?$_Tmap_traits@KPAV?$map@KPAUtagTAUCTION@@U?$less@K@std@@V?$allocator@U?$pair@$$CBKPAUtagTAUCTION@@@std@@@3@@std@@U?$less@K@2@V?$allocator@U?$pair@$$CBKPAV?$map@KPAUtagTAUCTION@@U?$less@K@std@@V?$allocator@U?$pair@$$CBKPAUtagTAUCTION@@@std@@@3@@std@@@std@@@2@$0A@@std@@@std@@IAEPAU_Node@?$_Tree_nod@V?$_Tmap_traits@KPAV?$map@KPAUtagTAUCTION@@U?$less@K@std@@V?$allocator@U?$pair@$$CBKPAUtagTAUCTION@@@std@@@3@@std@@U?$less@K@2@V?$allocator@U?$pair@$$CBKPAV?$map@KPAUtagTAUCTION@@U?$less@K@std@@V?$allocator@U?$pair@$$CBKPAUtagTAUCTION@@@std@@@3@@std@@@std@@@2@$0A@@std@@@2@XZ
_TEXT	SEGMENT PARA USE32 PUBLIC 'CODE'
_TEXT	ENDS
;	COMDAT ??0?$_Tree_ptr@V?$_Tmap_traits@KPAV?$map@KPAUtagTAUCTION@@U?$less@K@std@@V?$allocator@U?$pair@$$CBKPAUtagTAUCTION@@@std@@@3@@std@@U?$less@K@2@V?$allocator@U?$pair@$$CBKPAV?$map@KPAUtagTAUCTION@@U?$less@K@std@@V?$allocator@U?$pair@$$CBKPAUtagTAUCTION@@@std@@@3@@std@@@std@@@2@$0A@@std@@@std@@IAE@ABU?$less@K@1@V?$allocator@U?$pair@$$CBKPAV?$map@KPAUtagTAUCTION@@U?$less@K@std@@V?$allocator@U?$pair@$$CBKPAUtagTAUCTION@@@std@@@3@@std@@@std@@@1@@Z
_TEXT	SEGMENT PARA USE32 PUBLIC 'CODE'
_TEXT	ENDS
;	COMDAT ?max_size@?$allocator@U?$pair@$$CBKPAV?$map@KPAUtagTAUCTION@@U?$less@K@std@@V?$allocator@U?$pair@$$CBKPAUtagTAUCTION@@@std@@@3@@std@@@std@@@std@@QBEIXZ
_TEXT	SEGMENT PARA USE32 PUBLIC 'CODE'
_TEXT	ENDS
;	COMDAT ?allocate@?$allocator@U_Node@?$_Tree_nod@V?$_Tmap_traits@KPAV?$map@KPAUtagTAUCTION@@U?$less@K@std@@V?$allocator@U?$pair@$$CBKPAUtagTAUCTION@@@std@@@3@@std@@U?$less@K@2@V?$allocator@U?$pair@$$CBKPAV?$map@KPAUtagTAUCTION@@U?$less@K@std@@V?$allocator@U?$pair@$$CBKPAUtagTAUCTION@@@std@@@3@@std@@@std@@@2@$0A@@std@@@std@@@std@@QAEPAU_Node@?$_Tree_nod@V?$_Tmap_traits@KPAV?$map@KPAUtagTAUCTION@@U?$less@K@std@@V?$allocator@U?$pair@$$CBKPAUtagTAUCTION@@@std@@@3@@std@@U?$less@K@2@V?$allocator@U?$pair@$$CBKPAV?$map@KPAUtagTAUCTION@@U?$less@K@std@@V?$allocator@U?$pair@$$CBKPAUtagTAUCTION@@@std@@@3@@std@@@std@@@2@$0A@@std@@@2@I@Z
_TEXT	SEGMENT PARA USE32 PUBLIC 'CODE'
_TEXT	ENDS
;	COMDAT ?_Inc@const_iterator@?$_Tree@V?$_Tmap_traits@GPAUtagMONSTERSHOP@@U?$less@G@std@@V?$allocator@U?$pair@$$CBGPAUtagMONSTERSHOP@@@std@@@3@$0A@@std@@@std@@QAEXXZ
_TEXT	SEGMENT PARA USE32 PUBLIC 'CODE'
_TEXT	ENDS
;	COMDAT ?_Dec@const_iterator@?$_Tree@V?$_Tmap_traits@KPAV?$map@KPAUtagTAUCTION@@U?$less@K@std@@V?$allocator@U?$pair@$$CBKPAUtagTAUCTION@@@std@@@3@@std@@U?$less@K@2@V?$allocator@U?$pair@$$CBKPAV?$map@KPAUtagTAUCTION@@U?$less@K@std@@V?$allocator@U?$pair@$$CBKPAUtagTAUCTION@@@std@@@3@@std@@@std@@@2@$0A@@std@@@std@@QAEXXZ
_TEXT	SEGMENT PARA USE32 PUBLIC 'CODE'
_TEXT	ENDS
;	COMDAT ?_Inc@const_iterator@?$_Tree@V?$_Tmap_traits@KPAV?$map@KPAUtagTAUCTION@@U?$less@K@std@@V?$allocator@U?$pair@$$CBKPAUtagTAUCTION@@@std@@@3@@std@@U?$less@K@2@V?$allocator@U?$pair@$$CBKPAV?$map@KPAUtagTAUCTION@@U?$less@K@std@@V?$allocator@U?$pair@$$CBKPAUtagTAUCTION@@@std@@@3@@std@@@std@@@2@$0A@@std@@@std@@QAEXXZ
_TEXT	SEGMENT PARA USE32 PUBLIC 'CODE'
_TEXT	ENDS
;	COMDAT ?_Dec@const_iterator@?$_Tree@V?$_Tmap_traits@KPAUtagTAUCTION@@U?$less@K@std@@V?$allocator@U?$pair@$$CBKPAUtagTAUCTION@@@std@@@3@$0A@@std@@@std@@QAEXXZ
_TEXT	SEGMENT PARA USE32 PUBLIC 'CODE'
_TEXT	ENDS
;	COMDAT ?_Inc@const_iterator@?$_Tree@V?$_Tmap_traits@KPAUtagTAUCTION@@U?$less@K@std@@V?$allocator@U?$pair@$$CBKPAUtagTAUCTION@@@std@@@3@$0A@@std@@@std@@QAEXXZ
_TEXT	SEGMENT PARA USE32 PUBLIC 'CODE'
_TEXT	ENDS
;	COMDAT ??Eiterator@?$_Tree@V?$_Tmap_traits@GPAUtagTITEM@@U?$less@G@std@@V?$allocator@U?$pair@$$CBGPAUtagTITEM@@@std@@@3@$0A@@std@@@std@@QAE?AV012@H@Z
_TEXT	SEGMENT PARA USE32 PUBLIC 'CODE'
_TEXT	ENDS
;	COMDAT ??Eiterator@?$_Tree@V?$_Tmap_traits@GPAVCTSkillTemp@@U?$less@G@std@@V?$allocator@U?$pair@$$CBGPAVCTSkillTemp@@@std@@@3@$0A@@std@@@std@@QAE?AV012@H@Z
_TEXT	SEGMENT PARA USE32 PUBLIC 'CODE'
_TEXT	ENDS
;	COMDAT ?_Dec@const_iterator@?$_Tree@V?$_Tmap_traits@KKU?$less@K@std@@V?$allocator@U?$pair@$$CBKK@std@@@2@$0A@@std@@@std@@QAEXXZ
_TEXT	SEGMENT PARA USE32 PUBLIC 'CODE'
_TEXT	ENDS
;	COMDAT ?max_size@?$vector@PAUtagTAUCTION@@V?$allocator@PAUtagTAUCTION@@@std@@@std@@QBEIXZ
_TEXT	SEGMENT PARA USE32 PUBLIC 'CODE'
_TEXT	ENDS
;	COMDAT ?_Destroy@?$vector@PAUtagTAUCTION@@V?$allocator@PAUtagTAUCTION@@@std@@@std@@IAEXPAPAUtagTAUCTION@@0@Z
_TEXT	SEGMENT PARA USE32 PUBLIC 'CODE'
_TEXT	ENDS
;	COMDAT ?_Xlen@?$vector@PAUtagTAUCTION@@V?$allocator@PAUtagTAUCTION@@@std@@@std@@IBEXXZ
_TEXT	SEGMENT PARA USE32 PUBLIC 'CODE'
_TEXT	ENDS
;	COMDAT ?deallocate@?$allocator@PAUtagTAUCTION@@@std@@QAEXPAPAUtagTAUCTION@@I@Z
_TEXT	SEGMENT PARA USE32 PUBLIC 'CODE'
_TEXT	ENDS
;	COMDAT ?allocate@?$allocator@PAUtagTAUCTION@@@std@@QAEPAPAUtagTAUCTION@@I@Z
_TEXT	SEGMENT PARA USE32 PUBLIC 'CODE'
_TEXT	ENDS
;	COMDAT ??Yiterator@?$vector@PAUtagTAUCTION@@V?$allocator@PAUtagTAUCTION@@@std@@@std@@QAEAAV012@H@Z
_TEXT	SEGMENT PARA USE32 PUBLIC 'CODE'
_TEXT	ENDS
;	COMDAT ??Gconst_iterator@?$vector@PAUtagTAUCTION@@V?$allocator@PAUtagTAUCTION@@@std@@@std@@QBEHABV012@@Z
_TEXT	SEGMENT PARA USE32 PUBLIC 'CODE'
_TEXT	ENDS
;	COMDAT ??0_Node@?$_Tree_nod@V?$_Tmap_traits@KKU?$less@K@std@@V?$allocator@U?$pair@$$CBKK@std@@@2@$0A@@std@@@std@@QAE@PAU012@00ABU?$pair@$$CBKK@2@D@Z
_TEXT	SEGMENT PARA USE32 PUBLIC 'CODE'
_TEXT	ENDS
;	COMDAT ??0_Node@?$_Tree_nod@V?$_Tmap_traits@KPAUtagTAUCTION@@U?$less@K@std@@V?$allocator@U?$pair@$$CBKPAUtagTAUCTION@@@std@@@3@$0A@@std@@@std@@QAE@PAU012@00ABU?$pair@$$CBKPAUtagTAUCTION@@@2@D@Z
_TEXT	SEGMENT PARA USE32 PUBLIC 'CODE'
_TEXT	ENDS
;	COMDAT ??0_Node@?$_Tree_nod@V?$_Tmap_traits@KPAV?$map@KPAUtagTAUCTION@@U?$less@K@std@@V?$allocator@U?$pair@$$CBKPAUtagTAUCTION@@@std@@@3@@std@@U?$less@K@2@V?$allocator@U?$pair@$$CBKPAV?$map@KPAUtagTAUCTION@@U?$less@K@std@@V?$allocator@U?$pair@$$CBKPAUtagTAUCTION@@@std@@@3@@std@@@std@@@2@$0A@@std@@@std@@QAE@PAU012@00ABU?$pair@$$CBKPAV?$map@KPAUtagTAUCTION@@U?$less@K@std@@V?$allocator@U?$pair@$$CBKPAUtagTAUCTION@@@std@@@3@@std@@@2@D@Z
_TEXT	SEGMENT PARA USE32 PUBLIC 'CODE'
_TEXT	ENDS
;	COMDAT ?_Max@?$_Tree@V?$_Tmap_traits@KKU?$less@K@std@@V?$allocator@U?$pair@$$CBKK@std@@@2@$0A@@std@@@std@@KAPAU_Node@?$_Tree_nod@V?$_Tmap_traits@KKU?$less@K@std@@V?$allocator@U?$pair@$$CBKK@std@@@2@$0A@@std@@@2@PAU342@@Z
_TEXT	SEGMENT PARA USE32 PUBLIC 'CODE'
_TEXT	ENDS
;	COMDAT ?_Parent@?$_Tree@V?$_Tmap_traits@EPAUtagTMAGIC@@U?$less@E@std@@V?$allocator@U?$pair@$$CBEPAUtagTMAGIC@@@std@@@3@$0A@@std@@@std@@KAAAPAU_Node@?$_Tree_nod@V?$_Tmap_traits@EPAUtagTMAGIC@@U?$less@E@std@@V?$allocator@U?$pair@$$CBEPAUtagTMAGIC@@@std@@@3@$0A@@std@@@2@PAU342@@Z
_TEXT	SEGMENT PARA USE32 PUBLIC 'CODE'
_TEXT	ENDS
;	COMDAT ?_Color@?$_Tree@V?$_Tmap_traits@GPAUtagTITEM@@U?$less@G@std@@V?$allocator@U?$pair@$$CBGPAUtagTITEM@@@std@@@3@$0A@@std@@@std@@KAAADPAU_Node@?$_Tree_nod@V?$_Tmap_traits@GPAUtagTITEM@@U?$less@G@std@@V?$allocator@U?$pair@$$CBGPAUtagTITEM@@@std@@@3@$0A@@std@@@2@@Z
_TEXT	SEGMENT PARA USE32 PUBLIC 'CODE'
_TEXT	ENDS
;	COMDAT ?_Lrotate@?$_Tree@V?$_Tmap_traits@GPAUtagTITEM@@U?$less@G@std@@V?$allocator@U?$pair@$$CBGPAUtagTITEM@@@std@@@3@$0A@@std@@@std@@IAEXPAU_Node@?$_Tree_nod@V?$_Tmap_traits@GPAUtagTITEM@@U?$less@G@std@@V?$allocator@U?$pair@$$CBGPAUtagTITEM@@@std@@@3@$0A@@std@@@2@@Z
_TEXT	SEGMENT PARA USE32 PUBLIC 'CODE'
_TEXT	ENDS
;	COMDAT ?_Max@?$_Tree@V?$_Tmap_traits@GPAUtagTITEM@@U?$less@G@std@@V?$allocator@U?$pair@$$CBGPAUtagTITEM@@@std@@@3@$0A@@std@@@std@@KAPAU_Node@?$_Tree_nod@V?$_Tmap_traits@GPAUtagTITEM@@U?$less@G@std@@V?$allocator@U?$pair@$$CBGPAUtagTITEM@@@std@@@3@$0A@@std@@@2@PAU342@@Z
_TEXT	SEGMENT PARA USE32 PUBLIC 'CODE'
_TEXT	ENDS
;	COMDAT ?_Min@?$_Tree@V?$_Tmap_traits@GPAUtagTITEM@@U?$less@G@std@@V?$allocator@U?$pair@$$CBGPAUtagTITEM@@@std@@@3@$0A@@std@@@std@@KAPAU_Node@?$_Tree_nod@V?$_Tmap_traits@GPAUtagTITEM@@U?$less@G@std@@V?$allocator@U?$pair@$$CBGPAUtagTITEM@@@std@@@3@$0A@@std@@@2@PAU342@@Z
_TEXT	SEGMENT PARA USE32 PUBLIC 'CODE'
_TEXT	ENDS
;	COMDAT ?_Rrotate@?$_Tree@V?$_Tmap_traits@GPAUtagTITEM@@U?$less@G@std@@V?$allocator@U?$pair@$$CBGPAUtagTITEM@@@std@@@3@$0A@@std@@@std@@IAEXPAU_Node@?$_Tree_nod@V?$_Tmap_traits@GPAUtagTITEM@@U?$less@G@std@@V?$allocator@U?$pair@$$CBGPAUtagTITEM@@@std@@@3@$0A@@std@@@2@@Z
_TEXT	SEGMENT PARA USE32 PUBLIC 'CODE'
_TEXT	ENDS
;	COMDAT ??0?$_Tree_nod@V?$_Tmap_traits@GPAUtagTITEM@@U?$less@G@std@@V?$allocator@U?$pair@$$CBGPAUtagTITEM@@@std@@@3@$0A@@std@@@std@@IAE@ABU?$less@G@1@V?$allocator@U?$pair@$$CBGPAUtagTITEM@@@std@@@1@@Z
_TEXT	SEGMENT PARA USE32 PUBLIC 'CODE'
_TEXT	ENDS
;	COMDAT ?allocate@?$allocator@U_Node@?$_Tree_nod@V?$_Tmap_traits@GPAUtagTITEM@@U?$less@G@std@@V?$allocator@U?$pair@$$CBGPAUtagTITEM@@@std@@@3@$0A@@std@@@std@@@std@@QAEPAU_Node@?$_Tree_nod@V?$_Tmap_traits@GPAUtagTITEM@@U?$less@G@std@@V?$allocator@U?$pair@$$CBGPAUtagTITEM@@@std@@@3@$0A@@std@@@2@I@Z
_TEXT	SEGMENT PARA USE32 PUBLIC 'CODE'
_TEXT	ENDS
;	COMDAT ?construct@?$allocator@PAU_Node@?$_Tree_nod@V?$_Tmap_traits@GPAUtagTITEM@@U?$less@G@std@@V?$allocator@U?$pair@$$CBGPAUtagTITEM@@@std@@@3@$0A@@std@@@std@@@std@@QAEXPAPAU_Node@?$_Tree_nod@V?$_Tmap_traits@GPAUtagTITEM@@U?$less@G@std@@V?$allocator@U?$pair@$$CBGPAUtagTITEM@@@std@@@3@$0A@@std@@@2@ABQAU342@@Z
_TEXT	SEGMENT PARA USE32 PUBLIC 'CODE'
_TEXT	ENDS
;	COMDAT ?_Color@?$_Tree@V?$_Tmap_traits@GPAVCTSkillTemp@@U?$less@G@std@@V?$allocator@U?$pair@$$CBGPAVCTSkillTemp@@@std@@@3@$0A@@std@@@std@@KAAADPAU_Node@?$_Tree_nod@V?$_Tmap_traits@GPAVCTSkillTemp@@U?$less@G@std@@V?$allocator@U?$pair@$$CBGPAVCTSkillTemp@@@std@@@3@$0A@@std@@@2@@Z
_TEXT	SEGMENT PARA USE32 PUBLIC 'CODE'
_TEXT	ENDS
;	COMDAT ?_Lrotate@?$_Tree@V?$_Tmap_traits@GPAVCTSkillTemp@@U?$less@G@std@@V?$allocator@U?$pair@$$CBGPAVCTSkillTemp@@@std@@@3@$0A@@std@@@std@@IAEXPAU_Node@?$_Tree_nod@V?$_Tmap_traits@GPAVCTSkillTemp@@U?$less@G@std@@V?$allocator@U?$pair@$$CBGPAVCTSkillTemp@@@std@@@3@$0A@@std@@@2@@Z
_TEXT	SEGMENT PARA USE32 PUBLIC 'CODE'
_TEXT	ENDS
;	COMDAT ?_Max@?$_Tree@V?$_Tmap_traits@GPAVCTSkillTemp@@U?$less@G@std@@V?$allocator@U?$pair@$$CBGPAVCTSkillTemp@@@std@@@3@$0A@@std@@@std@@KAPAU_Node@?$_Tree_nod@V?$_Tmap_traits@GPAVCTSkillTemp@@U?$less@G@std@@V?$allocator@U?$pair@$$CBGPAVCTSkillTemp@@@std@@@3@$0A@@std@@@2@PAU342@@Z
_TEXT	SEGMENT PARA USE32 PUBLIC 'CODE'
_TEXT	ENDS
;	COMDAT ?_Min@?$_Tree@V?$_Tmap_traits@GPAVCTSkillTemp@@U?$less@G@std@@V?$allocator@U?$pair@$$CBGPAVCTSkillTemp@@@std@@@3@$0A@@std@@@std@@KAPAU_Node@?$_Tree_nod@V?$_Tmap_traits@GPAVCTSkillTemp@@U?$less@G@std@@V?$allocator@U?$pair@$$CBGPAVCTSkillTemp@@@std@@@3@$0A@@std@@@2@PAU342@@Z
_TEXT	SEGMENT PARA USE32 PUBLIC 'CODE'
_TEXT	ENDS
;	COMDAT ?_Rrotate@?$_Tree@V?$_Tmap_traits@GPAVCTSkillTemp@@U?$less@G@std@@V?$allocator@U?$pair@$$CBGPAVCTSkillTemp@@@std@@@3@$0A@@std@@@std@@IAEXPAU_Node@?$_Tree_nod@V?$_Tmap_traits@GPAVCTSkillTemp@@U?$less@G@std@@V?$allocator@U?$pair@$$CBGPAVCTSkillTemp@@@std@@@3@$0A@@std@@@2@@Z
_TEXT	SEGMENT PARA USE32 PUBLIC 'CODE'
_TEXT	ENDS
;	COMDAT ??0?$_Tree_nod@V?$_Tmap_traits@GPAVCTSkillTemp@@U?$less@G@std@@V?$allocator@U?$pair@$$CBGPAVCTSkillTemp@@@std@@@3@$0A@@std@@@std@@IAE@ABU?$less@G@1@V?$allocator@U?$pair@$$CBGPAVCTSkillTemp@@@std@@@1@@Z
_TEXT	SEGMENT PARA USE32 PUBLIC 'CODE'
_TEXT	ENDS
;	COMDAT ?allocate@?$allocator@U_Node@?$_Tree_nod@V?$_Tmap_traits@GPAVCTSkillTemp@@U?$less@G@std@@V?$allocator@U?$pair@$$CBGPAVCTSkillTemp@@@std@@@3@$0A@@std@@@std@@@std@@QAEPAU_Node@?$_Tree_nod@V?$_Tmap_traits@GPAVCTSkillTemp@@U?$less@G@std@@V?$allocator@U?$pair@$$CBGPAVCTSkillTemp@@@std@@@3@$0A@@std@@@2@I@Z
_TEXT	SEGMENT PARA USE32 PUBLIC 'CODE'
_TEXT	ENDS
;	COMDAT ?construct@?$allocator@PAU_Node@?$_Tree_nod@V?$_Tmap_traits@GPAVCTSkillTemp@@U?$less@G@std@@V?$allocator@U?$pair@$$CBGPAVCTSkillTemp@@@std@@@3@$0A@@std@@@std@@@std@@QAEXPAPAU_Node@?$_Tree_nod@V?$_Tmap_traits@GPAVCTSkillTemp@@U?$less@G@std@@V?$allocator@U?$pair@$$CBGPAVCTSkillTemp@@@std@@@3@$0A@@std@@@2@ABQAU342@@Z
_TEXT	SEGMENT PARA USE32 PUBLIC 'CODE'
_TEXT	ENDS
;	COMDAT ?_Color@?$_Tree@V?$_Tmap_traits@GPAUtagMONSTERSHOP@@U?$less@G@std@@V?$allocator@U?$pair@$$CBGPAUtagMONSTERSHOP@@@std@@@3@$0A@@std@@@std@@KAAADPAU_Node@?$_Tree_nod@V?$_Tmap_traits@GPAUtagMONSTERSHOP@@U?$less@G@std@@V?$allocator@U?$pair@$$CBGPAUtagMONSTERSHOP@@@std@@@3@$0A@@std@@@2@@Z
_TEXT	SEGMENT PARA USE32 PUBLIC 'CODE'
_TEXT	ENDS
;	COMDAT ?_Lrotate@?$_Tree@V?$_Tmap_traits@GPAUtagMONSTERSHOP@@U?$less@G@std@@V?$allocator@U?$pair@$$CBGPAUtagMONSTERSHOP@@@std@@@3@$0A@@std@@@std@@IAEXPAU_Node@?$_Tree_nod@V?$_Tmap_traits@GPAUtagMONSTERSHOP@@U?$less@G@std@@V?$allocator@U?$pair@$$CBGPAUtagMONSTERSHOP@@@std@@@3@$0A@@std@@@2@@Z
_TEXT	SEGMENT PARA USE32 PUBLIC 'CODE'
_TEXT	ENDS
;	COMDAT ?_Max@?$_Tree@V?$_Tmap_traits@GPAUtagMONSTERSHOP@@U?$less@G@std@@V?$allocator@U?$pair@$$CBGPAUtagMONSTERSHOP@@@std@@@3@$0A@@std@@@std@@KAPAU_Node@?$_Tree_nod@V?$_Tmap_traits@GPAUtagMONSTERSHOP@@U?$less@G@std@@V?$allocator@U?$pair@$$CBGPAUtagMONSTERSHOP@@@std@@@3@$0A@@std@@@2@PAU342@@Z
_TEXT	SEGMENT PARA USE32 PUBLIC 'CODE'
_TEXT	ENDS
;	COMDAT ?_Min@?$_Tree@V?$_Tmap_traits@GPAUtagMONSTERSHOP@@U?$less@G@std@@V?$allocator@U?$pair@$$CBGPAUtagMONSTERSHOP@@@std@@@3@$0A@@std@@@std@@KAPAU_Node@?$_Tree_nod@V?$_Tmap_traits@GPAUtagMONSTERSHOP@@U?$less@G@std@@V?$allocator@U?$pair@$$CBGPAUtagMONSTERSHOP@@@std@@@3@$0A@@std@@@2@PAU342@@Z
_TEXT	SEGMENT PARA USE32 PUBLIC 'CODE'
_TEXT	ENDS
;	COMDAT ?_Rrotate@?$_Tree@V?$_Tmap_traits@GPAUtagMONSTERSHOP@@U?$less@G@std@@V?$allocator@U?$pair@$$CBGPAUtagMONSTERSHOP@@@std@@@3@$0A@@std@@@std@@IAEXPAU_Node@?$_Tree_nod@V?$_Tmap_traits@GPAUtagMONSTERSHOP@@U?$less@G@std@@V?$allocator@U?$pair@$$CBGPAUtagMONSTERSHOP@@@std@@@3@$0A@@std@@@2@@Z
_TEXT	SEGMENT PARA USE32 PUBLIC 'CODE'
_TEXT	ENDS
;	COMDAT ??0?$_Tree_nod@V?$_Tmap_traits@GPAUtagMONSTERSHOP@@U?$less@G@std@@V?$allocator@U?$pair@$$CBGPAUtagMONSTERSHOP@@@std@@@3@$0A@@std@@@std@@IAE@ABU?$less@G@1@V?$allocator@U?$pair@$$CBGPAUtagMONSTERSHOP@@@std@@@1@@Z
_TEXT	SEGMENT PARA USE32 PUBLIC 'CODE'
_TEXT	ENDS
;	COMDAT ?allocate@?$allocator@U_Node@?$_Tree_nod@V?$_Tmap_traits@GPAUtagMONSTERSHOP@@U?$less@G@std@@V?$allocator@U?$pair@$$CBGPAUtagMONSTERSHOP@@@std@@@3@$0A@@std@@@std@@@std@@QAEPAU_Node@?$_Tree_nod@V?$_Tmap_traits@GPAUtagMONSTERSHOP@@U?$less@G@std@@V?$allocator@U?$pair@$$CBGPAUtagMONSTERSHOP@@@std@@@3@$0A@@std@@@2@I@Z
_TEXT	SEGMENT PARA USE32 PUBLIC 'CODE'
_TEXT	ENDS
;	COMDAT ?construct@?$allocator@PAU_Node@?$_Tree_nod@V?$_Tmap_traits@GPAUtagMONSTERSHOP@@U?$less@G@std@@V?$allocator@U?$pair@$$CBGPAUtagMONSTERSHOP@@@std@@@3@$0A@@std@@@std@@@std@@QAEXPAPAU_Node@?$_Tree_nod@V?$_Tmap_traits@GPAUtagMONSTERSHOP@@U?$less@G@std@@V?$allocator@U?$pair@$$CBGPAUtagMONSTERSHOP@@@std@@@3@$0A@@std@@@2@ABQAU342@@Z
_TEXT	SEGMENT PARA USE32 PUBLIC 'CODE'
_TEXT	ENDS
;	COMDAT ??0?$_Tree_nod@V?$_Tmap_traits@KPAUtagTAUCTION@@U?$less@K@std@@V?$allocator@U?$pair@$$CBKPAUtagTAUCTION@@@std@@@3@$0A@@std@@@std@@IAE@ABU?$less@K@1@V?$allocator@U?$pair@$$CBKPAUtagTAUCTION@@@std@@@1@@Z
_TEXT	SEGMENT PARA USE32 PUBLIC 'CODE'
_TEXT	ENDS
;	COMDAT ?construct@?$allocator@PAU_Node@?$_Tree_nod@V?$_Tmap_traits@KPAUtagTAUCTION@@U?$less@K@std@@V?$allocator@U?$pair@$$CBKPAUtagTAUCTION@@@std@@@3@$0A@@std@@@std@@@std@@QAEXPAPAU_Node@?$_Tree_nod@V?$_Tmap_traits@KPAUtagTAUCTION@@U?$less@K@std@@V?$allocator@U?$pair@$$CBKPAUtagTAUCTION@@@std@@@3@$0A@@std@@@2@ABQAU342@@Z
_TEXT	SEGMENT PARA USE32 PUBLIC 'CODE'
_TEXT	ENDS
;	COMDAT ?_Max@?$_Tree@V?$_Tmap_traits@KPAV?$map@KPAUtagTAUCTION@@U?$less@K@std@@V?$allocator@U?$pair@$$CBKPAUtagTAUCTION@@@std@@@3@@std@@U?$less@K@2@V?$allocator@U?$pair@$$CBKPAV?$map@KPAUtagTAUCTION@@U?$less@K@std@@V?$allocator@U?$pair@$$CBKPAUtagTAUCTION@@@std@@@3@@std@@@std@@@2@$0A@@std@@@std@@KAPAU_Node@?$_Tree_nod@V?$_Tmap_traits@KPAV?$map@KPAUtagTAUCTION@@U?$less@K@std@@V?$allocator@U?$pair@$$CBKPAUtagTAUCTION@@@std@@@3@@std@@U?$less@K@2@V?$allocator@U?$pair@$$CBKPAV?$map@KPAUtagTAUCTION@@U?$less@K@std@@V?$allocator@U?$pair@$$CBKPAUtagTAUCTION@@@std@@@3@@std@@@std@@@2@$0A@@std@@@2@PAU342@@Z
_TEXT	SEGMENT PARA USE32 PUBLIC 'CODE'
_TEXT	ENDS
;	COMDAT ?_Min@?$_Tree@V?$_Tmap_traits@KPAV?$map@KPAUtagTAUCTION@@U?$less@K@std@@V?$allocator@U?$pair@$$CBKPAUtagTAUCTION@@@std@@@3@@std@@U?$less@K@2@V?$allocator@U?$pair@$$CBKPAV?$map@KPAUtagTAUCTION@@U?$less@K@std@@V?$allocator@U?$pair@$$CBKPAUtagTAUCTION@@@std@@@3@@std@@@std@@@2@$0A@@std@@@std@@KAPAU_Node@?$_Tree_nod@V?$_Tmap_traits@KPAV?$map@KPAUtagTAUCTION@@U?$less@K@std@@V?$allocator@U?$pair@$$CBKPAUtagTAUCTION@@@std@@@3@@std@@U?$less@K@2@V?$allocator@U?$pair@$$CBKPAV?$map@KPAUtagTAUCTION@@U?$less@K@std@@V?$allocator@U?$pair@$$CBKPAUtagTAUCTION@@@std@@@3@@std@@@std@@@2@$0A@@std@@@2@PAU342@@Z
_TEXT	SEGMENT PARA USE32 PUBLIC 'CODE'
_TEXT	ENDS
;	COMDAT ??0?$_Tree_nod@V?$_Tmap_traits@KPAV?$map@KPAUtagTAUCTION@@U?$less@K@std@@V?$allocator@U?$pair@$$CBKPAUtagTAUCTION@@@std@@@3@@std@@U?$less@K@2@V?$allocator@U?$pair@$$CBKPAV?$map@KPAUtagTAUCTION@@U?$less@K@std@@V?$allocator@U?$pair@$$CBKPAUtagTAUCTION@@@std@@@3@@std@@@std@@@2@$0A@@std@@@std@@IAE@ABU?$less@K@1@V?$allocator@U?$pair@$$CBKPAV?$map@KPAUtagTAUCTION@@U?$less@K@std@@V?$allocator@U?$pair@$$CBKPAUtagTAUCTION@@@std@@@3@@std@@@std@@@1@@Z
_TEXT	SEGMENT PARA USE32 PUBLIC 'CODE'
_TEXT	ENDS
;	COMDAT ?construct@?$allocator@PAU_Node@?$_Tree_nod@V?$_Tmap_traits@KPAV?$map@KPAUtagTAUCTION@@U?$less@K@std@@V?$allocator@U?$pair@$$CBKPAUtagTAUCTION@@@std@@@3@@std@@U?$less@K@2@V?$allocator@U?$pair@$$CBKPAV?$map@KPAUtagTAUCTION@@U?$less@K@std@@V?$allocator@U?$pair@$$CBKPAUtagTAUCTION@@@std@@@3@@std@@@std@@@2@$0A@@std@@@std@@@std@@QAEXPAPAU_Node@?$_Tree_nod@V?$_Tmap_traits@KPAV?$map@KPAUtagTAUCTION@@U?$less@K@std@@V?$allocator@U?$pair@$$CBKPAUtagTAUCTION@@@std@@@3@@std@@U?$less@K@2@V?$allocator@U?$pair@$$CBKPAV?$map@KPAUtagTAUCTION@@U?$less@K@std@@V?$allocator@U?$pair@$$CBKPAUtagTAUCTION@@@std@@@3@@std@@@std@@@2@$0A@@std@@@2@ABQAU342@@Z
_TEXT	SEGMENT PARA USE32 PUBLIC 'CODE'
_TEXT	ENDS
;	COMDAT ??Eiterator@?$_Tree@V?$_Tmap_traits@GPAUtagTITEM@@U?$less@G@std@@V?$allocator@U?$pair@$$CBGPAUtagTITEM@@@std@@@3@$0A@@std@@@std@@QAEAAV012@XZ
_TEXT	SEGMENT PARA USE32 PUBLIC 'CODE'
_TEXT	ENDS
;	COMDAT ??Eiterator@?$_Tree@V?$_Tmap_traits@GPAVCTSkillTemp@@U?$less@G@std@@V?$allocator@U?$pair@$$CBGPAVCTSkillTemp@@@std@@@3@$0A@@std@@@std@@QAEAAV012@XZ
_TEXT	SEGMENT PARA USE32 PUBLIC 'CODE'
_TEXT	ENDS
;	COMDAT ?max_size@?$allocator@PAUtagTAUCTION@@@std@@QBEIXZ
_TEXT	SEGMENT PARA USE32 PUBLIC 'CODE'
_TEXT	ENDS
;	COMDAT ??0?$_Tmap_traits@GPAUtagTITEM@@U?$less@G@std@@V?$allocator@U?$pair@$$CBGPAUtagTITEM@@@std@@@3@$0A@@std@@QAE@U?$less@G@1@@Z
_TEXT	SEGMENT PARA USE32 PUBLIC 'CODE'
_TEXT	ENDS
;	COMDAT ??0?$_Tmap_traits@GPAVCTSkillTemp@@U?$less@G@std@@V?$allocator@U?$pair@$$CBGPAVCTSkillTemp@@@std@@@3@$0A@@std@@QAE@U?$less@G@1@@Z
_TEXT	SEGMENT PARA USE32 PUBLIC 'CODE'
_TEXT	ENDS
;	COMDAT ??0?$_Tmap_traits@GPAUtagMONSTERSHOP@@U?$less@G@std@@V?$allocator@U?$pair@$$CBGPAUtagMONSTERSHOP@@@std@@@3@$0A@@std@@QAE@U?$less@G@1@@Z
_TEXT	SEGMENT PARA USE32 PUBLIC 'CODE'
_TEXT	ENDS
;	COMDAT ??0?$_Tmap_traits@KPAUtagTAUCTION@@U?$less@K@std@@V?$allocator@U?$pair@$$CBKPAUtagTAUCTION@@@std@@@3@$0A@@std@@QAE@U?$less@K@1@@Z
_TEXT	SEGMENT PARA USE32 PUBLIC 'CODE'
_TEXT	ENDS
;	COMDAT ??0?$_Tmap_traits@KPAV?$map@KPAUtagTAUCTION@@U?$less@K@std@@V?$allocator@U?$pair@$$CBKPAUtagTAUCTION@@@std@@@3@@std@@U?$less@K@2@V?$allocator@U?$pair@$$CBKPAV?$map@KPAUtagTAUCTION@@U?$less@K@std@@V?$allocator@U?$pair@$$CBKPAUtagTAUCTION@@@std@@@3@@std@@@std@@@2@$0A@@std@@QAE@U?$less@K@1@@Z
_TEXT	SEGMENT PARA USE32 PUBLIC 'CODE'
_TEXT	ENDS
;	COMDAT ??Econst_iterator@?$_Tree@V?$_Tmap_traits@GPAUtagTITEM@@U?$less@G@std@@V?$allocator@U?$pair@$$CBGPAUtagTITEM@@@std@@@3@$0A@@std@@@std@@QAEAAV012@XZ
_TEXT	SEGMENT PARA USE32 PUBLIC 'CODE'
_TEXT	ENDS
;	COMDAT ??Econst_iterator@?$_Tree@V?$_Tmap_traits@GPAVCTSkillTemp@@U?$less@G@std@@V?$allocator@U?$pair@$$CBGPAVCTSkillTemp@@@std@@@3@$0A@@std@@@std@@QAEAAV012@XZ
_TEXT	SEGMENT PARA USE32 PUBLIC 'CODE'
_TEXT	ENDS
;	COMDAT ?_Inc@const_iterator@?$_Tree@V?$_Tmap_traits@GPAUtagTITEM@@U?$less@G@std@@V?$allocator@U?$pair@$$CBGPAUtagTITEM@@@std@@@3@$0A@@std@@@std@@QAEXXZ
_TEXT	SEGMENT PARA USE32 PUBLIC 'CODE'
_TEXT	ENDS
;	COMDAT ?_Inc@const_iterator@?$_Tree@V?$_Tmap_traits@GPAVCTSkillTemp@@U?$less@G@std@@V?$allocator@U?$pair@$$CBGPAVCTSkillTemp@@@std@@@3@$0A@@std@@@std@@QAEXXZ
_TEXT	SEGMENT PARA USE32 PUBLIC 'CODE'
_TEXT	ENDS
;	COMDAT ?Unlock@?$CComCritSecLock@VCComCriticalSection@ATL@@@ATL@@QAEXXZ
_TEXT	SEGMENT PARA USE32 PUBLIC 'CODE'
_TEXT	ENDS
;	COMDAT ??$_Uninit_fill_n@GIG@std@@YAXPAGIABGAAV?$allocator@G@0@U_Scalar_ptr_iterator_tag@0@@Z
_TEXT	SEGMENT PARA USE32 PUBLIC 'CODE'
_TEXT	ENDS
;	COMDAT ??$_Ptr_cat@UtagTAICONDITION@@@std@@YA?AU_Scalar_ptr_iterator_tag@0@PAPAUtagTAICONDITION@@0@Z
_TEXT	SEGMENT PARA USE32 PUBLIC 'CODE'
_TEXT	ENDS
;	COMDAT ??$_Destroy_range@PAUtagTAICONDITION@@V?$allocator@PAUtagTAICONDITION@@@std@@@std@@YAXPAPAUtagTAICONDITION@@0AAV?$allocator@PAUtagTAICONDITION@@@0@U_Scalar_ptr_iterator_tag@0@@Z
_TEXT	SEGMENT PARA USE32 PUBLIC 'CODE'
_TEXT	ENDS
;	COMDAT ??$_Ptr_cat@UtagTMONITEM@@@std@@YA?AU_Scalar_ptr_iterator_tag@0@PAPAUtagTMONITEM@@0@Z
_TEXT	SEGMENT PARA USE32 PUBLIC 'CODE'
_TEXT	ENDS
;	COMDAT ??$_Destroy_range@PAUtagTMONITEM@@V?$allocator@PAUtagTMONITEM@@@std@@@std@@YAXPAPAUtagTMONITEM@@0AAV?$allocator@PAUtagTMONITEM@@@0@U_Scalar_ptr_iterator_tag@0@@Z
_TEXT	SEGMENT PARA USE32 PUBLIC 'CODE'
_TEXT	ENDS
;	COMDAT ??$_Ptr_cat@UtagTMAPMON@@@std@@YA?AU_Scalar_ptr_iterator_tag@0@PAPAUtagTMAPMON@@0@Z
_TEXT	SEGMENT PARA USE32 PUBLIC 'CODE'
_TEXT	ENDS
;	COMDAT ??$_Destroy_range@PAUtagTMAPMON@@V?$allocator@PAUtagTMAPMON@@@std@@@std@@YAXPAPAUtagTMAPMON@@0AAV?$allocator@PAUtagTMAPMON@@@0@U_Scalar_ptr_iterator_tag@0@@Z
_TEXT	SEGMENT PARA USE32 PUBLIC 'CODE'
_TEXT	ENDS
;	COMDAT ??$_Ptr_cat@UtagPATHPOINT@@@std@@YA?AU_Scalar_ptr_iterator_tag@0@PAPAUtagPATHPOINT@@0@Z
_TEXT	SEGMENT PARA USE32 PUBLIC 'CODE'
_TEXT	ENDS
;	COMDAT ??$_Destroy_range@PAUtagPATHPOINT@@V?$allocator@PAUtagPATHPOINT@@@std@@@std@@YAXPAPAUtagPATHPOINT@@0AAV?$allocator@PAUtagPATHPOINT@@@0@U_Scalar_ptr_iterator_tag@0@@Z
_TEXT	SEGMENT PARA USE32 PUBLIC 'CODE'
_TEXT	ENDS
;	COMDAT ??$_Ptr_cat@UtagQUESTCONDITION@@@std@@YA?AU_Scalar_ptr_iterator_tag@0@PAPAUtagQUESTCONDITION@@0@Z
_TEXT	SEGMENT PARA USE32 PUBLIC 'CODE'
_TEXT	ENDS
;	COMDAT ??$_Destroy_range@PAUtagQUESTCONDITION@@V?$allocator@PAUtagQUESTCONDITION@@@std@@@std@@YAXPAPAUtagQUESTCONDITION@@0AAV?$allocator@PAUtagQUESTCONDITION@@@0@U_Scalar_ptr_iterator_tag@0@@Z
_TEXT	SEGMENT PARA USE32 PUBLIC 'CODE'
_TEXT	ENDS
;	COMDAT ??$_Ptr_cat@UtagQUESTREWARD@@@std@@YA?AU_Scalar_ptr_iterator_tag@0@PAPAUtagQUESTREWARD@@0@Z
_TEXT	SEGMENT PARA USE32 PUBLIC 'CODE'
_TEXT	ENDS
;	COMDAT ??$_Destroy_range@PAUtagQUESTREWARD@@V?$allocator@PAUtagQUESTREWARD@@@std@@@std@@YAXPAPAUtagQUESTREWARD@@0AAV?$allocator@PAUtagQUESTREWARD@@@0@U_Scalar_ptr_iterator_tag@0@@Z
_TEXT	SEGMENT PARA USE32 PUBLIC 'CODE'
_TEXT	ENDS
;	COMDAT ??$_Ptr_cat@UtagQUESTTERM@@@std@@YA?AU_Scalar_ptr_iterator_tag@0@PAPAUtagQUESTTERM@@0@Z
_TEXT	SEGMENT PARA USE32 PUBLIC 'CODE'
_TEXT	ENDS
;	COMDAT ??$_Destroy_range@PAUtagQUESTTERM@@V?$allocator@PAUtagQUESTTERM@@@std@@@std@@YAXPAPAUtagQUESTTERM@@0AAV?$allocator@PAUtagQUESTTERM@@@0@U_Scalar_ptr_iterator_tag@0@@Z
_TEXT	SEGMENT PARA USE32 PUBLIC 'CODE'
_TEXT	ENDS
;	COMDAT ??$_Ptr_cat@PAUtagTCASHITMSALE@@PAU1@@std@@YA?AU_Nonscalar_ptr_iterator_tag@0@AAPAUtagTCASHITMSALE@@0@Z
_TEXT	SEGMENT PARA USE32 PUBLIC 'CODE'
_TEXT	ENDS
;	COMDAT ??$_Uninit_fill_n@PAUtagTCASHITMSALE@@IU1@V?$allocator@UtagTCASHITMSALE@@@std@@@std@@YAXPAUtagTCASHITMSALE@@IABU1@AAV?$allocator@UtagTCASHITMSALE@@@0@U_Nonscalar_ptr_iterator_tag@0@@Z
_TEXT	SEGMENT PARA USE32 PUBLIC 'CODE'
_TEXT	ENDS
;	COMDAT ??$_Ptr_cat@PAUtagMONREGEN@@PAU1@@std@@YA?AU_Nonscalar_ptr_iterator_tag@0@AAPAUtagMONREGEN@@0@Z
_TEXT	SEGMENT PARA USE32 PUBLIC 'CODE'
_TEXT	ENDS
;	COMDAT ??$_Uninit_fill_n@PAUtagMONREGEN@@IU1@V?$allocator@UtagMONREGEN@@@std@@@std@@YAXPAUtagMONREGEN@@IABU1@AAV?$allocator@UtagMONREGEN@@@0@U_Nonscalar_ptr_iterator_tag@0@@Z
_TEXT	SEGMENT PARA USE32 PUBLIC 'CODE'
_TEXT	ENDS
;	COMDAT ??$_Ptr_cat@PAUtagLOTTERY@@PAU1@@std@@YA?AU_Nonscalar_ptr_iterator_tag@0@AAPAUtagLOTTERY@@0@Z
_TEXT	SEGMENT PARA USE32 PUBLIC 'CODE'
_TEXT	ENDS
;	COMDAT ??$_Uninit_fill_n@PAUtagLOTTERY@@IU1@V?$allocator@UtagLOTTERY@@@std@@@std@@YAXPAUtagLOTTERY@@IABU1@AAV?$allocator@UtagLOTTERY@@@0@U_Nonscalar_ptr_iterator_tag@0@@Z
_TEXT	SEGMENT PARA USE32 PUBLIC 'CODE'
_TEXT	ENDS
;	COMDAT ??$_Destroy_range@GV?$allocator@G@std@@@std@@YAXPAG0AAV?$allocator@G@0@U_Scalar_ptr_iterator_tag@0@@Z
_TEXT	SEGMENT PARA USE32 PUBLIC 'CODE'
_TEXT	ENDS
;	COMDAT ??$_Uninitialized_copy@PAGPAGV?$allocator@G@std@@@std@@YAPAGPAG00AAV?$allocator@G@0@@Z
_TEXT	SEGMENT PARA USE32 PUBLIC 'CODE'
_TEXT	ENDS
;	COMDAT ??$_Copy_backward_opt@PAGPAG@std@@YAPAGPAG00U_Scalar_ptr_iterator_tag@0@@Z
_TEXT	SEGMENT PARA USE32 PUBLIC 'CODE'
_TEXT	ENDS
;	COMDAT ??$_Ptr_cat@VCTPlayer@@@std@@YA?AU_Scalar_ptr_iterator_tag@0@PAPAVCTPlayer@@0@Z
_TEXT	SEGMENT PARA USE32 PUBLIC 'CODE'
_TEXT	ENDS
;	COMDAT ??$_Destroy_range@PAVCTPlayer@@V?$allocator@PAVCTPlayer@@@std@@@std@@YAXPAPAVCTPlayer@@0AAV?$allocator@PAVCTPlayer@@@0@U_Scalar_ptr_iterator_tag@0@@Z
_TEXT	SEGMENT PARA USE32 PUBLIC 'CODE'
_TEXT	ENDS
;	COMDAT ??$_Destroy_range@UtagTCASHITMSALE@@V?$allocator@UtagTCASHITMSALE@@@std@@@std@@YAXPAUtagTCASHITMSALE@@0AAV?$allocator@UtagTCASHITMSALE@@@0@U_Nonscalar_ptr_iterator_tag@0@@Z
_TEXT	SEGMENT PARA USE32 PUBLIC 'CODE'
_TEXT	ENDS
;	COMDAT ??$_Uninitialized_copy@PAUtagTCASHITMSALE@@PAU1@V?$allocator@UtagTCASHITMSALE@@@std@@@std@@YAPAUtagTCASHITMSALE@@PAU1@00AAV?$allocator@UtagTCASHITMSALE@@@0@@Z
_TEXT	SEGMENT PARA USE32 PUBLIC 'CODE'
_TEXT	ENDS
;	COMDAT ??$_Copy_backward_opt@PAUtagTCASHITMSALE@@PAU1@@std@@YAPAUtagTCASHITMSALE@@PAU1@00U_Nonscalar_ptr_iterator_tag@0@@Z
_TEXT	SEGMENT PARA USE32 PUBLIC 'CODE'
_TEXT	ENDS
;	COMDAT ??$_Destroy_range@UtagMONREGEN@@V?$allocator@UtagMONREGEN@@@std@@@std@@YAXPAUtagMONREGEN@@0AAV?$allocator@UtagMONREGEN@@@0@U_Nonscalar_ptr_iterator_tag@0@@Z
_TEXT	SEGMENT PARA USE32 PUBLIC 'CODE'
_TEXT	ENDS
;	COMDAT ??$_Uninitialized_copy@PAUtagMONREGEN@@PAU1@V?$allocator@UtagMONREGEN@@@std@@@std@@YAPAUtagMONREGEN@@PAU1@00AAV?$allocator@UtagMONREGEN@@@0@@Z
_TEXT	SEGMENT PARA USE32 PUBLIC 'CODE'
_TEXT	ENDS
;	COMDAT ??$_Copy_backward_opt@PAUtagMONREGEN@@PAU1@@std@@YAPAUtagMONREGEN@@PAU1@00U_Nonscalar_ptr_iterator_tag@0@@Z
_TEXT	SEGMENT PARA USE32 PUBLIC 'CODE'
_TEXT	ENDS
;	COMDAT ??$_Destroy_range@UtagLOTTERY@@V?$allocator@UtagLOTTERY@@@std@@@std@@YAXPAUtagLOTTERY@@0AAV?$allocator@UtagLOTTERY@@@0@U_Nonscalar_ptr_iterator_tag@0@@Z
_TEXT	SEGMENT PARA USE32 PUBLIC 'CODE'
_TEXT	ENDS
;	COMDAT ??$_Uninitialized_copy@PAUtagLOTTERY@@PAU1@V?$allocator@UtagLOTTERY@@@std@@@std@@YAPAUtagLOTTERY@@PAU1@00AAV?$allocator@UtagLOTTERY@@@0@@Z
_TEXT	SEGMENT PARA USE32 PUBLIC 'CODE'
_TEXT	ENDS
;	COMDAT ??$_Copy_backward_opt@PAUtagLOTTERY@@PAU1@@std@@YAPAUtagLOTTERY@@PAU1@00U_Nonscalar_ptr_iterator_tag@0@@Z
_TEXT	SEGMENT PARA USE32 PUBLIC 'CODE'
_TEXT	ENDS
;	COMDAT ??$sort@Viterator@?$vector@PAUtagTAUCTION@@V?$allocator@PAUtagTAUCTION@@@std@@@std@@UAuctionIDASC@@@std@@YAXViterator@?$vector@PAUtagTAUCTION@@V?$allocator@PAUtagTAUCTION@@@std@@@0@0UAuctionIDASC@@@Z
_TEXT	SEGMENT PARA USE32 PUBLIC 'CODE'
_TEXT	ENDS
;	COMDAT ??$sort@Viterator@?$vector@PAUtagTAUCTION@@V?$allocator@PAUtagTAUCTION@@@std@@@std@@UAuctionIDDESC@@@std@@YAXViterator@?$vector@PAUtagTAUCTION@@V?$allocator@PAUtagTAUCTION@@@std@@@0@0UAuctionIDDESC@@@Z
_TEXT	SEGMENT PARA USE32 PUBLIC 'CODE'
_TEXT	ENDS
;	COMDAT ??$sort@Viterator@?$vector@PAUtagTAUCTION@@V?$allocator@PAUtagTAUCTION@@@std@@@std@@UEndTimeASC@@@std@@YAXViterator@?$vector@PAUtagTAUCTION@@V?$allocator@PAUtagTAUCTION@@@std@@@0@0UEndTimeASC@@@Z
_TEXT	SEGMENT PARA USE32 PUBLIC 'CODE'
_TEXT	ENDS
;	COMDAT ??$sort@Viterator@?$vector@PAUtagTAUCTION@@V?$allocator@PAUtagTAUCTION@@@std@@@std@@UEndTimeDESC@@@std@@YAXViterator@?$vector@PAUtagTAUCTION@@V?$allocator@PAUtagTAUCTION@@@std@@@0@0UEndTimeDESC@@@Z
_TEXT	SEGMENT PARA USE32 PUBLIC 'CODE'
_TEXT	ENDS
;	COMDAT ??$sort@Viterator@?$vector@PAUtagTAUCTION@@V?$allocator@PAUtagTAUCTION@@@std@@@std@@URemainTimeASC@@@std@@YAXViterator@?$vector@PAUtagTAUCTION@@V?$allocator@PAUtagTAUCTION@@@std@@@0@0URemainTimeASC@@@Z
_TEXT	SEGMENT PARA USE32 PUBLIC 'CODE'
_TEXT	ENDS
;	COMDAT ??$sort@Viterator@?$vector@PAUtagTAUCTION@@V?$allocator@PAUtagTAUCTION@@@std@@@std@@URemainTimeDESC@@@std@@YAXViterator@?$vector@PAUtagTAUCTION@@V?$allocator@PAUtagTAUCTION@@@std@@@0@0URemainTimeDESC@@@Z
_TEXT	SEGMENT PARA USE32 PUBLIC 'CODE'
_TEXT	ENDS
;	COMDAT ??$sort@Viterator@?$vector@PAUtagTAUCTION@@V?$allocator@PAUtagTAUCTION@@@std@@@std@@UBidPriceASC@@@std@@YAXViterator@?$vector@PAUtagTAUCTION@@V?$allocator@PAUtagTAUCTION@@@std@@@0@0UBidPriceASC@@@Z
_TEXT	SEGMENT PARA USE32 PUBLIC 'CODE'
_TEXT	ENDS
;	COMDAT ??$sort@Viterator@?$vector@PAUtagTAUCTION@@V?$allocator@PAUtagTAUCTION@@@std@@@std@@UBidPriceDESC@@@std@@YAXViterator@?$vector@PAUtagTAUCTION@@V?$allocator@PAUtagTAUCTION@@@std@@@0@0UBidPriceDESC@@@Z
_TEXT	SEGMENT PARA USE32 PUBLIC 'CODE'
_TEXT	ENDS
;	COMDAT ??$sort@Viterator@?$vector@PAUtagTAUCTION@@V?$allocator@PAUtagTAUCTION@@@std@@@std@@UDirectPriceASC@@@std@@YAXViterator@?$vector@PAUtagTAUCTION@@V?$allocator@PAUtagTAUCTION@@@std@@@0@0UDirectPriceASC@@@Z
_TEXT	SEGMENT PARA USE32 PUBLIC 'CODE'
_TEXT	ENDS
;	COMDAT ??$sort@Viterator@?$vector@PAUtagTAUCTION@@V?$allocator@PAUtagTAUCTION@@@std@@@std@@UDirectPriceDESC@@@std@@YAXViterator@?$vector@PAUtagTAUCTION@@V?$allocator@PAUtagTAUCTION@@@std@@@0@0UDirectPriceDESC@@@Z
_TEXT	SEGMENT PARA USE32 PUBLIC 'CODE'
_TEXT	ENDS
;	COMDAT ??$sort@Viterator@?$vector@PAUtagTAUCTION@@V?$allocator@PAUtagTAUCTION@@@std@@@std@@UBidCountASC@@@std@@YAXViterator@?$vector@PAUtagTAUCTION@@V?$allocator@PAUtagTAUCTION@@@std@@@0@0UBidCountASC@@@Z
_TEXT	SEGMENT PARA USE32 PUBLIC 'CODE'
_TEXT	ENDS
;	COMDAT ??$sort@Viterator@?$vector@PAUtagTAUCTION@@V?$allocator@PAUtagTAUCTION@@@std@@@std@@UBidCountDESC@@@std@@YAXViterator@?$vector@PAUtagTAUCTION@@V?$allocator@PAUtagTAUCTION@@@std@@@0@0UBidCountDESC@@@Z
_TEXT	SEGMENT PARA USE32 PUBLIC 'CODE'
_TEXT	ENDS
;	COMDAT ??$sort@Viterator@?$vector@PAUtagTAUCTION@@V?$allocator@PAUtagTAUCTION@@@std@@@std@@UClassASC@@@std@@YAXViterator@?$vector@PAUtagTAUCTION@@V?$allocator@PAUtagTAUCTION@@@std@@@0@0UClassASC@@@Z
_TEXT	SEGMENT PARA USE32 PUBLIC 'CODE'
_TEXT	ENDS
;	COMDAT ??$sort@Viterator@?$vector@PAUtagTAUCTION@@V?$allocator@PAUtagTAUCTION@@@std@@@std@@UClassDESC@@@std@@YAXViterator@?$vector@PAUtagTAUCTION@@V?$allocator@PAUtagTAUCTION@@@std@@@0@0UClassDESC@@@Z
_TEXT	SEGMENT PARA USE32 PUBLIC 'CODE'
_TEXT	ENDS
;	COMDAT ??$sort@Viterator@?$vector@PAUtagTAUCTION@@V?$allocator@PAUtagTAUCTION@@@std@@@std@@USellerNameASC@@@std@@YAXViterator@?$vector@PAUtagTAUCTION@@V?$allocator@PAUtagTAUCTION@@@std@@@0@0USellerNameASC@@@Z
_TEXT	SEGMENT PARA USE32 PUBLIC 'CODE'
_TEXT	ENDS
;	COMDAT ??$sort@Viterator@?$vector@PAUtagTAUCTION@@V?$allocator@PAUtagTAUCTION@@@std@@@std@@USellerNameDESC@@@std@@YAXViterator@?$vector@PAUtagTAUCTION@@V?$allocator@PAUtagTAUCTION@@@std@@@0@0USellerNameDESC@@@Z
_TEXT	SEGMENT PARA USE32 PUBLIC 'CODE'
_TEXT	ENDS
;	COMDAT ??$reverse@Viterator@?$vector@PAUtagTAUCTION@@V?$allocator@PAUtagTAUCTION@@@std@@@std@@@std@@YAXViterator@?$vector@PAUtagTAUCTION@@V?$allocator@PAUtagTAUCTION@@@std@@@0@0@Z
_TEXT	SEGMENT PARA USE32 PUBLIC 'CODE'
_TEXT	ENDS
;	COMDAT ??$sort@Viterator@?$vector@PAUtagTAUCTION@@V?$allocator@PAUtagTAUCTION@@@std@@@std@@UWearLevelASC@@@std@@YAXViterator@?$vector@PAUtagTAUCTION@@V?$allocator@PAUtagTAUCTION@@@std@@@0@0UWearLevelASC@@@Z
_TEXT	SEGMENT PARA USE32 PUBLIC 'CODE'
_TEXT	ENDS
;	COMDAT ??$sort@Viterator@?$vector@PAUtagTAUCTION@@V?$allocator@PAUtagTAUCTION@@@std@@@std@@UWearLevelDESC@@@std@@YAXViterator@?$vector@PAUtagTAUCTION@@V?$allocator@PAUtagTAUCTION@@@std@@@0@0UWearLevelDESC@@@Z
_TEXT	SEGMENT PARA USE32 PUBLIC 'CODE'
_TEXT	ENDS
;	COMDAT ??$sort@Viterator@?$vector@PAUtagTAUCTION@@V?$allocator@PAUtagTAUCTION@@@std@@@std@@UItemLevelASC@@@std@@YAXViterator@?$vector@PAUtagTAUCTION@@V?$allocator@PAUtagTAUCTION@@@std@@@0@0UItemLevelASC@@@Z
_TEXT	SEGMENT PARA USE32 PUBLIC 'CODE'
_TEXT	ENDS
;	COMDAT ??$sort@Viterator@?$vector@PAUtagTAUCTION@@V?$allocator@PAUtagTAUCTION@@@std@@@std@@UItemLevelDESC@@@std@@YAXViterator@?$vector@PAUtagTAUCTION@@V?$allocator@PAUtagTAUCTION@@@std@@@0@0UItemLevelDESC@@@Z
_TEXT	SEGMENT PARA USE32 PUBLIC 'CODE'
_TEXT	ENDS
;	COMDAT ??$_Destroy@U_Node@?$_Tree_nod@V?$_Tmap_traits@KPAUtagTAUCTION@@U?$less@K@std@@V?$allocator@U?$pair@$$CBKPAUtagTAUCTION@@@std@@@3@$0A@@std@@@std@@@std@@YAXPAU_Node@?$_Tree_nod@V?$_Tmap_traits@KPAUtagTAUCTION@@U?$less@K@std@@V?$allocator@U?$pair@$$CBKPAUtagTAUCTION@@@std@@@3@$0A@@std@@@0@@Z
_TEXT	SEGMENT PARA USE32 PUBLIC 'CODE'
_TEXT	ENDS
;	COMDAT ??$_Uninitialized_fill_n@PAPAUtagTAUCTION@@IPAU1@V?$allocator@PAUtagTAUCTION@@@std@@@std@@YAXPAPAUtagTAUCTION@@IABQAU1@AAV?$allocator@PAUtagTAUCTION@@@0@@Z
_TEXT	SEGMENT PARA USE32 PUBLIC 'CODE'
_TEXT	ENDS
;	COMDAT ??$_Destroy@U_Node@?$_Tree_nod@V?$_Tmap_traits@GPAUtagTITEM@@U?$less@G@std@@V?$allocator@U?$pair@$$CBGPAUtagTITEM@@@std@@@3@$0A@@std@@@std@@@std@@YAXPAU_Node@?$_Tree_nod@V?$_Tmap_traits@GPAUtagTITEM@@U?$less@G@std@@V?$allocator@U?$pair@$$CBGPAUtagTITEM@@@std@@@3@$0A@@std@@@0@@Z
_TEXT	SEGMENT PARA USE32 PUBLIC 'CODE'
_TEXT	ENDS
;	COMDAT ??$_Destroy@PAU_Node@?$_Tree_nod@V?$_Tmap_traits@GPAUtagTITEM@@U?$less@G@std@@V?$allocator@U?$pair@$$CBGPAUtagTITEM@@@std@@@3@$0A@@std@@@std@@@std@@YAXPAPAU_Node@?$_Tree_nod@V?$_Tmap_traits@GPAUtagTITEM@@U?$less@G@std@@V?$allocator@U?$pair@$$CBGPAUtagTITEM@@@std@@@3@$0A@@std@@@0@@Z
_TEXT	SEGMENT PARA USE32 PUBLIC 'CODE'
_TEXT	ENDS
;	COMDAT ??$_Destroy@U_Node@?$_Tree_nod@V?$_Tmap_traits@GPAVCTSkillTemp@@U?$less@G@std@@V?$allocator@U?$pair@$$CBGPAVCTSkillTemp@@@std@@@3@$0A@@std@@@std@@@std@@YAXPAU_Node@?$_Tree_nod@V?$_Tmap_traits@GPAVCTSkillTemp@@U?$less@G@std@@V?$allocator@U?$pair@$$CBGPAVCTSkillTemp@@@std@@@3@$0A@@std@@@0@@Z
_TEXT	SEGMENT PARA USE32 PUBLIC 'CODE'
_TEXT	ENDS
;	COMDAT ??$_Destroy@PAU_Node@?$_Tree_nod@V?$_Tmap_traits@GPAVCTSkillTemp@@U?$less@G@std@@V?$allocator@U?$pair@$$CBGPAVCTSkillTemp@@@std@@@3@$0A@@std@@@std@@@std@@YAXPAPAU_Node@?$_Tree_nod@V?$_Tmap_traits@GPAVCTSkillTemp@@U?$less@G@std@@V?$allocator@U?$pair@$$CBGPAVCTSkillTemp@@@std@@@3@$0A@@std@@@0@@Z
_TEXT	SEGMENT PARA USE32 PUBLIC 'CODE'
_TEXT	ENDS
;	COMDAT ??$_Destroy@U_Node@?$_Tree_nod@V?$_Tmap_traits@GPAUtagMONSTERSHOP@@U?$less@G@std@@V?$allocator@U?$pair@$$CBGPAUtagMONSTERSHOP@@@std@@@3@$0A@@std@@@std@@@std@@YAXPAU_Node@?$_Tree_nod@V?$_Tmap_traits@GPAUtagMONSTERSHOP@@U?$less@G@std@@V?$allocator@U?$pair@$$CBGPAUtagMONSTERSHOP@@@std@@@3@$0A@@std@@@0@@Z
_TEXT	SEGMENT PARA USE32 PUBLIC 'CODE'
_TEXT	ENDS
;	COMDAT ??$_Destroy@PAU_Node@?$_Tree_nod@V?$_Tmap_traits@GPAUtagMONSTERSHOP@@U?$less@G@std@@V?$allocator@U?$pair@$$CBGPAUtagMONSTERSHOP@@@std@@@3@$0A@@std@@@std@@@std@@YAXPAPAU_Node@?$_Tree_nod@V?$_Tmap_traits@GPAUtagMONSTERSHOP@@U?$less@G@std@@V?$allocator@U?$pair@$$CBGPAUtagMONSTERSHOP@@@std@@@3@$0A@@std@@@0@@Z
_TEXT	SEGMENT PARA USE32 PUBLIC 'CODE'
_TEXT	ENDS
;	COMDAT ??$_Destroy@PAU_Node@?$_Tree_nod@V?$_Tmap_traits@KPAUtagTAUCTION@@U?$less@K@std@@V?$allocator@U?$pair@$$CBKPAUtagTAUCTION@@@std@@@3@$0A@@std@@@std@@@std@@YAXPAPAU_Node@?$_Tree_nod@V?$_Tmap_traits@KPAUtagTAUCTION@@U?$less@K@std@@V?$allocator@U?$pair@$$CBKPAUtagTAUCTION@@@std@@@3@$0A@@std@@@0@@Z
_TEXT	SEGMENT PARA USE32 PUBLIC 'CODE'
_TEXT	ENDS
;	COMDAT ??$_Destroy@U_Node@?$_Tree_nod@V?$_Tmap_traits@KPAV?$map@KPAUtagTAUCTION@@U?$less@K@std@@V?$allocator@U?$pair@$$CBKPAUtagTAUCTION@@@std@@@3@@std@@U?$less@K@2@V?$allocator@U?$pair@$$CBKPAV?$map@KPAUtagTAUCTION@@U?$less@K@std@@V?$allocator@U?$pair@$$CBKPAUtagTAUCTION@@@std@@@3@@std@@@std@@@2@$0A@@std@@@std@@@std@@YAXPAU_Node@?$_Tree_nod@V?$_Tmap_traits@KPAV?$map@KPAUtagTAUCTION@@U?$less@K@std@@V?$allocator@U?$pair@$$CBKPAUtagTAUCTION@@@std@@@3@@std@@U?$less@K@2@V?$allocator@U?$pair@$$CBKPAV?$map@KPAUtagTAUCTION@@U?$less@K@std@@V?$allocator@U?$pair@$$CBKPAUtagTAUCTION@@@std@@@3@@std@@@std@@@2@$0A@@std@@@0@@Z
_TEXT	SEGMENT PARA USE32 PUBLIC 'CODE'
_TEXT	ENDS
;	COMDAT ??$_Destroy@PAU_Node@?$_Tree_nod@V?$_Tmap_traits@KPAV?$map@KPAUtagTAUCTION@@U?$less@K@std@@V?$allocator@U?$pair@$$CBKPAUtagTAUCTION@@@std@@@3@@std@@U?$less@K@2@V?$allocator@U?$pair@$$CBKPAV?$map@KPAUtagTAUCTION@@U?$less@K@std@@V?$allocator@U?$pair@$$CBKPAUtagTAUCTION@@@std@@@3@@std@@@std@@@2@$0A@@std@@@std@@@std@@YAXPAPAU_Node@?$_Tree_nod@V?$_Tmap_traits@KPAV?$map@KPAUtagTAUCTION@@U?$less@K@std@@V?$allocator@U?$pair@$$CBKPAUtagTAUCTION@@@std@@@3@@std@@U?$less@K@2@V?$allocator@U?$pair@$$CBKPAV?$map@KPAUtagTAUCTION@@U?$less@K@std@@V?$allocator@U?$pair@$$CBKPAUtagTAUCTION@@@std@@@3@@std@@@std@@@2@$0A@@std@@@0@@Z
_TEXT	SEGMENT PARA USE32 PUBLIC 'CODE'
_TEXT	ENDS
;	COMDAT ??$_Ucopy@PAPAUtagTAUCTION@@@?$vector@PAUtagTAUCTION@@V?$allocator@PAUtagTAUCTION@@@std@@@std@@IAEPAPAUtagTAUCTION@@PAPAU2@00@Z
_TEXT	SEGMENT PARA USE32 PUBLIC 'CODE'
_TEXT	ENDS
;	COMDAT ??$fill@PAPAUtagTAUCTION@@PAU1@@std@@YAXPAPAUtagTAUCTION@@0ABQAU1@@Z
_TEXT	SEGMENT PARA USE32 PUBLIC 'CODE'
_TEXT	ENDS
;	COMDAT ??$copy_backward@PAPAUtagTAUCTION@@PAPAU1@@std@@YAPAPAUtagTAUCTION@@PAPAU1@00@Z
_TEXT	SEGMENT PARA USE32 PUBLIC 'CODE'
_TEXT	ENDS
;	COMDAT ??$_Allocate@U_Node@?$_Tree_nod@V?$_Tmap_traits@KKU?$less@K@std@@V?$allocator@U?$pair@$$CBKK@std@@@2@$0A@@std@@@std@@@std@@YAPAU_Node@?$_Tree_nod@V?$_Tmap_traits@KKU?$less@K@std@@V?$allocator@U?$pair@$$CBKK@std@@@2@$0A@@std@@@0@IPAU120@@Z
_TEXT	SEGMENT PARA USE32 PUBLIC 'CODE'
_TEXT	ENDS
;	COMDAT ??$?0U?$pair@$$CBGPAUtagTITEM@@@std@@@?$allocator@PAU_Node@?$_Tree_nod@V?$_Tmap_traits@GPAUtagTITEM@@U?$less@G@std@@V?$allocator@U?$pair@$$CBGPAUtagTITEM@@@std@@@3@$0A@@std@@@std@@@std@@QAE@ABV?$allocator@U?$pair@$$CBGPAUtagTITEM@@@std@@@1@@Z
_TEXT	SEGMENT PARA USE32 PUBLIC 'CODE'
_TEXT	ENDS
;	COMDAT ??$?0U?$pair@$$CBGPAVCTSkillTemp@@@std@@@?$allocator@PAU_Node@?$_Tree_nod@V?$_Tmap_traits@GPAVCTSkillTemp@@U?$less@G@std@@V?$allocator@U?$pair@$$CBGPAVCTSkillTemp@@@std@@@3@$0A@@std@@@std@@@std@@QAE@ABV?$allocator@U?$pair@$$CBGPAVCTSkillTemp@@@std@@@1@@Z
_TEXT	SEGMENT PARA USE32 PUBLIC 'CODE'
_TEXT	ENDS
;	COMDAT ??$?0U?$pair@$$CBGPAUtagMONSTERSHOP@@@std@@@?$allocator@PAU_Node@?$_Tree_nod@V?$_Tmap_traits@GPAUtagMONSTERSHOP@@U?$less@G@std@@V?$allocator@U?$pair@$$CBGPAUtagMONSTERSHOP@@@std@@@3@$0A@@std@@@std@@@std@@QAE@ABV?$allocator@U?$pair@$$CBGPAUtagMONSTERSHOP@@@std@@@1@@Z
_TEXT	SEGMENT PARA USE32 PUBLIC 'CODE'
_TEXT	ENDS
;	COMDAT ??$?0U?$pair@$$CBKPAUtagTAUCTION@@@std@@@?$allocator@PAU_Node@?$_Tree_nod@V?$_Tmap_traits@KPAUtagTAUCTION@@U?$less@K@std@@V?$allocator@U?$pair@$$CBKPAUtagTAUCTION@@@std@@@3@$0A@@std@@@std@@@std@@QAE@ABV?$allocator@U?$pair@$$CBKPAUtagTAUCTION@@@std@@@1@@Z
_TEXT	SEGMENT PARA USE32 PUBLIC 'CODE'
_TEXT	ENDS
;	COMDAT ??$_Allocate@U_Node@?$_Tree_nod@V?$_Tmap_traits@KPAUtagTAUCTION@@U?$less@K@std@@V?$allocator@U?$pair@$$CBKPAUtagTAUCTION@@@std@@@3@$0A@@std@@@std@@@std@@YAPAU_Node@?$_Tree_nod@V?$_Tmap_traits@KPAUtagTAUCTION@@U?$less@K@std@@V?$allocator@U?$pair@$$CBKPAUtagTAUCTION@@@std@@@3@$0A@@std@@@0@IPAU120@@Z
_TEXT	SEGMENT PARA USE32 PUBLIC 'CODE'
_TEXT	ENDS
;	COMDAT ??$?0U?$pair@$$CBKPAV?$map@KPAUtagTAUCTION@@U?$less@K@std@@V?$allocator@U?$pair@$$CBKPAUtagTAUCTION@@@std@@@3@@std@@@std@@@?$allocator@PAU_Node@?$_Tree_nod@V?$_Tmap_traits@KPAV?$map@KPAUtagTAUCTION@@U?$less@K@std@@V?$allocator@U?$pair@$$CBKPAUtagTAUCTION@@@std@@@3@@std@@U?$less@K@2@V?$allocator@U?$pair@$$CBKPAV?$map@KPAUtagTAUCTION@@U?$less@K@std@@V?$allocator@U?$pair@$$CBKPAUtagTAUCTION@@@std@@@3@@std@@@std@@@2@$0A@@std@@@std@@@std@@QAE@ABV?$allocator@U?$pair@$$CBKPAV?$map@KPAUtagTAUCTION@@U?$less@K@std@@V?$allocator@U?$pair@$$CBKPAUtagTAUCTION@@@std@@@3@@std@@@std@@@1@@Z
_TEXT	SEGMENT PARA USE32 PUBLIC 'CODE'
_TEXT	ENDS
;	COMDAT ??$_Allocate@U_Node@?$_Tree_nod@V?$_Tmap_traits@KPAV?$map@KPAUtagTAUCTION@@U?$less@K@std@@V?$allocator@U?$pair@$$CBKPAUtagTAUCTION@@@std@@@3@@std@@U?$less@K@2@V?$allocator@U?$pair@$$CBKPAV?$map@KPAUtagTAUCTION@@U?$less@K@std@@V?$allocator@U?$pair@$$CBKPAUtagTAUCTION@@@std@@@3@@std@@@std@@@2@$0A@@std@@@std@@@std@@YAPAU_Node@?$_Tree_nod@V?$_Tmap_traits@KPAV?$map@KPAUtagTAUCTION@@U?$less@K@std@@V?$allocator@U?$pair@$$CBKPAUtagTAUCTION@@@std@@@3@@std@@U?$less@K@2@V?$allocator@U?$pair@$$CBKPAV?$map@KPAUtagTAUCTION@@U?$less@K@std@@V?$allocator@U?$pair@$$CBKPAUtagTAUCTION@@@std@@@3@@std@@@std@@@2@$0A@@std@@@0@IPAU120@@Z
_TEXT	SEGMENT PARA USE32 PUBLIC 'CODE'
_TEXT	ENDS
;	COMDAT ??$_Destroy_range@PAUtagTAUCTION@@V?$allocator@PAUtagTAUCTION@@@std@@@std@@YAXPAPAUtagTAUCTION@@0AAV?$allocator@PAUtagTAUCTION@@@0@@Z
_TEXT	SEGMENT PARA USE32 PUBLIC 'CODE'
_TEXT	ENDS
;	COMDAT ??$_Allocate@PAUtagTAUCTION@@@std@@YAPAPAUtagTAUCTION@@IPAPAU1@@Z
_TEXT	SEGMENT PARA USE32 PUBLIC 'CODE'
_TEXT	ENDS
;	COMDAT ??$?0U?$pair@$$CBGPAUtagTITEM@@@std@@@?$allocator@U_Node@?$_Tree_nod@V?$_Tmap_traits@GPAUtagTITEM@@U?$less@G@std@@V?$allocator@U?$pair@$$CBGPAUtagTITEM@@@std@@@3@$0A@@std@@@std@@@std@@QAE@ABV?$allocator@U?$pair@$$CBGPAUtagTITEM@@@std@@@1@@Z
_TEXT	SEGMENT PARA USE32 PUBLIC 'CODE'
_TEXT	ENDS
;	COMDAT ??$_Allocate@U_Node@?$_Tree_nod@V?$_Tmap_traits@GPAUtagTITEM@@U?$less@G@std@@V?$allocator@U?$pair@$$CBGPAUtagTITEM@@@std@@@3@$0A@@std@@@std@@@std@@YAPAU_Node@?$_Tree_nod@V?$_Tmap_traits@GPAUtagTITEM@@U?$less@G@std@@V?$allocator@U?$pair@$$CBGPAUtagTITEM@@@std@@@3@$0A@@std@@@0@IPAU120@@Z
_TEXT	SEGMENT PARA USE32 PUBLIC 'CODE'
_TEXT	ENDS
;	COMDAT ??$_Construct@PAU_Node@?$_Tree_nod@V?$_Tmap_traits@GPAUtagTITEM@@U?$less@G@std@@V?$allocator@U?$pair@$$CBGPAUtagTITEM@@@std@@@3@$0A@@std@@@std@@PAU123@@std@@YAXPAPAU_Node@?$_Tree_nod@V?$_Tmap_traits@GPAUtagTITEM@@U?$less@G@std@@V?$allocator@U?$pair@$$CBGPAUtagTITEM@@@std@@@3@$0A@@std@@@0@ABQAU120@@Z
_TEXT	SEGMENT PARA USE32 PUBLIC 'CODE'
_TEXT	ENDS
;	COMDAT ??$?0U?$pair@$$CBGPAVCTSkillTemp@@@std@@@?$allocator@U_Node@?$_Tree_nod@V?$_Tmap_traits@GPAVCTSkillTemp@@U?$less@G@std@@V?$allocator@U?$pair@$$CBGPAVCTSkillTemp@@@std@@@3@$0A@@std@@@std@@@std@@QAE@ABV?$allocator@U?$pair@$$CBGPAVCTSkillTemp@@@std@@@1@@Z
_TEXT	SEGMENT PARA USE32 PUBLIC 'CODE'
_TEXT	ENDS
;	COMDAT ??$_Allocate@U_Node@?$_Tree_nod@V?$_Tmap_traits@GPAVCTSkillTemp@@U?$less@G@std@@V?$allocator@U?$pair@$$CBGPAVCTSkillTemp@@@std@@@3@$0A@@std@@@std@@@std@@YAPAU_Node@?$_Tree_nod@V?$_Tmap_traits@GPAVCTSkillTemp@@U?$less@G@std@@V?$allocator@U?$pair@$$CBGPAVCTSkillTemp@@@std@@@3@$0A@@std@@@0@IPAU120@@Z
_TEXT	SEGMENT PARA USE32 PUBLIC 'CODE'
_TEXT	ENDS
;	COMDAT ??$_Construct@PAU_Node@?$_Tree_nod@V?$_Tmap_traits@GPAVCTSkillTemp@@U?$less@G@std@@V?$allocator@U?$pair@$$CBGPAVCTSkillTemp@@@std@@@3@$0A@@std@@@std@@PAU123@@std@@YAXPAPAU_Node@?$_Tree_nod@V?$_Tmap_traits@GPAVCTSkillTemp@@U?$less@G@std@@V?$allocator@U?$pair@$$CBGPAVCTSkillTemp@@@std@@@3@$0A@@std@@@0@ABQAU120@@Z
_TEXT	SEGMENT PARA USE32 PUBLIC 'CODE'
_TEXT	ENDS
;	COMDAT ??$?0U?$pair@$$CBGPAUtagMONSTERSHOP@@@std@@@?$allocator@U_Node@?$_Tree_nod@V?$_Tmap_traits@GPAUtagMONSTERSHOP@@U?$less@G@std@@V?$allocator@U?$pair@$$CBGPAUtagMONSTERSHOP@@@std@@@3@$0A@@std@@@std@@@std@@QAE@ABV?$allocator@U?$pair@$$CBGPAUtagMONSTERSHOP@@@std@@@1@@Z
_TEXT	SEGMENT PARA USE32 PUBLIC 'CODE'
_TEXT	ENDS
;	COMDAT ??$_Allocate@U_Node@?$_Tree_nod@V?$_Tmap_traits@GPAUtagMONSTERSHOP@@U?$less@G@std@@V?$allocator@U?$pair@$$CBGPAUtagMONSTERSHOP@@@std@@@3@$0A@@std@@@std@@@std@@YAPAU_Node@?$_Tree_nod@V?$_Tmap_traits@GPAUtagMONSTERSHOP@@U?$less@G@std@@V?$allocator@U?$pair@$$CBGPAUtagMONSTERSHOP@@@std@@@3@$0A@@std@@@0@IPAU120@@Z
_TEXT	SEGMENT PARA USE32 PUBLIC 'CODE'
_TEXT	ENDS
;	COMDAT ??$_Construct@PAU_Node@?$_Tree_nod@V?$_Tmap_traits@GPAUtagMONSTERSHOP@@U?$less@G@std@@V?$allocator@U?$pair@$$CBGPAUtagMONSTERSHOP@@@std@@@3@$0A@@std@@@std@@PAU123@@std@@YAXPAPAU_Node@?$_Tree_nod@V?$_Tmap_traits@GPAUtagMONSTERSHOP@@U?$less@G@std@@V?$allocator@U?$pair@$$CBGPAUtagMONSTERSHOP@@@std@@@3@$0A@@std@@@0@ABQAU120@@Z
_TEXT	SEGMENT PARA USE32 PUBLIC 'CODE'
_TEXT	ENDS
;	COMDAT ??$?0U?$pair@$$CBKPAUtagTAUCTION@@@std@@@?$allocator@U_Node@?$_Tree_nod@V?$_Tmap_traits@KPAUtagTAUCTION@@U?$less@K@std@@V?$allocator@U?$pair@$$CBKPAUtagTAUCTION@@@std@@@3@$0A@@std@@@std@@@std@@QAE@ABV?$allocator@U?$pair@$$CBKPAUtagTAUCTION@@@std@@@1@@Z
_TEXT	SEGMENT PARA USE32 PUBLIC 'CODE'
_TEXT	ENDS
;	COMDAT ??$_Construct@PAU_Node@?$_Tree_nod@V?$_Tmap_traits@KPAUtagTAUCTION@@U?$less@K@std@@V?$allocator@U?$pair@$$CBKPAUtagTAUCTION@@@std@@@3@$0A@@std@@@std@@PAU123@@std@@YAXPAPAU_Node@?$_Tree_nod@V?$_Tmap_traits@KPAUtagTAUCTION@@U?$less@K@std@@V?$allocator@U?$pair@$$CBKPAUtagTAUCTION@@@std@@@3@$0A@@std@@@0@ABQAU120@@Z
_TEXT	SEGMENT PARA USE32 PUBLIC 'CODE'
_TEXT	ENDS
;	COMDAT ??$?0U?$pair@$$CBKPAV?$map@KPAUtagTAUCTION@@U?$less@K@std@@V?$allocator@U?$pair@$$CBKPAUtagTAUCTION@@@std@@@3@@std@@@std@@@?$allocator@U_Node@?$_Tree_nod@V?$_Tmap_traits@KPAV?$map@KPAUtagTAUCTION@@U?$less@K@std@@V?$allocator@U?$pair@$$CBKPAUtagTAUCTION@@@std@@@3@@std@@U?$less@K@2@V?$allocator@U?$pair@$$CBKPAV?$map@KPAUtagTAUCTION@@U?$less@K@std@@V?$allocator@U?$pair@$$CBKPAUtagTAUCTION@@@std@@@3@@std@@@std@@@2@$0A@@std@@@std@@@std@@QAE@ABV?$allocator@U?$pair@$$CBKPAV?$map@KPAUtagTAUCTION@@U?$less@K@std@@V?$allocator@U?$pair@$$CBKPAUtagTAUCTION@@@std@@@3@@std@@@std@@@1@@Z
_TEXT	SEGMENT PARA USE32 PUBLIC 'CODE'
_TEXT	ENDS
;	COMDAT ??$_Construct@PAU_Node@?$_Tree_nod@V?$_Tmap_traits@KPAV?$map@KPAUtagTAUCTION@@U?$less@K@std@@V?$allocator@U?$pair@$$CBKPAUtagTAUCTION@@@std@@@3@@std@@U?$less@K@2@V?$allocator@U?$pair@$$CBKPAV?$map@KPAUtagTAUCTION@@U?$less@K@std@@V?$allocator@U?$pair@$$CBKPAUtagTAUCTION@@@std@@@3@@std@@@std@@@2@$0A@@std@@@std@@PAU123@@std@@YAXPAPAU_Node@?$_Tree_nod@V?$_Tmap_traits@KPAV?$map@KPAUtagTAUCTION@@U?$less@K@std@@V?$allocator@U?$pair@$$CBKPAUtagTAUCTION@@@std@@@3@@std@@U?$less@K@2@V?$allocator@U?$pair@$$CBKPAV?$map@KPAUtagTAUCTION@@U?$less@K@std@@V?$allocator@U?$pair@$$CBKPAUtagTAUCTION@@@std@@@3@@std@@@std@@@2@$0A@@std@@@0@ABQAU120@@Z
_TEXT	SEGMENT PARA USE32 PUBLIC 'CODE'
_TEXT	ENDS
;	COMDAT ?construct@?$allocator@UtagTCASHITMSALE@@@std@@QAEXPAUtagTCASHITMSALE@@ABU3@@Z
_TEXT	SEGMENT PARA USE32 PUBLIC 'CODE'
_TEXT	ENDS
;	COMDAT ?destroy@?$allocator@UtagTCASHITMSALE@@@std@@QAEXPAUtagTCASHITMSALE@@@Z
_TEXT	SEGMENT PARA USE32 PUBLIC 'CODE'
_TEXT	ENDS
;	COMDAT ?construct@?$allocator@UtagMONREGEN@@@std@@QAEXPAUtagMONREGEN@@ABU3@@Z
_TEXT	SEGMENT PARA USE32 PUBLIC 'CODE'
_TEXT	ENDS
;	COMDAT ?destroy@?$allocator@UtagMONREGEN@@@std@@QAEXPAUtagMONREGEN@@@Z
_TEXT	SEGMENT PARA USE32 PUBLIC 'CODE'
_TEXT	ENDS
;	COMDAT ?construct@?$allocator@UtagLOTTERY@@@std@@QAEXPAUtagLOTTERY@@ABU3@@Z
_TEXT	SEGMENT PARA USE32 PUBLIC 'CODE'
_TEXT	ENDS
;	COMDAT ?destroy@?$allocator@UtagLOTTERY@@@std@@QAEXPAUtagLOTTERY@@@Z
_TEXT	SEGMENT PARA USE32 PUBLIC 'CODE'
_TEXT	ENDS
;	COMDAT ??$fill_n@PAGIG@std@@YAXPAGIABG@Z
_TEXT	SEGMENT PARA USE32 PUBLIC 'CODE'
_TEXT	ENDS
;	COMDAT ??$_Uninit_copy@GG@std@@YAPAGPAG00AAV?$allocator@G@0@U_Scalar_ptr_iterator_tag@0@@Z
_TEXT	SEGMENT PARA USE32 PUBLIC 'CODE'
_TEXT	ENDS
;	COMDAT ??$_Uninit_copy@PAUtagTCASHITMSALE@@PAU1@V?$allocator@UtagTCASHITMSALE@@@std@@@std@@YAPAUtagTCASHITMSALE@@PAU1@00AAV?$allocator@UtagTCASHITMSALE@@@0@U_Nonscalar_ptr_iterator_tag@0@@Z
_TEXT	SEGMENT PARA USE32 PUBLIC 'CODE'
_TEXT	ENDS
;	COMDAT ??$_Uninit_copy@PAUtagMONREGEN@@PAU1@V?$allocator@UtagMONREGEN@@@std@@@std@@YAPAUtagMONREGEN@@PAU1@00AAV?$allocator@UtagMONREGEN@@@0@U_Nonscalar_ptr_iterator_tag@0@@Z
_TEXT	SEGMENT PARA USE32 PUBLIC 'CODE'
_TEXT	ENDS
;	COMDAT ??$_Uninit_copy@PAUtagLOTTERY@@PAU1@V?$allocator@UtagLOTTERY@@@std@@@std@@YAPAUtagLOTTERY@@PAU1@00AAV?$allocator@UtagLOTTERY@@@0@U_Nonscalar_ptr_iterator_tag@0@@Z
_TEXT	SEGMENT PARA USE32 PUBLIC 'CODE'
_TEXT	ENDS
;	COMDAT ??$_Sort@Viterator@?$vector@PAUtagTAUCTION@@V?$allocator@PAUtagTAUCTION@@@std@@@std@@HUAuctionIDASC@@@std@@YAXViterator@?$vector@PAUtagTAUCTION@@V?$allocator@PAUtagTAUCTION@@@std@@@0@0HUAuctionIDASC@@@Z
_TEXT	SEGMENT PARA USE32 PUBLIC 'CODE'
_TEXT	ENDS
;	COMDAT ??$_Sort@Viterator@?$vector@PAUtagTAUCTION@@V?$allocator@PAUtagTAUCTION@@@std@@@std@@HUAuctionIDDESC@@@std@@YAXViterator@?$vector@PAUtagTAUCTION@@V?$allocator@PAUtagTAUCTION@@@std@@@0@0HUAuctionIDDESC@@@Z
_TEXT	SEGMENT PARA USE32 PUBLIC 'CODE'
_TEXT	ENDS
;	COMDAT ??$_Sort@Viterator@?$vector@PAUtagTAUCTION@@V?$allocator@PAUtagTAUCTION@@@std@@@std@@HUEndTimeASC@@@std@@YAXViterator@?$vector@PAUtagTAUCTION@@V?$allocator@PAUtagTAUCTION@@@std@@@0@0HUEndTimeASC@@@Z
_TEXT	SEGMENT PARA USE32 PUBLIC 'CODE'
_TEXT	ENDS
;	COMDAT ??$_Sort@Viterator@?$vector@PAUtagTAUCTION@@V?$allocator@PAUtagTAUCTION@@@std@@@std@@HUEndTimeDESC@@@std@@YAXViterator@?$vector@PAUtagTAUCTION@@V?$allocator@PAUtagTAUCTION@@@std@@@0@0HUEndTimeDESC@@@Z
_TEXT	SEGMENT PARA USE32 PUBLIC 'CODE'
_TEXT	ENDS
;	COMDAT ??$_Sort@Viterator@?$vector@PAUtagTAUCTION@@V?$allocator@PAUtagTAUCTION@@@std@@@std@@HURemainTimeASC@@@std@@YAXViterator@?$vector@PAUtagTAUCTION@@V?$allocator@PAUtagTAUCTION@@@std@@@0@0HURemainTimeASC@@@Z
_TEXT	SEGMENT PARA USE32 PUBLIC 'CODE'
_TEXT	ENDS
;	COMDAT ??$_Sort@Viterator@?$vector@PAUtagTAUCTION@@V?$allocator@PAUtagTAUCTION@@@std@@@std@@HURemainTimeDESC@@@std@@YAXViterator@?$vector@PAUtagTAUCTION@@V?$allocator@PAUtagTAUCTION@@@std@@@0@0HURemainTimeDESC@@@Z
_TEXT	SEGMENT PARA USE32 PUBLIC 'CODE'
_TEXT	ENDS
;	COMDAT ??$_Sort@Viterator@?$vector@PAUtagTAUCTION@@V?$allocator@PAUtagTAUCTION@@@std@@@std@@HUBidPriceASC@@@std@@YAXViterator@?$vector@PAUtagTAUCTION@@V?$allocator@PAUtagTAUCTION@@@std@@@0@0HUBidPriceASC@@@Z
_TEXT	SEGMENT PARA USE32 PUBLIC 'CODE'
_TEXT	ENDS
;	COMDAT ??$_Sort@Viterator@?$vector@PAUtagTAUCTION@@V?$allocator@PAUtagTAUCTION@@@std@@@std@@HUBidPriceDESC@@@std@@YAXViterator@?$vector@PAUtagTAUCTION@@V?$allocator@PAUtagTAUCTION@@@std@@@0@0HUBidPriceDESC@@@Z
_TEXT	SEGMENT PARA USE32 PUBLIC 'CODE'
_TEXT	ENDS
;	COMDAT ??$_Sort@Viterator@?$vector@PAUtagTAUCTION@@V?$allocator@PAUtagTAUCTION@@@std@@@std@@HUDirectPriceASC@@@std@@YAXViterator@?$vector@PAUtagTAUCTION@@V?$allocator@PAUtagTAUCTION@@@std@@@0@0HUDirectPriceASC@@@Z
_TEXT	SEGMENT PARA USE32 PUBLIC 'CODE'
_TEXT	ENDS
;	COMDAT ??$_Sort@Viterator@?$vector@PAUtagTAUCTION@@V?$allocator@PAUtagTAUCTION@@@std@@@std@@HUDirectPriceDESC@@@std@@YAXViterator@?$vector@PAUtagTAUCTION@@V?$allocator@PAUtagTAUCTION@@@std@@@0@0HUDirectPriceDESC@@@Z
_TEXT	SEGMENT PARA USE32 PUBLIC 'CODE'
_TEXT	ENDS
;	COMDAT ??$_Sort@Viterator@?$vector@PAUtagTAUCTION@@V?$allocator@PAUtagTAUCTION@@@std@@@std@@HUBidCountASC@@@std@@YAXViterator@?$vector@PAUtagTAUCTION@@V?$allocator@PAUtagTAUCTION@@@std@@@0@0HUBidCountASC@@@Z
_TEXT	SEGMENT PARA USE32 PUBLIC 'CODE'
_TEXT	ENDS
;	COMDAT ??$_Sort@Viterator@?$vector@PAUtagTAUCTION@@V?$allocator@PAUtagTAUCTION@@@std@@@std@@HUBidCountDESC@@@std@@YAXViterator@?$vector@PAUtagTAUCTION@@V?$allocator@PAUtagTAUCTION@@@std@@@0@0HUBidCountDESC@@@Z
_TEXT	SEGMENT PARA USE32 PUBLIC 'CODE'
_TEXT	ENDS
;	COMDAT ??$_Sort@Viterator@?$vector@PAUtagTAUCTION@@V?$allocator@PAUtagTAUCTION@@@std@@@std@@HUClassASC@@@std@@YAXViterator@?$vector@PAUtagTAUCTION@@V?$allocator@PAUtagTAUCTION@@@std@@@0@0HUClassASC@@@Z
_TEXT	SEGMENT PARA USE32 PUBLIC 'CODE'
_TEXT	ENDS
;	COMDAT ??$_Sort@Viterator@?$vector@PAUtagTAUCTION@@V?$allocator@PAUtagTAUCTION@@@std@@@std@@HUClassDESC@@@std@@YAXViterator@?$vector@PAUtagTAUCTION@@V?$allocator@PAUtagTAUCTION@@@std@@@0@0HUClassDESC@@@Z
_TEXT	SEGMENT PARA USE32 PUBLIC 'CODE'
_TEXT	ENDS
;	COMDAT ??$_Sort@Viterator@?$vector@PAUtagTAUCTION@@V?$allocator@PAUtagTAUCTION@@@std@@@std@@HUSellerNameASC@@@std@@YAXViterator@?$vector@PAUtagTAUCTION@@V?$allocator@PAUtagTAUCTION@@@std@@@0@0HUSellerNameASC@@@Z
_TEXT	SEGMENT PARA USE32 PUBLIC 'CODE'
_TEXT	ENDS
;	COMDAT ??$_Sort@Viterator@?$vector@PAUtagTAUCTION@@V?$allocator@PAUtagTAUCTION@@@std@@@std@@HUSellerNameDESC@@@std@@YAXViterator@?$vector@PAUtagTAUCTION@@V?$allocator@PAUtagTAUCTION@@@std@@@0@0HUSellerNameDESC@@@Z
_TEXT	SEGMENT PARA USE32 PUBLIC 'CODE'
_TEXT	ENDS
;	COMDAT ??$_Iter_cat@Viterator@?$vector@PAUtagTAUCTION@@V?$allocator@PAUtagTAUCTION@@@std@@@std@@@std@@YA?AUrandom_access_iterator_tag@0@ABViterator@?$vector@PAUtagTAUCTION@@V?$allocator@PAUtagTAUCTION@@@std@@@0@@Z
_TEXT	SEGMENT PARA USE32 PUBLIC 'CODE'
_TEXT	ENDS
;	COMDAT ??$_Reverse@Viterator@?$vector@PAUtagTAUCTION@@V?$allocator@PAUtagTAUCTION@@@std@@@std@@@std@@YAXViterator@?$vector@PAUtagTAUCTION@@V?$allocator@PAUtagTAUCTION@@@std@@@0@0Urandom_access_iterator_tag@0@@Z
_TEXT	SEGMENT PARA USE32 PUBLIC 'CODE'
_TEXT	ENDS
;	COMDAT ??$_Sort@Viterator@?$vector@PAUtagTAUCTION@@V?$allocator@PAUtagTAUCTION@@@std@@@std@@HUWearLevelASC@@@std@@YAXViterator@?$vector@PAUtagTAUCTION@@V?$allocator@PAUtagTAUCTION@@@std@@@0@0HUWearLevelASC@@@Z
_TEXT	SEGMENT PARA USE32 PUBLIC 'CODE'
_TEXT	ENDS
;	COMDAT ??$_Sort@Viterator@?$vector@PAUtagTAUCTION@@V?$allocator@PAUtagTAUCTION@@@std@@@std@@HUWearLevelDESC@@@std@@YAXViterator@?$vector@PAUtagTAUCTION@@V?$allocator@PAUtagTAUCTION@@@std@@@0@0HUWearLevelDESC@@@Z
_TEXT	SEGMENT PARA USE32 PUBLIC 'CODE'
_TEXT	ENDS
;	COMDAT ??$_Sort@Viterator@?$vector@PAUtagTAUCTION@@V?$allocator@PAUtagTAUCTION@@@std@@@std@@HUItemLevelASC@@@std@@YAXViterator@?$vector@PAUtagTAUCTION@@V?$allocator@PAUtagTAUCTION@@@std@@@0@0HUItemLevelASC@@@Z
_TEXT	SEGMENT PARA USE32 PUBLIC 'CODE'
_TEXT	ENDS
;	COMDAT ??$_Sort@Viterator@?$vector@PAUtagTAUCTION@@V?$allocator@PAUtagTAUCTION@@@std@@@std@@HUItemLevelDESC@@@std@@YAXViterator@?$vector@PAUtagTAUCTION@@V?$allocator@PAUtagTAUCTION@@@std@@@0@0HUItemLevelDESC@@@Z
_TEXT	SEGMENT PARA USE32 PUBLIC 'CODE'
_TEXT	ENDS
;	COMDAT ??$_Ptr_cat@UtagTAUCTION@@@std@@YA?AU_Scalar_ptr_iterator_tag@0@PAPAUtagTAUCTION@@0@Z
_TEXT	SEGMENT PARA USE32 PUBLIC 'CODE'
_TEXT	ENDS
;	COMDAT ??$_Uninit_fill_n@PAUtagTAUCTION@@IPAU1@@std@@YAXPAPAUtagTAUCTION@@IABQAU1@AAV?$allocator@PAUtagTAUCTION@@@0@U_Scalar_ptr_iterator_tag@0@@Z
_TEXT	SEGMENT PARA USE32 PUBLIC 'CODE'
_TEXT	ENDS
;	COMDAT ??$_Uninitialized_copy@PAPAUtagTAUCTION@@PAPAU1@V?$allocator@PAUtagTAUCTION@@@std@@@std@@YAPAPAUtagTAUCTION@@PAPAU1@00AAV?$allocator@PAUtagTAUCTION@@@0@@Z
_TEXT	SEGMENT PARA USE32 PUBLIC 'CODE'
_TEXT	ENDS
;	COMDAT ??$_Copy_backward_opt@PAPAUtagTAUCTION@@PAPAU1@@std@@YAPAPAUtagTAUCTION@@PAPAU1@00U_Scalar_ptr_iterator_tag@0@@Z
_TEXT	SEGMENT PARA USE32 PUBLIC 'CODE'
_TEXT	ENDS
;	COMDAT ??$_Destroy_range@PAUtagTAUCTION@@V?$allocator@PAUtagTAUCTION@@@std@@@std@@YAXPAPAUtagTAUCTION@@0AAV?$allocator@PAUtagTAUCTION@@@0@U_Scalar_ptr_iterator_tag@0@@Z
_TEXT	SEGMENT PARA USE32 PUBLIC 'CODE'
_TEXT	ENDS
;	COMDAT ??$_Construct@UtagTCASHITMSALE@@U1@@std@@YAXPAUtagTCASHITMSALE@@ABU1@@Z
_TEXT	SEGMENT PARA USE32 PUBLIC 'CODE'
_TEXT	ENDS
;	COMDAT ??$_Destroy@UtagTCASHITMSALE@@@std@@YAXPAUtagTCASHITMSALE@@@Z
_TEXT	SEGMENT PARA USE32 PUBLIC 'CODE'
_TEXT	ENDS
;	COMDAT ??$_Construct@UtagMONREGEN@@U1@@std@@YAXPAUtagMONREGEN@@ABU1@@Z
_TEXT	SEGMENT PARA USE32 PUBLIC 'CODE'
_TEXT	ENDS
;	COMDAT ??$_Destroy@UtagMONREGEN@@@std@@YAXPAUtagMONREGEN@@@Z
_TEXT	SEGMENT PARA USE32 PUBLIC 'CODE'
_TEXT	ENDS
;	COMDAT ??$_Construct@UtagLOTTERY@@U1@@std@@YAXPAUtagLOTTERY@@ABU1@@Z
_TEXT	SEGMENT PARA USE32 PUBLIC 'CODE'
_TEXT	ENDS
;	COMDAT ??$_Destroy@UtagLOTTERY@@@std@@YAXPAUtagLOTTERY@@@Z
_TEXT	SEGMENT PARA USE32 PUBLIC 'CODE'
_TEXT	ENDS
;	COMDAT ??Eiterator@?$vector@PAUtagTAUCTION@@V?$allocator@PAUtagTAUCTION@@@std@@@std@@QAEAAV012@XZ
_TEXT	SEGMENT PARA USE32 PUBLIC 'CODE'
_TEXT	ENDS
;	COMDAT ??Fiterator@?$vector@PAUtagTAUCTION@@V?$allocator@PAUtagTAUCTION@@@std@@@std@@QAEAAV012@XZ
_TEXT	SEGMENT PARA USE32 PUBLIC 'CODE'
_TEXT	ENDS
;	COMDAT ??Mconst_iterator@?$vector@PAUtagTAUCTION@@V?$allocator@PAUtagTAUCTION@@@std@@@std@@QBE_NABV012@@Z
_TEXT	SEGMENT PARA USE32 PUBLIC 'CODE'
_TEXT	ENDS
;	COMDAT ??$_Unguarded_partition@Viterator@?$vector@PAUtagTAUCTION@@V?$allocator@PAUtagTAUCTION@@@std@@@std@@UAuctionIDASC@@@std@@YA?AU?$pair@Viterator@?$vector@PAUtagTAUCTION@@V?$allocator@PAUtagTAUCTION@@@std@@@std@@V123@@0@Viterator@?$vector@PAUtagTAUCTION@@V?$allocator@PAUtagTAUCTION@@@std@@@0@0UAuctionIDASC@@@Z
_TEXT	SEGMENT PARA USE32 PUBLIC 'CODE'
_TEXT	ENDS
;	COMDAT ??$make_heap@Viterator@?$vector@PAUtagTAUCTION@@V?$allocator@PAUtagTAUCTION@@@std@@@std@@UAuctionIDASC@@@std@@YAXViterator@?$vector@PAUtagTAUCTION@@V?$allocator@PAUtagTAUCTION@@@std@@@0@0UAuctionIDASC@@@Z
_TEXT	SEGMENT PARA USE32 PUBLIC 'CODE'
_TEXT	ENDS
;	COMDAT ??$sort_heap@Viterator@?$vector@PAUtagTAUCTION@@V?$allocator@PAUtagTAUCTION@@@std@@@std@@UAuctionIDASC@@@std@@YAXViterator@?$vector@PAUtagTAUCTION@@V?$allocator@PAUtagTAUCTION@@@std@@@0@0UAuctionIDASC@@@Z
_TEXT	SEGMENT PARA USE32 PUBLIC 'CODE'
_TEXT	ENDS
;	COMDAT ??$_Insertion_sort@Viterator@?$vector@PAUtagTAUCTION@@V?$allocator@PAUtagTAUCTION@@@std@@@std@@UAuctionIDASC@@@std@@YAXViterator@?$vector@PAUtagTAUCTION@@V?$allocator@PAUtagTAUCTION@@@std@@@0@0UAuctionIDASC@@@Z
_TEXT	SEGMENT PARA USE32 PUBLIC 'CODE'
_TEXT	ENDS
;	COMDAT ??$_Unguarded_partition@Viterator@?$vector@PAUtagTAUCTION@@V?$allocator@PAUtagTAUCTION@@@std@@@std@@UAuctionIDDESC@@@std@@YA?AU?$pair@Viterator@?$vector@PAUtagTAUCTION@@V?$allocator@PAUtagTAUCTION@@@std@@@std@@V123@@0@Viterator@?$vector@PAUtagTAUCTION@@V?$allocator@PAUtagTAUCTION@@@std@@@0@0UAuctionIDDESC@@@Z
_TEXT	SEGMENT PARA USE32 PUBLIC 'CODE'
_TEXT	ENDS
;	COMDAT ??$make_heap@Viterator@?$vector@PAUtagTAUCTION@@V?$allocator@PAUtagTAUCTION@@@std@@@std@@UAuctionIDDESC@@@std@@YAXViterator@?$vector@PAUtagTAUCTION@@V?$allocator@PAUtagTAUCTION@@@std@@@0@0UAuctionIDDESC@@@Z
_TEXT	SEGMENT PARA USE32 PUBLIC 'CODE'
_TEXT	ENDS
;	COMDAT ??$sort_heap@Viterator@?$vector@PAUtagTAUCTION@@V?$allocator@PAUtagTAUCTION@@@std@@@std@@UAuctionIDDESC@@@std@@YAXViterator@?$vector@PAUtagTAUCTION@@V?$allocator@PAUtagTAUCTION@@@std@@@0@0UAuctionIDDESC@@@Z
_TEXT	SEGMENT PARA USE32 PUBLIC 'CODE'
_TEXT	ENDS
;	COMDAT ??$_Insertion_sort@Viterator@?$vector@PAUtagTAUCTION@@V?$allocator@PAUtagTAUCTION@@@std@@@std@@UAuctionIDDESC@@@std@@YAXViterator@?$vector@PAUtagTAUCTION@@V?$allocator@PAUtagTAUCTION@@@std@@@0@0UAuctionIDDESC@@@Z
_TEXT	SEGMENT PARA USE32 PUBLIC 'CODE'
_TEXT	ENDS
;	COMDAT ??$_Unguarded_partition@Viterator@?$vector@PAUtagTAUCTION@@V?$allocator@PAUtagTAUCTION@@@std@@@std@@UEndTimeASC@@@std@@YA?AU?$pair@Viterator@?$vector@PAUtagTAUCTION@@V?$allocator@PAUtagTAUCTION@@@std@@@std@@V123@@0@Viterator@?$vector@PAUtagTAUCTION@@V?$allocator@PAUtagTAUCTION@@@std@@@0@0UEndTimeASC@@@Z
_TEXT	SEGMENT PARA USE32 PUBLIC 'CODE'
_TEXT	ENDS
;	COMDAT ??$make_heap@Viterator@?$vector@PAUtagTAUCTION@@V?$allocator@PAUtagTAUCTION@@@std@@@std@@UEndTimeASC@@@std@@YAXViterator@?$vector@PAUtagTAUCTION@@V?$allocator@PAUtagTAUCTION@@@std@@@0@0UEndTimeASC@@@Z
_TEXT	SEGMENT PARA USE32 PUBLIC 'CODE'
_TEXT	ENDS
;	COMDAT ??$sort_heap@Viterator@?$vector@PAUtagTAUCTION@@V?$allocator@PAUtagTAUCTION@@@std@@@std@@UEndTimeASC@@@std@@YAXViterator@?$vector@PAUtagTAUCTION@@V?$allocator@PAUtagTAUCTION@@@std@@@0@0UEndTimeASC@@@Z
_TEXT	SEGMENT PARA USE32 PUBLIC 'CODE'
_TEXT	ENDS
;	COMDAT ??$_Insertion_sort@Viterator@?$vector@PAUtagTAUCTION@@V?$allocator@PAUtagTAUCTION@@@std@@@std@@UEndTimeASC@@@std@@YAXViterator@?$vector@PAUtagTAUCTION@@V?$allocator@PAUtagTAUCTION@@@std@@@0@0UEndTimeASC@@@Z
_TEXT	SEGMENT PARA USE32 PUBLIC 'CODE'
_TEXT	ENDS
;	COMDAT ??$_Unguarded_partition@Viterator@?$vector@PAUtagTAUCTION@@V?$allocator@PAUtagTAUCTION@@@std@@@std@@UEndTimeDESC@@@std@@YA?AU?$pair@Viterator@?$vector@PAUtagTAUCTION@@V?$allocator@PAUtagTAUCTION@@@std@@@std@@V123@@0@Viterator@?$vector@PAUtagTAUCTION@@V?$allocator@PAUtagTAUCTION@@@std@@@0@0UEndTimeDESC@@@Z
_TEXT	SEGMENT PARA USE32 PUBLIC 'CODE'
_TEXT	ENDS
;	COMDAT ??$make_heap@Viterator@?$vector@PAUtagTAUCTION@@V?$allocator@PAUtagTAUCTION@@@std@@@std@@UEndTimeDESC@@@std@@YAXViterator@?$vector@PAUtagTAUCTION@@V?$allocator@PAUtagTAUCTION@@@std@@@0@0UEndTimeDESC@@@Z
_TEXT	SEGMENT PARA USE32 PUBLIC 'CODE'
_TEXT	ENDS
;	COMDAT ??$sort_heap@Viterator@?$vector@PAUtagTAUCTION@@V?$allocator@PAUtagTAUCTION@@@std@@@std@@UEndTimeDESC@@@std@@YAXViterator@?$vector@PAUtagTAUCTION@@V?$allocator@PAUtagTAUCTION@@@std@@@0@0UEndTimeDESC@@@Z
_TEXT	SEGMENT PARA USE32 PUBLIC 'CODE'
_TEXT	ENDS
;	COMDAT ??$_Insertion_sort@Viterator@?$vector@PAUtagTAUCTION@@V?$allocator@PAUtagTAUCTION@@@std@@@std@@UEndTimeDESC@@@std@@YAXViterator@?$vector@PAUtagTAUCTION@@V?$allocator@PAUtagTAUCTION@@@std@@@0@0UEndTimeDESC@@@Z
_TEXT	SEGMENT PARA USE32 PUBLIC 'CODE'
_TEXT	ENDS
;	COMDAT ??$_Unguarded_partition@Viterator@?$vector@PAUtagTAUCTION@@V?$allocator@PAUtagTAUCTION@@@std@@@std@@URemainTimeASC@@@std@@YA?AU?$pair@Viterator@?$vector@PAUtagTAUCTION@@V?$allocator@PAUtagTAUCTION@@@std@@@std@@V123@@0@Viterator@?$vector@PAUtagTAUCTION@@V?$allocator@PAUtagTAUCTION@@@std@@@0@0URemainTimeASC@@@Z
_TEXT	SEGMENT PARA USE32 PUBLIC 'CODE'
_TEXT	ENDS
;	COMDAT ??$make_heap@Viterator@?$vector@PAUtagTAUCTION@@V?$allocator@PAUtagTAUCTION@@@std@@@std@@URemainTimeASC@@@std@@YAXViterator@?$vector@PAUtagTAUCTION@@V?$allocator@PAUtagTAUCTION@@@std@@@0@0URemainTimeASC@@@Z
_TEXT	SEGMENT PARA USE32 PUBLIC 'CODE'
_TEXT	ENDS
;	COMDAT ??$sort_heap@Viterator@?$vector@PAUtagTAUCTION@@V?$allocator@PAUtagTAUCTION@@@std@@@std@@URemainTimeASC@@@std@@YAXViterator@?$vector@PAUtagTAUCTION@@V?$allocator@PAUtagTAUCTION@@@std@@@0@0URemainTimeASC@@@Z
_TEXT	SEGMENT PARA USE32 PUBLIC 'CODE'
_TEXT	ENDS
;	COMDAT ??$_Insertion_sort@Viterator@?$vector@PAUtagTAUCTION@@V?$allocator@PAUtagTAUCTION@@@std@@@std@@URemainTimeASC@@@std@@YAXViterator@?$vector@PAUtagTAUCTION@@V?$allocator@PAUtagTAUCTION@@@std@@@0@0URemainTimeASC@@@Z
_TEXT	SEGMENT PARA USE32 PUBLIC 'CODE'
_TEXT	ENDS
;	COMDAT ??$_Unguarded_partition@Viterator@?$vector@PAUtagTAUCTION@@V?$allocator@PAUtagTAUCTION@@@std@@@std@@URemainTimeDESC@@@std@@YA?AU?$pair@Viterator@?$vector@PAUtagTAUCTION@@V?$allocator@PAUtagTAUCTION@@@std@@@std@@V123@@0@Viterator@?$vector@PAUtagTAUCTION@@V?$allocator@PAUtagTAUCTION@@@std@@@0@0URemainTimeDESC@@@Z
_TEXT	SEGMENT PARA USE32 PUBLIC 'CODE'
_TEXT	ENDS
;	COMDAT ??$make_heap@Viterator@?$vector@PAUtagTAUCTION@@V?$allocator@PAUtagTAUCTION@@@std@@@std@@URemainTimeDESC@@@std@@YAXViterator@?$vector@PAUtagTAUCTION@@V?$allocator@PAUtagTAUCTION@@@std@@@0@0URemainTimeDESC@@@Z
_TEXT	SEGMENT PARA USE32 PUBLIC 'CODE'
_TEXT	ENDS
;	COMDAT ??$sort_heap@Viterator@?$vector@PAUtagTAUCTION@@V?$allocator@PAUtagTAUCTION@@@std@@@std@@URemainTimeDESC@@@std@@YAXViterator@?$vector@PAUtagTAUCTION@@V?$allocator@PAUtagTAUCTION@@@std@@@0@0URemainTimeDESC@@@Z
_TEXT	SEGMENT PARA USE32 PUBLIC 'CODE'
_TEXT	ENDS
;	COMDAT ??$_Insertion_sort@Viterator@?$vector@PAUtagTAUCTION@@V?$allocator@PAUtagTAUCTION@@@std@@@std@@URemainTimeDESC@@@std@@YAXViterator@?$vector@PAUtagTAUCTION@@V?$allocator@PAUtagTAUCTION@@@std@@@0@0URemainTimeDESC@@@Z
_TEXT	SEGMENT PARA USE32 PUBLIC 'CODE'
_TEXT	ENDS
;	COMDAT ??$_Unguarded_partition@Viterator@?$vector@PAUtagTAUCTION@@V?$allocator@PAUtagTAUCTION@@@std@@@std@@UBidPriceASC@@@std@@YA?AU?$pair@Viterator@?$vector@PAUtagTAUCTION@@V?$allocator@PAUtagTAUCTION@@@std@@@std@@V123@@0@Viterator@?$vector@PAUtagTAUCTION@@V?$allocator@PAUtagTAUCTION@@@std@@@0@0UBidPriceASC@@@Z
_TEXT	SEGMENT PARA USE32 PUBLIC 'CODE'
_TEXT	ENDS
;	COMDAT ??$make_heap@Viterator@?$vector@PAUtagTAUCTION@@V?$allocator@PAUtagTAUCTION@@@std@@@std@@UBidPriceASC@@@std@@YAXViterator@?$vector@PAUtagTAUCTION@@V?$allocator@PAUtagTAUCTION@@@std@@@0@0UBidPriceASC@@@Z
_TEXT	SEGMENT PARA USE32 PUBLIC 'CODE'
_TEXT	ENDS
;	COMDAT ??$sort_heap@Viterator@?$vector@PAUtagTAUCTION@@V?$allocator@PAUtagTAUCTION@@@std@@@std@@UBidPriceASC@@@std@@YAXViterator@?$vector@PAUtagTAUCTION@@V?$allocator@PAUtagTAUCTION@@@std@@@0@0UBidPriceASC@@@Z
_TEXT	SEGMENT PARA USE32 PUBLIC 'CODE'
_TEXT	ENDS
;	COMDAT ??$_Insertion_sort@Viterator@?$vector@PAUtagTAUCTION@@V?$allocator@PAUtagTAUCTION@@@std@@@std@@UBidPriceASC@@@std@@YAXViterator@?$vector@PAUtagTAUCTION@@V?$allocator@PAUtagTAUCTION@@@std@@@0@0UBidPriceASC@@@Z
_TEXT	SEGMENT PARA USE32 PUBLIC 'CODE'
_TEXT	ENDS
;	COMDAT ??$_Unguarded_partition@Viterator@?$vector@PAUtagTAUCTION@@V?$allocator@PAUtagTAUCTION@@@std@@@std@@UBidPriceDESC@@@std@@YA?AU?$pair@Viterator@?$vector@PAUtagTAUCTION@@V?$allocator@PAUtagTAUCTION@@@std@@@std@@V123@@0@Viterator@?$vector@PAUtagTAUCTION@@V?$allocator@PAUtagTAUCTION@@@std@@@0@0UBidPriceDESC@@@Z
_TEXT	SEGMENT PARA USE32 PUBLIC 'CODE'
_TEXT	ENDS
;	COMDAT ??$make_heap@Viterator@?$vector@PAUtagTAUCTION@@V?$allocator@PAUtagTAUCTION@@@std@@@std@@UBidPriceDESC@@@std@@YAXViterator@?$vector@PAUtagTAUCTION@@V?$allocator@PAUtagTAUCTION@@@std@@@0@0UBidPriceDESC@@@Z
_TEXT	SEGMENT PARA USE32 PUBLIC 'CODE'
_TEXT	ENDS
;	COMDAT ??$sort_heap@Viterator@?$vector@PAUtagTAUCTION@@V?$allocator@PAUtagTAUCTION@@@std@@@std@@UBidPriceDESC@@@std@@YAXViterator@?$vector@PAUtagTAUCTION@@V?$allocator@PAUtagTAUCTION@@@std@@@0@0UBidPriceDESC@@@Z
_TEXT	SEGMENT PARA USE32 PUBLIC 'CODE'
_TEXT	ENDS
;	COMDAT ??$_Insertion_sort@Viterator@?$vector@PAUtagTAUCTION@@V?$allocator@PAUtagTAUCTION@@@std@@@std@@UBidPriceDESC@@@std@@YAXViterator@?$vector@PAUtagTAUCTION@@V?$allocator@PAUtagTAUCTION@@@std@@@0@0UBidPriceDESC@@@Z
_TEXT	SEGMENT PARA USE32 PUBLIC 'CODE'
_TEXT	ENDS
;	COMDAT ??$_Unguarded_partition@Viterator@?$vector@PAUtagTAUCTION@@V?$allocator@PAUtagTAUCTION@@@std@@@std@@UDirectPriceASC@@@std@@YA?AU?$pair@Viterator@?$vector@PAUtagTAUCTION@@V?$allocator@PAUtagTAUCTION@@@std@@@std@@V123@@0@Viterator@?$vector@PAUtagTAUCTION@@V?$allocator@PAUtagTAUCTION@@@std@@@0@0UDirectPriceASC@@@Z
_TEXT	SEGMENT PARA USE32 PUBLIC 'CODE'
_TEXT	ENDS
;	COMDAT ??$make_heap@Viterator@?$vector@PAUtagTAUCTION@@V?$allocator@PAUtagTAUCTION@@@std@@@std@@UDirectPriceASC@@@std@@YAXViterator@?$vector@PAUtagTAUCTION@@V?$allocator@PAUtagTAUCTION@@@std@@@0@0UDirectPriceASC@@@Z
_TEXT	SEGMENT PARA USE32 PUBLIC 'CODE'
_TEXT	ENDS
;	COMDAT ??$sort_heap@Viterator@?$vector@PAUtagTAUCTION@@V?$allocator@PAUtagTAUCTION@@@std@@@std@@UDirectPriceASC@@@std@@YAXViterator@?$vector@PAUtagTAUCTION@@V?$allocator@PAUtagTAUCTION@@@std@@@0@0UDirectPriceASC@@@Z
_TEXT	SEGMENT PARA USE32 PUBLIC 'CODE'
_TEXT	ENDS
;	COMDAT ??$_Insertion_sort@Viterator@?$vector@PAUtagTAUCTION@@V?$allocator@PAUtagTAUCTION@@@std@@@std@@UDirectPriceASC@@@std@@YAXViterator@?$vector@PAUtagTAUCTION@@V?$allocator@PAUtagTAUCTION@@@std@@@0@0UDirectPriceASC@@@Z
_TEXT	SEGMENT PARA USE32 PUBLIC 'CODE'
_TEXT	ENDS
;	COMDAT ??$_Unguarded_partition@Viterator@?$vector@PAUtagTAUCTION@@V?$allocator@PAUtagTAUCTION@@@std@@@std@@UDirectPriceDESC@@@std@@YA?AU?$pair@Viterator@?$vector@PAUtagTAUCTION@@V?$allocator@PAUtagTAUCTION@@@std@@@std@@V123@@0@Viterator@?$vector@PAUtagTAUCTION@@V?$allocator@PAUtagTAUCTION@@@std@@@0@0UDirectPriceDESC@@@Z
_TEXT	SEGMENT PARA USE32 PUBLIC 'CODE'
_TEXT	ENDS
;	COMDAT ??$make_heap@Viterator@?$vector@PAUtagTAUCTION@@V?$allocator@PAUtagTAUCTION@@@std@@@std@@UDirectPriceDESC@@@std@@YAXViterator@?$vector@PAUtagTAUCTION@@V?$allocator@PAUtagTAUCTION@@@std@@@0@0UDirectPriceDESC@@@Z
_TEXT	SEGMENT PARA USE32 PUBLIC 'CODE'
_TEXT	ENDS
;	COMDAT ??$sort_heap@Viterator@?$vector@PAUtagTAUCTION@@V?$allocator@PAUtagTAUCTION@@@std@@@std@@UDirectPriceDESC@@@std@@YAXViterator@?$vector@PAUtagTAUCTION@@V?$allocator@PAUtagTAUCTION@@@std@@@0@0UDirectPriceDESC@@@Z
_TEXT	SEGMENT PARA USE32 PUBLIC 'CODE'
_TEXT	ENDS
;	COMDAT ??$_Insertion_sort@Viterator@?$vector@PAUtagTAUCTION@@V?$allocator@PAUtagTAUCTION@@@std@@@std@@UDirectPriceDESC@@@std@@YAXViterator@?$vector@PAUtagTAUCTION@@V?$allocator@PAUtagTAUCTION@@@std@@@0@0UDirectPriceDESC@@@Z
_TEXT	SEGMENT PARA USE32 PUBLIC 'CODE'
_TEXT	ENDS
;	COMDAT ??$_Unguarded_partition@Viterator@?$vector@PAUtagTAUCTION@@V?$allocator@PAUtagTAUCTION@@@std@@@std@@UBidCountASC@@@std@@YA?AU?$pair@Viterator@?$vector@PAUtagTAUCTION@@V?$allocator@PAUtagTAUCTION@@@std@@@std@@V123@@0@Viterator@?$vector@PAUtagTAUCTION@@V?$allocator@PAUtagTAUCTION@@@std@@@0@0UBidCountASC@@@Z
_TEXT	SEGMENT PARA USE32 PUBLIC 'CODE'
_TEXT	ENDS
;	COMDAT ??$make_heap@Viterator@?$vector@PAUtagTAUCTION@@V?$allocator@PAUtagTAUCTION@@@std@@@std@@UBidCountASC@@@std@@YAXViterator@?$vector@PAUtagTAUCTION@@V?$allocator@PAUtagTAUCTION@@@std@@@0@0UBidCountASC@@@Z
_TEXT	SEGMENT PARA USE32 PUBLIC 'CODE'
_TEXT	ENDS
;	COMDAT ??$sort_heap@Viterator@?$vector@PAUtagTAUCTION@@V?$allocator@PAUtagTAUCTION@@@std@@@std@@UBidCountASC@@@std@@YAXViterator@?$vector@PAUtagTAUCTION@@V?$allocator@PAUtagTAUCTION@@@std@@@0@0UBidCountASC@@@Z
_TEXT	SEGMENT PARA USE32 PUBLIC 'CODE'
_TEXT	ENDS
;	COMDAT ??$_Insertion_sort@Viterator@?$vector@PAUtagTAUCTION@@V?$allocator@PAUtagTAUCTION@@@std@@@std@@UBidCountASC@@@std@@YAXViterator@?$vector@PAUtagTAUCTION@@V?$allocator@PAUtagTAUCTION@@@std@@@0@0UBidCountASC@@@Z
_TEXT	SEGMENT PARA USE32 PUBLIC 'CODE'
_TEXT	ENDS
;	COMDAT ??$_Unguarded_partition@Viterator@?$vector@PAUtagTAUCTION@@V?$allocator@PAUtagTAUCTION@@@std@@@std@@UBidCountDESC@@@std@@YA?AU?$pair@Viterator@?$vector@PAUtagTAUCTION@@V?$allocator@PAUtagTAUCTION@@@std@@@std@@V123@@0@Viterator@?$vector@PAUtagTAUCTION@@V?$allocator@PAUtagTAUCTION@@@std@@@0@0UBidCountDESC@@@Z
_TEXT	SEGMENT PARA USE32 PUBLIC 'CODE'
_TEXT	ENDS
;	COMDAT ??$make_heap@Viterator@?$vector@PAUtagTAUCTION@@V?$allocator@PAUtagTAUCTION@@@std@@@std@@UBidCountDESC@@@std@@YAXViterator@?$vector@PAUtagTAUCTION@@V?$allocator@PAUtagTAUCTION@@@std@@@0@0UBidCountDESC@@@Z
_TEXT	SEGMENT PARA USE32 PUBLIC 'CODE'
_TEXT	ENDS
;	COMDAT ??$sort_heap@Viterator@?$vector@PAUtagTAUCTION@@V?$allocator@PAUtagTAUCTION@@@std@@@std@@UBidCountDESC@@@std@@YAXViterator@?$vector@PAUtagTAUCTION@@V?$allocator@PAUtagTAUCTION@@@std@@@0@0UBidCountDESC@@@Z
_TEXT	SEGMENT PARA USE32 PUBLIC 'CODE'
_TEXT	ENDS
;	COMDAT ??$_Insertion_sort@Viterator@?$vector@PAUtagTAUCTION@@V?$allocator@PAUtagTAUCTION@@@std@@@std@@UBidCountDESC@@@std@@YAXViterator@?$vector@PAUtagTAUCTION@@V?$allocator@PAUtagTAUCTION@@@std@@@0@0UBidCountDESC@@@Z
_TEXT	SEGMENT PARA USE32 PUBLIC 'CODE'
_TEXT	ENDS
;	COMDAT ??$_Unguarded_partition@Viterator@?$vector@PAUtagTAUCTION@@V?$allocator@PAUtagTAUCTION@@@std@@@std@@UClassASC@@@std@@YA?AU?$pair@Viterator@?$vector@PAUtagTAUCTION@@V?$allocator@PAUtagTAUCTION@@@std@@@std@@V123@@0@Viterator@?$vector@PAUtagTAUCTION@@V?$allocator@PAUtagTAUCTION@@@std@@@0@0UClassASC@@@Z
_TEXT	SEGMENT PARA USE32 PUBLIC 'CODE'
_TEXT	ENDS
;	COMDAT ??$make_heap@Viterator@?$vector@PAUtagTAUCTION@@V?$allocator@PAUtagTAUCTION@@@std@@@std@@UClassASC@@@std@@YAXViterator@?$vector@PAUtagTAUCTION@@V?$allocator@PAUtagTAUCTION@@@std@@@0@0UClassASC@@@Z
_TEXT	SEGMENT PARA USE32 PUBLIC 'CODE'
_TEXT	ENDS
;	COMDAT ??$sort_heap@Viterator@?$vector@PAUtagTAUCTION@@V?$allocator@PAUtagTAUCTION@@@std@@@std@@UClassASC@@@std@@YAXViterator@?$vector@PAUtagTAUCTION@@V?$allocator@PAUtagTAUCTION@@@std@@@0@0UClassASC@@@Z
_TEXT	SEGMENT PARA USE32 PUBLIC 'CODE'
_TEXT	ENDS
;	COMDAT ??$_Insertion_sort@Viterator@?$vector@PAUtagTAUCTION@@V?$allocator@PAUtagTAUCTION@@@std@@@std@@UClassASC@@@std@@YAXViterator@?$vector@PAUtagTAUCTION@@V?$allocator@PAUtagTAUCTION@@@std@@@0@0UClassASC@@@Z
_TEXT	SEGMENT PARA USE32 PUBLIC 'CODE'
_TEXT	ENDS
;	COMDAT ??$_Unguarded_partition@Viterator@?$vector@PAUtagTAUCTION@@V?$allocator@PAUtagTAUCTION@@@std@@@std@@UClassDESC@@@std@@YA?AU?$pair@Viterator@?$vector@PAUtagTAUCTION@@V?$allocator@PAUtagTAUCTION@@@std@@@std@@V123@@0@Viterator@?$vector@PAUtagTAUCTION@@V?$allocator@PAUtagTAUCTION@@@std@@@0@0UClassDESC@@@Z
_TEXT	SEGMENT PARA USE32 PUBLIC 'CODE'
_TEXT	ENDS
;	COMDAT ??$make_heap@Viterator@?$vector@PAUtagTAUCTION@@V?$allocator@PAUtagTAUCTION@@@std@@@std@@UClassDESC@@@std@@YAXViterator@?$vector@PAUtagTAUCTION@@V?$allocator@PAUtagTAUCTION@@@std@@@0@0UClassDESC@@@Z
_TEXT	SEGMENT PARA USE32 PUBLIC 'CODE'
_TEXT	ENDS
;	COMDAT ??$sort_heap@Viterator@?$vector@PAUtagTAUCTION@@V?$allocator@PAUtagTAUCTION@@@std@@@std@@UClassDESC@@@std@@YAXViterator@?$vector@PAUtagTAUCTION@@V?$allocator@PAUtagTAUCTION@@@std@@@0@0UClassDESC@@@Z
_TEXT	SEGMENT PARA USE32 PUBLIC 'CODE'
_TEXT	ENDS
;	COMDAT ??$_Insertion_sort@Viterator@?$vector@PAUtagTAUCTION@@V?$allocator@PAUtagTAUCTION@@@std@@@std@@UClassDESC@@@std@@YAXViterator@?$vector@PAUtagTAUCTION@@V?$allocator@PAUtagTAUCTION@@@std@@@0@0UClassDESC@@@Z
_TEXT	SEGMENT PARA USE32 PUBLIC 'CODE'
_TEXT	ENDS
;	COMDAT ??$_Unguarded_partition@Viterator@?$vector@PAUtagTAUCTION@@V?$allocator@PAUtagTAUCTION@@@std@@@std@@USellerNameASC@@@std@@YA?AU?$pair@Viterator@?$vector@PAUtagTAUCTION@@V?$allocator@PAUtagTAUCTION@@@std@@@std@@V123@@0@Viterator@?$vector@PAUtagTAUCTION@@V?$allocator@PAUtagTAUCTION@@@std@@@0@0USellerNameASC@@@Z
_TEXT	SEGMENT PARA USE32 PUBLIC 'CODE'
_TEXT	ENDS
;	COMDAT ??$make_heap@Viterator@?$vector@PAUtagTAUCTION@@V?$allocator@PAUtagTAUCTION@@@std@@@std@@USellerNameASC@@@std@@YAXViterator@?$vector@PAUtagTAUCTION@@V?$allocator@PAUtagTAUCTION@@@std@@@0@0USellerNameASC@@@Z
_TEXT	SEGMENT PARA USE32 PUBLIC 'CODE'
_TEXT	ENDS
;	COMDAT ??$sort_heap@Viterator@?$vector@PAUtagTAUCTION@@V?$allocator@PAUtagTAUCTION@@@std@@@std@@USellerNameASC@@@std@@YAXViterator@?$vector@PAUtagTAUCTION@@V?$allocator@PAUtagTAUCTION@@@std@@@0@0USellerNameASC@@@Z
_TEXT	SEGMENT PARA USE32 PUBLIC 'CODE'
_TEXT	ENDS
;	COMDAT ??$_Insertion_sort@Viterator@?$vector@PAUtagTAUCTION@@V?$allocator@PAUtagTAUCTION@@@std@@@std@@USellerNameASC@@@std@@YAXViterator@?$vector@PAUtagTAUCTION@@V?$allocator@PAUtagTAUCTION@@@std@@@0@0USellerNameASC@@@Z
_TEXT	SEGMENT PARA USE32 PUBLIC 'CODE'
_TEXT	ENDS
;	COMDAT ??$_Unguarded_partition@Viterator@?$vector@PAUtagTAUCTION@@V?$allocator@PAUtagTAUCTION@@@std@@@std@@USellerNameDESC@@@std@@YA?AU?$pair@Viterator@?$vector@PAUtagTAUCTION@@V?$allocator@PAUtagTAUCTION@@@std@@@std@@V123@@0@Viterator@?$vector@PAUtagTAUCTION@@V?$allocator@PAUtagTAUCTION@@@std@@@0@0USellerNameDESC@@@Z
_TEXT	SEGMENT PARA USE32 PUBLIC 'CODE'
_TEXT	ENDS
;	COMDAT ??$make_heap@Viterator@?$vector@PAUtagTAUCTION@@V?$allocator@PAUtagTAUCTION@@@std@@@std@@USellerNameDESC@@@std@@YAXViterator@?$vector@PAUtagTAUCTION@@V?$allocator@PAUtagTAUCTION@@@std@@@0@0USellerNameDESC@@@Z
_TEXT	SEGMENT PARA USE32 PUBLIC 'CODE'
_TEXT	ENDS
;	COMDAT ??$sort_heap@Viterator@?$vector@PAUtagTAUCTION@@V?$allocator@PAUtagTAUCTION@@@std@@@std@@USellerNameDESC@@@std@@YAXViterator@?$vector@PAUtagTAUCTION@@V?$allocator@PAUtagTAUCTION@@@std@@@0@0USellerNameDESC@@@Z
_TEXT	SEGMENT PARA USE32 PUBLIC 'CODE'
_TEXT	ENDS
;	COMDAT ??$_Insertion_sort@Viterator@?$vector@PAUtagTAUCTION@@V?$allocator@PAUtagTAUCTION@@@std@@@std@@USellerNameDESC@@@std@@YAXViterator@?$vector@PAUtagTAUCTION@@V?$allocator@PAUtagTAUCTION@@@std@@@0@0USellerNameDESC@@@Z
_TEXT	SEGMENT PARA USE32 PUBLIC 'CODE'
_TEXT	ENDS
;	COMDAT ??$iter_swap@Viterator@?$vector@PAUtagTAUCTION@@V?$allocator@PAUtagTAUCTION@@@std@@@std@@V123@@std@@YAXViterator@?$vector@PAUtagTAUCTION@@V?$allocator@PAUtagTAUCTION@@@std@@@0@0@Z
_TEXT	SEGMENT PARA USE32 PUBLIC 'CODE'
_TEXT	ENDS
;	COMDAT ??$_Unguarded_partition@Viterator@?$vector@PAUtagTAUCTION@@V?$allocator@PAUtagTAUCTION@@@std@@@std@@UWearLevelASC@@@std@@YA?AU?$pair@Viterator@?$vector@PAUtagTAUCTION@@V?$allocator@PAUtagTAUCTION@@@std@@@std@@V123@@0@Viterator@?$vector@PAUtagTAUCTION@@V?$allocator@PAUtagTAUCTION@@@std@@@0@0UWearLevelASC@@@Z
_TEXT	SEGMENT PARA USE32 PUBLIC 'CODE'
_TEXT	ENDS
;	COMDAT ??$make_heap@Viterator@?$vector@PAUtagTAUCTION@@V?$allocator@PAUtagTAUCTION@@@std@@@std@@UWearLevelASC@@@std@@YAXViterator@?$vector@PAUtagTAUCTION@@V?$allocator@PAUtagTAUCTION@@@std@@@0@0UWearLevelASC@@@Z
_TEXT	SEGMENT PARA USE32 PUBLIC 'CODE'
_TEXT	ENDS
;	COMDAT ??$sort_heap@Viterator@?$vector@PAUtagTAUCTION@@V?$allocator@PAUtagTAUCTION@@@std@@@std@@UWearLevelASC@@@std@@YAXViterator@?$vector@PAUtagTAUCTION@@V?$allocator@PAUtagTAUCTION@@@std@@@0@0UWearLevelASC@@@Z
_TEXT	SEGMENT PARA USE32 PUBLIC 'CODE'
_TEXT	ENDS
;	COMDAT ??$_Insertion_sort@Viterator@?$vector@PAUtagTAUCTION@@V?$allocator@PAUtagTAUCTION@@@std@@@std@@UWearLevelASC@@@std@@YAXViterator@?$vector@PAUtagTAUCTION@@V?$allocator@PAUtagTAUCTION@@@std@@@0@0UWearLevelASC@@@Z
_TEXT	SEGMENT PARA USE32 PUBLIC 'CODE'
_TEXT	ENDS
;	COMDAT ??$_Unguarded_partition@Viterator@?$vector@PAUtagTAUCTION@@V?$allocator@PAUtagTAUCTION@@@std@@@std@@UWearLevelDESC@@@std@@YA?AU?$pair@Viterator@?$vector@PAUtagTAUCTION@@V?$allocator@PAUtagTAUCTION@@@std@@@std@@V123@@0@Viterator@?$vector@PAUtagTAUCTION@@V?$allocator@PAUtagTAUCTION@@@std@@@0@0UWearLevelDESC@@@Z
_TEXT	SEGMENT PARA USE32 PUBLIC 'CODE'
_TEXT	ENDS
;	COMDAT ??$make_heap@Viterator@?$vector@PAUtagTAUCTION@@V?$allocator@PAUtagTAUCTION@@@std@@@std@@UWearLevelDESC@@@std@@YAXViterator@?$vector@PAUtagTAUCTION@@V?$allocator@PAUtagTAUCTION@@@std@@@0@0UWearLevelDESC@@@Z
_TEXT	SEGMENT PARA USE32 PUBLIC 'CODE'
_TEXT	ENDS
;	COMDAT ??$sort_heap@Viterator@?$vector@PAUtagTAUCTION@@V?$allocator@PAUtagTAUCTION@@@std@@@std@@UWearLevelDESC@@@std@@YAXViterator@?$vector@PAUtagTAUCTION@@V?$allocator@PAUtagTAUCTION@@@std@@@0@0UWearLevelDESC@@@Z
_TEXT	SEGMENT PARA USE32 PUBLIC 'CODE'
_TEXT	ENDS
;	COMDAT ??$_Insertion_sort@Viterator@?$vector@PAUtagTAUCTION@@V?$allocator@PAUtagTAUCTION@@@std@@@std@@UWearLevelDESC@@@std@@YAXViterator@?$vector@PAUtagTAUCTION@@V?$allocator@PAUtagTAUCTION@@@std@@@0@0UWearLevelDESC@@@Z
_TEXT	SEGMENT PARA USE32 PUBLIC 'CODE'
_TEXT	ENDS
;	COMDAT ??$_Unguarded_partition@Viterator@?$vector@PAUtagTAUCTION@@V?$allocator@PAUtagTAUCTION@@@std@@@std@@UItemLevelASC@@@std@@YA?AU?$pair@Viterator@?$vector@PAUtagTAUCTION@@V?$allocator@PAUtagTAUCTION@@@std@@@std@@V123@@0@Viterator@?$vector@PAUtagTAUCTION@@V?$allocator@PAUtagTAUCTION@@@std@@@0@0UItemLevelASC@@@Z
_TEXT	SEGMENT PARA USE32 PUBLIC 'CODE'
_TEXT	ENDS
;	COMDAT ??$make_heap@Viterator@?$vector@PAUtagTAUCTION@@V?$allocator@PAUtagTAUCTION@@@std@@@std@@UItemLevelASC@@@std@@YAXViterator@?$vector@PAUtagTAUCTION@@V?$allocator@PAUtagTAUCTION@@@std@@@0@0UItemLevelASC@@@Z
_TEXT	SEGMENT PARA USE32 PUBLIC 'CODE'
_TEXT	ENDS
;	COMDAT ??$sort_heap@Viterator@?$vector@PAUtagTAUCTION@@V?$allocator@PAUtagTAUCTION@@@std@@@std@@UItemLevelASC@@@std@@YAXViterator@?$vector@PAUtagTAUCTION@@V?$allocator@PAUtagTAUCTION@@@std@@@0@0UItemLevelASC@@@Z
_TEXT	SEGMENT PARA USE32 PUBLIC 'CODE'
_TEXT	ENDS
;	COMDAT ??$_Insertion_sort@Viterator@?$vector@PAUtagTAUCTION@@V?$allocator@PAUtagTAUCTION@@@std@@@std@@UItemLevelASC@@@std@@YAXViterator@?$vector@PAUtagTAUCTION@@V?$allocator@PAUtagTAUCTION@@@std@@@0@0UItemLevelASC@@@Z
_TEXT	SEGMENT PARA USE32 PUBLIC 'CODE'
_TEXT	ENDS
;	COMDAT ??$_Unguarded_partition@Viterator@?$vector@PAUtagTAUCTION@@V?$allocator@PAUtagTAUCTION@@@std@@@std@@UItemLevelDESC@@@std@@YA?AU?$pair@Viterator@?$vector@PAUtagTAUCTION@@V?$allocator@PAUtagTAUCTION@@@std@@@std@@V123@@0@Viterator@?$vector@PAUtagTAUCTION@@V?$allocator@PAUtagTAUCTION@@@std@@@0@0UItemLevelDESC@@@Z
_TEXT	SEGMENT PARA USE32 PUBLIC 'CODE'
_TEXT	ENDS
;	COMDAT ??$make_heap@Viterator@?$vector@PAUtagTAUCTION@@V?$allocator@PAUtagTAUCTION@@@std@@@std@@UItemLevelDESC@@@std@@YAXViterator@?$vector@PAUtagTAUCTION@@V?$allocator@PAUtagTAUCTION@@@std@@@0@0UItemLevelDESC@@@Z
_TEXT	SEGMENT PARA USE32 PUBLIC 'CODE'
_TEXT	ENDS
;	COMDAT ??$sort_heap@Viterator@?$vector@PAUtagTAUCTION@@V?$allocator@PAUtagTAUCTION@@@std@@@std@@UItemLevelDESC@@@std@@YAXViterator@?$vector@PAUtagTAUCTION@@V?$allocator@PAUtagTAUCTION@@@std@@@0@0UItemLevelDESC@@@Z
_TEXT	SEGMENT PARA USE32 PUBLIC 'CODE'
_TEXT	ENDS
;	COMDAT ??$_Insertion_sort@Viterator@?$vector@PAUtagTAUCTION@@V?$allocator@PAUtagTAUCTION@@@std@@@std@@UItemLevelDESC@@@std@@YAXViterator@?$vector@PAUtagTAUCTION@@V?$allocator@PAUtagTAUCTION@@@std@@@0@0UItemLevelDESC@@@Z
_TEXT	SEGMENT PARA USE32 PUBLIC 'CODE'
_TEXT	ENDS
;	COMDAT ??$fill_n@PAPAUtagTAUCTION@@IPAU1@@std@@YAXPAPAUtagTAUCTION@@IABQAU1@@Z
_TEXT	SEGMENT PARA USE32 PUBLIC 'CODE'
_TEXT	ENDS
;	COMDAT ??$_Uninit_copy@PAUtagTAUCTION@@PAU1@@std@@YAPAPAUtagTAUCTION@@PAPAU1@00AAV?$allocator@PAUtagTAUCTION@@@0@U_Scalar_ptr_iterator_tag@0@@Z
_TEXT	SEGMENT PARA USE32 PUBLIC 'CODE'
_TEXT	ENDS
;	COMDAT ??Diterator@?$vector@PAUtagTAUCTION@@V?$allocator@PAUtagTAUCTION@@@std@@@std@@QBEAAPAUtagTAUCTION@@XZ
_TEXT	SEGMENT PARA USE32 PUBLIC 'CODE'
_TEXT	ENDS
;	COMDAT ??Eiterator@?$vector@PAUtagTAUCTION@@V?$allocator@PAUtagTAUCTION@@@std@@@std@@QAE?AV012@H@Z
_TEXT	SEGMENT PARA USE32 PUBLIC 'CODE'
_TEXT	ENDS
;	COMDAT ??Giterator@?$vector@PAUtagTAUCTION@@V?$allocator@PAUtagTAUCTION@@@std@@@std@@QBE?AV012@H@Z
_TEXT	SEGMENT PARA USE32 PUBLIC 'CODE'
_TEXT	ENDS
;	COMDAT ??8const_iterator@?$vector@PAUtagTAUCTION@@V?$allocator@PAUtagTAUCTION@@@std@@@std@@QBE_NABV012@@Z
_TEXT	SEGMENT PARA USE32 PUBLIC 'CODE'
_TEXT	ENDS
;	COMDAT ??9const_iterator@?$vector@PAUtagTAUCTION@@V?$allocator@PAUtagTAUCTION@@@std@@@std@@QBE_NABV012@@Z
_TEXT	SEGMENT PARA USE32 PUBLIC 'CODE'
_TEXT	ENDS
;	COMDAT ??0?$pair@Viterator@?$vector@PAUtagTAUCTION@@V?$allocator@PAUtagTAUCTION@@@std@@@std@@V123@@std@@QAE@ABViterator@?$vector@PAUtagTAUCTION@@V?$allocator@PAUtagTAUCTION@@@std@@@1@0@Z
_TEXT	SEGMENT PARA USE32 PUBLIC 'CODE'
_TEXT	ENDS
;	COMDAT ??Ziterator@?$vector@PAUtagTAUCTION@@V?$allocator@PAUtagTAUCTION@@@std@@@std@@QAEAAV012@H@Z
_TEXT	SEGMENT PARA USE32 PUBLIC 'CODE'
_TEXT	ENDS
;	COMDAT ??Dconst_iterator@?$vector@PAUtagTAUCTION@@V?$allocator@PAUtagTAUCTION@@@std@@@std@@QBEABQAUtagTAUCTION@@XZ
_TEXT	SEGMENT PARA USE32 PUBLIC 'CODE'
_TEXT	ENDS
;	COMDAT ??$_Median@Viterator@?$vector@PAUtagTAUCTION@@V?$allocator@PAUtagTAUCTION@@@std@@@std@@UAuctionIDASC@@@std@@YAXViterator@?$vector@PAUtagTAUCTION@@V?$allocator@PAUtagTAUCTION@@@std@@@0@00UAuctionIDASC@@@Z
_TEXT	SEGMENT PARA USE32 PUBLIC 'CODE'
_TEXT	ENDS
;	COMDAT ??$_Dist_type@Viterator@?$vector@PAUtagTAUCTION@@V?$allocator@PAUtagTAUCTION@@@std@@@std@@@std@@YAPAHViterator@?$vector@PAUtagTAUCTION@@V?$allocator@PAUtagTAUCTION@@@std@@@0@@Z
_TEXT	SEGMENT PARA USE32 PUBLIC 'CODE'
_TEXT	ENDS
;	COMDAT ??$_Val_type@Viterator@?$vector@PAUtagTAUCTION@@V?$allocator@PAUtagTAUCTION@@@std@@@std@@@std@@YAPAPAUtagTAUCTION@@Viterator@?$vector@PAUtagTAUCTION@@V?$allocator@PAUtagTAUCTION@@@std@@@0@@Z
_TEXT	SEGMENT PARA USE32 PUBLIC 'CODE'
_TEXT	ENDS
;	COMDAT ??$_Make_heap@Viterator@?$vector@PAUtagTAUCTION@@V?$allocator@PAUtagTAUCTION@@@std@@@std@@HPAUtagTAUCTION@@UAuctionIDASC@@@std@@YAXViterator@?$vector@PAUtagTAUCTION@@V?$allocator@PAUtagTAUCTION@@@std@@@0@0UAuctionIDASC@@PAHPAPAUtagTAUCTION@@@Z
_TEXT	SEGMENT PARA USE32 PUBLIC 'CODE'
_TEXT	ENDS
;	COMDAT ??$pop_heap@Viterator@?$vector@PAUtagTAUCTION@@V?$allocator@PAUtagTAUCTION@@@std@@@std@@UAuctionIDASC@@@std@@YAXViterator@?$vector@PAUtagTAUCTION@@V?$allocator@PAUtagTAUCTION@@@std@@@0@0UAuctionIDASC@@@Z
_TEXT	SEGMENT PARA USE32 PUBLIC 'CODE'
_TEXT	ENDS
;	COMDAT ??$rotate@Viterator@?$vector@PAUtagTAUCTION@@V?$allocator@PAUtagTAUCTION@@@std@@@std@@@std@@YAXViterator@?$vector@PAUtagTAUCTION@@V?$allocator@PAUtagTAUCTION@@@std@@@0@00@Z
_TEXT	SEGMENT PARA USE32 PUBLIC 'CODE'
_TEXT	ENDS
;	COMDAT ??$_Median@Viterator@?$vector@PAUtagTAUCTION@@V?$allocator@PAUtagTAUCTION@@@std@@@std@@UAuctionIDDESC@@@std@@YAXViterator@?$vector@PAUtagTAUCTION@@V?$allocator@PAUtagTAUCTION@@@std@@@0@00UAuctionIDDESC@@@Z
_TEXT	SEGMENT PARA USE32 PUBLIC 'CODE'
_TEXT	ENDS
;	COMDAT ??$_Make_heap@Viterator@?$vector@PAUtagTAUCTION@@V?$allocator@PAUtagTAUCTION@@@std@@@std@@HPAUtagTAUCTION@@UAuctionIDDESC@@@std@@YAXViterator@?$vector@PAUtagTAUCTION@@V?$allocator@PAUtagTAUCTION@@@std@@@0@0UAuctionIDDESC@@PAHPAPAUtagTAUCTION@@@Z
_TEXT	SEGMENT PARA USE32 PUBLIC 'CODE'
_TEXT	ENDS
;	COMDAT ??$pop_heap@Viterator@?$vector@PAUtagTAUCTION@@V?$allocator@PAUtagTAUCTION@@@std@@@std@@UAuctionIDDESC@@@std@@YAXViterator@?$vector@PAUtagTAUCTION@@V?$allocator@PAUtagTAUCTION@@@std@@@0@0UAuctionIDDESC@@@Z
_TEXT	SEGMENT PARA USE32 PUBLIC 'CODE'
_TEXT	ENDS
;	COMDAT ??$_Median@Viterator@?$vector@PAUtagTAUCTION@@V?$allocator@PAUtagTAUCTION@@@std@@@std@@UEndTimeASC@@@std@@YAXViterator@?$vector@PAUtagTAUCTION@@V?$allocator@PAUtagTAUCTION@@@std@@@0@00UEndTimeASC@@@Z
_TEXT	SEGMENT PARA USE32 PUBLIC 'CODE'
_TEXT	ENDS
;	COMDAT ??$_Make_heap@Viterator@?$vector@PAUtagTAUCTION@@V?$allocator@PAUtagTAUCTION@@@std@@@std@@HPAUtagTAUCTION@@UEndTimeASC@@@std@@YAXViterator@?$vector@PAUtagTAUCTION@@V?$allocator@PAUtagTAUCTION@@@std@@@0@0UEndTimeASC@@PAHPAPAUtagTAUCTION@@@Z
_TEXT	SEGMENT PARA USE32 PUBLIC 'CODE'
_TEXT	ENDS
;	COMDAT ??$pop_heap@Viterator@?$vector@PAUtagTAUCTION@@V?$allocator@PAUtagTAUCTION@@@std@@@std@@UEndTimeASC@@@std@@YAXViterator@?$vector@PAUtagTAUCTION@@V?$allocator@PAUtagTAUCTION@@@std@@@0@0UEndTimeASC@@@Z
_TEXT	SEGMENT PARA USE32 PUBLIC 'CODE'
_TEXT	ENDS
;	COMDAT ??$_Median@Viterator@?$vector@PAUtagTAUCTION@@V?$allocator@PAUtagTAUCTION@@@std@@@std@@UEndTimeDESC@@@std@@YAXViterator@?$vector@PAUtagTAUCTION@@V?$allocator@PAUtagTAUCTION@@@std@@@0@00UEndTimeDESC@@@Z
_TEXT	SEGMENT PARA USE32 PUBLIC 'CODE'
_TEXT	ENDS
;	COMDAT ??$_Make_heap@Viterator@?$vector@PAUtagTAUCTION@@V?$allocator@PAUtagTAUCTION@@@std@@@std@@HPAUtagTAUCTION@@UEndTimeDESC@@@std@@YAXViterator@?$vector@PAUtagTAUCTION@@V?$allocator@PAUtagTAUCTION@@@std@@@0@0UEndTimeDESC@@PAHPAPAUtagTAUCTION@@@Z
_TEXT	SEGMENT PARA USE32 PUBLIC 'CODE'
_TEXT	ENDS
;	COMDAT ??$pop_heap@Viterator@?$vector@PAUtagTAUCTION@@V?$allocator@PAUtagTAUCTION@@@std@@@std@@UEndTimeDESC@@@std@@YAXViterator@?$vector@PAUtagTAUCTION@@V?$allocator@PAUtagTAUCTION@@@std@@@0@0UEndTimeDESC@@@Z
_TEXT	SEGMENT PARA USE32 PUBLIC 'CODE'
_TEXT	ENDS
;	COMDAT ??$_Median@Viterator@?$vector@PAUtagTAUCTION@@V?$allocator@PAUtagTAUCTION@@@std@@@std@@URemainTimeASC@@@std@@YAXViterator@?$vector@PAUtagTAUCTION@@V?$allocator@PAUtagTAUCTION@@@std@@@0@00URemainTimeASC@@@Z
_TEXT	SEGMENT PARA USE32 PUBLIC 'CODE'
_TEXT	ENDS
;	COMDAT ??$_Make_heap@Viterator@?$vector@PAUtagTAUCTION@@V?$allocator@PAUtagTAUCTION@@@std@@@std@@HPAUtagTAUCTION@@URemainTimeASC@@@std@@YAXViterator@?$vector@PAUtagTAUCTION@@V?$allocator@PAUtagTAUCTION@@@std@@@0@0URemainTimeASC@@PAHPAPAUtagTAUCTION@@@Z
_TEXT	SEGMENT PARA USE32 PUBLIC 'CODE'
_TEXT	ENDS
;	COMDAT ??$pop_heap@Viterator@?$vector@PAUtagTAUCTION@@V?$allocator@PAUtagTAUCTION@@@std@@@std@@URemainTimeASC@@@std@@YAXViterator@?$vector@PAUtagTAUCTION@@V?$allocator@PAUtagTAUCTION@@@std@@@0@0URemainTimeASC@@@Z
_TEXT	SEGMENT PARA USE32 PUBLIC 'CODE'
_TEXT	ENDS
;	COMDAT ??$_Median@Viterator@?$vector@PAUtagTAUCTION@@V?$allocator@PAUtagTAUCTION@@@std@@@std@@URemainTimeDESC@@@std@@YAXViterator@?$vector@PAUtagTAUCTION@@V?$allocator@PAUtagTAUCTION@@@std@@@0@00URemainTimeDESC@@@Z
_TEXT	SEGMENT PARA USE32 PUBLIC 'CODE'
_TEXT	ENDS
;	COMDAT ??$_Make_heap@Viterator@?$vector@PAUtagTAUCTION@@V?$allocator@PAUtagTAUCTION@@@std@@@std@@HPAUtagTAUCTION@@URemainTimeDESC@@@std@@YAXViterator@?$vector@PAUtagTAUCTION@@V?$allocator@PAUtagTAUCTION@@@std@@@0@0URemainTimeDESC@@PAHPAPAUtagTAUCTION@@@Z
_TEXT	SEGMENT PARA USE32 PUBLIC 'CODE'
_TEXT	ENDS
;	COMDAT ??$pop_heap@Viterator@?$vector@PAUtagTAUCTION@@V?$allocator@PAUtagTAUCTION@@@std@@@std@@URemainTimeDESC@@@std@@YAXViterator@?$vector@PAUtagTAUCTION@@V?$allocator@PAUtagTAUCTION@@@std@@@0@0URemainTimeDESC@@@Z
_TEXT	SEGMENT PARA USE32 PUBLIC 'CODE'
_TEXT	ENDS
;	COMDAT ??$_Median@Viterator@?$vector@PAUtagTAUCTION@@V?$allocator@PAUtagTAUCTION@@@std@@@std@@UBidPriceASC@@@std@@YAXViterator@?$vector@PAUtagTAUCTION@@V?$allocator@PAUtagTAUCTION@@@std@@@0@00UBidPriceASC@@@Z
_TEXT	SEGMENT PARA USE32 PUBLIC 'CODE'
_TEXT	ENDS
;	COMDAT ??$_Make_heap@Viterator@?$vector@PAUtagTAUCTION@@V?$allocator@PAUtagTAUCTION@@@std@@@std@@HPAUtagTAUCTION@@UBidPriceASC@@@std@@YAXViterator@?$vector@PAUtagTAUCTION@@V?$allocator@PAUtagTAUCTION@@@std@@@0@0UBidPriceASC@@PAHPAPAUtagTAUCTION@@@Z
_TEXT	SEGMENT PARA USE32 PUBLIC 'CODE'
_TEXT	ENDS
;	COMDAT ??$pop_heap@Viterator@?$vector@PAUtagTAUCTION@@V?$allocator@PAUtagTAUCTION@@@std@@@std@@UBidPriceASC@@@std@@YAXViterator@?$vector@PAUtagTAUCTION@@V?$allocator@PAUtagTAUCTION@@@std@@@0@0UBidPriceASC@@@Z
_TEXT	SEGMENT PARA USE32 PUBLIC 'CODE'
_TEXT	ENDS
;	COMDAT ??$_Median@Viterator@?$vector@PAUtagTAUCTION@@V?$allocator@PAUtagTAUCTION@@@std@@@std@@UBidPriceDESC@@@std@@YAXViterator@?$vector@PAUtagTAUCTION@@V?$allocator@PAUtagTAUCTION@@@std@@@0@00UBidPriceDESC@@@Z
_TEXT	SEGMENT PARA USE32 PUBLIC 'CODE'
_TEXT	ENDS
;	COMDAT ??$_Make_heap@Viterator@?$vector@PAUtagTAUCTION@@V?$allocator@PAUtagTAUCTION@@@std@@@std@@HPAUtagTAUCTION@@UBidPriceDESC@@@std@@YAXViterator@?$vector@PAUtagTAUCTION@@V?$allocator@PAUtagTAUCTION@@@std@@@0@0UBidPriceDESC@@PAHPAPAUtagTAUCTION@@@Z
_TEXT	SEGMENT PARA USE32 PUBLIC 'CODE'
_TEXT	ENDS
;	COMDAT ??$pop_heap@Viterator@?$vector@PAUtagTAUCTION@@V?$allocator@PAUtagTAUCTION@@@std@@@std@@UBidPriceDESC@@@std@@YAXViterator@?$vector@PAUtagTAUCTION@@V?$allocator@PAUtagTAUCTION@@@std@@@0@0UBidPriceDESC@@@Z
_TEXT	SEGMENT PARA USE32 PUBLIC 'CODE'
_TEXT	ENDS
;	COMDAT ??$_Median@Viterator@?$vector@PAUtagTAUCTION@@V?$allocator@PAUtagTAUCTION@@@std@@@std@@UDirectPriceASC@@@std@@YAXViterator@?$vector@PAUtagTAUCTION@@V?$allocator@PAUtagTAUCTION@@@std@@@0@00UDirectPriceASC@@@Z
_TEXT	SEGMENT PARA USE32 PUBLIC 'CODE'
_TEXT	ENDS
;	COMDAT ??$_Make_heap@Viterator@?$vector@PAUtagTAUCTION@@V?$allocator@PAUtagTAUCTION@@@std@@@std@@HPAUtagTAUCTION@@UDirectPriceASC@@@std@@YAXViterator@?$vector@PAUtagTAUCTION@@V?$allocator@PAUtagTAUCTION@@@std@@@0@0UDirectPriceASC@@PAHPAPAUtagTAUCTION@@@Z
_TEXT	SEGMENT PARA USE32 PUBLIC 'CODE'
_TEXT	ENDS
;	COMDAT ??$pop_heap@Viterator@?$vector@PAUtagTAUCTION@@V?$allocator@PAUtagTAUCTION@@@std@@@std@@UDirectPriceASC@@@std@@YAXViterator@?$vector@PAUtagTAUCTION@@V?$allocator@PAUtagTAUCTION@@@std@@@0@0UDirectPriceASC@@@Z
_TEXT	SEGMENT PARA USE32 PUBLIC 'CODE'
_TEXT	ENDS
;	COMDAT ??$_Median@Viterator@?$vector@PAUtagTAUCTION@@V?$allocator@PAUtagTAUCTION@@@std@@@std@@UDirectPriceDESC@@@std@@YAXViterator@?$vector@PAUtagTAUCTION@@V?$allocator@PAUtagTAUCTION@@@std@@@0@00UDirectPriceDESC@@@Z
_TEXT	SEGMENT PARA USE32 PUBLIC 'CODE'
_TEXT	ENDS
;	COMDAT ??$_Make_heap@Viterator@?$vector@PAUtagTAUCTION@@V?$allocator@PAUtagTAUCTION@@@std@@@std@@HPAUtagTAUCTION@@UDirectPriceDESC@@@std@@YAXViterator@?$vector@PAUtagTAUCTION@@V?$allocator@PAUtagTAUCTION@@@std@@@0@0UDirectPriceDESC@@PAHPAPAUtagTAUCTION@@@Z
_TEXT	SEGMENT PARA USE32 PUBLIC 'CODE'
_TEXT	ENDS
;	COMDAT ??$pop_heap@Viterator@?$vector@PAUtagTAUCTION@@V?$allocator@PAUtagTAUCTION@@@std@@@std@@UDirectPriceDESC@@@std@@YAXViterator@?$vector@PAUtagTAUCTION@@V?$allocator@PAUtagTAUCTION@@@std@@@0@0UDirectPriceDESC@@@Z
_TEXT	SEGMENT PARA USE32 PUBLIC 'CODE'
_TEXT	ENDS
;	COMDAT ??$_Median@Viterator@?$vector@PAUtagTAUCTION@@V?$allocator@PAUtagTAUCTION@@@std@@@std@@UBidCountASC@@@std@@YAXViterator@?$vector@PAUtagTAUCTION@@V?$allocator@PAUtagTAUCTION@@@std@@@0@00UBidCountASC@@@Z
_TEXT	SEGMENT PARA USE32 PUBLIC 'CODE'
_TEXT	ENDS
;	COMDAT ??$_Make_heap@Viterator@?$vector@PAUtagTAUCTION@@V?$allocator@PAUtagTAUCTION@@@std@@@std@@HPAUtagTAUCTION@@UBidCountASC@@@std@@YAXViterator@?$vector@PAUtagTAUCTION@@V?$allocator@PAUtagTAUCTION@@@std@@@0@0UBidCountASC@@PAHPAPAUtagTAUCTION@@@Z
_TEXT	SEGMENT PARA USE32 PUBLIC 'CODE'
_TEXT	ENDS
;	COMDAT ??$pop_heap@Viterator@?$vector@PAUtagTAUCTION@@V?$allocator@PAUtagTAUCTION@@@std@@@std@@UBidCountASC@@@std@@YAXViterator@?$vector@PAUtagTAUCTION@@V?$allocator@PAUtagTAUCTION@@@std@@@0@0UBidCountASC@@@Z
_TEXT	SEGMENT PARA USE32 PUBLIC 'CODE'
_TEXT	ENDS
;	COMDAT ??$_Median@Viterator@?$vector@PAUtagTAUCTION@@V?$allocator@PAUtagTAUCTION@@@std@@@std@@UBidCountDESC@@@std@@YAXViterator@?$vector@PAUtagTAUCTION@@V?$allocator@PAUtagTAUCTION@@@std@@@0@00UBidCountDESC@@@Z
_TEXT	SEGMENT PARA USE32 PUBLIC 'CODE'
_TEXT	ENDS
;	COMDAT ??$_Make_heap@Viterator@?$vector@PAUtagTAUCTION@@V?$allocator@PAUtagTAUCTION@@@std@@@std@@HPAUtagTAUCTION@@UBidCountDESC@@@std@@YAXViterator@?$vector@PAUtagTAUCTION@@V?$allocator@PAUtagTAUCTION@@@std@@@0@0UBidCountDESC@@PAHPAPAUtagTAUCTION@@@Z
_TEXT	SEGMENT PARA USE32 PUBLIC 'CODE'
_TEXT	ENDS
;	COMDAT ??$pop_heap@Viterator@?$vector@PAUtagTAUCTION@@V?$allocator@PAUtagTAUCTION@@@std@@@std@@UBidCountDESC@@@std@@YAXViterator@?$vector@PAUtagTAUCTION@@V?$allocator@PAUtagTAUCTION@@@std@@@0@0UBidCountDESC@@@Z
_TEXT	SEGMENT PARA USE32 PUBLIC 'CODE'
_TEXT	ENDS
;	COMDAT ??$_Median@Viterator@?$vector@PAUtagTAUCTION@@V?$allocator@PAUtagTAUCTION@@@std@@@std@@UClassASC@@@std@@YAXViterator@?$vector@PAUtagTAUCTION@@V?$allocator@PAUtagTAUCTION@@@std@@@0@00UClassASC@@@Z
_TEXT	SEGMENT PARA USE32 PUBLIC 'CODE'
_TEXT	ENDS
;	COMDAT ??$_Make_heap@Viterator@?$vector@PAUtagTAUCTION@@V?$allocator@PAUtagTAUCTION@@@std@@@std@@HPAUtagTAUCTION@@UClassASC@@@std@@YAXViterator@?$vector@PAUtagTAUCTION@@V?$allocator@PAUtagTAUCTION@@@std@@@0@0UClassASC@@PAHPAPAUtagTAUCTION@@@Z
_TEXT	SEGMENT PARA USE32 PUBLIC 'CODE'
_TEXT	ENDS
;	COMDAT ??$pop_heap@Viterator@?$vector@PAUtagTAUCTION@@V?$allocator@PAUtagTAUCTION@@@std@@@std@@UClassASC@@@std@@YAXViterator@?$vector@PAUtagTAUCTION@@V?$allocator@PAUtagTAUCTION@@@std@@@0@0UClassASC@@@Z
_TEXT	SEGMENT PARA USE32 PUBLIC 'CODE'
_TEXT	ENDS
;	COMDAT ??$_Median@Viterator@?$vector@PAUtagTAUCTION@@V?$allocator@PAUtagTAUCTION@@@std@@@std@@UClassDESC@@@std@@YAXViterator@?$vector@PAUtagTAUCTION@@V?$allocator@PAUtagTAUCTION@@@std@@@0@00UClassDESC@@@Z
_TEXT	SEGMENT PARA USE32 PUBLIC 'CODE'
_TEXT	ENDS
;	COMDAT ??$_Make_heap@Viterator@?$vector@PAUtagTAUCTION@@V?$allocator@PAUtagTAUCTION@@@std@@@std@@HPAUtagTAUCTION@@UClassDESC@@@std@@YAXViterator@?$vector@PAUtagTAUCTION@@V?$allocator@PAUtagTAUCTION@@@std@@@0@0UClassDESC@@PAHPAPAUtagTAUCTION@@@Z
_TEXT	SEGMENT PARA USE32 PUBLIC 'CODE'
_TEXT	ENDS
;	COMDAT ??$pop_heap@Viterator@?$vector@PAUtagTAUCTION@@V?$allocator@PAUtagTAUCTION@@@std@@@std@@UClassDESC@@@std@@YAXViterator@?$vector@PAUtagTAUCTION@@V?$allocator@PAUtagTAUCTION@@@std@@@0@0UClassDESC@@@Z
_TEXT	SEGMENT PARA USE32 PUBLIC 'CODE'
_TEXT	ENDS
;	COMDAT ??$_Median@Viterator@?$vector@PAUtagTAUCTION@@V?$allocator@PAUtagTAUCTION@@@std@@@std@@USellerNameASC@@@std@@YAXViterator@?$vector@PAUtagTAUCTION@@V?$allocator@PAUtagTAUCTION@@@std@@@0@00USellerNameASC@@@Z
_TEXT	SEGMENT PARA USE32 PUBLIC 'CODE'
_TEXT	ENDS
;	COMDAT ??$_Make_heap@Viterator@?$vector@PAUtagTAUCTION@@V?$allocator@PAUtagTAUCTION@@@std@@@std@@HPAUtagTAUCTION@@USellerNameASC@@@std@@YAXViterator@?$vector@PAUtagTAUCTION@@V?$allocator@PAUtagTAUCTION@@@std@@@0@0USellerNameASC@@PAHPAPAUtagTAUCTION@@@Z
_TEXT	SEGMENT PARA USE32 PUBLIC 'CODE'
_TEXT	ENDS
;	COMDAT ??$pop_heap@Viterator@?$vector@PAUtagTAUCTION@@V?$allocator@PAUtagTAUCTION@@@std@@@std@@USellerNameASC@@@std@@YAXViterator@?$vector@PAUtagTAUCTION@@V?$allocator@PAUtagTAUCTION@@@std@@@0@0USellerNameASC@@@Z
_TEXT	SEGMENT PARA USE32 PUBLIC 'CODE'
_TEXT	ENDS
;	COMDAT ??$_Median@Viterator@?$vector@PAUtagTAUCTION@@V?$allocator@PAUtagTAUCTION@@@std@@@std@@USellerNameDESC@@@std@@YAXViterator@?$vector@PAUtagTAUCTION@@V?$allocator@PAUtagTAUCTION@@@std@@@0@00USellerNameDESC@@@Z
_TEXT	SEGMENT PARA USE32 PUBLIC 'CODE'
_TEXT	ENDS
;	COMDAT ??$_Make_heap@Viterator@?$vector@PAUtagTAUCTION@@V?$allocator@PAUtagTAUCTION@@@std@@@std@@HPAUtagTAUCTION@@USellerNameDESC@@@std@@YAXViterator@?$vector@PAUtagTAUCTION@@V?$allocator@PAUtagTAUCTION@@@std@@@0@0USellerNameDESC@@PAHPAPAUtagTAUCTION@@@Z
_TEXT	SEGMENT PARA USE32 PUBLIC 'CODE'
_TEXT	ENDS
;	COMDAT ??$pop_heap@Viterator@?$vector@PAUtagTAUCTION@@V?$allocator@PAUtagTAUCTION@@@std@@@std@@USellerNameDESC@@@std@@YAXViterator@?$vector@PAUtagTAUCTION@@V?$allocator@PAUtagTAUCTION@@@std@@@0@0USellerNameDESC@@@Z
_TEXT	SEGMENT PARA USE32 PUBLIC 'CODE'
_TEXT	ENDS
;	COMDAT ??$swap@PAUtagTAUCTION@@@std@@YAXAAPAUtagTAUCTION@@0@Z
_TEXT	SEGMENT PARA USE32 PUBLIC 'CODE'
_TEXT	ENDS
;	COMDAT ??$_Median@Viterator@?$vector@PAUtagTAUCTION@@V?$allocator@PAUtagTAUCTION@@@std@@@std@@UWearLevelASC@@@std@@YAXViterator@?$vector@PAUtagTAUCTION@@V?$allocator@PAUtagTAUCTION@@@std@@@0@00UWearLevelASC@@@Z
_TEXT	SEGMENT PARA USE32 PUBLIC 'CODE'
_TEXT	ENDS
;	COMDAT ??$_Make_heap@Viterator@?$vector@PAUtagTAUCTION@@V?$allocator@PAUtagTAUCTION@@@std@@@std@@HPAUtagTAUCTION@@UWearLevelASC@@@std@@YAXViterator@?$vector@PAUtagTAUCTION@@V?$allocator@PAUtagTAUCTION@@@std@@@0@0UWearLevelASC@@PAHPAPAUtagTAUCTION@@@Z
_TEXT	SEGMENT PARA USE32 PUBLIC 'CODE'
_TEXT	ENDS
;	COMDAT ??$pop_heap@Viterator@?$vector@PAUtagTAUCTION@@V?$allocator@PAUtagTAUCTION@@@std@@@std@@UWearLevelASC@@@std@@YAXViterator@?$vector@PAUtagTAUCTION@@V?$allocator@PAUtagTAUCTION@@@std@@@0@0UWearLevelASC@@@Z
_TEXT	SEGMENT PARA USE32 PUBLIC 'CODE'
_TEXT	ENDS
;	COMDAT ??$_Median@Viterator@?$vector@PAUtagTAUCTION@@V?$allocator@PAUtagTAUCTION@@@std@@@std@@UWearLevelDESC@@@std@@YAXViterator@?$vector@PAUtagTAUCTION@@V?$allocator@PAUtagTAUCTION@@@std@@@0@00UWearLevelDESC@@@Z
_TEXT	SEGMENT PARA USE32 PUBLIC 'CODE'
_TEXT	ENDS
;	COMDAT ??$_Make_heap@Viterator@?$vector@PAUtagTAUCTION@@V?$allocator@PAUtagTAUCTION@@@std@@@std@@HPAUtagTAUCTION@@UWearLevelDESC@@@std@@YAXViterator@?$vector@PAUtagTAUCTION@@V?$allocator@PAUtagTAUCTION@@@std@@@0@0UWearLevelDESC@@PAHPAPAUtagTAUCTION@@@Z
_TEXT	SEGMENT PARA USE32 PUBLIC 'CODE'
_TEXT	ENDS
;	COMDAT ??$pop_heap@Viterator@?$vector@PAUtagTAUCTION@@V?$allocator@PAUtagTAUCTION@@@std@@@std@@UWearLevelDESC@@@std@@YAXViterator@?$vector@PAUtagTAUCTION@@V?$allocator@PAUtagTAUCTION@@@std@@@0@0UWearLevelDESC@@@Z
_TEXT	SEGMENT PARA USE32 PUBLIC 'CODE'
_TEXT	ENDS
;	COMDAT ??$_Median@Viterator@?$vector@PAUtagTAUCTION@@V?$allocator@PAUtagTAUCTION@@@std@@@std@@UItemLevelASC@@@std@@YAXViterator@?$vector@PAUtagTAUCTION@@V?$allocator@PAUtagTAUCTION@@@std@@@0@00UItemLevelASC@@@Z
_TEXT	SEGMENT PARA USE32 PUBLIC 'CODE'
_TEXT	ENDS
;	COMDAT ??$_Make_heap@Viterator@?$vector@PAUtagTAUCTION@@V?$allocator@PAUtagTAUCTION@@@std@@@std@@HPAUtagTAUCTION@@UItemLevelASC@@@std@@YAXViterator@?$vector@PAUtagTAUCTION@@V?$allocator@PAUtagTAUCTION@@@std@@@0@0UItemLevelASC@@PAHPAPAUtagTAUCTION@@@Z
_TEXT	SEGMENT PARA USE32 PUBLIC 'CODE'
_TEXT	ENDS
;	COMDAT ??$pop_heap@Viterator@?$vector@PAUtagTAUCTION@@V?$allocator@PAUtagTAUCTION@@@std@@@std@@UItemLevelASC@@@std@@YAXViterator@?$vector@PAUtagTAUCTION@@V?$allocator@PAUtagTAUCTION@@@std@@@0@0UItemLevelASC@@@Z
_TEXT	SEGMENT PARA USE32 PUBLIC 'CODE'
_TEXT	ENDS
;	COMDAT ??$_Median@Viterator@?$vector@PAUtagTAUCTION@@V?$allocator@PAUtagTAUCTION@@@std@@@std@@UItemLevelDESC@@@std@@YAXViterator@?$vector@PAUtagTAUCTION@@V?$allocator@PAUtagTAUCTION@@@std@@@0@00UItemLevelDESC@@@Z
_TEXT	SEGMENT PARA USE32 PUBLIC 'CODE'
_TEXT	ENDS
;	COMDAT ??$_Make_heap@Viterator@?$vector@PAUtagTAUCTION@@V?$allocator@PAUtagTAUCTION@@@std@@@std@@HPAUtagTAUCTION@@UItemLevelDESC@@@std@@YAXViterator@?$vector@PAUtagTAUCTION@@V?$allocator@PAUtagTAUCTION@@@std@@@0@0UItemLevelDESC@@PAHPAPAUtagTAUCTION@@@Z
_TEXT	SEGMENT PARA USE32 PUBLIC 'CODE'
_TEXT	ENDS
;	COMDAT ??$pop_heap@Viterator@?$vector@PAUtagTAUCTION@@V?$allocator@PAUtagTAUCTION@@@std@@@std@@UItemLevelDESC@@@std@@YAXViterator@?$vector@PAUtagTAUCTION@@V?$allocator@PAUtagTAUCTION@@@std@@@0@0UItemLevelDESC@@@Z
_TEXT	SEGMENT PARA USE32 PUBLIC 'CODE'
_TEXT	ENDS
;	COMDAT ??$_Med3@Viterator@?$vector@PAUtagTAUCTION@@V?$allocator@PAUtagTAUCTION@@@std@@@std@@UAuctionIDASC@@@std@@YAXViterator@?$vector@PAUtagTAUCTION@@V?$allocator@PAUtagTAUCTION@@@std@@@0@00UAuctionIDASC@@@Z
_TEXT	SEGMENT PARA USE32 PUBLIC 'CODE'
_TEXT	ENDS
;	COMDAT ??$_Adjust_heap@Viterator@?$vector@PAUtagTAUCTION@@V?$allocator@PAUtagTAUCTION@@@std@@@std@@HPAUtagTAUCTION@@UAuctionIDASC@@@std@@YAXViterator@?$vector@PAUtagTAUCTION@@V?$allocator@PAUtagTAUCTION@@@std@@@0@HHPAUtagTAUCTION@@UAuctionIDASC@@@Z
_TEXT	SEGMENT PARA USE32 PUBLIC 'CODE'
_TEXT	ENDS
;	COMDAT ??$_Pop_heap_0@Viterator@?$vector@PAUtagTAUCTION@@V?$allocator@PAUtagTAUCTION@@@std@@@std@@PAUtagTAUCTION@@UAuctionIDASC@@@std@@YAXViterator@?$vector@PAUtagTAUCTION@@V?$allocator@PAUtagTAUCTION@@@std@@@0@0UAuctionIDASC@@PAPAUtagTAUCTION@@@Z
_TEXT	SEGMENT PARA USE32 PUBLIC 'CODE'
_TEXT	ENDS
;	COMDAT ??$_Rotate@Viterator@?$vector@PAUtagTAUCTION@@V?$allocator@PAUtagTAUCTION@@@std@@@std@@@std@@YAXViterator@?$vector@PAUtagTAUCTION@@V?$allocator@PAUtagTAUCTION@@@std@@@0@00Urandom_access_iterator_tag@0@@Z
_TEXT	SEGMENT PARA USE32 PUBLIC 'CODE'
_TEXT	ENDS
;	COMDAT ??$_Med3@Viterator@?$vector@PAUtagTAUCTION@@V?$allocator@PAUtagTAUCTION@@@std@@@std@@UAuctionIDDESC@@@std@@YAXViterator@?$vector@PAUtagTAUCTION@@V?$allocator@PAUtagTAUCTION@@@std@@@0@00UAuctionIDDESC@@@Z
_TEXT	SEGMENT PARA USE32 PUBLIC 'CODE'
_TEXT	ENDS
;	COMDAT ??$_Adjust_heap@Viterator@?$vector@PAUtagTAUCTION@@V?$allocator@PAUtagTAUCTION@@@std@@@std@@HPAUtagTAUCTION@@UAuctionIDDESC@@@std@@YAXViterator@?$vector@PAUtagTAUCTION@@V?$allocator@PAUtagTAUCTION@@@std@@@0@HHPAUtagTAUCTION@@UAuctionIDDESC@@@Z
_TEXT	SEGMENT PARA USE32 PUBLIC 'CODE'
_TEXT	ENDS
;	COMDAT ??$_Pop_heap_0@Viterator@?$vector@PAUtagTAUCTION@@V?$allocator@PAUtagTAUCTION@@@std@@@std@@PAUtagTAUCTION@@UAuctionIDDESC@@@std@@YAXViterator@?$vector@PAUtagTAUCTION@@V?$allocator@PAUtagTAUCTION@@@std@@@0@0UAuctionIDDESC@@PAPAUtagTAUCTION@@@Z
_TEXT	SEGMENT PARA USE32 PUBLIC 'CODE'
_TEXT	ENDS
;	COMDAT ??$_Med3@Viterator@?$vector@PAUtagTAUCTION@@V?$allocator@PAUtagTAUCTION@@@std@@@std@@UEndTimeASC@@@std@@YAXViterator@?$vector@PAUtagTAUCTION@@V?$allocator@PAUtagTAUCTION@@@std@@@0@00UEndTimeASC@@@Z
_TEXT	SEGMENT PARA USE32 PUBLIC 'CODE'
_TEXT	ENDS
;	COMDAT ??$_Adjust_heap@Viterator@?$vector@PAUtagTAUCTION@@V?$allocator@PAUtagTAUCTION@@@std@@@std@@HPAUtagTAUCTION@@UEndTimeASC@@@std@@YAXViterator@?$vector@PAUtagTAUCTION@@V?$allocator@PAUtagTAUCTION@@@std@@@0@HHPAUtagTAUCTION@@UEndTimeASC@@@Z
_TEXT	SEGMENT PARA USE32 PUBLIC 'CODE'
_TEXT	ENDS
;	COMDAT ??$_Pop_heap_0@Viterator@?$vector@PAUtagTAUCTION@@V?$allocator@PAUtagTAUCTION@@@std@@@std@@PAUtagTAUCTION@@UEndTimeASC@@@std@@YAXViterator@?$vector@PAUtagTAUCTION@@V?$allocator@PAUtagTAUCTION@@@std@@@0@0UEndTimeASC@@PAPAUtagTAUCTION@@@Z
_TEXT	SEGMENT PARA USE32 PUBLIC 'CODE'
_TEXT	ENDS
;	COMDAT ??$_Med3@Viterator@?$vector@PAUtagTAUCTION@@V?$allocator@PAUtagTAUCTION@@@std@@@std@@UEndTimeDESC@@@std@@YAXViterator@?$vector@PAUtagTAUCTION@@V?$allocator@PAUtagTAUCTION@@@std@@@0@00UEndTimeDESC@@@Z
_TEXT	SEGMENT PARA USE32 PUBLIC 'CODE'
_TEXT	ENDS
;	COMDAT ??$_Adjust_heap@Viterator@?$vector@PAUtagTAUCTION@@V?$allocator@PAUtagTAUCTION@@@std@@@std@@HPAUtagTAUCTION@@UEndTimeDESC@@@std@@YAXViterator@?$vector@PAUtagTAUCTION@@V?$allocator@PAUtagTAUCTION@@@std@@@0@HHPAUtagTAUCTION@@UEndTimeDESC@@@Z
_TEXT	SEGMENT PARA USE32 PUBLIC 'CODE'
_TEXT	ENDS
;	COMDAT ??$_Pop_heap_0@Viterator@?$vector@PAUtagTAUCTION@@V?$allocator@PAUtagTAUCTION@@@std@@@std@@PAUtagTAUCTION@@UEndTimeDESC@@@std@@YAXViterator@?$vector@PAUtagTAUCTION@@V?$allocator@PAUtagTAUCTION@@@std@@@0@0UEndTimeDESC@@PAPAUtagTAUCTION@@@Z
_TEXT	SEGMENT PARA USE32 PUBLIC 'CODE'
_TEXT	ENDS
;	COMDAT ??$_Med3@Viterator@?$vector@PAUtagTAUCTION@@V?$allocator@PAUtagTAUCTION@@@std@@@std@@URemainTimeASC@@@std@@YAXViterator@?$vector@PAUtagTAUCTION@@V?$allocator@PAUtagTAUCTION@@@std@@@0@00URemainTimeASC@@@Z
_TEXT	SEGMENT PARA USE32 PUBLIC 'CODE'
_TEXT	ENDS
;	COMDAT ??$_Adjust_heap@Viterator@?$vector@PAUtagTAUCTION@@V?$allocator@PAUtagTAUCTION@@@std@@@std@@HPAUtagTAUCTION@@URemainTimeASC@@@std@@YAXViterator@?$vector@PAUtagTAUCTION@@V?$allocator@PAUtagTAUCTION@@@std@@@0@HHPAUtagTAUCTION@@URemainTimeASC@@@Z
_TEXT	SEGMENT PARA USE32 PUBLIC 'CODE'
_TEXT	ENDS
;	COMDAT ??$_Pop_heap_0@Viterator@?$vector@PAUtagTAUCTION@@V?$allocator@PAUtagTAUCTION@@@std@@@std@@PAUtagTAUCTION@@URemainTimeASC@@@std@@YAXViterator@?$vector@PAUtagTAUCTION@@V?$allocator@PAUtagTAUCTION@@@std@@@0@0URemainTimeASC@@PAPAUtagTAUCTION@@@Z
_TEXT	SEGMENT PARA USE32 PUBLIC 'CODE'
_TEXT	ENDS
;	COMDAT ??$_Med3@Viterator@?$vector@PAUtagTAUCTION@@V?$allocator@PAUtagTAUCTION@@@std@@@std@@URemainTimeDESC@@@std@@YAXViterator@?$vector@PAUtagTAUCTION@@V?$allocator@PAUtagTAUCTION@@@std@@@0@00URemainTimeDESC@@@Z
_TEXT	SEGMENT PARA USE32 PUBLIC 'CODE'
_TEXT	ENDS
;	COMDAT ??$_Adjust_heap@Viterator@?$vector@PAUtagTAUCTION@@V?$allocator@PAUtagTAUCTION@@@std@@@std@@HPAUtagTAUCTION@@URemainTimeDESC@@@std@@YAXViterator@?$vector@PAUtagTAUCTION@@V?$allocator@PAUtagTAUCTION@@@std@@@0@HHPAUtagTAUCTION@@URemainTimeDESC@@@Z
_TEXT	SEGMENT PARA USE32 PUBLIC 'CODE'
_TEXT	ENDS
;	COMDAT ??$_Pop_heap_0@Viterator@?$vector@PAUtagTAUCTION@@V?$allocator@PAUtagTAUCTION@@@std@@@std@@PAUtagTAUCTION@@URemainTimeDESC@@@std@@YAXViterator@?$vector@PAUtagTAUCTION@@V?$allocator@PAUtagTAUCTION@@@std@@@0@0URemainTimeDESC@@PAPAUtagTAUCTION@@@Z
_TEXT	SEGMENT PARA USE32 PUBLIC 'CODE'
_TEXT	ENDS
;	COMDAT ??$_Med3@Viterator@?$vector@PAUtagTAUCTION@@V?$allocator@PAUtagTAUCTION@@@std@@@std@@UBidPriceASC@@@std@@YAXViterator@?$vector@PAUtagTAUCTION@@V?$allocator@PAUtagTAUCTION@@@std@@@0@00UBidPriceASC@@@Z
_TEXT	SEGMENT PARA USE32 PUBLIC 'CODE'
_TEXT	ENDS
;	COMDAT ??$_Adjust_heap@Viterator@?$vector@PAUtagTAUCTION@@V?$allocator@PAUtagTAUCTION@@@std@@@std@@HPAUtagTAUCTION@@UBidPriceASC@@@std@@YAXViterator@?$vector@PAUtagTAUCTION@@V?$allocator@PAUtagTAUCTION@@@std@@@0@HHPAUtagTAUCTION@@UBidPriceASC@@@Z
_TEXT	SEGMENT PARA USE32 PUBLIC 'CODE'
_TEXT	ENDS
;	COMDAT ??$_Pop_heap_0@Viterator@?$vector@PAUtagTAUCTION@@V?$allocator@PAUtagTAUCTION@@@std@@@std@@PAUtagTAUCTION@@UBidPriceASC@@@std@@YAXViterator@?$vector@PAUtagTAUCTION@@V?$allocator@PAUtagTAUCTION@@@std@@@0@0UBidPriceASC@@PAPAUtagTAUCTION@@@Z
_TEXT	SEGMENT PARA USE32 PUBLIC 'CODE'
_TEXT	ENDS
;	COMDAT ??$_Med3@Viterator@?$vector@PAUtagTAUCTION@@V?$allocator@PAUtagTAUCTION@@@std@@@std@@UBidPriceDESC@@@std@@YAXViterator@?$vector@PAUtagTAUCTION@@V?$allocator@PAUtagTAUCTION@@@std@@@0@00UBidPriceDESC@@@Z
_TEXT	SEGMENT PARA USE32 PUBLIC 'CODE'
_TEXT	ENDS
;	COMDAT ??$_Adjust_heap@Viterator@?$vector@PAUtagTAUCTION@@V?$allocator@PAUtagTAUCTION@@@std@@@std@@HPAUtagTAUCTION@@UBidPriceDESC@@@std@@YAXViterator@?$vector@PAUtagTAUCTION@@V?$allocator@PAUtagTAUCTION@@@std@@@0@HHPAUtagTAUCTION@@UBidPriceDESC@@@Z
_TEXT	SEGMENT PARA USE32 PUBLIC 'CODE'
_TEXT	ENDS
;	COMDAT ??$_Pop_heap_0@Viterator@?$vector@PAUtagTAUCTION@@V?$allocator@PAUtagTAUCTION@@@std@@@std@@PAUtagTAUCTION@@UBidPriceDESC@@@std@@YAXViterator@?$vector@PAUtagTAUCTION@@V?$allocator@PAUtagTAUCTION@@@std@@@0@0UBidPriceDESC@@PAPAUtagTAUCTION@@@Z
_TEXT	SEGMENT PARA USE32 PUBLIC 'CODE'
_TEXT	ENDS
;	COMDAT ??$_Med3@Viterator@?$vector@PAUtagTAUCTION@@V?$allocator@PAUtagTAUCTION@@@std@@@std@@UDirectPriceASC@@@std@@YAXViterator@?$vector@PAUtagTAUCTION@@V?$allocator@PAUtagTAUCTION@@@std@@@0@00UDirectPriceASC@@@Z
_TEXT	SEGMENT PARA USE32 PUBLIC 'CODE'
_TEXT	ENDS
;	COMDAT ??$_Adjust_heap@Viterator@?$vector@PAUtagTAUCTION@@V?$allocator@PAUtagTAUCTION@@@std@@@std@@HPAUtagTAUCTION@@UDirectPriceASC@@@std@@YAXViterator@?$vector@PAUtagTAUCTION@@V?$allocator@PAUtagTAUCTION@@@std@@@0@HHPAUtagTAUCTION@@UDirectPriceASC@@@Z
_TEXT	SEGMENT PARA USE32 PUBLIC 'CODE'
_TEXT	ENDS
;	COMDAT ??$_Pop_heap_0@Viterator@?$vector@PAUtagTAUCTION@@V?$allocator@PAUtagTAUCTION@@@std@@@std@@PAUtagTAUCTION@@UDirectPriceASC@@@std@@YAXViterator@?$vector@PAUtagTAUCTION@@V?$allocator@PAUtagTAUCTION@@@std@@@0@0UDirectPriceASC@@PAPAUtagTAUCTION@@@Z
_TEXT	SEGMENT PARA USE32 PUBLIC 'CODE'
_TEXT	ENDS
;	COMDAT ??$_Med3@Viterator@?$vector@PAUtagTAUCTION@@V?$allocator@PAUtagTAUCTION@@@std@@@std@@UDirectPriceDESC@@@std@@YAXViterator@?$vector@PAUtagTAUCTION@@V?$allocator@PAUtagTAUCTION@@@std@@@0@00UDirectPriceDESC@@@Z
_TEXT	SEGMENT PARA USE32 PUBLIC 'CODE'
_TEXT	ENDS
;	COMDAT ??$_Adjust_heap@Viterator@?$vector@PAUtagTAUCTION@@V?$allocator@PAUtagTAUCTION@@@std@@@std@@HPAUtagTAUCTION@@UDirectPriceDESC@@@std@@YAXViterator@?$vector@PAUtagTAUCTION@@V?$allocator@PAUtagTAUCTION@@@std@@@0@HHPAUtagTAUCTION@@UDirectPriceDESC@@@Z
_TEXT	SEGMENT PARA USE32 PUBLIC 'CODE'
_TEXT	ENDS
;	COMDAT ??$_Pop_heap_0@Viterator@?$vector@PAUtagTAUCTION@@V?$allocator@PAUtagTAUCTION@@@std@@@std@@PAUtagTAUCTION@@UDirectPriceDESC@@@std@@YAXViterator@?$vector@PAUtagTAUCTION@@V?$allocator@PAUtagTAUCTION@@@std@@@0@0UDirectPriceDESC@@PAPAUtagTAUCTION@@@Z
_TEXT	SEGMENT PARA USE32 PUBLIC 'CODE'
_TEXT	ENDS
;	COMDAT ??$_Med3@Viterator@?$vector@PAUtagTAUCTION@@V?$allocator@PAUtagTAUCTION@@@std@@@std@@UBidCountASC@@@std@@YAXViterator@?$vector@PAUtagTAUCTION@@V?$allocator@PAUtagTAUCTION@@@std@@@0@00UBidCountASC@@@Z
_TEXT	SEGMENT PARA USE32 PUBLIC 'CODE'
_TEXT	ENDS
;	COMDAT ??$_Adjust_heap@Viterator@?$vector@PAUtagTAUCTION@@V?$allocator@PAUtagTAUCTION@@@std@@@std@@HPAUtagTAUCTION@@UBidCountASC@@@std@@YAXViterator@?$vector@PAUtagTAUCTION@@V?$allocator@PAUtagTAUCTION@@@std@@@0@HHPAUtagTAUCTION@@UBidCountASC@@@Z
_TEXT	SEGMENT PARA USE32 PUBLIC 'CODE'
_TEXT	ENDS
;	COMDAT ??$_Pop_heap_0@Viterator@?$vector@PAUtagTAUCTION@@V?$allocator@PAUtagTAUCTION@@@std@@@std@@PAUtagTAUCTION@@UBidCountASC@@@std@@YAXViterator@?$vector@PAUtagTAUCTION@@V?$allocator@PAUtagTAUCTION@@@std@@@0@0UBidCountASC@@PAPAUtagTAUCTION@@@Z
_TEXT	SEGMENT PARA USE32 PUBLIC 'CODE'
_TEXT	ENDS
;	COMDAT ??$_Med3@Viterator@?$vector@PAUtagTAUCTION@@V?$allocator@PAUtagTAUCTION@@@std@@@std@@UBidCountDESC@@@std@@YAXViterator@?$vector@PAUtagTAUCTION@@V?$allocator@PAUtagTAUCTION@@@std@@@0@00UBidCountDESC@@@Z
_TEXT	SEGMENT PARA USE32 PUBLIC 'CODE'
_TEXT	ENDS
;	COMDAT ??$_Adjust_heap@Viterator@?$vector@PAUtagTAUCTION@@V?$allocator@PAUtagTAUCTION@@@std@@@std@@HPAUtagTAUCTION@@UBidCountDESC@@@std@@YAXViterator@?$vector@PAUtagTAUCTION@@V?$allocator@PAUtagTAUCTION@@@std@@@0@HHPAUtagTAUCTION@@UBidCountDESC@@@Z
_TEXT	SEGMENT PARA USE32 PUBLIC 'CODE'
_TEXT	ENDS
;	COMDAT ??$_Pop_heap_0@Viterator@?$vector@PAUtagTAUCTION@@V?$allocator@PAUtagTAUCTION@@@std@@@std@@PAUtagTAUCTION@@UBidCountDESC@@@std@@YAXViterator@?$vector@PAUtagTAUCTION@@V?$allocator@PAUtagTAUCTION@@@std@@@0@0UBidCountDESC@@PAPAUtagTAUCTION@@@Z
_TEXT	SEGMENT PARA USE32 PUBLIC 'CODE'
_TEXT	ENDS
;	COMDAT ??$_Med3@Viterator@?$vector@PAUtagTAUCTION@@V?$allocator@PAUtagTAUCTION@@@std@@@std@@UClassASC@@@std@@YAXViterator@?$vector@PAUtagTAUCTION@@V?$allocator@PAUtagTAUCTION@@@std@@@0@00UClassASC@@@Z
_TEXT	SEGMENT PARA USE32 PUBLIC 'CODE'
_TEXT	ENDS
;	COMDAT ??$_Adjust_heap@Viterator@?$vector@PAUtagTAUCTION@@V?$allocator@PAUtagTAUCTION@@@std@@@std@@HPAUtagTAUCTION@@UClassASC@@@std@@YAXViterator@?$vector@PAUtagTAUCTION@@V?$allocator@PAUtagTAUCTION@@@std@@@0@HHPAUtagTAUCTION@@UClassASC@@@Z
_TEXT	SEGMENT PARA USE32 PUBLIC 'CODE'
_TEXT	ENDS
;	COMDAT ??$_Pop_heap_0@Viterator@?$vector@PAUtagTAUCTION@@V?$allocator@PAUtagTAUCTION@@@std@@@std@@PAUtagTAUCTION@@UClassASC@@@std@@YAXViterator@?$vector@PAUtagTAUCTION@@V?$allocator@PAUtagTAUCTION@@@std@@@0@0UClassASC@@PAPAUtagTAUCTION@@@Z
_TEXT	SEGMENT PARA USE32 PUBLIC 'CODE'
_TEXT	ENDS
;	COMDAT ??$_Med3@Viterator@?$vector@PAUtagTAUCTION@@V?$allocator@PAUtagTAUCTION@@@std@@@std@@UClassDESC@@@std@@YAXViterator@?$vector@PAUtagTAUCTION@@V?$allocator@PAUtagTAUCTION@@@std@@@0@00UClassDESC@@@Z
_TEXT	SEGMENT PARA USE32 PUBLIC 'CODE'
_TEXT	ENDS
;	COMDAT ??$_Adjust_heap@Viterator@?$vector@PAUtagTAUCTION@@V?$allocator@PAUtagTAUCTION@@@std@@@std@@HPAUtagTAUCTION@@UClassDESC@@@std@@YAXViterator@?$vector@PAUtagTAUCTION@@V?$allocator@PAUtagTAUCTION@@@std@@@0@HHPAUtagTAUCTION@@UClassDESC@@@Z
_TEXT	SEGMENT PARA USE32 PUBLIC 'CODE'
_TEXT	ENDS
;	COMDAT ??$_Pop_heap_0@Viterator@?$vector@PAUtagTAUCTION@@V?$allocator@PAUtagTAUCTION@@@std@@@std@@PAUtagTAUCTION@@UClassDESC@@@std@@YAXViterator@?$vector@PAUtagTAUCTION@@V?$allocator@PAUtagTAUCTION@@@std@@@0@0UClassDESC@@PAPAUtagTAUCTION@@@Z
_TEXT	SEGMENT PARA USE32 PUBLIC 'CODE'
_TEXT	ENDS
;	COMDAT ??$_Med3@Viterator@?$vector@PAUtagTAUCTION@@V?$allocator@PAUtagTAUCTION@@@std@@@std@@USellerNameASC@@@std@@YAXViterator@?$vector@PAUtagTAUCTION@@V?$allocator@PAUtagTAUCTION@@@std@@@0@00USellerNameASC@@@Z
_TEXT	SEGMENT PARA USE32 PUBLIC 'CODE'
_TEXT	ENDS
;	COMDAT ??$_Adjust_heap@Viterator@?$vector@PAUtagTAUCTION@@V?$allocator@PAUtagTAUCTION@@@std@@@std@@HPAUtagTAUCTION@@USellerNameASC@@@std@@YAXViterator@?$vector@PAUtagTAUCTION@@V?$allocator@PAUtagTAUCTION@@@std@@@0@HHPAUtagTAUCTION@@USellerNameASC@@@Z
_TEXT	SEGMENT PARA USE32 PUBLIC 'CODE'
_TEXT	ENDS
;	COMDAT ??$_Pop_heap_0@Viterator@?$vector@PAUtagTAUCTION@@V?$allocator@PAUtagTAUCTION@@@std@@@std@@PAUtagTAUCTION@@USellerNameASC@@@std@@YAXViterator@?$vector@PAUtagTAUCTION@@V?$allocator@PAUtagTAUCTION@@@std@@@0@0USellerNameASC@@PAPAUtagTAUCTION@@@Z
_TEXT	SEGMENT PARA USE32 PUBLIC 'CODE'
_TEXT	ENDS
;	COMDAT ??$_Med3@Viterator@?$vector@PAUtagTAUCTION@@V?$allocator@PAUtagTAUCTION@@@std@@@std@@USellerNameDESC@@@std@@YAXViterator@?$vector@PAUtagTAUCTION@@V?$allocator@PAUtagTAUCTION@@@std@@@0@00USellerNameDESC@@@Z
_TEXT	SEGMENT PARA USE32 PUBLIC 'CODE'
_TEXT	ENDS
;	COMDAT ??$_Adjust_heap@Viterator@?$vector@PAUtagTAUCTION@@V?$allocator@PAUtagTAUCTION@@@std@@@std@@HPAUtagTAUCTION@@USellerNameDESC@@@std@@YAXViterator@?$vector@PAUtagTAUCTION@@V?$allocator@PAUtagTAUCTION@@@std@@@0@HHPAUtagTAUCTION@@USellerNameDESC@@@Z
_TEXT	SEGMENT PARA USE32 PUBLIC 'CODE'
_TEXT	ENDS
;	COMDAT ??$_Pop_heap_0@Viterator@?$vector@PAUtagTAUCTION@@V?$allocator@PAUtagTAUCTION@@@std@@@std@@PAUtagTAUCTION@@USellerNameDESC@@@std@@YAXViterator@?$vector@PAUtagTAUCTION@@V?$allocator@PAUtagTAUCTION@@@std@@@0@0USellerNameDESC@@PAPAUtagTAUCTION@@@Z
_TEXT	SEGMENT PARA USE32 PUBLIC 'CODE'
_TEXT	ENDS
;	COMDAT ??$_Med3@Viterator@?$vector@PAUtagTAUCTION@@V?$allocator@PAUtagTAUCTION@@@std@@@std@@UWearLevelASC@@@std@@YAXViterator@?$vector@PAUtagTAUCTION@@V?$allocator@PAUtagTAUCTION@@@std@@@0@00UWearLevelASC@@@Z
_TEXT	SEGMENT PARA USE32 PUBLIC 'CODE'
_TEXT	ENDS
;	COMDAT ??$_Adjust_heap@Viterator@?$vector@PAUtagTAUCTION@@V?$allocator@PAUtagTAUCTION@@@std@@@std@@HPAUtagTAUCTION@@UWearLevelASC@@@std@@YAXViterator@?$vector@PAUtagTAUCTION@@V?$allocator@PAUtagTAUCTION@@@std@@@0@HHPAUtagTAUCTION@@UWearLevelASC@@@Z
_TEXT	SEGMENT PARA USE32 PUBLIC 'CODE'
_TEXT	ENDS
;	COMDAT ??$_Pop_heap_0@Viterator@?$vector@PAUtagTAUCTION@@V?$allocator@PAUtagTAUCTION@@@std@@@std@@PAUtagTAUCTION@@UWearLevelASC@@@std@@YAXViterator@?$vector@PAUtagTAUCTION@@V?$allocator@PAUtagTAUCTION@@@std@@@0@0UWearLevelASC@@PAPAUtagTAUCTION@@@Z
_TEXT	SEGMENT PARA USE32 PUBLIC 'CODE'
_TEXT	ENDS
;	COMDAT ??$_Med3@Viterator@?$vector@PAUtagTAUCTION@@V?$allocator@PAUtagTAUCTION@@@std@@@std@@UWearLevelDESC@@@std@@YAXViterator@?$vector@PAUtagTAUCTION@@V?$allocator@PAUtagTAUCTION@@@std@@@0@00UWearLevelDESC@@@Z
_TEXT	SEGMENT PARA USE32 PUBLIC 'CODE'
_TEXT	ENDS
;	COMDAT ??$_Adjust_heap@Viterator@?$vector@PAUtagTAUCTION@@V?$allocator@PAUtagTAUCTION@@@std@@@std@@HPAUtagTAUCTION@@UWearLevelDESC@@@std@@YAXViterator@?$vector@PAUtagTAUCTION@@V?$allocator@PAUtagTAUCTION@@@std@@@0@HHPAUtagTAUCTION@@UWearLevelDESC@@@Z
_TEXT	SEGMENT PARA USE32 PUBLIC 'CODE'
_TEXT	ENDS
;	COMDAT ??$_Pop_heap_0@Viterator@?$vector@PAUtagTAUCTION@@V?$allocator@PAUtagTAUCTION@@@std@@@std@@PAUtagTAUCTION@@UWearLevelDESC@@@std@@YAXViterator@?$vector@PAUtagTAUCTION@@V?$allocator@PAUtagTAUCTION@@@std@@@0@0UWearLevelDESC@@PAPAUtagTAUCTION@@@Z
_TEXT	SEGMENT PARA USE32 PUBLIC 'CODE'
_TEXT	ENDS
;	COMDAT ??$_Med3@Viterator@?$vector@PAUtagTAUCTION@@V?$allocator@PAUtagTAUCTION@@@std@@@std@@UItemLevelASC@@@std@@YAXViterator@?$vector@PAUtagTAUCTION@@V?$allocator@PAUtagTAUCTION@@@std@@@0@00UItemLevelASC@@@Z
_TEXT	SEGMENT PARA USE32 PUBLIC 'CODE'
_TEXT	ENDS
;	COMDAT ??$_Adjust_heap@Viterator@?$vector@PAUtagTAUCTION@@V?$allocator@PAUtagTAUCTION@@@std@@@std@@HPAUtagTAUCTION@@UItemLevelASC@@@std@@YAXViterator@?$vector@PAUtagTAUCTION@@V?$allocator@PAUtagTAUCTION@@@std@@@0@HHPAUtagTAUCTION@@UItemLevelASC@@@Z
_TEXT	SEGMENT PARA USE32 PUBLIC 'CODE'
_TEXT	ENDS
;	COMDAT ??$_Pop_heap_0@Viterator@?$vector@PAUtagTAUCTION@@V?$allocator@PAUtagTAUCTION@@@std@@@std@@PAUtagTAUCTION@@UItemLevelASC@@@std@@YAXViterator@?$vector@PAUtagTAUCTION@@V?$allocator@PAUtagTAUCTION@@@std@@@0@0UItemLevelASC@@PAPAUtagTAUCTION@@@Z
_TEXT	SEGMENT PARA USE32 PUBLIC 'CODE'
_TEXT	ENDS
;	COMDAT ??$_Med3@Viterator@?$vector@PAUtagTAUCTION@@V?$allocator@PAUtagTAUCTION@@@std@@@std@@UItemLevelDESC@@@std@@YAXViterator@?$vector@PAUtagTAUCTION@@V?$allocator@PAUtagTAUCTION@@@std@@@0@00UItemLevelDESC@@@Z
_TEXT	SEGMENT PARA USE32 PUBLIC 'CODE'
_TEXT	ENDS
;	COMDAT ??$_Adjust_heap@Viterator@?$vector@PAUtagTAUCTION@@V?$allocator@PAUtagTAUCTION@@@std@@@std@@HPAUtagTAUCTION@@UItemLevelDESC@@@std@@YAXViterator@?$vector@PAUtagTAUCTION@@V?$allocator@PAUtagTAUCTION@@@std@@@0@HHPAUtagTAUCTION@@UItemLevelDESC@@@Z
_TEXT	SEGMENT PARA USE32 PUBLIC 'CODE'
_TEXT	ENDS
;	COMDAT ??$_Pop_heap_0@Viterator@?$vector@PAUtagTAUCTION@@V?$allocator@PAUtagTAUCTION@@@std@@@std@@PAUtagTAUCTION@@UItemLevelDESC@@@std@@YAXViterator@?$vector@PAUtagTAUCTION@@V?$allocator@PAUtagTAUCTION@@@std@@@0@0UItemLevelDESC@@PAPAUtagTAUCTION@@@Z
_TEXT	SEGMENT PARA USE32 PUBLIC 'CODE'
_TEXT	ENDS
;	COMDAT ??$_Push_heap@Viterator@?$vector@PAUtagTAUCTION@@V?$allocator@PAUtagTAUCTION@@@std@@@std@@HPAUtagTAUCTION@@UAuctionIDASC@@@std@@YAXViterator@?$vector@PAUtagTAUCTION@@V?$allocator@PAUtagTAUCTION@@@std@@@0@HHPAUtagTAUCTION@@UAuctionIDASC@@@Z
_TEXT	SEGMENT PARA USE32 PUBLIC 'CODE'
_TEXT	ENDS
;	COMDAT ??$_Pop_heap@Viterator@?$vector@PAUtagTAUCTION@@V?$allocator@PAUtagTAUCTION@@@std@@@std@@HPAUtagTAUCTION@@UAuctionIDASC@@@std@@YAXViterator@?$vector@PAUtagTAUCTION@@V?$allocator@PAUtagTAUCTION@@@std@@@0@00PAUtagTAUCTION@@UAuctionIDASC@@PAH@Z
_TEXT	SEGMENT PARA USE32 PUBLIC 'CODE'
_TEXT	ENDS
;	COMDAT ??$_Rotate@Viterator@?$vector@PAUtagTAUCTION@@V?$allocator@PAUtagTAUCTION@@@std@@@std@@HPAUtagTAUCTION@@@std@@YAXViterator@?$vector@PAUtagTAUCTION@@V?$allocator@PAUtagTAUCTION@@@std@@@0@00PAHPAPAUtagTAUCTION@@@Z
_TEXT	SEGMENT PARA USE32 PUBLIC 'CODE'
_TEXT	ENDS
;	COMDAT ??$_Push_heap@Viterator@?$vector@PAUtagTAUCTION@@V?$allocator@PAUtagTAUCTION@@@std@@@std@@HPAUtagTAUCTION@@UAuctionIDDESC@@@std@@YAXViterator@?$vector@PAUtagTAUCTION@@V?$allocator@PAUtagTAUCTION@@@std@@@0@HHPAUtagTAUCTION@@UAuctionIDDESC@@@Z
_TEXT	SEGMENT PARA USE32 PUBLIC 'CODE'
_TEXT	ENDS
;	COMDAT ??$_Pop_heap@Viterator@?$vector@PAUtagTAUCTION@@V?$allocator@PAUtagTAUCTION@@@std@@@std@@HPAUtagTAUCTION@@UAuctionIDDESC@@@std@@YAXViterator@?$vector@PAUtagTAUCTION@@V?$allocator@PAUtagTAUCTION@@@std@@@0@00PAUtagTAUCTION@@UAuctionIDDESC@@PAH@Z
_TEXT	SEGMENT PARA USE32 PUBLIC 'CODE'
_TEXT	ENDS
;	COMDAT ??$_Push_heap@Viterator@?$vector@PAUtagTAUCTION@@V?$allocator@PAUtagTAUCTION@@@std@@@std@@HPAUtagTAUCTION@@UEndTimeASC@@@std@@YAXViterator@?$vector@PAUtagTAUCTION@@V?$allocator@PAUtagTAUCTION@@@std@@@0@HHPAUtagTAUCTION@@UEndTimeASC@@@Z
_TEXT	SEGMENT PARA USE32 PUBLIC 'CODE'
_TEXT	ENDS
;	COMDAT ??$_Pop_heap@Viterator@?$vector@PAUtagTAUCTION@@V?$allocator@PAUtagTAUCTION@@@std@@@std@@HPAUtagTAUCTION@@UEndTimeASC@@@std@@YAXViterator@?$vector@PAUtagTAUCTION@@V?$allocator@PAUtagTAUCTION@@@std@@@0@00PAUtagTAUCTION@@UEndTimeASC@@PAH@Z
_TEXT	SEGMENT PARA USE32 PUBLIC 'CODE'
_TEXT	ENDS
;	COMDAT ??$_Push_heap@Viterator@?$vector@PAUtagTAUCTION@@V?$allocator@PAUtagTAUCTION@@@std@@@std@@HPAUtagTAUCTION@@UEndTimeDESC@@@std@@YAXViterator@?$vector@PAUtagTAUCTION@@V?$allocator@PAUtagTAUCTION@@@std@@@0@HHPAUtagTAUCTION@@UEndTimeDESC@@@Z
_TEXT	SEGMENT PARA USE32 PUBLIC 'CODE'
_TEXT	ENDS
;	COMDAT ??$_Pop_heap@Viterator@?$vector@PAUtagTAUCTION@@V?$allocator@PAUtagTAUCTION@@@std@@@std@@HPAUtagTAUCTION@@UEndTimeDESC@@@std@@YAXViterator@?$vector@PAUtagTAUCTION@@V?$allocator@PAUtagTAUCTION@@@std@@@0@00PAUtagTAUCTION@@UEndTimeDESC@@PAH@Z
_TEXT	SEGMENT PARA USE32 PUBLIC 'CODE'
_TEXT	ENDS
;	COMDAT ??$_Push_heap@Viterator@?$vector@PAUtagTAUCTION@@V?$allocator@PAUtagTAUCTION@@@std@@@std@@HPAUtagTAUCTION@@URemainTimeASC@@@std@@YAXViterator@?$vector@PAUtagTAUCTION@@V?$allocator@PAUtagTAUCTION@@@std@@@0@HHPAUtagTAUCTION@@URemainTimeASC@@@Z
_TEXT	SEGMENT PARA USE32 PUBLIC 'CODE'
_TEXT	ENDS
;	COMDAT ??$_Pop_heap@Viterator@?$vector@PAUtagTAUCTION@@V?$allocator@PAUtagTAUCTION@@@std@@@std@@HPAUtagTAUCTION@@URemainTimeASC@@@std@@YAXViterator@?$vector@PAUtagTAUCTION@@V?$allocator@PAUtagTAUCTION@@@std@@@0@00PAUtagTAUCTION@@URemainTimeASC@@PAH@Z
_TEXT	SEGMENT PARA USE32 PUBLIC 'CODE'
_TEXT	ENDS
;	COMDAT ??$_Push_heap@Viterator@?$vector@PAUtagTAUCTION@@V?$allocator@PAUtagTAUCTION@@@std@@@std@@HPAUtagTAUCTION@@URemainTimeDESC@@@std@@YAXViterator@?$vector@PAUtagTAUCTION@@V?$allocator@PAUtagTAUCTION@@@std@@@0@HHPAUtagTAUCTION@@URemainTimeDESC@@@Z
_TEXT	SEGMENT PARA USE32 PUBLIC 'CODE'
_TEXT	ENDS
;	COMDAT ??$_Pop_heap@Viterator@?$vector@PAUtagTAUCTION@@V?$allocator@PAUtagTAUCTION@@@std@@@std@@HPAUtagTAUCTION@@URemainTimeDESC@@@std@@YAXViterator@?$vector@PAUtagTAUCTION@@V?$allocator@PAUtagTAUCTION@@@std@@@0@00PAUtagTAUCTION@@URemainTimeDESC@@PAH@Z
_TEXT	SEGMENT PARA USE32 PUBLIC 'CODE'
_TEXT	ENDS
;	COMDAT ??$_Push_heap@Viterator@?$vector@PAUtagTAUCTION@@V?$allocator@PAUtagTAUCTION@@@std@@@std@@HPAUtagTAUCTION@@UBidPriceASC@@@std@@YAXViterator@?$vector@PAUtagTAUCTION@@V?$allocator@PAUtagTAUCTION@@@std@@@0@HHPAUtagTAUCTION@@UBidPriceASC@@@Z
_TEXT	SEGMENT PARA USE32 PUBLIC 'CODE'
_TEXT	ENDS
;	COMDAT ??$_Pop_heap@Viterator@?$vector@PAUtagTAUCTION@@V?$allocator@PAUtagTAUCTION@@@std@@@std@@HPAUtagTAUCTION@@UBidPriceASC@@@std@@YAXViterator@?$vector@PAUtagTAUCTION@@V?$allocator@PAUtagTAUCTION@@@std@@@0@00PAUtagTAUCTION@@UBidPriceASC@@PAH@Z
_TEXT	SEGMENT PARA USE32 PUBLIC 'CODE'
_TEXT	ENDS
;	COMDAT ??$_Push_heap@Viterator@?$vector@PAUtagTAUCTION@@V?$allocator@PAUtagTAUCTION@@@std@@@std@@HPAUtagTAUCTION@@UBidPriceDESC@@@std@@YAXViterator@?$vector@PAUtagTAUCTION@@V?$allocator@PAUtagTAUCTION@@@std@@@0@HHPAUtagTAUCTION@@UBidPriceDESC@@@Z
_TEXT	SEGMENT PARA USE32 PUBLIC 'CODE'
_TEXT	ENDS
;	COMDAT ??$_Pop_heap@Viterator@?$vector@PAUtagTAUCTION@@V?$allocator@PAUtagTAUCTION@@@std@@@std@@HPAUtagTAUCTION@@UBidPriceDESC@@@std@@YAXViterator@?$vector@PAUtagTAUCTION@@V?$allocator@PAUtagTAUCTION@@@std@@@0@00PAUtagTAUCTION@@UBidPriceDESC@@PAH@Z
_TEXT	SEGMENT PARA USE32 PUBLIC 'CODE'
_TEXT	ENDS
;	COMDAT ??$_Push_heap@Viterator@?$vector@PAUtagTAUCTION@@V?$allocator@PAUtagTAUCTION@@@std@@@std@@HPAUtagTAUCTION@@UDirectPriceASC@@@std@@YAXViterator@?$vector@PAUtagTAUCTION@@V?$allocator@PAUtagTAUCTION@@@std@@@0@HHPAUtagTAUCTION@@UDirectPriceASC@@@Z
_TEXT	SEGMENT PARA USE32 PUBLIC 'CODE'
_TEXT	ENDS
;	COMDAT ??$_Pop_heap@Viterator@?$vector@PAUtagTAUCTION@@V?$allocator@PAUtagTAUCTION@@@std@@@std@@HPAUtagTAUCTION@@UDirectPriceASC@@@std@@YAXViterator@?$vector@PAUtagTAUCTION@@V?$allocator@PAUtagTAUCTION@@@std@@@0@00PAUtagTAUCTION@@UDirectPriceASC@@PAH@Z
_TEXT	SEGMENT PARA USE32 PUBLIC 'CODE'
_TEXT	ENDS
;	COMDAT ??$_Push_heap@Viterator@?$vector@PAUtagTAUCTION@@V?$allocator@PAUtagTAUCTION@@@std@@@std@@HPAUtagTAUCTION@@UDirectPriceDESC@@@std@@YAXViterator@?$vector@PAUtagTAUCTION@@V?$allocator@PAUtagTAUCTION@@@std@@@0@HHPAUtagTAUCTION@@UDirectPriceDESC@@@Z
_TEXT	SEGMENT PARA USE32 PUBLIC 'CODE'
_TEXT	ENDS
;	COMDAT ??$_Pop_heap@Viterator@?$vector@PAUtagTAUCTION@@V?$allocator@PAUtagTAUCTION@@@std@@@std@@HPAUtagTAUCTION@@UDirectPriceDESC@@@std@@YAXViterator@?$vector@PAUtagTAUCTION@@V?$allocator@PAUtagTAUCTION@@@std@@@0@00PAUtagTAUCTION@@UDirectPriceDESC@@PAH@Z
_TEXT	SEGMENT PARA USE32 PUBLIC 'CODE'
_TEXT	ENDS
;	COMDAT ??$_Push_heap@Viterator@?$vector@PAUtagTAUCTION@@V?$allocator@PAUtagTAUCTION@@@std@@@std@@HPAUtagTAUCTION@@UBidCountASC@@@std@@YAXViterator@?$vector@PAUtagTAUCTION@@V?$allocator@PAUtagTAUCTION@@@std@@@0@HHPAUtagTAUCTION@@UBidCountASC@@@Z
_TEXT	SEGMENT PARA USE32 PUBLIC 'CODE'
_TEXT	ENDS
;	COMDAT ??$_Pop_heap@Viterator@?$vector@PAUtagTAUCTION@@V?$allocator@PAUtagTAUCTION@@@std@@@std@@HPAUtagTAUCTION@@UBidCountASC@@@std@@YAXViterator@?$vector@PAUtagTAUCTION@@V?$allocator@PAUtagTAUCTION@@@std@@@0@00PAUtagTAUCTION@@UBidCountASC@@PAH@Z
_TEXT	SEGMENT PARA USE32 PUBLIC 'CODE'
_TEXT	ENDS
;	COMDAT ??$_Push_heap@Viterator@?$vector@PAUtagTAUCTION@@V?$allocator@PAUtagTAUCTION@@@std@@@std@@HPAUtagTAUCTION@@UBidCountDESC@@@std@@YAXViterator@?$vector@PAUtagTAUCTION@@V?$allocator@PAUtagTAUCTION@@@std@@@0@HHPAUtagTAUCTION@@UBidCountDESC@@@Z
_TEXT	SEGMENT PARA USE32 PUBLIC 'CODE'
_TEXT	ENDS
;	COMDAT ??$_Pop_heap@Viterator@?$vector@PAUtagTAUCTION@@V?$allocator@PAUtagTAUCTION@@@std@@@std@@HPAUtagTAUCTION@@UBidCountDESC@@@std@@YAXViterator@?$vector@PAUtagTAUCTION@@V?$allocator@PAUtagTAUCTION@@@std@@@0@00PAUtagTAUCTION@@UBidCountDESC@@PAH@Z
_TEXT	SEGMENT PARA USE32 PUBLIC 'CODE'
_TEXT	ENDS
;	COMDAT ??$_Push_heap@Viterator@?$vector@PAUtagTAUCTION@@V?$allocator@PAUtagTAUCTION@@@std@@@std@@HPAUtagTAUCTION@@UClassASC@@@std@@YAXViterator@?$vector@PAUtagTAUCTION@@V?$allocator@PAUtagTAUCTION@@@std@@@0@HHPAUtagTAUCTION@@UClassASC@@@Z
_TEXT	SEGMENT PARA USE32 PUBLIC 'CODE'
_TEXT	ENDS
;	COMDAT ??$_Pop_heap@Viterator@?$vector@PAUtagTAUCTION@@V?$allocator@PAUtagTAUCTION@@@std@@@std@@HPAUtagTAUCTION@@UClassASC@@@std@@YAXViterator@?$vector@PAUtagTAUCTION@@V?$allocator@PAUtagTAUCTION@@@std@@@0@00PAUtagTAUCTION@@UClassASC@@PAH@Z
_TEXT	SEGMENT PARA USE32 PUBLIC 'CODE'
_TEXT	ENDS
;	COMDAT ??$_Push_heap@Viterator@?$vector@PAUtagTAUCTION@@V?$allocator@PAUtagTAUCTION@@@std@@@std@@HPAUtagTAUCTION@@UClassDESC@@@std@@YAXViterator@?$vector@PAUtagTAUCTION@@V?$allocator@PAUtagTAUCTION@@@std@@@0@HHPAUtagTAUCTION@@UClassDESC@@@Z
_TEXT	SEGMENT PARA USE32 PUBLIC 'CODE'
_TEXT	ENDS
;	COMDAT ??$_Pop_heap@Viterator@?$vector@PAUtagTAUCTION@@V?$allocator@PAUtagTAUCTION@@@std@@@std@@HPAUtagTAUCTION@@UClassDESC@@@std@@YAXViterator@?$vector@PAUtagTAUCTION@@V?$allocator@PAUtagTAUCTION@@@std@@@0@00PAUtagTAUCTION@@UClassDESC@@PAH@Z
_TEXT	SEGMENT PARA USE32 PUBLIC 'CODE'
_TEXT	ENDS
;	COMDAT ??$_Push_heap@Viterator@?$vector@PAUtagTAUCTION@@V?$allocator@PAUtagTAUCTION@@@std@@@std@@HPAUtagTAUCTION@@USellerNameASC@@@std@@YAXViterator@?$vector@PAUtagTAUCTION@@V?$allocator@PAUtagTAUCTION@@@std@@@0@HHPAUtagTAUCTION@@USellerNameASC@@@Z
_TEXT	SEGMENT PARA USE32 PUBLIC 'CODE'
_TEXT	ENDS
;	COMDAT ??$_Pop_heap@Viterator@?$vector@PAUtagTAUCTION@@V?$allocator@PAUtagTAUCTION@@@std@@@std@@HPAUtagTAUCTION@@USellerNameASC@@@std@@YAXViterator@?$vector@PAUtagTAUCTION@@V?$allocator@PAUtagTAUCTION@@@std@@@0@00PAUtagTAUCTION@@USellerNameASC@@PAH@Z
_TEXT	SEGMENT PARA USE32 PUBLIC 'CODE'
_TEXT	ENDS
;	COMDAT ??$_Push_heap@Viterator@?$vector@PAUtagTAUCTION@@V?$allocator@PAUtagTAUCTION@@@std@@@std@@HPAUtagTAUCTION@@USellerNameDESC@@@std@@YAXViterator@?$vector@PAUtagTAUCTION@@V?$allocator@PAUtagTAUCTION@@@std@@@0@HHPAUtagTAUCTION@@USellerNameDESC@@@Z
_TEXT	SEGMENT PARA USE32 PUBLIC 'CODE'
_TEXT	ENDS
;	COMDAT ??$_Pop_heap@Viterator@?$vector@PAUtagTAUCTION@@V?$allocator@PAUtagTAUCTION@@@std@@@std@@HPAUtagTAUCTION@@USellerNameDESC@@@std@@YAXViterator@?$vector@PAUtagTAUCTION@@V?$allocator@PAUtagTAUCTION@@@std@@@0@00PAUtagTAUCTION@@USellerNameDESC@@PAH@Z
_TEXT	SEGMENT PARA USE32 PUBLIC 'CODE'
_TEXT	ENDS
;	COMDAT ??$_Push_heap@Viterator@?$vector@PAUtagTAUCTION@@V?$allocator@PAUtagTAUCTION@@@std@@@std@@HPAUtagTAUCTION@@UWearLevelASC@@@std@@YAXViterator@?$vector@PAUtagTAUCTION@@V?$allocator@PAUtagTAUCTION@@@std@@@0@HHPAUtagTAUCTION@@UWearLevelASC@@@Z
_TEXT	SEGMENT PARA USE32 PUBLIC 'CODE'
_TEXT	ENDS
;	COMDAT ??$_Pop_heap@Viterator@?$vector@PAUtagTAUCTION@@V?$allocator@PAUtagTAUCTION@@@std@@@std@@HPAUtagTAUCTION@@UWearLevelASC@@@std@@YAXViterator@?$vector@PAUtagTAUCTION@@V?$allocator@PAUtagTAUCTION@@@std@@@0@00PAUtagTAUCTION@@UWearLevelASC@@PAH@Z
_TEXT	SEGMENT PARA USE32 PUBLIC 'CODE'
_TEXT	ENDS
;	COMDAT ??$_Push_heap@Viterator@?$vector@PAUtagTAUCTION@@V?$allocator@PAUtagTAUCTION@@@std@@@std@@HPAUtagTAUCTION@@UWearLevelDESC@@@std@@YAXViterator@?$vector@PAUtagTAUCTION@@V?$allocator@PAUtagTAUCTION@@@std@@@0@HHPAUtagTAUCTION@@UWearLevelDESC@@@Z
_TEXT	SEGMENT PARA USE32 PUBLIC 'CODE'
_TEXT	ENDS
;	COMDAT ??$_Pop_heap@Viterator@?$vector@PAUtagTAUCTION@@V?$allocator@PAUtagTAUCTION@@@std@@@std@@HPAUtagTAUCTION@@UWearLevelDESC@@@std@@YAXViterator@?$vector@PAUtagTAUCTION@@V?$allocator@PAUtagTAUCTION@@@std@@@0@00PAUtagTAUCTION@@UWearLevelDESC@@PAH@Z
_TEXT	SEGMENT PARA USE32 PUBLIC 'CODE'
_TEXT	ENDS
;	COMDAT ??$_Push_heap@Viterator@?$vector@PAUtagTAUCTION@@V?$allocator@PAUtagTAUCTION@@@std@@@std@@HPAUtagTAUCTION@@UItemLevelASC@@@std@@YAXViterator@?$vector@PAUtagTAUCTION@@V?$allocator@PAUtagTAUCTION@@@std@@@0@HHPAUtagTAUCTION@@UItemLevelASC@@@Z
_TEXT	SEGMENT PARA USE32 PUBLIC 'CODE'
_TEXT	ENDS
;	COMDAT ??$_Pop_heap@Viterator@?$vector@PAUtagTAUCTION@@V?$allocator@PAUtagTAUCTION@@@std@@@std@@HPAUtagTAUCTION@@UItemLevelASC@@@std@@YAXViterator@?$vector@PAUtagTAUCTION@@V?$allocator@PAUtagTAUCTION@@@std@@@0@00PAUtagTAUCTION@@UItemLevelASC@@PAH@Z
_TEXT	SEGMENT PARA USE32 PUBLIC 'CODE'
_TEXT	ENDS
;	COMDAT ??$_Push_heap@Viterator@?$vector@PAUtagTAUCTION@@V?$allocator@PAUtagTAUCTION@@@std@@@std@@HPAUtagTAUCTION@@UItemLevelDESC@@@std@@YAXViterator@?$vector@PAUtagTAUCTION@@V?$allocator@PAUtagTAUCTION@@@std@@@0@HHPAUtagTAUCTION@@UItemLevelDESC@@@Z
_TEXT	SEGMENT PARA USE32 PUBLIC 'CODE'
_TEXT	ENDS
;	COMDAT ??$_Pop_heap@Viterator@?$vector@PAUtagTAUCTION@@V?$allocator@PAUtagTAUCTION@@@std@@@std@@HPAUtagTAUCTION@@UItemLevelDESC@@@std@@YAXViterator@?$vector@PAUtagTAUCTION@@V?$allocator@PAUtagTAUCTION@@@std@@@0@00PAUtagTAUCTION@@UItemLevelDESC@@PAH@Z
_TEXT	SEGMENT PARA USE32 PUBLIC 'CODE'
_TEXT	ENDS
;	COMDAT ?GetGITPtr@CAtlModule@ATL@@UAEJPAPAUIGlobalInterfaceTable@@@Z
_TEXT	SEGMENT PARA USE32 PUBLIC 'CODE'
_TEXT	ENDS
;	COMDAT __GUID_00000146_0000_0000_c000_000000000046
CONST	SEGMENT DWORD USE32 PUBLIC 'CONST'
CONST	ENDS
;	COMDAT _CLSID_StdGlobalInterfaceTable
CONST	SEGMENT DWORD USE32 PUBLIC 'CONST'
CONST	ENDS
;	COMDAT ?GetLockCount@CAtlModule@ATL@@UAEJXZ
_TEXT	SEGMENT PARA USE32 PUBLIC 'CODE'
_TEXT	ENDS
;	COMDAT ?Lock@CAtlModule@ATL@@UAEJXZ
_TEXT	SEGMENT PARA USE32 PUBLIC 'CODE'
_TEXT	ENDS
;	COMDAT ?Increment@CComMultiThreadModel@ATL@@SGKPAJ@Z
_TEXT	SEGMENT PARA USE32 PUBLIC 'CODE'
_TEXT	ENDS
;	COMDAT ??RItemLevelDESC@@QBE_NPAUtagTAUCTION@@0@Z
_TEXT	SEGMENT PARA USE32 PUBLIC 'CODE'
_TEXT	ENDS
;	COMDAT ??RItemLevelASC@@QBE_NPAUtagTAUCTION@@0@Z
_TEXT	SEGMENT PARA USE32 PUBLIC 'CODE'
_TEXT	ENDS
;	COMDAT ??RWearLevelDESC@@QBE_NPAUtagTAUCTION@@0@Z
_TEXT	SEGMENT PARA USE32 PUBLIC 'CODE'
_TEXT	ENDS
;	COMDAT ??RWearLevelASC@@QBE_NPAUtagTAUCTION@@0@Z
_TEXT	SEGMENT PARA USE32 PUBLIC 'CODE'
_TEXT	ENDS
;	COMDAT ??RSellerNameDESC@@QBE_NPAUtagTAUCTION@@0@Z
_TEXT	SEGMENT PARA USE32 PUBLIC 'CODE'
_TEXT	ENDS
;	COMDAT ??RSellerNameASC@@QBE_NPAUtagTAUCTION@@0@Z
_TEXT	SEGMENT PARA USE32 PUBLIC 'CODE'
_TEXT	ENDS
;	COMDAT ??RClassDESC@@QBE_NPAUtagTAUCTION@@0@Z
_TEXT	SEGMENT PARA USE32 PUBLIC 'CODE'
_TEXT	ENDS
;	COMDAT ??RClassASC@@QBE_NPAUtagTAUCTION@@0@Z
_TEXT	SEGMENT PARA USE32 PUBLIC 'CODE'
_TEXT	ENDS
;	COMDAT ??RBidCountDESC@@QBE_NPAUtagTAUCTION@@0@Z
_TEXT	SEGMENT PARA USE32 PUBLIC 'CODE'
_TEXT	ENDS
;	COMDAT ??RBidCountASC@@QBE_NPAUtagTAUCTION@@0@Z
_TEXT	SEGMENT PARA USE32 PUBLIC 'CODE'
_TEXT	ENDS
;	COMDAT ??RDirectPriceDESC@@QBE_NPAUtagTAUCTION@@0@Z
_TEXT	SEGMENT PARA USE32 PUBLIC 'CODE'
_TEXT	ENDS
;	COMDAT ??RDirectPriceASC@@QBE_NPAUtagTAUCTION@@0@Z
_TEXT	SEGMENT PARA USE32 PUBLIC 'CODE'
_TEXT	ENDS
;	COMDAT ??RBidPriceDESC@@QBE_NPAUtagTAUCTION@@0@Z
_TEXT	SEGMENT PARA USE32 PUBLIC 'CODE'
_TEXT	ENDS
;	COMDAT ??RBidPriceASC@@QBE_NPAUtagTAUCTION@@0@Z
_TEXT	SEGMENT PARA USE32 PUBLIC 'CODE'
_TEXT	ENDS
;	COMDAT ??RRemainTimeDESC@@QBE_NPAUtagTAUCTION@@0@Z
_TEXT	SEGMENT PARA USE32 PUBLIC 'CODE'
_TEXT	ENDS
;	COMDAT ??RRemainTimeASC@@QBE_NPAUtagTAUCTION@@0@Z
_TEXT	SEGMENT PARA USE32 PUBLIC 'CODE'
_TEXT	ENDS
;	COMDAT ??REndTimeDESC@@QBE_NPAUtagTAUCTION@@0@Z
_TEXT	SEGMENT PARA USE32 PUBLIC 'CODE'
_TEXT	ENDS
;	COMDAT ??REndTimeASC@@QBE_NPAUtagTAUCTION@@0@Z
_TEXT	SEGMENT PARA USE32 PUBLIC 'CODE'
_TEXT	ENDS
;	COMDAT ??RAuctionIDDESC@@QBE_NPAUtagTAUCTION@@0@Z
_TEXT	SEGMENT PARA USE32 PUBLIC 'CODE'
_TEXT	ENDS
;	COMDAT ??RAuctionIDASC@@QBE_NPAUtagTAUCTION@@0@Z
_TEXT	SEGMENT PARA USE32 PUBLIC 'CODE'
_TEXT	ENDS
;	COMDAT ?_Ptr_cat@std@@YA?AU_Scalar_ptr_iterator_tag@1@PAG0@Z
_TEXT	SEGMENT PARA USE32 PUBLIC 'CODE'
_TEXT	ENDS
;	COMDAT ?_Psave@?$_Facetptr@V?$ctype@G@std@@@std@@2PBVfacet@locale@2@B
_DATA	SEGMENT DWORD USE32 PUBLIC 'DATA'
_DATA	ENDS
;	COMDAT ?_Psave@?$_Facetptr@V?$ctype@D@std@@@std@@2PBVfacet@locale@2@B
_DATA	SEGMENT DWORD USE32 PUBLIC 'DATA'
_DATA	ENDS
;	COMDAT ?Unlock@CComCriticalSection@ATL@@QAEJXZ
_TEXT	SEGMENT PARA USE32 PUBLIC 'CODE'
_TEXT	ENDS
;	COMDAT ??_C@_0BD@OLBABOEK@vector?$DMT?$DO?5too?5long?$AA@
CONST	SEGMENT DWORD USE32 PUBLIC 'CONST'
CONST	ENDS
;	COMDAT ?_Parent@?$_Tree@V?$_Tmap_traits@KPAVCTItem@@U?$less@K@std@@V?$allocator@U?$pair@$$CBKPAVCTItem@@@std@@@3@$0A@@std@@@std@@KAAAPAU_Node@?$_Tree_nod@V?$_Tmap_traits@KPAVCTItem@@U?$less@K@std@@V?$allocator@U?$pair@$$CBKPAVCTItem@@@std@@@3@$0A@@std@@@2@PAU342@@Z
_TEXT	SEGMENT PARA USE32 PUBLIC 'CODE'
_TEXT	ENDS
;	COMDAT ?CopyChars@?$CSimpleStringT@D$0A@@ATL@@SAXPADPBDH@Z
_TEXT	SEGMENT PARA USE32 PUBLIC 'CODE'
_TEXT	ENDS
;	COMDAT ?SetLength@?$CSimpleStringT@D$0A@@ATL@@AAEXH@Z
_TEXT	SEGMENT PARA USE32 PUBLIC 'CODE'
_TEXT	ENDS
;	COMDAT ?Attach@?$CSimpleStringT@D$0A@@ATL@@AAEXPAUCStringData@2@@Z
_TEXT	SEGMENT PARA USE32 PUBLIC 'CODE'
_TEXT	ENDS
;	COMDAT ?data@CStringData@ATL@@QAEPAXXZ
_TEXT	SEGMENT PARA USE32 PUBLIC 'CODE'
_TEXT	ENDS
;	COMDAT ?ThrowMemoryException@?$CSimpleStringT@D$0A@@ATL@@KAXXZ
_TEXT	SEGMENT PARA USE32 PUBLIC 'CODE'
_TEXT	ENDS
;	COMDAT ?_Left@?$_Tree@V?$_Tmap_traits@KPAVCTItem@@U?$less@K@std@@V?$allocator@U?$pair@$$CBKPAVCTItem@@@std@@@3@$0A@@std@@@std@@KAAAPAU_Node@?$_Tree_nod@V?$_Tmap_traits@KPAVCTItem@@U?$less@K@std@@V?$allocator@U?$pair@$$CBKPAVCTItem@@@std@@@3@$0A@@std@@@2@PAU342@@Z
_TEXT	SEGMENT PARA USE32 PUBLIC 'CODE'
_TEXT	ENDS
;	COMDAT ?_Right@?$_Tree@V?$_Tmap_traits@KPAVCTItem@@U?$less@K@std@@V?$allocator@U?$pair@$$CBKPAVCTItem@@@std@@@3@$0A@@std@@@std@@KAAAPAU_Node@?$_Tree_nod@V?$_Tmap_traits@KPAVCTItem@@U?$less@K@std@@V?$allocator@U?$pair@$$CBKPAVCTItem@@@std@@@3@$0A@@std@@@2@PAU342@@Z
_TEXT	SEGMENT PARA USE32 PUBLIC 'CODE'
_TEXT	ENDS
;	COMDAT ?_Isnil@?$_Tree@V?$_Tmap_traits@KPAVCTItem@@U?$less@K@std@@V?$allocator@U?$pair@$$CBKPAVCTItem@@@std@@@3@$0A@@std@@@std@@KAAADPAU_Node@?$_Tree_nod@V?$_Tmap_traits@KPAVCTItem@@U?$less@K@std@@V?$allocator@U?$pair@$$CBKPAVCTItem@@@std@@@3@$0A@@std@@@2@@Z
_TEXT	SEGMENT PARA USE32 PUBLIC 'CODE'
_TEXT	ENDS
;	COMDAT ??3@YAXPAX0@Z
_TEXT	SEGMENT PARA USE32 PUBLIC 'CODE'
_TEXT	ENDS
;	COMDAT ??2@YAPAXIPAX@Z
_TEXT	SEGMENT PARA USE32 PUBLIC 'CODE'
_TEXT	ENDS
;	COMDAT ??0iterator@?$_Tree@V?$_Tmap_traits@KPAVCTItem@@U?$less@K@std@@V?$allocator@U?$pair@$$CBKPAVCTItem@@@std@@@3@$0A@@std@@@std@@QAE@PAU_Node@?$_Tree_nod@V?$_Tmap_traits@KPAVCTItem@@U?$less@K@std@@V?$allocator@U?$pair@$$CBKPAVCTItem@@@std@@@3@$0A@@std@@@2@@Z
_TEXT	SEGMENT PARA USE32 PUBLIC 'CODE'
_TEXT	ENDS
;	COMDAT ??0const_iterator@?$_Tree@V?$_Tmap_traits@KPAVCTItem@@U?$less@K@std@@V?$allocator@U?$pair@$$CBKPAVCTItem@@@std@@@3@$0A@@std@@@std@@QAE@PAU_Node@?$_Tree_nod@V?$_Tmap_traits@KPAVCTItem@@U?$less@K@std@@V?$allocator@U?$pair@$$CBKPAVCTItem@@@std@@@3@$0A@@std@@@2@@Z
_TEXT	SEGMENT PARA USE32 PUBLIC 'CODE'
_TEXT	ENDS
;	COMDAT __TI3?AVlength_error@std@@
xdata$x	SEGMENT DWORD USE32 PUBLIC 'CONST'
xdata$x	ENDS
;	COMDAT ??1length_error@std@@UAE@XZ
_TEXT	SEGMENT PARA USE32 PUBLIC 'CODE'
_TEXT	ENDS
;	COMDAT ??_7length_error@std@@6B@
CONST	SEGMENT DWORD USE32 PUBLIC 'CONST'
CONST	ENDS
;	COMDAT ??_Glength_error@std@@UAEPAXI@Z
_TEXT	SEGMENT PARA USE32 PUBLIC 'CODE'
_TEXT	ENDS
;	COMDAT ?what@logic_error@std@@UBEPBDXZ
_TEXT	SEGMENT PARA USE32 PUBLIC 'CODE'
_TEXT	ENDS
;	COMDAT ?c_str@?$basic_string@DU?$char_traits@D@std@@V?$allocator@D@2@@std@@QBEPBDXZ
_TEXT	SEGMENT PARA USE32 PUBLIC 'CODE'
_TEXT	ENDS
;	COMDAT ?_Myptr@?$basic_string@DU?$char_traits@D@std@@V?$allocator@D@2@@std@@QBEPBDXZ
_TEXT	SEGMENT PARA USE32 PUBLIC 'CODE'
_TEXT	ENDS
;	COMDAT ??1logic_error@std@@UAE@XZ
_TEXT	SEGMENT PARA USE32 PUBLIC 'CODE'
_TEXT	ENDS
;	COMDAT ??_7logic_error@std@@6B@
CONST	SEGMENT DWORD USE32 PUBLIC 'CONST'
CONST	ENDS
;	COMDAT ??_Glogic_error@std@@UAEPAXI@Z
_TEXT	SEGMENT PARA USE32 PUBLIC 'CODE'
_TEXT	ENDS
;	COMDAT __CTA3?AVlength_error@std@@
xdata$x	SEGMENT DWORD USE32 PUBLIC 'CONST'
xdata$x	ENDS
;	COMDAT __CT??_R0?AVlength_error@std@@@8??0length_error@std@@QAE@ABV01@@Z40
xdata$x	SEGMENT DWORD USE32 PUBLIC 'CONST'
xdata$x	ENDS
;	COMDAT ??_R0?AVlength_error@std@@@8
_DATA	SEGMENT DWORD USE32 PUBLIC 'DATA'
_DATA	ENDS
;	COMDAT ??0length_error@std@@QAE@ABV01@@Z
_TEXT	SEGMENT PARA USE32 PUBLIC 'CODE'
_TEXT	ENDS
;	COMDAT ??0logic_error@std@@QAE@ABV01@@Z
_TEXT	SEGMENT PARA USE32 PUBLIC 'CODE'
_TEXT	ENDS
;	COMDAT ??0?$basic_string@DU?$char_traits@D@std@@V?$allocator@D@2@@std@@QAE@ABV01@@Z
_TEXT	SEGMENT PARA USE32 PUBLIC 'CODE'
_TEXT	ENDS
;	COMDAT ??0?$_String_val@DV?$allocator@D@std@@@std@@IAE@V?$allocator@D@1@@Z
_TEXT	SEGMENT PARA USE32 PUBLIC 'CODE'
_TEXT	ENDS
;	COMDAT ??0?$allocator@D@std@@QAE@ABV01@@Z
_TEXT	SEGMENT PARA USE32 PUBLIC 'CODE'
_TEXT	ENDS
;	COMDAT ?_Tidy@?$basic_string@DU?$char_traits@D@std@@V?$allocator@D@2@@std@@IAEX_NI@Z
_TEXT	SEGMENT PARA USE32 PUBLIC 'CODE'
_TEXT	ENDS
;	COMDAT ?copy@?$char_traits@D@std@@SAPADPADPBDI@Z
_TEXT	SEGMENT PARA USE32 PUBLIC 'CODE'
_TEXT	ENDS
;	COMDAT ?deallocate@?$allocator@D@std@@QAEXPADI@Z
_TEXT	SEGMENT PARA USE32 PUBLIC 'CODE'
_TEXT	ENDS
;	COMDAT ?_Eos@?$basic_string@DU?$char_traits@D@std@@V?$allocator@D@2@@std@@IAEXI@Z
_TEXT	SEGMENT PARA USE32 PUBLIC 'CODE'
_TEXT	ENDS
;	COMDAT ?assign@?$char_traits@D@std@@SAXAADABD@Z
_TEXT	SEGMENT PARA USE32 PUBLIC 'CODE'
_TEXT	ENDS
;	COMDAT ?_Myptr@?$basic_string@DU?$char_traits@D@std@@V?$allocator@D@2@@std@@QAEPADXZ
_TEXT	SEGMENT PARA USE32 PUBLIC 'CODE'
_TEXT	ENDS
;	COMDAT ?assign@?$basic_string@DU?$char_traits@D@std@@V?$allocator@D@2@@std@@QAEAAV12@ABV12@II@Z
_TEXT	SEGMENT PARA USE32 PUBLIC 'CODE'
_TEXT	ENDS
;	COMDAT ?size@?$basic_string@DU?$char_traits@D@std@@V?$allocator@D@2@@std@@QBEIXZ
_TEXT	SEGMENT PARA USE32 PUBLIC 'CODE'
_TEXT	ENDS
;	COMDAT ?erase@?$basic_string@DU?$char_traits@D@std@@V?$allocator@D@2@@std@@QAEAAV12@II@Z
_TEXT	SEGMENT PARA USE32 PUBLIC 'CODE'
_TEXT	ENDS
;	COMDAT ?move@?$char_traits@D@std@@SAPADPADPBDI@Z
_TEXT	SEGMENT PARA USE32 PUBLIC 'CODE'
_TEXT	ENDS
;	COMDAT ?_Grow@?$basic_string@DU?$char_traits@D@std@@V?$allocator@D@2@@std@@IAE_NI_N@Z
_TEXT	SEGMENT PARA USE32 PUBLIC 'CODE'
_TEXT	ENDS
;	COMDAT ?max_size@?$basic_string@DU?$char_traits@D@std@@V?$allocator@D@2@@std@@QBEIXZ
_TEXT	SEGMENT PARA USE32 PUBLIC 'CODE'
_TEXT	ENDS
;	COMDAT ?max_size@?$allocator@D@std@@QBEIXZ
_TEXT	SEGMENT PARA USE32 PUBLIC 'CODE'
_TEXT	ENDS
;	COMDAT ?_Copy@?$basic_string@DU?$char_traits@D@std@@V?$allocator@D@2@@std@@IAEXII@Z
_TEXT	SEGMENT PARA USE32 PUBLIC 'CODE'
_TEXT	ENDS
;	COMDAT ?allocate@?$allocator@D@std@@QAEPADI@Z
_TEXT	SEGMENT PARA USE32 PUBLIC 'CODE'
_TEXT	ENDS
;	COMDAT ??$_Allocate@D@std@@YAPADIPAD@Z
_TEXT	SEGMENT PARA USE32 PUBLIC 'CODE'
_TEXT	ENDS
;	COMDAT ?npos@?$basic_string@DU?$char_traits@D@std@@V?$allocator@D@2@@std@@2IB
CONST	SEGMENT DWORD USE32 PUBLIC 'CONST'
CONST	ENDS
;	COMDAT __CT??_R0?AVlogic_error@std@@@8??0logic_error@std@@QAE@ABV01@@Z40
xdata$x	SEGMENT DWORD USE32 PUBLIC 'CONST'
xdata$x	ENDS
;	COMDAT ??_R0?AVlogic_error@std@@@8
_DATA	SEGMENT DWORD USE32 PUBLIC 'DATA'
_DATA	ENDS
;	COMDAT __CT??_R0?AVexception@@@8??0exception@@QAE@ABV0@@Z12
xdata$x	SEGMENT DWORD USE32 PUBLIC 'CONST'
xdata$x	ENDS
;	COMDAT ??_R0?AVexception@@@8
_DATA	SEGMENT DWORD USE32 PUBLIC 'DATA'
_DATA	ENDS
;	COMDAT ??0length_error@std@@QAE@ABV?$basic_string@DU?$char_traits@D@std@@V?$allocator@D@2@@1@@Z
_TEXT	SEGMENT PARA USE32 PUBLIC 'CODE'
_TEXT	ENDS
;	COMDAT ??0logic_error@std@@QAE@ABV?$basic_string@DU?$char_traits@D@std@@V?$allocator@D@2@@1@@Z
_TEXT	SEGMENT PARA USE32 PUBLIC 'CODE'
_TEXT	ENDS
;	COMDAT ?GetData@?$CSimpleStringT@D$0A@@ATL@@ABEPAUCStringData@2@XZ
_TEXT	SEGMENT PARA USE32 PUBLIC 'CODE'
_TEXT	ENDS
;	COMDAT ?ReleaseBufferSetLength@?$CSimpleStringT@D$0A@@ATL@@QAEXH@Z
_TEXT	SEGMENT PARA USE32 PUBLIC 'CODE'
_TEXT	ENDS
;	COMDAT ?Format@?$ChTraitsCRT@D@ATL@@SAHPADPBD0@Z
_TEXT	SEGMENT PARA USE32 PUBLIC 'CODE'
_TEXT	ENDS
;	COMDAT ?GetBuffer@?$CSimpleStringT@D$0A@@ATL@@QAEPADH@Z
_TEXT	SEGMENT PARA USE32 PUBLIC 'CODE'
_TEXT	ENDS
;	COMDAT ?PrepareWrite@?$CSimpleStringT@D$0A@@ATL@@AAEPADH@Z
_TEXT	SEGMENT PARA USE32 PUBLIC 'CODE'
_TEXT	ENDS
;	COMDAT ?PrepareWrite2@?$CSimpleStringT@D$0A@@ATL@@AAEXH@Z
_TEXT	SEGMENT PARA USE32 PUBLIC 'CODE'
_TEXT	ENDS
;	COMDAT ?IsShared@CStringData@ATL@@QBE_NXZ
_TEXT	SEGMENT PARA USE32 PUBLIC 'CODE'
_TEXT	ENDS
;	COMDAT ?Fork@?$CSimpleStringT@D$0A@@ATL@@AAEXH@Z
_TEXT	SEGMENT PARA USE32 PUBLIC 'CODE'
_TEXT	ENDS
;	COMDAT ?Release@CStringData@ATL@@QAEXXZ
_TEXT	SEGMENT PARA USE32 PUBLIC 'CODE'
_TEXT	ENDS
;	COMDAT ?Reallocate@?$CSimpleStringT@D$0A@@ATL@@AAEXH@Z
_TEXT	SEGMENT PARA USE32 PUBLIC 'CODE'
_TEXT	ENDS
;	COMDAT ?GetFormattedLength@?$ChTraitsCRT@D@ATL@@SAHPBDPAD@Z
_TEXT	SEGMENT PARA USE32 PUBLIC 'CODE'
_TEXT	ENDS
;	COMDAT ??1?$CSimpleStringT@D$0A@@ATL@@QAE@XZ
_TEXT	SEGMENT PARA USE32 PUBLIC 'CODE'
_TEXT	ENDS
;	COMDAT ??0?$CSimpleStringT@D$0A@@ATL@@QAE@PAUIAtlStringMgr@1@@Z
_TEXT	SEGMENT PARA USE32 PUBLIC 'CODE'
_TEXT	ENDS
;	COMDAT ??1CAtlModule@ATL@@UAE@XZ
_TEXT	SEGMENT PARA USE32 PUBLIC 'CODE'
_TEXT	ENDS
;	COMDAT ?_pPerfUnRegFunc@ATL@@3P6AJXZA
_DATA	SEGMENT DWORD USE32 PUBLIC 'DATA'
_DATA	ENDS
;	COMDAT ?_pPerfRegFunc@ATL@@3P6AJPAUHINSTANCE__@@@ZA
_DATA	SEGMENT DWORD USE32 PUBLIC 'DATA'
_DATA	ENDS
;	COMDAT ?Decrement@CComMultiThreadModel@ATL@@SGKPAJ@Z
_TEXT	SEGMENT PARA USE32 PUBLIC 'CODE'
_TEXT	ENDS
;	COMDAT ?Term@CAtlModule@ATL@@QAEXXZ
_TEXT	SEGMENT PARA USE32 PUBLIC 'CODE'
_TEXT	ENDS
;	COMDAT ?AtlCallTermFunc@ATL@@YGXPAU_ATL_MODULE70@1@@Z
_TEXT	SEGMENT PARA USE32 PUBLIC 'CODE'
_TEXT	ENDS
;	COMDAT ?_AtlRaiseException@ATL@@YAXKK@Z
_TEXT	SEGMENT PARA USE32 PUBLIC 'CODE'
_TEXT	ENDS
;	COMDAT ?Term@CComCriticalSection@ATL@@QAEJXZ
_TEXT	SEGMENT PARA USE32 PUBLIC 'CODE'
_TEXT	ENDS
;	COMDAT ?Unlock@CAtlModule@ATL@@UAEJXZ
_TEXT	SEGMENT PARA USE32 PUBLIC 'CODE'
_TEXT	ENDS
;	COMDAT ??$swap@D@std@@YAXAAD0@Z
_TEXT	SEGMENT PARA USE32 PUBLIC 'CODE'
_TEXT	ENDS
;	COMDAT __TI3?AVout_of_range@std@@
xdata$x	SEGMENT DWORD USE32 PUBLIC 'CONST'
xdata$x	ENDS
;	COMDAT ??1out_of_range@std@@UAE@XZ
_TEXT	SEGMENT PARA USE32 PUBLIC 'CODE'
_TEXT	ENDS
;	COMDAT ??_7out_of_range@std@@6B@
CONST	SEGMENT DWORD USE32 PUBLIC 'CONST'
CONST	ENDS
;	COMDAT ??_Gout_of_range@std@@UAEPAXI@Z
_TEXT	SEGMENT PARA USE32 PUBLIC 'CODE'
_TEXT	ENDS
;	COMDAT __CTA3?AVout_of_range@std@@
xdata$x	SEGMENT DWORD USE32 PUBLIC 'CONST'
xdata$x	ENDS
;	COMDAT __CT??_R0?AVout_of_range@std@@@8??0out_of_range@std@@QAE@ABV01@@Z40
xdata$x	SEGMENT DWORD USE32 PUBLIC 'CONST'
xdata$x	ENDS
;	COMDAT ??_R0?AVout_of_range@std@@@8
_DATA	SEGMENT DWORD USE32 PUBLIC 'DATA'
_DATA	ENDS
;	COMDAT ??0out_of_range@std@@QAE@ABV01@@Z
_TEXT	SEGMENT PARA USE32 PUBLIC 'CODE'
_TEXT	ENDS
;	COMDAT ??1?$basic_string@DU?$char_traits@D@std@@V?$allocator@D@2@@std@@QAE@XZ
_TEXT	SEGMENT PARA USE32 PUBLIC 'CODE'
_TEXT	ENDS
;	COMDAT ??_C@_0BM@PAPJHAGI@invalid?5map?1set?$DMT?$DO?5iterator?$AA@
CONST	SEGMENT DWORD USE32 PUBLIC 'CONST'
CONST	ENDS
;	COMDAT ??0?$basic_string@DU?$char_traits@D@std@@V?$allocator@D@2@@std@@QAE@PBD@Z
_TEXT	SEGMENT PARA USE32 PUBLIC 'CODE'
_TEXT	ENDS
;	COMDAT ??0?$allocator@D@std@@QAE@XZ
_TEXT	SEGMENT PARA USE32 PUBLIC 'CODE'
_TEXT	ENDS
;	COMDAT ?assign@?$basic_string@DU?$char_traits@D@std@@V?$allocator@D@2@@std@@QAEAAV12@PBD@Z
_TEXT	SEGMENT PARA USE32 PUBLIC 'CODE'
_TEXT	ENDS
;	COMDAT ?assign@?$basic_string@DU?$char_traits@D@std@@V?$allocator@D@2@@std@@QAEAAV12@PBDI@Z
_TEXT	SEGMENT PARA USE32 PUBLIC 'CODE'
_TEXT	ENDS
;	COMDAT ?_Inside@?$basic_string@DU?$char_traits@D@std@@V?$allocator@D@2@@std@@IAE_NPBD@Z
_TEXT	SEGMENT PARA USE32 PUBLIC 'CODE'
_TEXT	ENDS
;	COMDAT ?length@?$char_traits@D@std@@SAIPBD@Z
_TEXT	SEGMENT PARA USE32 PUBLIC 'CODE'
_TEXT	ENDS
;	COMDAT ??0out_of_range@std@@QAE@ABV?$basic_string@DU?$char_traits@D@std@@V?$allocator@D@2@@1@@Z
_TEXT	SEGMENT PARA USE32 PUBLIC 'CODE'
_TEXT	ENDS
;	COMDAT ?_Mynode@const_iterator@?$_Tree@V?$_Tmap_traits@KPAVCTItem@@U?$less@K@std@@V?$allocator@U?$pair@$$CBKPAVCTItem@@@std@@@3@$0A@@std@@@std@@QBEPAU_Node@?$_Tree_nod@V?$_Tmap_traits@KPAVCTItem@@U?$less@K@std@@V?$allocator@U?$pair@$$CBKPAVCTItem@@@std@@@3@$0A@@std@@@3@XZ
_TEXT	SEGMENT PARA USE32 PUBLIC 'CODE'
_TEXT	ENDS
;	COMDAT ??8const_iterator@?$_Tree@V?$_Tmap_traits@KPAVCTItem@@U?$less@K@std@@V?$allocator@U?$pair@$$CBKPAVCTItem@@@std@@@3@$0A@@std@@@std@@QBE_NABV012@@Z
_TEXT	SEGMENT PARA USE32 PUBLIC 'CODE'
_TEXT	ENDS
;	COMDAT ?GetLength@?$CSimpleStringT@D$0A@@ATL@@QBEHXZ
_TEXT	SEGMENT PARA USE32 PUBLIC 'CODE'
_TEXT	ENDS
;	COMDAT ?GetString@?$CSimpleStringT@D$0A@@ATL@@QBEPBDXZ
_TEXT	SEGMENT PARA USE32 PUBLIC 'CODE'
_TEXT	ENDS
;	COMDAT ??0?$CStringT@DV?$StrTraitATL@DV?$ChTraitsCRT@D@ATL@@@ATL@@@ATL@@QAE@ABV01@@Z
_TEXT	SEGMENT PARA USE32 PUBLIC 'CODE'
_TEXT	ENDS
;	COMDAT ??0?$CSimpleStringT@D$0A@@ATL@@QAE@ABV01@@Z
_TEXT	SEGMENT PARA USE32 PUBLIC 'CODE'
_TEXT	ENDS
;	COMDAT ?CloneData@?$CSimpleStringT@D$0A@@ATL@@CAPAUCStringData@2@PAU32@@Z
_TEXT	SEGMENT PARA USE32 PUBLIC 'CODE'
_TEXT	ENDS
;	COMDAT ?IsLocked@CStringData@ATL@@QBE_NXZ
_TEXT	SEGMENT PARA USE32 PUBLIC 'CODE'
_TEXT	ENDS
;	COMDAT ?AddRef@CStringData@ATL@@QAEXXZ
_TEXT	SEGMENT PARA USE32 PUBLIC 'CODE'
_TEXT	ENDS
;	COMDAT ?AtlThrow@ATL@@YGXJ@Z
_TEXT	SEGMENT PARA USE32 PUBLIC 'CODE'
_TEXT	ENDS
;	COMDAT ??0CAtlException@ATL@@QAE@J@Z
_TEXT	SEGMENT PARA USE32 PUBLIC 'CODE'
_TEXT	ENDS
;	COMDAT __TI1?AVCAtlException@ATL@@
xdata$x	SEGMENT DWORD USE32 PUBLIC 'CONST'
xdata$x	ENDS
;	COMDAT __CTA1?AVCAtlException@ATL@@
xdata$x	SEGMENT DWORD USE32 PUBLIC 'CONST'
xdata$x	ENDS
;	COMDAT __CT??_R0?AVCAtlException@ATL@@@84
xdata$x	SEGMENT DWORD USE32 PUBLIC 'CONST'
xdata$x	ENDS
;	COMDAT ??_R0?AVCAtlException@ATL@@@8
_DATA	SEGMENT DWORD USE32 PUBLIC 'DATA'
_DATA	ENDS
;	COMDAT ?end@?$_Tree@V?$_Tmap_traits@KPAVCTItem@@U?$less@K@std@@V?$allocator@U?$pair@$$CBKPAVCTItem@@@std@@@3@$0A@@std@@@std@@QAE?AViterator@12@XZ
_TEXT	SEGMENT PARA USE32 PUBLIC 'CODE'
_TEXT	ENDS
;	COMDAT ??9const_iterator@?$_Tree@V?$_Tmap_traits@KPAVCTItem@@U?$less@K@std@@V?$allocator@U?$pair@$$CBKPAVCTItem@@@std@@@3@$0A@@std@@@std@@QBE_NABV012@@Z
_TEXT	SEGMENT PARA USE32 PUBLIC 'CODE'
_TEXT	ENDS
;	COMDAT ?clear@?$_Tree@V?$_Tmap_traits@KPAUtagQUESTTEMP@@U?$less@K@std@@V?$allocator@U?$pair@$$CBKPAUtagQUESTTEMP@@@std@@@3@$0A@@std@@@std@@QAEXXZ
_TEXT	SEGMENT PARA USE32 PUBLIC 'CODE'
_TEXT	ENDS
;	COMDAT ?_Erase@?$_Tree@V?$_Tmap_traits@KPAUtagQUESTTEMP@@U?$less@K@std@@V?$allocator@U?$pair@$$CBKPAUtagQUESTTEMP@@@std@@@3@$0A@@std@@@std@@IAEXPAU_Node@?$_Tree_nod@V?$_Tmap_traits@KPAUtagQUESTTEMP@@U?$less@K@std@@V?$allocator@U?$pair@$$CBKPAUtagQUESTTEMP@@@std@@@3@$0A@@std@@@2@@Z
_TEXT	SEGMENT PARA USE32 PUBLIC 'CODE'
_TEXT	ENDS
;	COMDAT ?_Isnil@?$_Tree@V?$_Tmap_traits@KPAUtagQUESTTEMP@@U?$less@K@std@@V?$allocator@U?$pair@$$CBKPAUtagQUESTTEMP@@@std@@@3@$0A@@std@@@std@@KAAADPAU_Node@?$_Tree_nod@V?$_Tmap_traits@KPAUtagQUESTTEMP@@U?$less@K@std@@V?$allocator@U?$pair@$$CBKPAUtagQUESTTEMP@@@std@@@3@$0A@@std@@@2@@Z
_TEXT	SEGMENT PARA USE32 PUBLIC 'CODE'
_TEXT	ENDS
;	COMDAT ?_Right@?$_Tree@V?$_Tmap_traits@KPAUtagQUESTTEMP@@U?$less@K@std@@V?$allocator@U?$pair@$$CBKPAUtagQUESTTEMP@@@std@@@3@$0A@@std@@@std@@KAAAPAU_Node@?$_Tree_nod@V?$_Tmap_traits@KPAUtagQUESTTEMP@@U?$less@K@std@@V?$allocator@U?$pair@$$CBKPAUtagQUESTTEMP@@@std@@@3@$0A@@std@@@2@PAU342@@Z
_TEXT	SEGMENT PARA USE32 PUBLIC 'CODE'
_TEXT	ENDS
