; Listing generated by Microsoft (R) Optimizing Compiler Version 13.10.3077 

	TITLE	.\TRecallMon.cpp
	.386P
include listing.inc
if @Version gt 510
.model FLAT
else
_TEXT	SEGMENT PARA USE32 PUBLIC 'CODE'
_TEXT	ENDS
_DATA	SEGMENT DWORD USE32 PUBLIC 'DATA'
_DATA	ENDS
CONST	SEGMENT DWORD USE32 PUBLIC 'CONST'
CONST	ENDS
_BSS	SEGMENT DWORD USE32 PUBLIC 'BSS'
_BSS	ENDS
$$SYMBOLS	SEGMENT BYTE USE32 'DEBSYM'
$$SYMBOLS	ENDS
$$TYPES	SEGMENT BYTE USE32 'DEBTYP'
$$TYPES	ENDS
_TLS	SEGMENT DWORD USE32 PUBLIC 'TLS'
_TLS	ENDS
text$yc	SEGMENT PARA USE32 PUBLIC 'CODE'
text$yc	ENDS
CRT$XCA	SEGMENT DWORD USE32 PUBLIC 'DATA'
CRT$XCA	ENDS
CRT$XCU	SEGMENT DWORD USE32 PUBLIC 'DATA'
CRT$XCU	ENDS
CRT$XCL	SEGMENT DWORD USE32 PUBLIC 'DATA'
CRT$XCL	ENDS
CRT$XCC	SEGMENT DWORD USE32 PUBLIC 'DATA'
CRT$XCC	ENDS
CRT$XCZ	SEGMENT DWORD USE32 PUBLIC 'DATA'
CRT$XCZ	ENDS
text$yd	SEGMENT PARA USE32 PUBLIC 'CODE'
text$yd	ENDS
ATL$__m	SEGMENT DWORD USE32 PUBLIC ''
ATL$__m	ENDS
ATL$__z	SEGMENT DWORD USE32 PUBLIC ''
ATL$__z	ENDS
ATL$__a	SEGMENT DWORD USE32 PUBLIC ''
ATL$__a	ENDS
xdata$x	SEGMENT DWORD USE32 PUBLIC 'CONST'
xdata$x	ENDS
;	COMDAT ??0CTRecallMon@@QAE@XZ
_TEXT	SEGMENT PARA USE32 PUBLIC 'CODE'
_TEXT	ENDS
;	COMDAT ??_GCTRecallMon@@UAEPAXI@Z
_TEXT	SEGMENT PARA USE32 PUBLIC 'CODE'
_TEXT	ENDS
;	COMDAT ??1CTRecallMon@@UAE@XZ
_TEXT	SEGMENT PARA USE32 PUBLIC 'CODE'
_TEXT	ENDS
;	COMDAT ?GetLifeTick@CTRecallMon@@QAEKK@Z
_TEXT	SEGMENT PARA USE32 PUBLIC 'CODE'
_TEXT	ENDS
;	COMDAT ?Recover@CTRecallMon@@UAEXK@Z
_TEXT	SEGMENT PARA USE32 PUBLIC 'CODE'
_TEXT	ENDS
;	COMDAT ?OnDamage@CTRecallMon@@UAEKKKEEEEGHH@Z
_TEXT	SEGMENT PARA USE32 PUBLIC 'CODE'
_TEXT	ENDS
;	COMDAT ?OnDie@CTRecallMon@@UAEXKEG@Z
_TEXT	SEGMENT PARA USE32 PUBLIC 'CODE'
_TEXT	ENDS
;	COMDAT ?Defend@CTRecallMon@@UAEXPAVCTSkillTemp@@EKKEGEEEKKKKKKGGEEEGEEEKMMMMMME@Z
_TEXT	SEGMENT PARA USE32 PUBLIC 'CODE'
_TEXT	ENDS
;	COMDAT ?GetMaxHP@CTRecallMon@@UAEKXZ
_TEXT	SEGMENT PARA USE32 PUBLIC 'CODE'
_TEXT	ENDS
;	COMDAT ?GetMaxMP@CTRecallMon@@UAEKXZ
_TEXT	SEGMENT PARA USE32 PUBLIC 'CODE'
_TEXT	ENDS
;	COMDAT ?GetMaxAP@CTRecallMon@@UAEKE@Z
_TEXT	SEGMENT PARA USE32 PUBLIC 'CODE'
_TEXT	ENDS
;	COMDAT ?GetMinAP@CTRecallMon@@UAEKE@Z
_TEXT	SEGMENT PARA USE32 PUBLIC 'CODE'
_TEXT	ENDS
;	COMDAT ?GetMinMagicAP@CTRecallMon@@UAEKXZ
_TEXT	SEGMENT PARA USE32 PUBLIC 'CODE'
_TEXT	ENDS
;	COMDAT ?GetMaxMagicAP@CTRecallMon@@UAEKXZ
_TEXT	SEGMENT PARA USE32 PUBLIC 'CODE'
_TEXT	ENDS
;	COMDAT ?GetDefendPower@CTRecallMon@@UAEKXZ
_TEXT	SEGMENT PARA USE32 PUBLIC 'CODE'
_TEXT	ENDS
;	COMDAT ?GetMagicDefPower@CTRecallMon@@UAEKXZ
_TEXT	SEGMENT PARA USE32 PUBLIC 'CODE'
_TEXT	ENDS
;	COMDAT ?GetAttackLevel@CTRecallMon@@UAEGXZ
_TEXT	SEGMENT PARA USE32 PUBLIC 'CODE'
_TEXT	ENDS
;	COMDAT ?GetDefendLevel@CTRecallMon@@UAEGXZ
_TEXT	SEGMENT PARA USE32 PUBLIC 'CODE'
_TEXT	ENDS
;	COMDAT ?GetMagicAtkLevel@CTRecallMon@@UAEGXZ
_TEXT	SEGMENT PARA USE32 PUBLIC 'CODE'
_TEXT	ENDS
;	COMDAT ?GetMagicDefLevel@CTRecallMon@@UAEGXZ
_TEXT	SEGMENT PARA USE32 PUBLIC 'CODE'
_TEXT	ENDS
;	COMDAT ?GetCriticalPysProb@CTRecallMon@@UAEEXZ
_TEXT	SEGMENT PARA USE32 PUBLIC 'CODE'
_TEXT	ENDS
;	COMDAT ?GetCriticalMagicProb@CTRecallMon@@UAEEXZ
_TEXT	SEGMENT PARA USE32 PUBLIC 'CODE'
_TEXT	ENDS
;	COMDAT ??0?$vector@PAVCTMonster@@V?$allocator@PAVCTMonster@@@std@@@std@@QAE@XZ
_TEXT	SEGMENT PARA USE32 PUBLIC 'CODE'
_TEXT	ENDS
;	COMDAT ??1?$vector@PAVCTMonster@@V?$allocator@PAVCTMonster@@@std@@@std@@QAE@XZ
_TEXT	SEGMENT PARA USE32 PUBLIC 'CODE'
_TEXT	ENDS
;	COMDAT ?empty@?$vector@PAVCTMonster@@V?$allocator@PAVCTMonster@@@std@@@std@@QBE_NXZ
_TEXT	SEGMENT PARA USE32 PUBLIC 'CODE'
_TEXT	ENDS
;	COMDAT ?back@?$vector@PAVCTMonster@@V?$allocator@PAVCTMonster@@@std@@@std@@QAEAAPAVCTMonster@@XZ
_TEXT	SEGMENT PARA USE32 PUBLIC 'CODE'
_TEXT	ENDS
;	COMDAT ?pop_back@?$vector@PAVCTMonster@@V?$allocator@PAVCTMonster@@@std@@@std@@QAEXXZ
_TEXT	SEGMENT PARA USE32 PUBLIC 'CODE'
_TEXT	ENDS
;	COMDAT ?clear@?$vector@PAVCTMonster@@V?$allocator@PAVCTMonster@@@std@@@std@@QAEXXZ
_TEXT	SEGMENT PARA USE32 PUBLIC 'CODE'
_TEXT	ENDS
;	COMDAT ?end@?$_Tree@V?$_Tmap_traits@_JUtagAGGRO@@U?$less@_J@std@@V?$allocator@U?$pair@$$CB_JUtagAGGRO@@@std@@@3@$0A@@std@@@std@@QAE?AViterator@12@XZ
_TEXT	SEGMENT PARA USE32 PUBLIC 'CODE'
_TEXT	ENDS
;	COMDAT ?find@?$_Tree@V?$_Tmap_traits@_JUtagAGGRO@@U?$less@_J@std@@V?$allocator@U?$pair@$$CB_JUtagAGGRO@@@std@@@3@$0A@@std@@@std@@QAE?AViterator@12@AB_J@Z
_TEXT	SEGMENT PARA USE32 PUBLIC 'CODE'
_TEXT	ENDS
;	COMDAT ??Diterator@?$_Tree@V?$_Tmap_traits@_JUtagAGGRO@@U?$less@_J@std@@V?$allocator@U?$pair@$$CB_JUtagAGGRO@@@std@@@3@$0A@@std@@@std@@QBEAAU?$pair@$$CB_JUtagAGGRO@@@2@XZ
_TEXT	SEGMENT PARA USE32 PUBLIC 'CODE'
_TEXT	ENDS
;	COMDAT ??9const_iterator@?$_Tree@V?$_Tmap_traits@_JUtagAGGRO@@U?$less@_J@std@@V?$allocator@U?$pair@$$CB_JUtagAGGRO@@@std@@@3@$0A@@std@@@std@@QBE_NABV012@@Z
_TEXT	SEGMENT PARA USE32 PUBLIC 'CODE'
_TEXT	ENDS
;	COMDAT ?end@?$vector@PAVCTMonster@@V?$allocator@PAVCTMonster@@@std@@@std@@QAE?AViterator@12@XZ
_TEXT	SEGMENT PARA USE32 PUBLIC 'CODE'
_TEXT	ENDS
;	COMDAT ?size@?$vector@PAVCTMonster@@V?$allocator@PAVCTMonster@@@std@@@std@@QBEIXZ
_TEXT	SEGMENT PARA USE32 PUBLIC 'CODE'
_TEXT	ENDS
;	COMDAT ?_Buy@?$vector@PAVCTMonster@@V?$allocator@PAVCTMonster@@@std@@@std@@IAE_NI@Z
_TEXT	SEGMENT PARA USE32 PUBLIC 'CODE'
_TEXT	ENDS
;	COMDAT ?_Destroy@?$vector@PAVCTMonster@@V?$allocator@PAVCTMonster@@@std@@@std@@IAEXPAPAVCTMonster@@0@Z
_TEXT	SEGMENT PARA USE32 PUBLIC 'CODE'
_TEXT	ENDS
;	COMDAT ?_Tidy@?$vector@PAVCTMonster@@V?$allocator@PAVCTMonster@@@std@@@std@@IAEXXZ
_TEXT	SEGMENT PARA USE32 PUBLIC 'CODE'
_TEXT	ENDS
;	COMDAT ??0?$_Vector_val@PAVCTMonster@@V?$allocator@PAVCTMonster@@@std@@@std@@IAE@V?$allocator@PAVCTMonster@@@1@@Z
_TEXT	SEGMENT PARA USE32 PUBLIC 'CODE'
_TEXT	ENDS
;	COMDAT ??0?$allocator@PAVCTMonster@@@std@@QAE@XZ
_TEXT	SEGMENT PARA USE32 PUBLIC 'CODE'
_TEXT	ENDS
;	COMDAT ??R?$less@_J@std@@QBE_NAB_J0@Z
_TEXT	SEGMENT PARA USE32 PUBLIC 'CODE'
_TEXT	ENDS
;	COMDAT ?_Key@?$_Tree@V?$_Tmap_traits@_JUtagAGGRO@@U?$less@_J@std@@V?$allocator@U?$pair@$$CB_JUtagAGGRO@@@std@@@3@$0A@@std@@@std@@KAAB_JPAU_Node@?$_Tree_nod@V?$_Tmap_traits@_JUtagAGGRO@@U?$less@_J@std@@V?$allocator@U?$pair@$$CB_JUtagAGGRO@@@std@@@3@$0A@@std@@@2@@Z
_TEXT	SEGMENT PARA USE32 PUBLIC 'CODE'
_TEXT	ENDS
;	COMDAT ?lower_bound@?$_Tree@V?$_Tmap_traits@_JUtagAGGRO@@U?$less@_J@std@@V?$allocator@U?$pair@$$CB_JUtagAGGRO@@@std@@@3@$0A@@std@@@std@@QAE?AViterator@12@AB_J@Z
_TEXT	SEGMENT PARA USE32 PUBLIC 'CODE'
_TEXT	ENDS
;	COMDAT ??0iterator@?$_Tree@V?$_Tmap_traits@_JUtagAGGRO@@U?$less@_J@std@@V?$allocator@U?$pair@$$CB_JUtagAGGRO@@@std@@@3@$0A@@std@@@std@@QAE@PAU_Node@?$_Tree_nod@V?$_Tmap_traits@_JUtagAGGRO@@U?$less@_J@std@@V?$allocator@U?$pair@$$CB_JUtagAGGRO@@@std@@@3@$0A@@std@@@2@@Z
_TEXT	SEGMENT PARA USE32 PUBLIC 'CODE'
_TEXT	ENDS
;	COMDAT ??Dconst_iterator@?$_Tree@V?$_Tmap_traits@_JUtagAGGRO@@U?$less@_J@std@@V?$allocator@U?$pair@$$CB_JUtagAGGRO@@@std@@@3@$0A@@std@@@std@@QBEABU?$pair@$$CB_JUtagAGGRO@@@2@XZ
_TEXT	SEGMENT PARA USE32 PUBLIC 'CODE'
_TEXT	ENDS
;	COMDAT ??8const_iterator@?$_Tree@V?$_Tmap_traits@_JUtagAGGRO@@U?$less@_J@std@@V?$allocator@U?$pair@$$CB_JUtagAGGRO@@@std@@@3@$0A@@std@@@std@@QBE_NABV012@@Z
_TEXT	SEGMENT PARA USE32 PUBLIC 'CODE'
_TEXT	ENDS
;	COMDAT ?_Mynode@const_iterator@?$_Tree@V?$_Tmap_traits@_JUtagAGGRO@@U?$less@_J@std@@V?$allocator@U?$pair@$$CB_JUtagAGGRO@@@std@@@3@$0A@@std@@@std@@QBEPAU_Node@?$_Tree_nod@V?$_Tmap_traits@_JUtagAGGRO@@U?$less@_J@std@@V?$allocator@U?$pair@$$CB_JUtagAGGRO@@@std@@@3@$0A@@std@@@3@XZ
_TEXT	SEGMENT PARA USE32 PUBLIC 'CODE'
_TEXT	ENDS
;	COMDAT ??Diterator@?$vector@PAVCTMonster@@V?$allocator@PAVCTMonster@@@std@@@std@@QBEAAPAVCTMonster@@XZ
_TEXT	SEGMENT PARA USE32 PUBLIC 'CODE'
_TEXT	ENDS
;	COMDAT ??Giterator@?$vector@PAVCTMonster@@V?$allocator@PAVCTMonster@@@std@@@std@@QBE?AV012@H@Z
_TEXT	SEGMENT PARA USE32 PUBLIC 'CODE'
_TEXT	ENDS
;	COMDAT ?max_size@?$vector@PAVCTMonster@@V?$allocator@PAVCTMonster@@@std@@@std@@QBEIXZ
_TEXT	SEGMENT PARA USE32 PUBLIC 'CODE'
_TEXT	ENDS
;	COMDAT ?_Xlen@?$vector@PAVCTMonster@@V?$allocator@PAVCTMonster@@@std@@@std@@IBEXXZ
_TEXT	SEGMENT PARA USE32 PUBLIC 'CODE'
_TEXT	ENDS
;	COMDAT ??0?$allocator@PAVCTMonster@@@std@@QAE@ABV01@@Z
_TEXT	SEGMENT PARA USE32 PUBLIC 'CODE'
_TEXT	ENDS
;	COMDAT ?deallocate@?$allocator@PAVCTMonster@@@std@@QAEXPAPAVCTMonster@@I@Z
_TEXT	SEGMENT PARA USE32 PUBLIC 'CODE'
_TEXT	ENDS
;	COMDAT ?allocate@?$allocator@PAVCTMonster@@@std@@QAEPAPAVCTMonster@@I@Z
_TEXT	SEGMENT PARA USE32 PUBLIC 'CODE'
_TEXT	ENDS
;	COMDAT ?_Myval@?$_Tree@V?$_Tmap_traits@_JUtagAGGRO@@U?$less@_J@std@@V?$allocator@U?$pair@$$CB_JUtagAGGRO@@@std@@@3@$0A@@std@@@std@@KAAAU?$pair@$$CB_JUtagAGGRO@@@2@PAU_Node@?$_Tree_nod@V?$_Tmap_traits@_JUtagAGGRO@@U?$less@_J@std@@V?$allocator@U?$pair@$$CB_JUtagAGGRO@@@std@@@3@$0A@@std@@@2@@Z
_TEXT	SEGMENT PARA USE32 PUBLIC 'CODE'
_TEXT	ENDS
;	COMDAT ?_Lbound@?$_Tree@V?$_Tmap_traits@_JUtagAGGRO@@U?$less@_J@std@@V?$allocator@U?$pair@$$CB_JUtagAGGRO@@@std@@@3@$0A@@std@@@std@@IBEPAU_Node@?$_Tree_nod@V?$_Tmap_traits@_JUtagAGGRO@@U?$less@_J@std@@V?$allocator@U?$pair@$$CB_JUtagAGGRO@@@std@@@3@$0A@@std@@@2@AB_J@Z
_TEXT	SEGMENT PARA USE32 PUBLIC 'CODE'
_TEXT	ENDS
;	COMDAT ?_Kfn@?$_Tmap_traits@_JUtagAGGRO@@U?$less@_J@std@@V?$allocator@U?$pair@$$CB_JUtagAGGRO@@@std@@@3@$0A@@std@@SAAB_JABU?$pair@$$CB_JUtagAGGRO@@@2@@Z
_TEXT	SEGMENT PARA USE32 PUBLIC 'CODE'
_TEXT	ENDS
;	COMDAT ??0const_iterator@?$_Tree@V?$_Tmap_traits@_JUtagAGGRO@@U?$less@_J@std@@V?$allocator@U?$pair@$$CB_JUtagAGGRO@@@std@@@3@$0A@@std@@@std@@QAE@PAU_Node@?$_Tree_nod@V?$_Tmap_traits@_JUtagAGGRO@@U?$less@_J@std@@V?$allocator@U?$pair@$$CB_JUtagAGGRO@@@std@@@3@$0A@@std@@@2@@Z
_TEXT	SEGMENT PARA USE32 PUBLIC 'CODE'
_TEXT	ENDS
;	COMDAT ??0iterator@?$vector@PAVCTMonster@@V?$allocator@PAVCTMonster@@@std@@@std@@QAE@PAPAVCTMonster@@@Z
_TEXT	SEGMENT PARA USE32 PUBLIC 'CODE'
_TEXT	ENDS
;	COMDAT ??Ziterator@?$vector@PAVCTMonster@@V?$allocator@PAVCTMonster@@@std@@@std@@QAEAAV012@H@Z
_TEXT	SEGMENT PARA USE32 PUBLIC 'CODE'
_TEXT	ENDS
;	COMDAT ??Dconst_iterator@?$vector@PAVCTMonster@@V?$allocator@PAVCTMonster@@@std@@@std@@QBEABQAVCTMonster@@XZ
_TEXT	SEGMENT PARA USE32 PUBLIC 'CODE'
_TEXT	ENDS
;	COMDAT ?max_size@?$allocator@PAVCTMonster@@@std@@QBEIXZ
_TEXT	SEGMENT PARA USE32 PUBLIC 'CODE'
_TEXT	ENDS
;	COMDAT ?_Isnil@?$_Tree@V?$_Tmap_traits@_JUtagAGGRO@@U?$less@_J@std@@V?$allocator@U?$pair@$$CB_JUtagAGGRO@@@std@@@3@$0A@@std@@@std@@KAAADPAU_Node@?$_Tree_nod@V?$_Tmap_traits@_JUtagAGGRO@@U?$less@_J@std@@V?$allocator@U?$pair@$$CB_JUtagAGGRO@@@std@@@3@$0A@@std@@@2@@Z
_TEXT	SEGMENT PARA USE32 PUBLIC 'CODE'
_TEXT	ENDS
;	COMDAT ?_Left@?$_Tree@V?$_Tmap_traits@_JUtagAGGRO@@U?$less@_J@std@@V?$allocator@U?$pair@$$CB_JUtagAGGRO@@@std@@@3@$0A@@std@@@std@@KAAAPAU_Node@?$_Tree_nod@V?$_Tmap_traits@_JUtagAGGRO@@U?$less@_J@std@@V?$allocator@U?$pair@$$CB_JUtagAGGRO@@@std@@@3@$0A@@std@@@2@PAU342@@Z
_TEXT	SEGMENT PARA USE32 PUBLIC 'CODE'
_TEXT	ENDS
;	COMDAT ?_Right@?$_Tree@V?$_Tmap_traits@_JUtagAGGRO@@U?$less@_J@std@@V?$allocator@U?$pair@$$CB_JUtagAGGRO@@@std@@@3@$0A@@std@@@std@@KAAAPAU_Node@?$_Tree_nod@V?$_Tmap_traits@_JUtagAGGRO@@U?$less@_J@std@@V?$allocator@U?$pair@$$CB_JUtagAGGRO@@@std@@@3@$0A@@std@@@2@PAU342@@Z
_TEXT	SEGMENT PARA USE32 PUBLIC 'CODE'
_TEXT	ENDS
;	COMDAT ?_Root@?$_Tree@V?$_Tmap_traits@_JUtagAGGRO@@U?$less@_J@std@@V?$allocator@U?$pair@$$CB_JUtagAGGRO@@@std@@@3@$0A@@std@@@std@@IBEAAPAU_Node@?$_Tree_nod@V?$_Tmap_traits@_JUtagAGGRO@@U?$less@_J@std@@V?$allocator@U?$pair@$$CB_JUtagAGGRO@@@std@@@3@$0A@@std@@@2@XZ
_TEXT	SEGMENT PARA USE32 PUBLIC 'CODE'
_TEXT	ENDS
;	COMDAT ??Yiterator@?$vector@PAVCTMonster@@V?$allocator@PAVCTMonster@@@std@@@std@@QAEAAV012@H@Z
_TEXT	SEGMENT PARA USE32 PUBLIC 'CODE'
_TEXT	ENDS
;	COMDAT ??0const_iterator@?$vector@PAVCTMonster@@V?$allocator@PAVCTMonster@@@std@@@std@@QAE@PAPAVCTMonster@@@Z
_TEXT	SEGMENT PARA USE32 PUBLIC 'CODE'
_TEXT	ENDS
;	COMDAT ?_Parent@?$_Tree@V?$_Tmap_traits@_JUtagAGGRO@@U?$less@_J@std@@V?$allocator@U?$pair@$$CB_JUtagAGGRO@@@std@@@3@$0A@@std@@@std@@KAAAPAU_Node@?$_Tree_nod@V?$_Tmap_traits@_JUtagAGGRO@@U?$less@_J@std@@V?$allocator@U?$pair@$$CB_JUtagAGGRO@@@std@@@3@$0A@@std@@@2@PAU342@@Z
_TEXT	SEGMENT PARA USE32 PUBLIC 'CODE'
_TEXT	ENDS
;	COMDAT ?Unlock@?$CComCritSecLock@VCComCriticalSection@ATL@@@ATL@@QAEXXZ
_TEXT	SEGMENT PARA USE32 PUBLIC 'CODE'
_TEXT	ENDS
;	COMDAT ??$_Uninit_fill_n@GIG@std@@YAXPAGIABGAAV?$allocator@G@0@U_Scalar_ptr_iterator_tag@0@@Z
_TEXT	SEGMENT PARA USE32 PUBLIC 'CODE'
_TEXT	ENDS
;	COMDAT ??$_Ptr_cat@UtagTAICONDITION@@@std@@YA?AU_Scalar_ptr_iterator_tag@0@PAPAUtagTAICONDITION@@0@Z
_TEXT	SEGMENT PARA USE32 PUBLIC 'CODE'
_TEXT	ENDS
;	COMDAT ??$_Destroy_range@PAUtagTAICONDITION@@V?$allocator@PAUtagTAICONDITION@@@std@@@std@@YAXPAPAUtagTAICONDITION@@0AAV?$allocator@PAUtagTAICONDITION@@@0@U_Scalar_ptr_iterator_tag@0@@Z
_TEXT	SEGMENT PARA USE32 PUBLIC 'CODE'
_TEXT	ENDS
;	COMDAT ??$_Ptr_cat@UtagTMONITEM@@@std@@YA?AU_Scalar_ptr_iterator_tag@0@PAPAUtagTMONITEM@@0@Z
_TEXT	SEGMENT PARA USE32 PUBLIC 'CODE'
_TEXT	ENDS
;	COMDAT ??$_Destroy_range@PAUtagTMONITEM@@V?$allocator@PAUtagTMONITEM@@@std@@@std@@YAXPAPAUtagTMONITEM@@0AAV?$allocator@PAUtagTMONITEM@@@0@U_Scalar_ptr_iterator_tag@0@@Z
_TEXT	SEGMENT PARA USE32 PUBLIC 'CODE'
_TEXT	ENDS
;	COMDAT ??$_Ptr_cat@UtagTMAPMON@@@std@@YA?AU_Scalar_ptr_iterator_tag@0@PAPAUtagTMAPMON@@0@Z
_TEXT	SEGMENT PARA USE32 PUBLIC 'CODE'
_TEXT	ENDS
;	COMDAT ??$_Destroy_range@PAUtagTMAPMON@@V?$allocator@PAUtagTMAPMON@@@std@@@std@@YAXPAPAUtagTMAPMON@@0AAV?$allocator@PAUtagTMAPMON@@@0@U_Scalar_ptr_iterator_tag@0@@Z
_TEXT	SEGMENT PARA USE32 PUBLIC 'CODE'
_TEXT	ENDS
;	COMDAT ??$_Ptr_cat@UtagPATHPOINT@@@std@@YA?AU_Scalar_ptr_iterator_tag@0@PAPAUtagPATHPOINT@@0@Z
_TEXT	SEGMENT PARA USE32 PUBLIC 'CODE'
_TEXT	ENDS
;	COMDAT ??$_Destroy_range@PAUtagPATHPOINT@@V?$allocator@PAUtagPATHPOINT@@@std@@@std@@YAXPAPAUtagPATHPOINT@@0AAV?$allocator@PAUtagPATHPOINT@@@0@U_Scalar_ptr_iterator_tag@0@@Z
_TEXT	SEGMENT PARA USE32 PUBLIC 'CODE'
_TEXT	ENDS
;	COMDAT ??$_Ptr_cat@UtagQUESTCONDITION@@@std@@YA?AU_Scalar_ptr_iterator_tag@0@PAPAUtagQUESTCONDITION@@0@Z
_TEXT	SEGMENT PARA USE32 PUBLIC 'CODE'
_TEXT	ENDS
;	COMDAT ??$_Destroy_range@PAUtagQUESTCONDITION@@V?$allocator@PAUtagQUESTCONDITION@@@std@@@std@@YAXPAPAUtagQUESTCONDITION@@0AAV?$allocator@PAUtagQUESTCONDITION@@@0@U_Scalar_ptr_iterator_tag@0@@Z
_TEXT	SEGMENT PARA USE32 PUBLIC 'CODE'
_TEXT	ENDS
;	COMDAT ??$_Ptr_cat@UtagQUESTREWARD@@@std@@YA?AU_Scalar_ptr_iterator_tag@0@PAPAUtagQUESTREWARD@@0@Z
_TEXT	SEGMENT PARA USE32 PUBLIC 'CODE'
_TEXT	ENDS
;	COMDAT ??$_Destroy_range@PAUtagQUESTREWARD@@V?$allocator@PAUtagQUESTREWARD@@@std@@@std@@YAXPAPAUtagQUESTREWARD@@0AAV?$allocator@PAUtagQUESTREWARD@@@0@U_Scalar_ptr_iterator_tag@0@@Z
_TEXT	SEGMENT PARA USE32 PUBLIC 'CODE'
_TEXT	ENDS
;	COMDAT ??$_Ptr_cat@UtagQUESTTERM@@@std@@YA?AU_Scalar_ptr_iterator_tag@0@PAPAUtagQUESTTERM@@0@Z
_TEXT	SEGMENT PARA USE32 PUBLIC 'CODE'
_TEXT	ENDS
;	COMDAT ??$_Destroy_range@PAUtagQUESTTERM@@V?$allocator@PAUtagQUESTTERM@@@std@@@std@@YAXPAPAUtagQUESTTERM@@0AAV?$allocator@PAUtagQUESTTERM@@@0@U_Scalar_ptr_iterator_tag@0@@Z
_TEXT	SEGMENT PARA USE32 PUBLIC 'CODE'
_TEXT	ENDS
;	COMDAT ??$_Ptr_cat@PAUtagTCASHITMSALE@@PAU1@@std@@YA?AU_Nonscalar_ptr_iterator_tag@0@AAPAUtagTCASHITMSALE@@0@Z
_TEXT	SEGMENT PARA USE32 PUBLIC 'CODE'
_TEXT	ENDS
;	COMDAT ??$_Uninit_fill_n@PAUtagTCASHITMSALE@@IU1@V?$allocator@UtagTCASHITMSALE@@@std@@@std@@YAXPAUtagTCASHITMSALE@@IABU1@AAV?$allocator@UtagTCASHITMSALE@@@0@U_Nonscalar_ptr_iterator_tag@0@@Z
_TEXT	SEGMENT PARA USE32 PUBLIC 'CODE'
_TEXT	ENDS
;	COMDAT ??$_Ptr_cat@PAUtagMONREGEN@@PAU1@@std@@YA?AU_Nonscalar_ptr_iterator_tag@0@AAPAUtagMONREGEN@@0@Z
_TEXT	SEGMENT PARA USE32 PUBLIC 'CODE'
_TEXT	ENDS
;	COMDAT ??$_Uninit_fill_n@PAUtagMONREGEN@@IU1@V?$allocator@UtagMONREGEN@@@std@@@std@@YAXPAUtagMONREGEN@@IABU1@AAV?$allocator@UtagMONREGEN@@@0@U_Nonscalar_ptr_iterator_tag@0@@Z
_TEXT	SEGMENT PARA USE32 PUBLIC 'CODE'
_TEXT	ENDS
;	COMDAT ??$_Ptr_cat@PAUtagLOTTERY@@PAU1@@std@@YA?AU_Nonscalar_ptr_iterator_tag@0@AAPAUtagLOTTERY@@0@Z
_TEXT	SEGMENT PARA USE32 PUBLIC 'CODE'
_TEXT	ENDS
;	COMDAT ??$_Uninit_fill_n@PAUtagLOTTERY@@IU1@V?$allocator@UtagLOTTERY@@@std@@@std@@YAXPAUtagLOTTERY@@IABU1@AAV?$allocator@UtagLOTTERY@@@0@U_Nonscalar_ptr_iterator_tag@0@@Z
_TEXT	SEGMENT PARA USE32 PUBLIC 'CODE'
_TEXT	ENDS
;	COMDAT ??$_Destroy_range@GV?$allocator@G@std@@@std@@YAXPAG0AAV?$allocator@G@0@U_Scalar_ptr_iterator_tag@0@@Z
_TEXT	SEGMENT PARA USE32 PUBLIC 'CODE'
_TEXT	ENDS
;	COMDAT ??$_Uninitialized_copy@PAGPAGV?$allocator@G@std@@@std@@YAPAGPAG00AAV?$allocator@G@0@@Z
_TEXT	SEGMENT PARA USE32 PUBLIC 'CODE'
_TEXT	ENDS
;	COMDAT ??$_Copy_backward_opt@PAGPAG@std@@YAPAGPAG00U_Scalar_ptr_iterator_tag@0@@Z
_TEXT	SEGMENT PARA USE32 PUBLIC 'CODE'
_TEXT	ENDS
;	COMDAT ??$_Ptr_cat@VCTPlayer@@@std@@YA?AU_Scalar_ptr_iterator_tag@0@PAPAVCTPlayer@@0@Z
_TEXT	SEGMENT PARA USE32 PUBLIC 'CODE'
_TEXT	ENDS
;	COMDAT ??$_Destroy_range@PAVCTPlayer@@V?$allocator@PAVCTPlayer@@@std@@@std@@YAXPAPAVCTPlayer@@0AAV?$allocator@PAVCTPlayer@@@0@U_Scalar_ptr_iterator_tag@0@@Z
_TEXT	SEGMENT PARA USE32 PUBLIC 'CODE'
_TEXT	ENDS
;	COMDAT ??$_Destroy_range@UtagTCASHITMSALE@@V?$allocator@UtagTCASHITMSALE@@@std@@@std@@YAXPAUtagTCASHITMSALE@@0AAV?$allocator@UtagTCASHITMSALE@@@0@U_Nonscalar_ptr_iterator_tag@0@@Z
_TEXT	SEGMENT PARA USE32 PUBLIC 'CODE'
_TEXT	ENDS
;	COMDAT ??$_Uninitialized_copy@PAUtagTCASHITMSALE@@PAU1@V?$allocator@UtagTCASHITMSALE@@@std@@@std@@YAPAUtagTCASHITMSALE@@PAU1@00AAV?$allocator@UtagTCASHITMSALE@@@0@@Z
_TEXT	SEGMENT PARA USE32 PUBLIC 'CODE'
_TEXT	ENDS
;	COMDAT ??$_Copy_backward_opt@PAUtagTCASHITMSALE@@PAU1@@std@@YAPAUtagTCASHITMSALE@@PAU1@00U_Nonscalar_ptr_iterator_tag@0@@Z
_TEXT	SEGMENT PARA USE32 PUBLIC 'CODE'
_TEXT	ENDS
;	COMDAT ??$_Destroy_range@UtagMONREGEN@@V?$allocator@UtagMONREGEN@@@std@@@std@@YAXPAUtagMONREGEN@@0AAV?$allocator@UtagMONREGEN@@@0@U_Nonscalar_ptr_iterator_tag@0@@Z
_TEXT	SEGMENT PARA USE32 PUBLIC 'CODE'
_TEXT	ENDS
;	COMDAT ??$_Uninitialized_copy@PAUtagMONREGEN@@PAU1@V?$allocator@UtagMONREGEN@@@std@@@std@@YAPAUtagMONREGEN@@PAU1@00AAV?$allocator@UtagMONREGEN@@@0@@Z
_TEXT	SEGMENT PARA USE32 PUBLIC 'CODE'
_TEXT	ENDS
;	COMDAT ??$_Copy_backward_opt@PAUtagMONREGEN@@PAU1@@std@@YAPAUtagMONREGEN@@PAU1@00U_Nonscalar_ptr_iterator_tag@0@@Z
_TEXT	SEGMENT PARA USE32 PUBLIC 'CODE'
_TEXT	ENDS
;	COMDAT ??$_Destroy_range@UtagLOTTERY@@V?$allocator@UtagLOTTERY@@@std@@@std@@YAXPAUtagLOTTERY@@0AAV?$allocator@UtagLOTTERY@@@0@U_Nonscalar_ptr_iterator_tag@0@@Z
_TEXT	SEGMENT PARA USE32 PUBLIC 'CODE'
_TEXT	ENDS
;	COMDAT ??$_Uninitialized_copy@PAUtagLOTTERY@@PAU1@V?$allocator@UtagLOTTERY@@@std@@@std@@YAPAUtagLOTTERY@@PAU1@00AAV?$allocator@UtagLOTTERY@@@0@@Z
_TEXT	SEGMENT PARA USE32 PUBLIC 'CODE'
_TEXT	ENDS
;	COMDAT ??$_Copy_backward_opt@PAUtagLOTTERY@@PAU1@@std@@YAPAUtagLOTTERY@@PAU1@00U_Nonscalar_ptr_iterator_tag@0@@Z
_TEXT	SEGMENT PARA USE32 PUBLIC 'CODE'
_TEXT	ENDS
;	COMDAT ??$_Destroy_range@PAVCTMonster@@V?$allocator@PAVCTMonster@@@std@@@std@@YAXPAPAVCTMonster@@0AAV?$allocator@PAVCTMonster@@@0@@Z
_TEXT	SEGMENT PARA USE32 PUBLIC 'CODE'
_TEXT	ENDS
;	COMDAT ??$_Allocate@PAVCTMonster@@@std@@YAPAPAVCTMonster@@IPAPAV1@@Z
_TEXT	SEGMENT PARA USE32 PUBLIC 'CODE'
_TEXT	ENDS
;	COMDAT ?construct@?$allocator@UtagTCASHITMSALE@@@std@@QAEXPAUtagTCASHITMSALE@@ABU3@@Z
_TEXT	SEGMENT PARA USE32 PUBLIC 'CODE'
_TEXT	ENDS
;	COMDAT ?destroy@?$allocator@UtagTCASHITMSALE@@@std@@QAEXPAUtagTCASHITMSALE@@@Z
_TEXT	SEGMENT PARA USE32 PUBLIC 'CODE'
_TEXT	ENDS
;	COMDAT ?construct@?$allocator@UtagMONREGEN@@@std@@QAEXPAUtagMONREGEN@@ABU3@@Z
_TEXT	SEGMENT PARA USE32 PUBLIC 'CODE'
_TEXT	ENDS
;	COMDAT ?destroy@?$allocator@UtagMONREGEN@@@std@@QAEXPAUtagMONREGEN@@@Z
_TEXT	SEGMENT PARA USE32 PUBLIC 'CODE'
_TEXT	ENDS
;	COMDAT ?construct@?$allocator@UtagLOTTERY@@@std@@QAEXPAUtagLOTTERY@@ABU3@@Z
_TEXT	SEGMENT PARA USE32 PUBLIC 'CODE'
_TEXT	ENDS
;	COMDAT ?destroy@?$allocator@UtagLOTTERY@@@std@@QAEXPAUtagLOTTERY@@@Z
_TEXT	SEGMENT PARA USE32 PUBLIC 'CODE'
_TEXT	ENDS
;	COMDAT ??$fill_n@PAGIG@std@@YAXPAGIABG@Z
_TEXT	SEGMENT PARA USE32 PUBLIC 'CODE'
_TEXT	ENDS
;	COMDAT ??$_Uninit_copy@GG@std@@YAPAGPAG00AAV?$allocator@G@0@U_Scalar_ptr_iterator_tag@0@@Z
_TEXT	SEGMENT PARA USE32 PUBLIC 'CODE'
_TEXT	ENDS
;	COMDAT ??$_Uninit_copy@PAUtagTCASHITMSALE@@PAU1@V?$allocator@UtagTCASHITMSALE@@@std@@@std@@YAPAUtagTCASHITMSALE@@PAU1@00AAV?$allocator@UtagTCASHITMSALE@@@0@U_Nonscalar_ptr_iterator_tag@0@@Z
_TEXT	SEGMENT PARA USE32 PUBLIC 'CODE'
_TEXT	ENDS
;	COMDAT ??$_Uninit_copy@PAUtagMONREGEN@@PAU1@V?$allocator@UtagMONREGEN@@@std@@@std@@YAPAUtagMONREGEN@@PAU1@00AAV?$allocator@UtagMONREGEN@@@0@U_Nonscalar_ptr_iterator_tag@0@@Z
_TEXT	SEGMENT PARA USE32 PUBLIC 'CODE'
_TEXT	ENDS
;	COMDAT ??$_Uninit_copy@PAUtagLOTTERY@@PAU1@V?$allocator@UtagLOTTERY@@@std@@@std@@YAPAUtagLOTTERY@@PAU1@00AAV?$allocator@UtagLOTTERY@@@0@U_Nonscalar_ptr_iterator_tag@0@@Z
_TEXT	SEGMENT PARA USE32 PUBLIC 'CODE'
_TEXT	ENDS
;	COMDAT ??$_Ptr_cat@VCTMonster@@@std@@YA?AU_Scalar_ptr_iterator_tag@0@PAPAVCTMonster@@0@Z
_TEXT	SEGMENT PARA USE32 PUBLIC 'CODE'
_TEXT	ENDS
;	COMDAT ??$_Destroy_range@PAVCTMonster@@V?$allocator@PAVCTMonster@@@std@@@std@@YAXPAPAVCTMonster@@0AAV?$allocator@PAVCTMonster@@@0@U_Scalar_ptr_iterator_tag@0@@Z
_TEXT	SEGMENT PARA USE32 PUBLIC 'CODE'
_TEXT	ENDS
;	COMDAT ??$_Construct@UtagTCASHITMSALE@@U1@@std@@YAXPAUtagTCASHITMSALE@@ABU1@@Z
_TEXT	SEGMENT PARA USE32 PUBLIC 'CODE'
_TEXT	ENDS
;	COMDAT ??$_Destroy@UtagTCASHITMSALE@@@std@@YAXPAUtagTCASHITMSALE@@@Z
_TEXT	SEGMENT PARA USE32 PUBLIC 'CODE'
_TEXT	ENDS
;	COMDAT ??$_Construct@UtagMONREGEN@@U1@@std@@YAXPAUtagMONREGEN@@ABU1@@Z
_TEXT	SEGMENT PARA USE32 PUBLIC 'CODE'
_TEXT	ENDS
;	COMDAT ??$_Destroy@UtagMONREGEN@@@std@@YAXPAUtagMONREGEN@@@Z
_TEXT	SEGMENT PARA USE32 PUBLIC 'CODE'
_TEXT	ENDS
;	COMDAT ??$_Construct@UtagLOTTERY@@U1@@std@@YAXPAUtagLOTTERY@@ABU1@@Z
_TEXT	SEGMENT PARA USE32 PUBLIC 'CODE'
_TEXT	ENDS
;	COMDAT ??$_Destroy@UtagLOTTERY@@@std@@YAXPAUtagLOTTERY@@@Z
_TEXT	SEGMENT PARA USE32 PUBLIC 'CODE'
_TEXT	ENDS
;	COMDAT ??2@YAPAXIPAX@Z
_TEXT	SEGMENT PARA USE32 PUBLIC 'CODE'
_TEXT	ENDS
;	COMDAT ?_Ptr_cat@std@@YA?AU_Scalar_ptr_iterator_tag@1@PAG0@Z
_TEXT	SEGMENT PARA USE32 PUBLIC 'CODE'
_TEXT	ENDS
;	COMDAT ?_Psave@?$_Facetptr@V?$ctype@G@std@@@std@@2PBVfacet@locale@2@B
_DATA	SEGMENT DWORD USE32 PUBLIC 'DATA'
_DATA	ENDS
;	COMDAT ?_Psave@?$_Facetptr@V?$ctype@D@std@@@std@@2PBVfacet@locale@2@B
_DATA	SEGMENT DWORD USE32 PUBLIC 'DATA'
_DATA	ENDS
;	COMDAT ?Unlock@CComCriticalSection@ATL@@QAEJXZ
_TEXT	SEGMENT PARA USE32 PUBLIC 'CODE'
_TEXT	ENDS
;	COMDAT __TI3?AVlength_error@std@@
xdata$x	SEGMENT DWORD USE32 PUBLIC 'CONST'
xdata$x	ENDS
;	COMDAT ??1length_error@std@@UAE@XZ
_TEXT	SEGMENT PARA USE32 PUBLIC 'CODE'
_TEXT	ENDS
;	COMDAT ??_7length_error@std@@6B@
CONST	SEGMENT DWORD USE32 PUBLIC 'CONST'
CONST	ENDS
;	COMDAT ??_Glength_error@std@@UAEPAXI@Z
_TEXT	SEGMENT PARA USE32 PUBLIC 'CODE'
_TEXT	ENDS
;	COMDAT ?what@logic_error@std@@UBEPBDXZ
_TEXT	SEGMENT PARA USE32 PUBLIC 'CODE'
_TEXT	ENDS
;	COMDAT ?c_str@?$basic_string@DU?$char_traits@D@std@@V?$allocator@D@2@@std@@QBEPBDXZ
_TEXT	SEGMENT PARA USE32 PUBLIC 'CODE'
_TEXT	ENDS
;	COMDAT ?_Myptr@?$basic_string@DU?$char_traits@D@std@@V?$allocator@D@2@@std@@QBEPBDXZ
_TEXT	SEGMENT PARA USE32 PUBLIC 'CODE'
_TEXT	ENDS
;	COMDAT ??1logic_error@std@@UAE@XZ
_TEXT	SEGMENT PARA USE32 PUBLIC 'CODE'
_TEXT	ENDS
;	COMDAT ??_7logic_error@std@@6B@
CONST	SEGMENT DWORD USE32 PUBLIC 'CONST'
CONST	ENDS
;	COMDAT ??_Glogic_error@std@@UAEPAXI@Z
_TEXT	SEGMENT PARA USE32 PUBLIC 'CODE'
_TEXT	ENDS
;	COMDAT __CTA3?AVlength_error@std@@
xdata$x	SEGMENT DWORD USE32 PUBLIC 'CONST'
xdata$x	ENDS
;	COMDAT __CT??_R0?AVlength_error@std@@@8??0length_error@std@@QAE@ABV01@@Z40
xdata$x	SEGMENT DWORD USE32 PUBLIC 'CONST'
xdata$x	ENDS
;	COMDAT ??_R0?AVlength_error@std@@@8
_DATA	SEGMENT DWORD USE32 PUBLIC 'DATA'
_DATA	ENDS
;	COMDAT ??0length_error@std@@QAE@ABV01@@Z
_TEXT	SEGMENT PARA USE32 PUBLIC 'CODE'
_TEXT	ENDS
;	COMDAT ??0logic_error@std@@QAE@ABV01@@Z
_TEXT	SEGMENT PARA USE32 PUBLIC 'CODE'
_TEXT	ENDS
;	COMDAT ??0?$basic_string@DU?$char_traits@D@std@@V?$allocator@D@2@@std@@QAE@ABV01@@Z
_TEXT	SEGMENT PARA USE32 PUBLIC 'CODE'
_TEXT	ENDS
;	COMDAT ??0?$_String_val@DV?$allocator@D@std@@@std@@IAE@V?$allocator@D@1@@Z
_TEXT	SEGMENT PARA USE32 PUBLIC 'CODE'
_TEXT	ENDS
;	COMDAT ??0?$allocator@D@std@@QAE@ABV01@@Z
_TEXT	SEGMENT PARA USE32 PUBLIC 'CODE'
_TEXT	ENDS
;	COMDAT ?_Tidy@?$basic_string@DU?$char_traits@D@std@@V?$allocator@D@2@@std@@IAEX_NI@Z
_TEXT	SEGMENT PARA USE32 PUBLIC 'CODE'
_TEXT	ENDS
;	COMDAT ?copy@?$char_traits@D@std@@SAPADPADPBDI@Z
_TEXT	SEGMENT PARA USE32 PUBLIC 'CODE'
_TEXT	ENDS
;	COMDAT ?deallocate@?$allocator@D@std@@QAEXPADI@Z
_TEXT	SEGMENT PARA USE32 PUBLIC 'CODE'
_TEXT	ENDS
;	COMDAT ?_Eos@?$basic_string@DU?$char_traits@D@std@@V?$allocator@D@2@@std@@IAEXI@Z
_TEXT	SEGMENT PARA USE32 PUBLIC 'CODE'
_TEXT	ENDS
;	COMDAT ?assign@?$char_traits@D@std@@SAXAADABD@Z
_TEXT	SEGMENT PARA USE32 PUBLIC 'CODE'
_TEXT	ENDS
;	COMDAT ?_Myptr@?$basic_string@DU?$char_traits@D@std@@V?$allocator@D@2@@std@@QAEPADXZ
_TEXT	SEGMENT PARA USE32 PUBLIC 'CODE'
_TEXT	ENDS
;	COMDAT ?assign@?$basic_string@DU?$char_traits@D@std@@V?$allocator@D@2@@std@@QAEAAV12@ABV12@II@Z
_TEXT	SEGMENT PARA USE32 PUBLIC 'CODE'
_TEXT	ENDS
;	COMDAT ?size@?$basic_string@DU?$char_traits@D@std@@V?$allocator@D@2@@std@@QBEIXZ
_TEXT	SEGMENT PARA USE32 PUBLIC 'CODE'
_TEXT	ENDS
;	COMDAT ?erase@?$basic_string@DU?$char_traits@D@std@@V?$allocator@D@2@@std@@QAEAAV12@II@Z
_TEXT	SEGMENT PARA USE32 PUBLIC 'CODE'
_TEXT	ENDS
;	COMDAT ?move@?$char_traits@D@std@@SAPADPADPBDI@Z
_TEXT	SEGMENT PARA USE32 PUBLIC 'CODE'
_TEXT	ENDS
;	COMDAT ?_Grow@?$basic_string@DU?$char_traits@D@std@@V?$allocator@D@2@@std@@IAE_NI_N@Z
_TEXT	SEGMENT PARA USE32 PUBLIC 'CODE'
_TEXT	ENDS
;	COMDAT ?max_size@?$basic_string@DU?$char_traits@D@std@@V?$allocator@D@2@@std@@QBEIXZ
_TEXT	SEGMENT PARA USE32 PUBLIC 'CODE'
_TEXT	ENDS
;	COMDAT ?max_size@?$allocator@D@std@@QBEIXZ
_TEXT	SEGMENT PARA USE32 PUBLIC 'CODE'
_TEXT	ENDS
;	COMDAT ?_Copy@?$basic_string@DU?$char_traits@D@std@@V?$allocator@D@2@@std@@IAEXII@Z
_TEXT	SEGMENT PARA USE32 PUBLIC 'CODE'
_TEXT	ENDS
;	COMDAT ?allocate@?$allocator@D@std@@QAEPADI@Z
_TEXT	SEGMENT PARA USE32 PUBLIC 'CODE'
_TEXT	ENDS
;	COMDAT ??$_Allocate@D@std@@YAPADIPAD@Z
_TEXT	SEGMENT PARA USE32 PUBLIC 'CODE'
_TEXT	ENDS
;	COMDAT ?npos@?$basic_string@DU?$char_traits@D@std@@V?$allocator@D@2@@std@@2IB
CONST	SEGMENT DWORD USE32 PUBLIC 'CONST'
CONST	ENDS
;	COMDAT __CT??_R0?AVlogic_error@std@@@8??0logic_error@std@@QAE@ABV01@@Z40
xdata$x	SEGMENT DWORD USE32 PUBLIC 'CONST'
xdata$x	ENDS
;	COMDAT ??_R0?AVlogic_error@std@@@8
_DATA	SEGMENT DWORD USE32 PUBLIC 'DATA'
_DATA	ENDS
;	COMDAT __CT??_R0?AVexception@@@8??0exception@@QAE@ABV0@@Z12
xdata$x	SEGMENT DWORD USE32 PUBLIC 'CONST'
xdata$x	ENDS
;	COMDAT ??_R0?AVexception@@@8
_DATA	SEGMENT DWORD USE32 PUBLIC 'DATA'
_DATA	ENDS
;	COMDAT ??1?$basic_string@DU?$char_traits@D@std@@V?$allocator@D@2@@std@@QAE@XZ
_TEXT	SEGMENT PARA USE32 PUBLIC 'CODE'
_TEXT	ENDS
;	COMDAT ??_C@_0BD@OLBABOEK@vector?$DMT?$DO?5too?5long?$AA@
CONST	SEGMENT DWORD USE32 PUBLIC 'CONST'
CONST	ENDS
;	COMDAT ??0?$basic_string@DU?$char_traits@D@std@@V?$allocator@D@2@@std@@QAE@PBD@Z
_TEXT	SEGMENT PARA USE32 PUBLIC 'CODE'
_TEXT	ENDS
;	COMDAT ??0?$allocator@D@std@@QAE@XZ
_TEXT	SEGMENT PARA USE32 PUBLIC 'CODE'
_TEXT	ENDS
;	COMDAT ?assign@?$basic_string@DU?$char_traits@D@std@@V?$allocator@D@2@@std@@QAEAAV12@PBD@Z
_TEXT	SEGMENT PARA USE32 PUBLIC 'CODE'
_TEXT	ENDS
;	COMDAT ?assign@?$basic_string@DU?$char_traits@D@std@@V?$allocator@D@2@@std@@QAEAAV12@PBDI@Z
_TEXT	SEGMENT PARA USE32 PUBLIC 'CODE'
_TEXT	ENDS
;	COMDAT ?_Inside@?$basic_string@DU?$char_traits@D@std@@V?$allocator@D@2@@std@@IAE_NPBD@Z
_TEXT	SEGMENT PARA USE32 PUBLIC 'CODE'
_TEXT	ENDS
;	COMDAT ?length@?$char_traits@D@std@@SAIPBD@Z
_TEXT	SEGMENT PARA USE32 PUBLIC 'CODE'
_TEXT	ENDS
;	COMDAT ??0length_error@std@@QAE@ABV?$basic_string@DU?$char_traits@D@std@@V?$allocator@D@2@@1@@Z
_TEXT	SEGMENT PARA USE32 PUBLIC 'CODE'
_TEXT	ENDS
;	COMDAT ??0logic_error@std@@QAE@ABV?$basic_string@DU?$char_traits@D@std@@V?$allocator@D@2@@1@@Z
_TEXT	SEGMENT PARA USE32 PUBLIC 'CODE'
_TEXT	ENDS
;	COMDAT ??_C@_00CNPNBAHC@?$AA@
CONST	SEGMENT DWORD USE32 PUBLIC 'CONST'
CONST	ENDS
;	COMDAT ??4?$CStringT@DV?$StrTraitATL@DV?$ChTraitsCRT@D@ATL@@@ATL@@@ATL@@QAEAAV01@PBD@Z
_TEXT	SEGMENT PARA USE32 PUBLIC 'CODE'
_TEXT	ENDS
;	COMDAT ??4?$CSimpleStringT@D$0A@@ATL@@QAEAAV01@PBD@Z
_TEXT	SEGMENT PARA USE32 PUBLIC 'CODE'
_TEXT	ENDS
;	COMDAT ?SetString@?$CSimpleStringT@D$0A@@ATL@@QAEXPBD@Z
_TEXT	SEGMENT PARA USE32 PUBLIC 'CODE'
_TEXT	ENDS
;	COMDAT ?SetString@?$CSimpleStringT@D$0A@@ATL@@QAEXPBDH@Z
_TEXT	SEGMENT PARA USE32 PUBLIC 'CODE'
_TEXT	ENDS
;	COMDAT ?Empty@?$CSimpleStringT@D$0A@@ATL@@QAEXXZ
_TEXT	SEGMENT PARA USE32 PUBLIC 'CODE'
_TEXT	ENDS
;	COMDAT ?GetData@?$CSimpleStringT@D$0A@@ATL@@ABEPAUCStringData@2@XZ
_TEXT	SEGMENT PARA USE32 PUBLIC 'CODE'
_TEXT	ENDS
;	COMDAT ?IsLocked@CStringData@ATL@@QBE_NXZ
_TEXT	SEGMENT PARA USE32 PUBLIC 'CODE'
_TEXT	ENDS
;	COMDAT ?SetLength@?$CSimpleStringT@D$0A@@ATL@@AAEXH@Z
_TEXT	SEGMENT PARA USE32 PUBLIC 'CODE'
_TEXT	ENDS
;	COMDAT ?Release@CStringData@ATL@@QAEXXZ
_TEXT	SEGMENT PARA USE32 PUBLIC 'CODE'
_TEXT	ENDS
;	COMDAT ?Attach@?$CSimpleStringT@D$0A@@ATL@@AAEXPAUCStringData@2@@Z
_TEXT	SEGMENT PARA USE32 PUBLIC 'CODE'
_TEXT	ENDS
;	COMDAT ?data@CStringData@ATL@@QAEPAXXZ
_TEXT	SEGMENT PARA USE32 PUBLIC 'CODE'
_TEXT	ENDS
;	COMDAT ?AtlThrow@ATL@@YGXJ@Z
_TEXT	SEGMENT PARA USE32 PUBLIC 'CODE'
_TEXT	ENDS
;	COMDAT ??0CAtlException@ATL@@QAE@J@Z
_TEXT	SEGMENT PARA USE32 PUBLIC 'CODE'
_TEXT	ENDS
;	COMDAT __TI1?AVCAtlException@ATL@@
xdata$x	SEGMENT DWORD USE32 PUBLIC 'CONST'
xdata$x	ENDS
;	COMDAT __CTA1?AVCAtlException@ATL@@
xdata$x	SEGMENT DWORD USE32 PUBLIC 'CONST'
xdata$x	ENDS
;	COMDAT __CT??_R0?AVCAtlException@ATL@@@84
xdata$x	SEGMENT DWORD USE32 PUBLIC 'CONST'
xdata$x	ENDS
;	COMDAT ??_R0?AVCAtlException@ATL@@@8
_DATA	SEGMENT DWORD USE32 PUBLIC 'DATA'
_DATA	ENDS
;	COMDAT ?GetLength@?$CSimpleStringT@D$0A@@ATL@@QBEHXZ
_TEXT	SEGMENT PARA USE32 PUBLIC 'CODE'
_TEXT	ENDS
;	COMDAT ?GetString@?$CSimpleStringT@D$0A@@ATL@@QBEPBDXZ
_TEXT	SEGMENT PARA USE32 PUBLIC 'CODE'
_TEXT	ENDS
;	COMDAT ?GetBuffer@?$CSimpleStringT@D$0A@@ATL@@QAEPADH@Z
_TEXT	SEGMENT PARA USE32 PUBLIC 'CODE'
_TEXT	ENDS
;	COMDAT ?PrepareWrite@?$CSimpleStringT@D$0A@@ATL@@AAEPADH@Z
_TEXT	SEGMENT PARA USE32 PUBLIC 'CODE'
_TEXT	ENDS
;	COMDAT ?PrepareWrite2@?$CSimpleStringT@D$0A@@ATL@@AAEXH@Z
_TEXT	SEGMENT PARA USE32 PUBLIC 'CODE'
_TEXT	ENDS
;	COMDAT ?IsShared@CStringData@ATL@@QBE_NXZ
_TEXT	SEGMENT PARA USE32 PUBLIC 'CODE'
_TEXT	ENDS
;	COMDAT ?Fork@?$CSimpleStringT@D$0A@@ATL@@AAEXH@Z
_TEXT	SEGMENT PARA USE32 PUBLIC 'CODE'
_TEXT	ENDS
;	COMDAT ?ThrowMemoryException@?$CSimpleStringT@D$0A@@ATL@@KAXXZ
_TEXT	SEGMENT PARA USE32 PUBLIC 'CODE'
_TEXT	ENDS
;	COMDAT ?Reallocate@?$CSimpleStringT@D$0A@@ATL@@AAEXH@Z
_TEXT	SEGMENT PARA USE32 PUBLIC 'CODE'
_TEXT	ENDS
;	COMDAT ?CopyCharsOverlapped@?$CSimpleStringT@D$0A@@ATL@@SAXPADPBDH@Z
_TEXT	SEGMENT PARA USE32 PUBLIC 'CODE'
_TEXT	ENDS
;	COMDAT ?CopyChars@?$CSimpleStringT@D$0A@@ATL@@SAXPADPBDH@Z
_TEXT	SEGMENT PARA USE32 PUBLIC 'CODE'
_TEXT	ENDS
;	COMDAT ?ReleaseBufferSetLength@?$CSimpleStringT@D$0A@@ATL@@QAEXH@Z
_TEXT	SEGMENT PARA USE32 PUBLIC 'CODE'
_TEXT	ENDS
;	COMDAT ?StringLength@?$CSimpleStringT@D$0A@@ATL@@SAHPBD@Z
_TEXT	SEGMENT PARA USE32 PUBLIC 'CODE'
_TEXT	ENDS
;	COMDAT ??1?$CStringT@DV?$StrTraitATL@DV?$ChTraitsCRT@D@ATL@@@ATL@@@ATL@@QAE@XZ
_TEXT	SEGMENT PARA USE32 PUBLIC 'CODE'
_TEXT	ENDS
;	COMDAT ??1?$CSimpleStringT@D$0A@@ATL@@QAE@XZ
_TEXT	SEGMENT PARA USE32 PUBLIC 'CODE'
_TEXT	ENDS
;	COMDAT ??0?$CStringT@DV?$StrTraitATL@DV?$ChTraitsCRT@D@ATL@@@ATL@@@ATL@@QAE@XZ
_TEXT	SEGMENT PARA USE32 PUBLIC 'CODE'
_TEXT	ENDS
;	COMDAT ??0?$CSimpleStringT@D$0A@@ATL@@QAE@PAUIAtlStringMgr@1@@Z
_TEXT	SEGMENT PARA USE32 PUBLIC 'CODE'
_TEXT	ENDS
;	COMDAT ?GetDefaultManager@?$StrTraitATL@DV?$ChTraitsCRT@D@ATL@@@ATL@@SAPAUIAtlStringMgr@2@XZ
_TEXT	SEGMENT PARA USE32 PUBLIC 'CODE'
_TEXT	ENDS
;	COMDAT ??_7CTRecallMon@@6B@
CONST	SEGMENT DWORD USE32 PUBLIC 'CONST'
CONST	ENDS
sxdata	SEGMENT DWORD USE32 'SXDATA'
sxdata	ENDS
FLAT	GROUP _DATA, CONST, _BSS
	ASSUME	CS: FLAT, DS: FLAT, SS: FLAT
endif

INCLUDELIB LIBCMT
INCLUDELIB OLDNAMES

PUBLIC	?GetLifeTick@CTRecallMon@@QAEKK@Z		; CTRecallMon::GetLifeTick
; Function compile flags: /Ogty
; File c:\users\pierr\desktop\4story - oldschool\sources\tserver\tmapsvr\trecallmon.cpp
;	COMDAT ?GetLifeTick@CTRecallMon@@QAEKK@Z
_TEXT	SEGMENT
_dwTick$ = 8						; size = 4
?GetLifeTick@CTRecallMon@@QAEKK@Z PROC NEAR		; CTRecallMon::GetLifeTick, COMDAT
; _this$ = ecx

; 23   : 	if(dwTick - m_dwRecallTick >= m_dwDurationTick)

  00000	8b 91 80 01 00
	00		 mov	 edx, DWORD PTR [ecx+384]
  00006	8b 81 84 01 00
	00		 mov	 eax, DWORD PTR [ecx+388]
  0000c	8b 4c 24 04	 mov	 ecx, DWORD PTR _dwTick$[esp-4]
  00010	56		 push	 esi
  00011	8b f1		 mov	 esi, ecx
  00013	2b f2		 sub	 esi, edx
  00015	3b f0		 cmp	 esi, eax
  00017	5e		 pop	 esi
  00018	72 05		 jb	 SHORT $L152241

; 24   : 		return 0;

  0001a	33 c0		 xor	 eax, eax

; 27   : }

  0001c	c2 04 00	 ret	 4
$L152241:

; 25   : 	else
; 26   :         return m_dwDurationTick - (dwTick - m_dwRecallTick);

  0001f	2b c1		 sub	 eax, ecx
  00021	03 c2		 add	 eax, edx

; 27   : }

  00023	c2 04 00	 ret	 4
?GetLifeTick@CTRecallMon@@QAEKK@Z ENDP			; CTRecallMon::GetLifeTick
_TEXT	ENDS
PUBLIC	?Recover@CTRecallMon@@UAEXK@Z			; CTRecallMon::Recover
EXTRN	?Recover@CTObjBase@@UAEXK@Z:NEAR		; CTObjBase::Recover
; Function compile flags: /Ogty
;	COMDAT ?Recover@CTRecallMon@@UAEXK@Z
_TEXT	SEGMENT
_dwTick$ = 8						; size = 4
?Recover@CTRecallMon@@UAEXK@Z PROC NEAR			; CTRecallMon::Recover, COMDAT
; _this$ = ecx

; 31   : 	CTObjBase::Recover(dwTick);

  00000	e9 00 00 00 00	 jmp	 ?Recover@CTObjBase@@UAEXK@Z ; CTObjBase::Recover
?Recover@CTRecallMon@@UAEXK@Z ENDP			; CTRecallMon::Recover
_TEXT	ENDS
PUBLIC	?OnDamage@CTRecallMon@@UAEKKKEEEEGHH@Z		; CTRecallMon::OnDamage
EXTRN	?OnDamage@CTObjBase@@UAEKKKEEEEGHH@Z:NEAR	; CTObjBase::OnDamage
; Function compile flags: /Ogty
;	COMDAT ?OnDamage@CTRecallMon@@UAEKKKEEEEGHH@Z
_TEXT	SEGMENT
_dwHostID$ = 8						; size = 4
_dwAttackID$ = 12					; size = 4
_bAttackType$ = 16					; size = 1
_bAttackCountry$ = 20					; size = 1
_bAttackAidCountry$ = 24				; size = 1
_bAtkCanSelect$ = 28					; size = 1
_wPartyID$ = 32						; size = 2
_nDamageHP$ = 36					; size = 4
_nDamageMP$ = 40					; size = 4
?OnDamage@CTRecallMon@@UAEKKKEEEEGHH@Z PROC NEAR	; CTRecallMon::OnDamage, COMDAT
; _this$ = ecx

; 43   : {

  00000	56		 push	 esi
  00001	8b f1		 mov	 esi, ecx

; 44   : 	if(m_bMode != MT_BATTLE)

  00003	80 7e 76 01	 cmp	 BYTE PTR [esi+118], 1
  00007	74 07		 je	 SHORT $L152259

; 45   : 		ChgMode(MT_BATTLE);

  00009	8b 06		 mov	 eax, DWORD PTR [esi]
  0000b	6a 01		 push	 1
  0000d	ff 50 30	 call	 DWORD PTR [eax+48]
$L152259:

; 46   : 
; 47   : 	return CTObjBase::OnDamage(
; 48   : 		dwHostID,
; 49   : 		dwAttackID,
; 50   : 		bAttackType,
; 51   : 		bAttackCountry,
; 52   : 		bAttackAidCountry,
; 53   : 		bAtkCanSelect,
; 54   : 		wPartyID,
; 55   : 		nDamageHP,
; 56   : 		nDamageMP);

  00010	8b 4c 24 28	 mov	 ecx, DWORD PTR _nDamageMP$[esp]
  00014	8b 54 24 24	 mov	 edx, DWORD PTR _nDamageHP$[esp]
  00018	8b 44 24 20	 mov	 eax, DWORD PTR _wPartyID$[esp]
  0001c	51		 push	 ecx
  0001d	8b 4c 24 20	 mov	 ecx, DWORD PTR _bAtkCanSelect$[esp+4]
  00021	52		 push	 edx
  00022	8b 54 24 20	 mov	 edx, DWORD PTR _bAttackAidCountry$[esp+8]
  00026	50		 push	 eax
  00027	8b 44 24 20	 mov	 eax, DWORD PTR _bAttackCountry$[esp+12]
  0002b	51		 push	 ecx
  0002c	8b 4c 24 20	 mov	 ecx, DWORD PTR _bAttackType$[esp+16]
  00030	52		 push	 edx
  00031	8b 54 24 20	 mov	 edx, DWORD PTR _dwAttackID$[esp+20]
  00035	50		 push	 eax
  00036	8b 44 24 20	 mov	 eax, DWORD PTR _dwHostID$[esp+24]
  0003a	51		 push	 ecx
  0003b	52		 push	 edx
  0003c	50		 push	 eax
  0003d	8b ce		 mov	 ecx, esi
  0003f	e8 00 00 00 00	 call	 ?OnDamage@CTObjBase@@UAEKKKEEEEGHH@Z ; CTObjBase::OnDamage
  00044	5e		 pop	 esi

; 57   : }

  00045	c2 24 00	 ret	 36			; 00000024H
?OnDamage@CTRecallMon@@UAEKKKEEEEGHH@Z ENDP		; CTRecallMon::OnDamage
_TEXT	ENDS
PUBLIC	?Defend@CTRecallMon@@UAEXPAVCTSkillTemp@@EKKEGEEEKKKKKKGGEEEGEEEKMMMMMME@Z ; CTRecallMon::Defend
EXTRN	?Defend@CTObjBase@@UAEXPAVCTSkillTemp@@EKKEGEEEKKKKKKGGEEEGEEEKMMMMMME@Z:NEAR ; CTObjBase::Defend
EXTRN	__fltused:NEAR
; Function compile flags: /Ogty
;	COMDAT ?Defend@CTRecallMon@@UAEXPAVCTSkillTemp@@EKKEGEEEKKKKKKGGEEEGEEEKMMMMMME@Z
_TEXT	SEGMENT
_pTemp$ = 8						; size = 4
_bSkillLevel$ = 12					; size = 1
_dwHostID$ = 16						; size = 4
_dwAttackID$ = 20					; size = 4
_bAttackType$ = 24					; size = 1
_wAttackPartyID$ = 28					; size = 2
_bAttackCountry$ = 32					; size = 1
_bAttackAidCountry$ = 36				; size = 1
_bAttackClass$ = 40					; size = 1
_dwActID$ = 44						; size = 4
_dwAniID$ = 48						; size = 4
_dwPysMinPower$ = 52					; size = 4
_dwPysMaxPower$ = 56					; size = 4
_dwMgMinPower$ = 60					; size = 4
_dwMgMaxPower$ = 64					; size = 4
_wTransHP$ = 68						; size = 2
_wTransMP$ = 72						; size = 2
_bCurseProb$ = 76					; size = 1
_bEquipSpecial$ = 80					; size = 1
_bCanSelect$ = 84					; size = 1
_wAttackLevel$ = 88					; size = 2
_bAttackerLevel$ = 92					; size = 1
_bCP$ = 96						; size = 1
_bHitType$ = 100					; size = 1
_dwRemainTick$ = 104					; size = 4
_fAtkPosX$ = 108					; size = 4
_fAtkPosY$ = 112					; size = 4
_fAtkPosZ$ = 116					; size = 4
_fDefPosX$ = 120					; size = 4
_fDefPosY$ = 124					; size = 4
_fDefPosZ$ = 128					; size = 4
_bMirror$ = 132						; size = 1
?Defend@CTRecallMon@@UAEXPAVCTSkillTemp@@EKKEGEEEKKKKKKGGEEEGEEEKMMMMMME@Z PROC NEAR ; CTRecallMon::Defend, COMDAT
; _this$ = ecx

; 130  : 	CTObjBase::Defend(
; 131  : 		pTemp,
; 132  : 		bSkillLevel,
; 133  : 		dwHostID,
; 134  : 		dwAttackID,
; 135  : 		bAttackType,
; 136  : 		wAttackPartyID,
; 137  : 		bAttackCountry,
; 138  : 		bAttackAidCountry,
; 139  : 		bAttackClass,
; 140  : 		dwActID,
; 141  : 		dwAniID,
; 142  : 		dwPysMinPower,
; 143  : 		dwPysMaxPower,
; 144  : 		dwMgMinPower,
; 145  : 		dwMgMaxPower,
; 146  : 		wTransHP,
; 147  : 		wTransMP,
; 148  : 		bCurseProb,
; 149  : 		bEquipSpecial,
; 150  : 		bCanSelect,
; 151  : 		wAttackLevel,
; 152  : 		bAttackerLevel,
; 153  : 		bCP,
; 154  : 		bHitType,
; 155  : 		dwRemainTick,
; 156  : 		fAtkPosX,fAtkPosY,fAtkPosZ,
; 157  : 		fDefPosX,fDefPosY,fDefPosZ,
; 158  : 		bMirror);

  00000	e9 00 00 00 00	 jmp	 ?Defend@CTObjBase@@UAEXPAVCTSkillTemp@@EKKEGEEEKKKKKKGGEEEGEEEKMMMMMME@Z ; CTObjBase::Defend
?Defend@CTRecallMon@@UAEXPAVCTSkillTemp@@EKKEGEEEKKKKKKGGEEEGEEEKMMMMMME@Z ENDP ; CTRecallMon::Defend
_TEXT	ENDS
PUBLIC	?GetMaxHP@CTRecallMon@@UAEKXZ			; CTRecallMon::GetMaxHP
; Function compile flags: /Ogty
;	COMDAT ?GetMaxHP@CTRecallMon@@UAEKXZ
_TEXT	SEGMENT
_dwMaxHP$ = -4						; size = 4
?GetMaxHP@CTRecallMon@@UAEKXZ PROC NEAR			; CTRecallMon::GetMaxHP, COMDAT
; _this$ = ecx

; 162  : {

  00000	51		 push	 ecx

; 163  : 	DWORD dwMaxHP = m_pMON->m_wID ? m_pATTR->m_dwMaxHP : m_dwMaxHP;

  00001	8b 81 ec 00 00
	00		 mov	 eax, DWORD PTR [ecx+236]
  00007	66 83 78 24 00	 cmp	 WORD PTR [eax+36], 0
  0000c	74 20		 je	 SHORT $L153426
  0000e	8b 91 f0 00 00
	00		 mov	 edx, DWORD PTR [ecx+240]
  00014	8b 42 1c	 mov	 eax, DWORD PTR [edx+28]

; 164  : 	CalcAbilityValue(dwMaxHP, MTYPE_MHP);

  00017	6a 00		 push	 0
  00019	6a 32		 push	 50			; 00000032H
  0001b	8d 54 24 08	 lea	 edx, DWORD PTR _dwMaxHP$[esp+12]
  0001f	89 44 24 08	 mov	 DWORD PTR _dwMaxHP$[esp+12], eax
  00023	8b 01		 mov	 eax, DWORD PTR [ecx]
  00025	52		 push	 edx
  00026	ff 50 34	 call	 DWORD PTR [eax+52]

; 165  : 	return dwMaxHP;

  00029	8b 04 24	 mov	 eax, DWORD PTR _dwMaxHP$[esp+4]

; 166  : }

  0002c	59		 pop	 ecx
  0002d	c3		 ret	 0
$L153426:

; 163  : 	DWORD dwMaxHP = m_pMON->m_wID ? m_pATTR->m_dwMaxHP : m_dwMaxHP;

  0002e	8b 91 90 01 00
	00		 mov	 edx, DWORD PTR [ecx+400]

; 164  : 	CalcAbilityValue(dwMaxHP, MTYPE_MHP);

  00034	8b 01		 mov	 eax, DWORD PTR [ecx]
  00036	6a 00		 push	 0
  00038	89 54 24 04	 mov	 DWORD PTR _dwMaxHP$[esp+8], edx
  0003c	6a 32		 push	 50			; 00000032H
  0003e	8d 54 24 08	 lea	 edx, DWORD PTR _dwMaxHP$[esp+12]
  00042	52		 push	 edx
  00043	ff 50 34	 call	 DWORD PTR [eax+52]

; 165  : 	return dwMaxHP;

  00046	8b 04 24	 mov	 eax, DWORD PTR _dwMaxHP$[esp+4]

; 166  : }

  00049	59		 pop	 ecx
  0004a	c3		 ret	 0
?GetMaxHP@CTRecallMon@@UAEKXZ ENDP			; CTRecallMon::GetMaxHP
_TEXT	ENDS
PUBLIC	?GetMaxMP@CTRecallMon@@UAEKXZ			; CTRecallMon::GetMaxMP
; Function compile flags: /Ogty
;	COMDAT ?GetMaxMP@CTRecallMon@@UAEKXZ
_TEXT	SEGMENT
_dwMaxMP$ = -4						; size = 4
?GetMaxMP@CTRecallMon@@UAEKXZ PROC NEAR			; CTRecallMon::GetMaxMP, COMDAT
; _this$ = ecx

; 168  : {

  00000	51		 push	 ecx

; 169  : 	DWORD dwMaxMP = m_pMON->m_wID ? m_pATTR->m_dwMaxMP : m_dwMaxMP;

  00001	8b 81 ec 00 00
	00		 mov	 eax, DWORD PTR [ecx+236]
  00007	66 83 78 24 00	 cmp	 WORD PTR [eax+36], 0
  0000c	74 20		 je	 SHORT $L153431
  0000e	8b 91 f0 00 00
	00		 mov	 edx, DWORD PTR [ecx+240]
  00014	8b 42 28	 mov	 eax, DWORD PTR [edx+40]

; 170  : 	CalcAbilityValue(dwMaxMP, MTYPE_MMP);

  00017	6a 00		 push	 0
  00019	6a 33		 push	 51			; 00000033H
  0001b	8d 54 24 08	 lea	 edx, DWORD PTR _dwMaxMP$[esp+12]
  0001f	89 44 24 08	 mov	 DWORD PTR _dwMaxMP$[esp+12], eax
  00023	8b 01		 mov	 eax, DWORD PTR [ecx]
  00025	52		 push	 edx
  00026	ff 50 34	 call	 DWORD PTR [eax+52]

; 171  : 	return dwMaxMP;

  00029	8b 04 24	 mov	 eax, DWORD PTR _dwMaxMP$[esp+4]

; 172  : }

  0002c	59		 pop	 ecx
  0002d	c3		 ret	 0
$L153431:

; 169  : 	DWORD dwMaxMP = m_pMON->m_wID ? m_pATTR->m_dwMaxMP : m_dwMaxMP;

  0002e	8b 91 94 01 00
	00		 mov	 edx, DWORD PTR [ecx+404]

; 170  : 	CalcAbilityValue(dwMaxMP, MTYPE_MMP);

  00034	8b 01		 mov	 eax, DWORD PTR [ecx]
  00036	6a 00		 push	 0
  00038	89 54 24 04	 mov	 DWORD PTR _dwMaxMP$[esp+8], edx
  0003c	6a 33		 push	 51			; 00000033H
  0003e	8d 54 24 08	 lea	 edx, DWORD PTR _dwMaxMP$[esp+12]
  00042	52		 push	 edx
  00043	ff 50 34	 call	 DWORD PTR [eax+52]

; 171  : 	return dwMaxMP;

  00046	8b 04 24	 mov	 eax, DWORD PTR _dwMaxMP$[esp+4]

; 172  : }

  00049	59		 pop	 ecx
  0004a	c3		 ret	 0
?GetMaxMP@CTRecallMon@@UAEKXZ ENDP			; CTRecallMon::GetMaxMP
_TEXT	ENDS
PUBLIC	?GetMaxAP@CTRecallMon@@UAEKE@Z			; CTRecallMon::GetMaxAP
PUBLIC	__real@3fe199999999999a
EXTRN	?FindHost@CTMonster@@QAEPAVCTPlayer@@K@Z:NEAR	; CTMonster::FindHost
EXTRN	__ftol2:NEAR
EXTRN	?HaveDisWeapon@CTObjBase@@QAEEXZ:NEAR		; CTObjBase::HaveDisWeapon
;	COMDAT __real@3fe199999999999a
CONST	SEGMENT
__real@3fe199999999999a DQ 03fe199999999999ar	; 0.55
; Function compile flags: /Ogty
CONST	ENDS
;	COMDAT ?GetMaxAP@CTRecallMon@@UAEKE@Z
_TEXT	SEGMENT
_dwAP$ = -4						; size = 4
tv205 = 8						; size = 4
tv148 = 8						; size = 4
_bArrow$ = 8						; size = 1
?GetMaxAP@CTRecallMon@@UAEKE@Z PROC NEAR		; CTRecallMon::GetMaxAP, COMDAT
; _this$ = ecx

; 174  : {

  00000	51		 push	 ecx
  00001	53		 push	 ebx
  00002	56		 push	 esi
  00003	57		 push	 edi
  00004	8b f9		 mov	 edi, ecx

; 175  : 	CTPlayer * pPlayer = FindHost(m_dwHostID);

  00006	8b 87 f8 00 00
	00		 mov	 eax, DWORD PTR [edi+248]
  0000c	50		 push	 eax
  0000d	e8 00 00 00 00	 call	 ?FindHost@CTMonster@@QAEPAVCTPlayer@@K@Z ; CTMonster::FindHost

; 176  : 
; 177  : 	DWORD dwAP;
; 178  : 	if(bArrow)
; 179  : 	{
; 180  : 		dwAP = m_pATTR->m_wLAP;

  00012	8b 8f f0 00 00
	00		 mov	 ecx, DWORD PTR [edi+240]
  00018	8b f0		 mov	 esi, eax
  0001a	8a 44 24 14	 mov	 al, BYTE PTR _bArrow$[esp+12]
  0001e	84 c0		 test	 al, al
  00020	0f 84 93 00 00
	00		 je	 $L152423
  00026	0f b7 51 0a	 movzx	 edx, WORD PTR [ecx+10]

; 181  : 		if(!HaveDisWeapon())

  0002a	8b cf		 mov	 ecx, edi
  0002c	89 54 24 0c	 mov	 DWORD PTR _dwAP$[esp+16], edx
  00030	e8 00 00 00 00	 call	 ?HaveDisWeapon@CTObjBase@@QAEEXZ ; CTObjBase::HaveDisWeapon
  00035	84 c0		 test	 al, al
  00037	75 77		 jne	 SHORT $L152425

; 182  : 		{
; 183  : 			dwAP += m_pATTR->m_wMaxWAP;

  00039	8b 87 f0 00 00
	00		 mov	 eax, DWORD PTR [edi+240]
  0003f	0f b7 48 34	 movzx	 ecx, WORD PTR [eax+52]
  00043	8b 54 24 0c	 mov	 edx, DWORD PTR _dwAP$[esp+16]
  00047	03 d1		 add	 edx, ecx

; 184  : 			if(pPlayer && pPlayer->m_pMAP && pPlayer->m_bMain)

  00049	85 f6		 test	 esi, esi
  0004b	89 54 24 0c	 mov	 DWORD PTR _dwAP$[esp+16], edx
  0004f	74 5f		 je	 SHORT $L152425
  00051	8b 86 40 01 01
	00		 mov	 eax, DWORD PTR [esi+65856]
  00057	85 c0		 test	 eax, eax
  00059	74 55		 je	 SHORT $L152425
  0005b	8a 86 a8 04 01
	00		 mov	 al, BYTE PTR [esi+66728]
  00061	84 c0		 test	 al, al
  00063	74 4b		 je	 SHORT $L152425

; 185  : 				dwAP += DWORD(max(pPlayer->CalcItemAbility(ABILITY_MAXLAP), pPlayer->CalcItemAbility(ABILITY_MAXMAP)) * RECALL_ITEMABILITY_RATE);

  00065	8b 96 00 01 01
	00		 mov	 edx, DWORD PTR [esi+65792]
  0006b	81 c6 00 01 01
	00		 add	 esi, 65792		; 00010100H
  00071	6a 0a		 push	 10			; 0000000aH
  00073	8b ce		 mov	 ecx, esi
  00075	ff 52 44	 call	 DWORD PTR [edx+68]
  00078	8b d8		 mov	 ebx, eax
  0007a	8b 06		 mov	 eax, DWORD PTR [esi]
  0007c	6a 07		 push	 7
  0007e	8b ce		 mov	 ecx, esi
  00080	ff 50 44	 call	 DWORD PTR [eax+68]
  00083	3b c3		 cmp	 eax, ebx
  00085	8b ce		 mov	 ecx, esi
  00087	7e 09		 jle	 SHORT $L153436
  00089	8b 16		 mov	 edx, DWORD PTR [esi]
  0008b	6a 07		 push	 7
  0008d	ff 52 44	 call	 DWORD PTR [edx+68]
  00090	eb 07		 jmp	 SHORT $L153443
$L153436:
  00092	8b 06		 mov	 eax, DWORD PTR [esi]
  00094	6a 0a		 push	 10			; 0000000aH
  00096	ff 50 44	 call	 DWORD PTR [eax+68]
$L153443:
  00099	89 44 24 14	 mov	 DWORD PTR tv148[esp+12], eax
  0009d	db 44 24 14	 fild	 DWORD PTR tv148[esp+12]
  000a1	dc 0d 00 00 00
	00		 fmul	 QWORD PTR __real@3fe199999999999a
  000a7	e8 00 00 00 00	 call	 __ftol2
  000ac	01 44 24 0c	 add	 DWORD PTR _dwAP$[esp+16], eax
$L152425:

; 186  : 		}
; 187  : 
; 188  : 		CalcAbilityValue(dwAP, MTYPE_LAP);

  000b0	6a 00		 push	 0
  000b2	6a 09		 push	 9

; 189  : 	}
; 190  : 	else

  000b4	e9 8e 00 00 00	 jmp	 $L153444
$L152423:

; 191  : 	{
; 192  :         dwAP = m_pATTR->m_wAP;

  000b9	0f b7 51 08	 movzx	 edx, WORD PTR [ecx+8]

; 193  : 		if(!HaveDisWeapon())

  000bd	8b cf		 mov	 ecx, edi
  000bf	89 54 24 0c	 mov	 DWORD PTR _dwAP$[esp+16], edx
  000c3	e8 00 00 00 00	 call	 ?HaveDisWeapon@CTObjBase@@QAEEXZ ; CTObjBase::HaveDisWeapon
  000c8	84 c0		 test	 al, al
  000ca	75 77		 jne	 SHORT $L152428

; 194  : 		{
; 195  : 			dwAP += m_pATTR->m_wMaxWAP;

  000cc	8b 87 f0 00 00
	00		 mov	 eax, DWORD PTR [edi+240]
  000d2	0f b7 48 34	 movzx	 ecx, WORD PTR [eax+52]
  000d6	8b 54 24 0c	 mov	 edx, DWORD PTR _dwAP$[esp+16]
  000da	03 d1		 add	 edx, ecx

; 196  : 			if(pPlayer && pPlayer->m_pMAP && pPlayer->m_bMain)

  000dc	85 f6		 test	 esi, esi
  000de	89 54 24 0c	 mov	 DWORD PTR _dwAP$[esp+16], edx
  000e2	74 5f		 je	 SHORT $L152428
  000e4	8b 86 40 01 01
	00		 mov	 eax, DWORD PTR [esi+65856]
  000ea	85 c0		 test	 eax, eax
  000ec	74 55		 je	 SHORT $L152428
  000ee	8a 86 a8 04 01
	00		 mov	 al, BYTE PTR [esi+66728]
  000f4	84 c0		 test	 al, al
  000f6	74 4b		 je	 SHORT $L152428

; 197  : 				dwAP += DWORD(max(pPlayer->CalcItemAbility(ABILITY_MAXAP), pPlayer->CalcItemAbility(ABILITY_MAXMAP)) * RECALL_ITEMABILITY_RATE);

  000f8	8b 96 00 01 01
	00		 mov	 edx, DWORD PTR [esi+65792]
  000fe	81 c6 00 01 01
	00		 add	 esi, 65792		; 00010100H
  00104	6a 0a		 push	 10			; 0000000aH
  00106	8b ce		 mov	 ecx, esi
  00108	ff 52 44	 call	 DWORD PTR [edx+68]
  0010b	8b d8		 mov	 ebx, eax
  0010d	8b 06		 mov	 eax, DWORD PTR [esi]
  0010f	6a 06		 push	 6
  00111	8b ce		 mov	 ecx, esi
  00113	ff 50 44	 call	 DWORD PTR [eax+68]
  00116	3b c3		 cmp	 eax, ebx
  00118	8b ce		 mov	 ecx, esi
  0011a	7e 09		 jle	 SHORT $L153438
  0011c	8b 16		 mov	 edx, DWORD PTR [esi]
  0011e	6a 06		 push	 6
  00120	ff 52 44	 call	 DWORD PTR [edx+68]
  00123	eb 07		 jmp	 SHORT $L153445
$L153438:
  00125	8b 06		 mov	 eax, DWORD PTR [esi]
  00127	6a 0a		 push	 10			; 0000000aH
  00129	ff 50 44	 call	 DWORD PTR [eax+68]
$L153445:
  0012c	89 44 24 14	 mov	 DWORD PTR tv205[esp+12], eax
  00130	db 44 24 14	 fild	 DWORD PTR tv205[esp+12]
  00134	dc 0d 00 00 00
	00		 fmul	 QWORD PTR __real@3fe199999999999a
  0013a	e8 00 00 00 00	 call	 __ftol2
  0013f	01 44 24 0c	 add	 DWORD PTR _dwAP$[esp+16], eax
$L152428:

; 198  : 		}
; 199  : 		CalcAbilityValue(dwAP, MTYPE_PAP);

  00143	6a 00		 push	 0
  00145	6a 07		 push	 7
$L153444:
  00147	8b 17		 mov	 edx, DWORD PTR [edi]
  00149	8d 44 24 14	 lea	 eax, DWORD PTR _dwAP$[esp+24]
  0014d	8b cf		 mov	 ecx, edi
  0014f	50		 push	 eax
  00150	ff 52 34	 call	 DWORD PTR [edx+52]

; 200  : 	}
; 201  : 	return dwAP;

  00153	8b 44 24 0c	 mov	 eax, DWORD PTR _dwAP$[esp+16]
  00157	5f		 pop	 edi
  00158	5e		 pop	 esi
  00159	5b		 pop	 ebx

; 202  : }

  0015a	59		 pop	 ecx
  0015b	c2 04 00	 ret	 4
?GetMaxAP@CTRecallMon@@UAEKE@Z ENDP			; CTRecallMon::GetMaxAP
_TEXT	ENDS
PUBLIC	?GetMinAP@CTRecallMon@@UAEKE@Z			; CTRecallMon::GetMinAP
; Function compile flags: /Ogty
;	COMDAT ?GetMinAP@CTRecallMon@@UAEKE@Z
_TEXT	SEGMENT
_dwAP$ = -4						; size = 4
tv205 = 8						; size = 4
tv148 = 8						; size = 4
_bArrow$ = 8						; size = 1
?GetMinAP@CTRecallMon@@UAEKE@Z PROC NEAR		; CTRecallMon::GetMinAP, COMDAT
; _this$ = ecx

; 204  : {

  00000	51		 push	 ecx
  00001	53		 push	 ebx
  00002	56		 push	 esi
  00003	57		 push	 edi
  00004	8b f9		 mov	 edi, ecx

; 205  : 	CTPlayer * pPlayer = FindHost(m_dwHostID);

  00006	8b 87 f8 00 00
	00		 mov	 eax, DWORD PTR [edi+248]
  0000c	50		 push	 eax
  0000d	e8 00 00 00 00	 call	 ?FindHost@CTMonster@@QAEPAVCTPlayer@@K@Z ; CTMonster::FindHost

; 206  : 
; 207  : 	DWORD dwAP;
; 208  : 	if(bArrow)
; 209  : 	{
; 210  : 		dwAP = m_pATTR->m_wLAP;

  00012	8b 8f f0 00 00
	00		 mov	 ecx, DWORD PTR [edi+240]
  00018	8b f0		 mov	 esi, eax
  0001a	8a 44 24 14	 mov	 al, BYTE PTR _bArrow$[esp+12]
  0001e	84 c0		 test	 al, al
  00020	0f 84 93 00 00
	00		 je	 $L152435
  00026	0f b7 51 0a	 movzx	 edx, WORD PTR [ecx+10]

; 211  : 		if(!HaveDisWeapon())

  0002a	8b cf		 mov	 ecx, edi
  0002c	89 54 24 0c	 mov	 DWORD PTR _dwAP$[esp+16], edx
  00030	e8 00 00 00 00	 call	 ?HaveDisWeapon@CTObjBase@@QAEEXZ ; CTObjBase::HaveDisWeapon
  00035	84 c0		 test	 al, al
  00037	75 77		 jne	 SHORT $L152437

; 212  : 		{
; 213  : 			dwAP += m_pATTR->m_wMinWAP;

  00039	8b 87 f0 00 00
	00		 mov	 eax, DWORD PTR [edi+240]
  0003f	0f b7 48 32	 movzx	 ecx, WORD PTR [eax+50]
  00043	8b 54 24 0c	 mov	 edx, DWORD PTR _dwAP$[esp+16]
  00047	03 d1		 add	 edx, ecx

; 214  : 			if(pPlayer && pPlayer->m_pMAP && pPlayer->m_bMain)

  00049	85 f6		 test	 esi, esi
  0004b	89 54 24 0c	 mov	 DWORD PTR _dwAP$[esp+16], edx
  0004f	74 5f		 je	 SHORT $L152437
  00051	8b 86 40 01 01
	00		 mov	 eax, DWORD PTR [esi+65856]
  00057	85 c0		 test	 eax, eax
  00059	74 55		 je	 SHORT $L152437
  0005b	8a 86 a8 04 01
	00		 mov	 al, BYTE PTR [esi+66728]
  00061	84 c0		 test	 al, al
  00063	74 4b		 je	 SHORT $L152437

; 215  : 				dwAP += DWORD(max(pPlayer->CalcItemAbility(ABILITY_MINLAP), pPlayer->CalcItemAbility(ABILITY_MINMAP)) * RECALL_ITEMABILITY_RATE);

  00065	8b 96 00 01 01
	00		 mov	 edx, DWORD PTR [esi+65792]
  0006b	81 c6 00 01 01
	00		 add	 esi, 65792		; 00010100H
  00071	6a 0b		 push	 11			; 0000000bH
  00073	8b ce		 mov	 ecx, esi
  00075	ff 52 44	 call	 DWORD PTR [edx+68]
  00078	8b d8		 mov	 ebx, eax
  0007a	8b 06		 mov	 eax, DWORD PTR [esi]
  0007c	6a 09		 push	 9
  0007e	8b ce		 mov	 ecx, esi
  00080	ff 50 44	 call	 DWORD PTR [eax+68]
  00083	3b c3		 cmp	 eax, ebx
  00085	8b ce		 mov	 ecx, esi
  00087	7e 09		 jle	 SHORT $L153449
  00089	8b 16		 mov	 edx, DWORD PTR [esi]
  0008b	6a 09		 push	 9
  0008d	ff 52 44	 call	 DWORD PTR [edx+68]
  00090	eb 07		 jmp	 SHORT $L153453
$L153449:
  00092	8b 06		 mov	 eax, DWORD PTR [esi]
  00094	6a 0b		 push	 11			; 0000000bH
  00096	ff 50 44	 call	 DWORD PTR [eax+68]
$L153453:
  00099	89 44 24 14	 mov	 DWORD PTR tv148[esp+12], eax
  0009d	db 44 24 14	 fild	 DWORD PTR tv148[esp+12]
  000a1	dc 0d 00 00 00
	00		 fmul	 QWORD PTR __real@3fe199999999999a
  000a7	e8 00 00 00 00	 call	 __ftol2
  000ac	01 44 24 0c	 add	 DWORD PTR _dwAP$[esp+16], eax
$L152437:

; 216  : 		}
; 217  : 
; 218  : 		CalcAbilityValue(dwAP, MTYPE_LAP);

  000b0	6a 00		 push	 0
  000b2	6a 09		 push	 9

; 219  : 	}
; 220  : 	else

  000b4	e9 8e 00 00 00	 jmp	 $L153454
$L152435:

; 221  : 	{
; 222  :         dwAP = m_pATTR->m_wAP;

  000b9	0f b7 51 08	 movzx	 edx, WORD PTR [ecx+8]

; 223  : 		if(!HaveDisWeapon())

  000bd	8b cf		 mov	 ecx, edi
  000bf	89 54 24 0c	 mov	 DWORD PTR _dwAP$[esp+16], edx
  000c3	e8 00 00 00 00	 call	 ?HaveDisWeapon@CTObjBase@@QAEEXZ ; CTObjBase::HaveDisWeapon
  000c8	84 c0		 test	 al, al
  000ca	75 77		 jne	 SHORT $L152440

; 224  : 		{
; 225  : 			dwAP += m_pATTR->m_wMinWAP;

  000cc	8b 87 f0 00 00
	00		 mov	 eax, DWORD PTR [edi+240]
  000d2	0f b7 48 32	 movzx	 ecx, WORD PTR [eax+50]
  000d6	8b 54 24 0c	 mov	 edx, DWORD PTR _dwAP$[esp+16]
  000da	03 d1		 add	 edx, ecx

; 226  : 			if(pPlayer && pPlayer->m_pMAP && pPlayer->m_bMain)

  000dc	85 f6		 test	 esi, esi
  000de	89 54 24 0c	 mov	 DWORD PTR _dwAP$[esp+16], edx
  000e2	74 5f		 je	 SHORT $L152440
  000e4	8b 86 40 01 01
	00		 mov	 eax, DWORD PTR [esi+65856]
  000ea	85 c0		 test	 eax, eax
  000ec	74 55		 je	 SHORT $L152440
  000ee	8a 86 a8 04 01
	00		 mov	 al, BYTE PTR [esi+66728]
  000f4	84 c0		 test	 al, al
  000f6	74 4b		 je	 SHORT $L152440

; 227  : 				dwAP += DWORD(max(pPlayer->CalcItemAbility(ABILITY_MINAP), pPlayer->CalcItemAbility(ABILITY_MINMAP)) * RECALL_ITEMABILITY_RATE);

  000f8	8b 96 00 01 01
	00		 mov	 edx, DWORD PTR [esi+65792]
  000fe	81 c6 00 01 01
	00		 add	 esi, 65792		; 00010100H
  00104	6a 0b		 push	 11			; 0000000bH
  00106	8b ce		 mov	 ecx, esi
  00108	ff 52 44	 call	 DWORD PTR [edx+68]
  0010b	8b d8		 mov	 ebx, eax
  0010d	8b 06		 mov	 eax, DWORD PTR [esi]
  0010f	6a 08		 push	 8
  00111	8b ce		 mov	 ecx, esi
  00113	ff 50 44	 call	 DWORD PTR [eax+68]
  00116	3b c3		 cmp	 eax, ebx
  00118	8b ce		 mov	 ecx, esi
  0011a	7e 09		 jle	 SHORT $L153451
  0011c	8b 16		 mov	 edx, DWORD PTR [esi]
  0011e	6a 08		 push	 8
  00120	ff 52 44	 call	 DWORD PTR [edx+68]
  00123	eb 07		 jmp	 SHORT $L153455
$L153451:
  00125	8b 06		 mov	 eax, DWORD PTR [esi]
  00127	6a 0b		 push	 11			; 0000000bH
  00129	ff 50 44	 call	 DWORD PTR [eax+68]
$L153455:
  0012c	89 44 24 14	 mov	 DWORD PTR tv205[esp+12], eax
  00130	db 44 24 14	 fild	 DWORD PTR tv205[esp+12]
  00134	dc 0d 00 00 00
	00		 fmul	 QWORD PTR __real@3fe199999999999a
  0013a	e8 00 00 00 00	 call	 __ftol2
  0013f	01 44 24 0c	 add	 DWORD PTR _dwAP$[esp+16], eax
$L152440:

; 228  : 		}
; 229  : 
; 230  : 		CalcAbilityValue(dwAP, MTYPE_PAP);

  00143	6a 00		 push	 0
  00145	6a 07		 push	 7
$L153454:
  00147	8b 17		 mov	 edx, DWORD PTR [edi]
  00149	8d 44 24 14	 lea	 eax, DWORD PTR _dwAP$[esp+24]
  0014d	8b cf		 mov	 ecx, edi
  0014f	50		 push	 eax
  00150	ff 52 34	 call	 DWORD PTR [edx+52]

; 231  : 	}
; 232  : 	return dwAP;

  00153	8b 44 24 0c	 mov	 eax, DWORD PTR _dwAP$[esp+16]
  00157	5f		 pop	 edi
  00158	5e		 pop	 esi
  00159	5b		 pop	 ebx

; 233  : }

  0015a	59		 pop	 ecx
  0015b	c2 04 00	 ret	 4
?GetMinAP@CTRecallMon@@UAEKE@Z ENDP			; CTRecallMon::GetMinAP
_TEXT	ENDS
PUBLIC	?GetMinMagicAP@CTRecallMon@@UAEKXZ		; CTRecallMon::GetMinMagicAP
; Function compile flags: /Ogty
;	COMDAT ?GetMinMagicAP@CTRecallMon@@UAEKXZ
_TEXT	SEGMENT
_dwAP$ = -8						; size = 4
tv146 = -4						; size = 4
?GetMinMagicAP@CTRecallMon@@UAEKXZ PROC NEAR		; CTRecallMon::GetMinMagicAP, COMDAT
; _this$ = ecx

; 235  : {

  00000	83 ec 08	 sub	 esp, 8
  00003	56		 push	 esi
  00004	57		 push	 edi
  00005	8b f9		 mov	 edi, ecx

; 236  : 	CTPlayer * pPlayer = FindHost(m_dwHostID);

  00007	8b 87 f8 00 00
	00		 mov	 eax, DWORD PTR [edi+248]
  0000d	50		 push	 eax
  0000e	e8 00 00 00 00	 call	 ?FindHost@CTMonster@@QAEPAVCTPlayer@@K@Z ; CTMonster::FindHost

; 237  : 
; 238  : 	DWORD dwAP = m_pATTR->m_wMAP;

  00013	8b 8f f0 00 00
	00		 mov	 ecx, DWORD PTR [edi+240]
  00019	0f b7 51 22	 movzx	 edx, WORD PTR [ecx+34]

; 239  : 	if(!HaveDisWeapon())

  0001d	8b cf		 mov	 ecx, edi
  0001f	8b f0		 mov	 esi, eax
  00021	89 54 24 08	 mov	 DWORD PTR _dwAP$[esp+16], edx
  00025	e8 00 00 00 00	 call	 ?HaveDisWeapon@CTObjBase@@QAEEXZ ; CTObjBase::HaveDisWeapon
  0002a	84 c0		 test	 al, al
  0002c	75 79		 jne	 SHORT $L152447

; 240  : 	{
; 241  : 		dwAP += m_pATTR->m_wMinWAP;

  0002e	8b 87 f0 00 00
	00		 mov	 eax, DWORD PTR [edi+240]
  00034	0f b7 48 32	 movzx	 ecx, WORD PTR [eax+50]
  00038	8b 54 24 08	 mov	 edx, DWORD PTR _dwAP$[esp+16]
  0003c	03 d1		 add	 edx, ecx

; 242  : 		if(pPlayer && pPlayer->m_pMAP && pPlayer->m_bMain)

  0003e	85 f6		 test	 esi, esi
  00040	89 54 24 08	 mov	 DWORD PTR _dwAP$[esp+16], edx
  00044	74 61		 je	 SHORT $L152447
  00046	8b 86 40 01 01
	00		 mov	 eax, DWORD PTR [esi+65856]
  0004c	85 c0		 test	 eax, eax
  0004e	74 57		 je	 SHORT $L152447
  00050	8a 86 a8 04 01
	00		 mov	 al, BYTE PTR [esi+66728]
  00056	84 c0		 test	 al, al
  00058	74 4d		 je	 SHORT $L152447

; 243  : 			dwAP += DWORD(max(pPlayer->CalcItemAbility(ABILITY_MINMAP), pPlayer->CalcItemAbility(ABILITY_MINAP)) * RECALL_ITEMABILITY_RATE);

  0005a	8b 96 00 01 01
	00		 mov	 edx, DWORD PTR [esi+65792]
  00060	53		 push	 ebx
  00061	81 c6 00 01 01
	00		 add	 esi, 65792		; 00010100H
  00067	6a 0b		 push	 11			; 0000000bH
  00069	8b ce		 mov	 ecx, esi
  0006b	ff 52 44	 call	 DWORD PTR [edx+68]
  0006e	8b d8		 mov	 ebx, eax
  00070	8b 06		 mov	 eax, DWORD PTR [esi]
  00072	6a 08		 push	 8
  00074	8b ce		 mov	 ecx, esi
  00076	ff 50 44	 call	 DWORD PTR [eax+68]
  00079	3b d8		 cmp	 ebx, eax
  0007b	5b		 pop	 ebx
  0007c	8b ce		 mov	 ecx, esi
  0007e	7e 09		 jle	 SHORT $L153459
  00080	8b 16		 mov	 edx, DWORD PTR [esi]
  00082	6a 0b		 push	 11			; 0000000bH
  00084	ff 52 44	 call	 DWORD PTR [edx+68]
  00087	eb 07		 jmp	 SHORT $L153461
$L153459:
  00089	8b 06		 mov	 eax, DWORD PTR [esi]
  0008b	6a 08		 push	 8
  0008d	ff 50 44	 call	 DWORD PTR [eax+68]
$L153461:
  00090	89 44 24 0c	 mov	 DWORD PTR tv146[esp+16], eax
  00094	db 44 24 0c	 fild	 DWORD PTR tv146[esp+16]
  00098	dc 0d 00 00 00
	00		 fmul	 QWORD PTR __real@3fe199999999999a
  0009e	e8 00 00 00 00	 call	 __ftol2
  000a3	01 44 24 08	 add	 DWORD PTR _dwAP$[esp+16], eax
$L152447:

; 244  : 	}
; 245  : 	CalcAbilityValue(dwAP, MTYPE_MAP);

  000a7	8b 17		 mov	 edx, DWORD PTR [edi]
  000a9	6a 00		 push	 0
  000ab	6a 11		 push	 17			; 00000011H
  000ad	8d 44 24 10	 lea	 eax, DWORD PTR _dwAP$[esp+24]
  000b1	50		 push	 eax
  000b2	8b cf		 mov	 ecx, edi
  000b4	ff 52 34	 call	 DWORD PTR [edx+52]

; 246  : 
; 247  : 	return dwAP;

  000b7	8b 44 24 08	 mov	 eax, DWORD PTR _dwAP$[esp+16]
  000bb	5f		 pop	 edi
  000bc	5e		 pop	 esi

; 248  : }

  000bd	83 c4 08	 add	 esp, 8
  000c0	c3		 ret	 0
?GetMinMagicAP@CTRecallMon@@UAEKXZ ENDP			; CTRecallMon::GetMinMagicAP
_TEXT	ENDS
PUBLIC	?GetMaxMagicAP@CTRecallMon@@UAEKXZ		; CTRecallMon::GetMaxMagicAP
; Function compile flags: /Ogty
;	COMDAT ?GetMaxMagicAP@CTRecallMon@@UAEKXZ
_TEXT	SEGMENT
_dwAP$ = -8						; size = 4
tv146 = -4						; size = 4
?GetMaxMagicAP@CTRecallMon@@UAEKXZ PROC NEAR		; CTRecallMon::GetMaxMagicAP, COMDAT
; _this$ = ecx

; 250  : {

  00000	83 ec 08	 sub	 esp, 8
  00003	56		 push	 esi
  00004	57		 push	 edi
  00005	8b f9		 mov	 edi, ecx

; 251  : 	CTPlayer * pPlayer = FindHost(m_dwHostID);

  00007	8b 87 f8 00 00
	00		 mov	 eax, DWORD PTR [edi+248]
  0000d	50		 push	 eax
  0000e	e8 00 00 00 00	 call	 ?FindHost@CTMonster@@QAEPAVCTPlayer@@K@Z ; CTMonster::FindHost

; 252  : 
; 253  : 	DWORD dwAP = m_pATTR->m_wMAP;

  00013	8b 8f f0 00 00
	00		 mov	 ecx, DWORD PTR [edi+240]
  00019	0f b7 51 22	 movzx	 edx, WORD PTR [ecx+34]

; 254  : 	if(!HaveDisWeapon())

  0001d	8b cf		 mov	 ecx, edi
  0001f	8b f0		 mov	 esi, eax
  00021	89 54 24 08	 mov	 DWORD PTR _dwAP$[esp+16], edx
  00025	e8 00 00 00 00	 call	 ?HaveDisWeapon@CTObjBase@@QAEEXZ ; CTObjBase::HaveDisWeapon
  0002a	84 c0		 test	 al, al
  0002c	75 79		 jne	 SHORT $L152454

; 255  : 	{
; 256  : 		dwAP += m_pATTR->m_wMaxWAP;

  0002e	8b 87 f0 00 00
	00		 mov	 eax, DWORD PTR [edi+240]
  00034	0f b7 48 34	 movzx	 ecx, WORD PTR [eax+52]
  00038	8b 54 24 08	 mov	 edx, DWORD PTR _dwAP$[esp+16]
  0003c	03 d1		 add	 edx, ecx

; 257  : 		if(pPlayer && pPlayer->m_pMAP && pPlayer->m_bMain)

  0003e	85 f6		 test	 esi, esi
  00040	89 54 24 08	 mov	 DWORD PTR _dwAP$[esp+16], edx
  00044	74 61		 je	 SHORT $L152454
  00046	8b 86 40 01 01
	00		 mov	 eax, DWORD PTR [esi+65856]
  0004c	85 c0		 test	 eax, eax
  0004e	74 57		 je	 SHORT $L152454
  00050	8a 86 a8 04 01
	00		 mov	 al, BYTE PTR [esi+66728]
  00056	84 c0		 test	 al, al
  00058	74 4d		 je	 SHORT $L152454

; 258  : 			dwAP += DWORD(max(pPlayer->CalcItemAbility(ABILITY_MAXMAP), pPlayer->CalcItemAbility(ABILITY_MAXAP)) * RECALL_ITEMABILITY_RATE);

  0005a	8b 96 00 01 01
	00		 mov	 edx, DWORD PTR [esi+65792]
  00060	53		 push	 ebx
  00061	81 c6 00 01 01
	00		 add	 esi, 65792		; 00010100H
  00067	6a 0a		 push	 10			; 0000000aH
  00069	8b ce		 mov	 ecx, esi
  0006b	ff 52 44	 call	 DWORD PTR [edx+68]
  0006e	8b d8		 mov	 ebx, eax
  00070	8b 06		 mov	 eax, DWORD PTR [esi]
  00072	6a 06		 push	 6
  00074	8b ce		 mov	 ecx, esi
  00076	ff 50 44	 call	 DWORD PTR [eax+68]
  00079	3b d8		 cmp	 ebx, eax
  0007b	5b		 pop	 ebx
  0007c	8b ce		 mov	 ecx, esi
  0007e	7e 09		 jle	 SHORT $L153465
  00080	8b 16		 mov	 edx, DWORD PTR [esi]
  00082	6a 0a		 push	 10			; 0000000aH
  00084	ff 52 44	 call	 DWORD PTR [edx+68]
  00087	eb 07		 jmp	 SHORT $L153467
$L153465:
  00089	8b 06		 mov	 eax, DWORD PTR [esi]
  0008b	6a 06		 push	 6
  0008d	ff 50 44	 call	 DWORD PTR [eax+68]
$L153467:
  00090	89 44 24 0c	 mov	 DWORD PTR tv146[esp+16], eax
  00094	db 44 24 0c	 fild	 DWORD PTR tv146[esp+16]
  00098	dc 0d 00 00 00
	00		 fmul	 QWORD PTR __real@3fe199999999999a
  0009e	e8 00 00 00 00	 call	 __ftol2
  000a3	01 44 24 08	 add	 DWORD PTR _dwAP$[esp+16], eax
$L152454:

; 259  : 	}
; 260  : 
; 261  : 	CalcAbilityValue(dwAP, MTYPE_MAP);

  000a7	8b 17		 mov	 edx, DWORD PTR [edi]
  000a9	6a 00		 push	 0
  000ab	6a 11		 push	 17			; 00000011H
  000ad	8d 44 24 10	 lea	 eax, DWORD PTR _dwAP$[esp+24]
  000b1	50		 push	 eax
  000b2	8b cf		 mov	 ecx, edi
  000b4	ff 52 34	 call	 DWORD PTR [edx+52]

; 262  : 
; 263  : 	return dwAP;

  000b7	8b 44 24 08	 mov	 eax, DWORD PTR _dwAP$[esp+16]
  000bb	5f		 pop	 edi
  000bc	5e		 pop	 esi

; 264  : }

  000bd	83 c4 08	 add	 esp, 8
  000c0	c3		 ret	 0
?GetMaxMagicAP@CTRecallMon@@UAEKXZ ENDP			; CTRecallMon::GetMaxMagicAP
_TEXT	ENDS
PUBLIC	?GetDefendPower@CTRecallMon@@UAEKXZ		; CTRecallMon::GetDefendPower
EXTRN	?HaveDisDefend@CTObjBase@@QAEEXZ:NEAR		; CTObjBase::HaveDisDefend
; Function compile flags: /Ogty
;	COMDAT ?GetDefendPower@CTRecallMon@@UAEKXZ
_TEXT	SEGMENT
_dwDP$ = -8						; size = 4
tv146 = -4						; size = 4
?GetDefendPower@CTRecallMon@@UAEKXZ PROC NEAR		; CTRecallMon::GetDefendPower, COMDAT
; _this$ = ecx

; 267  : {

  00000	83 ec 08	 sub	 esp, 8
  00003	56		 push	 esi
  00004	57		 push	 edi
  00005	8b f9		 mov	 edi, ecx

; 268  : 	CTPlayer * pPlayer = FindHost(m_dwHostID);

  00007	8b 87 f8 00 00
	00		 mov	 eax, DWORD PTR [edi+248]
  0000d	50		 push	 eax
  0000e	e8 00 00 00 00	 call	 ?FindHost@CTMonster@@QAEPAVCTPlayer@@K@Z ; CTMonster::FindHost

; 269  : 
; 270  : 	DWORD dwDP = m_pATTR->m_wDP;

  00013	8b 8f f0 00 00
	00		 mov	 ecx, DWORD PTR [edi+240]
  00019	0f b7 51 2e	 movzx	 edx, WORD PTR [ecx+46]

; 271  : 	if(!HaveDisDefend())

  0001d	8b cf		 mov	 ecx, edi
  0001f	8b f0		 mov	 esi, eax
  00021	89 54 24 08	 mov	 DWORD PTR _dwDP$[esp+16], edx
  00025	e8 00 00 00 00	 call	 ?HaveDisDefend@CTObjBase@@QAEEXZ ; CTObjBase::HaveDisDefend
  0002a	84 c0		 test	 al, al
  0002c	75 79		 jne	 SHORT $L152461

; 272  : 	{
; 273  : 		dwDP += m_pATTR->m_wWDP;

  0002e	8b 87 f0 00 00
	00		 mov	 eax, DWORD PTR [edi+240]
  00034	0f b7 48 36	 movzx	 ecx, WORD PTR [eax+54]
  00038	8b 54 24 08	 mov	 edx, DWORD PTR _dwDP$[esp+16]
  0003c	03 d1		 add	 edx, ecx

; 274  : 		if(pPlayer && pPlayer->m_pMAP && pPlayer->m_bMain)

  0003e	85 f6		 test	 esi, esi
  00040	89 54 24 08	 mov	 DWORD PTR _dwDP$[esp+16], edx
  00044	74 61		 je	 SHORT $L152461
  00046	8b 86 40 01 01
	00		 mov	 eax, DWORD PTR [esi+65856]
  0004c	85 c0		 test	 eax, eax
  0004e	74 57		 je	 SHORT $L152461
  00050	8a 86 a8 04 01
	00		 mov	 al, BYTE PTR [esi+66728]
  00056	84 c0		 test	 al, al
  00058	74 4d		 je	 SHORT $L152461

; 275  : 			dwDP += DWORD(max(pPlayer->CalcItemAbility(ABILITY_PDP), pPlayer->CalcItemAbility(ABILITY_MDP)) * RECALL_ITEMABILITY_RATE);

  0005a	8b 96 00 01 01
	00		 mov	 edx, DWORD PTR [esi+65792]
  00060	53		 push	 ebx
  00061	81 c6 00 01 01
	00		 add	 esi, 65792		; 00010100H
  00067	6a 0f		 push	 15			; 0000000fH
  00069	8b ce		 mov	 ecx, esi
  0006b	ff 52 44	 call	 DWORD PTR [edx+68]
  0006e	8b d8		 mov	 ebx, eax
  00070	8b 06		 mov	 eax, DWORD PTR [esi]
  00072	6a 0e		 push	 14			; 0000000eH
  00074	8b ce		 mov	 ecx, esi
  00076	ff 50 44	 call	 DWORD PTR [eax+68]
  00079	3b c3		 cmp	 eax, ebx
  0007b	5b		 pop	 ebx
  0007c	8b ce		 mov	 ecx, esi
  0007e	7e 09		 jle	 SHORT $L153471
  00080	8b 16		 mov	 edx, DWORD PTR [esi]
  00082	6a 0e		 push	 14			; 0000000eH
  00084	ff 52 44	 call	 DWORD PTR [edx+68]
  00087	eb 07		 jmp	 SHORT $L153473
$L153471:
  00089	8b 06		 mov	 eax, DWORD PTR [esi]
  0008b	6a 0f		 push	 15			; 0000000fH
  0008d	ff 50 44	 call	 DWORD PTR [eax+68]
$L153473:
  00090	89 44 24 0c	 mov	 DWORD PTR tv146[esp+16], eax
  00094	db 44 24 0c	 fild	 DWORD PTR tv146[esp+16]
  00098	dc 0d 00 00 00
	00		 fmul	 QWORD PTR __real@3fe199999999999a
  0009e	e8 00 00 00 00	 call	 __ftol2
  000a3	01 44 24 08	 add	 DWORD PTR _dwDP$[esp+16], eax
$L152461:

; 276  : 	}
; 277  : 	CalcAbilityValue(dwDP, MTYPE_PDP);

  000a7	8b 17		 mov	 edx, DWORD PTR [edi]
  000a9	6a 00		 push	 0
  000ab	6a 08		 push	 8
  000ad	8d 44 24 10	 lea	 eax, DWORD PTR _dwDP$[esp+24]
  000b1	50		 push	 eax
  000b2	8b cf		 mov	 ecx, edi
  000b4	ff 52 34	 call	 DWORD PTR [edx+52]

; 278  : 	return dwDP;

  000b7	8b 44 24 08	 mov	 eax, DWORD PTR _dwDP$[esp+16]
  000bb	5f		 pop	 edi
  000bc	5e		 pop	 esi

; 279  : }

  000bd	83 c4 08	 add	 esp, 8
  000c0	c3		 ret	 0
?GetDefendPower@CTRecallMon@@UAEKXZ ENDP		; CTRecallMon::GetDefendPower
_TEXT	ENDS
PUBLIC	?GetMagicDefPower@CTRecallMon@@UAEKXZ		; CTRecallMon::GetMagicDefPower
; Function compile flags: /Ogty
;	COMDAT ?GetMagicDefPower@CTRecallMon@@UAEKXZ
_TEXT	SEGMENT
_dwMDP$ = -8						; size = 4
tv146 = -4						; size = 4
?GetMagicDefPower@CTRecallMon@@UAEKXZ PROC NEAR		; CTRecallMon::GetMagicDefPower, COMDAT
; _this$ = ecx

; 281  : {

  00000	83 ec 08	 sub	 esp, 8
  00003	56		 push	 esi
  00004	57		 push	 edi
  00005	8b f9		 mov	 edi, ecx

; 282  : 	CTPlayer * pPlayer = FindHost(m_dwHostID);

  00007	8b 87 f8 00 00
	00		 mov	 eax, DWORD PTR [edi+248]
  0000d	50		 push	 eax
  0000e	e8 00 00 00 00	 call	 ?FindHost@CTMonster@@QAEPAVCTPlayer@@K@Z ; CTMonster::FindHost

; 283  : 
; 284  : 	DWORD dwMDP = m_pATTR->m_wMDP;

  00013	8b 8f f0 00 00
	00		 mov	 ecx, DWORD PTR [edi+240]
  00019	0f b7 51 30	 movzx	 edx, WORD PTR [ecx+48]

; 285  : 	if(!HaveDisDefend())

  0001d	8b cf		 mov	 ecx, edi
  0001f	8b f0		 mov	 esi, eax
  00021	89 54 24 08	 mov	 DWORD PTR _dwMDP$[esp+16], edx
  00025	e8 00 00 00 00	 call	 ?HaveDisDefend@CTObjBase@@QAEEXZ ; CTObjBase::HaveDisDefend
  0002a	84 c0		 test	 al, al
  0002c	75 79		 jne	 SHORT $L152468

; 286  : 	{
; 287  : 		dwMDP += m_pATTR->m_wWDP;

  0002e	8b 87 f0 00 00
	00		 mov	 eax, DWORD PTR [edi+240]
  00034	0f b7 48 36	 movzx	 ecx, WORD PTR [eax+54]
  00038	8b 54 24 08	 mov	 edx, DWORD PTR _dwMDP$[esp+16]
  0003c	03 d1		 add	 edx, ecx

; 288  : 		if(pPlayer && pPlayer->m_pMAP && pPlayer->m_bMain)

  0003e	85 f6		 test	 esi, esi
  00040	89 54 24 08	 mov	 DWORD PTR _dwMDP$[esp+16], edx
  00044	74 61		 je	 SHORT $L152468
  00046	8b 86 40 01 01
	00		 mov	 eax, DWORD PTR [esi+65856]
  0004c	85 c0		 test	 eax, eax
  0004e	74 57		 je	 SHORT $L152468
  00050	8a 86 a8 04 01
	00		 mov	 al, BYTE PTR [esi+66728]
  00056	84 c0		 test	 al, al
  00058	74 4d		 je	 SHORT $L152468

; 289  : 			dwMDP += DWORD(max(pPlayer->CalcItemAbility(ABILITY_MDP), pPlayer->CalcItemAbility(ABILITY_PDP)) * RECALL_ITEMABILITY_RATE);

  0005a	8b 96 00 01 01
	00		 mov	 edx, DWORD PTR [esi+65792]
  00060	53		 push	 ebx
  00061	81 c6 00 01 01
	00		 add	 esi, 65792		; 00010100H
  00067	6a 0f		 push	 15			; 0000000fH
  00069	8b ce		 mov	 ecx, esi
  0006b	ff 52 44	 call	 DWORD PTR [edx+68]
  0006e	8b d8		 mov	 ebx, eax
  00070	8b 06		 mov	 eax, DWORD PTR [esi]
  00072	6a 0e		 push	 14			; 0000000eH
  00074	8b ce		 mov	 ecx, esi
  00076	ff 50 44	 call	 DWORD PTR [eax+68]
  00079	3b d8		 cmp	 ebx, eax
  0007b	5b		 pop	 ebx
  0007c	8b ce		 mov	 ecx, esi
  0007e	7e 09		 jle	 SHORT $L153477
  00080	8b 16		 mov	 edx, DWORD PTR [esi]
  00082	6a 0f		 push	 15			; 0000000fH
  00084	ff 52 44	 call	 DWORD PTR [edx+68]
  00087	eb 07		 jmp	 SHORT $L153479
$L153477:
  00089	8b 06		 mov	 eax, DWORD PTR [esi]
  0008b	6a 0e		 push	 14			; 0000000eH
  0008d	ff 50 44	 call	 DWORD PTR [eax+68]
$L153479:
  00090	89 44 24 0c	 mov	 DWORD PTR tv146[esp+16], eax
  00094	db 44 24 0c	 fild	 DWORD PTR tv146[esp+16]
  00098	dc 0d 00 00 00
	00		 fmul	 QWORD PTR __real@3fe199999999999a
  0009e	e8 00 00 00 00	 call	 __ftol2
  000a3	01 44 24 08	 add	 DWORD PTR _dwMDP$[esp+16], eax
$L152468:

; 290  : 	}
; 291  : 	CalcAbilityValue(dwMDP, MTYPE_MDP);

  000a7	8b 17		 mov	 edx, DWORD PTR [edi]
  000a9	6a 00		 push	 0
  000ab	6a 10		 push	 16			; 00000010H
  000ad	8d 44 24 10	 lea	 eax, DWORD PTR _dwMDP$[esp+24]
  000b1	50		 push	 eax
  000b2	8b cf		 mov	 ecx, edi
  000b4	ff 52 34	 call	 DWORD PTR [edx+52]

; 292  : 	return dwMDP;

  000b7	8b 44 24 08	 mov	 eax, DWORD PTR _dwMDP$[esp+16]
  000bb	5f		 pop	 edi
  000bc	5e		 pop	 esi

; 293  : }

  000bd	83 c4 08	 add	 esp, 8
  000c0	c3		 ret	 0
?GetMagicDefPower@CTRecallMon@@UAEKXZ ENDP		; CTRecallMon::GetMagicDefPower
_TEXT	ENDS
PUBLIC	?GetAttackLevel@CTRecallMon@@UAEGXZ		; CTRecallMon::GetAttackLevel
; Function compile flags: /Ogty
;	COMDAT ?GetAttackLevel@CTRecallMon@@UAEGXZ
_TEXT	SEGMENT
_dwAL$ = -4						; size = 4
?GetAttackLevel@CTRecallMon@@UAEGXZ PROC NEAR		; CTRecallMon::GetAttackLevel, COMDAT
; _this$ = ecx

; 295  : {

  00000	51		 push	 ecx
  00001	56		 push	 esi
  00002	8b f1		 mov	 esi, ecx

; 296  : 	CTPlayer * pPlayer = FindHost(m_dwHostID);

  00004	8b 86 f8 00 00
	00		 mov	 eax, DWORD PTR [esi+248]
  0000a	50		 push	 eax
  0000b	e8 00 00 00 00	 call	 ?FindHost@CTMonster@@QAEPAVCTPlayer@@K@Z ; CTMonster::FindHost

; 297  : 
; 298  : 	DWORD dwAL = m_pATTR->m_wAL;
; 299  : 	if(pPlayer && pPlayer->m_pMAP && pPlayer->m_bMain)

  00010	85 c0		 test	 eax, eax
  00012	8b 8e f0 00 00
	00		 mov	 ecx, DWORD PTR [esi+240]
  00018	0f b7 51 10	 movzx	 edx, WORD PTR [ecx+16]
  0001c	89 54 24 04	 mov	 DWORD PTR _dwAL$[esp+8], edx
  00020	74 25		 je	 SHORT $L152474
  00022	8b 88 40 01 01
	00		 mov	 ecx, DWORD PTR [eax+65856]
  00028	85 c9		 test	 ecx, ecx
  0002a	74 1b		 je	 SHORT $L152474
  0002c	8a 88 a8 04 01
	00		 mov	 cl, BYTE PTR [eax+66728]
  00032	84 c9		 test	 cl, cl
  00034	74 11		 je	 SHORT $L152474

; 300  : 		dwAL += pPlayer->CalcItemAbility(ABILITY_AL);

  00036	8d 88 00 01 01
	00		 lea	 ecx, DWORD PTR [eax+65792]
  0003c	8b 01		 mov	 eax, DWORD PTR [ecx]
  0003e	6a 10		 push	 16			; 00000010H
  00040	ff 50 44	 call	 DWORD PTR [eax+68]
  00043	01 44 24 04	 add	 DWORD PTR _dwAL$[esp+8], eax
$L152474:

; 301  : 
; 302  : 	CalcAbilityValue(dwAL, MTYPE_AL);

  00047	8b 16		 mov	 edx, DWORD PTR [esi]
  00049	6a 00		 push	 0
  0004b	6a 0b		 push	 11			; 0000000bH
  0004d	8d 44 24 0c	 lea	 eax, DWORD PTR _dwAL$[esp+16]
  00051	50		 push	 eax
  00052	8b ce		 mov	 ecx, esi
  00054	ff 52 34	 call	 DWORD PTR [edx+52]

; 303  : 	return WORD(dwAL);

  00057	66 8b 44 24 04	 mov	 ax, WORD PTR _dwAL$[esp+8]
  0005c	5e		 pop	 esi

; 304  : }

  0005d	59		 pop	 ecx
  0005e	c3		 ret	 0
?GetAttackLevel@CTRecallMon@@UAEGXZ ENDP		; CTRecallMon::GetAttackLevel
_TEXT	ENDS
PUBLIC	?GetDefendLevel@CTRecallMon@@UAEGXZ		; CTRecallMon::GetDefendLevel
; Function compile flags: /Ogty
;	COMDAT ?GetDefendLevel@CTRecallMon@@UAEGXZ
_TEXT	SEGMENT
_dwDL$ = -4						; size = 4
?GetDefendLevel@CTRecallMon@@UAEGXZ PROC NEAR		; CTRecallMon::GetDefendLevel, COMDAT
; _this$ = ecx

; 306  : {

  00000	51		 push	 ecx
  00001	56		 push	 esi
  00002	8b f1		 mov	 esi, ecx

; 307  : 	CTPlayer * pPlayer = FindHost(m_dwHostID);

  00004	8b 86 f8 00 00
	00		 mov	 eax, DWORD PTR [esi+248]
  0000a	50		 push	 eax
  0000b	e8 00 00 00 00	 call	 ?FindHost@CTMonster@@QAEPAVCTPlayer@@K@Z ; CTMonster::FindHost

; 308  : 
; 309  : 	DWORD dwDL = m_pATTR->m_wDL;
; 310  : 	if(pPlayer && pPlayer->m_pMAP && pPlayer->m_bMain)

  00010	85 c0		 test	 eax, eax
  00012	8b 8e f0 00 00
	00		 mov	 ecx, DWORD PTR [esi+240]
  00018	0f b7 51 14	 movzx	 edx, WORD PTR [ecx+20]
  0001c	89 54 24 04	 mov	 DWORD PTR _dwDL$[esp+8], edx
  00020	74 25		 je	 SHORT $L152480
  00022	8b 88 40 01 01
	00		 mov	 ecx, DWORD PTR [eax+65856]
  00028	85 c9		 test	 ecx, ecx
  0002a	74 1b		 je	 SHORT $L152480
  0002c	8a 88 a8 04 01
	00		 mov	 cl, BYTE PTR [eax+66728]
  00032	84 c9		 test	 cl, cl
  00034	74 11		 je	 SHORT $L152480

; 311  : 		dwDL += pPlayer->CalcItemAbility(ABILITY_DL);

  00036	8d 88 00 01 01
	00		 lea	 ecx, DWORD PTR [eax+65792]
  0003c	8b 01		 mov	 eax, DWORD PTR [ecx]
  0003e	6a 11		 push	 17			; 00000011H
  00040	ff 50 44	 call	 DWORD PTR [eax+68]
  00043	01 44 24 04	 add	 DWORD PTR _dwDL$[esp+8], eax
$L152480:

; 312  : 
; 313  : 	CalcAbilityValue(dwDL, MTYPE_DL);

  00047	8b 16		 mov	 edx, DWORD PTR [esi]
  00049	6a 00		 push	 0
  0004b	6a 0c		 push	 12			; 0000000cH
  0004d	8d 44 24 0c	 lea	 eax, DWORD PTR _dwDL$[esp+16]
  00051	50		 push	 eax
  00052	8b ce		 mov	 ecx, esi
  00054	ff 52 34	 call	 DWORD PTR [edx+52]

; 314  : 	return WORD(dwDL);

  00057	66 8b 44 24 04	 mov	 ax, WORD PTR _dwDL$[esp+8]
  0005c	5e		 pop	 esi

; 315  : }

  0005d	59		 pop	 ecx
  0005e	c3		 ret	 0
?GetDefendLevel@CTRecallMon@@UAEGXZ ENDP		; CTRecallMon::GetDefendLevel
_TEXT	ENDS
PUBLIC	?GetMagicAtkLevel@CTRecallMon@@UAEGXZ		; CTRecallMon::GetMagicAtkLevel
; Function compile flags: /Ogty
;	COMDAT ?GetMagicAtkLevel@CTRecallMon@@UAEGXZ
_TEXT	SEGMENT
_dwAL$ = -4						; size = 4
?GetMagicAtkLevel@CTRecallMon@@UAEGXZ PROC NEAR		; CTRecallMon::GetMagicAtkLevel, COMDAT
; _this$ = ecx

; 317  : {

  00000	51		 push	 ecx
  00001	56		 push	 esi
  00002	8b f1		 mov	 esi, ecx

; 318  : 	CTPlayer * pPlayer = FindHost(m_dwHostID);

  00004	8b 86 f8 00 00
	00		 mov	 eax, DWORD PTR [esi+248]
  0000a	50		 push	 eax
  0000b	e8 00 00 00 00	 call	 ?FindHost@CTMonster@@QAEPAVCTPlayer@@K@Z ; CTMonster::FindHost

; 319  : 
; 320  : 	DWORD dwAL = m_pATTR->m_wMAL;
; 321  : 	if(pPlayer && pPlayer->m_pMAP && pPlayer->m_bMain)

  00010	85 c0		 test	 eax, eax
  00012	8b 8e f0 00 00
	00		 mov	 ecx, DWORD PTR [esi+240]
  00018	0f b7 51 12	 movzx	 edx, WORD PTR [ecx+18]
  0001c	89 54 24 04	 mov	 DWORD PTR _dwAL$[esp+8], edx
  00020	74 25		 je	 SHORT $L152486
  00022	8b 88 40 01 01
	00		 mov	 ecx, DWORD PTR [eax+65856]
  00028	85 c9		 test	 ecx, ecx
  0002a	74 1b		 je	 SHORT $L152486
  0002c	8a 88 a8 04 01
	00		 mov	 cl, BYTE PTR [eax+66728]
  00032	84 c9		 test	 cl, cl
  00034	74 11		 je	 SHORT $L152486

; 322  : 		dwAL += pPlayer->CalcItemAbility(ABILITY_MAL);

  00036	8d 88 00 01 01
	00		 lea	 ecx, DWORD PTR [eax+65792]
  0003c	8b 01		 mov	 eax, DWORD PTR [ecx]
  0003e	6a 12		 push	 18			; 00000012H
  00040	ff 50 44	 call	 DWORD PTR [eax+68]
  00043	01 44 24 04	 add	 DWORD PTR _dwAL$[esp+8], eax
$L152486:

; 323  : 
; 324  : 	CalcAbilityValue(dwAL, MTYPE_MAL);

  00047	8b 16		 mov	 edx, DWORD PTR [esi]
  00049	6a 00		 push	 0
  0004b	6a 56		 push	 86			; 00000056H
  0004d	8d 44 24 0c	 lea	 eax, DWORD PTR _dwAL$[esp+16]
  00051	50		 push	 eax
  00052	8b ce		 mov	 ecx, esi
  00054	ff 52 34	 call	 DWORD PTR [edx+52]

; 325  : 	return WORD(dwAL);

  00057	66 8b 44 24 04	 mov	 ax, WORD PTR _dwAL$[esp+8]
  0005c	5e		 pop	 esi

; 326  : }

  0005d	59		 pop	 ecx
  0005e	c3		 ret	 0
?GetMagicAtkLevel@CTRecallMon@@UAEGXZ ENDP		; CTRecallMon::GetMagicAtkLevel
_TEXT	ENDS
PUBLIC	?GetMagicDefLevel@CTRecallMon@@UAEGXZ		; CTRecallMon::GetMagicDefLevel
; Function compile flags: /Ogty
;	COMDAT ?GetMagicDefLevel@CTRecallMon@@UAEGXZ
_TEXT	SEGMENT
_dwDL$ = -4						; size = 4
?GetMagicDefLevel@CTRecallMon@@UAEGXZ PROC NEAR		; CTRecallMon::GetMagicDefLevel, COMDAT
; _this$ = ecx

; 328  : {

  00000	51		 push	 ecx
  00001	56		 push	 esi
  00002	8b f1		 mov	 esi, ecx

; 329  : 	CTPlayer * pPlayer = FindHost(m_dwHostID);

  00004	8b 86 f8 00 00
	00		 mov	 eax, DWORD PTR [esi+248]
  0000a	50		 push	 eax
  0000b	e8 00 00 00 00	 call	 ?FindHost@CTMonster@@QAEPAVCTPlayer@@K@Z ; CTMonster::FindHost

; 330  : 
; 331  : 	DWORD dwDL = m_pATTR->m_wMDL;
; 332  : 	if(pPlayer && pPlayer->m_pMAP && pPlayer->m_bMain)

  00010	85 c0		 test	 eax, eax
  00012	8b 8e f0 00 00
	00		 mov	 ecx, DWORD PTR [esi+240]
  00018	0f b7 51 16	 movzx	 edx, WORD PTR [ecx+22]
  0001c	89 54 24 04	 mov	 DWORD PTR _dwDL$[esp+8], edx
  00020	74 25		 je	 SHORT $L152492
  00022	8b 88 40 01 01
	00		 mov	 ecx, DWORD PTR [eax+65856]
  00028	85 c9		 test	 ecx, ecx
  0002a	74 1b		 je	 SHORT $L152492
  0002c	8a 88 a8 04 01
	00		 mov	 cl, BYTE PTR [eax+66728]
  00032	84 c9		 test	 cl, cl
  00034	74 11		 je	 SHORT $L152492

; 333  : 		dwDL += pPlayer->CalcItemAbility(ABILITY_MDL);

  00036	8d 88 00 01 01
	00		 lea	 ecx, DWORD PTR [eax+65792]
  0003c	8b 01		 mov	 eax, DWORD PTR [ecx]
  0003e	6a 13		 push	 19			; 00000013H
  00040	ff 50 44	 call	 DWORD PTR [eax+68]
  00043	01 44 24 04	 add	 DWORD PTR _dwDL$[esp+8], eax
$L152492:

; 334  : 
; 335  : 	CalcAbilityValue(dwDL, MTYPE_MDL);

  00047	8b 16		 mov	 edx, DWORD PTR [esi]
  00049	6a 00		 push	 0
  0004b	6a 57		 push	 87			; 00000057H
  0004d	8d 44 24 0c	 lea	 eax, DWORD PTR _dwDL$[esp+16]
  00051	50		 push	 eax
  00052	8b ce		 mov	 ecx, esi
  00054	ff 52 34	 call	 DWORD PTR [edx+52]

; 336  : 	return WORD(dwDL);

  00057	66 8b 44 24 04	 mov	 ax, WORD PTR _dwDL$[esp+8]
  0005c	5e		 pop	 esi

; 337  : }

  0005d	59		 pop	 ecx
  0005e	c3		 ret	 0
?GetMagicDefLevel@CTRecallMon@@UAEGXZ ENDP		; CTRecallMon::GetMagicDefLevel
_TEXT	ENDS
PUBLIC	?GetCriticalPysProb@CTRecallMon@@UAEEXZ		; CTRecallMon::GetCriticalPysProb
; Function compile flags: /Ogty
;	COMDAT ?GetCriticalPysProb@CTRecallMon@@UAEEXZ
_TEXT	SEGMENT
_dwCR$ = -4						; size = 4
?GetCriticalPysProb@CTRecallMon@@UAEEXZ PROC NEAR	; CTRecallMon::GetCriticalPysProb, COMDAT
; _this$ = ecx

; 339  : {

  00000	51		 push	 ecx
  00001	56		 push	 esi
  00002	8b f1		 mov	 esi, ecx

; 340  : 	CTPlayer * pPlayer = FindHost(m_dwHostID);

  00004	8b 86 f8 00 00
	00		 mov	 eax, DWORD PTR [esi+248]
  0000a	50		 push	 eax
  0000b	e8 00 00 00 00	 call	 ?FindHost@CTMonster@@QAEPAVCTPlayer@@K@Z ; CTMonster::FindHost

; 341  : 
; 342  : 	DWORD dwCR = m_pATTR->m_bCriticalPP;
; 343  : 	if(pPlayer && pPlayer->m_pMAP && pPlayer->m_bMain)

  00010	85 c0		 test	 eax, eax
  00012	8b 8e f0 00 00
	00		 mov	 ecx, DWORD PTR [esi+240]
  00018	0f b6 51 18	 movzx	 edx, BYTE PTR [ecx+24]
  0001c	89 54 24 04	 mov	 DWORD PTR _dwCR$[esp+8], edx
  00020	74 25		 je	 SHORT $L152498
  00022	8b 88 40 01 01
	00		 mov	 ecx, DWORD PTR [eax+65856]
  00028	85 c9		 test	 ecx, ecx
  0002a	74 1b		 je	 SHORT $L152498
  0002c	8a 88 a8 04 01
	00		 mov	 cl, BYTE PTR [eax+66728]
  00032	84 c9		 test	 cl, cl
  00034	74 11		 je	 SHORT $L152498

; 344  : 		dwCR += pPlayer->CalcItemAbility(ABILITY_PCR);

  00036	8d 88 00 01 01
	00		 lea	 ecx, DWORD PTR [eax+65792]
  0003c	8b 01		 mov	 eax, DWORD PTR [ecx]
  0003e	6a 14		 push	 20			; 00000014H
  00040	ff 50 44	 call	 DWORD PTR [eax+68]
  00043	01 44 24 04	 add	 DWORD PTR _dwCR$[esp+8], eax
$L152498:

; 345  : 
; 346  : 	CalcAbilityValue(dwCR, MTYPE_CR);

  00047	8b 16		 mov	 edx, DWORD PTR [esi]
  00049	6a 00		 push	 0
  0004b	6a 0d		 push	 13			; 0000000dH
  0004d	8d 44 24 0c	 lea	 eax, DWORD PTR _dwCR$[esp+16]
  00051	50		 push	 eax
  00052	8b ce		 mov	 ecx, esi
  00054	ff 52 34	 call	 DWORD PTR [edx+52]

; 347  : 	return BYTE(dwCR);

  00057	8a 44 24 04	 mov	 al, BYTE PTR _dwCR$[esp+8]
  0005b	5e		 pop	 esi

; 348  : }

  0005c	59		 pop	 ecx
  0005d	c3		 ret	 0
?GetCriticalPysProb@CTRecallMon@@UAEEXZ ENDP		; CTRecallMon::GetCriticalPysProb
_TEXT	ENDS
PUBLIC	?GetCriticalMagicProb@CTRecallMon@@UAEEXZ	; CTRecallMon::GetCriticalMagicProb
; Function compile flags: /Ogty
;	COMDAT ?GetCriticalMagicProb@CTRecallMon@@UAEEXZ
_TEXT	SEGMENT
_dwCR$ = -4						; size = 4
?GetCriticalMagicProb@CTRecallMon@@UAEEXZ PROC NEAR	; CTRecallMon::GetCriticalMagicProb, COMDAT
; _this$ = ecx

; 350  : {

  00000	51		 push	 ecx
  00001	56		 push	 esi
  00002	8b f1		 mov	 esi, ecx

; 351  : 	CTPlayer * pPlayer = FindHost(m_dwHostID);

  00004	8b 86 f8 00 00
	00		 mov	 eax, DWORD PTR [esi+248]
  0000a	50		 push	 eax
  0000b	e8 00 00 00 00	 call	 ?FindHost@CTMonster@@QAEPAVCTPlayer@@K@Z ; CTMonster::FindHost

; 352  : 
; 353  : 	DWORD dwCR = m_pATTR->m_bCriticalMP;
; 354  : 	if(pPlayer && pPlayer->m_pMAP && pPlayer->m_bMain)

  00010	85 c0		 test	 eax, eax
  00012	8b 8e f0 00 00
	00		 mov	 ecx, DWORD PTR [esi+240]
  00018	0f b6 51 24	 movzx	 edx, BYTE PTR [ecx+36]
  0001c	89 54 24 04	 mov	 DWORD PTR _dwCR$[esp+8], edx
  00020	74 21		 je	 SHORT $L152504
  00022	8b 88 40 01 01
	00		 mov	 ecx, DWORD PTR [eax+65856]
  00028	85 c9		 test	 ecx, ecx
  0002a	74 17		 je	 SHORT $L152504
  0002c	8a 88 a8 04 01
	00		 mov	 cl, BYTE PTR [eax+66728]
  00032	84 c9		 test	 cl, cl
  00034	74 0d		 je	 SHORT $L152504

; 355  : 		dwCR += CalcItemAbility(ABILITY_MCR);

  00036	8b 06		 mov	 eax, DWORD PTR [esi]
  00038	6a 15		 push	 21			; 00000015H
  0003a	8b ce		 mov	 ecx, esi
  0003c	ff 50 44	 call	 DWORD PTR [eax+68]
  0003f	01 44 24 04	 add	 DWORD PTR _dwCR$[esp+8], eax
$L152504:

; 356  : 
; 357  : 	CalcAbilityValue(dwCR, MTYPE_MCR);

  00043	8b 16		 mov	 edx, DWORD PTR [esi]
  00045	6a 00		 push	 0
  00047	6a 15		 push	 21			; 00000015H
  00049	8d 44 24 0c	 lea	 eax, DWORD PTR _dwCR$[esp+16]
  0004d	50		 push	 eax
  0004e	8b ce		 mov	 ecx, esi
  00050	ff 52 34	 call	 DWORD PTR [edx+52]

; 358  : 	return BYTE(dwCR);

  00053	8a 44 24 04	 mov	 al, BYTE PTR _dwCR$[esp+8]
  00057	5e		 pop	 esi

; 359  : }

  00058	59		 pop	 ecx
  00059	c3		 ret	 0
?GetCriticalMagicProb@CTRecallMon@@UAEEXZ ENDP		; CTRecallMon::GetCriticalMagicProb
_TEXT	ENDS
PUBLIC	?size@?$vector@PAVCTMonster@@V?$allocator@PAVCTMonster@@@std@@@std@@QBEIXZ ; std::vector<CTMonster *,std::allocator<CTMonster *> >::size
; Function compile flags: /Ogty
; File c:\program files (x86)\microsoft visual studio .net 2003\vc7\include\vector
;	COMDAT ?size@?$vector@PAVCTMonster@@V?$allocator@PAVCTMonster@@@std@@@std@@QBEIXZ
_TEXT	SEGMENT
?size@?$vector@PAVCTMonster@@V?$allocator@PAVCTMonster@@@std@@@std@@QBEIXZ PROC NEAR ; std::vector<CTMonster *,std::allocator<CTMonster *> >::size, COMDAT
; _this$ = ecx

; 516  : 		return (_Myfirst == 0 ? 0 : _Mylast - _Myfirst);

  00000	8b 51 04	 mov	 edx, DWORD PTR [ecx+4]
  00003	85 d2		 test	 edx, edx
  00005	75 03		 jne	 SHORT $L153501
  00007	33 c0		 xor	 eax, eax

; 517  : 		}

  00009	c3		 ret	 0
$L153501:

; 516  : 		return (_Myfirst == 0 ? 0 : _Mylast - _Myfirst);

  0000a	8b 41 08	 mov	 eax, DWORD PTR [ecx+8]
  0000d	2b c2		 sub	 eax, edx
  0000f	c1 f8 02	 sar	 eax, 2

; 517  : 		}

  00012	c3		 ret	 0
?size@?$vector@PAVCTMonster@@V?$allocator@PAVCTMonster@@@std@@@std@@QBEIXZ ENDP ; std::vector<CTMonster *,std::allocator<CTMonster *> >::size
_TEXT	ENDS
PUBLIC	??0?$allocator@PAVCTMonster@@@std@@QAE@XZ	; std::allocator<CTMonster *>::allocator<CTMonster *>
; Function compile flags: /Ogty
; File c:\program files (x86)\microsoft visual studio .net 2003\vc7\include\xmemory
;	COMDAT ??0?$allocator@PAVCTMonster@@@std@@QAE@XZ
_TEXT	SEGMENT
??0?$allocator@PAVCTMonster@@@std@@QAE@XZ PROC NEAR	; std::allocator<CTMonster *>::allocator<CTMonster *>, COMDAT
; _this$ = ecx

; 111  : 	allocator()

  00000	8b c1		 mov	 eax, ecx

; 112  : 		{	// construct default allocator (do nothing)
; 113  : 		}

  00002	c3		 ret	 0
??0?$allocator@PAVCTMonster@@@std@@QAE@XZ ENDP		; std::allocator<CTMonster *>::allocator<CTMonster *>
_TEXT	ENDS
PUBLIC	??R?$less@_J@std@@QBE_NAB_J0@Z			; std::less<__int64>::operator()
; Function compile flags: /Ogty
; File c:\program files (x86)\microsoft visual studio .net 2003\vc7\include\functional
;	COMDAT ??R?$less@_J@std@@QBE_NAB_J0@Z
_TEXT	SEGMENT
__Left$ = 8						; size = 4
__Right$ = 12						; size = 4
??R?$less@_J@std@@QBE_NAB_J0@Z PROC NEAR		; std::less<__int64>::operator(), COMDAT
; _this$ = ecx

; 139  : 		return (_Left < _Right);

  00000	8b 44 24 04	 mov	 eax, DWORD PTR __Left$[esp-4]
  00004	8b 4c 24 08	 mov	 ecx, DWORD PTR __Right$[esp-4]
  00008	8b 50 04	 mov	 edx, DWORD PTR [eax+4]
  0000b	3b 51 04	 cmp	 edx, DWORD PTR [ecx+4]
  0000e	7f 10		 jg	 SHORT $L153509
  00010	7c 06		 jl	 SHORT $L153511
  00012	8b 00		 mov	 eax, DWORD PTR [eax]
  00014	3b 01		 cmp	 eax, DWORD PTR [ecx]
  00016	73 08		 jae	 SHORT $L153509
$L153511:
  00018	b8 01 00 00 00	 mov	 eax, 1

; 140  : 		}

  0001d	c2 08 00	 ret	 8
$L153509:

; 139  : 		return (_Left < _Right);

  00020	33 c0		 xor	 eax, eax

; 140  : 		}

  00022	c2 08 00	 ret	 8
??R?$less@_J@std@@QBE_NAB_J0@Z ENDP			; std::less<__int64>::operator()
_TEXT	ENDS
PUBLIC	??8const_iterator@?$_Tree@V?$_Tmap_traits@_JUtagAGGRO@@U?$less@_J@std@@V?$allocator@U?$pair@$$CB_JUtagAGGRO@@@std@@@3@$0A@@std@@@std@@QBE_NABV012@@Z ; std::_Tree<std::_Tmap_traits<__int64,tagAGGRO,std::less<__int64>,std::allocator<std::pair<__int64 const ,tagAGGRO> >,0> >::const_iterator::operator==
; Function compile flags: /Ogty
; File c:\program files (x86)\microsoft visual studio .net 2003\vc7\include\xtree
;	COMDAT ??8const_iterator@?$_Tree@V?$_Tmap_traits@_JUtagAGGRO@@U?$less@_J@std@@V?$allocator@U?$pair@$$CB_JUtagAGGRO@@@std@@@3@$0A@@std@@@std@@QBE_NABV012@@Z
_TEXT	SEGMENT
__Right$ = 8						; size = 4
??8const_iterator@?$_Tree@V?$_Tmap_traits@_JUtagAGGRO@@U?$less@_J@std@@V?$allocator@U?$pair@$$CB_JUtagAGGRO@@@std@@@3@$0A@@std@@@std@@QBE_NABV012@@Z PROC NEAR ; std::_Tree<std::_Tmap_traits<__int64,tagAGGRO,std::less<__int64>,std::allocator<std::pair<__int64 const ,tagAGGRO> >,0> >::const_iterator::operator==, COMDAT
; _this$ = ecx

; 241  : 			return (_Ptr == _Right._Ptr);

  00000	8b 01		 mov	 eax, DWORD PTR [ecx]
  00002	8b 4c 24 04	 mov	 ecx, DWORD PTR __Right$[esp-4]
  00006	2b 01		 sub	 eax, DWORD PTR [ecx]
  00008	f7 d8		 neg	 eax
  0000a	1b c0		 sbb	 eax, eax
  0000c	40		 inc	 eax

; 242  : 			}

  0000d	c2 04 00	 ret	 4
??8const_iterator@?$_Tree@V?$_Tmap_traits@_JUtagAGGRO@@U?$less@_J@std@@V?$allocator@U?$pair@$$CB_JUtagAGGRO@@@std@@@3@$0A@@std@@@std@@QBE_NABV012@@Z ENDP ; std::_Tree<std::_Tmap_traits<__int64,tagAGGRO,std::less<__int64>,std::allocator<std::pair<__int64 const ,tagAGGRO> >,0> >::const_iterator::operator==
_TEXT	ENDS
PUBLIC	?_Mynode@const_iterator@?$_Tree@V?$_Tmap_traits@_JUtagAGGRO@@U?$less@_J@std@@V?$allocator@U?$pair@$$CB_JUtagAGGRO@@@std@@@3@$0A@@std@@@std@@QBEPAU_Node@?$_Tree_nod@V?$_Tmap_traits@_JUtagAGGRO@@U?$less@_J@std@@V?$allocator@U?$pair@$$CB_JUtagAGGRO@@@std@@@3@$0A@@std@@@3@XZ ; std::_Tree<std::_Tmap_traits<__int64,tagAGGRO,std::less<__int64>,std::allocator<std::pair<__int64 const ,tagAGGRO> >,0> >::const_iterator::_Mynode
; Function compile flags: /Ogty
;	COMDAT ?_Mynode@const_iterator@?$_Tree@V?$_Tmap_traits@_JUtagAGGRO@@U?$less@_J@std@@V?$allocator@U?$pair@$$CB_JUtagAGGRO@@@std@@@3@$0A@@std@@@std@@QBEPAU_Node@?$_Tree_nod@V?$_Tmap_traits@_JUtagAGGRO@@U?$less@_J@std@@V?$allocator@U?$pair@$$CB_JUtagAGGRO@@@std@@@3@$0A@@std@@@3@XZ
_TEXT	SEGMENT
?_Mynode@const_iterator@?$_Tree@V?$_Tmap_traits@_JUtagAGGRO@@U?$less@_J@std@@V?$allocator@U?$pair@$$CB_JUtagAGGRO@@@std@@@3@$0A@@std@@@std@@QBEPAU_Node@?$_Tree_nod@V?$_Tmap_traits@_JUtagAGGRO@@U?$less@_J@std@@V?$allocator@U?$pair@$$CB_JUtagAGGRO@@@std@@@3@$0A@@std@@@3@XZ PROC NEAR ; std::_Tree<std::_Tmap_traits<__int64,tagAGGRO,std::less<__int64>,std::allocator<std::pair<__int64 const ,tagAGGRO> >,0> >::const_iterator::_Mynode, COMDAT
; _this$ = ecx

; 284  : 			return (_Ptr);

  00000	8b 01		 mov	 eax, DWORD PTR [ecx]

; 285  : 			}

  00002	c3		 ret	 0
?_Mynode@const_iterator@?$_Tree@V?$_Tmap_traits@_JUtagAGGRO@@U?$less@_J@std@@V?$allocator@U?$pair@$$CB_JUtagAGGRO@@@std@@@3@$0A@@std@@@std@@QBEPAU_Node@?$_Tree_nod@V?$_Tmap_traits@_JUtagAGGRO@@U?$less@_J@std@@V?$allocator@U?$pair@$$CB_JUtagAGGRO@@@std@@@3@$0A@@std@@@3@XZ ENDP ; std::_Tree<std::_Tmap_traits<__int64,tagAGGRO,std::less<__int64>,std::allocator<std::pair<__int64 const ,tagAGGRO> >,0> >::const_iterator::_Mynode
_TEXT	ENDS
PUBLIC	??0?$allocator@PAVCTMonster@@@std@@QAE@ABV01@@Z	; std::allocator<CTMonster *>::allocator<CTMonster *>
; Function compile flags: /Ogty
; File c:\program files (x86)\microsoft visual studio .net 2003\vc7\include\xmemory
;	COMDAT ??0?$allocator@PAVCTMonster@@@std@@QAE@ABV01@@Z
_TEXT	SEGMENT
___formal$ = 8						; size = 4
??0?$allocator@PAVCTMonster@@@std@@QAE@ABV01@@Z PROC NEAR ; std::allocator<CTMonster *>::allocator<CTMonster *>, COMDAT
; _this$ = ecx

; 115  : 	allocator(const allocator<_Ty>&)

  00000	8b c1		 mov	 eax, ecx

; 116  : 		{	// construct by copying (do nothing)
; 117  : 		}

  00002	c2 04 00	 ret	 4
??0?$allocator@PAVCTMonster@@@std@@QAE@ABV01@@Z ENDP	; std::allocator<CTMonster *>::allocator<CTMonster *>
_TEXT	ENDS
PUBLIC	?deallocate@?$allocator@PAVCTMonster@@@std@@QAEXPAPAVCTMonster@@I@Z ; std::allocator<CTMonster *>::deallocate
EXTRN	??3@YAXPAX@Z:NEAR				; operator delete
; Function compile flags: /Ogty
;	COMDAT ?deallocate@?$allocator@PAVCTMonster@@@std@@QAEXPAPAVCTMonster@@I@Z
_TEXT	SEGMENT
__Ptr$ = 8						; size = 4
___formal$ = 12						; size = 4
?deallocate@?$allocator@PAVCTMonster@@@std@@QAEXPAPAVCTMonster@@I@Z PROC NEAR ; std::allocator<CTMonster *>::deallocate, COMDAT
; _this$ = ecx

; 132  : 		operator delete(_Ptr);

  00000	8b 44 24 04	 mov	 eax, DWORD PTR __Ptr$[esp-4]
  00004	50		 push	 eax
  00005	e8 00 00 00 00	 call	 ??3@YAXPAX@Z		; operator delete
  0000a	59		 pop	 ecx

; 133  : 		}

  0000b	c2 08 00	 ret	 8
?deallocate@?$allocator@PAVCTMonster@@@std@@QAEXPAPAVCTMonster@@I@Z ENDP ; std::allocator<CTMonster *>::deallocate
_TEXT	ENDS
PUBLIC	?_Myval@?$_Tree@V?$_Tmap_traits@_JUtagAGGRO@@U?$less@_J@std@@V?$allocator@U?$pair@$$CB_JUtagAGGRO@@@std@@@3@$0A@@std@@@std@@KAAAU?$pair@$$CB_JUtagAGGRO@@@2@PAU_Node@?$_Tree_nod@V?$_Tmap_traits@_JUtagAGGRO@@U?$less@_J@std@@V?$allocator@U?$pair@$$CB_JUtagAGGRO@@@std@@@3@$0A@@std@@@2@@Z ; std::_Tree<std::_Tmap_traits<__int64,tagAGGRO,std::less<__int64>,std::allocator<std::pair<__int64 const ,tagAGGRO> >,0> >::_Myval
; Function compile flags: /Ogty
; File c:\program files (x86)\microsoft visual studio .net 2003\vc7\include\xtree
;	COMDAT ?_Myval@?$_Tree@V?$_Tmap_traits@_JUtagAGGRO@@U?$less@_J@std@@V?$allocator@U?$pair@$$CB_JUtagAGGRO@@@std@@@3@$0A@@std@@@std@@KAAAU?$pair@$$CB_JUtagAGGRO@@@2@PAU_Node@?$_Tree_nod@V?$_Tmap_traits@_JUtagAGGRO@@U?$less@_J@std@@V?$allocator@U?$pair@$$CB_JUtagAGGRO@@@std@@@3@$0A@@std@@@2@@Z
_TEXT	SEGMENT
__Pnode$ = 8						; size = 4
?_Myval@?$_Tree@V?$_Tmap_traits@_JUtagAGGRO@@U?$less@_J@std@@V?$allocator@U?$pair@$$CB_JUtagAGGRO@@@std@@@3@$0A@@std@@@std@@KAAAU?$pair@$$CB_JUtagAGGRO@@@2@PAU_Node@?$_Tree_nod@V?$_Tmap_traits@_JUtagAGGRO@@U?$less@_J@std@@V?$allocator@U?$pair@$$CB_JUtagAGGRO@@@std@@@3@$0A@@std@@@2@@Z PROC NEAR ; std::_Tree<std::_Tmap_traits<__int64,tagAGGRO,std::less<__int64>,std::allocator<std::pair<__int64 const ,tagAGGRO> >,0> >::_Myval, COMDAT

; 162  : 		return ((_Vref)(*_Pnode)._Myval);

  00000	8b 44 24 04	 mov	 eax, DWORD PTR __Pnode$[esp-4]
  00004	83 c0 10	 add	 eax, 16			; 00000010H

; 163  : 		}

  00007	c3		 ret	 0
?_Myval@?$_Tree@V?$_Tmap_traits@_JUtagAGGRO@@U?$less@_J@std@@V?$allocator@U?$pair@$$CB_JUtagAGGRO@@@std@@@3@$0A@@std@@@std@@KAAAU?$pair@$$CB_JUtagAGGRO@@@2@PAU_Node@?$_Tree_nod@V?$_Tmap_traits@_JUtagAGGRO@@U?$less@_J@std@@V?$allocator@U?$pair@$$CB_JUtagAGGRO@@@std@@@3@$0A@@std@@@2@@Z ENDP ; std::_Tree<std::_Tmap_traits<__int64,tagAGGRO,std::less<__int64>,std::allocator<std::pair<__int64 const ,tagAGGRO> >,0> >::_Myval
_TEXT	ENDS
PUBLIC	?_Kfn@?$_Tmap_traits@_JUtagAGGRO@@U?$less@_J@std@@V?$allocator@U?$pair@$$CB_JUtagAGGRO@@@std@@@3@$0A@@std@@SAAB_JABU?$pair@$$CB_JUtagAGGRO@@@2@@Z ; std::_Tmap_traits<__int64,tagAGGRO,std::less<__int64>,std::allocator<std::pair<__int64 const ,tagAGGRO> >,0>::_Kfn
; Function compile flags: /Ogty
; File c:\program files (x86)\microsoft visual studio .net 2003\vc7\include\map
;	COMDAT ?_Kfn@?$_Tmap_traits@_JUtagAGGRO@@U?$less@_J@std@@V?$allocator@U?$pair@$$CB_JUtagAGGRO@@@std@@@3@$0A@@std@@SAAB_JABU?$pair@$$CB_JUtagAGGRO@@@2@@Z
_TEXT	SEGMENT
__Val$ = 8						; size = 4
?_Kfn@?$_Tmap_traits@_JUtagAGGRO@@U?$less@_J@std@@V?$allocator@U?$pair@$$CB_JUtagAGGRO@@@std@@@3@$0A@@std@@SAAB_JABU?$pair@$$CB_JUtagAGGRO@@@2@@Z PROC NEAR ; std::_Tmap_traits<__int64,tagAGGRO,std::less<__int64>,std::allocator<std::pair<__int64 const ,tagAGGRO> >,0>::_Kfn, COMDAT

; 64   : 		return (_Val.first);

  00000	8b 44 24 04	 mov	 eax, DWORD PTR __Val$[esp-4]

; 65   : 		}

  00004	c3		 ret	 0
?_Kfn@?$_Tmap_traits@_JUtagAGGRO@@U?$less@_J@std@@V?$allocator@U?$pair@$$CB_JUtagAGGRO@@@std@@@3@$0A@@std@@SAAB_JABU?$pair@$$CB_JUtagAGGRO@@@2@@Z ENDP ; std::_Tmap_traits<__int64,tagAGGRO,std::less<__int64>,std::allocator<std::pair<__int64 const ,tagAGGRO> >,0>::_Kfn
_TEXT	ENDS
PUBLIC	??0const_iterator@?$_Tree@V?$_Tmap_traits@_JUtagAGGRO@@U?$less@_J@std@@V?$allocator@U?$pair@$$CB_JUtagAGGRO@@@std@@@3@$0A@@std@@@std@@QAE@PAU_Node@?$_Tree_nod@V?$_Tmap_traits@_JUtagAGGRO@@U?$less@_J@std@@V?$allocator@U?$pair@$$CB_JUtagAGGRO@@@std@@@3@$0A@@std@@@2@@Z ; std::_Tree<std::_Tmap_traits<__int64,tagAGGRO,std::less<__int64>,std::allocator<std::pair<__int64 const ,tagAGGRO> >,0> >::const_iterator::const_iterator
; Function compile flags: /Ogty
; File c:\program files (x86)\microsoft visual studio .net 2003\vc7\include\xtree
;	COMDAT ??0const_iterator@?$_Tree@V?$_Tmap_traits@_JUtagAGGRO@@U?$less@_J@std@@V?$allocator@U?$pair@$$CB_JUtagAGGRO@@@std@@@3@$0A@@std@@@std@@QAE@PAU_Node@?$_Tree_nod@V?$_Tmap_traits@_JUtagAGGRO@@U?$less@_J@std@@V?$allocator@U?$pair@$$CB_JUtagAGGRO@@@std@@@3@$0A@@std@@@2@@Z
_TEXT	SEGMENT
__Pnode$ = 8						; size = 4
??0const_iterator@?$_Tree@V?$_Tmap_traits@_JUtagAGGRO@@U?$less@_J@std@@V?$allocator@U?$pair@$$CB_JUtagAGGRO@@@std@@@3@$0A@@std@@@std@@QAE@PAU_Node@?$_Tree_nod@V?$_Tmap_traits@_JUtagAGGRO@@U?$less@_J@std@@V?$allocator@U?$pair@$$CB_JUtagAGGRO@@@std@@@3@$0A@@std@@@2@@Z PROC NEAR ; std::_Tree<std::_Tmap_traits<__int64,tagAGGRO,std::less<__int64>,std::allocator<std::pair<__int64 const ,tagAGGRO> >,0> >::const_iterator::const_iterator, COMDAT
; _this$ = ecx

; 200  : 			{	// construct with node pointer _Pnode

  00000	8b c1		 mov	 eax, ecx
  00002	8b 4c 24 04	 mov	 ecx, DWORD PTR __Pnode$[esp-4]
  00006	89 08		 mov	 DWORD PTR [eax], ecx

; 201  : 			}

  00008	c2 04 00	 ret	 4
??0const_iterator@?$_Tree@V?$_Tmap_traits@_JUtagAGGRO@@U?$less@_J@std@@V?$allocator@U?$pair@$$CB_JUtagAGGRO@@@std@@@3@$0A@@std@@@std@@QAE@PAU_Node@?$_Tree_nod@V?$_Tmap_traits@_JUtagAGGRO@@U?$less@_J@std@@V?$allocator@U?$pair@$$CB_JUtagAGGRO@@@std@@@3@$0A@@std@@@2@@Z ENDP ; std::_Tree<std::_Tmap_traits<__int64,tagAGGRO,std::less<__int64>,std::allocator<std::pair<__int64 const ,tagAGGRO> >,0> >::const_iterator::const_iterator
_TEXT	ENDS
PUBLIC	??Dconst_iterator@?$vector@PAVCTMonster@@V?$allocator@PAVCTMonster@@@std@@@std@@QBEABQAVCTMonster@@XZ ; std::vector<CTMonster *,std::allocator<CTMonster *> >::const_iterator::operator*
; Function compile flags: /Ogty
; File c:\program files (x86)\microsoft visual studio .net 2003\vc7\include\vector
;	COMDAT ??Dconst_iterator@?$vector@PAVCTMonster@@V?$allocator@PAVCTMonster@@@std@@@std@@QBEABQAVCTMonster@@XZ
_TEXT	SEGMENT
??Dconst_iterator@?$vector@PAVCTMonster@@V?$allocator@PAVCTMonster@@@std@@@std@@QBEABQAVCTMonster@@XZ PROC NEAR ; std::vector<CTMonster *,std::allocator<CTMonster *> >::const_iterator::operator*, COMDAT
; _this$ = ecx

; 80   : 
; 81   : 
; 82   : 			return (*_Myptr);

  00000	8b 01		 mov	 eax, DWORD PTR [ecx]

; 83   : 			}

  00002	c3		 ret	 0
??Dconst_iterator@?$vector@PAVCTMonster@@V?$allocator@PAVCTMonster@@@std@@@std@@QBEABQAVCTMonster@@XZ ENDP ; std::vector<CTMonster *,std::allocator<CTMonster *> >::const_iterator::operator*
_TEXT	ENDS
PUBLIC	?max_size@?$allocator@PAVCTMonster@@@std@@QBEIXZ ; std::allocator<CTMonster *>::max_size
; Function compile flags: /Ogty
; File c:\program files (x86)\microsoft visual studio .net 2003\vc7\include\xmemory
;	COMDAT ?max_size@?$allocator@PAVCTMonster@@@std@@QBEIXZ
_TEXT	SEGMENT
?max_size@?$allocator@PAVCTMonster@@@std@@QBEIXZ PROC NEAR ; std::allocator<CTMonster *>::max_size, COMDAT
; _this$ = ecx

; 157  : 		_SIZT _Count = (_SIZT)(-1) / sizeof (_Ty);
; 158  : 		return (0 < _Count ? _Count : 1);

  00000	b8 ff ff ff 3f	 mov	 eax, 1073741823		; 3fffffffH

; 159  : 		}

  00005	c3		 ret	 0
?max_size@?$allocator@PAVCTMonster@@@std@@QBEIXZ ENDP	; std::allocator<CTMonster *>::max_size
_TEXT	ENDS
PUBLIC	?_Isnil@?$_Tree@V?$_Tmap_traits@_JUtagAGGRO@@U?$less@_J@std@@V?$allocator@U?$pair@$$CB_JUtagAGGRO@@@std@@@3@$0A@@std@@@std@@KAAADPAU_Node@?$_Tree_nod@V?$_Tmap_traits@_JUtagAGGRO@@U?$less@_J@std@@V?$allocator@U?$pair@$$CB_JUtagAGGRO@@@std@@@3@$0A@@std@@@2@@Z ; std::_Tree<std::_Tmap_traits<__int64,tagAGGRO,std::less<__int64>,std::allocator<std::pair<__int64 const ,tagAGGRO> >,0> >::_Isnil
; Function compile flags: /Ogty
; File c:\program files (x86)\microsoft visual studio .net 2003\vc7\include\xtree
;	COMDAT ?_Isnil@?$_Tree@V?$_Tmap_traits@_JUtagAGGRO@@U?$less@_J@std@@V?$allocator@U?$pair@$$CB_JUtagAGGRO@@@std@@@3@$0A@@std@@@std@@KAAADPAU_Node@?$_Tree_nod@V?$_Tmap_traits@_JUtagAGGRO@@U?$less@_J@std@@V?$allocator@U?$pair@$$CB_JUtagAGGRO@@@std@@@3@$0A@@std@@@2@@Z
_TEXT	SEGMENT
__Pnode$ = 8						; size = 4
?_Isnil@?$_Tree@V?$_Tmap_traits@_JUtagAGGRO@@U?$less@_J@std@@V?$allocator@U?$pair@$$CB_JUtagAGGRO@@@std@@@3@$0A@@std@@@std@@KAAADPAU_Node@?$_Tree_nod@V?$_Tmap_traits@_JUtagAGGRO@@U?$less@_J@std@@V?$allocator@U?$pair@$$CB_JUtagAGGRO@@@std@@@3@$0A@@std@@@2@@Z PROC NEAR ; std::_Tree<std::_Tmap_traits<__int64,tagAGGRO,std::less<__int64>,std::allocator<std::pair<__int64 const ,tagAGGRO> >,0> >::_Isnil, COMDAT

; 137  : 		return ((_Charref)(*_Pnode)._Isnil);

  00000	8b 44 24 04	 mov	 eax, DWORD PTR __Pnode$[esp-4]
  00004	83 c0 31	 add	 eax, 49			; 00000031H

; 138  : 		}

  00007	c3		 ret	 0
?_Isnil@?$_Tree@V?$_Tmap_traits@_JUtagAGGRO@@U?$less@_J@std@@V?$allocator@U?$pair@$$CB_JUtagAGGRO@@@std@@@3@$0A@@std@@@std@@KAAADPAU_Node@?$_Tree_nod@V?$_Tmap_traits@_JUtagAGGRO@@U?$less@_J@std@@V?$allocator@U?$pair@$$CB_JUtagAGGRO@@@std@@@3@$0A@@std@@@2@@Z ENDP ; std::_Tree<std::_Tmap_traits<__int64,tagAGGRO,std::less<__int64>,std::allocator<std::pair<__int64 const ,tagAGGRO> >,0> >::_Isnil
_TEXT	ENDS
PUBLIC	?_Left@?$_Tree@V?$_Tmap_traits@_JUtagAGGRO@@U?$less@_J@std@@V?$allocator@U?$pair@$$CB_JUtagAGGRO@@@std@@@3@$0A@@std@@@std@@KAAAPAU_Node@?$_Tree_nod@V?$_Tmap_traits@_JUtagAGGRO@@U?$less@_J@std@@V?$allocator@U?$pair@$$CB_JUtagAGGRO@@@std@@@3@$0A@@std@@@2@PAU342@@Z ; std::_Tree<std::_Tmap_traits<__int64,tagAGGRO,std::less<__int64>,std::allocator<std::pair<__int64 const ,tagAGGRO> >,0> >::_Left
; Function compile flags: /Ogty
;	COMDAT ?_Left@?$_Tree@V?$_Tmap_traits@_JUtagAGGRO@@U?$less@_J@std@@V?$allocator@U?$pair@$$CB_JUtagAGGRO@@@std@@@3@$0A@@std@@@std@@KAAAPAU_Node@?$_Tree_nod@V?$_Tmap_traits@_JUtagAGGRO@@U?$less@_J@std@@V?$allocator@U?$pair@$$CB_JUtagAGGRO@@@std@@@3@$0A@@std@@@2@PAU342@@Z
_TEXT	SEGMENT
__Pnode$ = 8						; size = 4
?_Left@?$_Tree@V?$_Tmap_traits@_JUtagAGGRO@@U?$less@_J@std@@V?$allocator@U?$pair@$$CB_JUtagAGGRO@@@std@@@3@$0A@@std@@@std@@KAAAPAU_Node@?$_Tree_nod@V?$_Tmap_traits@_JUtagAGGRO@@U?$less@_J@std@@V?$allocator@U?$pair@$$CB_JUtagAGGRO@@@std@@@3@$0A@@std@@@2@PAU342@@Z PROC NEAR ; std::_Tree<std::_Tmap_traits<__int64,tagAGGRO,std::less<__int64>,std::allocator<std::pair<__int64 const ,tagAGGRO> >,0> >::_Left, COMDAT

; 147  : 		return ((_Nodepref)(*_Pnode)._Left);

  00000	8b 44 24 04	 mov	 eax, DWORD PTR __Pnode$[esp-4]

; 148  : 		}

  00004	c3		 ret	 0
?_Left@?$_Tree@V?$_Tmap_traits@_JUtagAGGRO@@U?$less@_J@std@@V?$allocator@U?$pair@$$CB_JUtagAGGRO@@@std@@@3@$0A@@std@@@std@@KAAAPAU_Node@?$_Tree_nod@V?$_Tmap_traits@_JUtagAGGRO@@U?$less@_J@std@@V?$allocator@U?$pair@$$CB_JUtagAGGRO@@@std@@@3@$0A@@std@@@2@PAU342@@Z ENDP ; std::_Tree<std::_Tmap_traits<__int64,tagAGGRO,std::less<__int64>,std::allocator<std::pair<__int64 const ,tagAGGRO> >,0> >::_Left
_TEXT	ENDS
PUBLIC	?_Right@?$_Tree@V?$_Tmap_traits@_JUtagAGGRO@@U?$less@_J@std@@V?$allocator@U?$pair@$$CB_JUtagAGGRO@@@std@@@3@$0A@@std@@@std@@KAAAPAU_Node@?$_Tree_nod@V?$_Tmap_traits@_JUtagAGGRO@@U?$less@_J@std@@V?$allocator@U?$pair@$$CB_JUtagAGGRO@@@std@@@3@$0A@@std@@@2@PAU342@@Z ; std::_Tree<std::_Tmap_traits<__int64,tagAGGRO,std::less<__int64>,std::allocator<std::pair<__int64 const ,tagAGGRO> >,0> >::_Right
; Function compile flags: /Ogty
;	COMDAT ?_Right@?$_Tree@V?$_Tmap_traits@_JUtagAGGRO@@U?$less@_J@std@@V?$allocator@U?$pair@$$CB_JUtagAGGRO@@@std@@@3@$0A@@std@@@std@@KAAAPAU_Node@?$_Tree_nod@V?$_Tmap_traits@_JUtagAGGRO@@U?$less@_J@std@@V?$allocator@U?$pair@$$CB_JUtagAGGRO@@@std@@@3@$0A@@std@@@2@PAU342@@Z
_TEXT	SEGMENT
__Pnode$ = 8						; size = 4
?_Right@?$_Tree@V?$_Tmap_traits@_JUtagAGGRO@@U?$less@_J@std@@V?$allocator@U?$pair@$$CB_JUtagAGGRO@@@std@@@3@$0A@@std@@@std@@KAAAPAU_Node@?$_Tree_nod@V?$_Tmap_traits@_JUtagAGGRO@@U?$less@_J@std@@V?$allocator@U?$pair@$$CB_JUtagAGGRO@@@std@@@3@$0A@@std@@@2@PAU342@@Z PROC NEAR ; std::_Tree<std::_Tmap_traits<__int64,tagAGGRO,std::less<__int64>,std::allocator<std::pair<__int64 const ,tagAGGRO> >,0> >::_Right, COMDAT

; 157  : 		return ((_Nodepref)(*_Pnode)._Right);

  00000	8b 44 24 04	 mov	 eax, DWORD PTR __Pnode$[esp-4]
  00004	83 c0 08	 add	 eax, 8

; 158  : 		}

  00007	c3		 ret	 0
?_Right@?$_Tree@V?$_Tmap_traits@_JUtagAGGRO@@U?$less@_J@std@@V?$allocator@U?$pair@$$CB_JUtagAGGRO@@@std@@@3@$0A@@std@@@std@@KAAAPAU_Node@?$_Tree_nod@V?$_Tmap_traits@_JUtagAGGRO@@U?$less@_J@std@@V?$allocator@U?$pair@$$CB_JUtagAGGRO@@@std@@@3@$0A@@std@@@2@PAU342@@Z ENDP ; std::_Tree<std::_Tmap_traits<__int64,tagAGGRO,std::less<__int64>,std::allocator<std::pair<__int64 const ,tagAGGRO> >,0> >::_Right
_TEXT	ENDS
PUBLIC	??Yiterator@?$vector@PAVCTMonster@@V?$allocator@PAVCTMonster@@@std@@@std@@QAEAAV012@H@Z ; std::vector<CTMonster *,std::allocator<CTMonster *> >::iterator::operator+=
; Function compile flags: /Ogty
; File c:\program files (x86)\microsoft visual studio .net 2003\vc7\include\vector
;	COMDAT ??Yiterator@?$vector@PAVCTMonster@@V?$allocator@PAVCTMonster@@@std@@@std@@QAEAAV012@H@Z
_TEXT	SEGMENT
__Off$ = 8						; size = 4
??Yiterator@?$vector@PAVCTMonster@@V?$allocator@PAVCTMonster@@@std@@@std@@QAEAAV012@H@Z PROC NEAR ; std::vector<CTMonster *,std::allocator<CTMonster *> >::iterator::operator+=, COMDAT
; _this$ = ecx

; 255  : 			{	// increment by integer

  00000	8b c1		 mov	 eax, ecx

; 256  : 			this->_Myptr += _Off;

  00002	8b 4c 24 04	 mov	 ecx, DWORD PTR __Off$[esp-4]
  00006	8d 14 8d 00 00
	00 00		 lea	 edx, DWORD PTR [ecx*4]
  0000d	01 10		 add	 DWORD PTR [eax], edx

; 257  : 			return (*this);
; 258  : 			}

  0000f	c2 04 00	 ret	 4
??Yiterator@?$vector@PAVCTMonster@@V?$allocator@PAVCTMonster@@@std@@@std@@QAEAAV012@H@Z ENDP ; std::vector<CTMonster *,std::allocator<CTMonster *> >::iterator::operator+=
_TEXT	ENDS
PUBLIC	??0const_iterator@?$vector@PAVCTMonster@@V?$allocator@PAVCTMonster@@@std@@@std@@QAE@PAPAVCTMonster@@@Z ; std::vector<CTMonster *,std::allocator<CTMonster *> >::const_iterator::const_iterator
; Function compile flags: /Ogty
;	COMDAT ??0const_iterator@?$vector@PAVCTMonster@@V?$allocator@PAVCTMonster@@@std@@@std@@QAE@PAPAVCTMonster@@@Z
_TEXT	SEGMENT
__Ptr$ = 8						; size = 4
??0const_iterator@?$vector@PAVCTMonster@@V?$allocator@PAVCTMonster@@@std@@@std@@QAE@PAPAVCTMonster@@@Z PROC NEAR ; std::vector<CTMonster *,std::allocator<CTMonster *> >::const_iterator::const_iterator, COMDAT
; _this$ = ecx

; 73   : 		const_iterator(_Tptr _Ptr)

  00000	8b c1		 mov	 eax, ecx

; 74   : 			{	// construct with pointer _Ptr
; 75   : 			_Myptr = _Ptr;

  00002	8b 4c 24 04	 mov	 ecx, DWORD PTR __Ptr$[esp-4]
  00006	89 08		 mov	 DWORD PTR [eax], ecx

; 76   : 			}

  00008	c2 04 00	 ret	 4
??0const_iterator@?$vector@PAVCTMonster@@V?$allocator@PAVCTMonster@@@std@@@std@@QAE@PAPAVCTMonster@@@Z ENDP ; std::vector<CTMonster *,std::allocator<CTMonster *> >::const_iterator::const_iterator
_TEXT	ENDS
PUBLIC	?_Parent@?$_Tree@V?$_Tmap_traits@_JUtagAGGRO@@U?$less@_J@std@@V?$allocator@U?$pair@$$CB_JUtagAGGRO@@@std@@@3@$0A@@std@@@std@@KAAAPAU_Node@?$_Tree_nod@V?$_Tmap_traits@_JUtagAGGRO@@U?$less@_J@std@@V?$allocator@U?$pair@$$CB_JUtagAGGRO@@@std@@@3@$0A@@std@@@2@PAU342@@Z ; std::_Tree<std::_Tmap_traits<__int64,tagAGGRO,std::less<__int64>,std::allocator<std::pair<__int64 const ,tagAGGRO> >,0> >::_Parent
; Function compile flags: /Ogty
; File c:\program files (x86)\microsoft visual studio .net 2003\vc7\include\xtree
;	COMDAT ?_Parent@?$_Tree@V?$_Tmap_traits@_JUtagAGGRO@@U?$less@_J@std@@V?$allocator@U?$pair@$$CB_JUtagAGGRO@@@std@@@3@$0A@@std@@@std@@KAAAPAU_Node@?$_Tree_nod@V?$_Tmap_traits@_JUtagAGGRO@@U?$less@_J@std@@V?$allocator@U?$pair@$$CB_JUtagAGGRO@@@std@@@3@$0A@@std@@@2@PAU342@@Z
_TEXT	SEGMENT
__Pnode$ = 8						; size = 4
?_Parent@?$_Tree@V?$_Tmap_traits@_JUtagAGGRO@@U?$less@_J@std@@V?$allocator@U?$pair@$$CB_JUtagAGGRO@@@std@@@3@$0A@@std@@@std@@KAAAPAU_Node@?$_Tree_nod@V?$_Tmap_traits@_JUtagAGGRO@@U?$less@_J@std@@V?$allocator@U?$pair@$$CB_JUtagAGGRO@@@std@@@3@$0A@@std@@@2@PAU342@@Z PROC NEAR ; std::_Tree<std::_Tmap_traits<__int64,tagAGGRO,std::less<__int64>,std::allocator<std::pair<__int64 const ,tagAGGRO> >,0> >::_Parent, COMDAT

; 152  : 		return ((_Nodepref)(*_Pnode)._Parent);

  00000	8b 44 24 04	 mov	 eax, DWORD PTR __Pnode$[esp-4]
  00004	83 c0 04	 add	 eax, 4

; 153  : 		}

  00007	c3		 ret	 0
?_Parent@?$_Tree@V?$_Tmap_traits@_JUtagAGGRO@@U?$less@_J@std@@V?$allocator@U?$pair@$$CB_JUtagAGGRO@@@std@@@3@$0A@@std@@@std@@KAAAPAU_Node@?$_Tree_nod@V?$_Tmap_traits@_JUtagAGGRO@@U?$less@_J@std@@V?$allocator@U?$pair@$$CB_JUtagAGGRO@@@std@@@3@$0A@@std@@@2@PAU342@@Z ENDP ; std::_Tree<std::_Tmap_traits<__int64,tagAGGRO,std::less<__int64>,std::allocator<std::pair<__int64 const ,tagAGGRO> >,0> >::_Parent
_TEXT	ENDS
PUBLIC	??0CAtlException@ATL@@QAE@J@Z			; ATL::CAtlException::CAtlException
; Function compile flags: /Ogty
; File c:\program files (x86)\microsoft visual studio .net 2003\vc7\atlmfc\include\atlexcept.h
;	COMDAT ??0CAtlException@ATL@@QAE@J@Z
_TEXT	SEGMENT
_hr$ = 8						; size = 4
??0CAtlException@ATL@@QAE@J@Z PROC NEAR			; ATL::CAtlException::CAtlException, COMDAT
; _this$ = ecx

; 40   : 	{

  00000	8b c1		 mov	 eax, ecx
  00002	8b 4c 24 04	 mov	 ecx, DWORD PTR _hr$[esp-4]
  00006	89 08		 mov	 DWORD PTR [eax], ecx

; 41   : 	}

  00008	c2 04 00	 ret	 4
??0CAtlException@ATL@@QAE@J@Z ENDP			; ATL::CAtlException::CAtlException
_TEXT	ENDS
PUBLIC	?AtlThrow@ATL@@YGXJ@Z				; ATL::AtlThrow
PUBLIC	__TI1?AVCAtlException@ATL@@
PUBLIC	__CTA1?AVCAtlException@ATL@@
PUBLIC	??_R0?AVCAtlException@ATL@@@8			; ATL::CAtlException `RTTI Type Descriptor'
PUBLIC	__CT??_R0?AVCAtlException@ATL@@@84
EXTRN	??_7type_info@@6B@:DWORD			; type_info::`vftable'
EXTRN	__CxxThrowException@8:NEAR
;	COMDAT __TI1?AVCAtlException@ATL@@
xdata$x	SEGMENT
__TI1?AVCAtlException@ATL@@ DD 00H
	DD	00H
	DD	00H
	DD	FLAT:__CTA1?AVCAtlException@ATL@@
xdata$x	ENDS
;	COMDAT __CTA1?AVCAtlException@ATL@@
xdata$x	SEGMENT
__CTA1?AVCAtlException@ATL@@ DD 01H
	DD	FLAT:__CT??_R0?AVCAtlException@ATL@@@84
xdata$x	ENDS
;	COMDAT __CT??_R0?AVCAtlException@ATL@@@84
xdata$x	SEGMENT
__CT??_R0?AVCAtlException@ATL@@@84 DD 00H
	DD	FLAT:??_R0?AVCAtlException@ATL@@@8
	DD	00H
	DD	0ffffffffH
	ORG $+4
	DD	04H
	DD	00H
xdata$x	ENDS
;	COMDAT ??_R0?AVCAtlException@ATL@@@8
_DATA	SEGMENT
??_R0?AVCAtlException@ATL@@@8 DD FLAT:??_7type_info@@6B@ ; ATL::CAtlException `RTTI Type Descriptor'
	DD	00H
	DB	'.?AVCAtlException@ATL@@', 00H
; Function compile flags: /Ogty
_DATA	ENDS
;	COMDAT ?AtlThrow@ATL@@YGXJ@Z
_TEXT	SEGMENT
$T153565 = 8						; size = 4
_hr$ = 8						; size = 4
?AtlThrow@ATL@@YGXJ@Z PROC NEAR				; ATL::AtlThrow, COMDAT

; 62   : 	ATLTRACE(atlTraceException, 0, _T("AtlThrow: hr = 0x%x\n"), hr );
; 63   : #ifdef _AFX
; 64   : 	if( hr == E_OUTOFMEMORY )
; 65   : 	{
; 66   : 		AfxThrowMemoryException();
; 67   : 	}
; 68   : 	else
; 69   : 	{
; 70   : 		AfxThrowOleException( hr );
; 71   : 	}
; 72   : #else
; 73   : 	throw CAtlException( hr );

  00000	8b 44 24 04	 mov	 eax, DWORD PTR _hr$[esp-4]
  00004	68 00 00 00 00	 push	 OFFSET FLAT:__TI1?AVCAtlException@ATL@@
  00009	8d 4c 24 08	 lea	 ecx, DWORD PTR $T153565[esp]
  0000d	51		 push	 ecx
  0000e	89 44 24 0c	 mov	 DWORD PTR $T153565[esp+4], eax
  00012	e8 00 00 00 00	 call	 __CxxThrowException@8
$L153572:
$L153571:
  00017	cc		 int	 3
?AtlThrow@ATL@@YGXJ@Z ENDP				; ATL::AtlThrow
_TEXT	ENDS
PUBLIC	??$_Allocate@PAVCTMonster@@@std@@YAPAPAVCTMonster@@IPAPAV1@@Z ; std::_Allocate<CTMonster *>
EXTRN	??2@YAPAXI@Z:NEAR				; operator new
; Function compile flags: /Ogty
; File c:\program files (x86)\microsoft visual studio .net 2003\vc7\include\xmemory
;	COMDAT ??$_Allocate@PAVCTMonster@@@std@@YAPAPAVCTMonster@@IPAPAV1@@Z
_TEXT	SEGMENT
__Count$ = 8						; size = 4
___formal$ = 12						; size = 4
??$_Allocate@PAVCTMonster@@@std@@YAPAPAVCTMonster@@IPAPAV1@@Z PROC NEAR ; std::_Allocate<CTMonster *>, COMDAT

; 34   : 	return ((_Ty _FARQ *)operator new(_Count * sizeof (_Ty)));

  00000	8b 44 24 04	 mov	 eax, DWORD PTR __Count$[esp-4]
  00004	8d 0c 85 00 00
	00 00		 lea	 ecx, DWORD PTR [eax*4]
  0000b	51		 push	 ecx
  0000c	e8 00 00 00 00	 call	 ??2@YAPAXI@Z		; operator new
  00011	83 c4 04	 add	 esp, 4

; 35   : 	}

  00014	c3		 ret	 0
??$_Allocate@PAVCTMonster@@@std@@YAPAPAVCTMonster@@IPAPAV1@@Z ENDP ; std::_Allocate<CTMonster *>
_TEXT	ENDS
PUBLIC	??$_Ptr_cat@VCTMonster@@@std@@YA?AU_Scalar_ptr_iterator_tag@0@PAPAVCTMonster@@0@Z ; std::_Ptr_cat<CTMonster>
; Function compile flags: /Ogty
; File c:\program files (x86)\microsoft visual studio .net 2003\vc7\include\xutility
;	COMDAT ??$_Ptr_cat@VCTMonster@@@std@@YA?AU_Scalar_ptr_iterator_tag@0@PAPAVCTMonster@@0@Z
_TEXT	SEGMENT
__Cat$ = -1						; size = 1
___formal$ = 8						; size = 4
___formal$ = 12						; size = 4
??$_Ptr_cat@VCTMonster@@@std@@YA?AU_Scalar_ptr_iterator_tag@0@PAPAVCTMonster@@0@Z PROC NEAR ; std::_Ptr_cat<CTMonster>, COMDAT

; 218  : 	{	// return pointer category from pointer to pointer arguments

  00000	51		 push	 ecx

; 219  : 	_Scalar_ptr_iterator_tag _Cat;
; 220  : 	return (_Cat);

  00001	8a 44 24 03	 mov	 al, BYTE PTR __Cat$[esp+4]

; 221  : 	}

  00005	59		 pop	 ecx
  00006	c3		 ret	 0
??$_Ptr_cat@VCTMonster@@@std@@YA?AU_Scalar_ptr_iterator_tag@0@PAPAVCTMonster@@0@Z ENDP ; std::_Ptr_cat<CTMonster>
_TEXT	ENDS
PUBLIC	??$_Destroy_range@PAVCTMonster@@V?$allocator@PAVCTMonster@@@std@@@std@@YAXPAPAVCTMonster@@0AAV?$allocator@PAVCTMonster@@@0@U_Scalar_ptr_iterator_tag@0@@Z ; std::_Destroy_range<CTMonster *,std::allocator<CTMonster *> >
; Function compile flags: /Ogty
; File c:\program files (x86)\microsoft visual studio .net 2003\vc7\include\xmemory
;	COMDAT ??$_Destroy_range@PAVCTMonster@@V?$allocator@PAVCTMonster@@@std@@@std@@YAXPAPAVCTMonster@@0AAV?$allocator@PAVCTMonster@@@0@U_Scalar_ptr_iterator_tag@0@@Z
_TEXT	SEGMENT
__First$ = 8						; size = 4
__Last$ = 12						; size = 4
__Al$ = 16						; size = 4
___formal$ = 20						; size = 1
??$_Destroy_range@PAVCTMonster@@V?$allocator@PAVCTMonster@@@std@@@std@@YAXPAPAVCTMonster@@0AAV?$allocator@PAVCTMonster@@@0@U_Scalar_ptr_iterator_tag@0@@Z PROC NEAR ; std::_Destroy_range<CTMonster *,std::allocator<CTMonster *> >, COMDAT

; 234  : 	}

  00000	c3		 ret	 0
??$_Destroy_range@PAVCTMonster@@V?$allocator@PAVCTMonster@@@std@@@std@@YAXPAPAVCTMonster@@0AAV?$allocator@PAVCTMonster@@@0@U_Scalar_ptr_iterator_tag@0@@Z ENDP ; std::_Destroy_range<CTMonster *,std::allocator<CTMonster *> >
_TEXT	ENDS
PUBLIC	?data@CStringData@ATL@@QAEPAXXZ			; ATL::CStringData::data
; Function compile flags: /Ogty
; File c:\program files (x86)\microsoft visual studio .net 2003\vc7\atlmfc\include\atlsimpstr.h
;	COMDAT ?data@CStringData@ATL@@QAEPAXXZ
_TEXT	SEGMENT
?data@CStringData@ATL@@QAEPAXXZ PROC NEAR		; ATL::CStringData::data, COMDAT
; _this$ = ecx

; 66   : 		return (this+1);

  00000	8d 41 10	 lea	 eax, DWORD PTR [ecx+16]

; 67   : 	}

  00003	c3		 ret	 0
?data@CStringData@ATL@@QAEPAXXZ ENDP			; ATL::CStringData::data
_TEXT	ENDS
PUBLIC	?IsLocked@CStringData@ATL@@QBE_NXZ		; ATL::CStringData::IsLocked
; Function compile flags: /Ogty
;	COMDAT ?IsLocked@CStringData@ATL@@QBE_NXZ
_TEXT	SEGMENT
?IsLocked@CStringData@ATL@@QBE_NXZ PROC NEAR		; ATL::CStringData::IsLocked, COMDAT
; _this$ = ecx

; 76   : 		return nRefs < 0;

  00000	8b 51 0c	 mov	 edx, DWORD PTR [ecx+12]
  00003	33 c0		 xor	 eax, eax
  00005	85 d2		 test	 edx, edx
  00007	0f 9c c0	 setl	 al

; 77   : 	}

  0000a	c3		 ret	 0
?IsLocked@CStringData@ATL@@QBE_NXZ ENDP			; ATL::CStringData::IsLocked
_TEXT	ENDS
PUBLIC	?IsShared@CStringData@ATL@@QBE_NXZ		; ATL::CStringData::IsShared
; Function compile flags: /Ogty
;	COMDAT ?IsShared@CStringData@ATL@@QBE_NXZ
_TEXT	SEGMENT
?IsShared@CStringData@ATL@@QBE_NXZ PROC NEAR		; ATL::CStringData::IsShared, COMDAT
; _this$ = ecx

; 80   : 		return( nRefs > 1 ); 

  00000	8b 51 0c	 mov	 edx, DWORD PTR [ecx+12]
  00003	33 c0		 xor	 eax, eax
  00005	83 fa 01	 cmp	 edx, 1
  00008	0f 9f c0	 setg	 al

; 81   : 	}

  0000b	c3		 ret	 0
?IsShared@CStringData@ATL@@QBE_NXZ ENDP			; ATL::CStringData::IsShared
_TEXT	ENDS
PUBLIC	?Release@CStringData@ATL@@QAEXXZ		; ATL::CStringData::Release
; Function compile flags: /Ogty
;	COMDAT ?Release@CStringData@ATL@@QAEXXZ
_TEXT	SEGMENT
?Release@CStringData@ATL@@QAEXXZ PROC NEAR		; ATL::CStringData::Release, COMDAT
; _this$ = ecx

; 93   : 		ATLASSERT( nRefs != 0 );
; 94   : 
; 95   : 		if( _InterlockedDecrement( &nRefs ) <= 0 )

  00000	8d 41 0c	 lea	 eax, DWORD PTR [ecx+12]
  00003	83 ca ff	 or	 edx, -1
  00006	f0 0f c1 10	 lock	  xadd	 DWORD PTR [eax], edx
  0000a	4a		 dec	 edx
  0000b	85 d2		 test	 edx, edx
  0000d	7f 0a		 jg	 SHORT $L73499

; 96   : 		{
; 97   : 			pStringMgr->Free( this );

  0000f	8b 01		 mov	 eax, DWORD PTR [ecx]
  00011	8b 10		 mov	 edx, DWORD PTR [eax]
  00013	51		 push	 ecx
  00014	8b c8		 mov	 ecx, eax
  00016	ff 52 04	 call	 DWORD PTR [edx+4]
$L73499:

; 98   : 		}
; 99   : 	}

  00019	c3		 ret	 0
?Release@CStringData@ATL@@QAEXXZ ENDP			; ATL::CStringData::Release
_TEXT	ENDS
PUBLIC	?assign@?$char_traits@D@std@@SAXAADABD@Z	; std::char_traits<char>::assign
; Function compile flags: /Ogty
; File c:\program files (x86)\microsoft visual studio .net 2003\vc7\include\iosfwd
;	COMDAT ?assign@?$char_traits@D@std@@SAXAADABD@Z
_TEXT	SEGMENT
__Left$ = 8						; size = 4
__Right$ = 12						; size = 4
?assign@?$char_traits@D@std@@SAXAADABD@Z PROC NEAR	; std::char_traits<char>::assign, COMDAT

; 331  : 		_Left = _Right;

  00000	8b 44 24 08	 mov	 eax, DWORD PTR __Right$[esp-4]
  00004	8a 08		 mov	 cl, BYTE PTR [eax]
  00006	8b 54 24 04	 mov	 edx, DWORD PTR __Left$[esp-4]
  0000a	88 0a		 mov	 BYTE PTR [edx], cl

; 332  : 		}

  0000c	c3		 ret	 0
?assign@?$char_traits@D@std@@SAXAADABD@Z ENDP		; std::char_traits<char>::assign
_TEXT	ENDS
PUBLIC	?length@?$char_traits@D@std@@SAIPBD@Z		; std::char_traits<char>::length
; Function compile flags: /Ogty
;	COMDAT ?length@?$char_traits@D@std@@SAIPBD@Z
_TEXT	SEGMENT
__First$ = 8						; size = 4
?length@?$char_traits@D@std@@SAIPBD@Z PROC NEAR		; std::char_traits<char>::length, COMDAT

; 352  : 		return (::strlen(_First));

  00000	8b 44 24 04	 mov	 eax, DWORD PTR __First$[esp-4]
  00004	8d 50 01	 lea	 edx, DWORD PTR [eax+1]
$L153600:
  00007	8a 08		 mov	 cl, BYTE PTR [eax]
  00009	40		 inc	 eax
  0000a	84 c9		 test	 cl, cl
  0000c	75 f9		 jne	 SHORT $L153600
  0000e	2b c2		 sub	 eax, edx

; 353  : 		}

  00010	c3		 ret	 0
?length@?$char_traits@D@std@@SAIPBD@Z ENDP		; std::char_traits<char>::length
_TEXT	ENDS
PUBLIC	?copy@?$char_traits@D@std@@SAPADPADPBDI@Z	; std::char_traits<char>::copy
; Function compile flags: /Ogty
;	COMDAT ?copy@?$char_traits@D@std@@SAPADPADPBDI@Z
_TEXT	SEGMENT
__First1$ = 8						; size = 4
__First2$ = 12						; size = 4
__Count$ = 16						; size = 4
?copy@?$char_traits@D@std@@SAPADPADPBDI@Z PROC NEAR	; std::char_traits<char>::copy, COMDAT

; 358  : 		return ((_Elem *)::memcpy(_First1, _First2, _Count));

  00000	8b 4c 24 0c	 mov	 ecx, DWORD PTR __Count$[esp-4]
  00004	56		 push	 esi
  00005	8b 74 24 0c	 mov	 esi, DWORD PTR __First2$[esp]
  00009	57		 push	 edi
  0000a	8b 7c 24 0c	 mov	 edi, DWORD PTR __First1$[esp+4]
  0000e	8b c1		 mov	 eax, ecx
  00010	8b d7		 mov	 edx, edi
  00012	c1 e9 02	 shr	 ecx, 2
  00015	f3 a5		 rep movsd
  00017	8b c8		 mov	 ecx, eax
  00019	83 e1 03	 and	 ecx, 3
  0001c	f3 a4		 rep movsb
  0001e	5f		 pop	 edi
  0001f	8b c2		 mov	 eax, edx
  00021	5e		 pop	 esi

; 359  : 		}

  00022	c3		 ret	 0
?copy@?$char_traits@D@std@@SAPADPADPBDI@Z ENDP		; std::char_traits<char>::copy
_TEXT	ENDS
PUBLIC	?move@?$char_traits@D@std@@SAPADPADPBDI@Z	; std::char_traits<char>::move
EXTRN	_memmove:NEAR
; Function compile flags: /Ogty
;	COMDAT ?move@?$char_traits@D@std@@SAPADPADPBDI@Z
_TEXT	SEGMENT
__First1$ = 8						; size = 4
__First2$ = 12						; size = 4
__Count$ = 16						; size = 4
?move@?$char_traits@D@std@@SAPADPADPBDI@Z PROC NEAR	; std::char_traits<char>::move, COMDAT

; 370  : 		return ((_Elem *)::memmove(_First1, _First2, _Count));

  00000	e9 00 00 00 00	 jmp	 _memmove
?move@?$char_traits@D@std@@SAPADPADPBDI@Z ENDP		; std::char_traits<char>::move
_TEXT	ENDS
PUBLIC	?size@?$basic_string@DU?$char_traits@D@std@@V?$allocator@D@2@@std@@QBEIXZ ; std::basic_string<char,std::char_traits<char>,std::allocator<char> >::size
; Function compile flags: /Ogty
; File c:\program files (x86)\microsoft visual studio .net 2003\vc7\include\xstring
;	COMDAT ?size@?$basic_string@DU?$char_traits@D@std@@V?$allocator@D@2@@std@@QBEIXZ
_TEXT	SEGMENT
?size@?$basic_string@DU?$char_traits@D@std@@V?$allocator@D@2@@std@@QBEIXZ PROC NEAR ; std::basic_string<char,std::char_traits<char>,std::allocator<char> >::size, COMDAT
; _this$ = ecx

; 1109 : 		return (_Mysize);

  00000	8b 41 14	 mov	 eax, DWORD PTR [ecx+20]

; 1110 : 		}

  00003	c3		 ret	 0
?size@?$basic_string@DU?$char_traits@D@std@@V?$allocator@D@2@@std@@QBEIXZ ENDP ; std::basic_string<char,std::char_traits<char>,std::allocator<char> >::size
_TEXT	ENDS
PUBLIC	?GetData@?$CSimpleStringT@D$0A@@ATL@@ABEPAUCStringData@2@XZ ; ATL::CSimpleStringT<char,0>::GetData
; Function compile flags: /Ogty
; File c:\program files (x86)\microsoft visual studio .net 2003\vc7\atlmfc\include\atlsimpstr.h
;	COMDAT ?GetData@?$CSimpleStringT@D$0A@@ATL@@ABEPAUCStringData@2@XZ
_TEXT	SEGMENT
?GetData@?$CSimpleStringT@D$0A@@ATL@@ABEPAUCStringData@2@XZ PROC NEAR ; ATL::CSimpleStringT<char,0>::GetData, COMDAT
; _this$ = ecx

; 731  : 		return( reinterpret_cast< CStringData* >( m_pszData )-1 );

  00000	8b 01		 mov	 eax, DWORD PTR [ecx]
  00002	83 e8 10	 sub	 eax, 16			; 00000010H

; 732  : 	}

  00005	c3		 ret	 0
?GetData@?$CSimpleStringT@D$0A@@ATL@@ABEPAUCStringData@2@XZ ENDP ; ATL::CSimpleStringT<char,0>::GetData
_TEXT	ENDS
PUBLIC	?GetDefaultManager@?$StrTraitATL@DV?$ChTraitsCRT@D@ATL@@@ATL@@SAPAUIAtlStringMgr@2@XZ ; ATL::StrTraitATL<char,ATL::ChTraitsCRT<char> >::GetDefaultManager
EXTRN	?g_strmgr@ATL@@3VCAtlStringMgr@1@A:BYTE		; ATL::g_strmgr
; Function compile flags: /Ogty
; File c:\program files (x86)\microsoft visual studio .net 2003\vc7\atlmfc\include\atlstr.h
;	COMDAT ?GetDefaultManager@?$StrTraitATL@DV?$ChTraitsCRT@D@ATL@@@ATL@@SAPAUIAtlStringMgr@2@XZ
_TEXT	SEGMENT
?GetDefaultManager@?$StrTraitATL@DV?$ChTraitsCRT@D@ATL@@@ATL@@SAPAUIAtlStringMgr@2@XZ PROC NEAR ; ATL::StrTraitATL<char,ATL::ChTraitsCRT<char> >::GetDefaultManager, COMDAT

; 954  : 		return( &g_strmgr );

  00000	b8 00 00 00 00	 mov	 eax, OFFSET FLAT:?g_strmgr@ATL@@3VCAtlStringMgr@1@A ; ATL::g_strmgr

; 955  : 	}

  00005	c3		 ret	 0
?GetDefaultManager@?$StrTraitATL@DV?$ChTraitsCRT@D@ATL@@@ATL@@SAPAUIAtlStringMgr@2@XZ ENDP ; ATL::StrTraitATL<char,ATL::ChTraitsCRT<char> >::GetDefaultManager
_TEXT	ENDS
PUBLIC	?_Myptr@?$basic_string@DU?$char_traits@D@std@@V?$allocator@D@2@@std@@QBEPBDXZ ; std::basic_string<char,std::char_traits<char>,std::allocator<char> >::_Myptr
; Function compile flags: /Ogty
; File c:\program files (x86)\microsoft visual studio .net 2003\vc7\include\xstring
;	COMDAT ?_Myptr@?$basic_string@DU?$char_traits@D@std@@V?$allocator@D@2@@std@@QBEPBDXZ
_TEXT	SEGMENT
?_Myptr@?$basic_string@DU?$char_traits@D@std@@V?$allocator@D@2@@std@@QBEPBDXZ PROC NEAR ; std::basic_string<char,std::char_traits<char>,std::allocator<char> >::_Myptr, COMDAT
; _this$ = ecx

; 1537 : 		return (_BUF_SIZE <= _Myres ? _Bx._Ptr : _Bx._Buf);

  00000	83 79 18 10	 cmp	 DWORD PTR [ecx+24], 16	; 00000010H
  00004	72 04		 jb	 SHORT $L153620
  00006	8b 41 04	 mov	 eax, DWORD PTR [ecx+4]

; 1538 : 		}

  00009	c3		 ret	 0
$L153620:

; 1537 : 		return (_BUF_SIZE <= _Myres ? _Bx._Ptr : _Bx._Buf);

  0000a	8d 41 04	 lea	 eax, DWORD PTR [ecx+4]

; 1538 : 		}

  0000d	c3		 ret	 0
?_Myptr@?$basic_string@DU?$char_traits@D@std@@V?$allocator@D@2@@std@@QBEPBDXZ ENDP ; std::basic_string<char,std::char_traits<char>,std::allocator<char> >::_Myptr
_TEXT	ENDS
PUBLIC	??0?$allocator@D@std@@QAE@ABV01@@Z		; std::allocator<char>::allocator<char>
; Function compile flags: /Ogty
; File c:\program files (x86)\microsoft visual studio .net 2003\vc7\include\xmemory
;	COMDAT ??0?$allocator@D@std@@QAE@ABV01@@Z
_TEXT	SEGMENT
___formal$ = 8						; size = 4
??0?$allocator@D@std@@QAE@ABV01@@Z PROC NEAR		; std::allocator<char>::allocator<char>, COMDAT
; _this$ = ecx

; 115  : 	allocator(const allocator<_Ty>&)

  00000	8b c1		 mov	 eax, ecx

; 116  : 		{	// construct by copying (do nothing)
; 117  : 		}

  00002	c2 04 00	 ret	 4
??0?$allocator@D@std@@QAE@ABV01@@Z ENDP			; std::allocator<char>::allocator<char>
_TEXT	ENDS
PUBLIC	?GetString@?$CSimpleStringT@D$0A@@ATL@@QBEPBDXZ	; ATL::CSimpleStringT<char,0>::GetString
; Function compile flags: /Ogty
; File c:\program files (x86)\microsoft visual studio .net 2003\vc7\atlmfc\include\atlsimpstr.h
;	COMDAT ?GetString@?$CSimpleStringT@D$0A@@ATL@@QBEPBDXZ
_TEXT	SEGMENT
?GetString@?$CSimpleStringT@D$0A@@ATL@@QBEPBDXZ PROC NEAR ; ATL::CSimpleStringT<char,0>::GetString, COMDAT
; _this$ = ecx

; 510  : 		return( m_pszData );

  00000	8b 01		 mov	 eax, DWORD PTR [ecx]

; 511  : 	}

  00002	c3		 ret	 0
?GetString@?$CSimpleStringT@D$0A@@ATL@@QBEPBDXZ ENDP	; ATL::CSimpleStringT<char,0>::GetString
_TEXT	ENDS
PUBLIC	?Attach@?$CSimpleStringT@D$0A@@ATL@@AAEXPAUCStringData@2@@Z ; ATL::CSimpleStringT<char,0>::Attach
; Function compile flags: /Ogty
;	COMDAT ?Attach@?$CSimpleStringT@D$0A@@ATL@@AAEXPAUCStringData@2@@Z
_TEXT	SEGMENT
_pData$ = 8						; size = 4
?Attach@?$CSimpleStringT@D$0A@@ATL@@AAEXPAUCStringData@2@@Z PROC NEAR ; ATL::CSimpleStringT<char,0>::Attach, COMDAT
; _this$ = ecx

; 712  : 		m_pszData = static_cast< PXSTR >( pData->data() );

  00000	8b 44 24 04	 mov	 eax, DWORD PTR _pData$[esp-4]
  00004	83 c0 10	 add	 eax, 16			; 00000010H
  00007	89 01		 mov	 DWORD PTR [ecx], eax

; 713  : 	}

  00009	c2 04 00	 ret	 4
?Attach@?$CSimpleStringT@D$0A@@ATL@@AAEXPAUCStringData@2@@Z ENDP ; ATL::CSimpleStringT<char,0>::Attach
_TEXT	ENDS
PUBLIC	?_Myptr@?$basic_string@DU?$char_traits@D@std@@V?$allocator@D@2@@std@@QAEPADXZ ; std::basic_string<char,std::char_traits<char>,std::allocator<char> >::_Myptr
; Function compile flags: /Ogty
; File c:\program files (x86)\microsoft visual studio .net 2003\vc7\include\xstring
;	COMDAT ?_Myptr@?$basic_string@DU?$char_traits@D@std@@V?$allocator@D@2@@std@@QAEPADXZ
_TEXT	SEGMENT
?_Myptr@?$basic_string@DU?$char_traits@D@std@@V?$allocator@D@2@@std@@QAEPADXZ PROC NEAR ; std::basic_string<char,std::char_traits<char>,std::allocator<char> >::_Myptr, COMDAT
; _this$ = ecx

; 1532 : 		return (_BUF_SIZE <= _Myres ? _Bx._Ptr : _Bx._Buf);

  00000	83 79 18 10	 cmp	 DWORD PTR [ecx+24], 16	; 00000010H
  00004	72 04		 jb	 SHORT $L153637
  00006	8b 41 04	 mov	 eax, DWORD PTR [ecx+4]

; 1533 : 		}

  00009	c3		 ret	 0
$L153637:

; 1532 : 		return (_BUF_SIZE <= _Myres ? _Bx._Ptr : _Bx._Buf);

  0000a	8d 41 04	 lea	 eax, DWORD PTR [ecx+4]

; 1533 : 		}

  0000d	c3		 ret	 0
?_Myptr@?$basic_string@DU?$char_traits@D@std@@V?$allocator@D@2@@std@@QAEPADXZ ENDP ; std::basic_string<char,std::char_traits<char>,std::allocator<char> >::_Myptr
_TEXT	ENDS
PUBLIC	?deallocate@?$allocator@D@std@@QAEXPADI@Z	; std::allocator<char>::deallocate
; Function compile flags: /Ogty
; File c:\program files (x86)\microsoft visual studio .net 2003\vc7\include\xmemory
;	COMDAT ?deallocate@?$allocator@D@std@@QAEXPADI@Z
_TEXT	SEGMENT
__Ptr$ = 8						; size = 4
___formal$ = 12						; size = 4
?deallocate@?$allocator@D@std@@QAEXPADI@Z PROC NEAR	; std::allocator<char>::deallocate, COMDAT
; _this$ = ecx

; 132  : 		operator delete(_Ptr);

  00000	8b 44 24 04	 mov	 eax, DWORD PTR __Ptr$[esp-4]
  00004	50		 push	 eax
  00005	e8 00 00 00 00	 call	 ??3@YAXPAX@Z		; operator delete
  0000a	59		 pop	 ecx

; 133  : 		}

  0000b	c2 08 00	 ret	 8
?deallocate@?$allocator@D@std@@QAEXPADI@Z ENDP		; std::allocator<char>::deallocate
_TEXT	ENDS
PUBLIC	?CopyChars@?$CSimpleStringT@D$0A@@ATL@@SAXPADPBDH@Z ; ATL::CSimpleStringT<char,0>::CopyChars
; Function compile flags: /Ogty
; File c:\program files (x86)\microsoft visual studio .net 2003\vc7\atlmfc\include\atlsimpstr.h
;	COMDAT ?CopyChars@?$CSimpleStringT@D$0A@@ATL@@SAXPADPBDH@Z
_TEXT	SEGMENT
_pchDest$ = 8						; size = 4
_pchSrc$ = 12						; size = 4
_nChars$ = 16						; size = 4
?CopyChars@?$CSimpleStringT@D$0A@@ATL@@SAXPADPBDH@Z PROC NEAR ; ATL::CSimpleStringT<char,0>::CopyChars, COMDAT

; 653  : 		memcpy( pchDest, pchSrc, nChars*sizeof( XCHAR ) );

  00000	8b 4c 24 0c	 mov	 ecx, DWORD PTR _nChars$[esp-4]
  00004	56		 push	 esi
  00005	8b 74 24 0c	 mov	 esi, DWORD PTR _pchSrc$[esp]
  00009	8b c1		 mov	 eax, ecx
  0000b	57		 push	 edi
  0000c	8b 7c 24 0c	 mov	 edi, DWORD PTR _pchDest$[esp+4]
  00010	c1 e9 02	 shr	 ecx, 2
  00013	f3 a5		 rep movsd
  00015	8b c8		 mov	 ecx, eax
  00017	83 e1 03	 and	 ecx, 3
  0001a	f3 a4		 rep movsb
  0001c	5f		 pop	 edi
  0001d	5e		 pop	 esi

; 654  : 	}

  0001e	c3		 ret	 0
?CopyChars@?$CSimpleStringT@D$0A@@ATL@@SAXPADPBDH@Z ENDP ; ATL::CSimpleStringT<char,0>::CopyChars
_TEXT	ENDS
PUBLIC	?CopyCharsOverlapped@?$CSimpleStringT@D$0A@@ATL@@SAXPADPBDH@Z ; ATL::CSimpleStringT<char,0>::CopyCharsOverlapped
; Function compile flags: /Ogty
;	COMDAT ?CopyCharsOverlapped@?$CSimpleStringT@D$0A@@ATL@@SAXPADPBDH@Z
_TEXT	SEGMENT
_pchDest$ = 8						; size = 4
_pchSrc$ = 12						; size = 4
_nChars$ = 16						; size = 4
?CopyCharsOverlapped@?$CSimpleStringT@D$0A@@ATL@@SAXPADPBDH@Z PROC NEAR ; ATL::CSimpleStringT<char,0>::CopyCharsOverlapped, COMDAT

; 657  : 		memmove( pchDest, pchSrc, nChars*sizeof( XCHAR ) );

  00000	e9 00 00 00 00	 jmp	 _memmove
?CopyCharsOverlapped@?$CSimpleStringT@D$0A@@ATL@@SAXPADPBDH@Z ENDP ; ATL::CSimpleStringT<char,0>::CopyCharsOverlapped
_TEXT	ENDS
PUBLIC	?StringLength@?$CSimpleStringT@D$0A@@ATL@@SAHPBD@Z ; ATL::CSimpleStringT<char,0>::StringLength
; Function compile flags: /Ogty
;	COMDAT ?StringLength@?$CSimpleStringT@D$0A@@ATL@@SAHPBD@Z
_TEXT	SEGMENT
_psz$ = 8						; size = 4
?StringLength@?$CSimpleStringT@D$0A@@ATL@@SAHPBD@Z PROC NEAR ; ATL::CSimpleStringT<char,0>::StringLength, COMDAT

; 678  : 		if( psz == NULL )

  00000	8b 44 24 04	 mov	 eax, DWORD PTR _psz$[esp-4]
  00004	85 c0		 test	 eax, eax
  00006	75 01		 jne	 SHORT $L150470

; 683  : 	}

  00008	c3		 ret	 0
$L150470:

; 679  : 		{
; 680  : 			return( 0 );
; 681  : 		}
; 682  : 		return( int( strlen( psz ) ) );

  00009	8d 50 01	 lea	 edx, DWORD PTR [eax+1]
  0000c	8d 64 24 00	 npad	 4
$L153651:
  00010	8a 08		 mov	 cl, BYTE PTR [eax]
  00012	40		 inc	 eax
  00013	84 c9		 test	 cl, cl
  00015	75 f9		 jne	 SHORT $L153651
  00017	2b c2		 sub	 eax, edx

; 683  : 	}

  00019	c3		 ret	 0
?StringLength@?$CSimpleStringT@D$0A@@ATL@@SAHPBD@Z ENDP	; ATL::CSimpleStringT<char,0>::StringLength
_TEXT	ENDS
PUBLIC	?ThrowMemoryException@?$CSimpleStringT@D$0A@@ATL@@KAXXZ ; ATL::CSimpleStringT<char,0>::ThrowMemoryException
; Function compile flags: /Ogty
;	COMDAT ?ThrowMemoryException@?$CSimpleStringT@D$0A@@ATL@@KAXXZ
_TEXT	SEGMENT
?ThrowMemoryException@?$CSimpleStringT@D$0A@@ATL@@KAXXZ PROC NEAR ; ATL::CSimpleStringT<char,0>::ThrowMemoryException, COMDAT

; 705  : 		AtlThrow( E_OUTOFMEMORY );

  00000	68 0e 00 07 80	 push	 -2147024882		; 8007000eH
  00005	e8 00 00 00 00	 call	 ?AtlThrow@ATL@@YGXJ@Z	; ATL::AtlThrow
$L153656:
$L153655:
  0000a	cc		 int	 3
?ThrowMemoryException@?$CSimpleStringT@D$0A@@ATL@@KAXXZ ENDP ; ATL::CSimpleStringT<char,0>::ThrowMemoryException
_TEXT	ENDS
PUBLIC	?Fork@?$CSimpleStringT@D$0A@@ATL@@AAEXH@Z	; ATL::CSimpleStringT<char,0>::Fork
; Function compile flags: /Ogty
;	COMDAT ?Fork@?$CSimpleStringT@D$0A@@ATL@@AAEXH@Z
_TEXT	SEGMENT
_this$ = -4						; size = 4
tv181 = 8						; size = 4
_nLength$ = 8						; size = 4
?Fork@?$CSimpleStringT@D$0A@@ATL@@AAEXH@Z PROC NEAR	; ATL::CSimpleStringT<char,0>::Fork, COMDAT
; _this$ = ecx

; 715  : 	{

  00000	51		 push	 ecx
  00001	53		 push	 ebx

; 716  : 		CStringData* pOldData = GetData();

  00002	8b 19		 mov	 ebx, DWORD PTR [ecx]
  00004	83 eb 10	 sub	 ebx, 16			; 00000010H
  00007	55		 push	 ebp

; 717  : 		int nOldLength = pOldData->nDataLength;

  00008	8b 6b 04	 mov	 ebp, DWORD PTR [ebx+4]
  0000b	89 4c 24 08	 mov	 DWORD PTR _this$[esp+12], ecx

; 718  : 		CStringData* pNewData = pOldData->pStringMgr->Clone()->Allocate( nLength, sizeof( XCHAR ) );

  0000f	8b 0b		 mov	 ecx, DWORD PTR [ebx]
  00011	8b 01		 mov	 eax, DWORD PTR [ecx]
  00013	56		 push	 esi
  00014	ff 50 10	 call	 DWORD PTR [eax+16]
  00017	8b 74 24 14	 mov	 esi, DWORD PTR _nLength$[esp+12]
  0001b	8b 10		 mov	 edx, DWORD PTR [eax]
  0001d	6a 01		 push	 1
  0001f	56		 push	 esi
  00020	8b c8		 mov	 ecx, eax
  00022	ff 12		 call	 DWORD PTR [edx]

; 719  : 		if( pNewData == NULL )

  00024	85 c0		 test	 eax, eax
  00026	75 05		 jne	 SHORT $L150479

; 720  : 		{
; 721  : 			ThrowMemoryException();

  00028	e8 00 00 00 00	 call	 ?ThrowMemoryException@?$CSimpleStringT@D$0A@@ATL@@KAXXZ ; ATL::CSimpleStringT<char,0>::ThrowMemoryException
$L153687:
$L150479:

; 722  : 		}
; 723  : 		int nCharsToCopy = ((nOldLength < nLength) ? nOldLength : nLength)+1;  // Copy '\0'

  0002d	3b ee		 cmp	 ebp, esi
  0002f	7d 02		 jge	 SHORT $L153661
  00031	8b f5		 mov	 esi, ebp
$L153661:
  00033	8d 4e 01	 lea	 ecx, DWORD PTR [esi+1]

; 724  : 		CopyChars( PXSTR( pNewData->data() ), PCXSTR( pOldData->data() ), nCharsToCopy );

  00036	8b d1		 mov	 edx, ecx
  00038	57		 push	 edi
  00039	c1 e9 02	 shr	 ecx, 2
  0003c	8d 78 10	 lea	 edi, DWORD PTR [eax+16]
  0003f	89 7c 24 18	 mov	 DWORD PTR tv181[esp+16], edi
  00043	8d 73 10	 lea	 esi, DWORD PTR [ebx+16]
  00046	f3 a5		 rep movsd
  00048	8b ca		 mov	 ecx, edx
  0004a	83 e1 03	 and	 ecx, 3
  0004d	f3 a4		 rep movsb

; 725  : 		pNewData->nDataLength = nOldLength;

  0004f	89 68 04	 mov	 DWORD PTR [eax+4], ebp

; 726  : 		pOldData->Release();

  00052	8d 43 0c	 lea	 eax, DWORD PTR [ebx+12]
  00055	83 c9 ff	 or	 ecx, -1
  00058	f0 0f c1 08	 lock	  xadd	 DWORD PTR [eax], ecx
  0005c	49		 dec	 ecx
  0005d	85 c9		 test	 ecx, ecx
  0005f	5f		 pop	 edi
  00060	7f 08		 jg	 SHORT $L153677
  00062	8b 0b		 mov	 ecx, DWORD PTR [ebx]
  00064	8b 11		 mov	 edx, DWORD PTR [ecx]
  00066	53		 push	 ebx
  00067	ff 52 04	 call	 DWORD PTR [edx+4]
$L153677:

; 727  : 		Attach( pNewData );

  0006a	8b 44 24 14	 mov	 eax, DWORD PTR tv181[esp+12]
  0006e	8b 4c 24 0c	 mov	 ecx, DWORD PTR _this$[esp+16]
  00072	5e		 pop	 esi
  00073	5d		 pop	 ebp
  00074	89 01		 mov	 DWORD PTR [ecx], eax
  00076	5b		 pop	 ebx

; 728  : 	}

  00077	59		 pop	 ecx
  00078	c2 04 00	 ret	 4
$L153686:
?Fork@?$CSimpleStringT@D$0A@@ATL@@AAEXH@Z ENDP		; ATL::CSimpleStringT<char,0>::Fork
_TEXT	ENDS
PUBLIC	?Reallocate@?$CSimpleStringT@D$0A@@ATL@@AAEXH@Z	; ATL::CSimpleStringT<char,0>::Reallocate
; Function compile flags: /Ogty
;	COMDAT ?Reallocate@?$CSimpleStringT@D$0A@@ATL@@AAEXH@Z
_TEXT	SEGMENT
_nLength$ = 8						; size = 4
?Reallocate@?$CSimpleStringT@D$0A@@ATL@@AAEXH@Z PROC NEAR ; ATL::CSimpleStringT<char,0>::Reallocate, COMDAT
; _this$ = ecx

; 776  : 	{

  00000	56		 push	 esi
  00001	57		 push	 edi

; 777  : 		CStringData* pOldData = GetData();
; 778  : 		ATLASSERT( pOldData->nAllocLength < nLength );
; 779  : 		IAtlStringMgr* pStringMgr = pOldData->pStringMgr;
; 780  : 		CStringData* pNewData = pStringMgr->Reallocate( pOldData, nLength, sizeof( XCHAR ) );

  00002	8b 7c 24 0c	 mov	 edi, DWORD PTR _nLength$[esp+4]
  00006	8b f1		 mov	 esi, ecx
  00008	8b 06		 mov	 eax, DWORD PTR [esi]
  0000a	8b 48 f0	 mov	 ecx, DWORD PTR [eax-16]
  0000d	8b 11		 mov	 edx, DWORD PTR [ecx]
  0000f	83 e8 10	 sub	 eax, 16			; 00000010H
  00012	6a 01		 push	 1
  00014	57		 push	 edi
  00015	50		 push	 eax
  00016	ff 52 08	 call	 DWORD PTR [edx+8]

; 781  : 		if( pNewData == NULL )

  00019	85 c0		 test	 eax, eax
  0001b	75 05		 jne	 SHORT $L150488

; 782  : 		{
; 783  : 			ThrowMemoryException();

  0001d	e8 00 00 00 00	 call	 ?ThrowMemoryException@?$CSimpleStringT@D$0A@@ATL@@KAXXZ ; ATL::CSimpleStringT<char,0>::ThrowMemoryException
$L153703:
$L150488:

; 784  : 		}
; 785  : 		Attach( pNewData );

  00022	83 c0 10	 add	 eax, 16			; 00000010H
  00025	5f		 pop	 edi
  00026	89 06		 mov	 DWORD PTR [esi], eax
  00028	5e		 pop	 esi

; 786  : 	}

  00029	c2 04 00	 ret	 4
$L153702:
?Reallocate@?$CSimpleStringT@D$0A@@ATL@@AAEXH@Z ENDP	; ATL::CSimpleStringT<char,0>::Reallocate
_TEXT	ENDS
PUBLIC	?SetLength@?$CSimpleStringT@D$0A@@ATL@@AAEXH@Z	; ATL::CSimpleStringT<char,0>::SetLength
; Function compile flags: /Ogty
;	COMDAT ?SetLength@?$CSimpleStringT@D$0A@@ATL@@AAEXH@Z
_TEXT	SEGMENT
_nLength$ = 8						; size = 4
?SetLength@?$CSimpleStringT@D$0A@@ATL@@AAEXH@Z PROC NEAR ; ATL::CSimpleStringT<char,0>::SetLength, COMDAT
; _this$ = ecx

; 790  : 		ATLASSERT( nLength >= 0 );
; 791  : 		ATLASSERT( nLength <= GetData()->nAllocLength );
; 792  : 
; 793  : 		if( nLength < 0 || nLength > GetData()->nAllocLength)

  00000	8b 44 24 04	 mov	 eax, DWORD PTR _nLength$[esp-4]
  00004	85 c0		 test	 eax, eax
  00006	7c 13		 jl	 SHORT $L150494
  00008	8b 11		 mov	 edx, DWORD PTR [ecx]
  0000a	3b 42 f8	 cmp	 eax, DWORD PTR [edx-8]
  0000d	7f 0c		 jg	 SHORT $L150494

; 794  : 			AtlThrow(E_INVALIDARG);
; 795  : 			
; 796  : 		GetData()->nDataLength = nLength;

  0000f	89 42 f4	 mov	 DWORD PTR [edx-12], eax

; 797  : 		m_pszData[nLength] = 0;

  00012	8b 09		 mov	 ecx, DWORD PTR [ecx]
  00014	c6 04 08 00	 mov	 BYTE PTR [eax+ecx], 0

; 798  : 	}

  00018	c2 04 00	 ret	 4
$L150494:
  0001b	68 57 00 07 80	 push	 -2147024809		; 80070057H
  00020	e8 00 00 00 00	 call	 ?AtlThrow@ATL@@YGXJ@Z	; ATL::AtlThrow
$L153714:
$L153713:
  00025	cc		 int	 3
?SetLength@?$CSimpleStringT@D$0A@@ATL@@AAEXH@Z ENDP	; ATL::CSimpleStringT<char,0>::SetLength
_TEXT	ENDS
PUBLIC	?_Inside@?$basic_string@DU?$char_traits@D@std@@V?$allocator@D@2@@std@@IAE_NPBD@Z ; std::basic_string<char,std::char_traits<char>,std::allocator<char> >::_Inside
; Function compile flags: /Ogty
; File c:\program files (x86)\microsoft visual studio .net 2003\vc7\include\xstring
;	COMDAT ?_Inside@?$basic_string@DU?$char_traits@D@std@@V?$allocator@D@2@@std@@IAE_NPBD@Z
_TEXT	SEGMENT
__Ptr$ = 8						; size = 4
?_Inside@?$basic_string@DU?$char_traits@D@std@@V?$allocator@D@2@@std@@IAE_NPBD@Z PROC NEAR ; std::basic_string<char,std::char_traits<char>,std::allocator<char> >::_Inside, COMDAT
; _this$ = ecx

; 1494 : 		{	// test if _Ptr points inside string

  00000	56		 push	 esi

; 1495 : 		if (_Ptr < _Myptr() || _Myptr() + _Mysize <= _Ptr)

  00001	8b 71 18	 mov	 esi, DWORD PTR [ecx+24]
  00004	83 fe 10	 cmp	 esi, 16			; 00000010H
  00007	57		 push	 edi
  00008	8d 41 04	 lea	 eax, DWORD PTR [ecx+4]
  0000b	72 04		 jb	 SHORT $L153722
  0000d	8b 10		 mov	 edx, DWORD PTR [eax]
  0000f	eb 02		 jmp	 SHORT $L153723
$L153722:
  00011	8b d0		 mov	 edx, eax
$L153723:
  00013	8b 7c 24 0c	 mov	 edi, DWORD PTR __Ptr$[esp+4]
  00017	3b fa		 cmp	 edi, edx
  00019	72 17		 jb	 SHORT $L150517
  0001b	83 fe 10	 cmp	 esi, 16			; 00000010H
  0001e	72 02		 jb	 SHORT $L153730
  00020	8b 00		 mov	 eax, DWORD PTR [eax]
$L153730:
  00022	8b 49 14	 mov	 ecx, DWORD PTR [ecx+20]
  00025	03 c8		 add	 ecx, eax
  00027	3b cf		 cmp	 ecx, edi
  00029	76 07		 jbe	 SHORT $L150517
  0002b	5f		 pop	 edi

; 1497 : 		else
; 1498 : 			return (true);

  0002c	b0 01		 mov	 al, 1
  0002e	5e		 pop	 esi

; 1499 : 		}

  0002f	c2 04 00	 ret	 4
$L150517:
  00032	5f		 pop	 edi

; 1496 : 			return (false);	// don't ask

  00033	32 c0		 xor	 al, al
  00035	5e		 pop	 esi

; 1499 : 		}

  00036	c2 04 00	 ret	 4
?_Inside@?$basic_string@DU?$char_traits@D@std@@V?$allocator@D@2@@std@@IAE_NPBD@Z ENDP ; std::basic_string<char,std::char_traits<char>,std::allocator<char> >::_Inside
_TEXT	ENDS
PUBLIC	??0?$allocator@D@std@@QAE@XZ			; std::allocator<char>::allocator<char>
; Function compile flags: /Ogty
; File c:\program files (x86)\microsoft visual studio .net 2003\vc7\include\xmemory
;	COMDAT ??0?$allocator@D@std@@QAE@XZ
_TEXT	SEGMENT
??0?$allocator@D@std@@QAE@XZ PROC NEAR			; std::allocator<char>::allocator<char>, COMDAT
; _this$ = ecx

; 111  : 	allocator()

  00000	8b c1		 mov	 eax, ecx

; 112  : 		{	// construct default allocator (do nothing)
; 113  : 		}

  00002	c3		 ret	 0
??0?$allocator@D@std@@QAE@XZ ENDP			; std::allocator<char>::allocator<char>
_TEXT	ENDS
PUBLIC	?max_size@?$allocator@D@std@@QBEIXZ		; std::allocator<char>::max_size
; Function compile flags: /Ogty
;	COMDAT ?max_size@?$allocator@D@std@@QBEIXZ
_TEXT	SEGMENT
?max_size@?$allocator@D@std@@QBEIXZ PROC NEAR		; std::allocator<char>::max_size, COMDAT
; _this$ = ecx

; 157  : 		_SIZT _Count = (_SIZT)(-1) / sizeof (_Ty);
; 158  : 		return (0 < _Count ? _Count : 1);

  00000	83 c8 ff	 or	 eax, -1

; 159  : 		}

  00003	c3		 ret	 0
?max_size@?$allocator@D@std@@QBEIXZ ENDP		; std::allocator<char>::max_size
_TEXT	ENDS
PUBLIC	??$_Allocate@D@std@@YAPADIPAD@Z			; std::_Allocate<char>
; Function compile flags: /Ogty
;	COMDAT ??$_Allocate@D@std@@YAPADIPAD@Z
_TEXT	SEGMENT
__Count$ = 8						; size = 4
___formal$ = 12						; size = 4
??$_Allocate@D@std@@YAPADIPAD@Z PROC NEAR		; std::_Allocate<char>, COMDAT

; 34   : 	return ((_Ty _FARQ *)operator new(_Count * sizeof (_Ty)));

  00000	8b 44 24 04	 mov	 eax, DWORD PTR __Count$[esp-4]
  00004	50		 push	 eax
  00005	e8 00 00 00 00	 call	 ??2@YAPAXI@Z		; operator new
  0000a	83 c4 04	 add	 esp, 4

; 35   : 	}

  0000d	c3		 ret	 0
??$_Allocate@D@std@@YAPADIPAD@Z ENDP			; std::_Allocate<char>
_TEXT	ENDS
PUBLIC	?empty@?$vector@PAVCTMonster@@V?$allocator@PAVCTMonster@@@std@@@std@@QBE_NXZ ; std::vector<CTMonster *,std::allocator<CTMonster *> >::empty
; Function compile flags: /Ogty
; File c:\program files (x86)\microsoft visual studio .net 2003\vc7\include\vector
;	COMDAT ?empty@?$vector@PAVCTMonster@@V?$allocator@PAVCTMonster@@@std@@@std@@QBE_NXZ
_TEXT	SEGMENT
?empty@?$vector@PAVCTMonster@@V?$allocator@PAVCTMonster@@@std@@@std@@QBE_NXZ PROC NEAR ; std::vector<CTMonster *,std::allocator<CTMonster *> >::empty, COMDAT
; _this$ = ecx

; 526  : 		return (size() == 0);

  00000	8b 51 04	 mov	 edx, DWORD PTR [ecx+4]
  00003	85 d2		 test	 edx, edx
  00005	75 0c		 jne	 SHORT $L153751
  00007	33 c0		 xor	 eax, eax
  00009	33 c9		 xor	 ecx, ecx
  0000b	85 c0		 test	 eax, eax
  0000d	0f 94 c1	 sete	 cl
  00010	8a c1		 mov	 al, cl

; 527  : 		}

  00012	c3		 ret	 0

; 526  : 		return (size() == 0);

$L153751:
  00013	8b 41 08	 mov	 eax, DWORD PTR [ecx+8]
  00016	2b c2		 sub	 eax, edx
  00018	c1 f8 02	 sar	 eax, 2
  0001b	33 c9		 xor	 ecx, ecx
  0001d	85 c0		 test	 eax, eax
  0001f	0f 94 c1	 sete	 cl
  00022	8a c1		 mov	 al, cl

; 527  : 		}

  00024	c3		 ret	 0
?empty@?$vector@PAVCTMonster@@V?$allocator@PAVCTMonster@@@std@@@std@@QBE_NXZ ENDP ; std::vector<CTMonster *,std::allocator<CTMonster *> >::empty
_TEXT	ENDS
PUBLIC	??9const_iterator@?$_Tree@V?$_Tmap_traits@_JUtagAGGRO@@U?$less@_J@std@@V?$allocator@U?$pair@$$CB_JUtagAGGRO@@@std@@@3@$0A@@std@@@std@@QBE_NABV012@@Z ; std::_Tree<std::_Tmap_traits<__int64,tagAGGRO,std::less<__int64>,std::allocator<std::pair<__int64 const ,tagAGGRO> >,0> >::const_iterator::operator!=
; Function compile flags: /Ogty
; File c:\program files (x86)\microsoft visual studio .net 2003\vc7\include\xtree
;	COMDAT ??9const_iterator@?$_Tree@V?$_Tmap_traits@_JUtagAGGRO@@U?$less@_J@std@@V?$allocator@U?$pair@$$CB_JUtagAGGRO@@@std@@@3@$0A@@std@@@std@@QBE_NABV012@@Z
_TEXT	SEGMENT
__Right$ = 8						; size = 4
??9const_iterator@?$_Tree@V?$_Tmap_traits@_JUtagAGGRO@@U?$less@_J@std@@V?$allocator@U?$pair@$$CB_JUtagAGGRO@@@std@@@3@$0A@@std@@@std@@QBE_NABV012@@Z PROC NEAR ; std::_Tree<std::_Tmap_traits<__int64,tagAGGRO,std::less<__int64>,std::allocator<std::pair<__int64 const ,tagAGGRO> >,0> >::const_iterator::operator!=, COMDAT
; _this$ = ecx

; 246  : 			return (!(*this == _Right));

  00000	8b 01		 mov	 eax, DWORD PTR [ecx]
  00002	8b 54 24 04	 mov	 edx, DWORD PTR __Right$[esp-4]
  00006	56		 push	 esi
  00007	8b 32		 mov	 esi, DWORD PTR [edx]
  00009	33 c9		 xor	 ecx, ecx
  0000b	3b c6		 cmp	 eax, esi
  0000d	0f 95 c1	 setne	 cl
  00010	8a c1		 mov	 al, cl
  00012	5e		 pop	 esi

; 247  : 			}

  00013	c2 04 00	 ret	 4
??9const_iterator@?$_Tree@V?$_Tmap_traits@_JUtagAGGRO@@U?$less@_J@std@@V?$allocator@U?$pair@$$CB_JUtagAGGRO@@@std@@@3@$0A@@std@@@std@@QBE_NABV012@@Z ENDP ; std::_Tree<std::_Tmap_traits<__int64,tagAGGRO,std::less<__int64>,std::allocator<std::pair<__int64 const ,tagAGGRO> >,0> >::const_iterator::operator!=
_TEXT	ENDS
PUBLIC	??0?$_Vector_val@PAVCTMonster@@V?$allocator@PAVCTMonster@@@std@@@std@@IAE@V?$allocator@PAVCTMonster@@@1@@Z ; std::_Vector_val<CTMonster *,std::allocator<CTMonster *> >::_Vector_val<CTMonster *,std::allocator<CTMonster *> >
; Function compile flags: /Ogty
; File c:\program files (x86)\microsoft visual studio .net 2003\vc7\include\vector
;	COMDAT ??0?$_Vector_val@PAVCTMonster@@V?$allocator@PAVCTMonster@@@std@@@std@@IAE@V?$allocator@PAVCTMonster@@@1@@Z
_TEXT	SEGMENT
__Al$ = 8						; size = 1
??0?$_Vector_val@PAVCTMonster@@V?$allocator@PAVCTMonster@@@std@@@std@@IAE@V?$allocator@PAVCTMonster@@@1@@Z PROC NEAR ; std::_Vector_val<CTMonster *,std::allocator<CTMonster *> >::_Vector_val<CTMonster *,std::allocator<CTMonster *> >, COMDAT
; _this$ = ecx

; 21   : 		{	// construct allocator from _Al

  00000	8b c1		 mov	 eax, ecx

; 22   : 		}

  00002	c2 04 00	 ret	 4
??0?$_Vector_val@PAVCTMonster@@V?$allocator@PAVCTMonster@@@std@@@std@@IAE@V?$allocator@PAVCTMonster@@@1@@Z ENDP ; std::_Vector_val<CTMonster *,std::allocator<CTMonster *> >::_Vector_val<CTMonster *,std::allocator<CTMonster *> >
_TEXT	ENDS
PUBLIC	?_Key@?$_Tree@V?$_Tmap_traits@_JUtagAGGRO@@U?$less@_J@std@@V?$allocator@U?$pair@$$CB_JUtagAGGRO@@@std@@@3@$0A@@std@@@std@@KAAB_JPAU_Node@?$_Tree_nod@V?$_Tmap_traits@_JUtagAGGRO@@U?$less@_J@std@@V?$allocator@U?$pair@$$CB_JUtagAGGRO@@@std@@@3@$0A@@std@@@2@@Z ; std::_Tree<std::_Tmap_traits<__int64,tagAGGRO,std::less<__int64>,std::allocator<std::pair<__int64 const ,tagAGGRO> >,0> >::_Key
; Function compile flags: /Ogty
; File c:\program files (x86)\microsoft visual studio .net 2003\vc7\include\xtree
;	COMDAT ?_Key@?$_Tree@V?$_Tmap_traits@_JUtagAGGRO@@U?$less@_J@std@@V?$allocator@U?$pair@$$CB_JUtagAGGRO@@@std@@@3@$0A@@std@@@std@@KAAB_JPAU_Node@?$_Tree_nod@V?$_Tmap_traits@_JUtagAGGRO@@U?$less@_J@std@@V?$allocator@U?$pair@$$CB_JUtagAGGRO@@@std@@@3@$0A@@std@@@2@@Z
_TEXT	SEGMENT
__Pnode$ = 8						; size = 4
?_Key@?$_Tree@V?$_Tmap_traits@_JUtagAGGRO@@U?$less@_J@std@@V?$allocator@U?$pair@$$CB_JUtagAGGRO@@@std@@@3@$0A@@std@@@std@@KAAB_JPAU_Node@?$_Tree_nod@V?$_Tmap_traits@_JUtagAGGRO@@U?$less@_J@std@@V?$allocator@U?$pair@$$CB_JUtagAGGRO@@@std@@@3@$0A@@std@@@2@@Z PROC NEAR ; std::_Tree<std::_Tmap_traits<__int64,tagAGGRO,std::less<__int64>,std::allocator<std::pair<__int64 const ,tagAGGRO> >,0> >::_Key, COMDAT

; 142  : 		return (_Mybase::_Kfn(_Myval(_Pnode)));

  00000	8b 44 24 04	 mov	 eax, DWORD PTR __Pnode$[esp-4]
  00004	83 c0 10	 add	 eax, 16			; 00000010H

; 143  : 		}

  00007	c3		 ret	 0
?_Key@?$_Tree@V?$_Tmap_traits@_JUtagAGGRO@@U?$less@_J@std@@V?$allocator@U?$pair@$$CB_JUtagAGGRO@@@std@@@3@$0A@@std@@@std@@KAAB_JPAU_Node@?$_Tree_nod@V?$_Tmap_traits@_JUtagAGGRO@@U?$less@_J@std@@V?$allocator@U?$pair@$$CB_JUtagAGGRO@@@std@@@3@$0A@@std@@@2@@Z ENDP ; std::_Tree<std::_Tmap_traits<__int64,tagAGGRO,std::less<__int64>,std::allocator<std::pair<__int64 const ,tagAGGRO> >,0> >::_Key
_TEXT	ENDS
PUBLIC	??0iterator@?$_Tree@V?$_Tmap_traits@_JUtagAGGRO@@U?$less@_J@std@@V?$allocator@U?$pair@$$CB_JUtagAGGRO@@@std@@@3@$0A@@std@@@std@@QAE@PAU_Node@?$_Tree_nod@V?$_Tmap_traits@_JUtagAGGRO@@U?$less@_J@std@@V?$allocator@U?$pair@$$CB_JUtagAGGRO@@@std@@@3@$0A@@std@@@2@@Z ; std::_Tree<std::_Tmap_traits<__int64,tagAGGRO,std::less<__int64>,std::allocator<std::pair<__int64 const ,tagAGGRO> >,0> >::iterator::iterator
; Function compile flags: /Ogty
;	COMDAT ??0iterator@?$_Tree@V?$_Tmap_traits@_JUtagAGGRO@@U?$less@_J@std@@V?$allocator@U?$pair@$$CB_JUtagAGGRO@@@std@@@3@$0A@@std@@@std@@QAE@PAU_Node@?$_Tree_nod@V?$_Tmap_traits@_JUtagAGGRO@@U?$less@_J@std@@V?$allocator@U?$pair@$$CB_JUtagAGGRO@@@std@@@3@$0A@@std@@@2@@Z
_TEXT	SEGMENT
__Pnode$ = 8						; size = 4
??0iterator@?$_Tree@V?$_Tmap_traits@_JUtagAGGRO@@U?$less@_J@std@@V?$allocator@U?$pair@$$CB_JUtagAGGRO@@@std@@@3@$0A@@std@@@std@@QAE@PAU_Node@?$_Tree_nod@V?$_Tmap_traits@_JUtagAGGRO@@U?$less@_J@std@@V?$allocator@U?$pair@$$CB_JUtagAGGRO@@@std@@@3@$0A@@std@@@2@@Z PROC NEAR ; std::_Tree<std::_Tmap_traits<__int64,tagAGGRO,std::less<__int64>,std::allocator<std::pair<__int64 const ,tagAGGRO> >,0> >::iterator::iterator, COMDAT
; _this$ = ecx

; 312  : 			{	// construct with node pointer _Pnode

  00000	8b c1		 mov	 eax, ecx
  00002	8b 4c 24 04	 mov	 ecx, DWORD PTR __Pnode$[esp-4]
  00006	89 08		 mov	 DWORD PTR [eax], ecx

; 313  : 			}

  00008	c2 04 00	 ret	 4
??0iterator@?$_Tree@V?$_Tmap_traits@_JUtagAGGRO@@U?$less@_J@std@@V?$allocator@U?$pair@$$CB_JUtagAGGRO@@@std@@@3@$0A@@std@@@std@@QAE@PAU_Node@?$_Tree_nod@V?$_Tmap_traits@_JUtagAGGRO@@U?$less@_J@std@@V?$allocator@U?$pair@$$CB_JUtagAGGRO@@@std@@@3@$0A@@std@@@2@@Z ENDP ; std::_Tree<std::_Tmap_traits<__int64,tagAGGRO,std::less<__int64>,std::allocator<std::pair<__int64 const ,tagAGGRO> >,0> >::iterator::iterator
_TEXT	ENDS
PUBLIC	??Dconst_iterator@?$_Tree@V?$_Tmap_traits@_JUtagAGGRO@@U?$less@_J@std@@V?$allocator@U?$pair@$$CB_JUtagAGGRO@@@std@@@3@$0A@@std@@@std@@QBEABU?$pair@$$CB_JUtagAGGRO@@@2@XZ ; std::_Tree<std::_Tmap_traits<__int64,tagAGGRO,std::less<__int64>,std::allocator<std::pair<__int64 const ,tagAGGRO> >,0> >::const_iterator::operator*
; Function compile flags: /Ogty
;	COMDAT ??Dconst_iterator@?$_Tree@V?$_Tmap_traits@_JUtagAGGRO@@U?$less@_J@std@@V?$allocator@U?$pair@$$CB_JUtagAGGRO@@@std@@@3@$0A@@std@@@std@@QBEABU?$pair@$$CB_JUtagAGGRO@@@2@XZ
_TEXT	SEGMENT
??Dconst_iterator@?$_Tree@V?$_Tmap_traits@_JUtagAGGRO@@U?$less@_J@std@@V?$allocator@U?$pair@$$CB_JUtagAGGRO@@@std@@@3@$0A@@std@@@std@@QBEABU?$pair@$$CB_JUtagAGGRO@@@2@XZ PROC NEAR ; std::_Tree<std::_Tmap_traits<__int64,tagAGGRO,std::less<__int64>,std::allocator<std::pair<__int64 const ,tagAGGRO> >,0> >::const_iterator::operator*, COMDAT
; _this$ = ecx

; 205  : 			return (_Myval(_Ptr));

  00000	8b 01		 mov	 eax, DWORD PTR [ecx]
  00002	83 c0 10	 add	 eax, 16			; 00000010H

; 206  : 			}

  00005	c3		 ret	 0
??Dconst_iterator@?$_Tree@V?$_Tmap_traits@_JUtagAGGRO@@U?$less@_J@std@@V?$allocator@U?$pair@$$CB_JUtagAGGRO@@@std@@@3@$0A@@std@@@std@@QBEABU?$pair@$$CB_JUtagAGGRO@@@2@XZ ENDP ; std::_Tree<std::_Tmap_traits<__int64,tagAGGRO,std::less<__int64>,std::allocator<std::pair<__int64 const ,tagAGGRO> >,0> >::const_iterator::operator*
_TEXT	ENDS
PUBLIC	??Diterator@?$vector@PAVCTMonster@@V?$allocator@PAVCTMonster@@@std@@@std@@QBEAAPAVCTMonster@@XZ ; std::vector<CTMonster *,std::allocator<CTMonster *> >::iterator::operator*
; Function compile flags: /Ogty
; File c:\program files (x86)\microsoft visual studio .net 2003\vc7\include\vector
;	COMDAT ??Diterator@?$vector@PAVCTMonster@@V?$allocator@PAVCTMonster@@@std@@@std@@QBEAAPAVCTMonster@@XZ
_TEXT	SEGMENT
??Diterator@?$vector@PAVCTMonster@@V?$allocator@PAVCTMonster@@@std@@@std@@QBEAAPAVCTMonster@@XZ PROC NEAR ; std::vector<CTMonster *,std::allocator<CTMonster *> >::iterator::operator*, COMDAT
; _this$ = ecx

; 220  : 			return ((reference)**(const_iterator *)this);

  00000	8b 01		 mov	 eax, DWORD PTR [ecx]

; 221  : 			}

  00002	c3		 ret	 0
??Diterator@?$vector@PAVCTMonster@@V?$allocator@PAVCTMonster@@@std@@@std@@QBEAAPAVCTMonster@@XZ ENDP ; std::vector<CTMonster *,std::allocator<CTMonster *> >::iterator::operator*
_TEXT	ENDS
PUBLIC	?max_size@?$vector@PAVCTMonster@@V?$allocator@PAVCTMonster@@@std@@@std@@QBEIXZ ; std::vector<CTMonster *,std::allocator<CTMonster *> >::max_size
; Function compile flags: /Ogty
;	COMDAT ?max_size@?$vector@PAVCTMonster@@V?$allocator@PAVCTMonster@@@std@@@std@@QBEIXZ
_TEXT	SEGMENT
?max_size@?$vector@PAVCTMonster@@V?$allocator@PAVCTMonster@@@std@@@std@@QBEIXZ PROC NEAR ; std::vector<CTMonster *,std::allocator<CTMonster *> >::max_size, COMDAT
; _this$ = ecx

; 521  : 		return (this->_Alval.max_size());

  00000	b8 ff ff ff 3f	 mov	 eax, 1073741823		; 3fffffffH

; 522  : 		}

  00005	c3		 ret	 0
?max_size@?$vector@PAVCTMonster@@V?$allocator@PAVCTMonster@@@std@@@std@@QBEIXZ ENDP ; std::vector<CTMonster *,std::allocator<CTMonster *> >::max_size
_TEXT	ENDS
PUBLIC	?allocate@?$allocator@PAVCTMonster@@@std@@QAEPAPAVCTMonster@@I@Z ; std::allocator<CTMonster *>::allocate
; Function compile flags: /Ogty
; File c:\program files (x86)\microsoft visual studio .net 2003\vc7\include\xmemory
;	COMDAT ?allocate@?$allocator@PAVCTMonster@@@std@@QAEPAPAVCTMonster@@I@Z
_TEXT	SEGMENT
__Count$ = 8						; size = 4
?allocate@?$allocator@PAVCTMonster@@@std@@QAEPAPAVCTMonster@@I@Z PROC NEAR ; std::allocator<CTMonster *>::allocate, COMDAT
; _this$ = ecx

; 137  : 		return (_Allocate(_Count, (pointer)0));

  00000	8b 44 24 04	 mov	 eax, DWORD PTR __Count$[esp-4]
  00004	8d 0c 85 00 00
	00 00		 lea	 ecx, DWORD PTR [eax*4]
  0000b	51		 push	 ecx
  0000c	e8 00 00 00 00	 call	 ??2@YAPAXI@Z		; operator new
  00011	83 c4 04	 add	 esp, 4

; 138  : 		}

  00014	c2 04 00	 ret	 4
?allocate@?$allocator@PAVCTMonster@@@std@@QAEPAPAVCTMonster@@I@Z ENDP ; std::allocator<CTMonster *>::allocate
_TEXT	ENDS
PUBLIC	??0iterator@?$vector@PAVCTMonster@@V?$allocator@PAVCTMonster@@@std@@@std@@QAE@PAPAVCTMonster@@@Z ; std::vector<CTMonster *,std::allocator<CTMonster *> >::iterator::iterator
; Function compile flags: /Ogty
; File c:\program files (x86)\microsoft visual studio .net 2003\vc7\include\vector
;	COMDAT ??0iterator@?$vector@PAVCTMonster@@V?$allocator@PAVCTMonster@@@std@@@std@@QAE@PAPAVCTMonster@@@Z
_TEXT	SEGMENT
__Ptr$ = 8						; size = 4
??0iterator@?$vector@PAVCTMonster@@V?$allocator@PAVCTMonster@@@std@@@std@@QAE@PAPAVCTMonster@@@Z PROC NEAR ; std::vector<CTMonster *,std::allocator<CTMonster *> >::iterator::iterator, COMDAT
; _this$ = ecx

; 215  : 			{	// construct with pointer _Ptr

  00000	8b c1		 mov	 eax, ecx
  00002	8b 4c 24 04	 mov	 ecx, DWORD PTR __Ptr$[esp-4]
  00006	89 08		 mov	 DWORD PTR [eax], ecx

; 216  : 			}

  00008	c2 04 00	 ret	 4
??0iterator@?$vector@PAVCTMonster@@V?$allocator@PAVCTMonster@@@std@@@std@@QAE@PAPAVCTMonster@@@Z ENDP ; std::vector<CTMonster *,std::allocator<CTMonster *> >::iterator::iterator
_TEXT	ENDS
PUBLIC	??Ziterator@?$vector@PAVCTMonster@@V?$allocator@PAVCTMonster@@@std@@@std@@QAEAAV012@H@Z ; std::vector<CTMonster *,std::allocator<CTMonster *> >::iterator::operator-=
; Function compile flags: /Ogty
;	COMDAT ??Ziterator@?$vector@PAVCTMonster@@V?$allocator@PAVCTMonster@@@std@@@std@@QAEAAV012@H@Z
_TEXT	SEGMENT
__Off$ = 8						; size = 4
??Ziterator@?$vector@PAVCTMonster@@V?$allocator@PAVCTMonster@@@std@@@std@@QAEAAV012@H@Z PROC NEAR ; std::vector<CTMonster *,std::allocator<CTMonster *> >::iterator::operator-=, COMDAT
; _this$ = ecx

; 267  : 			{	// decrement by integer

  00000	8b c1		 mov	 eax, ecx

; 268  : 			return (*this += -_Off);

  00002	8b 4c 24 04	 mov	 ecx, DWORD PTR __Off$[esp-4]
  00006	8b 10		 mov	 edx, DWORD PTR [eax]
  00008	f7 d9		 neg	 ecx
  0000a	c1 e1 02	 shl	 ecx, 2
  0000d	03 d1		 add	 edx, ecx
  0000f	89 10		 mov	 DWORD PTR [eax], edx

; 269  : 			}

  00011	c2 04 00	 ret	 4
??Ziterator@?$vector@PAVCTMonster@@V?$allocator@PAVCTMonster@@@std@@@std@@QAEAAV012@H@Z ENDP ; std::vector<CTMonster *,std::allocator<CTMonster *> >::iterator::operator-=
_TEXT	ENDS
PUBLIC	?_Root@?$_Tree@V?$_Tmap_traits@_JUtagAGGRO@@U?$less@_J@std@@V?$allocator@U?$pair@$$CB_JUtagAGGRO@@@std@@@3@$0A@@std@@@std@@IBEAAPAU_Node@?$_Tree_nod@V?$_Tmap_traits@_JUtagAGGRO@@U?$less@_J@std@@V?$allocator@U?$pair@$$CB_JUtagAGGRO@@@std@@@3@$0A@@std@@@2@XZ ; std::_Tree<std::_Tmap_traits<__int64,tagAGGRO,std::less<__int64>,std::allocator<std::pair<__int64 const ,tagAGGRO> >,0> >::_Root
; Function compile flags: /Ogty
; File c:\program files (x86)\microsoft visual studio .net 2003\vc7\include\xtree
;	COMDAT ?_Root@?$_Tree@V?$_Tmap_traits@_JUtagAGGRO@@U?$less@_J@std@@V?$allocator@U?$pair@$$CB_JUtagAGGRO@@@std@@@3@$0A@@std@@@std@@IBEAAPAU_Node@?$_Tree_nod@V?$_Tmap_traits@_JUtagAGGRO@@U?$less@_J@std@@V?$allocator@U?$pair@$$CB_JUtagAGGRO@@@std@@@3@$0A@@std@@@2@XZ
_TEXT	SEGMENT
?_Root@?$_Tree@V?$_Tmap_traits@_JUtagAGGRO@@U?$less@_J@std@@V?$allocator@U?$pair@$$CB_JUtagAGGRO@@@std@@@3@$0A@@std@@@std@@IBEAAPAU_Node@?$_Tree_nod@V?$_Tmap_traits@_JUtagAGGRO@@U?$less@_J@std@@V?$allocator@U?$pair@$$CB_JUtagAGGRO@@@std@@@3@$0A@@std@@@2@XZ PROC NEAR ; std::_Tree<std::_Tmap_traits<__int64,tagAGGRO,std::less<__int64>,std::allocator<std::pair<__int64 const ,tagAGGRO> >,0> >::_Root, COMDAT
; _this$ = ecx

; 1064 : 		return (_Parent(_Myhead));

  00000	8b 41 04	 mov	 eax, DWORD PTR [ecx+4]
  00003	83 c0 04	 add	 eax, 4

; 1065 : 		}

  00006	c3		 ret	 0
?_Root@?$_Tree@V?$_Tmap_traits@_JUtagAGGRO@@U?$less@_J@std@@V?$allocator@U?$pair@$$CB_JUtagAGGRO@@@std@@@3@$0A@@std@@@std@@IBEAAPAU_Node@?$_Tree_nod@V?$_Tmap_traits@_JUtagAGGRO@@U?$less@_J@std@@V?$allocator@U?$pair@$$CB_JUtagAGGRO@@@std@@@3@$0A@@std@@@2@XZ ENDP ; std::_Tree<std::_Tmap_traits<__int64,tagAGGRO,std::less<__int64>,std::allocator<std::pair<__int64 const ,tagAGGRO> >,0> >::_Root
_TEXT	ENDS
PUBLIC	??$_Destroy_range@PAVCTMonster@@V?$allocator@PAVCTMonster@@@std@@@std@@YAXPAPAVCTMonster@@0AAV?$allocator@PAVCTMonster@@@0@@Z ; std::_Destroy_range<CTMonster *,std::allocator<CTMonster *> >
; Function compile flags: /Ogty
; File c:\program files (x86)\microsoft visual studio .net 2003\vc7\include\xmemory
;	COMDAT ??$_Destroy_range@PAVCTMonster@@V?$allocator@PAVCTMonster@@@std@@@std@@YAXPAPAVCTMonster@@0AAV?$allocator@PAVCTMonster@@@0@@Z
_TEXT	SEGMENT
__First$ = 8						; size = 4
__Last$ = 12						; size = 4
__Al$ = 16						; size = 4
??$_Destroy_range@PAVCTMonster@@V?$allocator@PAVCTMonster@@@std@@@std@@YAXPAPAVCTMonster@@0AAV?$allocator@PAVCTMonster@@@0@@Z PROC NEAR ; std::_Destroy_range<CTMonster *,std::allocator<CTMonster *> >, COMDAT

; 217  : 	_Destroy_range(_First, _Last, _Al, _Ptr_cat(_First, _Last));
; 218  : 	}

  00000	c3		 ret	 0
??$_Destroy_range@PAVCTMonster@@V?$allocator@PAVCTMonster@@@std@@@std@@YAXPAPAVCTMonster@@0AAV?$allocator@PAVCTMonster@@@0@@Z ENDP ; std::_Destroy_range<CTMonster *,std::allocator<CTMonster *> >
_TEXT	ENDS
PUBLIC	?GetLength@?$CSimpleStringT@D$0A@@ATL@@QBEHXZ	; ATL::CSimpleStringT<char,0>::GetLength
; Function compile flags: /Ogty
; File c:\program files (x86)\microsoft visual studio .net 2003\vc7\atlmfc\include\atlsimpstr.h
;	COMDAT ?GetLength@?$CSimpleStringT@D$0A@@ATL@@QBEHXZ
_TEXT	SEGMENT
?GetLength@?$CSimpleStringT@D$0A@@ATL@@QBEHXZ PROC NEAR	; ATL::CSimpleStringT<char,0>::GetLength, COMDAT
; _this$ = ecx

; 501  : 		return( GetData()->nDataLength );

  00000	8b 01		 mov	 eax, DWORD PTR [ecx]
  00002	8b 40 f4	 mov	 eax, DWORD PTR [eax-12]

; 502  : 	}

  00005	c3		 ret	 0
?GetLength@?$CSimpleStringT@D$0A@@ATL@@QBEHXZ ENDP	; ATL::CSimpleStringT<char,0>::GetLength
_TEXT	ENDS
PUBLIC	??0?$CSimpleStringT@D$0A@@ATL@@QAE@PAUIAtlStringMgr@1@@Z ; ATL::CSimpleStringT<char,0>::CSimpleStringT<char,0>
; Function compile flags: /Ogty
;	COMDAT ??0?$CSimpleStringT@D$0A@@ATL@@QAE@PAUIAtlStringMgr@1@@Z
_TEXT	SEGMENT
_pStringMgr$ = 8					; size = 4
??0?$CSimpleStringT@D$0A@@ATL@@QAE@PAUIAtlStringMgr@1@@Z PROC NEAR ; ATL::CSimpleStringT<char,0>::CSimpleStringT<char,0>, COMDAT
; _this$ = ecx

; 210  : 	explicit CSimpleStringT( IAtlStringMgr* pStringMgr ) throw()

  00000	56		 push	 esi
  00001	8b f1		 mov	 esi, ecx

; 211  : 	{
; 212  : 		ATLASSERT( pStringMgr != NULL );
; 213  : 		CStringData* pData = pStringMgr->GetNilString();

  00003	8b 4c 24 08	 mov	 ecx, DWORD PTR _pStringMgr$[esp]
  00007	8b 01		 mov	 eax, DWORD PTR [ecx]
  00009	ff 50 0c	 call	 DWORD PTR [eax+12]

; 214  : 		Attach( pData );

  0000c	83 c0 10	 add	 eax, 16			; 00000010H
  0000f	89 06		 mov	 DWORD PTR [esi], eax

; 215  : 	}

  00011	8b c6		 mov	 eax, esi
  00013	5e		 pop	 esi
  00014	c2 04 00	 ret	 4
??0?$CSimpleStringT@D$0A@@ATL@@QAE@PAUIAtlStringMgr@1@@Z ENDP ; ATL::CSimpleStringT<char,0>::CSimpleStringT<char,0>
_TEXT	ENDS
PUBLIC	??1?$CSimpleStringT@D$0A@@ATL@@QAE@XZ		; ATL::CSimpleStringT<char,0>::~CSimpleStringT<char,0>
; Function compile flags: /Ogty
;	COMDAT ??1?$CSimpleStringT@D$0A@@ATL@@QAE@XZ
_TEXT	SEGMENT
??1?$CSimpleStringT@D$0A@@ATL@@QAE@XZ PROC NEAR		; ATL::CSimpleStringT<char,0>::~CSimpleStringT<char,0>, COMDAT
; _this$ = ecx

; 263  : 		CStringData* pData = GetData();

  00000	8b 01		 mov	 eax, DWORD PTR [ecx]
  00002	83 e8 10	 sub	 eax, 16			; 00000010H

; 264  : 		pData->Release();

  00005	8d 48 0c	 lea	 ecx, DWORD PTR [eax+12]
  00008	83 ca ff	 or	 edx, -1
  0000b	f0 0f c1 11	 lock	  xadd	 DWORD PTR [ecx], edx
  0000f	4a		 dec	 edx
  00010	85 d2		 test	 edx, edx
  00012	7f 08		 jg	 SHORT $L153865
  00014	8b 08		 mov	 ecx, DWORD PTR [eax]
  00016	8b 11		 mov	 edx, DWORD PTR [ecx]
  00018	50		 push	 eax
  00019	ff 52 04	 call	 DWORD PTR [edx+4]
$L153865:

; 265  : 	}

  0001c	c3		 ret	 0
??1?$CSimpleStringT@D$0A@@ATL@@QAE@XZ ENDP		; ATL::CSimpleStringT<char,0>::~CSimpleStringT<char,0>
_TEXT	ENDS
PUBLIC	??0?$_String_val@DV?$allocator@D@std@@@std@@IAE@V?$allocator@D@1@@Z ; std::_String_val<char,std::allocator<char> >::_String_val<char,std::allocator<char> >
; Function compile flags: /Ogty
; File c:\program files (x86)\microsoft visual studio .net 2003\vc7\include\xstring
;	COMDAT ??0?$_String_val@DV?$allocator@D@std@@@std@@IAE@V?$allocator@D@1@@Z
_TEXT	SEGMENT
__Al$ = 8						; size = 1
??0?$_String_val@DV?$allocator@D@std@@@std@@IAE@V?$allocator@D@1@@Z PROC NEAR ; std::_String_val<char,std::allocator<char> >::_String_val<char,std::allocator<char> >, COMDAT
; _this$ = ecx

; 34   : 		{	// construct allocator from _Al

  00000	8b c1		 mov	 eax, ecx

; 35   : 		}

  00002	c2 04 00	 ret	 4
??0?$_String_val@DV?$allocator@D@std@@@std@@IAE@V?$allocator@D@1@@Z ENDP ; std::_String_val<char,std::allocator<char> >::_String_val<char,std::allocator<char> >
_TEXT	ENDS
PUBLIC	?ReleaseBufferSetLength@?$CSimpleStringT@D$0A@@ATL@@QAEXH@Z ; ATL::CSimpleStringT<char,0>::ReleaseBufferSetLength
; Function compile flags: /Ogty
; File c:\program files (x86)\microsoft visual studio .net 2003\vc7\atlmfc\include\atlsimpstr.h
;	COMDAT ?ReleaseBufferSetLength@?$CSimpleStringT@D$0A@@ATL@@QAEXH@Z
_TEXT	SEGMENT
_nNewLength$ = 8					; size = 4
?ReleaseBufferSetLength@?$CSimpleStringT@D$0A@@ATL@@QAEXH@Z PROC NEAR ; ATL::CSimpleStringT<char,0>::ReleaseBufferSetLength, COMDAT
; _this$ = ecx

; 547  : 		ATLASSERT( nNewLength >= 0 );
; 548  : 		SetLength( nNewLength );

  00000	8b 44 24 04	 mov	 eax, DWORD PTR _nNewLength$[esp-4]
  00004	85 c0		 test	 eax, eax
  00006	7c 13		 jl	 SHORT $L153889
  00008	8b 11		 mov	 edx, DWORD PTR [ecx]
  0000a	3b 42 f8	 cmp	 eax, DWORD PTR [edx-8]
  0000d	7f 0c		 jg	 SHORT $L153889
  0000f	89 42 f4	 mov	 DWORD PTR [edx-12], eax
  00012	8b 09		 mov	 ecx, DWORD PTR [ecx]
  00014	c6 04 08 00	 mov	 BYTE PTR [eax+ecx], 0

; 549  : 	}

  00018	c2 04 00	 ret	 4
$L153889:
  0001b	68 57 00 07 80	 push	 -2147024809		; 80070057H
  00020	e8 00 00 00 00	 call	 ?AtlThrow@ATL@@YGXJ@Z	; ATL::AtlThrow
$L153892:
$L153891:
  00025	cc		 int	 3
?ReleaseBufferSetLength@?$CSimpleStringT@D$0A@@ATL@@QAEXH@Z ENDP ; ATL::CSimpleStringT<char,0>::ReleaseBufferSetLength
_TEXT	ENDS
PUBLIC	?PrepareWrite2@?$CSimpleStringT@D$0A@@ATL@@AAEXH@Z ; ATL::CSimpleStringT<char,0>::PrepareWrite2
; Function compile flags: /Ogty
;	COMDAT ?PrepareWrite2@?$CSimpleStringT@D$0A@@ATL@@AAEXH@Z
_TEXT	SEGMENT
_nLength$ = 8						; size = 4
?PrepareWrite2@?$CSimpleStringT@D$0A@@ATL@@AAEXH@Z PROC NEAR ; ATL::CSimpleStringT<char,0>::PrepareWrite2, COMDAT
; _this$ = ecx

; 747  : 		CStringData* pOldData = GetData();

  00000	8b 01		 mov	 eax, DWORD PTR [ecx]

; 748  : 		if( pOldData->nDataLength > nLength )

  00002	8b 54 24 04	 mov	 edx, DWORD PTR _nLength$[esp-4]
  00006	83 e8 10	 sub	 eax, 16			; 00000010H
  00009	56		 push	 esi
  0000a	8b 70 04	 mov	 esi, DWORD PTR [eax+4]
  0000d	3b f2		 cmp	 esi, edx
  0000f	7e 02		 jle	 SHORT $L149740

; 749  : 		{
; 750  : 			nLength = pOldData->nDataLength;

  00011	8b d6		 mov	 edx, esi
$L149740:

; 751  : 		}
; 752  : 		if( pOldData->IsShared() )

  00013	83 78 0c 01	 cmp	 DWORD PTR [eax+12], 1
  00017	5e		 pop	 esi
  00018	7e 09		 jle	 SHORT $L149741

; 753  : 		{
; 754  : 			Fork( nLength );

  0001a	89 54 24 04	 mov	 DWORD PTR _nLength$[esp-4], edx
  0001e	e9 00 00 00 00	 jmp	 ?Fork@?$CSimpleStringT@D$0A@@ATL@@AAEXH@Z ; ATL::CSimpleStringT<char,0>::Fork
$L149741:

; 755  : 		}
; 756  : 		else if( pOldData->nAllocLength < nLength )

  00023	8b 40 08	 mov	 eax, DWORD PTR [eax+8]
  00026	3b c2		 cmp	 eax, edx
  00028	7d 1f		 jge	 SHORT $L149743

; 757  : 		{
; 758  : 			// Grow exponentially, until we hit 1K.
; 759  : 			int nNewLength = pOldData->nAllocLength;
; 760  : 			if( nNewLength > 1024 )

  0002a	3d 00 04 00 00	 cmp	 eax, 1024		; 00000400H
  0002f	7e 07		 jle	 SHORT $L149745

; 761  : 			{
; 762  : 				nNewLength += 1024;

  00031	05 00 04 00 00	 add	 eax, 1024		; 00000400H

; 763  : 			}
; 764  : 			else

  00036	eb 02		 jmp	 SHORT $L149746
$L149745:

; 765  : 			{
; 766  : 				nNewLength *= 2;

  00038	03 c0		 add	 eax, eax
$L149746:

; 767  : 			}
; 768  : 			if( nNewLength < nLength )

  0003a	3b c2		 cmp	 eax, edx
  0003c	7d 02		 jge	 SHORT $L149747

; 769  : 			{
; 770  : 				nNewLength = nLength;

  0003e	8b c2		 mov	 eax, edx
$L149747:

; 771  : 			}
; 772  : 			Reallocate( nNewLength );

  00040	89 44 24 04	 mov	 DWORD PTR _nLength$[esp-4], eax
  00044	e9 00 00 00 00	 jmp	 ?Reallocate@?$CSimpleStringT@D$0A@@ATL@@AAEXH@Z ; ATL::CSimpleStringT<char,0>::Reallocate
$L149743:

; 773  : 		}
; 774  : 	}

  00049	c2 04 00	 ret	 4
?PrepareWrite2@?$CSimpleStringT@D$0A@@ATL@@AAEXH@Z ENDP	; ATL::CSimpleStringT<char,0>::PrepareWrite2
_TEXT	ENDS
PUBLIC	?_Eos@?$basic_string@DU?$char_traits@D@std@@V?$allocator@D@2@@std@@IAEXI@Z ; std::basic_string<char,std::char_traits<char>,std::allocator<char> >::_Eos
; Function compile flags: /Ogty
; File c:\program files (x86)\microsoft visual studio .net 2003\vc7\include\xstring
;	COMDAT ?_Eos@?$basic_string@DU?$char_traits@D@std@@V?$allocator@D@2@@std@@IAEXI@Z
_TEXT	SEGMENT
__Newsize$ = 8						; size = 4
?_Eos@?$basic_string@DU?$char_traits@D@std@@V?$allocator@D@2@@std@@IAEXI@Z PROC NEAR ; std::basic_string<char,std::char_traits<char>,std::allocator<char> >::_Eos, COMDAT
; _this$ = ecx

; 1475 : 		_Traits::assign(_Myptr()[_Mysize = _Newsize], _Elem());

  00000	83 79 18 10	 cmp	 DWORD PTR [ecx+24], 16	; 00000010H
  00004	8b 44 24 04	 mov	 eax, DWORD PTR __Newsize$[esp-4]
  00008	89 41 14	 mov	 DWORD PTR [ecx+20], eax
  0000b	72 0a		 jb	 SHORT $L153911
  0000d	8b 49 04	 mov	 ecx, DWORD PTR [ecx+4]
  00010	c6 04 01 00	 mov	 BYTE PTR [ecx+eax], 0

; 1476 : 		}

  00014	c2 04 00	 ret	 4

; 1475 : 		_Traits::assign(_Myptr()[_Mysize = _Newsize], _Elem());

$L153911:
  00017	c6 44 01 04 00	 mov	 BYTE PTR [ecx+eax+4], 0

; 1476 : 		}

  0001c	c2 04 00	 ret	 4
?_Eos@?$basic_string@DU?$char_traits@D@std@@V?$allocator@D@2@@std@@IAEXI@Z ENDP ; std::basic_string<char,std::char_traits<char>,std::allocator<char> >::_Eos
_TEXT	ENDS
PUBLIC	?Empty@?$CSimpleStringT@D$0A@@ATL@@QAEXXZ	; ATL::CSimpleStringT<char,0>::Empty
; Function compile flags: /Ogty
; File c:\program files (x86)\microsoft visual studio .net 2003\vc7\atlmfc\include\atlsimpstr.h
;	COMDAT ?Empty@?$CSimpleStringT@D$0A@@ATL@@QAEXXZ
_TEXT	SEGMENT
?Empty@?$CSimpleStringT@D$0A@@ATL@@QAEXXZ PROC NEAR	; ATL::CSimpleStringT<char,0>::Empty, COMDAT
; _this$ = ecx

; 421  : 	{

  00000	56		 push	 esi
  00001	8b f1		 mov	 esi, ecx

; 422  : 		CStringData* pOldData = GetData();

  00003	8b 0e		 mov	 ecx, DWORD PTR [esi]

; 423  : 		IAtlStringMgr* pStringMgr = pOldData->pStringMgr;
; 424  : 		if( pOldData->nDataLength == 0 )

  00005	8b 51 f4	 mov	 edx, DWORD PTR [ecx-12]
  00008	85 d2		 test	 edx, edx
  0000a	8d 41 f0	 lea	 eax, DWORD PTR [ecx-16]
  0000d	57		 push	 edi
  0000e	8b 38		 mov	 edi, DWORD PTR [eax]
  00010	74 4c		 je	 SHORT $L153949
  00012	53		 push	 ebx

; 425  : 		{
; 426  : 			return;
; 427  : 		}
; 428  : 
; 429  : 		if( pOldData->IsLocked() )

  00013	8b 58 0c	 mov	 ebx, DWORD PTR [eax+12]
  00016	8d 50 0c	 lea	 edx, DWORD PTR [eax+12]
  00019	85 db		 test	 ebx, ebx
  0001b	5b		 pop	 ebx
  0001c	7d 20		 jge	 SHORT $L150462

; 430  : 		{
; 431  : 			// Don't reallocate a locked buffer that's shrinking
; 432  : 			SetLength( 0 );

  0001e	8b 41 f8	 mov	 eax, DWORD PTR [ecx-8]
  00021	85 c0		 test	 eax, eax
  00023	7d 0a		 jge	 SHORT $L153938
  00025	68 57 00 07 80	 push	 -2147024809		; 80070057H
  0002a	e8 00 00 00 00	 call	 ?AtlThrow@ATL@@YGXJ@Z	; ATL::AtlThrow
$L153954:
$L153938:
  0002f	c7 41 f4 00 00
	00 00		 mov	 DWORD PTR [ecx-12], 0
  00036	8b 06		 mov	 eax, DWORD PTR [esi]
  00038	5f		 pop	 edi
  00039	c6 00 00	 mov	 BYTE PTR [eax], 0
  0003c	5e		 pop	 esi

; 439  : 		}
; 440  : 	}

  0003d	c3		 ret	 0
$L150462:

; 433  : 		}
; 434  : 		else
; 435  : 		{
; 436  : 			pOldData->Release();

  0003e	83 c9 ff	 or	 ecx, -1
  00041	f0 0f c1 0a	 lock	  xadd	 DWORD PTR [edx], ecx
  00045	49		 dec	 ecx
  00046	85 c9		 test	 ecx, ecx
  00048	7f 08		 jg	 SHORT $L153944
  0004a	8b 08		 mov	 ecx, DWORD PTR [eax]
  0004c	8b 11		 mov	 edx, DWORD PTR [ecx]
  0004e	50		 push	 eax
  0004f	ff 52 04	 call	 DWORD PTR [edx+4]
$L153944:

; 437  : 			CStringData* pNewData = pStringMgr->GetNilString();

  00052	8b 07		 mov	 eax, DWORD PTR [edi]
  00054	8b cf		 mov	 ecx, edi
  00056	ff 50 0c	 call	 DWORD PTR [eax+12]

; 438  : 			Attach( pNewData );

  00059	83 c0 10	 add	 eax, 16			; 00000010H
  0005c	89 06		 mov	 DWORD PTR [esi], eax
$L153949:
  0005e	5f		 pop	 edi
  0005f	5e		 pop	 esi

; 439  : 		}
; 440  : 	}

  00060	c3		 ret	 0
$L153953:
?Empty@?$CSimpleStringT@D$0A@@ATL@@QAEXXZ ENDP		; ATL::CSimpleStringT<char,0>::Empty
_TEXT	ENDS
PUBLIC	?max_size@?$basic_string@DU?$char_traits@D@std@@V?$allocator@D@2@@std@@QBEIXZ ; std::basic_string<char,std::char_traits<char>,std::allocator<char> >::max_size
; Function compile flags: /Ogty
; File c:\program files (x86)\microsoft visual studio .net 2003\vc7\include\xstring
;	COMDAT ?max_size@?$basic_string@DU?$char_traits@D@std@@V?$allocator@D@2@@std@@QBEIXZ
_TEXT	SEGMENT
?max_size@?$basic_string@DU?$char_traits@D@std@@V?$allocator@D@2@@std@@QBEIXZ PROC NEAR ; std::basic_string<char,std::char_traits<char>,std::allocator<char> >::max_size, COMDAT
; _this$ = ecx

; 1114 : 		size_type _Num = _Mybase::_Alval.max_size();
; 1115 : 		return (_Num <= 1 ? 1 : _Num - 1);

  00000	b8 fe ff ff ff	 mov	 eax, -2			; fffffffeH

; 1116 : 		}

  00005	c3		 ret	 0
?max_size@?$basic_string@DU?$char_traits@D@std@@V?$allocator@D@2@@std@@QBEIXZ ENDP ; std::basic_string<char,std::char_traits<char>,std::allocator<char> >::max_size
_TEXT	ENDS
PUBLIC	?allocate@?$allocator@D@std@@QAEPADI@Z		; std::allocator<char>::allocate
; Function compile flags: /Ogty
; File c:\program files (x86)\microsoft visual studio .net 2003\vc7\include\xmemory
;	COMDAT ?allocate@?$allocator@D@std@@QAEPADI@Z
_TEXT	SEGMENT
__Count$ = 8						; size = 4
?allocate@?$allocator@D@std@@QAEPADI@Z PROC NEAR	; std::allocator<char>::allocate, COMDAT
; _this$ = ecx

; 137  : 		return (_Allocate(_Count, (pointer)0));

  00000	8b 44 24 04	 mov	 eax, DWORD PTR __Count$[esp-4]
  00004	50		 push	 eax
  00005	e8 00 00 00 00	 call	 ??2@YAPAXI@Z		; operator new
  0000a	83 c4 04	 add	 esp, 4

; 138  : 		}

  0000d	c2 04 00	 ret	 4
?allocate@?$allocator@D@std@@QAEPADI@Z ENDP		; std::allocator<char>::allocate
_TEXT	ENDS
PUBLIC	?end@?$_Tree@V?$_Tmap_traits@_JUtagAGGRO@@U?$less@_J@std@@V?$allocator@U?$pair@$$CB_JUtagAGGRO@@@std@@@3@$0A@@std@@@std@@QAE?AViterator@12@XZ ; std::_Tree<std::_Tmap_traits<__int64,tagAGGRO,std::less<__int64>,std::allocator<std::pair<__int64 const ,tagAGGRO> >,0> >::end
; Function compile flags: /Ogty
; File c:\program files (x86)\microsoft visual studio .net 2003\vc7\include\xtree
;	COMDAT ?end@?$_Tree@V?$_Tmap_traits@_JUtagAGGRO@@U?$less@_J@std@@V?$allocator@U?$pair@$$CB_JUtagAGGRO@@@std@@@3@$0A@@std@@@std@@QAE?AViterator@12@XZ
_TEXT	SEGMENT
___$ReturnUdt$ = 8					; size = 4
?end@?$_Tree@V?$_Tmap_traits@_JUtagAGGRO@@U?$less@_J@std@@V?$allocator@U?$pair@$$CB_JUtagAGGRO@@@std@@@3@$0A@@std@@@std@@QAE?AViterator@12@XZ PROC NEAR ; std::_Tree<std::_Tmap_traits<__int64,tagAGGRO,std::less<__int64>,std::allocator<std::pair<__int64 const ,tagAGGRO> >,0> >::end, COMDAT
; _this$ = ecx

; 418  : 		return (_TREE_ITERATOR(_Myhead));

  00000	8b 49 04	 mov	 ecx, DWORD PTR [ecx+4]
  00003	8b 44 24 04	 mov	 eax, DWORD PTR ___$ReturnUdt$[esp-4]
  00007	89 08		 mov	 DWORD PTR [eax], ecx

; 419  : 		}

  00009	c2 04 00	 ret	 4
?end@?$_Tree@V?$_Tmap_traits@_JUtagAGGRO@@U?$less@_J@std@@V?$allocator@U?$pair@$$CB_JUtagAGGRO@@@std@@@3@$0A@@std@@@std@@QAE?AViterator@12@XZ ENDP ; std::_Tree<std::_Tmap_traits<__int64,tagAGGRO,std::less<__int64>,std::allocator<std::pair<__int64 const ,tagAGGRO> >,0> >::end
_TEXT	ENDS
PUBLIC	??Diterator@?$_Tree@V?$_Tmap_traits@_JUtagAGGRO@@U?$less@_J@std@@V?$allocator@U?$pair@$$CB_JUtagAGGRO@@@std@@@3@$0A@@std@@@std@@QBEAAU?$pair@$$CB_JUtagAGGRO@@@2@XZ ; std::_Tree<std::_Tmap_traits<__int64,tagAGGRO,std::less<__int64>,std::allocator<std::pair<__int64 const ,tagAGGRO> >,0> >::iterator::operator*
; Function compile flags: /Ogty
;	COMDAT ??Diterator@?$_Tree@V?$_Tmap_traits@_JUtagAGGRO@@U?$less@_J@std@@V?$allocator@U?$pair@$$CB_JUtagAGGRO@@@std@@@3@$0A@@std@@@std@@QBEAAU?$pair@$$CB_JUtagAGGRO@@@2@XZ
_TEXT	SEGMENT
??Diterator@?$_Tree@V?$_Tmap_traits@_JUtagAGGRO@@U?$less@_J@std@@V?$allocator@U?$pair@$$CB_JUtagAGGRO@@@std@@@3@$0A@@std@@@std@@QBEAAU?$pair@$$CB_JUtagAGGRO@@@2@XZ PROC NEAR ; std::_Tree<std::_Tmap_traits<__int64,tagAGGRO,std::less<__int64>,std::allocator<std::pair<__int64 const ,tagAGGRO> >,0> >::iterator::operator*, COMDAT
; _this$ = ecx

; 317  : 			return ((reference)**(const_iterator *)this);

  00000	8b 01		 mov	 eax, DWORD PTR [ecx]
  00002	83 c0 10	 add	 eax, 16			; 00000010H

; 318  : 			}

  00005	c3		 ret	 0
??Diterator@?$_Tree@V?$_Tmap_traits@_JUtagAGGRO@@U?$less@_J@std@@V?$allocator@U?$pair@$$CB_JUtagAGGRO@@@std@@@3@$0A@@std@@@std@@QBEAAU?$pair@$$CB_JUtagAGGRO@@@2@XZ ENDP ; std::_Tree<std::_Tmap_traits<__int64,tagAGGRO,std::less<__int64>,std::allocator<std::pair<__int64 const ,tagAGGRO> >,0> >::iterator::operator*
_TEXT	ENDS
PUBLIC	?end@?$vector@PAVCTMonster@@V?$allocator@PAVCTMonster@@@std@@@std@@QAE?AViterator@12@XZ ; std::vector<CTMonster *,std::allocator<CTMonster *> >::end
; Function compile flags: /Ogty
; File c:\program files (x86)\microsoft visual studio .net 2003\vc7\include\vector
;	COMDAT ?end@?$vector@PAVCTMonster@@V?$allocator@PAVCTMonster@@@std@@@std@@QAE?AViterator@12@XZ
_TEXT	SEGMENT
___$ReturnUdt$ = 8					; size = 4
?end@?$vector@PAVCTMonster@@V?$allocator@PAVCTMonster@@@std@@@std@@QAE?AViterator@12@XZ PROC NEAR ; std::vector<CTMonster *,std::allocator<CTMonster *> >::end, COMDAT
; _this$ = ecx

; 473  : 		return (iterator(_Mylast));

  00000	8b 49 08	 mov	 ecx, DWORD PTR [ecx+8]
  00003	8b 44 24 04	 mov	 eax, DWORD PTR ___$ReturnUdt$[esp-4]
  00007	89 08		 mov	 DWORD PTR [eax], ecx

; 474  : 		}

  00009	c2 04 00	 ret	 4
?end@?$vector@PAVCTMonster@@V?$allocator@PAVCTMonster@@@std@@@std@@QAE?AViterator@12@XZ ENDP ; std::vector<CTMonster *,std::allocator<CTMonster *> >::end
_TEXT	ENDS
PUBLIC	?_Destroy@?$vector@PAVCTMonster@@V?$allocator@PAVCTMonster@@@std@@@std@@IAEXPAPAVCTMonster@@0@Z ; std::vector<CTMonster *,std::allocator<CTMonster *> >::_Destroy
; Function compile flags: /Ogty
;	COMDAT ?_Destroy@?$vector@PAVCTMonster@@V?$allocator@PAVCTMonster@@@std@@@std@@IAEXPAPAVCTMonster@@0@Z
_TEXT	SEGMENT
__First$ = 8						; size = 4
__Last$ = 12						; size = 4
?_Destroy@?$vector@PAVCTMonster@@V?$allocator@PAVCTMonster@@@std@@@std@@IAEXPAPAVCTMonster@@0@Z PROC NEAR ; std::vector<CTMonster *,std::allocator<CTMonster *> >::_Destroy, COMDAT
; _this$ = ecx

; 787  : 		_Destroy_range(_First, _Last, this->_Alval);
; 788  : 		}

  00000	c2 08 00	 ret	 8
?_Destroy@?$vector@PAVCTMonster@@V?$allocator@PAVCTMonster@@@std@@@std@@IAEXPAPAVCTMonster@@0@Z ENDP ; std::vector<CTMonster *,std::allocator<CTMonster *> >::_Destroy
_TEXT	ENDS
PUBLIC	?_Tidy@?$vector@PAVCTMonster@@V?$allocator@PAVCTMonster@@@std@@@std@@IAEXXZ ; std::vector<CTMonster *,std::allocator<CTMonster *> >::_Tidy
; Function compile flags: /Ogty
;	COMDAT ?_Tidy@?$vector@PAVCTMonster@@V?$allocator@PAVCTMonster@@@std@@@std@@IAEXXZ
_TEXT	SEGMENT
?_Tidy@?$vector@PAVCTMonster@@V?$allocator@PAVCTMonster@@@std@@@std@@IAEXXZ PROC NEAR ; std::vector<CTMonster *,std::allocator<CTMonster *> >::_Tidy, COMDAT
; _this$ = ecx

; 791  : 		{	// free all storage

  00000	56		 push	 esi
  00001	8b f1		 mov	 esi, ecx

; 792  : 		if (_Myfirst != 0)

  00003	8b 46 04	 mov	 eax, DWORD PTR [esi+4]
  00006	85 c0		 test	 eax, eax
  00008	74 09		 je	 SHORT $L154016

; 793  : 			{	// something to free, destroy and deallocate it
; 794  : 			_Destroy(_Myfirst, _Mylast);
; 795  : 			this->_Alval.deallocate(_Myfirst, _Myend - _Myfirst);

  0000a	50		 push	 eax
  0000b	e8 00 00 00 00	 call	 ??3@YAXPAX@Z		; operator delete
  00010	83 c4 04	 add	 esp, 4
$L154016:

; 796  : 			}
; 797  : 		_Myfirst = 0, _Mylast = 0, _Myend = 0;

  00013	c7 46 04 00 00
	00 00		 mov	 DWORD PTR [esi+4], 0
  0001a	c7 46 08 00 00
	00 00		 mov	 DWORD PTR [esi+8], 0
  00021	c7 46 0c 00 00
	00 00		 mov	 DWORD PTR [esi+12], 0
  00028	5e		 pop	 esi

; 798  : 		}

  00029	c3		 ret	 0
?_Tidy@?$vector@PAVCTMonster@@V?$allocator@PAVCTMonster@@@std@@@std@@IAEXXZ ENDP ; std::vector<CTMonster *,std::allocator<CTMonster *> >::_Tidy
_TEXT	ENDS
PUBLIC	??Giterator@?$vector@PAVCTMonster@@V?$allocator@PAVCTMonster@@@std@@@std@@QBE?AV012@H@Z ; std::vector<CTMonster *,std::allocator<CTMonster *> >::iterator::operator-
; Function compile flags: /Ogty
;	COMDAT ??Giterator@?$vector@PAVCTMonster@@V?$allocator@PAVCTMonster@@@std@@@std@@QBE?AV012@H@Z
_TEXT	SEGMENT
___$ReturnUdt$ = 8					; size = 4
__Off$ = 12						; size = 4
??Giterator@?$vector@PAVCTMonster@@V?$allocator@PAVCTMonster@@@std@@@std@@QBE?AV012@H@Z PROC NEAR ; std::vector<CTMonster *,std::allocator<CTMonster *> >::iterator::operator-, COMDAT
; _this$ = ecx

; 273  : 			iterator _Tmp = *this;
; 274  : 			return (_Tmp -= _Off);

  00000	8b 44 24 08	 mov	 eax, DWORD PTR __Off$[esp-4]
  00004	8b 09		 mov	 ecx, DWORD PTR [ecx]
  00006	8d 14 85 00 00
	00 00		 lea	 edx, DWORD PTR [eax*4]
  0000d	8b 44 24 04	 mov	 eax, DWORD PTR ___$ReturnUdt$[esp-4]
  00011	2b ca		 sub	 ecx, edx
  00013	89 08		 mov	 DWORD PTR [eax], ecx

; 275  : 			}

  00015	c2 08 00	 ret	 8
??Giterator@?$vector@PAVCTMonster@@V?$allocator@PAVCTMonster@@@std@@@std@@QBE?AV012@H@Z ENDP ; std::vector<CTMonster *,std::allocator<CTMonster *> >::iterator::operator-
_TEXT	ENDS
PUBLIC	?_Lbound@?$_Tree@V?$_Tmap_traits@_JUtagAGGRO@@U?$less@_J@std@@V?$allocator@U?$pair@$$CB_JUtagAGGRO@@@std@@@3@$0A@@std@@@std@@IBEPAU_Node@?$_Tree_nod@V?$_Tmap_traits@_JUtagAGGRO@@U?$less@_J@std@@V?$allocator@U?$pair@$$CB_JUtagAGGRO@@@std@@@3@$0A@@std@@@2@AB_J@Z ; std::_Tree<std::_Tmap_traits<__int64,tagAGGRO,std::less<__int64>,std::allocator<std::pair<__int64 const ,tagAGGRO> >,0> >::_Lbound
; Function compile flags: /Ogty
; File c:\program files (x86)\microsoft visual studio .net 2003\vc7\include\xtree
;	COMDAT ?_Lbound@?$_Tree@V?$_Tmap_traits@_JUtagAGGRO@@U?$less@_J@std@@V?$allocator@U?$pair@$$CB_JUtagAGGRO@@@std@@@3@$0A@@std@@@std@@IBEPAU_Node@?$_Tree_nod@V?$_Tmap_traits@_JUtagAGGRO@@U?$less@_J@std@@V?$allocator@U?$pair@$$CB_JUtagAGGRO@@@std@@@3@$0A@@std@@@2@AB_J@Z
_TEXT	SEGMENT
__Keyval$ = 8						; size = 4
?_Lbound@?$_Tree@V?$_Tmap_traits@_JUtagAGGRO@@U?$less@_J@std@@V?$allocator@U?$pair@$$CB_JUtagAGGRO@@@std@@@3@$0A@@std@@@std@@IBEPAU_Node@?$_Tree_nod@V?$_Tmap_traits@_JUtagAGGRO@@U?$less@_J@std@@V?$allocator@U?$pair@$$CB_JUtagAGGRO@@@std@@@3@$0A@@std@@@2@AB_J@Z PROC NEAR ; std::_Tree<std::_Tmap_traits<__int64,tagAGGRO,std::less<__int64>,std::allocator<std::pair<__int64 const ,tagAGGRO> >,0> >::_Lbound, COMDAT
; _this$ = ecx

; 988  : 		_Nodeptr _Pnode = _Root();

  00000	8b 41 04	 mov	 eax, DWORD PTR [ecx+4]
  00003	8b 48 04	 mov	 ecx, DWORD PTR [eax+4]

; 989  : 		_Nodeptr _Wherenode = _Myhead;	// end() if search fails
; 990  : 
; 991  : 		while (!_Isnil(_Pnode))

  00006	8a 51 31	 mov	 dl, BYTE PTR [ecx+49]
  00009	84 d2		 test	 dl, dl
  0000b	75 36		 jne	 SHORT $L152753
  0000d	8b 54 24 04	 mov	 edx, DWORD PTR __Keyval$[esp-4]
  00011	53		 push	 ebx
  00012	56		 push	 esi
  00013	8b 32		 mov	 esi, DWORD PTR [edx]
  00015	8b 52 04	 mov	 edx, DWORD PTR [edx+4]
  00018	57		 push	 edi
  00019	8d a4 24 00 00
	00 00		 npad	 7
$L152752:

; 992  : 			if (this->comp(_Key(_Pnode), _Keyval))

  00020	8b 79 14	 mov	 edi, DWORD PTR [ecx+20]
  00023	3b fa		 cmp	 edi, edx
  00025	7f 0e		 jg	 SHORT $L152754
  00027	7c 07		 jl	 SHORT $L154073
  00029	8b 79 10	 mov	 edi, DWORD PTR [ecx+16]
  0002c	3b fe		 cmp	 edi, esi
  0002e	73 05		 jae	 SHORT $L152754
$L154073:

; 993  : 				_Pnode = _Right(_Pnode);	// descend right subtree

  00030	8b 49 08	 mov	 ecx, DWORD PTR [ecx+8]

; 994  : 			else

  00033	eb 04		 jmp	 SHORT $L152755
$L152754:

; 995  : 				{	// _Pnode not less than _Keyval, remember it
; 996  : 				_Wherenode = _Pnode;

  00035	8b c1		 mov	 eax, ecx

; 997  : 				_Pnode = _Left(_Pnode);	// descend left subtree

  00037	8b 09		 mov	 ecx, DWORD PTR [ecx]
$L152755:
  00039	8a 59 31	 mov	 bl, BYTE PTR [ecx+49]
  0003c	84 db		 test	 bl, bl
  0003e	74 e0		 je	 SHORT $L152752
  00040	5f		 pop	 edi
  00041	5e		 pop	 esi
  00042	5b		 pop	 ebx
$L152753:

; 998  : 				}
; 999  : 
; 1000 : 		return (_Wherenode);	// return best remembered candidate
; 1001 : 		}

  00043	c2 04 00	 ret	 4
?_Lbound@?$_Tree@V?$_Tmap_traits@_JUtagAGGRO@@U?$less@_J@std@@V?$allocator@U?$pair@$$CB_JUtagAGGRO@@@std@@@3@$0A@@std@@@std@@IBEPAU_Node@?$_Tree_nod@V?$_Tmap_traits@_JUtagAGGRO@@U?$less@_J@std@@V?$allocator@U?$pair@$$CB_JUtagAGGRO@@@std@@@3@$0A@@std@@@2@AB_J@Z ENDP ; std::_Tree<std::_Tmap_traits<__int64,tagAGGRO,std::less<__int64>,std::allocator<std::pair<__int64 const ,tagAGGRO> >,0> >::_Lbound
_TEXT	ENDS
PUBLIC	??0?$CStringT@DV?$StrTraitATL@DV?$ChTraitsCRT@D@ATL@@@ATL@@@ATL@@QAE@XZ ; ATL::CStringT<char,ATL::StrTraitATL<char,ATL::ChTraitsCRT<char> > >::CStringT<char,ATL::StrTraitATL<char,ATL::ChTraitsCRT<char> > >
; Function compile flags: /Ogty
; File c:\program files (x86)\microsoft visual studio .net 2003\vc7\atlmfc\include\cstringt.h
;	COMDAT ??0?$CStringT@DV?$StrTraitATL@DV?$ChTraitsCRT@D@ATL@@@ATL@@@ATL@@QAE@XZ
_TEXT	SEGMENT
??0?$CStringT@DV?$StrTraitATL@DV?$ChTraitsCRT@D@ATL@@@ATL@@@ATL@@QAE@XZ PROC NEAR ; ATL::CStringT<char,ATL::StrTraitATL<char,ATL::ChTraitsCRT<char> > >::CStringT<char,ATL::StrTraitATL<char,ATL::ChTraitsCRT<char> > >, COMDAT
; _this$ = ecx

; 796  : 	{

  00000	a1 00 00 00 00	 mov	 eax, DWORD PTR ?g_strmgr@ATL@@3VCAtlStringMgr@1@A
  00005	56		 push	 esi
  00006	8b f1		 mov	 esi, ecx
  00008	b9 00 00 00 00	 mov	 ecx, OFFSET FLAT:?g_strmgr@ATL@@3VCAtlStringMgr@1@A ; ATL::g_strmgr
  0000d	ff 50 0c	 call	 DWORD PTR [eax+12]
  00010	83 c0 10	 add	 eax, 16			; 00000010H
  00013	89 06		 mov	 DWORD PTR [esi], eax

; 797  : 	}

  00015	8b c6		 mov	 eax, esi
  00017	5e		 pop	 esi
  00018	c3		 ret	 0
??0?$CStringT@DV?$StrTraitATL@DV?$ChTraitsCRT@D@ATL@@@ATL@@@ATL@@QAE@XZ ENDP ; ATL::CStringT<char,ATL::StrTraitATL<char,ATL::ChTraitsCRT<char> > >::CStringT<char,ATL::StrTraitATL<char,ATL::ChTraitsCRT<char> > >
_TEXT	ENDS
PUBLIC	??1?$CStringT@DV?$StrTraitATL@DV?$ChTraitsCRT@D@ATL@@@ATL@@@ATL@@QAE@XZ ; ATL::CStringT<char,ATL::StrTraitATL<char,ATL::ChTraitsCRT<char> > >::~CStringT<char,ATL::StrTraitATL<char,ATL::ChTraitsCRT<char> > >
; Function compile flags: /Ogty
;	COMDAT ??1?$CStringT@DV?$StrTraitATL@DV?$ChTraitsCRT@D@ATL@@@ATL@@@ATL@@QAE@XZ
_TEXT	SEGMENT
??1?$CStringT@DV?$StrTraitATL@DV?$ChTraitsCRT@D@ATL@@@ATL@@@ATL@@QAE@XZ PROC NEAR ; ATL::CStringT<char,ATL::StrTraitATL<char,ATL::ChTraitsCRT<char> > >::~CStringT<char,ATL::StrTraitATL<char,ATL::ChTraitsCRT<char> > >, COMDAT
; _this$ = ecx

; 963  : 	}

  00000	8b 01		 mov	 eax, DWORD PTR [ecx]
  00002	83 e8 10	 sub	 eax, 16			; 00000010H
  00005	8d 48 0c	 lea	 ecx, DWORD PTR [eax+12]
  00008	83 ca ff	 or	 edx, -1
  0000b	f0 0f c1 11	 lock	  xadd	 DWORD PTR [ecx], edx
  0000f	4a		 dec	 edx
  00010	85 d2		 test	 edx, edx
  00012	7f 08		 jg	 SHORT $L154115
  00014	8b 08		 mov	 ecx, DWORD PTR [eax]
  00016	8b 11		 mov	 edx, DWORD PTR [ecx]
  00018	50		 push	 eax
  00019	ff 52 04	 call	 DWORD PTR [edx+4]
$L154115:
  0001c	c3		 ret	 0
??1?$CStringT@DV?$StrTraitATL@DV?$ChTraitsCRT@D@ATL@@@ATL@@@ATL@@QAE@XZ ENDP ; ATL::CStringT<char,ATL::StrTraitATL<char,ATL::ChTraitsCRT<char> > >::~CStringT<char,ATL::StrTraitATL<char,ATL::ChTraitsCRT<char> > >
_TEXT	ENDS
PUBLIC	?PrepareWrite@?$CSimpleStringT@D$0A@@ATL@@AAEPADH@Z ; ATL::CSimpleStringT<char,0>::PrepareWrite
; Function compile flags: /Ogty
; File c:\program files (x86)\microsoft visual studio .net 2003\vc7\atlmfc\include\atlsimpstr.h
;	COMDAT ?PrepareWrite@?$CSimpleStringT@D$0A@@ATL@@AAEPADH@Z
_TEXT	SEGMENT
_nLength$ = 8						; size = 4
?PrepareWrite@?$CSimpleStringT@D$0A@@ATL@@AAEPADH@Z PROC NEAR ; ATL::CSimpleStringT<char,0>::PrepareWrite, COMDAT
; _this$ = ecx

; 734  : 	{

  00000	56		 push	 esi
  00001	8b f1		 mov	 esi, ecx

; 735  : 		CStringData* pOldData = GetData();

  00003	8b 06		 mov	 eax, DWORD PTR [esi]

; 736  : 		int nShared = 1-pOldData->nRefs;  // nShared < 0 means true, >= 0 means false

  00005	8b 50 fc	 mov	 edx, DWORD PTR [eax-4]
  00008	83 e8 10	 sub	 eax, 16			; 00000010H
  0000b	b9 01 00 00 00	 mov	 ecx, 1
  00010	2b ca		 sub	 ecx, edx

; 737  : 		int nTooShort = pOldData->nAllocLength-nLength;  // nTooShort < 0 means true, >= 0 means false

  00012	8b 50 08	 mov	 edx, DWORD PTR [eax+8]
  00015	8b 44 24 08	 mov	 eax, DWORD PTR _nLength$[esp]
  00019	2b d0		 sub	 edx, eax

; 738  : 		if( (nShared|nTooShort) < 0 )  // If either sign bit is set (i.e. either is less than zero), we need to copy data

  0001b	0b ca		 or	 ecx, edx
  0001d	7d 08		 jge	 SHORT $L154122

; 739  : 		{
; 740  : 			PrepareWrite2( nLength );

  0001f	50		 push	 eax
  00020	8b ce		 mov	 ecx, esi
  00022	e8 00 00 00 00	 call	 ?PrepareWrite2@?$CSimpleStringT@D$0A@@ATL@@AAEXH@Z ; ATL::CSimpleStringT<char,0>::PrepareWrite2
$L154122:

; 741  : 		}
; 742  : 
; 743  : 		return( m_pszData );

  00027	8b 06		 mov	 eax, DWORD PTR [esi]
  00029	5e		 pop	 esi

; 744  : 	}

  0002a	c2 04 00	 ret	 4
?PrepareWrite@?$CSimpleStringT@D$0A@@ATL@@AAEPADH@Z ENDP ; ATL::CSimpleStringT<char,0>::PrepareWrite
_TEXT	ENDS
PUBLIC	?_Tidy@?$basic_string@DU?$char_traits@D@std@@V?$allocator@D@2@@std@@IAEX_NI@Z ; std::basic_string<char,std::char_traits<char>,std::allocator<char> >::_Tidy
; Function compile flags: /Ogty
; File c:\program files (x86)\microsoft visual studio .net 2003\vc7\include\xstring
;	COMDAT ?_Tidy@?$basic_string@DU?$char_traits@D@std@@V?$allocator@D@2@@std@@IAEX_NI@Z
_TEXT	SEGMENT
__Built$ = 8						; size = 1
__Newsize$ = 12						; size = 4
?_Tidy@?$basic_string@DU?$char_traits@D@std@@V?$allocator@D@2@@std@@IAEX_NI@Z PROC NEAR ; std::basic_string<char,std::char_traits<char>,std::allocator<char> >::_Tidy, COMDAT
; _this$ = ecx

; 1510 : 		if (!_Built)

  00000	8a 44 24 04	 mov	 al, BYTE PTR __Built$[esp-4]
  00004	84 c0		 test	 al, al
  00006	53		 push	 ebx
  00007	55		 push	 ebp
  00008	8b 6c 24 10	 mov	 ebp, DWORD PTR __Newsize$[esp+4]
  0000c	8b d9		 mov	 ebx, ecx
  0000e	74 2f		 je	 SHORT $L154130

; 1511 : 			;
; 1512 : 		else if (_BUF_SIZE <= _Myres)

  00010	83 7b 18 10	 cmp	 DWORD PTR [ebx+24], 16	; 00000010H
  00014	72 29		 jb	 SHORT $L154130

; 1513 : 			{	// copy any leftovers to small buffer and deallocate
; 1514 : 			_Elem *_Ptr = _Bx._Ptr;
; 1515 : 			if (0 < _Newsize)

  00016	85 ed		 test	 ebp, ebp
  00018	8b 43 04	 mov	 eax, DWORD PTR [ebx+4]
  0001b	57		 push	 edi
  0001c	8d 7b 04	 lea	 edi, DWORD PTR [ebx+4]
  0001f	76 14		 jbe	 SHORT $L154128
  00021	56		 push	 esi

; 1516 : 				_Traits::copy(_Bx._Buf, _Ptr, _Newsize);

  00022	8b cd		 mov	 ecx, ebp
  00024	8b d1		 mov	 edx, ecx
  00026	c1 e9 02	 shr	 ecx, 2
  00029	8b f0		 mov	 esi, eax
  0002b	f3 a5		 rep movsd
  0002d	8b ca		 mov	 ecx, edx
  0002f	83 e1 03	 and	 ecx, 3
  00032	f3 a4		 rep movsb
  00034	5e		 pop	 esi
$L154128:

; 1517 : 			_Mybase::_Alval.deallocate(_Ptr, _Myres + 1);

  00035	50		 push	 eax
  00036	e8 00 00 00 00	 call	 ??3@YAXPAX@Z		; operator delete
  0003b	83 c4 04	 add	 esp, 4
  0003e	5f		 pop	 edi
$L154130:

; 1518 : 			}
; 1519 : 		_Myres = _BUF_SIZE - 1;
; 1520 : 		_Eos(_Newsize);

  0003f	89 6b 14	 mov	 DWORD PTR [ebx+20], ebp
  00042	c7 43 18 0f 00
	00 00		 mov	 DWORD PTR [ebx+24], 15	; 0000000fH
  00049	c6 44 2b 04 00	 mov	 BYTE PTR [ebx+ebp+4], 0
  0004e	5d		 pop	 ebp
  0004f	5b		 pop	 ebx

; 1521 : 		}

  00050	c2 08 00	 ret	 8
?_Tidy@?$basic_string@DU?$char_traits@D@std@@V?$allocator@D@2@@std@@IAEX_NI@Z ENDP ; std::basic_string<char,std::char_traits<char>,std::allocator<char> >::_Tidy
_TEXT	ENDS
PUBLIC	?GetBuffer@?$CSimpleStringT@D$0A@@ATL@@QAEPADH@Z ; ATL::CSimpleStringT<char,0>::GetBuffer
; Function compile flags: /Ogty
; File c:\program files (x86)\microsoft visual studio .net 2003\vc7\atlmfc\include\atlsimpstr.h
;	COMDAT ?GetBuffer@?$CSimpleStringT@D$0A@@ATL@@QAEPADH@Z
_TEXT	SEGMENT
_nMinBufferLength$ = 8					; size = 4
?GetBuffer@?$CSimpleStringT@D$0A@@ATL@@QAEPADH@Z PROC NEAR ; ATL::CSimpleStringT<char,0>::GetBuffer, COMDAT
; _this$ = ecx

; 489  : 	{

  00000	56		 push	 esi
  00001	8b f1		 mov	 esi, ecx

; 490  : 		return( PrepareWrite( nMinBufferLength ) );

  00003	8b 06		 mov	 eax, DWORD PTR [esi]
  00005	8b 50 fc	 mov	 edx, DWORD PTR [eax-4]
  00008	83 e8 10	 sub	 eax, 16			; 00000010H
  0000b	b9 01 00 00 00	 mov	 ecx, 1
  00010	2b ca		 sub	 ecx, edx
  00012	8b 50 08	 mov	 edx, DWORD PTR [eax+8]
  00015	8b 44 24 08	 mov	 eax, DWORD PTR _nMinBufferLength$[esp]
  00019	2b d0		 sub	 edx, eax
  0001b	0b ca		 or	 ecx, edx
  0001d	7d 08		 jge	 SHORT $L154170
  0001f	50		 push	 eax
  00020	8b ce		 mov	 ecx, esi
  00022	e8 00 00 00 00	 call	 ?PrepareWrite2@?$CSimpleStringT@D$0A@@ATL@@AAEXH@Z ; ATL::CSimpleStringT<char,0>::PrepareWrite2
$L154170:
  00027	8b 06		 mov	 eax, DWORD PTR [esi]
  00029	5e		 pop	 esi

; 491  : 	}

  0002a	c2 04 00	 ret	 4
?GetBuffer@?$CSimpleStringT@D$0A@@ATL@@QAEPADH@Z ENDP	; ATL::CSimpleStringT<char,0>::GetBuffer
_TEXT	ENDS
PUBLIC	?SetString@?$CSimpleStringT@D$0A@@ATL@@QAEXPBDH@Z ; ATL::CSimpleStringT<char,0>::SetString
; Function compile flags: /Ogty
;	COMDAT ?SetString@?$CSimpleStringT@D$0A@@ATL@@QAEXPBDH@Z
_TEXT	SEGMENT
_pszSrc$ = 8						; size = 4
_nLength$ = 12						; size = 4
?SetString@?$CSimpleStringT@D$0A@@ATL@@QAEXPBDH@Z PROC NEAR ; ATL::CSimpleStringT<char,0>::SetString, COMDAT
; _this$ = ecx

; 583  : 	{

  00000	53		 push	 ebx

; 584  : 		if( nLength == 0 )

  00001	8b 5c 24 0c	 mov	 ebx, DWORD PTR _nLength$[esp]
  00005	85 db		 test	 ebx, ebx
  00007	55		 push	 ebp
  00008	8b e9		 mov	 ebp, ecx
  0000a	75 0a		 jne	 SHORT $L149725

; 585  : 		{
; 586  : 			Empty();

  0000c	e8 00 00 00 00	 call	 ?Empty@?$CSimpleStringT@D$0A@@ATL@@QAEXXZ ; ATL::CSimpleStringT<char,0>::Empty
  00011	5d		 pop	 ebp
  00012	5b		 pop	 ebx

; 614  : 		}
; 615  : 	}

  00013	c2 08 00	 ret	 8
$L149725:

; 587  : 		}
; 588  : 		else
; 589  : 		{
; 590  : 			// It is possible that pszSrc points to a location inside of our 
; 591  : 			// buffer.  GetBuffer() might change m_pszData if (1) the buffer 
; 592  : 			// is shared or (2) the buffer is too small to hold the new 
; 593  : 			// string.  We detect this aliasing, and modify pszSrc to point
; 594  : 			// into the newly allocated buffer instead.
; 595  : 			
; 596  : 			if(pszSrc == NULL)

  00016	8b 54 24 0c	 mov	 edx, DWORD PTR _pszSrc$[esp+4]
  0001a	85 d2		 test	 edx, edx
  0001c	75 0a		 jne	 SHORT $L149727

; 612  : 			}
; 613  : 			ReleaseBufferSetLength( nLength );

$L154243:
  0001e	68 57 00 07 80	 push	 -2147024809		; 80070057H
  00023	e8 00 00 00 00	 call	 ?AtlThrow@ATL@@YGXJ@Z	; ATL::AtlThrow
$L154246:
$L149727:

; 597  : 				AtlThrow(E_INVALIDARG);			
; 598  : 				
; 599  : 			UINT nOldLength = GetLength();

  00028	8b 45 00	 mov	 eax, DWORD PTR [ebp]
  0002b	56		 push	 esi

; 600  : 			UINT_PTR nOffset = pszSrc-GetString();

  0002c	8b f2		 mov	 esi, edx
  0002e	2b f0		 sub	 esi, eax

; 601  : 			// If 0 <= nOffset <= nOldLength, then pszSrc points into our 
; 602  : 			// buffer
; 603  : 
; 604  : 			PXSTR pszBuffer = GetBuffer( nLength );

  00030	b9 01 00 00 00	 mov	 ecx, 1
  00035	2b 48 fc	 sub	 ecx, DWORD PTR [eax-4]
  00038	57		 push	 edi
  00039	8b 78 f4	 mov	 edi, DWORD PTR [eax-12]
  0003c	8b 40 f8	 mov	 eax, DWORD PTR [eax-8]
  0003f	2b c3		 sub	 eax, ebx
  00041	0b c8		 or	 ecx, eax
  00043	7d 0c		 jge	 SHORT $L154207
  00045	53		 push	 ebx
  00046	8b cd		 mov	 ecx, ebp
  00048	e8 00 00 00 00	 call	 ?PrepareWrite2@?$CSimpleStringT@D$0A@@ATL@@AAEXH@Z ; ATL::CSimpleStringT<char,0>::PrepareWrite2
  0004d	8b 54 24 14	 mov	 edx, DWORD PTR _pszSrc$[esp+12]
$L154207:

; 605  : 			if( nOffset <= nOldLength )

  00051	3b f7		 cmp	 esi, edi
  00053	8b 45 00	 mov	 eax, DWORD PTR [ebp]
  00056	77 10		 ja	 SHORT $L149732

; 606  : 			{
; 607  : 				CopyCharsOverlapped( pszBuffer, pszBuffer+nOffset, nLength );

  00058	53		 push	 ebx
  00059	8d 0c 30	 lea	 ecx, DWORD PTR [eax+esi]
  0005c	51		 push	 ecx
  0005d	50		 push	 eax
  0005e	e8 00 00 00 00	 call	 _memmove
  00063	83 c4 0c	 add	 esp, 12			; 0000000cH

; 608  : 			}
; 609  : 			else

  00066	eb 14		 jmp	 SHORT $L154216
$L149732:

; 610  : 			{
; 611  : 				CopyChars( pszBuffer, pszSrc, nLength );

  00068	8b cb		 mov	 ecx, ebx
  0006a	8b f2		 mov	 esi, edx
  0006c	8b d1		 mov	 edx, ecx
  0006e	c1 e9 02	 shr	 ecx, 2
  00071	8b f8		 mov	 edi, eax
  00073	f3 a5		 rep movsd
  00075	8b ca		 mov	 ecx, edx
  00077	83 e1 03	 and	 ecx, 3
  0007a	f3 a4		 rep movsb
$L154216:

; 612  : 			}
; 613  : 			ReleaseBufferSetLength( nLength );

  0007c	85 db		 test	 ebx, ebx
  0007e	5f		 pop	 edi
  0007f	5e		 pop	 esi
  00080	7c 9c		 jl	 SHORT $L154243
  00082	8b 45 00	 mov	 eax, DWORD PTR [ebp]
  00085	3b 58 f8	 cmp	 ebx, DWORD PTR [eax-8]
  00088	7f 94		 jg	 SHORT $L154243
  0008a	89 58 f4	 mov	 DWORD PTR [eax-12], ebx
  0008d	8b 45 00	 mov	 eax, DWORD PTR [ebp]
  00090	5d		 pop	 ebp
  00091	c6 04 03 00	 mov	 BYTE PTR [ebx+eax], 0
  00095	5b		 pop	 ebx

; 614  : 		}
; 615  : 	}

  00096	c2 08 00	 ret	 8
$L154245:
?SetString@?$CSimpleStringT@D$0A@@ATL@@QAEXPBDH@Z ENDP	; ATL::CSimpleStringT<char,0>::SetString
_TEXT	ENDS
PUBLIC	?erase@?$basic_string@DU?$char_traits@D@std@@V?$allocator@D@2@@std@@QAEAAV12@II@Z ; std::basic_string<char,std::char_traits<char>,std::allocator<char> >::erase
EXTRN	?_Xran@_String_base@std@@QBEXXZ:NEAR		; std::_String_base::_Xran
; Function compile flags: /Ogty
; File c:\program files (x86)\microsoft visual studio .net 2003\vc7\include\xstring
;	COMDAT ?erase@?$basic_string@DU?$char_traits@D@std@@V?$allocator@D@2@@std@@QAEAAV12@II@Z
_TEXT	SEGMENT
__Off$ = 8						; size = 4
__Count$ = 12						; size = 4
?erase@?$basic_string@DU?$char_traits@D@std@@V?$allocator@D@2@@std@@QAEAAV12@II@Z PROC NEAR ; std::basic_string<char,std::char_traits<char>,std::allocator<char> >::erase, COMDAT
; _this$ = ecx

; 792  : 		{	// erase elements [_Off, _Off + _Count)

  00000	55		 push	 ebp

; 793  : 		if (_Mysize < _Off)

  00001	8b 6c 24 08	 mov	 ebp, DWORD PTR __Off$[esp]
  00005	56		 push	 esi
  00006	8b f1		 mov	 esi, ecx
  00008	39 6e 14	 cmp	 DWORD PTR [esi+20], ebp
  0000b	57		 push	 edi
  0000c	73 05		 jae	 SHORT $L149765

; 794  : 			_String_base::_Xran();	// _Off off end

  0000e	e8 00 00 00 00	 call	 ?_Xran@_String_base@std@@QBEXXZ ; std::_String_base::_Xran
$L149765:

; 795  : 		if (_Mysize - _Off < _Count)

  00013	8b 46 14	 mov	 eax, DWORD PTR [esi+20]
  00016	8b 7c 24 14	 mov	 edi, DWORD PTR __Count$[esp+8]
  0001a	2b c5		 sub	 eax, ebp
  0001c	3b c7		 cmp	 eax, edi
  0001e	73 02		 jae	 SHORT $L149766

; 796  : 			_Count = _Mysize - _Off;	// trim _Count

  00020	8b f8		 mov	 edi, eax
$L149766:

; 797  : 		if (0 < _Count)

  00022	85 ff		 test	 edi, edi
  00024	76 47		 jbe	 SHORT $L154289

; 798  : 			{	// move elements down
; 799  : 			_Traits::move(_Myptr() + _Off, _Myptr() + _Off + _Count,
; 800  : 				_Mysize - _Off - _Count);

  00026	8b 4e 18	 mov	 ecx, DWORD PTR [esi+24]
  00029	83 f9 10	 cmp	 ecx, 16			; 00000010H
  0002c	53		 push	 ebx
  0002d	8d 5e 04	 lea	 ebx, DWORD PTR [esi+4]
  00030	72 04		 jb	 SHORT $L154255
  00032	8b 13		 mov	 edx, DWORD PTR [ebx]
  00034	eb 02		 jmp	 SHORT $L154256
$L154255:
  00036	8b d3		 mov	 edx, ebx
$L154256:
  00038	83 f9 10	 cmp	 ecx, 16			; 00000010H
  0003b	72 04		 jb	 SHORT $L154262
  0003d	8b 0b		 mov	 ecx, DWORD PTR [ebx]
  0003f	eb 02		 jmp	 SHORT $L154263
$L154262:
  00041	8b cb		 mov	 ecx, ebx
$L154263:
  00043	2b c7		 sub	 eax, edi

; 803  : 			}
; 804  : 		return (*this);

  00045	03 d5		 add	 edx, ebp
  00047	50		 push	 eax
  00048	03 d7		 add	 edx, edi
  0004a	52		 push	 edx
  0004b	03 cd		 add	 ecx, ebp
  0004d	51		 push	 ecx
  0004e	e8 00 00 00 00	 call	 _memmove
  00053	8b 46 14	 mov	 eax, DWORD PTR [esi+20]
  00056	8b 4e 18	 mov	 ecx, DWORD PTR [esi+24]
  00059	2b c7		 sub	 eax, edi
  0005b	83 c4 0c	 add	 esp, 12			; 0000000cH
  0005e	83 f9 10	 cmp	 ecx, 16			; 00000010H
  00061	89 46 14	 mov	 DWORD PTR [esi+20], eax
  00064	72 02		 jb	 SHORT $L154286

; 801  : 			size_type _Newsize = _Mysize - _Count;
; 802  : 			_Eos(_Newsize);

  00066	8b 1b		 mov	 ebx, DWORD PTR [ebx]
$L154286:
  00068	c6 04 03 00	 mov	 BYTE PTR [ebx+eax], 0
  0006c	5b		 pop	 ebx
$L154289:
  0006d	5f		 pop	 edi

; 803  : 			}
; 804  : 		return (*this);

  0006e	8b c6		 mov	 eax, esi
  00070	5e		 pop	 esi
  00071	5d		 pop	 ebp

; 805  : 		}

  00072	c2 08 00	 ret	 8
?erase@?$basic_string@DU?$char_traits@D@std@@V?$allocator@D@2@@std@@QAEAAV12@II@Z ENDP ; std::basic_string<char,std::char_traits<char>,std::allocator<char> >::erase
_TEXT	ENDS
PUBLIC	?_Copy@?$basic_string@DU?$char_traits@D@std@@V?$allocator@D@2@@std@@IAEXII@Z ; std::basic_string<char,std::char_traits<char>,std::allocator<char> >::_Copy
EXTRN	__except_list:DWORD
EXTRN	___CxxFrameHandler:NEAR
;	COMDAT xdata$x
; File c:\program files (x86)\microsoft visual studio .net 2003\vc7\include\iosfwd
xdata$x	SEGMENT
$T154496 DD	0ffffffffH
	DD	00H
	DD	0ffffffffH
	DD	00H
	DD	01H
	DD	00H
	DD	01H
	DD	00H
$T154498 DD	00H
	DD	00H
	DD	00H
	DD	FLAT:$L154296
$T154499 DD	00H
	DD	00H
	DD	00H
	DD	FLAT:$L154294
$T154497 DD	02H
	DD	02H
	DD	03H
	DD	01H
	DD	FLAT:$T154498
	DD	00H
	DD	00H
	DD	03H
	DD	01H
	DD	FLAT:$T154499
$T154490 DD	019930520H
	DD	04H
	DD	FLAT:$T154496
	DD	02H
	DD	FLAT:$T154497
	DD	2 DUP(00H)
; Function compile flags: /Ogty
; File c:\program files (x86)\microsoft visual studio .net 2003\vc7\include\xstring
xdata$x	ENDS
;	COMDAT ?_Copy@?$basic_string@DU?$char_traits@D@std@@V?$allocator@D@2@@std@@IAEXII@Z
_TEXT	SEGMENT
__Newres$ = -24						; size = 4
_this$ = -20						; size = 4
__$EHRec$ = -16						; size = 16
__Ptr$ = 8						; size = 4
__Newsize$ = 8						; size = 4
__Oldlen$ = 12						; size = 4
?_Copy@?$basic_string@DU?$char_traits@D@std@@V?$allocator@D@2@@std@@IAEXII@Z PROC NEAR ; std::basic_string<char,std::char_traits<char>,std::allocator<char> >::_Copy, COMDAT
; _this$ = ecx

; 1444 : 		{	// copy _Oldlen elements to newly allocated buffer

  00000	55		 push	 ebp
  00001	8b ec		 mov	 ebp, esp
  00003	6a ff		 push	 -1
  00005	68 00 00 00 00	 push	 __ehhandler$?_Copy@?$basic_string@DU?$char_traits@D@std@@V?$allocator@D@2@@std@@IAEXII@Z
  0000a	64 a1 00 00 00
	00		 mov	 eax, DWORD PTR fs:__except_list
  00010	50		 push	 eax
  00011	64 89 25 00 00
	00 00		 mov	 DWORD PTR fs:__except_list, esp
  00018	83 ec 0c	 sub	 esp, 12			; 0000000cH

; 1445 : 		size_type _Newres = _Newsize | _ALLOC_MASK;

  0001b	8b 45 08	 mov	 eax, DWORD PTR __Newsize$[ebp]
  0001e	53		 push	 ebx
  0001f	56		 push	 esi
  00020	8b d8		 mov	 ebx, eax
  00022	83 cb 0f	 or	 ebx, 15			; 0000000fH

; 1446 : 		if (max_size() < _Newres)

  00025	83 fb fe	 cmp	 ebx, -2			; fffffffeH
  00028	57		 push	 edi
  00029	8b f1		 mov	 esi, ecx
  0002b	89 65 f0	 mov	 DWORD PTR __$EHRec$[ebp], esp
  0002e	89 75 ec	 mov	 DWORD PTR _this$[ebp], esi
  00031	76 04		 jbe	 SHORT $L150507

; 1447 : 			_Newres = _Newsize;	// undo roundup if too big

  00033	8b d8		 mov	 ebx, eax

; 1448 : 		else if (_Newres / 3 < _Myres / 2

  00035	eb 22		 jmp	 SHORT $L150509
$L150507:

; 1449 : 			&& _Myres <= max_size() - _Myres / 2)

  00037	8b 7e 18	 mov	 edi, DWORD PTR [esi+24]
  0003a	b8 ab aa aa aa	 mov	 eax, -1431655765	; aaaaaaabH
  0003f	f7 e3		 mul	 ebx
  00041	8b cf		 mov	 ecx, edi
  00043	d1 e9		 shr	 ecx, 1
  00045	d1 ea		 shr	 edx, 1
  00047	3b d1		 cmp	 edx, ecx
  00049	73 0e		 jae	 SHORT $L150509
  0004b	b8 fe ff ff ff	 mov	 eax, -2			; fffffffeH
  00050	2b c1		 sub	 eax, ecx
  00052	3b f8		 cmp	 edi, eax
  00054	77 03		 ja	 SHORT $L150509

; 1450 : 			_Newres = _Myres + _Myres / 2;	// grow exponentially if possible

  00056	8d 1c 39	 lea	 ebx, DWORD PTR [ecx+edi]
$L150509:

; 1451 : 		_Elem *_Ptr;
; 1452 : 
; 1453 : 		_TRY_BEGIN
; 1454 : 			_Ptr = _Mybase::_Alval.allocate(_Newres + 1);

  00059	8d 4b 01	 lea	 ecx, DWORD PTR [ebx+1]
  0005c	51		 push	 ecx
  0005d	c7 45 fc 00 00
	00 00		 mov	 DWORD PTR __$EHRec$[ebp+12], 0
  00064	e8 00 00 00 00	 call	 ??2@YAPAXI@Z		; operator new
  00069	8b d0		 mov	 edx, eax
  0006b	83 c4 04	 add	 esp, 4
  0006e	89 55 08	 mov	 DWORD PTR __Ptr$[ebp], edx
  00071	eb 29		 jmp	 SHORT $L150511
$L154294:

; 1455 : 		_CATCH_ALL
; 1456 : 			_Newres = _Newsize;	// allocation failed, undo roundup and retry

  00073	8b 45 08	 mov	 eax, DWORD PTR __Newsize$[ebp]
  00076	89 45 e8	 mov	 DWORD PTR __Newres$[ebp], eax

; 1457 : 			_TRY_BEGIN
; 1458 : 				_Ptr = _Mybase::_Alval.allocate(_Newres + 1);

  00079	40		 inc	 eax
  0007a	89 65 f0	 mov	 DWORD PTR __$EHRec$[ebp], esp
  0007d	50		 push	 eax
  0007e	c6 45 fc 02	 mov	 BYTE PTR __$EHRec$[ebp+12], 2
  00082	e8 00 00 00 00	 call	 ??2@YAPAXI@Z		; operator new
  00087	89 45 08	 mov	 DWORD PTR __Ptr$[ebp], eax
  0008a	83 c4 04	 add	 esp, 4

; 1462 : 			_CATCH_END
; 1463 : 		_CATCH_END

  0008d	b8 00 00 00 00	 mov	 eax, $L154491
  00092	c3		 ret	 0
$L154491:
  00093	8b 5d e8	 mov	 ebx, DWORD PTR __Newres$[ebp]
  00096	8b 75 ec	 mov	 esi, DWORD PTR _this$[ebp]
  00099	8b 55 08	 mov	 edx, DWORD PTR __Ptr$[ebp]
$L150511:

; 1464 : 
; 1465 : 		if (0 < _Oldlen)

  0009c	8b 4d 0c	 mov	 ecx, DWORD PTR __Oldlen$[ebp]
  0009f	85 c9		 test	 ecx, ecx
  000a1	76 24		 jbe	 SHORT $L154413

; 1466 : 			_Traits::copy(_Ptr, _Myptr(), _Oldlen);	// copy existing elements

  000a3	83 7e 18 10	 cmp	 DWORD PTR [esi+24], 16	; 00000010H
  000a7	72 05		 jb	 SHORT $L154410
  000a9	8b 76 04	 mov	 esi, DWORD PTR [esi+4]
  000ac	eb 03		 jmp	 SHORT $L154411
$L154410:
  000ae	83 c6 04	 add	 esi, 4
$L154411:
  000b1	8b c1		 mov	 eax, ecx
  000b3	c1 e9 02	 shr	 ecx, 2
  000b6	8b fa		 mov	 edi, edx
  000b8	f3 a5		 rep movsd
  000ba	8b c8		 mov	 ecx, eax
  000bc	83 e1 03	 and	 ecx, 3
  000bf	f3 a4		 rep movsb
  000c1	8b 75 ec	 mov	 esi, DWORD PTR _this$[ebp]
  000c4	8b 4d 0c	 mov	 ecx, DWORD PTR __Oldlen$[ebp]
$L154413:

; 1467 : 		_Tidy(true);

  000c7	83 7e 18 10	 cmp	 DWORD PTR [esi+24], 16	; 00000010H
  000cb	72 12		 jb	 SHORT $L154455
  000cd	8b 4e 04	 mov	 ecx, DWORD PTR [esi+4]
  000d0	51		 push	 ecx
  000d1	e8 00 00 00 00	 call	 ??3@YAXPAX@Z		; operator delete
  000d6	8b 55 08	 mov	 edx, DWORD PTR __Ptr$[ebp]
  000d9	8b 4d 0c	 mov	 ecx, DWORD PTR __Oldlen$[ebp]
  000dc	83 c4 04	 add	 esp, 4
$L154455:

; 1468 : 		_Bx._Ptr = _Ptr;
; 1469 : 		_Myres = _Newres;
; 1470 : 		_Eos(_Oldlen);

  000df	83 fb 10	 cmp	 ebx, 16			; 00000010H
  000e2	8d 46 04	 lea	 eax, DWORD PTR [esi+4]
  000e5	c6 00 00	 mov	 BYTE PTR [eax], 0
  000e8	89 10		 mov	 DWORD PTR [eax], edx
  000ea	89 5e 18	 mov	 DWORD PTR [esi+24], ebx
  000ed	89 4e 14	 mov	 DWORD PTR [esi+20], ecx
  000f0	72 02		 jb	 SHORT $L154484
  000f2	8b c2		 mov	 eax, edx
$L154484:

; 1471 : 		}

  000f4	5f		 pop	 edi
  000f5	c6 04 08 00	 mov	 BYTE PTR [eax+ecx], 0
  000f9	8b 4d f4	 mov	 ecx, DWORD PTR __$EHRec$[ebp+4]
  000fc	5e		 pop	 esi
  000fd	64 89 0d 00 00
	00 00		 mov	 DWORD PTR fs:__except_list, ecx
  00104	5b		 pop	 ebx
  00105	8b e5		 mov	 esp, ebp
  00107	5d		 pop	 ebp
  00108	c2 08 00	 ret	 8
$L154296:

; 1459 : 			_CATCH_ALL
; 1460 : 			_Tidy(true);	// failed again, discard storage and reraise

  0010b	8b 75 ec	 mov	 esi, DWORD PTR _this$[ebp]
  0010e	83 7e 18 10	 cmp	 DWORD PTR [esi+24], 16	; 00000010H
  00112	72 0c		 jb	 SHORT $L154394
  00114	8b 56 04	 mov	 edx, DWORD PTR [esi+4]
  00117	52		 push	 edx
  00118	e8 00 00 00 00	 call	 ??3@YAXPAX@Z		; operator delete
  0011d	83 c4 04	 add	 esp, 4
$L154394:

; 1461 : 			_RERAISE;

  00120	6a 00		 push	 0
  00122	c7 46 18 0f 00
	00 00		 mov	 DWORD PTR [esi+24], 15	; 0000000fH
  00129	c7 46 14 00 00
	00 00		 mov	 DWORD PTR [esi+20], 0
  00130	6a 00		 push	 0
  00132	c6 46 04 00	 mov	 BYTE PTR [esi+4], 0
  00136	e8 00 00 00 00	 call	 __CxxThrowException@8
$L154501:
$L154495:
  0013b	cc		 int	 3
_TEXT	ENDS
;	COMDAT text$x
text$x	SEGMENT
__ehhandler$?_Copy@?$basic_string@DU?$char_traits@D@std@@V?$allocator@D@2@@std@@IAEXII@Z:
  00000	b8 00 00 00 00	 mov	 eax, OFFSET FLAT:$T154490
  00005	e9 00 00 00 00	 jmp	 ___CxxFrameHandler
text$x	ENDS
?_Copy@?$basic_string@DU?$char_traits@D@std@@V?$allocator@D@2@@std@@IAEXII@Z ENDP ; std::basic_string<char,std::char_traits<char>,std::allocator<char> >::_Copy
PUBLIC	??1CTRecallMon@@UAE@XZ				; CTRecallMon::~CTRecallMon
PUBLIC	?OnDie@CTRecallMon@@UAEXKEG@Z			; CTRecallMon::OnDie
PUBLIC	??_7CTRecallMon@@6B@				; CTRecallMon::`vftable'
PUBLIC	??_GCTRecallMon@@UAEPAXI@Z			; CTRecallMon::`scalar deleting destructor'
EXTRN	?ChgMode@CTObjBase@@UAEXE@Z:NEAR		; CTObjBase::ChgMode
EXTRN	?CalcAbilityValue@CTObjBase@@UAEHAAKEPAVCTSkill@@@Z:NEAR ; CTObjBase::CalcAbilityValue
EXTRN	?GetBaseStatValue@CTObjBase@@UAEMEG@Z:NEAR	; CTObjBase::GetBaseStatValue
EXTRN	?Calc2ndAbility@CTObjBase@@UAEKE@Z:NEAR		; CTObjBase::Calc2ndAbility
EXTRN	?GetAbility@CTObjBase@@UAEKE@Z:NEAR		; CTObjBase::GetAbility
EXTRN	?CalcItemAbility@CTObjBase@@UAEHE@Z:NEAR	; CTObjBase::CalcItemAbility
EXTRN	?GetSTR@CTObjBase@@UAEMEG@Z:NEAR		; CTObjBase::GetSTR
EXTRN	?GetDEX@CTObjBase@@UAEMEG@Z:NEAR		; CTObjBase::GetDEX
EXTRN	?GetCON@CTObjBase@@UAEMEG@Z:NEAR		; CTObjBase::GetCON
EXTRN	?GetINT@CTObjBase@@UAEMEG@Z:NEAR		; CTObjBase::GetINT
EXTRN	?GetWIS@CTObjBase@@UAEMEG@Z:NEAR		; CTObjBase::GetWIS
EXTRN	?GetMEN@CTObjBase@@UAEMEG@Z:NEAR		; CTObjBase::GetMEN
EXTRN	?GetPureMaxHP@CTObjBase@@UAEKXZ:NEAR		; CTObjBase::GetPureMaxHP
EXTRN	?GetPureMaxMP@CTObjBase@@UAEKXZ:NEAR		; CTObjBase::GetPureMaxMP
EXTRN	?GetAtkSpeed@CTObjBase@@UAEKE@Z:NEAR		; CTObjBase::GetAtkSpeed
EXTRN	?GetAtkSpeedRate@CTObjBase@@UAEKE@Z:NEAR	; CTObjBase::GetAtkSpeedRate
EXTRN	?GetPysResist@CTObjBase@@UAEGXZ:NEAR		; CTObjBase::GetPysResist
EXTRN	?GetChargeSpeed@CTObjBase@@UAEEXZ:NEAR		; CTObjBase::GetChargeSpeed
EXTRN	?GetChargeProb@CTObjBase@@UAEEXZ:NEAR		; CTObjBase::GetChargeProb
EXTRN	?GetMagicResist@CTObjBase@@UAEGXZ:NEAR		; CTObjBase::GetMagicResist
EXTRN	?GetShieldDP@CTObjBase@@UAEKXZ:NEAR		; CTObjBase::GetShieldDP
EXTRN	?GetShieldMDP@CTObjBase@@UAEKXZ:NEAR		; CTObjBase::GetShieldMDP
EXTRN	?GetAvoidProb@CTObjBase@@UAEKXZ:NEAR		; CTObjBase::GetAvoidProb
EXTRN	?GetFR@CTObjBase@@UAEGXZ:NEAR			; CTObjBase::GetFR
EXTRN	?GetIR@CTObjBase@@UAEGXZ:NEAR			; CTObjBase::GetIR
EXTRN	?GetER@CTObjBase@@UAEGXZ:NEAR			; CTObjBase::GetER
EXTRN	?GetSR@CTObjBase@@UAEGXZ:NEAR			; CTObjBase::GetSR
EXTRN	?GetDR@CTObjBase@@UAEGXZ:NEAR			; CTObjBase::GetDR
EXTRN	?GetHPR@CTObjBase@@UAEKXZ:NEAR			; CTObjBase::GetHPR
EXTRN	?GetMPR@CTObjBase@@UAEKXZ:NEAR			; CTObjBase::GetMPR
EXTRN	??_ECTRecallMon@@UAEPAXI@Z:NEAR			; CTRecallMon::`vector deleting destructor'
EXTRN	?ResetSize@CTMonster@@UAEXG@Z:NEAR		; CTMonster::ResetSize
EXTRN	?GetLevel@CTMonster@@UAEEXZ:NEAR		; CTMonster::GetLevel
EXTRN	?GetClass@CTMonster@@UAEEXZ:NEAR		; CTMonster::GetClass
EXTRN	?GetCritical@CTMonster@@UAEEPAVCTSkill@@@Z:NEAR	; CTMonster::GetCritical
EXTRN	?UseSkillItem@CTMonster@@UAEEPAVCTSkill@@E@Z:NEAR ; CTMonster::UseSkillItem
EXTRN	??1CTMonster@@UAE@XZ:NEAR			; CTMonster::~CTMonster
EXTRN	?GetPartyID@CTObjBase@@UAEGXZ:NEAR		; CTObjBase::GetPartyID
EXTRN	?CanEquip@CTObjBase@@UAEEPAVCTItem@@E@Z:NEAR	; CTObjBase::CanEquip
EXTRN	?CanPush@CTObjBase@@UAEEPAV?$vector@PAVCTItem@@V?$allocator@PAVCTItem@@@std@@@std@@E@Z:NEAR ; CTObjBase::CanPush
EXTRN	?CanPush@CTObjBase@@UAEEPAVCTItem@@EE@Z:NEAR	; CTObjBase::CanPush
EXTRN	?CalcDamage@CTObjBase@@UAEXKEAAV?$map@GGU?$less@G@std@@V?$allocator@U?$pair@$$CBGG@std@@@2@@std@@AAH1KKKKAAEPAVCTSkill@@E@Z:NEAR ; CTObjBase::CalcDamage
;	COMDAT ??_7CTRecallMon@@6B@
; File c:\program files (x86)\microsoft visual studio .net 2003\vc7\atlmfc\include\atlsimpstr.h
CONST	SEGMENT
??_7CTRecallMon@@6B@ DD FLAT:?ResetSize@CTMonster@@UAEXG@Z ; CTRecallMon::`vftable'
	DD	FLAT:?Recover@CTRecallMon@@UAEXK@Z
	DD	FLAT:?OnDamage@CTRecallMon@@UAEKKKEEEEGHH@Z
	DD	FLAT:?GetPartyID@CTObjBase@@UAEGXZ
	DD	FLAT:?GetLevel@CTMonster@@UAEEXZ
	DD	FLAT:?GetClass@CTMonster@@UAEEXZ
	DD	FLAT:?OnDie@CTRecallMon@@UAEXKEG@Z
	DD	FLAT:?CanEquip@CTObjBase@@UAEEPAVCTItem@@E@Z
	DD	FLAT:?CanPush@CTObjBase@@UAEEPAVCTItem@@EE@Z
	DD	FLAT:?CanPush@CTObjBase@@UAEEPAV?$vector@PAVCTItem@@V?$allocator@PAVCTItem@@@std@@@std@@E@Z
	DD	FLAT:?CalcDamage@CTObjBase@@UAEXKEAAV?$map@GGU?$less@G@std@@V?$allocator@U?$pair@$$CBGG@std@@@2@@std@@AAH1KKKKAAEPAVCTSkill@@E@Z
	DD	FLAT:?Defend@CTRecallMon@@UAEXPAVCTSkillTemp@@EKKEGEEEKKKKKKGGEEEGEEEKMMMMMME@Z
	DD	FLAT:?ChgMode@CTObjBase@@UAEXE@Z
	DD	FLAT:?CalcAbilityValue@CTObjBase@@UAEHAAKEPAVCTSkill@@@Z
	DD	FLAT:?GetBaseStatValue@CTObjBase@@UAEMEG@Z
	DD	FLAT:?Calc2ndAbility@CTObjBase@@UAEKE@Z
	DD	FLAT:?GetAbility@CTObjBase@@UAEKE@Z
	DD	FLAT:?CalcItemAbility@CTObjBase@@UAEHE@Z
	DD	FLAT:?GetSTR@CTObjBase@@UAEMEG@Z
	DD	FLAT:?GetDEX@CTObjBase@@UAEMEG@Z
	DD	FLAT:?GetCON@CTObjBase@@UAEMEG@Z
	DD	FLAT:?GetINT@CTObjBase@@UAEMEG@Z
	DD	FLAT:?GetWIS@CTObjBase@@UAEMEG@Z
	DD	FLAT:?GetMEN@CTObjBase@@UAEMEG@Z
	DD	FLAT:?GetPureMaxHP@CTObjBase@@UAEKXZ
	DD	FLAT:?GetPureMaxMP@CTObjBase@@UAEKXZ
	DD	FLAT:?GetAtkSpeed@CTObjBase@@UAEKE@Z
	DD	FLAT:?GetAtkSpeedRate@CTObjBase@@UAEKE@Z
	DD	FLAT:?GetMaxHP@CTRecallMon@@UAEKXZ
	DD	FLAT:?GetMaxMP@CTRecallMon@@UAEKXZ
	DD	FLAT:?GetDefendPower@CTRecallMon@@UAEKXZ
	DD	FLAT:?GetAttackLevel@CTRecallMon@@UAEGXZ
	DD	FLAT:?GetDefendLevel@CTRecallMon@@UAEGXZ
	DD	FLAT:?GetMagicAtkLevel@CTRecallMon@@UAEGXZ
	DD	FLAT:?GetMagicDefLevel@CTRecallMon@@UAEGXZ
	DD	FLAT:?GetCritical@CTMonster@@UAEEPAVCTSkill@@@Z
	DD	FLAT:?GetMaxAP@CTRecallMon@@UAEKE@Z
	DD	FLAT:?GetMinAP@CTRecallMon@@UAEKE@Z
	DD	FLAT:?GetCriticalPysProb@CTRecallMon@@UAEEXZ
	DD	FLAT:?GetCriticalMagicProb@CTRecallMon@@UAEEXZ
	DD	FLAT:?GetPysResist@CTObjBase@@UAEGXZ
	DD	FLAT:?GetMinMagicAP@CTRecallMon@@UAEKXZ
	DD	FLAT:?GetMaxMagicAP@CTRecallMon@@UAEKXZ
	DD	FLAT:?GetMagicDefPower@CTRecallMon@@UAEKXZ
	DD	FLAT:?GetChargeSpeed@CTObjBase@@UAEEXZ
	DD	FLAT:?GetChargeProb@CTObjBase@@UAEEXZ
	DD	FLAT:?GetMagicResist@CTObjBase@@UAEGXZ
	DD	FLAT:?GetShieldDP@CTObjBase@@UAEKXZ
	DD	FLAT:?GetShieldMDP@CTObjBase@@UAEKXZ
	DD	FLAT:?GetAvoidProb@CTObjBase@@UAEKXZ
	DD	FLAT:?GetFR@CTObjBase@@UAEGXZ
	DD	FLAT:?GetIR@CTObjBase@@UAEGXZ
	DD	FLAT:?GetER@CTObjBase@@UAEGXZ
	DD	FLAT:?GetSR@CTObjBase@@UAEGXZ
	DD	FLAT:?GetDR@CTObjBase@@UAEGXZ
	DD	FLAT:?GetHPR@CTObjBase@@UAEKXZ
	DD	FLAT:?GetMPR@CTObjBase@@UAEKXZ
	DD	FLAT:?UseSkillItem@CTMonster@@UAEEPAVCTSkill@@E@Z
	DD	FLAT:??_ECTRecallMon@@UAEPAXI@Z
; Function compile flags: /Ogty
; File c:\users\pierr\desktop\4story - oldschool\sources\tserver\tmapsvr\trecallmon.cpp
CONST	ENDS
;	COMDAT ??1CTRecallMon@@UAE@XZ
_TEXT	SEGMENT
??1CTRecallMon@@UAE@XZ PROC NEAR			; CTRecallMon::~CTRecallMon, COMDAT
; _this$ = ecx

; 18   : {

  00000	56		 push	 esi
  00001	8b f1		 mov	 esi, ecx

; 19   : }

  00003	8b 86 78 01 00
	00		 mov	 eax, DWORD PTR [esi+376]
  00009	83 e8 10	 sub	 eax, 16			; 00000010H
  0000c	c7 06 00 00 00
	00		 mov	 DWORD PTR [esi], OFFSET FLAT:??_7CTRecallMon@@6B@
  00012	8d 48 0c	 lea	 ecx, DWORD PTR [eax+12]
  00015	83 ca ff	 or	 edx, -1
  00018	f0 0f c1 11	 lock	  xadd	 DWORD PTR [ecx], edx
  0001c	4a		 dec	 edx
  0001d	85 d2		 test	 edx, edx
  0001f	7f 08		 jg	 SHORT $L154533
  00021	8b 08		 mov	 ecx, DWORD PTR [eax]
  00023	8b 11		 mov	 edx, DWORD PTR [ecx]
  00025	50		 push	 eax
  00026	ff 52 04	 call	 DWORD PTR [edx+4]
$L154533:
  00029	8b ce		 mov	 ecx, esi
  0002b	5e		 pop	 esi
  0002c	e9 00 00 00 00	 jmp	 ??1CTMonster@@UAE@XZ	; CTMonster::~CTMonster
??1CTRecallMon@@UAE@XZ ENDP				; CTRecallMon::~CTRecallMon
_TEXT	ENDS
PUBLIC	??1?$vector@PAVCTMonster@@V?$allocator@PAVCTMonster@@@std@@@std@@QAE@XZ ; std::vector<CTMonster *,std::allocator<CTMonster *> >::~vector<CTMonster *,std::allocator<CTMonster *> >
; Function compile flags: /Ogty
; File c:\program files (x86)\microsoft visual studio .net 2003\vc7\include\vector
;	COMDAT ??1?$vector@PAVCTMonster@@V?$allocator@PAVCTMonster@@@std@@@std@@QAE@XZ
_TEXT	SEGMENT
??1?$vector@PAVCTMonster@@V?$allocator@PAVCTMonster@@@std@@@std@@QAE@XZ PROC NEAR ; std::vector<CTMonster *,std::allocator<CTMonster *> >::~vector<CTMonster *,std::allocator<CTMonster *> >, COMDAT
; _this$ = ecx

; 387  : 		{	// destroy the object

  00000	56		 push	 esi
  00001	8b f1		 mov	 esi, ecx

; 388  : 		_Tidy();

  00003	8b 46 04	 mov	 eax, DWORD PTR [esi+4]
  00006	85 c0		 test	 eax, eax
  00008	74 09		 je	 SHORT $L154548
  0000a	50		 push	 eax
  0000b	e8 00 00 00 00	 call	 ??3@YAXPAX@Z		; operator delete
  00010	83 c4 04	 add	 esp, 4
$L154548:
  00013	c7 46 04 00 00
	00 00		 mov	 DWORD PTR [esi+4], 0
  0001a	c7 46 08 00 00
	00 00		 mov	 DWORD PTR [esi+8], 0
  00021	c7 46 0c 00 00
	00 00		 mov	 DWORD PTR [esi+12], 0
  00028	5e		 pop	 esi

; 389  : 		}

  00029	c3		 ret	 0
??1?$vector@PAVCTMonster@@V?$allocator@PAVCTMonster@@@std@@@std@@QAE@XZ ENDP ; std::vector<CTMonster *,std::allocator<CTMonster *> >::~vector<CTMonster *,std::allocator<CTMonster *> >
_TEXT	ENDS
PUBLIC	?back@?$vector@PAVCTMonster@@V?$allocator@PAVCTMonster@@@std@@@std@@QAEAAPAVCTMonster@@XZ ; std::vector<CTMonster *,std::allocator<CTMonster *> >::back
; Function compile flags: /Ogty
;	COMDAT ?back@?$vector@PAVCTMonster@@V?$allocator@PAVCTMonster@@@std@@@std@@QAEAAPAVCTMonster@@XZ
_TEXT	SEGMENT
?back@?$vector@PAVCTMonster@@V?$allocator@PAVCTMonster@@@std@@@std@@QAEAAPAVCTMonster@@XZ PROC NEAR ; std::vector<CTMonster *,std::allocator<CTMonster *> >::back, COMDAT
; _this$ = ecx

; 570  : 		return (*(end() - 1));

  00000	8b 41 08	 mov	 eax, DWORD PTR [ecx+8]
  00003	83 e8 04	 sub	 eax, 4

; 571  : 		}

  00006	c3		 ret	 0
?back@?$vector@PAVCTMonster@@V?$allocator@PAVCTMonster@@@std@@@std@@QAEAAPAVCTMonster@@XZ ENDP ; std::vector<CTMonster *,std::allocator<CTMonster *> >::back
_TEXT	ENDS
PUBLIC	?pop_back@?$vector@PAVCTMonster@@V?$allocator@PAVCTMonster@@@std@@@std@@QAEXXZ ; std::vector<CTMonster *,std::allocator<CTMonster *> >::pop_back
; Function compile flags: /Ogty
;	COMDAT ?pop_back@?$vector@PAVCTMonster@@V?$allocator@PAVCTMonster@@@std@@@std@@QAEXXZ
_TEXT	SEGMENT
?pop_back@?$vector@PAVCTMonster@@V?$allocator@PAVCTMonster@@@std@@@std@@QAEXXZ PROC NEAR ; std::vector<CTMonster *,std::allocator<CTMonster *> >::pop_back, COMDAT
; _this$ = ecx

; 587  : 		{	// erase element at end

  00000	56		 push	 esi

; 588  : 		if (!empty())

  00001	8b 71 04	 mov	 esi, DWORD PTR [ecx+4]
  00004	85 f6		 test	 esi, esi
  00006	74 14		 je	 SHORT $L152639
  00008	8b 51 08	 mov	 edx, DWORD PTR [ecx+8]
  0000b	8b c2		 mov	 eax, edx
  0000d	2b c6		 sub	 eax, esi
  0000f	c1 f8 02	 sar	 eax, 2
  00012	85 c0		 test	 eax, eax
  00014	74 06		 je	 SHORT $L152639

; 589  : 			{	// erase last element
; 590  : 			_Destroy(_Mylast - 1, _Mylast);
; 591  : 			--_Mylast;

  00016	83 c2 fc	 add	 edx, -4			; fffffffcH
  00019	89 51 08	 mov	 DWORD PTR [ecx+8], edx
$L152639:
  0001c	5e		 pop	 esi

; 592  : 			}
; 593  : 		}

  0001d	c3		 ret	 0
?pop_back@?$vector@PAVCTMonster@@V?$allocator@PAVCTMonster@@@std@@@std@@QAEXXZ ENDP ; std::vector<CTMonster *,std::allocator<CTMonster *> >::pop_back
_TEXT	ENDS
PUBLIC	?clear@?$vector@PAVCTMonster@@V?$allocator@PAVCTMonster@@@std@@@std@@QAEXXZ ; std::vector<CTMonster *,std::allocator<CTMonster *> >::clear
; Function compile flags: /Ogty
;	COMDAT ?clear@?$vector@PAVCTMonster@@V?$allocator@PAVCTMonster@@@std@@@std@@QAEXXZ
_TEXT	SEGMENT
?clear@?$vector@PAVCTMonster@@V?$allocator@PAVCTMonster@@@std@@@std@@QAEXXZ PROC NEAR ; std::vector<CTMonster *,std::allocator<CTMonster *> >::clear, COMDAT
; _this$ = ecx

; 743  : 		{	// erase all

  00000	56		 push	 esi
  00001	8b f1		 mov	 esi, ecx

; 744  : 		_Tidy();

  00003	8b 46 04	 mov	 eax, DWORD PTR [esi+4]
  00006	85 c0		 test	 eax, eax
  00008	74 09		 je	 SHORT $L154624
  0000a	50		 push	 eax
  0000b	e8 00 00 00 00	 call	 ??3@YAXPAX@Z		; operator delete
  00010	83 c4 04	 add	 esp, 4
$L154624:
  00013	c7 46 04 00 00
	00 00		 mov	 DWORD PTR [esi+4], 0
  0001a	c7 46 08 00 00
	00 00		 mov	 DWORD PTR [esi+8], 0
  00021	c7 46 0c 00 00
	00 00		 mov	 DWORD PTR [esi+12], 0
  00028	5e		 pop	 esi

; 745  : 		}

  00029	c3		 ret	 0
?clear@?$vector@PAVCTMonster@@V?$allocator@PAVCTMonster@@@std@@@std@@QAEXXZ ENDP ; std::vector<CTMonster *,std::allocator<CTMonster *> >::clear
_TEXT	ENDS
PUBLIC	?lower_bound@?$_Tree@V?$_Tmap_traits@_JUtagAGGRO@@U?$less@_J@std@@V?$allocator@U?$pair@$$CB_JUtagAGGRO@@@std@@@3@$0A@@std@@@std@@QAE?AViterator@12@AB_J@Z ; std::_Tree<std::_Tmap_traits<__int64,tagAGGRO,std::less<__int64>,std::allocator<std::pair<__int64 const ,tagAGGRO> >,0> >::lower_bound
; Function compile flags: /Ogty
; File c:\program files (x86)\microsoft visual studio .net 2003\vc7\include\xtree
;	COMDAT ?lower_bound@?$_Tree@V?$_Tmap_traits@_JUtagAGGRO@@U?$less@_J@std@@V?$allocator@U?$pair@$$CB_JUtagAGGRO@@@std@@@3@$0A@@std@@@std@@QAE?AViterator@12@AB_J@Z
_TEXT	SEGMENT
___$ReturnUdt$ = 8					; size = 4
__Keyval$ = 12						; size = 4
?lower_bound@?$_Tree@V?$_Tmap_traits@_JUtagAGGRO@@U?$less@_J@std@@V?$allocator@U?$pair@$$CB_JUtagAGGRO@@@std@@@3@$0A@@std@@@std@@QAE?AViterator@12@AB_J@Z PROC NEAR ; std::_Tree<std::_Tmap_traits<__int64,tagAGGRO,std::less<__int64>,std::allocator<std::pair<__int64 const ,tagAGGRO> >,0> >::lower_bound, COMDAT
; _this$ = ecx

; 810  : 		return (_TREE_ITERATOR(_Lbound(_Keyval)));

  00000	8b 44 24 08	 mov	 eax, DWORD PTR __Keyval$[esp-4]
  00004	50		 push	 eax
  00005	e8 00 00 00 00	 call	 ?_Lbound@?$_Tree@V?$_Tmap_traits@_JUtagAGGRO@@U?$less@_J@std@@V?$allocator@U?$pair@$$CB_JUtagAGGRO@@@std@@@3@$0A@@std@@@std@@IBEPAU_Node@?$_Tree_nod@V?$_Tmap_traits@_JUtagAGGRO@@U?$less@_J@std@@V?$allocator@U?$pair@$$CB_JUtagAGGRO@@@std@@@3@$0A@@std@@@2@AB_J@Z ; std::_Tree<std::_Tmap_traits<__int64,tagAGGRO,std::less<__int64>,std::allocator<std::pair<__int64 const ,tagAGGRO> >,0> >::_Lbound
  0000a	8b 4c 24 04	 mov	 ecx, DWORD PTR ___$ReturnUdt$[esp-4]
  0000e	89 01		 mov	 DWORD PTR [ecx], eax
  00010	8b c1		 mov	 eax, ecx

; 811  : 		}

  00012	c2 08 00	 ret	 8
?lower_bound@?$_Tree@V?$_Tmap_traits@_JUtagAGGRO@@U?$less@_J@std@@V?$allocator@U?$pair@$$CB_JUtagAGGRO@@@std@@@3@$0A@@std@@@std@@QAE?AViterator@12@AB_J@Z ENDP ; std::_Tree<std::_Tmap_traits<__int64,tagAGGRO,std::less<__int64>,std::allocator<std::pair<__int64 const ,tagAGGRO> >,0> >::lower_bound
_TEXT	ENDS
PUBLIC	??1?$basic_string@DU?$char_traits@D@std@@V?$allocator@D@2@@std@@QAE@XZ ; std::basic_string<char,std::char_traits<char>,std::allocator<char> >::~basic_string<char,std::char_traits<char>,std::allocator<char> >
; Function compile flags: /Ogty
; File c:\program files (x86)\microsoft visual studio .net 2003\vc7\include\xstring
;	COMDAT ??1?$basic_string@DU?$char_traits@D@std@@V?$allocator@D@2@@std@@QAE@XZ
_TEXT	SEGMENT
??1?$basic_string@DU?$char_traits@D@std@@V?$allocator@D@2@@std@@QAE@XZ PROC NEAR ; std::basic_string<char,std::char_traits<char>,std::allocator<char> >::~basic_string<char,std::char_traits<char>,std::allocator<char> >, COMDAT
; _this$ = ecx

; 456  : 		{	// destroy the string

  00000	56		 push	 esi
  00001	8b f1		 mov	 esi, ecx

; 457  : 		_Tidy(true);

  00003	83 7e 18 10	 cmp	 DWORD PTR [esi+24], 16	; 00000010H
  00007	72 0c		 jb	 SHORT $L154675
  00009	8b 46 04	 mov	 eax, DWORD PTR [esi+4]
  0000c	50		 push	 eax
  0000d	e8 00 00 00 00	 call	 ??3@YAXPAX@Z		; operator delete
  00012	83 c4 04	 add	 esp, 4
$L154675:
  00015	33 c0		 xor	 eax, eax
  00017	c7 46 18 0f 00
	00 00		 mov	 DWORD PTR [esi+24], 15	; 0000000fH
  0001e	89 46 14	 mov	 DWORD PTR [esi+20], eax
  00021	88 46 04	 mov	 BYTE PTR [esi+4], al
  00024	5e		 pop	 esi

; 458  : 		}

  00025	c3		 ret	 0
??1?$basic_string@DU?$char_traits@D@std@@V?$allocator@D@2@@std@@QAE@XZ ENDP ; std::basic_string<char,std::char_traits<char>,std::allocator<char> >::~basic_string<char,std::char_traits<char>,std::allocator<char> >
_TEXT	ENDS
PUBLIC	?SetString@?$CSimpleStringT@D$0A@@ATL@@QAEXPBD@Z ; ATL::CSimpleStringT<char,0>::SetString
; Function compile flags: /Ogty
; File c:\program files (x86)\microsoft visual studio .net 2003\vc7\atlmfc\include\atlsimpstr.h
;	COMDAT ?SetString@?$CSimpleStringT@D$0A@@ATL@@QAEXPBD@Z
_TEXT	SEGMENT
_pszSrc$ = 8						; size = 4
?SetString@?$CSimpleStringT@D$0A@@ATL@@QAEXPBD@Z PROC NEAR ; ATL::CSimpleStringT<char,0>::SetString, COMDAT
; _this$ = ecx

; 579  : 	{

  00000	56		 push	 esi

; 580  : 		SetString( pszSrc, StringLength( pszSrc ) );

  00001	8b 74 24 08	 mov	 esi, DWORD PTR _pszSrc$[esp]
  00005	85 f6		 test	 esi, esi
  00007	75 0d		 jne	 SHORT $L154697
  00009	33 c0		 xor	 eax, eax
  0000b	50		 push	 eax
  0000c	56		 push	 esi
  0000d	e8 00 00 00 00	 call	 ?SetString@?$CSimpleStringT@D$0A@@ATL@@QAEXPBDH@Z ; ATL::CSimpleStringT<char,0>::SetString
  00012	5e		 pop	 esi

; 581  : 	}

  00013	c2 04 00	 ret	 4

; 580  : 		SetString( pszSrc, StringLength( pszSrc ) );

$L154697:
  00016	8b c6		 mov	 eax, esi
  00018	57		 push	 edi
  00019	8d 78 01	 lea	 edi, DWORD PTR [eax+1]
  0001c	8d 64 24 00	 npad	 4
$L154699:
  00020	8a 10		 mov	 dl, BYTE PTR [eax]
  00022	40		 inc	 eax
  00023	84 d2		 test	 dl, dl
  00025	75 f9		 jne	 SHORT $L154699
  00027	2b c7		 sub	 eax, edi
  00029	5f		 pop	 edi
  0002a	50		 push	 eax
  0002b	56		 push	 esi
  0002c	e8 00 00 00 00	 call	 ?SetString@?$CSimpleStringT@D$0A@@ATL@@QAEXPBDH@Z ; ATL::CSimpleStringT<char,0>::SetString
  00031	5e		 pop	 esi

; 581  : 	}

  00032	c2 04 00	 ret	 4
?SetString@?$CSimpleStringT@D$0A@@ATL@@QAEXPBD@Z ENDP	; ATL::CSimpleStringT<char,0>::SetString
_TEXT	ENDS
PUBLIC	?_Grow@?$basic_string@DU?$char_traits@D@std@@V?$allocator@D@2@@std@@IAE_NI_N@Z ; std::basic_string<char,std::char_traits<char>,std::allocator<char> >::_Grow
EXTRN	?_Xlen@_String_base@std@@QBEXXZ:NEAR		; std::_String_base::_Xlen
; Function compile flags: /Ogty
; File c:\program files (x86)\microsoft visual studio .net 2003\vc7\include\xstring
;	COMDAT ?_Grow@?$basic_string@DU?$char_traits@D@std@@V?$allocator@D@2@@std@@IAE_NI_N@Z
_TEXT	SEGMENT
__Newsize$ = 8						; size = 4
__Trim$ = 12						; size = 1
?_Grow@?$basic_string@DU?$char_traits@D@std@@V?$allocator@D@2@@std@@IAE_NI_N@Z PROC NEAR ; std::basic_string<char,std::char_traits<char>,std::allocator<char> >::_Grow, COMDAT
; _this$ = ecx

; 1480 : 		{	// ensure buffer is big enough, trim to size if _Trim is true

  00000	55		 push	 ebp
  00001	56		 push	 esi

; 1481 : 		if (max_size() < _Newsize)

  00002	8b 74 24 0c	 mov	 esi, DWORD PTR __Newsize$[esp+4]
  00006	83 fe fe	 cmp	 esi, -2			; fffffffeH
  00009	8b e9		 mov	 ebp, ecx
  0000b	76 05		 jbe	 SHORT $L149774

; 1482 : 			_String_base::_Xlen();	// result too long

  0000d	e8 00 00 00 00	 call	 ?_Xlen@_String_base@std@@QBEXXZ ; std::_String_base::_Xlen
$L149774:

; 1483 : 		if (_Myres < _Newsize)

  00012	8b 45 18	 mov	 eax, DWORD PTR [ebp+24]
  00015	3b c6		 cmp	 eax, esi
  00017	73 19		 jae	 SHORT $L149775

; 1484 : 			_Copy(_Newsize, _Mysize);	// reallocate to grow

  00019	8b 45 14	 mov	 eax, DWORD PTR [ebp+20]
  0001c	50		 push	 eax
  0001d	56		 push	 esi
  0001e	8b cd		 mov	 ecx, ebp
  00020	e8 00 00 00 00	 call	 ?_Copy@?$basic_string@DU?$char_traits@D@std@@V?$allocator@D@2@@std@@IAEXII@Z ; std::basic_string<char,std::char_traits<char>,std::allocator<char> >::_Copy

; 1490 : 		return (0 < _Newsize);	// return true only if more work to do

  00025	33 c0		 xor	 eax, eax
  00027	3b c6		 cmp	 eax, esi
  00029	1b c0		 sbb	 eax, eax
  0002b	5e		 pop	 esi
  0002c	f7 d8		 neg	 eax
  0002e	5d		 pop	 ebp

; 1491 : 		}

  0002f	c2 08 00	 ret	 8
$L149775:

; 1485 : 		else if (_Trim && _Newsize < _BUF_SIZE)

  00032	8a 4c 24 10	 mov	 cl, BYTE PTR __Trim$[esp+4]
  00036	84 c9		 test	 cl, cl
  00038	74 5c		 je	 SHORT $L149777
  0003a	83 fe 10	 cmp	 esi, 16			; 00000010H
  0003d	73 57		 jae	 SHORT $L149777
  0003f	53		 push	 ebx

; 1486 : 			_Tidy(true,	// copy and deallocate if trimming to small string
; 1487 : 				_Newsize < _Mysize ? _Newsize : _Mysize);

  00040	8b 5d 14	 mov	 ebx, DWORD PTR [ebp+20]
  00043	3b f3		 cmp	 esi, ebx
  00045	73 02		 jae	 SHORT $L154704
  00047	8b de		 mov	 ebx, esi
$L154704:
  00049	83 f8 10	 cmp	 eax, 16			; 00000010H
  0004c	72 2b		 jb	 SHORT $L154759
  0004e	85 db		 test	 ebx, ebx
  00050	8b 45 04	 mov	 eax, DWORD PTR [ebp+4]
  00053	57		 push	 edi
  00054	8d 7d 04	 lea	 edi, DWORD PTR [ebp+4]
  00057	76 16		 jbe	 SHORT $L154757
  00059	8b cb		 mov	 ecx, ebx
  0005b	8b d1		 mov	 edx, ecx
  0005d	c1 e9 02	 shr	 ecx, 2
  00060	8b f0		 mov	 esi, eax
  00062	f3 a5		 rep movsd
  00064	8b ca		 mov	 ecx, edx
  00066	83 e1 03	 and	 ecx, 3
  00069	f3 a4		 rep movsb
  0006b	8b 74 24 14	 mov	 esi, DWORD PTR __Newsize$[esp+12]
$L154757:
  0006f	50		 push	 eax
  00070	e8 00 00 00 00	 call	 ??3@YAXPAX@Z		; operator delete
  00075	83 c4 04	 add	 esp, 4
  00078	5f		 pop	 edi
$L154759:
  00079	89 5d 14	 mov	 DWORD PTR [ebp+20], ebx

; 1490 : 		return (0 < _Newsize);	// return true only if more work to do

  0007c	33 c0		 xor	 eax, eax
  0007e	c7 45 18 0f 00
	00 00		 mov	 DWORD PTR [ebp+24], 15	; 0000000fH
  00085	c6 44 2b 04 00	 mov	 BYTE PTR [ebx+ebp+4], 0
  0008a	3b c6		 cmp	 eax, esi
  0008c	5b		 pop	 ebx
  0008d	1b c0		 sbb	 eax, eax
  0008f	5e		 pop	 esi
  00090	f7 d8		 neg	 eax
  00092	5d		 pop	 ebp

; 1491 : 		}

  00093	c2 08 00	 ret	 8
$L149777:

; 1488 : 		else if (_Newsize == 0)

  00096	85 f6		 test	 esi, esi
  00098	75 23		 jne	 SHORT $L154795

; 1489 : 			_Eos(0);	// new size is zero, just null terminate

  0009a	83 f8 10	 cmp	 eax, 16			; 00000010H
  0009d	89 75 14	 mov	 DWORD PTR [ebp+20], esi
  000a0	72 14		 jb	 SHORT $L154791
  000a2	8b 6d 04	 mov	 ebp, DWORD PTR [ebp+4]

; 1490 : 		return (0 < _Newsize);	// return true only if more work to do

  000a5	33 c0		 xor	 eax, eax
  000a7	3b c6		 cmp	 eax, esi
  000a9	1b c0		 sbb	 eax, eax
  000ab	5e		 pop	 esi
  000ac	c6 45 00 00	 mov	 BYTE PTR [ebp], 0
  000b0	f7 d8		 neg	 eax
  000b2	5d		 pop	 ebp

; 1491 : 		}

  000b3	c2 08 00	 ret	 8

; 1489 : 			_Eos(0);	// new size is zero, just null terminate

$L154791:
  000b6	83 c5 04	 add	 ebp, 4
  000b9	c6 45 00 00	 mov	 BYTE PTR [ebp], 0
$L154795:

; 1490 : 		return (0 < _Newsize);	// return true only if more work to do

  000bd	33 c0		 xor	 eax, eax
  000bf	3b c6		 cmp	 eax, esi
  000c1	1b c0		 sbb	 eax, eax
  000c3	5e		 pop	 esi
  000c4	f7 d8		 neg	 eax
  000c6	5d		 pop	 ebp

; 1491 : 		}

  000c7	c2 08 00	 ret	 8
?_Grow@?$basic_string@DU?$char_traits@D@std@@V?$allocator@D@2@@std@@IAE_NI_N@Z ENDP ; std::basic_string<char,std::char_traits<char>,std::allocator<char> >::_Grow
; Function compile flags: /Ogty
_TEXT	ENDS
;	COMDAT ??_GCTRecallMon@@UAEPAXI@Z
_TEXT	SEGMENT
___flags$ = 8						; size = 4
??_GCTRecallMon@@UAEPAXI@Z PROC NEAR			; CTRecallMon::`scalar deleting destructor', COMDAT
; _this$ = ecx
  00000	56		 push	 esi
  00001	8b f1		 mov	 esi, ecx
  00003	e8 00 00 00 00	 call	 ??1CTRecallMon@@UAE@XZ	; CTRecallMon::~CTRecallMon
  00008	f6 44 24 08 01	 test	 BYTE PTR ___flags$[esp], 1
  0000d	74 09		 je	 SHORT $L154801
  0000f	56		 push	 esi
  00010	e8 00 00 00 00	 call	 ??3@YAXPAX@Z		; operator delete
  00015	83 c4 04	 add	 esp, 4
$L154801:
  00018	8b c6		 mov	 eax, esi
  0001a	5e		 pop	 esi
  0001b	c2 04 00	 ret	 4
??_GCTRecallMon@@UAEPAXI@Z ENDP				; CTRecallMon::`scalar deleting destructor'
_TEXT	ENDS
PUBLIC	?find@?$_Tree@V?$_Tmap_traits@_JUtagAGGRO@@U?$less@_J@std@@V?$allocator@U?$pair@$$CB_JUtagAGGRO@@@std@@@3@$0A@@std@@@std@@QAE?AViterator@12@AB_J@Z ; std::_Tree<std::_Tmap_traits<__int64,tagAGGRO,std::less<__int64>,std::allocator<std::pair<__int64 const ,tagAGGRO> >,0> >::find
; Function compile flags: /Ogty
; File c:\program files (x86)\microsoft visual studio .net 2003\vc7\include\xtree
;	COMDAT ?find@?$_Tree@V?$_Tmap_traits@_JUtagAGGRO@@U?$less@_J@std@@V?$allocator@U?$pair@$$CB_JUtagAGGRO@@@std@@@3@$0A@@std@@@std@@QAE?AViterator@12@AB_J@Z
_TEXT	SEGMENT
$T154808 = -4						; size = 4
___$ReturnUdt$ = 8					; size = 4
__Where$ = 12						; size = 4
__Keyval$ = 12						; size = 4
?find@?$_Tree@V?$_Tmap_traits@_JUtagAGGRO@@U?$less@_J@std@@V?$allocator@U?$pair@$$CB_JUtagAGGRO@@@std@@@3@$0A@@std@@@std@@QAE?AViterator@12@AB_J@Z PROC NEAR ; std::_Tree<std::_Tmap_traits<__int64,tagAGGRO,std::less<__int64>,std::allocator<std::pair<__int64 const ,tagAGGRO> >,0> >::find, COMDAT
; _this$ = ecx

; 787  : 		{	// find an element in mutable sequence that matches _Keyval

  00000	51		 push	 ecx
  00001	56		 push	 esi
  00002	57		 push	 edi

; 788  : 		iterator _Where = lower_bound(_Keyval);

  00003	8b 7c 24 14	 mov	 edi, DWORD PTR __Keyval$[esp+8]
  00007	57		 push	 edi
  00008	8b f1		 mov	 esi, ecx
  0000a	e8 00 00 00 00	 call	 ?_Lbound@?$_Tree@V?$_Tmap_traits@_JUtagAGGRO@@U?$less@_J@std@@V?$allocator@U?$pair@$$CB_JUtagAGGRO@@@std@@@3@$0A@@std@@@std@@IBEPAU_Node@?$_Tree_nod@V?$_Tmap_traits@_JUtagAGGRO@@U?$less@_J@std@@V?$allocator@U?$pair@$$CB_JUtagAGGRO@@@std@@@3@$0A@@std@@@2@AB_J@Z ; std::_Tree<std::_Tmap_traits<__int64,tagAGGRO,std::less<__int64>,std::allocator<std::pair<__int64 const ,tagAGGRO> >,0> >::_Lbound

; 789  : 		return (_Where == end() || this->comp(_Keyval, _Key(_Where._Mynode()))
; 790  : 			? end() : _Where);

  0000f	8b 76 04	 mov	 esi, DWORD PTR [esi+4]
  00012	3b c6		 cmp	 eax, esi
  00014	89 44 24 14	 mov	 DWORD PTR __Where$[esp+8], eax
  00018	74 23		 je	 SHORT $L154807
  0001a	8b 4f 04	 mov	 ecx, DWORD PTR [edi+4]
  0001d	3b 48 14	 cmp	 ecx, DWORD PTR [eax+20]
  00020	7c 1b		 jl	 SHORT $L154807
  00022	7f 07		 jg	 SHORT $L154885
  00024	8b 17		 mov	 edx, DWORD PTR [edi]
  00026	3b 50 10	 cmp	 edx, DWORD PTR [eax+16]
  00029	72 12		 jb	 SHORT $L154807
$L154885:
  0002b	8d 44 24 14	 lea	 eax, DWORD PTR __Where$[esp+8]
  0002f	8b 08		 mov	 ecx, DWORD PTR [eax]
  00031	8b 44 24 10	 mov	 eax, DWORD PTR ___$ReturnUdt$[esp+8]
  00035	5f		 pop	 edi
  00036	89 08		 mov	 DWORD PTR [eax], ecx
  00038	5e		 pop	 esi

; 791  : 		}

  00039	59		 pop	 ecx
  0003a	c2 08 00	 ret	 8
$L154807:

; 789  : 		return (_Where == end() || this->comp(_Keyval, _Key(_Where._Mynode()))
; 790  : 			? end() : _Where);

  0003d	8d 44 24 08	 lea	 eax, DWORD PTR $T154808[esp+12]
  00041	89 74 24 08	 mov	 DWORD PTR $T154808[esp+12], esi
  00045	8b 08		 mov	 ecx, DWORD PTR [eax]
  00047	8b 44 24 10	 mov	 eax, DWORD PTR ___$ReturnUdt$[esp+8]
  0004b	5f		 pop	 edi
  0004c	89 08		 mov	 DWORD PTR [eax], ecx
  0004e	5e		 pop	 esi

; 791  : 		}

  0004f	59		 pop	 ecx
  00050	c2 08 00	 ret	 8
?find@?$_Tree@V?$_Tmap_traits@_JUtagAGGRO@@U?$less@_J@std@@V?$allocator@U?$pair@$$CB_JUtagAGGRO@@@std@@@3@$0A@@std@@@std@@QAE?AViterator@12@AB_J@Z ENDP ; std::_Tree<std::_Tmap_traits<__int64,tagAGGRO,std::less<__int64>,std::allocator<std::pair<__int64 const ,tagAGGRO> >,0> >::find
_TEXT	ENDS
PUBLIC	??1logic_error@std@@UAE@XZ			; std::logic_error::~logic_error
PUBLIC	?what@logic_error@std@@UBEPBDXZ			; std::logic_error::what
PUBLIC	??_7logic_error@std@@6B@			; std::logic_error::`vftable'
PUBLIC	??_Glogic_error@std@@UAEPAXI@Z			; std::logic_error::`scalar deleting destructor'
EXTRN	??_Elogic_error@std@@UAEPAXI@Z:NEAR		; std::logic_error::`vector deleting destructor'
EXTRN	??1exception@@UAE@XZ:NEAR			; exception::~exception
;	COMDAT ??_7logic_error@std@@6B@
; File c:\program files (x86)\microsoft visual studio .net 2003\vc7\include\iosfwd
CONST	SEGMENT
??_7logic_error@std@@6B@ DD FLAT:??_Elogic_error@std@@UAEPAXI@Z ; std::logic_error::`vftable'
	DD	FLAT:?what@logic_error@std@@UBEPBDXZ
; Function compile flags: /Ogty
; File c:\program files (x86)\microsoft visual studio .net 2003\vc7\include\stdexcept
CONST	ENDS
;	COMDAT ??1logic_error@std@@UAE@XZ
_TEXT	SEGMENT
??1logic_error@std@@UAE@XZ PROC NEAR			; std::logic_error::~logic_error, COMDAT
; _this$ = ecx

; 23   : 		{}	// destroy the object

  00000	56		 push	 esi
  00001	8b f1		 mov	 esi, ecx
  00003	c7 06 00 00 00
	00		 mov	 DWORD PTR [esi], OFFSET FLAT:??_7logic_error@std@@6B@
  00009	83 7e 24 10	 cmp	 DWORD PTR [esi+36], 16	; 00000010H
  0000d	72 0c		 jb	 SHORT $L154947
  0000f	8b 46 10	 mov	 eax, DWORD PTR [esi+16]
  00012	50		 push	 eax
  00013	e8 00 00 00 00	 call	 ??3@YAXPAX@Z		; operator delete
  00018	83 c4 04	 add	 esp, 4
$L154947:
  0001b	33 c0		 xor	 eax, eax
  0001d	c7 46 24 0f 00
	00 00		 mov	 DWORD PTR [esi+36], 15	; 0000000fH
  00024	89 46 20	 mov	 DWORD PTR [esi+32], eax
  00027	88 46 10	 mov	 BYTE PTR [esi+16], al
  0002a	8b ce		 mov	 ecx, esi
  0002c	5e		 pop	 esi
  0002d	e9 00 00 00 00	 jmp	 ??1exception@@UAE@XZ	; exception::~exception
??1logic_error@std@@UAE@XZ ENDP				; std::logic_error::~logic_error
; Function compile flags: /Ogty
_TEXT	ENDS
;	COMDAT ?what@logic_error@std@@UBEPBDXZ
_TEXT	SEGMENT
?what@logic_error@std@@UBEPBDXZ PROC NEAR		; std::logic_error::what, COMDAT
; _this$ = ecx

; 27   : 		return (_Str.c_str());

  00000	83 79 24 10	 cmp	 DWORD PTR [ecx+36], 16	; 00000010H
  00004	72 04		 jb	 SHORT $L154980
  00006	8b 41 10	 mov	 eax, DWORD PTR [ecx+16]

; 28   : 		}

  00009	c3		 ret	 0

; 27   : 		return (_Str.c_str());

$L154980:
  0000a	8d 41 10	 lea	 eax, DWORD PTR [ecx+16]

; 28   : 		}

  0000d	c3		 ret	 0
?what@logic_error@std@@UBEPBDXZ ENDP			; std::logic_error::what
; Function compile flags: /Ogty
_TEXT	ENDS
;	COMDAT ??_Glogic_error@std@@UAEPAXI@Z
_TEXT	SEGMENT
___flags$ = 8						; size = 4
??_Glogic_error@std@@UAEPAXI@Z PROC NEAR		; std::logic_error::`scalar deleting destructor', COMDAT
; _this$ = ecx
  00000	56		 push	 esi
  00001	8b f1		 mov	 esi, ecx
  00003	e8 00 00 00 00	 call	 ??1logic_error@std@@UAE@XZ ; std::logic_error::~logic_error
  00008	f6 44 24 08 01	 test	 BYTE PTR ___flags$[esp], 1
  0000d	74 09		 je	 SHORT $L154987
  0000f	56		 push	 esi
  00010	e8 00 00 00 00	 call	 ??3@YAXPAX@Z		; operator delete
  00015	83 c4 04	 add	 esp, 4
$L154987:
  00018	8b c6		 mov	 eax, esi
  0001a	5e		 pop	 esi
  0001b	c2 04 00	 ret	 4
??_Glogic_error@std@@UAEPAXI@Z ENDP			; std::logic_error::`scalar deleting destructor'
_TEXT	ENDS
PUBLIC	??4?$CSimpleStringT@D$0A@@ATL@@QAEAAV01@PBD@Z	; ATL::CSimpleStringT<char,0>::operator=
; Function compile flags: /Ogty
; File c:\program files (x86)\microsoft visual studio .net 2003\vc7\atlmfc\include\atlsimpstr.h
;	COMDAT ??4?$CSimpleStringT@D$0A@@ATL@@QAEAAV01@PBD@Z
_TEXT	SEGMENT
_pszSrc$ = 8						; size = 4
??4?$CSimpleStringT@D$0A@@ATL@@QAEAAV01@PBD@Z PROC NEAR	; ATL::CSimpleStringT<char,0>::operator=, COMDAT
; _this$ = ecx

; 316  : 		SetString( pszSrc );

  00000	8b 54 24 04	 mov	 edx, DWORD PTR _pszSrc$[esp-4]
  00004	85 d2		 test	 edx, edx
  00006	57		 push	 edi
  00007	8b f9		 mov	 edi, ecx
  00009	75 0f		 jne	 SHORT $L155001
  0000b	33 c0		 xor	 eax, eax
  0000d	50		 push	 eax
  0000e	52		 push	 edx
  0000f	e8 00 00 00 00	 call	 ?SetString@?$CSimpleStringT@D$0A@@ATL@@QAEXPBDH@Z ; ATL::CSimpleStringT<char,0>::SetString

; 317  : 
; 318  : 		return( *this );

  00014	8b c7		 mov	 eax, edi
  00016	5f		 pop	 edi

; 319  : 	}

  00017	c2 04 00	 ret	 4

; 316  : 		SetString( pszSrc );

$L155001:
  0001a	8b c2		 mov	 eax, edx
  0001c	56		 push	 esi
  0001d	8d 70 01	 lea	 esi, DWORD PTR [eax+1]
$L155002:
  00020	8a 08		 mov	 cl, BYTE PTR [eax]
  00022	40		 inc	 eax
  00023	84 c9		 test	 cl, cl
  00025	75 f9		 jne	 SHORT $L155002
  00027	2b c6		 sub	 eax, esi
  00029	5e		 pop	 esi
  0002a	50		 push	 eax
  0002b	52		 push	 edx
  0002c	8b cf		 mov	 ecx, edi
  0002e	e8 00 00 00 00	 call	 ?SetString@?$CSimpleStringT@D$0A@@ATL@@QAEXPBDH@Z ; ATL::CSimpleStringT<char,0>::SetString

; 317  : 
; 318  : 		return( *this );

  00033	8b c7		 mov	 eax, edi
  00035	5f		 pop	 edi

; 319  : 	}

  00036	c2 04 00	 ret	 4
??4?$CSimpleStringT@D$0A@@ATL@@QAEAAV01@PBD@Z ENDP	; ATL::CSimpleStringT<char,0>::operator=
_TEXT	ENDS
PUBLIC	?assign@?$basic_string@DU?$char_traits@D@std@@V?$allocator@D@2@@std@@QAEAAV12@ABV12@II@Z ; std::basic_string<char,std::char_traits<char>,std::allocator<char> >::assign
; Function compile flags: /Ogty
; File c:\program files (x86)\microsoft visual studio .net 2003\vc7\include\xstring
;	COMDAT ?assign@?$basic_string@DU?$char_traits@D@std@@V?$allocator@D@2@@std@@QAEAAV12@ABV12@II@Z
_TEXT	SEGMENT
__Right$ = 8						; size = 4
__Roff$ = 12						; size = 4
__Count$ = 16						; size = 4
?assign@?$basic_string@DU?$char_traits@D@std@@V?$allocator@D@2@@std@@QAEAAV12@ABV12@II@Z PROC NEAR ; std::basic_string<char,std::char_traits<char>,std::allocator<char> >::assign, COMDAT
; _this$ = ecx

; 590  : 		{	// assign _Right [_Roff, _Roff + _Count)

  00000	53		 push	 ebx
  00001	55		 push	 ebp
  00002	56		 push	 esi

; 591  : 		if (_Right.size() < _Roff)

  00003	8b 74 24 14	 mov	 esi, DWORD PTR __Roff$[esp+8]
  00007	57		 push	 edi
  00008	8b 7c 24 14	 mov	 edi, DWORD PTR __Right$[esp+12]
  0000c	39 77 14	 cmp	 DWORD PTR [edi+20], esi
  0000f	8b d9		 mov	 ebx, ecx
  00011	73 05		 jae	 SHORT $L148837

; 592  : 			_String_base::_Xran();	// _Roff off end

  00013	e8 00 00 00 00	 call	 ?_Xran@_String_base@std@@QBEXXZ ; std::_String_base::_Xran
$L148837:

; 593  : 		size_type _Num = _Right.size() - _Roff;

  00018	8b 6f 14	 mov	 ebp, DWORD PTR [edi+20]

; 594  : 		if (_Count < _Num)

  0001b	8b 44 24 1c	 mov	 eax, DWORD PTR __Count$[esp+12]
  0001f	2b ee		 sub	 ebp, esi
  00021	3b c5		 cmp	 eax, ebp
  00023	73 02		 jae	 SHORT $L148839

; 595  : 			_Num = _Count;	// trim _Num to size

  00025	8b e8		 mov	 ebp, eax
$L148839:

; 596  : 
; 597  : 		if (this == &_Right)

  00027	3b df		 cmp	 ebx, edi
  00029	75 1f		 jne	 SHORT $L148840

; 598  : 			erase((size_type)(_Roff + _Num)), erase(0, _Roff);	// substring

  0002b	6a ff		 push	 -1
  0002d	03 ee		 add	 ebp, esi
  0002f	55		 push	 ebp
  00030	8b cb		 mov	 ecx, ebx
  00032	e8 00 00 00 00	 call	 ?erase@?$basic_string@DU?$char_traits@D@std@@V?$allocator@D@2@@std@@QAEAAV12@II@Z ; std::basic_string<char,std::char_traits<char>,std::allocator<char> >::erase
  00037	56		 push	 esi
  00038	6a 00		 push	 0
  0003a	8b cb		 mov	 ecx, ebx
  0003c	e8 00 00 00 00	 call	 ?erase@?$basic_string@DU?$char_traits@D@std@@V?$allocator@D@2@@std@@QAEAAV12@II@Z ; std::basic_string<char,std::char_traits<char>,std::allocator<char> >::erase
  00041	5f		 pop	 edi
  00042	5e		 pop	 esi
  00043	5d		 pop	 ebp

; 603  : 			}
; 604  : 		return (*this);

  00044	8b c3		 mov	 eax, ebx
  00046	5b		 pop	 ebx

; 605  : 		}

  00047	c2 0c 00	 ret	 12			; 0000000cH
$L148840:

; 599  : 		else if (_Grow(_Num))

  0004a	83 fd fe	 cmp	 ebp, -2			; fffffffeH
  0004d	76 07		 jbe	 SHORT $L155111
  0004f	8b cb		 mov	 ecx, ebx
  00051	e8 00 00 00 00	 call	 ?_Xlen@_String_base@std@@QBEXXZ ; std::_String_base::_Xlen
$L155111:
  00056	8b 43 18	 mov	 eax, DWORD PTR [ebx+24]
  00059	3b c5		 cmp	 eax, ebp
  0005b	73 21		 jae	 SHORT $L155112
  0005d	8b 43 14	 mov	 eax, DWORD PTR [ebx+20]
  00060	50		 push	 eax
  00061	55		 push	 ebp
  00062	8b cb		 mov	 ecx, ebx
  00064	e8 00 00 00 00	 call	 ?_Copy@?$basic_string@DU?$char_traits@D@std@@V?$allocator@D@2@@std@@IAEXII@Z ; std::basic_string<char,std::char_traits<char>,std::allocator<char> >::_Copy
  00069	85 ed		 test	 ebp, ebp
$L155199:
  0006b	76 6d		 jbe	 SHORT $L155198

; 600  : 			{	// make room and assign new stuff
; 601  : 			_Traits::copy(_Myptr(), _Right._Myptr() + _Roff, _Num);

  0006d	8b 4f 18	 mov	 ecx, DWORD PTR [edi+24]
  00070	b8 10 00 00 00	 mov	 eax, 16			; 00000010H
  00075	3b c8		 cmp	 ecx, eax
  00077	72 2f		 jb	 SHORT $L155164
  00079	8b 57 04	 mov	 edx, DWORD PTR [edi+4]
  0007c	eb 2d		 jmp	 SHORT $L155165

; 599  : 		else if (_Grow(_Num))

$L155112:
  0007e	85 ed		 test	 ebp, ebp
  00080	75 e9		 jne	 SHORT $L155199
  00082	83 f8 10	 cmp	 eax, 16			; 00000010H
  00085	89 6b 14	 mov	 DWORD PTR [ebx+20], ebp
  00088	72 0f		 jb	 SHORT $L155155
  0008a	8b 43 04	 mov	 eax, DWORD PTR [ebx+4]
  0008d	5f		 pop	 edi
  0008e	5e		 pop	 esi
  0008f	c6 00 00	 mov	 BYTE PTR [eax], 0
  00092	5d		 pop	 ebp

; 603  : 			}
; 604  : 		return (*this);

  00093	8b c3		 mov	 eax, ebx
  00095	5b		 pop	 ebx

; 605  : 		}

  00096	c2 0c 00	 ret	 12			; 0000000cH

; 599  : 		else if (_Grow(_Num))

$L155155:
  00099	5f		 pop	 edi
  0009a	8d 43 04	 lea	 eax, DWORD PTR [ebx+4]
  0009d	5e		 pop	 esi
  0009e	c6 00 00	 mov	 BYTE PTR [eax], 0
  000a1	5d		 pop	 ebp

; 603  : 			}
; 604  : 		return (*this);

  000a2	8b c3		 mov	 eax, ebx
  000a4	5b		 pop	 ebx

; 605  : 		}

  000a5	c2 0c 00	 ret	 12			; 0000000cH

; 600  : 			{	// make room and assign new stuff
; 601  : 			_Traits::copy(_Myptr(), _Right._Myptr() + _Roff, _Num);

$L155164:
  000a8	8d 57 04	 lea	 edx, DWORD PTR [edi+4]
$L155165:
  000ab	39 43 18	 cmp	 DWORD PTR [ebx+24], eax
  000ae	8d 43 04	 lea	 eax, DWORD PTR [ebx+4]
  000b1	72 04		 jb	 SHORT $L155171
  000b3	8b 38		 mov	 edi, DWORD PTR [eax]
  000b5	eb 02		 jmp	 SHORT $L155172
$L155171:
  000b7	8b f8		 mov	 edi, eax
$L155172:
  000b9	03 f2		 add	 esi, edx
  000bb	8b cd		 mov	 ecx, ebp
  000bd	8b d1		 mov	 edx, ecx
  000bf	c1 e9 02	 shr	 ecx, 2
  000c2	f3 a5		 rep movsd
  000c4	8b ca		 mov	 ecx, edx
  000c6	83 e1 03	 and	 ecx, 3
  000c9	f3 a4		 rep movsb

; 602  : 			_Eos(_Num);

  000cb	83 7b 18 10	 cmp	 DWORD PTR [ebx+24], 16	; 00000010H
  000cf	89 6b 14	 mov	 DWORD PTR [ebx+20], ebp
  000d2	72 02		 jb	 SHORT $L155195
  000d4	8b 00		 mov	 eax, DWORD PTR [eax]
$L155195:
  000d6	c6 04 28 00	 mov	 BYTE PTR [eax+ebp], 0
$L155198:
  000da	5f		 pop	 edi
  000db	5e		 pop	 esi
  000dc	5d		 pop	 ebp

; 603  : 			}
; 604  : 		return (*this);

  000dd	8b c3		 mov	 eax, ebx
  000df	5b		 pop	 ebx

; 605  : 		}

  000e0	c2 0c 00	 ret	 12			; 0000000cH
?assign@?$basic_string@DU?$char_traits@D@std@@V?$allocator@D@2@@std@@QAEAAV12@ABV12@II@Z ENDP ; std::basic_string<char,std::char_traits<char>,std::allocator<char> >::assign
_TEXT	ENDS
PUBLIC	?assign@?$basic_string@DU?$char_traits@D@std@@V?$allocator@D@2@@std@@QAEAAV12@PBDI@Z ; std::basic_string<char,std::char_traits<char>,std::allocator<char> >::assign
; Function compile flags: /Ogty
;	COMDAT ?assign@?$basic_string@DU?$char_traits@D@std@@V?$allocator@D@2@@std@@QAEAAV12@PBDI@Z
_TEXT	SEGMENT
__Ptr$ = 8						; size = 4
__Num$ = 12						; size = 4
?assign@?$basic_string@DU?$char_traits@D@std@@V?$allocator@D@2@@std@@QAEAAV12@PBDI@Z PROC NEAR ; std::basic_string<char,std::char_traits<char>,std::allocator<char> >::assign, COMDAT
; _this$ = ecx

; 608  : 		{	// assign [_Ptr, _Ptr + _Num)

  00000	53		 push	 ebx
  00001	8b d9		 mov	 ebx, ecx

; 609  : 		if (_Inside(_Ptr))

  00003	8b 53 18	 mov	 edx, DWORD PTR [ebx+24]
  00006	83 fa 10	 cmp	 edx, 16			; 00000010H
  00009	56		 push	 esi
  0000a	57		 push	 edi
  0000b	72 05		 jb	 SHORT $L155221
  0000d	8b 43 04	 mov	 eax, DWORD PTR [ebx+4]
  00010	eb 03		 jmp	 SHORT $L155222
$L155221:
  00012	8d 43 04	 lea	 eax, DWORD PTR [ebx+4]
$L155222:
  00015	8b 74 24 10	 mov	 esi, DWORD PTR __Ptr$[esp+8]
  00019	3b f0		 cmp	 esi, eax
  0001b	72 34		 jb	 SHORT $L149761
  0001d	83 fa 10	 cmp	 edx, 16			; 00000010H
  00020	8d 43 04	 lea	 eax, DWORD PTR [ebx+4]
  00023	72 04		 jb	 SHORT $L155225
  00025	8b 08		 mov	 ecx, DWORD PTR [eax]
  00027	eb 02		 jmp	 SHORT $L155226
$L155225:
  00029	8b c8		 mov	 ecx, eax
$L155226:
  0002b	8b 7b 14	 mov	 edi, DWORD PTR [ebx+20]
  0002e	03 f9		 add	 edi, ecx
  00030	3b fe		 cmp	 edi, esi
  00032	76 1d		 jbe	 SHORT $L149761

; 610  : 			return (assign(*this, _Ptr - _Myptr(), _Num));	// substring

  00034	83 fa 10	 cmp	 edx, 16			; 00000010H
  00037	72 02		 jb	 SHORT $L155238
  00039	8b 00		 mov	 eax, DWORD PTR [eax]
$L155238:
  0003b	8b 4c 24 14	 mov	 ecx, DWORD PTR __Num$[esp+8]
  0003f	51		 push	 ecx
  00040	2b f0		 sub	 esi, eax
  00042	56		 push	 esi
  00043	53		 push	 ebx
  00044	8b cb		 mov	 ecx, ebx
  00046	e8 00 00 00 00	 call	 ?assign@?$basic_string@DU?$char_traits@D@std@@V?$allocator@D@2@@std@@QAEAAV12@ABV12@II@Z ; std::basic_string<char,std::char_traits<char>,std::allocator<char> >::assign
  0004b	5f		 pop	 edi
  0004c	5e		 pop	 esi
  0004d	5b		 pop	 ebx

; 618  : 		}

  0004e	c2 08 00	 ret	 8
$L149761:
  00051	55		 push	 ebp

; 611  : 
; 612  : 		if (_Grow(_Num))

  00052	8b 6c 24 18	 mov	 ebp, DWORD PTR __Num$[esp+12]
  00056	83 fd fe	 cmp	 ebp, -2			; fffffffeH
  00059	76 07		 jbe	 SHORT $L155336
  0005b	8b cb		 mov	 ecx, ebx
  0005d	e8 00 00 00 00	 call	 ?_Xlen@_String_base@std@@QBEXXZ ; std::_String_base::_Xlen
$L155336:
  00062	8b 43 18	 mov	 eax, DWORD PTR [ebx+24]
  00065	3b c5		 cmp	 eax, ebp
  00067	73 1b		 jae	 SHORT $L155337
  00069	8b 53 14	 mov	 edx, DWORD PTR [ebx+20]
  0006c	52		 push	 edx
  0006d	55		 push	 ebp
  0006e	8b cb		 mov	 ecx, ebx
  00070	e8 00 00 00 00	 call	 ?_Copy@?$basic_string@DU?$char_traits@D@std@@V?$allocator@D@2@@std@@IAEXII@Z ; std::basic_string<char,std::char_traits<char>,std::allocator<char> >::_Copy
  00075	85 ed		 test	 ebp, ebp
$L155417:
  00077	76 68		 jbe	 SHORT $L155414

; 613  : 			{	// make room and assign new stuff
; 614  : 			_Traits::copy(_Myptr(), _Ptr, _Num);

  00079	83 7b 18 10	 cmp	 DWORD PTR [ebx+24], 16	; 00000010H
  0007d	72 2f		 jb	 SHORT $L155389
  0007f	8b 7b 04	 mov	 edi, DWORD PTR [ebx+4]
  00082	eb 2d		 jmp	 SHORT $L155390

; 611  : 
; 612  : 		if (_Grow(_Num))

$L155337:
  00084	85 ed		 test	 ebp, ebp
  00086	75 ef		 jne	 SHORT $L155417
  00088	83 f8 10	 cmp	 eax, 16			; 00000010H
  0008b	89 6b 14	 mov	 DWORD PTR [ebx+20], ebp
  0008e	72 0f		 jb	 SHORT $L155380
  00090	8b 43 04	 mov	 eax, DWORD PTR [ebx+4]
  00093	5d		 pop	 ebp
  00094	5f		 pop	 edi
  00095	c6 00 00	 mov	 BYTE PTR [eax], 0
  00098	5e		 pop	 esi

; 616  : 			}
; 617  : 		return (*this);

  00099	8b c3		 mov	 eax, ebx
  0009b	5b		 pop	 ebx

; 618  : 		}

  0009c	c2 08 00	 ret	 8

; 611  : 
; 612  : 		if (_Grow(_Num))

$L155380:
  0009f	5d		 pop	 ebp
  000a0	8d 43 04	 lea	 eax, DWORD PTR [ebx+4]
  000a3	5f		 pop	 edi
  000a4	c6 00 00	 mov	 BYTE PTR [eax], 0
  000a7	5e		 pop	 esi

; 616  : 			}
; 617  : 		return (*this);

  000a8	8b c3		 mov	 eax, ebx
  000aa	5b		 pop	 ebx

; 618  : 		}

  000ab	c2 08 00	 ret	 8

; 613  : 			{	// make room and assign new stuff
; 614  : 			_Traits::copy(_Myptr(), _Ptr, _Num);

$L155389:
  000ae	8d 7b 04	 lea	 edi, DWORD PTR [ebx+4]
$L155390:
  000b1	8b cd		 mov	 ecx, ebp
  000b3	8b c1		 mov	 eax, ecx
  000b5	c1 e9 02	 shr	 ecx, 2
  000b8	f3 a5		 rep movsd
  000ba	8b c8		 mov	 ecx, eax
  000bc	83 e1 03	 and	 ecx, 3
  000bf	f3 a4		 rep movsb

; 615  : 			_Eos(_Num);

  000c1	83 7b 18 10	 cmp	 DWORD PTR [ebx+24], 16	; 00000010H
  000c5	89 6b 14	 mov	 DWORD PTR [ebx+20], ebp
  000c8	72 10		 jb	 SHORT $L155412
  000ca	8b 43 04	 mov	 eax, DWORD PTR [ebx+4]
  000cd	c6 04 28 00	 mov	 BYTE PTR [eax+ebp], 0
  000d1	5d		 pop	 ebp
  000d2	5f		 pop	 edi
  000d3	5e		 pop	 esi

; 616  : 			}
; 617  : 		return (*this);

  000d4	8b c3		 mov	 eax, ebx
  000d6	5b		 pop	 ebx

; 618  : 		}

  000d7	c2 08 00	 ret	 8

; 615  : 			_Eos(_Num);

$L155412:
  000da	8d 43 04	 lea	 eax, DWORD PTR [ebx+4]
  000dd	c6 04 28 00	 mov	 BYTE PTR [eax+ebp], 0
$L155414:
  000e1	5d		 pop	 ebp
  000e2	5f		 pop	 edi
  000e3	5e		 pop	 esi

; 616  : 			}
; 617  : 		return (*this);

  000e4	8b c3		 mov	 eax, ebx
  000e6	5b		 pop	 ebx

; 618  : 		}

  000e7	c2 08 00	 ret	 8
?assign@?$basic_string@DU?$char_traits@D@std@@V?$allocator@D@2@@std@@QAEAAV12@PBDI@Z ENDP ; std::basic_string<char,std::char_traits<char>,std::allocator<char> >::assign
_TEXT	ENDS
PUBLIC	??4?$CStringT@DV?$StrTraitATL@DV?$ChTraitsCRT@D@ATL@@@ATL@@@ATL@@QAEAAV01@PBD@Z ; ATL::CStringT<char,ATL::StrTraitATL<char,ATL::ChTraitsCRT<char> > >::operator=
; Function compile flags: /Ogty
; File c:\program files (x86)\microsoft visual studio .net 2003\vc7\atlmfc\include\cstringt.h
;	COMDAT ??4?$CStringT@DV?$StrTraitATL@DV?$ChTraitsCRT@D@ATL@@@ATL@@@ATL@@QAEAAV01@PBD@Z
_TEXT	SEGMENT
_pszSrc$ = 8						; size = 4
??4?$CStringT@DV?$StrTraitATL@DV?$ChTraitsCRT@D@ATL@@@ATL@@@ATL@@QAEAAV01@PBD@Z PROC NEAR ; ATL::CStringT<char,ATL::StrTraitATL<char,ATL::ChTraitsCRT<char> > >::operator=, COMDAT
; _this$ = ecx

; 983  : 		CThisSimpleString::operator=( pszSrc );

  00000	8b 54 24 04	 mov	 edx, DWORD PTR _pszSrc$[esp-4]
  00004	85 d2		 test	 edx, edx
  00006	57		 push	 edi
  00007	8b f9		 mov	 edi, ecx
  00009	75 0f		 jne	 SHORT $L155439
  0000b	33 c0		 xor	 eax, eax
  0000d	50		 push	 eax
  0000e	52		 push	 edx
  0000f	e8 00 00 00 00	 call	 ?SetString@?$CSimpleStringT@D$0A@@ATL@@QAEXPBDH@Z ; ATL::CSimpleStringT<char,0>::SetString

; 984  : 
; 985  : 		return( *this );

  00014	8b c7		 mov	 eax, edi
  00016	5f		 pop	 edi

; 986  : 	}

  00017	c2 04 00	 ret	 4

; 983  : 		CThisSimpleString::operator=( pszSrc );

$L155439:
  0001a	8b c2		 mov	 eax, edx
  0001c	56		 push	 esi
  0001d	8d 70 01	 lea	 esi, DWORD PTR [eax+1]
$L155440:
  00020	8a 08		 mov	 cl, BYTE PTR [eax]
  00022	40		 inc	 eax
  00023	84 c9		 test	 cl, cl
  00025	75 f9		 jne	 SHORT $L155440
  00027	2b c6		 sub	 eax, esi
  00029	5e		 pop	 esi
  0002a	50		 push	 eax
  0002b	52		 push	 edx
  0002c	8b cf		 mov	 ecx, edi
  0002e	e8 00 00 00 00	 call	 ?SetString@?$CSimpleStringT@D$0A@@ATL@@QAEXPBDH@Z ; ATL::CSimpleStringT<char,0>::SetString

; 984  : 
; 985  : 		return( *this );

  00033	8b c7		 mov	 eax, edi
  00035	5f		 pop	 edi

; 986  : 	}

  00036	c2 04 00	 ret	 4
??4?$CStringT@DV?$StrTraitATL@DV?$ChTraitsCRT@D@ATL@@@ATL@@@ATL@@QAEAAV01@PBD@Z ENDP ; ATL::CStringT<char,ATL::StrTraitATL<char,ATL::ChTraitsCRT<char> > >::operator=
_TEXT	ENDS
PUBLIC	??0?$basic_string@DU?$char_traits@D@std@@V?$allocator@D@2@@std@@QAE@ABV01@@Z ; std::basic_string<char,std::char_traits<char>,std::allocator<char> >::basic_string<char,std::char_traits<char>,std::allocator<char> >
; Function compile flags: /Ogty
; File c:\program files (x86)\microsoft visual studio .net 2003\vc7\include\xstring
;	COMDAT ??0?$basic_string@DU?$char_traits@D@std@@V?$allocator@D@2@@std@@QAE@ABV01@@Z
_TEXT	SEGMENT
__Right$ = 8						; size = 4
??0?$basic_string@DU?$char_traits@D@std@@V?$allocator@D@2@@std@@QAE@ABV01@@Z PROC NEAR ; std::basic_string<char,std::char_traits<char>,std::allocator<char> >::basic_string<char,std::char_traits<char>,std::allocator<char> >, COMDAT
; _this$ = ecx

; 323  : 		{	// construct by copying _Right

  00000	56		 push	 esi

; 324  : 		_Tidy();

  00001	33 c0		 xor	 eax, eax
  00003	8b f1		 mov	 esi, ecx

; 325  : 		assign(_Right, 0, npos);

  00005	6a ff		 push	 -1
  00007	89 46 14	 mov	 DWORD PTR [esi+20], eax
  0000a	c7 46 18 0f 00
	00 00		 mov	 DWORD PTR [esi+24], 15	; 0000000fH
  00011	50		 push	 eax
  00012	88 46 04	 mov	 BYTE PTR [esi+4], al
  00015	8b 44 24 10	 mov	 eax, DWORD PTR __Right$[esp+8]
  00019	50		 push	 eax
  0001a	e8 00 00 00 00	 call	 ?assign@?$basic_string@DU?$char_traits@D@std@@V?$allocator@D@2@@std@@QAEAAV12@ABV12@II@Z ; std::basic_string<char,std::char_traits<char>,std::allocator<char> >::assign

; 326  : 		}

  0001f	8b c6		 mov	 eax, esi
  00021	5e		 pop	 esi
  00022	c2 04 00	 ret	 4
??0?$basic_string@DU?$char_traits@D@std@@V?$allocator@D@2@@std@@QAE@ABV01@@Z ENDP ; std::basic_string<char,std::char_traits<char>,std::allocator<char> >::basic_string<char,std::char_traits<char>,std::allocator<char> >
_TEXT	ENDS
PUBLIC	?assign@?$basic_string@DU?$char_traits@D@std@@V?$allocator@D@2@@std@@QAEAAV12@PBD@Z ; std::basic_string<char,std::char_traits<char>,std::allocator<char> >::assign
; Function compile flags: /Ogty
;	COMDAT ?assign@?$basic_string@DU?$char_traits@D@std@@V?$allocator@D@2@@std@@QAEAAV12@PBD@Z
_TEXT	SEGMENT
__Ptr$ = 8						; size = 4
?assign@?$basic_string@DU?$char_traits@D@std@@V?$allocator@D@2@@std@@QAEAAV12@PBD@Z PROC NEAR ; std::basic_string<char,std::char_traits<char>,std::allocator<char> >::assign, COMDAT
; _this$ = ecx

; 621  : 		{	// assign [_Ptr, <null>)

  00000	56		 push	 esi

; 622  : 		return (assign(_Ptr, _Traits::length(_Ptr)));

