; Listing generated by Microsoft (R) Optimizing Compiler Version 13.10.3077 

	TITLE	.\TSkillTemp.cpp
	.386P
include listing.inc
if @Version gt 510
.model FLAT
else
_TEXT	SEGMENT PARA USE32 PUBLIC 'CODE'
_TEXT	ENDS
_DATA	SEGMENT DWORD USE32 PUBLIC 'DATA'
_DATA	ENDS
CONST	SEGMENT DWORD USE32 PUBLIC 'CONST'
CONST	ENDS
_BSS	SEGMENT DWORD USE32 PUBLIC 'BSS'
_BSS	ENDS
$$SYMBOLS	SEGMENT BYTE USE32 'DEBSYM'
$$SYMBOLS	ENDS
$$TYPES	SEGMENT BYTE USE32 'DEBTYP'
$$TYPES	ENDS
_TLS	SEGMENT DWORD USE32 PUBLIC 'TLS'
_TLS	ENDS
text$yc	SEGMENT PARA USE32 PUBLIC 'CODE'
text$yc	ENDS
CRT$XCA	SEGMENT DWORD USE32 PUBLIC 'DATA'
CRT$XCA	ENDS
CRT$XCU	SEGMENT DWORD USE32 PUBLIC 'DATA'
CRT$XCU	ENDS
CRT$XCL	SEGMENT DWORD USE32 PUBLIC 'DATA'
CRT$XCL	ENDS
CRT$XCC	SEGMENT DWORD USE32 PUBLIC 'DATA'
CRT$XCC	ENDS
CRT$XCZ	SEGMENT DWORD USE32 PUBLIC 'DATA'
CRT$XCZ	ENDS
text$yd	SEGMENT PARA USE32 PUBLIC 'CODE'
text$yd	ENDS
ATL$__m	SEGMENT DWORD USE32 PUBLIC ''
ATL$__m	ENDS
ATL$__z	SEGMENT DWORD USE32 PUBLIC ''
ATL$__z	ENDS
ATL$__a	SEGMENT DWORD USE32 PUBLIC ''
ATL$__a	ENDS
xdata$x	SEGMENT DWORD USE32 PUBLIC 'CONST'
xdata$x	ENDS
;	COMDAT ??0CTSkillTemp@@QAE@XZ
_TEXT	SEGMENT PARA USE32 PUBLIC 'CODE'
_TEXT	ENDS
;	COMDAT ??1?$map@EPAUtagSKILLPOINT@@U?$less@E@std@@V?$allocator@U?$pair@$$CBEPAUtagSKILLPOINT@@@std@@@3@@std@@QAE@XZ
_TEXT	SEGMENT PARA USE32 PUBLIC 'CODE'
_TEXT	ENDS
;	COMDAT ??1CTSkillTemp@@QAE@XZ
_TEXT	SEGMENT PARA USE32 PUBLIC 'CODE'
_TEXT	ENDS
;	COMDAT ?IsPositive@CTSkillTemp@@QAEEXZ
_TEXT	SEGMENT PARA USE32 PUBLIC 'CODE'
_TEXT	ENDS
;	COMDAT ?IsNegative@CTSkillTemp@@QAEEXZ
_TEXT	SEGMENT PARA USE32 PUBLIC 'CODE'
_TEXT	ENDS
;	COMDAT ?HaveSkillData@CTSkillTemp@@QAEEPAUtagTSKILLDATA@@@Z
_TEXT	SEGMENT PARA USE32 PUBLIC 'CODE'
_TEXT	ENDS
;	COMDAT ?CalcValue@CTSkillTemp@@QAEHEEEK@Z
_TEXT	SEGMENT PARA USE32 PUBLIC 'CODE'
_TEXT	ENDS
;	COMDAT ?GetValue@CTSkillTemp@@QAEHPAUtagTSKILLDATA@@E@Z
_TEXT	SEGMENT PARA USE32 PUBLIC 'CODE'
_TEXT	ENDS
;	COMDAT ?Calculate@CTSkillTemp@@QAEHEKK@Z
_TEXT	SEGMENT PARA USE32 PUBLIC 'CODE'
_TEXT	ENDS
;	COMDAT ?IsMirrorType@CTSkillTemp@@QAEEXZ
_TEXT	SEGMENT PARA USE32 PUBLIC 'CODE'
_TEXT	ENDS
;	COMDAT ?IsDamageType@CTSkillTemp@@QAEEXZ
_TEXT	SEGMENT PARA USE32 PUBLIC 'CODE'
_TEXT	ENDS
;	COMDAT ?IsRemainType@CTSkillTemp@@QAEEXZ
_TEXT	SEGMENT PARA USE32 PUBLIC 'CODE'
_TEXT	ENDS
;	COMDAT ?IsPassiveType@CTSkillTemp@@QAEEXZ
_TEXT	SEGMENT PARA USE32 PUBLIC 'CODE'
_TEXT	ENDS
;	COMDAT ?IsPosture@CTSkillTemp@@QAEEXZ
_TEXT	SEGMENT PARA USE32 PUBLIC 'CODE'
_TEXT	ENDS
;	COMDAT ?GetAttackType@CTSkillTemp@@QAEEXZ
_TEXT	SEGMENT PARA USE32 PUBLIC 'CODE'
_TEXT	ENDS
;	COMDAT ?IsLongAttack@CTSkillTemp@@QAEEXZ
_TEXT	SEGMENT PARA USE32 PUBLIC 'CODE'
_TEXT	ENDS
;	COMDAT ?CanEquip@CTSkillTemp@@QAEEE@Z
_TEXT	SEGMENT PARA USE32 PUBLIC 'CODE'
_TEXT	ENDS
;	COMDAT ?GetID@CTSkillTemp@@QAEGXZ
_TEXT	SEGMENT PARA USE32 PUBLIC 'CODE'
_TEXT	ENDS
;	COMDAT ?IsMaintainType@CTSkillTemp@@QAEEXZ
_TEXT	SEGMENT PARA USE32 PUBLIC 'CODE'
_TEXT	ENDS
;	COMDAT ?IsSilence@CTSkillTemp@@QAEEXZ
_TEXT	SEGMENT PARA USE32 PUBLIC 'CODE'
_TEXT	ENDS
;	COMDAT ?IsBuffType@CTSkillTemp@@QAEEXZ
_TEXT	SEGMENT PARA USE32 PUBLIC 'CODE'
_TEXT	ENDS
;	COMDAT ?IsDotType@CTSkillTemp@@QAEEXZ
_TEXT	SEGMENT PARA USE32 PUBLIC 'CODE'
_TEXT	ENDS
;	COMDAT ?IsRevivalType@CTSkillTemp@@QAEEXZ
_TEXT	SEGMENT PARA USE32 PUBLIC 'CODE'
_TEXT	ENDS
;	COMDAT ?IsBlockType@CTSkillTemp@@QAEEXZ
_TEXT	SEGMENT PARA USE32 PUBLIC 'CODE'
_TEXT	ENDS
;	COMDAT ?IsHideBuff@CTSkillTemp@@QAEEXZ
_TEXT	SEGMENT PARA USE32 PUBLIC 'CODE'
_TEXT	ENDS
;	COMDAT ?IsCancelMine@CTSkillTemp@@QAEEXZ
_TEXT	SEGMENT PARA USE32 PUBLIC 'CODE'
_TEXT	ENDS
;	COMDAT ?IsTrans@CTSkillTemp@@QAEEXZ
_TEXT	SEGMENT PARA USE32 PUBLIC 'CODE'
_TEXT	ENDS
;	COMDAT ?IsItemDelTarget@CTSkillTemp@@QAEEXZ
_TEXT	SEGMENT PARA USE32 PUBLIC 'CODE'
_TEXT	ENDS
;	COMDAT ?IsItemDelUser@CTSkillTemp@@QAEEXZ
_TEXT	SEGMENT PARA USE32 PUBLIC 'CODE'
_TEXT	ENDS
;	COMDAT ?IsDie@CTSkillTemp@@QAEEXZ
_TEXT	SEGMENT PARA USE32 PUBLIC 'CODE'
_TEXT	ENDS
;	COMDAT ?IsMultiAttack@CTSkillTemp@@QAEEXZ
_TEXT	SEGMENT PARA USE32 PUBLIC 'CODE'
_TEXT	ENDS
;	COMDAT ?GetTransHPMPType@CTSkillTemp@@QAEEXZ
_TEXT	SEGMENT PARA USE32 PUBLIC 'CODE'
_TEXT	ENDS
;	COMDAT ?CheckCountry@CTSkillTemp@@QAEEE@Z
_TEXT	SEGMENT PARA USE32 PUBLIC 'CODE'
_TEXT	ENDS
;	COMDAT ?GetPrice@CTSkillTemp@@QAEKK@Z
_TEXT	SEGMENT PARA USE32 PUBLIC 'CODE'
_TEXT	ENDS
;	COMDAT ?GetNeedSkillPoint@CTSkillTemp@@QAEEE@Z
_TEXT	SEGMENT PARA USE32 PUBLIC 'CODE'
_TEXT	ENDS
;	COMDAT ?GetNeedKindPoint@CTSkillTemp@@QAEEE@Z
_TEXT	SEGMENT PARA USE32 PUBLIC 'CODE'
_TEXT	ENDS
;	COMDAT ?CheckParentSkill@CTSkillTemp@@QAEEEE@Z
_TEXT	SEGMENT PARA USE32 PUBLIC 'CODE'
_TEXT	ENDS
;	COMDAT ?GetAggro@CTSkillTemp@@QAEKE@Z
_TEXT	SEGMENT PARA USE32 PUBLIC 'CODE'
_TEXT	ENDS
;	COMDAT ?GetItemProbBuff@CTSkillTemp@@QAEGE@Z
_TEXT	SEGMENT PARA USE32 PUBLIC 'CODE'
_TEXT	ENDS
;	COMDAT ?IsRandomTrans@CTSkillTemp@@QAEEXZ
_TEXT	SEGMENT PARA USE32 PUBLIC 'CODE'
_TEXT	ENDS
;	COMDAT ?IsAfterMath@CTSkillTemp@@QAEEXZ
_TEXT	SEGMENT PARA USE32 PUBLIC 'CODE'
_TEXT	ENDS
;	COMDAT ?IsRandomBuff@CTSkillTemp@@QAEEXZ
_TEXT	SEGMENT PARA USE32 PUBLIC 'CODE'
_TEXT	ENDS
;	COMDAT ?CanDefendAtDie@CTSkillTemp@@QAEEXZ
_TEXT	SEGMENT PARA USE32 PUBLIC 'CODE'
_TEXT	ENDS
;	COMDAT ?IsMonRecall@CTSkillTemp@@QAEEXZ
_TEXT	SEGMENT PARA USE32 PUBLIC 'CODE'
_TEXT	ENDS
;	COMDAT ?IsRecall@CTSkillTemp@@QAEEXZ
_TEXT	SEGMENT PARA USE32 PUBLIC 'CODE'
_TEXT	ENDS
;	COMDAT ?IsLuckyPotion@CTSkillTemp@@QAEEXZ
_TEXT	SEGMENT PARA USE32 PUBLIC 'CODE'
_TEXT	ENDS
;	COMDAT ?IsExpPotion@CTSkillTemp@@QAEEXZ
_TEXT	SEGMENT PARA USE32 PUBLIC 'CODE'
_TEXT	ENDS
;	COMDAT ?GetAutoExp@CTSkillTemp@@QAEGXZ
_TEXT	SEGMENT PARA USE32 PUBLIC 'CODE'
_TEXT	ENDS
;	COMDAT ??0?$vector@PAUtagTSKILLDATA@@V?$allocator@PAUtagTSKILLDATA@@@std@@@std@@QAE@XZ
_TEXT	SEGMENT PARA USE32 PUBLIC 'CODE'
_TEXT	ENDS
;	COMDAT ??1?$vector@PAUtagTSKILLDATA@@V?$allocator@PAUtagTSKILLDATA@@@std@@@std@@QAE@XZ
_TEXT	SEGMENT PARA USE32 PUBLIC 'CODE'
_TEXT	ENDS
;	COMDAT ?size@?$vector@PAUtagTSKILLDATA@@V?$allocator@PAUtagTSKILLDATA@@@std@@@std@@QBEIXZ
_TEXT	SEGMENT PARA USE32 PUBLIC 'CODE'
_TEXT	ENDS
;	COMDAT ?empty@?$vector@PAUtagTSKILLDATA@@V?$allocator@PAUtagTSKILLDATA@@@std@@@std@@QBE_NXZ
_TEXT	SEGMENT PARA USE32 PUBLIC 'CODE'
_TEXT	ENDS
;	COMDAT ??A?$vector@PAUtagTSKILLDATA@@V?$allocator@PAUtagTSKILLDATA@@@std@@@std@@QAEAAPAUtagTSKILLDATA@@I@Z
_TEXT	SEGMENT PARA USE32 PUBLIC 'CODE'
_TEXT	ENDS
;	COMDAT ?back@?$vector@PAUtagTSKILLDATA@@V?$allocator@PAUtagTSKILLDATA@@@std@@@std@@QAEAAPAUtagTSKILLDATA@@XZ
_TEXT	SEGMENT PARA USE32 PUBLIC 'CODE'
_TEXT	ENDS
;	COMDAT ?pop_back@?$vector@PAUtagTSKILLDATA@@V?$allocator@PAUtagTSKILLDATA@@@std@@@std@@QAEXXZ
_TEXT	SEGMENT PARA USE32 PUBLIC 'CODE'
_TEXT	ENDS
;	COMDAT ?clear@?$vector@PAUtagTSKILLDATA@@V?$allocator@PAUtagTSKILLDATA@@@std@@@std@@QAEXXZ
_TEXT	SEGMENT PARA USE32 PUBLIC 'CODE'
_TEXT	ENDS
;	COMDAT ??0?$map@EPAUtagSKILLPOINT@@U?$less@E@std@@V?$allocator@U?$pair@$$CBEPAUtagSKILLPOINT@@@std@@@3@@std@@QAE@XZ
_TEXT	SEGMENT PARA USE32 PUBLIC 'CODE'
_TEXT	ENDS
;	COMDAT ??1?$_Tree@V?$_Tmap_traits@EPAUtagSKILLPOINT@@U?$less@E@std@@V?$allocator@U?$pair@$$CBEPAUtagSKILLPOINT@@@std@@@3@$0A@@std@@@std@@QAE@XZ
_TEXT	SEGMENT PARA USE32 PUBLIC 'CODE'
_TEXT	ENDS
;	COMDAT ?begin@?$_Tree@V?$_Tmap_traits@EPAUtagSKILLPOINT@@U?$less@E@std@@V?$allocator@U?$pair@$$CBEPAUtagSKILLPOINT@@@std@@@3@$0A@@std@@@std@@QAE?AViterator@12@XZ
_TEXT	SEGMENT PARA USE32 PUBLIC 'CODE'
_TEXT	ENDS
;	COMDAT ?end@?$_Tree@V?$_Tmap_traits@EPAUtagSKILLPOINT@@U?$less@E@std@@V?$allocator@U?$pair@$$CBEPAUtagSKILLPOINT@@@std@@@3@$0A@@std@@@std@@QAE?AViterator@12@XZ
_TEXT	SEGMENT PARA USE32 PUBLIC 'CODE'
_TEXT	ENDS
;	COMDAT ?clear@?$_Tree@V?$_Tmap_traits@EPAUtagSKILLPOINT@@U?$less@E@std@@V?$allocator@U?$pair@$$CBEPAUtagSKILLPOINT@@@std@@@3@$0A@@std@@@std@@QAEXXZ
_TEXT	SEGMENT PARA USE32 PUBLIC 'CODE'
_TEXT	ENDS
;	COMDAT ?find@?$_Tree@V?$_Tmap_traits@EPAUtagSKILLPOINT@@U?$less@E@std@@V?$allocator@U?$pair@$$CBEPAUtagSKILLPOINT@@@std@@@3@$0A@@std@@@std@@QAE?AViterator@12@ABE@Z
_TEXT	SEGMENT PARA USE32 PUBLIC 'CODE'
_TEXT	ENDS
;	COMDAT ??0iterator@?$_Tree@V?$_Tmap_traits@EPAUtagSKILLPOINT@@U?$less@E@std@@V?$allocator@U?$pair@$$CBEPAUtagSKILLPOINT@@@std@@@3@$0A@@std@@@std@@QAE@XZ
_TEXT	SEGMENT PARA USE32 PUBLIC 'CODE'
_TEXT	ENDS
;	COMDAT ??Diterator@?$_Tree@V?$_Tmap_traits@EPAUtagSKILLPOINT@@U?$less@E@std@@V?$allocator@U?$pair@$$CBEPAUtagSKILLPOINT@@@std@@@3@$0A@@std@@@std@@QBEAAU?$pair@$$CBEPAUtagSKILLPOINT@@@2@XZ
_TEXT	SEGMENT PARA USE32 PUBLIC 'CODE'
_TEXT	ENDS
;	COMDAT ??Eiterator@?$_Tree@V?$_Tmap_traits@EPAUtagSKILLPOINT@@U?$less@E@std@@V?$allocator@U?$pair@$$CBEPAUtagSKILLPOINT@@@std@@@3@$0A@@std@@@std@@QAE?AV012@H@Z
_TEXT	SEGMENT PARA USE32 PUBLIC 'CODE'
_TEXT	ENDS
;	COMDAT ??9const_iterator@?$_Tree@V?$_Tmap_traits@EPAUtagSKILLPOINT@@U?$less@E@std@@V?$allocator@U?$pair@$$CBEPAUtagSKILLPOINT@@@std@@@3@$0A@@std@@@std@@QBE_NABV012@@Z
_TEXT	SEGMENT PARA USE32 PUBLIC 'CODE'
_TEXT	ENDS
;	COMDAT ??R?$less@E@std@@QBE_NABE0@Z
_TEXT	SEGMENT PARA USE32 PUBLIC 'CODE'
_TEXT	ENDS
;	COMDAT ?begin@?$vector@PAUtagTSKILLDATA@@V?$allocator@PAUtagTSKILLDATA@@@std@@@std@@QAE?AViterator@12@XZ
_TEXT	SEGMENT PARA USE32 PUBLIC 'CODE'
_TEXT	ENDS
;	COMDAT ?end@?$vector@PAUtagTSKILLDATA@@V?$allocator@PAUtagTSKILLDATA@@@std@@@std@@QAE?AViterator@12@XZ
_TEXT	SEGMENT PARA USE32 PUBLIC 'CODE'
_TEXT	ENDS
;	COMDAT ?_Buy@?$vector@PAUtagTSKILLDATA@@V?$allocator@PAUtagTSKILLDATA@@@std@@@std@@IAE_NI@Z
_TEXT	SEGMENT PARA USE32 PUBLIC 'CODE'
_TEXT	ENDS
;	COMDAT ?_Destroy@?$vector@PAUtagTSKILLDATA@@V?$allocator@PAUtagTSKILLDATA@@@std@@@std@@IAEXPAPAUtagTSKILLDATA@@0@Z
_TEXT	SEGMENT PARA USE32 PUBLIC 'CODE'
_TEXT	ENDS
;	COMDAT ?_Tidy@?$vector@PAUtagTSKILLDATA@@V?$allocator@PAUtagTSKILLDATA@@@std@@@std@@IAEXXZ
_TEXT	SEGMENT PARA USE32 PUBLIC 'CODE'
_TEXT	ENDS
;	COMDAT ??0?$_Vector_val@PAUtagTSKILLDATA@@V?$allocator@PAUtagTSKILLDATA@@@std@@@std@@IAE@V?$allocator@PAUtagTSKILLDATA@@@1@@Z
_TEXT	SEGMENT PARA USE32 PUBLIC 'CODE'
_TEXT	ENDS
;	COMDAT ??0?$allocator@PAUtagTSKILLDATA@@@std@@QAE@XZ
_TEXT	SEGMENT PARA USE32 PUBLIC 'CODE'
_TEXT	ENDS
;	COMDAT ?_Key@?$_Tree@V?$_Tmap_traits@EPAUtagSKILLPOINT@@U?$less@E@std@@V?$allocator@U?$pair@$$CBEPAUtagSKILLPOINT@@@std@@@3@$0A@@std@@@std@@KAABEPAU_Node@?$_Tree_nod@V?$_Tmap_traits@EPAUtagSKILLPOINT@@U?$less@E@std@@V?$allocator@U?$pair@$$CBEPAUtagSKILLPOINT@@@std@@@3@$0A@@std@@@2@@Z
_TEXT	SEGMENT PARA USE32 PUBLIC 'CODE'
_TEXT	ENDS
;	COMDAT ??0?$_Tree@V?$_Tmap_traits@EPAUtagSKILLPOINT@@U?$less@E@std@@V?$allocator@U?$pair@$$CBEPAUtagSKILLPOINT@@@std@@@3@$0A@@std@@@std@@QAE@ABU?$less@E@1@ABV?$allocator@U?$pair@$$CBEPAUtagSKILLPOINT@@@std@@@1@@Z
_TEXT	SEGMENT PARA USE32 PUBLIC 'CODE'
_TEXT	ENDS
;	COMDAT ?lower_bound@?$_Tree@V?$_Tmap_traits@EPAUtagSKILLPOINT@@U?$less@E@std@@V?$allocator@U?$pair@$$CBEPAUtagSKILLPOINT@@@std@@@3@$0A@@std@@@std@@QAE?AViterator@12@ABE@Z
_TEXT	SEGMENT PARA USE32 PUBLIC 'CODE'
_TEXT	ENDS
;	COMDAT ?_Erase@?$_Tree@V?$_Tmap_traits@EPAUtagSKILLPOINT@@U?$less@E@std@@V?$allocator@U?$pair@$$CBEPAUtagSKILLPOINT@@@std@@@3@$0A@@std@@@std@@IAEXPAU_Node@?$_Tree_nod@V?$_Tmap_traits@EPAUtagSKILLPOINT@@U?$less@E@std@@V?$allocator@U?$pair@$$CBEPAUtagSKILLPOINT@@@std@@@3@$0A@@std@@@2@@Z
_TEXT	SEGMENT PARA USE32 PUBLIC 'CODE'
_TEXT	ENDS
;	COMDAT ?_Lmost@?$_Tree@V?$_Tmap_traits@EPAUtagSKILLPOINT@@U?$less@E@std@@V?$allocator@U?$pair@$$CBEPAUtagSKILLPOINT@@@std@@@3@$0A@@std@@@std@@IAEAAPAU_Node@?$_Tree_nod@V?$_Tmap_traits@EPAUtagSKILLPOINT@@U?$less@E@std@@V?$allocator@U?$pair@$$CBEPAUtagSKILLPOINT@@@std@@@3@$0A@@std@@@2@XZ
_TEXT	SEGMENT PARA USE32 PUBLIC 'CODE'
_TEXT	ENDS
;	COMDAT ?_Rmost@?$_Tree@V?$_Tmap_traits@EPAUtagSKILLPOINT@@U?$less@E@std@@V?$allocator@U?$pair@$$CBEPAUtagSKILLPOINT@@@std@@@3@$0A@@std@@@std@@IAEAAPAU_Node@?$_Tree_nod@V?$_Tmap_traits@EPAUtagSKILLPOINT@@U?$less@E@std@@V?$allocator@U?$pair@$$CBEPAUtagSKILLPOINT@@@std@@@3@$0A@@std@@@2@XZ
_TEXT	SEGMENT PARA USE32 PUBLIC 'CODE'
_TEXT	ENDS
;	COMDAT ?_Root@?$_Tree@V?$_Tmap_traits@EPAUtagSKILLPOINT@@U?$less@E@std@@V?$allocator@U?$pair@$$CBEPAUtagSKILLPOINT@@@std@@@3@$0A@@std@@@std@@IAEAAPAU_Node@?$_Tree_nod@V?$_Tmap_traits@EPAUtagSKILLPOINT@@U?$less@E@std@@V?$allocator@U?$pair@$$CBEPAUtagSKILLPOINT@@@std@@@3@$0A@@std@@@2@XZ
_TEXT	SEGMENT PARA USE32 PUBLIC 'CODE'
_TEXT	ENDS
;	COMDAT ?_Tidy@?$_Tree@V?$_Tmap_traits@EPAUtagSKILLPOINT@@U?$less@E@std@@V?$allocator@U?$pair@$$CBEPAUtagSKILLPOINT@@@std@@@3@$0A@@std@@@std@@IAEXXZ
_TEXT	SEGMENT PARA USE32 PUBLIC 'CODE'
_TEXT	ENDS
;	COMDAT ??0?$allocator@U?$pair@$$CBEPAUtagSKILLPOINT@@@std@@@std@@QAE@XZ
_TEXT	SEGMENT PARA USE32 PUBLIC 'CODE'
_TEXT	ENDS
;	COMDAT ??0iterator@?$_Tree@V?$_Tmap_traits@EPAUtagSKILLPOINT@@U?$less@E@std@@V?$allocator@U?$pair@$$CBEPAUtagSKILLPOINT@@@std@@@3@$0A@@std@@@std@@QAE@PAU_Node@?$_Tree_nod@V?$_Tmap_traits@EPAUtagSKILLPOINT@@U?$less@E@std@@V?$allocator@U?$pair@$$CBEPAUtagSKILLPOINT@@@std@@@3@$0A@@std@@@2@@Z
_TEXT	SEGMENT PARA USE32 PUBLIC 'CODE'
_TEXT	ENDS
;	COMDAT ??Eiterator@?$_Tree@V?$_Tmap_traits@EPAUtagSKILLPOINT@@U?$less@E@std@@V?$allocator@U?$pair@$$CBEPAUtagSKILLPOINT@@@std@@@3@$0A@@std@@@std@@QAEAAV012@XZ
_TEXT	SEGMENT PARA USE32 PUBLIC 'CODE'
_TEXT	ENDS
;	COMDAT ??0const_iterator@?$_Tree@V?$_Tmap_traits@EPAUtagSKILLPOINT@@U?$less@E@std@@V?$allocator@U?$pair@$$CBEPAUtagSKILLPOINT@@@std@@@3@$0A@@std@@@std@@QAE@XZ
_TEXT	SEGMENT PARA USE32 PUBLIC 'CODE'
_TEXT	ENDS
;	COMDAT ??Dconst_iterator@?$_Tree@V?$_Tmap_traits@EPAUtagSKILLPOINT@@U?$less@E@std@@V?$allocator@U?$pair@$$CBEPAUtagSKILLPOINT@@@std@@@3@$0A@@std@@@std@@QBEABU?$pair@$$CBEPAUtagSKILLPOINT@@@2@XZ
_TEXT	SEGMENT PARA USE32 PUBLIC 'CODE'
_TEXT	ENDS
;	COMDAT ??8const_iterator@?$_Tree@V?$_Tmap_traits@EPAUtagSKILLPOINT@@U?$less@E@std@@V?$allocator@U?$pair@$$CBEPAUtagSKILLPOINT@@@std@@@3@$0A@@std@@@std@@QBE_NABV012@@Z
_TEXT	SEGMENT PARA USE32 PUBLIC 'CODE'
_TEXT	ENDS
;	COMDAT ?_Mynode@const_iterator@?$_Tree@V?$_Tmap_traits@EPAUtagSKILLPOINT@@U?$less@E@std@@V?$allocator@U?$pair@$$CBEPAUtagSKILLPOINT@@@std@@@3@$0A@@std@@@std@@QBEPAU_Node@?$_Tree_nod@V?$_Tmap_traits@EPAUtagSKILLPOINT@@U?$less@E@std@@V?$allocator@U?$pair@$$CBEPAUtagSKILLPOINT@@@std@@@3@$0A@@std@@@3@XZ
_TEXT	SEGMENT PARA USE32 PUBLIC 'CODE'
_TEXT	ENDS
;	COMDAT ??Diterator@?$vector@PAUtagTSKILLDATA@@V?$allocator@PAUtagTSKILLDATA@@@std@@@std@@QBEAAPAUtagTSKILLDATA@@XZ
_TEXT	SEGMENT PARA USE32 PUBLIC 'CODE'
_TEXT	ENDS
;	COMDAT ??Hiterator@?$vector@PAUtagTSKILLDATA@@V?$allocator@PAUtagTSKILLDATA@@@std@@@std@@QBE?AV012@H@Z
_TEXT	SEGMENT PARA USE32 PUBLIC 'CODE'
_TEXT	ENDS
;	COMDAT ??Giterator@?$vector@PAUtagTSKILLDATA@@V?$allocator@PAUtagTSKILLDATA@@@std@@@std@@QBE?AV012@H@Z
_TEXT	SEGMENT PARA USE32 PUBLIC 'CODE'
_TEXT	ENDS
;	COMDAT ?max_size@?$vector@PAUtagTSKILLDATA@@V?$allocator@PAUtagTSKILLDATA@@@std@@@std@@QBEIXZ
_TEXT	SEGMENT PARA USE32 PUBLIC 'CODE'
_TEXT	ENDS
;	COMDAT ?_Xlen@?$vector@PAUtagTSKILLDATA@@V?$allocator@PAUtagTSKILLDATA@@@std@@@std@@IBEXXZ
_TEXT	SEGMENT PARA USE32 PUBLIC 'CODE'
_TEXT	ENDS
;	COMDAT ??0?$allocator@PAUtagTSKILLDATA@@@std@@QAE@ABV01@@Z
_TEXT	SEGMENT PARA USE32 PUBLIC 'CODE'
_TEXT	ENDS
;	COMDAT ?deallocate@?$allocator@PAUtagTSKILLDATA@@@std@@QAEXPAPAUtagTSKILLDATA@@I@Z
_TEXT	SEGMENT PARA USE32 PUBLIC 'CODE'
_TEXT	ENDS
;	COMDAT ?allocate@?$allocator@PAUtagTSKILLDATA@@@std@@QAEPAPAUtagTSKILLDATA@@I@Z
_TEXT	SEGMENT PARA USE32 PUBLIC 'CODE'
_TEXT	ENDS
;	COMDAT ?_Isnil@?$_Tree@V?$_Tmap_traits@EPAUtagSKILLPOINT@@U?$less@E@std@@V?$allocator@U?$pair@$$CBEPAUtagSKILLPOINT@@@std@@@3@$0A@@std@@@std@@KAAADPAU_Node@?$_Tree_nod@V?$_Tmap_traits@EPAUtagSKILLPOINT@@U?$less@E@std@@V?$allocator@U?$pair@$$CBEPAUtagSKILLPOINT@@@std@@@3@$0A@@std@@@2@@Z
_TEXT	SEGMENT PARA USE32 PUBLIC 'CODE'
_TEXT	ENDS
;	COMDAT ?_Left@?$_Tree@V?$_Tmap_traits@EPAUtagSKILLPOINT@@U?$less@E@std@@V?$allocator@U?$pair@$$CBEPAUtagSKILLPOINT@@@std@@@3@$0A@@std@@@std@@KAAAPAU_Node@?$_Tree_nod@V?$_Tmap_traits@EPAUtagSKILLPOINT@@U?$less@E@std@@V?$allocator@U?$pair@$$CBEPAUtagSKILLPOINT@@@std@@@3@$0A@@std@@@2@PAU342@@Z
_TEXT	SEGMENT PARA USE32 PUBLIC 'CODE'
_TEXT	ENDS
;	COMDAT ?_Parent@?$_Tree@V?$_Tmap_traits@EPAUtagSKILLPOINT@@U?$less@E@std@@V?$allocator@U?$pair@$$CBEPAUtagSKILLPOINT@@@std@@@3@$0A@@std@@@std@@KAAAPAU_Node@?$_Tree_nod@V?$_Tmap_traits@EPAUtagSKILLPOINT@@U?$less@E@std@@V?$allocator@U?$pair@$$CBEPAUtagSKILLPOINT@@@std@@@3@$0A@@std@@@2@PAU342@@Z
_TEXT	SEGMENT PARA USE32 PUBLIC 'CODE'
_TEXT	ENDS
;	COMDAT ?_Right@?$_Tree@V?$_Tmap_traits@EPAUtagSKILLPOINT@@U?$less@E@std@@V?$allocator@U?$pair@$$CBEPAUtagSKILLPOINT@@@std@@@3@$0A@@std@@@std@@KAAAPAU_Node@?$_Tree_nod@V?$_Tmap_traits@EPAUtagSKILLPOINT@@U?$less@E@std@@V?$allocator@U?$pair@$$CBEPAUtagSKILLPOINT@@@std@@@3@$0A@@std@@@2@PAU342@@Z
_TEXT	SEGMENT PARA USE32 PUBLIC 'CODE'
_TEXT	ENDS
;	COMDAT ?_Myval@?$_Tree@V?$_Tmap_traits@EPAUtagSKILLPOINT@@U?$less@E@std@@V?$allocator@U?$pair@$$CBEPAUtagSKILLPOINT@@@std@@@3@$0A@@std@@@std@@KAAAU?$pair@$$CBEPAUtagSKILLPOINT@@@2@PAU_Node@?$_Tree_nod@V?$_Tmap_traits@EPAUtagSKILLPOINT@@U?$less@E@std@@V?$allocator@U?$pair@$$CBEPAUtagSKILLPOINT@@@std@@@3@$0A@@std@@@2@@Z
_TEXT	SEGMENT PARA USE32 PUBLIC 'CODE'
_TEXT	ENDS
;	COMDAT ?erase@?$_Tree@V?$_Tmap_traits@EPAUtagSKILLPOINT@@U?$less@E@std@@V?$allocator@U?$pair@$$CBEPAUtagSKILLPOINT@@@std@@@3@$0A@@std@@@std@@QAE?AViterator@12@V312@0@Z
_TEXT	SEGMENT PARA USE32 PUBLIC 'CODE'
_TEXT	ENDS
;	COMDAT ?_Init@?$_Tree@V?$_Tmap_traits@EPAUtagSKILLPOINT@@U?$less@E@std@@V?$allocator@U?$pair@$$CBEPAUtagSKILLPOINT@@@std@@@3@$0A@@std@@@std@@IAEXXZ
_TEXT	SEGMENT PARA USE32 PUBLIC 'CODE'
_TEXT	ENDS
;	COMDAT ?_Lbound@?$_Tree@V?$_Tmap_traits@EPAUtagSKILLPOINT@@U?$less@E@std@@V?$allocator@U?$pair@$$CBEPAUtagSKILLPOINT@@@std@@@3@$0A@@std@@@std@@IBEPAU_Node@?$_Tree_nod@V?$_Tmap_traits@EPAUtagSKILLPOINT@@U?$less@E@std@@V?$allocator@U?$pair@$$CBEPAUtagSKILLPOINT@@@std@@@3@$0A@@std@@@2@ABE@Z
_TEXT	SEGMENT PARA USE32 PUBLIC 'CODE'
_TEXT	ENDS
;	COMDAT ??0?$_Tree_val@V?$_Tmap_traits@EPAUtagSKILLPOINT@@U?$less@E@std@@V?$allocator@U?$pair@$$CBEPAUtagSKILLPOINT@@@std@@@3@$0A@@std@@@std@@IAE@ABU?$less@E@1@V?$allocator@U?$pair@$$CBEPAUtagSKILLPOINT@@@std@@@1@@Z
_TEXT	SEGMENT PARA USE32 PUBLIC 'CODE'
_TEXT	ENDS
;	COMDAT ?_Kfn@?$_Tmap_traits@EPAUtagSKILLPOINT@@U?$less@E@std@@V?$allocator@U?$pair@$$CBEPAUtagSKILLPOINT@@@std@@@3@$0A@@std@@SAABEABU?$pair@$$CBEPAUtagSKILLPOINT@@@2@@Z
_TEXT	SEGMENT PARA USE32 PUBLIC 'CODE'
_TEXT	ENDS
;	COMDAT ??0?$allocator@U?$pair@$$CBEPAUtagSKILLPOINT@@@std@@@std@@QAE@ABV01@@Z
_TEXT	SEGMENT PARA USE32 PUBLIC 'CODE'
_TEXT	ENDS
;	COMDAT ?deallocate@?$allocator@U_Node@?$_Tree_nod@V?$_Tmap_traits@EPAUtagSKILLPOINT@@U?$less@E@std@@V?$allocator@U?$pair@$$CBEPAUtagSKILLPOINT@@@std@@@3@$0A@@std@@@std@@@std@@QAEXPAU_Node@?$_Tree_nod@V?$_Tmap_traits@EPAUtagSKILLPOINT@@U?$less@E@std@@V?$allocator@U?$pair@$$CBEPAUtagSKILLPOINT@@@std@@@3@$0A@@std@@@2@I@Z
_TEXT	SEGMENT PARA USE32 PUBLIC 'CODE'
_TEXT	ENDS
;	COMDAT ?destroy@?$allocator@U_Node@?$_Tree_nod@V?$_Tmap_traits@EPAUtagSKILLPOINT@@U?$less@E@std@@V?$allocator@U?$pair@$$CBEPAUtagSKILLPOINT@@@std@@@3@$0A@@std@@@std@@@std@@QAEXPAU_Node@?$_Tree_nod@V?$_Tmap_traits@EPAUtagSKILLPOINT@@U?$less@E@std@@V?$allocator@U?$pair@$$CBEPAUtagSKILLPOINT@@@std@@@3@$0A@@std@@@2@@Z
_TEXT	SEGMENT PARA USE32 PUBLIC 'CODE'
_TEXT	ENDS
;	COMDAT ?destroy@?$allocator@PAU_Node@?$_Tree_nod@V?$_Tmap_traits@EPAUtagSKILLPOINT@@U?$less@E@std@@V?$allocator@U?$pair@$$CBEPAUtagSKILLPOINT@@@std@@@3@$0A@@std@@@std@@@std@@QAEXPAPAU_Node@?$_Tree_nod@V?$_Tmap_traits@EPAUtagSKILLPOINT@@U?$less@E@std@@V?$allocator@U?$pair@$$CBEPAUtagSKILLPOINT@@@std@@@3@$0A@@std@@@2@@Z
_TEXT	SEGMENT PARA USE32 PUBLIC 'CODE'
_TEXT	ENDS
;	COMDAT ??0const_iterator@?$_Tree@V?$_Tmap_traits@EPAUtagSKILLPOINT@@U?$less@E@std@@V?$allocator@U?$pair@$$CBEPAUtagSKILLPOINT@@@std@@@3@$0A@@std@@@std@@QAE@PAU_Node@?$_Tree_nod@V?$_Tmap_traits@EPAUtagSKILLPOINT@@U?$less@E@std@@V?$allocator@U?$pair@$$CBEPAUtagSKILLPOINT@@@std@@@3@$0A@@std@@@2@@Z
_TEXT	SEGMENT PARA USE32 PUBLIC 'CODE'
_TEXT	ENDS
;	COMDAT ??Econst_iterator@?$_Tree@V?$_Tmap_traits@EPAUtagSKILLPOINT@@U?$less@E@std@@V?$allocator@U?$pair@$$CBEPAUtagSKILLPOINT@@@std@@@3@$0A@@std@@@std@@QAEAAV012@XZ
_TEXT	SEGMENT PARA USE32 PUBLIC 'CODE'
_TEXT	ENDS
;	COMDAT ??0iterator@?$vector@PAUtagTSKILLDATA@@V?$allocator@PAUtagTSKILLDATA@@@std@@@std@@QAE@PAPAUtagTSKILLDATA@@@Z
_TEXT	SEGMENT PARA USE32 PUBLIC 'CODE'
_TEXT	ENDS
;	COMDAT ??Yiterator@?$vector@PAUtagTSKILLDATA@@V?$allocator@PAUtagTSKILLDATA@@@std@@@std@@QAEAAV012@H@Z
_TEXT	SEGMENT PARA USE32 PUBLIC 'CODE'
_TEXT	ENDS
;	COMDAT ??Ziterator@?$vector@PAUtagTSKILLDATA@@V?$allocator@PAUtagTSKILLDATA@@@std@@@std@@QAEAAV012@H@Z
_TEXT	SEGMENT PARA USE32 PUBLIC 'CODE'
_TEXT	ENDS
;	COMDAT ??Dconst_iterator@?$vector@PAUtagTSKILLDATA@@V?$allocator@PAUtagTSKILLDATA@@@std@@@std@@QBEABQAUtagTSKILLDATA@@XZ
_TEXT	SEGMENT PARA USE32 PUBLIC 'CODE'
_TEXT	ENDS
;	COMDAT ?max_size@?$allocator@PAUtagTSKILLDATA@@@std@@QBEIXZ
_TEXT	SEGMENT PARA USE32 PUBLIC 'CODE'
_TEXT	ENDS
;	COMDAT ?erase@?$_Tree@V?$_Tmap_traits@EPAUtagSKILLPOINT@@U?$less@E@std@@V?$allocator@U?$pair@$$CBEPAUtagSKILLPOINT@@@std@@@3@$0A@@std@@@std@@QAE?AViterator@12@V312@@Z
_TEXT	SEGMENT PARA USE32 PUBLIC 'CODE'
_TEXT	ENDS
;	COMDAT ?_Root@?$_Tree@V?$_Tmap_traits@EPAUtagSKILLPOINT@@U?$less@E@std@@V?$allocator@U?$pair@$$CBEPAUtagSKILLPOINT@@@std@@@3@$0A@@std@@@std@@IBEAAPAU_Node@?$_Tree_nod@V?$_Tmap_traits@EPAUtagSKILLPOINT@@U?$less@E@std@@V?$allocator@U?$pair@$$CBEPAUtagSKILLPOINT@@@std@@@3@$0A@@std@@@2@XZ
_TEXT	SEGMENT PARA USE32 PUBLIC 'CODE'
_TEXT	ENDS
;	COMDAT ?_Buynode@?$_Tree@V?$_Tmap_traits@EPAUtagSKILLPOINT@@U?$less@E@std@@V?$allocator@U?$pair@$$CBEPAUtagSKILLPOINT@@@std@@@3@$0A@@std@@@std@@IAEPAU_Node@?$_Tree_nod@V?$_Tmap_traits@EPAUtagSKILLPOINT@@U?$less@E@std@@V?$allocator@U?$pair@$$CBEPAUtagSKILLPOINT@@@std@@@3@$0A@@std@@@2@XZ
_TEXT	SEGMENT PARA USE32 PUBLIC 'CODE'
_TEXT	ENDS
;	COMDAT ??0?$_Tree_ptr@V?$_Tmap_traits@EPAUtagSKILLPOINT@@U?$less@E@std@@V?$allocator@U?$pair@$$CBEPAUtagSKILLPOINT@@@std@@@3@$0A@@std@@@std@@IAE@ABU?$less@E@1@V?$allocator@U?$pair@$$CBEPAUtagSKILLPOINT@@@std@@@1@@Z
_TEXT	SEGMENT PARA USE32 PUBLIC 'CODE'
_TEXT	ENDS
;	COMDAT ?_Inc@const_iterator@?$_Tree@V?$_Tmap_traits@EPAUtagSKILLPOINT@@U?$less@E@std@@V?$allocator@U?$pair@$$CBEPAUtagSKILLPOINT@@@std@@@3@$0A@@std@@@std@@QAEXXZ
_TEXT	SEGMENT PARA USE32 PUBLIC 'CODE'
_TEXT	ENDS
;	COMDAT ??0const_iterator@?$vector@PAUtagTSKILLDATA@@V?$allocator@PAUtagTSKILLDATA@@@std@@@std@@QAE@PAPAUtagTSKILLDATA@@@Z
_TEXT	SEGMENT PARA USE32 PUBLIC 'CODE'
_TEXT	ENDS
;	COMDAT ?_Color@?$_Tree@V?$_Tmap_traits@EPAUtagSKILLPOINT@@U?$less@E@std@@V?$allocator@U?$pair@$$CBEPAUtagSKILLPOINT@@@std@@@3@$0A@@std@@@std@@KAAADPAU_Node@?$_Tree_nod@V?$_Tmap_traits@EPAUtagSKILLPOINT@@U?$less@E@std@@V?$allocator@U?$pair@$$CBEPAUtagSKILLPOINT@@@std@@@3@$0A@@std@@@2@@Z
_TEXT	SEGMENT PARA USE32 PUBLIC 'CODE'
_TEXT	ENDS
;	COMDAT ?_Lrotate@?$_Tree@V?$_Tmap_traits@EPAUtagSKILLPOINT@@U?$less@E@std@@V?$allocator@U?$pair@$$CBEPAUtagSKILLPOINT@@@std@@@3@$0A@@std@@@std@@IAEXPAU_Node@?$_Tree_nod@V?$_Tmap_traits@EPAUtagSKILLPOINT@@U?$less@E@std@@V?$allocator@U?$pair@$$CBEPAUtagSKILLPOINT@@@std@@@3@$0A@@std@@@2@@Z
_TEXT	SEGMENT PARA USE32 PUBLIC 'CODE'
_TEXT	ENDS
;	COMDAT ?_Max@?$_Tree@V?$_Tmap_traits@EPAUtagSKILLPOINT@@U?$less@E@std@@V?$allocator@U?$pair@$$CBEPAUtagSKILLPOINT@@@std@@@3@$0A@@std@@@std@@KAPAU_Node@?$_Tree_nod@V?$_Tmap_traits@EPAUtagSKILLPOINT@@U?$less@E@std@@V?$allocator@U?$pair@$$CBEPAUtagSKILLPOINT@@@std@@@3@$0A@@std@@@2@PAU342@@Z
_TEXT	SEGMENT PARA USE32 PUBLIC 'CODE'
_TEXT	ENDS
;	COMDAT ?_Min@?$_Tree@V?$_Tmap_traits@EPAUtagSKILLPOINT@@U?$less@E@std@@V?$allocator@U?$pair@$$CBEPAUtagSKILLPOINT@@@std@@@3@$0A@@std@@@std@@KAPAU_Node@?$_Tree_nod@V?$_Tmap_traits@EPAUtagSKILLPOINT@@U?$less@E@std@@V?$allocator@U?$pair@$$CBEPAUtagSKILLPOINT@@@std@@@3@$0A@@std@@@2@PAU342@@Z
_TEXT	SEGMENT PARA USE32 PUBLIC 'CODE'
_TEXT	ENDS
;	COMDAT ?_Rrotate@?$_Tree@V?$_Tmap_traits@EPAUtagSKILLPOINT@@U?$less@E@std@@V?$allocator@U?$pair@$$CBEPAUtagSKILLPOINT@@@std@@@3@$0A@@std@@@std@@IAEXPAU_Node@?$_Tree_nod@V?$_Tmap_traits@EPAUtagSKILLPOINT@@U?$less@E@std@@V?$allocator@U?$pair@$$CBEPAUtagSKILLPOINT@@@std@@@3@$0A@@std@@@2@@Z
_TEXT	SEGMENT PARA USE32 PUBLIC 'CODE'
_TEXT	ENDS
;	COMDAT ??0?$_Tree_nod@V?$_Tmap_traits@EPAUtagSKILLPOINT@@U?$less@E@std@@V?$allocator@U?$pair@$$CBEPAUtagSKILLPOINT@@@std@@@3@$0A@@std@@@std@@IAE@ABU?$less@E@1@V?$allocator@U?$pair@$$CBEPAUtagSKILLPOINT@@@std@@@1@@Z
_TEXT	SEGMENT PARA USE32 PUBLIC 'CODE'
_TEXT	ENDS
;	COMDAT ?allocate@?$allocator@U_Node@?$_Tree_nod@V?$_Tmap_traits@EPAUtagSKILLPOINT@@U?$less@E@std@@V?$allocator@U?$pair@$$CBEPAUtagSKILLPOINT@@@std@@@3@$0A@@std@@@std@@@std@@QAEPAU_Node@?$_Tree_nod@V?$_Tmap_traits@EPAUtagSKILLPOINT@@U?$less@E@std@@V?$allocator@U?$pair@$$CBEPAUtagSKILLPOINT@@@std@@@3@$0A@@std@@@2@I@Z
_TEXT	SEGMENT PARA USE32 PUBLIC 'CODE'
_TEXT	ENDS
;	COMDAT ?construct@?$allocator@PAU_Node@?$_Tree_nod@V?$_Tmap_traits@EPAUtagSKILLPOINT@@U?$less@E@std@@V?$allocator@U?$pair@$$CBEPAUtagSKILLPOINT@@@std@@@3@$0A@@std@@@std@@@std@@QAEXPAPAU_Node@?$_Tree_nod@V?$_Tmap_traits@EPAUtagSKILLPOINT@@U?$less@E@std@@V?$allocator@U?$pair@$$CBEPAUtagSKILLPOINT@@@std@@@3@$0A@@std@@@2@ABQAU342@@Z
_TEXT	SEGMENT PARA USE32 PUBLIC 'CODE'
_TEXT	ENDS
;	COMDAT ??0?$_Tmap_traits@EPAUtagSKILLPOINT@@U?$less@E@std@@V?$allocator@U?$pair@$$CBEPAUtagSKILLPOINT@@@std@@@3@$0A@@std@@QAE@U?$less@E@1@@Z
_TEXT	SEGMENT PARA USE32 PUBLIC 'CODE'
_TEXT	ENDS
;	COMDAT ?Unlock@?$CComCritSecLock@VCComCriticalSection@ATL@@@ATL@@QAEXXZ
_TEXT	SEGMENT PARA USE32 PUBLIC 'CODE'
_TEXT	ENDS
;	COMDAT ??$_Uninit_fill_n@GIG@std@@YAXPAGIABGAAV?$allocator@G@0@U_Scalar_ptr_iterator_tag@0@@Z
_TEXT	SEGMENT PARA USE32 PUBLIC 'CODE'
_TEXT	ENDS
;	COMDAT ??$_Ptr_cat@UtagTAICONDITION@@@std@@YA?AU_Scalar_ptr_iterator_tag@0@PAPAUtagTAICONDITION@@0@Z
_TEXT	SEGMENT PARA USE32 PUBLIC 'CODE'
_TEXT	ENDS
;	COMDAT ??$_Destroy_range@PAUtagTAICONDITION@@V?$allocator@PAUtagTAICONDITION@@@std@@@std@@YAXPAPAUtagTAICONDITION@@0AAV?$allocator@PAUtagTAICONDITION@@@0@U_Scalar_ptr_iterator_tag@0@@Z
_TEXT	SEGMENT PARA USE32 PUBLIC 'CODE'
_TEXT	ENDS
;	COMDAT ??$_Ptr_cat@UtagTMONITEM@@@std@@YA?AU_Scalar_ptr_iterator_tag@0@PAPAUtagTMONITEM@@0@Z
_TEXT	SEGMENT PARA USE32 PUBLIC 'CODE'
_TEXT	ENDS
;	COMDAT ??$_Destroy_range@PAUtagTMONITEM@@V?$allocator@PAUtagTMONITEM@@@std@@@std@@YAXPAPAUtagTMONITEM@@0AAV?$allocator@PAUtagTMONITEM@@@0@U_Scalar_ptr_iterator_tag@0@@Z
_TEXT	SEGMENT PARA USE32 PUBLIC 'CODE'
_TEXT	ENDS
;	COMDAT ??$_Ptr_cat@UtagTMAPMON@@@std@@YA?AU_Scalar_ptr_iterator_tag@0@PAPAUtagTMAPMON@@0@Z
_TEXT	SEGMENT PARA USE32 PUBLIC 'CODE'
_TEXT	ENDS
;	COMDAT ??$_Destroy_range@PAUtagTMAPMON@@V?$allocator@PAUtagTMAPMON@@@std@@@std@@YAXPAPAUtagTMAPMON@@0AAV?$allocator@PAUtagTMAPMON@@@0@U_Scalar_ptr_iterator_tag@0@@Z
_TEXT	SEGMENT PARA USE32 PUBLIC 'CODE'
_TEXT	ENDS
;	COMDAT ??$_Ptr_cat@UtagPATHPOINT@@@std@@YA?AU_Scalar_ptr_iterator_tag@0@PAPAUtagPATHPOINT@@0@Z
_TEXT	SEGMENT PARA USE32 PUBLIC 'CODE'
_TEXT	ENDS
;	COMDAT ??$_Destroy_range@PAUtagPATHPOINT@@V?$allocator@PAUtagPATHPOINT@@@std@@@std@@YAXPAPAUtagPATHPOINT@@0AAV?$allocator@PAUtagPATHPOINT@@@0@U_Scalar_ptr_iterator_tag@0@@Z
_TEXT	SEGMENT PARA USE32 PUBLIC 'CODE'
_TEXT	ENDS
;	COMDAT ??$_Ptr_cat@UtagQUESTCONDITION@@@std@@YA?AU_Scalar_ptr_iterator_tag@0@PAPAUtagQUESTCONDITION@@0@Z
_TEXT	SEGMENT PARA USE32 PUBLIC 'CODE'
_TEXT	ENDS
;	COMDAT ??$_Destroy_range@PAUtagQUESTCONDITION@@V?$allocator@PAUtagQUESTCONDITION@@@std@@@std@@YAXPAPAUtagQUESTCONDITION@@0AAV?$allocator@PAUtagQUESTCONDITION@@@0@U_Scalar_ptr_iterator_tag@0@@Z
_TEXT	SEGMENT PARA USE32 PUBLIC 'CODE'
_TEXT	ENDS
;	COMDAT ??$_Ptr_cat@UtagQUESTREWARD@@@std@@YA?AU_Scalar_ptr_iterator_tag@0@PAPAUtagQUESTREWARD@@0@Z
_TEXT	SEGMENT PARA USE32 PUBLIC 'CODE'
_TEXT	ENDS
;	COMDAT ??$_Destroy_range@PAUtagQUESTREWARD@@V?$allocator@PAUtagQUESTREWARD@@@std@@@std@@YAXPAPAUtagQUESTREWARD@@0AAV?$allocator@PAUtagQUESTREWARD@@@0@U_Scalar_ptr_iterator_tag@0@@Z
_TEXT	SEGMENT PARA USE32 PUBLIC 'CODE'
_TEXT	ENDS
;	COMDAT ??$_Ptr_cat@UtagQUESTTERM@@@std@@YA?AU_Scalar_ptr_iterator_tag@0@PAPAUtagQUESTTERM@@0@Z
_TEXT	SEGMENT PARA USE32 PUBLIC 'CODE'
_TEXT	ENDS
;	COMDAT ??$_Destroy_range@PAUtagQUESTTERM@@V?$allocator@PAUtagQUESTTERM@@@std@@@std@@YAXPAPAUtagQUESTTERM@@0AAV?$allocator@PAUtagQUESTTERM@@@0@U_Scalar_ptr_iterator_tag@0@@Z
_TEXT	SEGMENT PARA USE32 PUBLIC 'CODE'
_TEXT	ENDS
;	COMDAT ??$_Ptr_cat@PAUtagTCASHITMSALE@@PAU1@@std@@YA?AU_Nonscalar_ptr_iterator_tag@0@AAPAUtagTCASHITMSALE@@0@Z
_TEXT	SEGMENT PARA USE32 PUBLIC 'CODE'
_TEXT	ENDS
;	COMDAT ??$_Uninit_fill_n@PAUtagTCASHITMSALE@@IU1@V?$allocator@UtagTCASHITMSALE@@@std@@@std@@YAXPAUtagTCASHITMSALE@@IABU1@AAV?$allocator@UtagTCASHITMSALE@@@0@U_Nonscalar_ptr_iterator_tag@0@@Z
_TEXT	SEGMENT PARA USE32 PUBLIC 'CODE'
_TEXT	ENDS
;	COMDAT ??$_Ptr_cat@PAUtagMONREGEN@@PAU1@@std@@YA?AU_Nonscalar_ptr_iterator_tag@0@AAPAUtagMONREGEN@@0@Z
_TEXT	SEGMENT PARA USE32 PUBLIC 'CODE'
_TEXT	ENDS
;	COMDAT ??$_Uninit_fill_n@PAUtagMONREGEN@@IU1@V?$allocator@UtagMONREGEN@@@std@@@std@@YAXPAUtagMONREGEN@@IABU1@AAV?$allocator@UtagMONREGEN@@@0@U_Nonscalar_ptr_iterator_tag@0@@Z
_TEXT	SEGMENT PARA USE32 PUBLIC 'CODE'
_TEXT	ENDS
;	COMDAT ??$_Ptr_cat@PAUtagLOTTERY@@PAU1@@std@@YA?AU_Nonscalar_ptr_iterator_tag@0@AAPAUtagLOTTERY@@0@Z
_TEXT	SEGMENT PARA USE32 PUBLIC 'CODE'
_TEXT	ENDS
;	COMDAT ??$_Uninit_fill_n@PAUtagLOTTERY@@IU1@V?$allocator@UtagLOTTERY@@@std@@@std@@YAXPAUtagLOTTERY@@IABU1@AAV?$allocator@UtagLOTTERY@@@0@U_Nonscalar_ptr_iterator_tag@0@@Z
_TEXT	SEGMENT PARA USE32 PUBLIC 'CODE'
_TEXT	ENDS
;	COMDAT ??$_Destroy_range@GV?$allocator@G@std@@@std@@YAXPAG0AAV?$allocator@G@0@U_Scalar_ptr_iterator_tag@0@@Z
_TEXT	SEGMENT PARA USE32 PUBLIC 'CODE'
_TEXT	ENDS
;	COMDAT ??$_Uninitialized_copy@PAGPAGV?$allocator@G@std@@@std@@YAPAGPAG00AAV?$allocator@G@0@@Z
_TEXT	SEGMENT PARA USE32 PUBLIC 'CODE'
_TEXT	ENDS
;	COMDAT ??$_Copy_backward_opt@PAGPAG@std@@YAPAGPAG00U_Scalar_ptr_iterator_tag@0@@Z
_TEXT	SEGMENT PARA USE32 PUBLIC 'CODE'
_TEXT	ENDS
;	COMDAT ??$_Ptr_cat@VCTPlayer@@@std@@YA?AU_Scalar_ptr_iterator_tag@0@PAPAVCTPlayer@@0@Z
_TEXT	SEGMENT PARA USE32 PUBLIC 'CODE'
_TEXT	ENDS
;	COMDAT ??$_Destroy_range@PAVCTPlayer@@V?$allocator@PAVCTPlayer@@@std@@@std@@YAXPAPAVCTPlayer@@0AAV?$allocator@PAVCTPlayer@@@0@U_Scalar_ptr_iterator_tag@0@@Z
_TEXT	SEGMENT PARA USE32 PUBLIC 'CODE'
_TEXT	ENDS
;	COMDAT ??$_Destroy_range@UtagTCASHITMSALE@@V?$allocator@UtagTCASHITMSALE@@@std@@@std@@YAXPAUtagTCASHITMSALE@@0AAV?$allocator@UtagTCASHITMSALE@@@0@U_Nonscalar_ptr_iterator_tag@0@@Z
_TEXT	SEGMENT PARA USE32 PUBLIC 'CODE'
_TEXT	ENDS
;	COMDAT ??$_Uninitialized_copy@PAUtagTCASHITMSALE@@PAU1@V?$allocator@UtagTCASHITMSALE@@@std@@@std@@YAPAUtagTCASHITMSALE@@PAU1@00AAV?$allocator@UtagTCASHITMSALE@@@0@@Z
_TEXT	SEGMENT PARA USE32 PUBLIC 'CODE'
_TEXT	ENDS
;	COMDAT ??$_Copy_backward_opt@PAUtagTCASHITMSALE@@PAU1@@std@@YAPAUtagTCASHITMSALE@@PAU1@00U_Nonscalar_ptr_iterator_tag@0@@Z
_TEXT	SEGMENT PARA USE32 PUBLIC 'CODE'
_TEXT	ENDS
;	COMDAT ??$_Destroy_range@UtagMONREGEN@@V?$allocator@UtagMONREGEN@@@std@@@std@@YAXPAUtagMONREGEN@@0AAV?$allocator@UtagMONREGEN@@@0@U_Nonscalar_ptr_iterator_tag@0@@Z
_TEXT	SEGMENT PARA USE32 PUBLIC 'CODE'
_TEXT	ENDS
;	COMDAT ??$_Uninitialized_copy@PAUtagMONREGEN@@PAU1@V?$allocator@UtagMONREGEN@@@std@@@std@@YAPAUtagMONREGEN@@PAU1@00AAV?$allocator@UtagMONREGEN@@@0@@Z
_TEXT	SEGMENT PARA USE32 PUBLIC 'CODE'
_TEXT	ENDS
;	COMDAT ??$_Copy_backward_opt@PAUtagMONREGEN@@PAU1@@std@@YAPAUtagMONREGEN@@PAU1@00U_Nonscalar_ptr_iterator_tag@0@@Z
_TEXT	SEGMENT PARA USE32 PUBLIC 'CODE'
_TEXT	ENDS
;	COMDAT ??$_Destroy_range@UtagLOTTERY@@V?$allocator@UtagLOTTERY@@@std@@@std@@YAXPAUtagLOTTERY@@0AAV?$allocator@UtagLOTTERY@@@0@U_Nonscalar_ptr_iterator_tag@0@@Z
_TEXT	SEGMENT PARA USE32 PUBLIC 'CODE'
_TEXT	ENDS
;	COMDAT ??$_Uninitialized_copy@PAUtagLOTTERY@@PAU1@V?$allocator@UtagLOTTERY@@@std@@@std@@YAPAUtagLOTTERY@@PAU1@00AAV?$allocator@UtagLOTTERY@@@0@@Z
_TEXT	SEGMENT PARA USE32 PUBLIC 'CODE'
_TEXT	ENDS
;	COMDAT ??$_Copy_backward_opt@PAUtagLOTTERY@@PAU1@@std@@YAPAUtagLOTTERY@@PAU1@00U_Nonscalar_ptr_iterator_tag@0@@Z
_TEXT	SEGMENT PARA USE32 PUBLIC 'CODE'
_TEXT	ENDS
;	COMDAT ??$_Destroy_range@PAUtagTSKILLDATA@@V?$allocator@PAUtagTSKILLDATA@@@std@@@std@@YAXPAPAUtagTSKILLDATA@@0AAV?$allocator@PAUtagTSKILLDATA@@@0@@Z
_TEXT	SEGMENT PARA USE32 PUBLIC 'CODE'
_TEXT	ENDS
;	COMDAT ??$_Allocate@PAUtagTSKILLDATA@@@std@@YAPAPAUtagTSKILLDATA@@IPAPAU1@@Z
_TEXT	SEGMENT PARA USE32 PUBLIC 'CODE'
_TEXT	ENDS
;	COMDAT ??$_Destroy@U_Node@?$_Tree_nod@V?$_Tmap_traits@EPAUtagSKILLPOINT@@U?$less@E@std@@V?$allocator@U?$pair@$$CBEPAUtagSKILLPOINT@@@std@@@3@$0A@@std@@@std@@@std@@YAXPAU_Node@?$_Tree_nod@V?$_Tmap_traits@EPAUtagSKILLPOINT@@U?$less@E@std@@V?$allocator@U?$pair@$$CBEPAUtagSKILLPOINT@@@std@@@3@$0A@@std@@@0@@Z
_TEXT	SEGMENT PARA USE32 PUBLIC 'CODE'
_TEXT	ENDS
;	COMDAT ??$_Destroy@PAU_Node@?$_Tree_nod@V?$_Tmap_traits@EPAUtagSKILLPOINT@@U?$less@E@std@@V?$allocator@U?$pair@$$CBEPAUtagSKILLPOINT@@@std@@@3@$0A@@std@@@std@@@std@@YAXPAPAU_Node@?$_Tree_nod@V?$_Tmap_traits@EPAUtagSKILLPOINT@@U?$less@E@std@@V?$allocator@U?$pair@$$CBEPAUtagSKILLPOINT@@@std@@@3@$0A@@std@@@0@@Z
_TEXT	SEGMENT PARA USE32 PUBLIC 'CODE'
_TEXT	ENDS
;	COMDAT ??$?0U?$pair@$$CBEPAUtagSKILLPOINT@@@std@@@?$allocator@PAU_Node@?$_Tree_nod@V?$_Tmap_traits@EPAUtagSKILLPOINT@@U?$less@E@std@@V?$allocator@U?$pair@$$CBEPAUtagSKILLPOINT@@@std@@@3@$0A@@std@@@std@@@std@@QAE@ABV?$allocator@U?$pair@$$CBEPAUtagSKILLPOINT@@@std@@@1@@Z
_TEXT	SEGMENT PARA USE32 PUBLIC 'CODE'
_TEXT	ENDS
;	COMDAT ??$?0U?$pair@$$CBEPAUtagSKILLPOINT@@@std@@@?$allocator@U_Node@?$_Tree_nod@V?$_Tmap_traits@EPAUtagSKILLPOINT@@U?$less@E@std@@V?$allocator@U?$pair@$$CBEPAUtagSKILLPOINT@@@std@@@3@$0A@@std@@@std@@@std@@QAE@ABV?$allocator@U?$pair@$$CBEPAUtagSKILLPOINT@@@std@@@1@@Z
_TEXT	SEGMENT PARA USE32 PUBLIC 'CODE'
_TEXT	ENDS
;	COMDAT ??$_Allocate@U_Node@?$_Tree_nod@V?$_Tmap_traits@EPAUtagSKILLPOINT@@U?$less@E@std@@V?$allocator@U?$pair@$$CBEPAUtagSKILLPOINT@@@std@@@3@$0A@@std@@@std@@@std@@YAPAU_Node@?$_Tree_nod@V?$_Tmap_traits@EPAUtagSKILLPOINT@@U?$less@E@std@@V?$allocator@U?$pair@$$CBEPAUtagSKILLPOINT@@@std@@@3@$0A@@std@@@0@IPAU120@@Z
_TEXT	SEGMENT PARA USE32 PUBLIC 'CODE'
_TEXT	ENDS
;	COMDAT ??$_Construct@PAU_Node@?$_Tree_nod@V?$_Tmap_traits@EPAUtagSKILLPOINT@@U?$less@E@std@@V?$allocator@U?$pair@$$CBEPAUtagSKILLPOINT@@@std@@@3@$0A@@std@@@std@@PAU123@@std@@YAXPAPAU_Node@?$_Tree_nod@V?$_Tmap_traits@EPAUtagSKILLPOINT@@U?$less@E@std@@V?$allocator@U?$pair@$$CBEPAUtagSKILLPOINT@@@std@@@3@$0A@@std@@@0@ABQAU120@@Z
_TEXT	SEGMENT PARA USE32 PUBLIC 'CODE'
_TEXT	ENDS
;	COMDAT ?construct@?$allocator@UtagTCASHITMSALE@@@std@@QAEXPAUtagTCASHITMSALE@@ABU3@@Z
_TEXT	SEGMENT PARA USE32 PUBLIC 'CODE'
_TEXT	ENDS
;	COMDAT ?destroy@?$allocator@UtagTCASHITMSALE@@@std@@QAEXPAUtagTCASHITMSALE@@@Z
_TEXT	SEGMENT PARA USE32 PUBLIC 'CODE'
_TEXT	ENDS
;	COMDAT ?construct@?$allocator@UtagMONREGEN@@@std@@QAEXPAUtagMONREGEN@@ABU3@@Z
_TEXT	SEGMENT PARA USE32 PUBLIC 'CODE'
_TEXT	ENDS
;	COMDAT ?destroy@?$allocator@UtagMONREGEN@@@std@@QAEXPAUtagMONREGEN@@@Z
_TEXT	SEGMENT PARA USE32 PUBLIC 'CODE'
_TEXT	ENDS
;	COMDAT ?construct@?$allocator@UtagLOTTERY@@@std@@QAEXPAUtagLOTTERY@@ABU3@@Z
_TEXT	SEGMENT PARA USE32 PUBLIC 'CODE'
_TEXT	ENDS
;	COMDAT ?destroy@?$allocator@UtagLOTTERY@@@std@@QAEXPAUtagLOTTERY@@@Z
_TEXT	SEGMENT PARA USE32 PUBLIC 'CODE'
_TEXT	ENDS
;	COMDAT ??$fill_n@PAGIG@std@@YAXPAGIABG@Z
_TEXT	SEGMENT PARA USE32 PUBLIC 'CODE'
_TEXT	ENDS
;	COMDAT ??$_Uninit_copy@GG@std@@YAPAGPAG00AAV?$allocator@G@0@U_Scalar_ptr_iterator_tag@0@@Z
_TEXT	SEGMENT PARA USE32 PUBLIC 'CODE'
_TEXT	ENDS
;	COMDAT ??$_Uninit_copy@PAUtagTCASHITMSALE@@PAU1@V?$allocator@UtagTCASHITMSALE@@@std@@@std@@YAPAUtagTCASHITMSALE@@PAU1@00AAV?$allocator@UtagTCASHITMSALE@@@0@U_Nonscalar_ptr_iterator_tag@0@@Z
_TEXT	SEGMENT PARA USE32 PUBLIC 'CODE'
_TEXT	ENDS
;	COMDAT ??$_Uninit_copy@PAUtagMONREGEN@@PAU1@V?$allocator@UtagMONREGEN@@@std@@@std@@YAPAUtagMONREGEN@@PAU1@00AAV?$allocator@UtagMONREGEN@@@0@U_Nonscalar_ptr_iterator_tag@0@@Z
_TEXT	SEGMENT PARA USE32 PUBLIC 'CODE'
_TEXT	ENDS
;	COMDAT ??$_Uninit_copy@PAUtagLOTTERY@@PAU1@V?$allocator@UtagLOTTERY@@@std@@@std@@YAPAUtagLOTTERY@@PAU1@00AAV?$allocator@UtagLOTTERY@@@0@U_Nonscalar_ptr_iterator_tag@0@@Z
_TEXT	SEGMENT PARA USE32 PUBLIC 'CODE'
_TEXT	ENDS
;	COMDAT ??$_Ptr_cat@UtagTSKILLDATA@@@std@@YA?AU_Scalar_ptr_iterator_tag@0@PAPAUtagTSKILLDATA@@0@Z
_TEXT	SEGMENT PARA USE32 PUBLIC 'CODE'
_TEXT	ENDS
;	COMDAT ??$_Destroy_range@PAUtagTSKILLDATA@@V?$allocator@PAUtagTSKILLDATA@@@std@@@std@@YAXPAPAUtagTSKILLDATA@@0AAV?$allocator@PAUtagTSKILLDATA@@@0@U_Scalar_ptr_iterator_tag@0@@Z
_TEXT	SEGMENT PARA USE32 PUBLIC 'CODE'
_TEXT	ENDS
;	COMDAT ??$_Construct@UtagTCASHITMSALE@@U1@@std@@YAXPAUtagTCASHITMSALE@@ABU1@@Z
_TEXT	SEGMENT PARA USE32 PUBLIC 'CODE'
_TEXT	ENDS
;	COMDAT ??$_Destroy@UtagTCASHITMSALE@@@std@@YAXPAUtagTCASHITMSALE@@@Z
_TEXT	SEGMENT PARA USE32 PUBLIC 'CODE'
_TEXT	ENDS
;	COMDAT ??$_Construct@UtagMONREGEN@@U1@@std@@YAXPAUtagMONREGEN@@ABU1@@Z
_TEXT	SEGMENT PARA USE32 PUBLIC 'CODE'
_TEXT	ENDS
;	COMDAT ??$_Destroy@UtagMONREGEN@@@std@@YAXPAUtagMONREGEN@@@Z
_TEXT	SEGMENT PARA USE32 PUBLIC 'CODE'
_TEXT	ENDS
;	COMDAT ??$_Construct@UtagLOTTERY@@U1@@std@@YAXPAUtagLOTTERY@@ABU1@@Z
_TEXT	SEGMENT PARA USE32 PUBLIC 'CODE'
_TEXT	ENDS
;	COMDAT ??$_Destroy@UtagLOTTERY@@@std@@YAXPAUtagLOTTERY@@@Z
_TEXT	SEGMENT PARA USE32 PUBLIC 'CODE'
_TEXT	ENDS
;	COMDAT ??2@YAPAXIPAX@Z
_TEXT	SEGMENT PARA USE32 PUBLIC 'CODE'
_TEXT	ENDS
;	COMDAT ?_Ptr_cat@std@@YA?AU_Scalar_ptr_iterator_tag@1@PAG0@Z
_TEXT	SEGMENT PARA USE32 PUBLIC 'CODE'
_TEXT	ENDS
;	COMDAT ?_Psave@?$_Facetptr@V?$ctype@G@std@@@std@@2PBVfacet@locale@2@B
_DATA	SEGMENT DWORD USE32 PUBLIC 'DATA'
_DATA	ENDS
;	COMDAT ?_Psave@?$_Facetptr@V?$ctype@D@std@@@std@@2PBVfacet@locale@2@B
_DATA	SEGMENT DWORD USE32 PUBLIC 'DATA'
_DATA	ENDS
;	COMDAT ?Unlock@CComCriticalSection@ATL@@QAEJXZ
_TEXT	SEGMENT PARA USE32 PUBLIC 'CODE'
_TEXT	ENDS
;	COMDAT ??$swap@D@std@@YAXAAD0@Z
_TEXT	SEGMENT PARA USE32 PUBLIC 'CODE'
_TEXT	ENDS
;	COMDAT __TI3?AVout_of_range@std@@
xdata$x	SEGMENT DWORD USE32 PUBLIC 'CONST'
xdata$x	ENDS
;	COMDAT ??1out_of_range@std@@UAE@XZ
_TEXT	SEGMENT PARA USE32 PUBLIC 'CODE'
_TEXT	ENDS
;	COMDAT ??_7out_of_range@std@@6B@
CONST	SEGMENT DWORD USE32 PUBLIC 'CONST'
CONST	ENDS
;	COMDAT ??_Gout_of_range@std@@UAEPAXI@Z
_TEXT	SEGMENT PARA USE32 PUBLIC 'CODE'
_TEXT	ENDS
;	COMDAT ?what@logic_error@std@@UBEPBDXZ
_TEXT	SEGMENT PARA USE32 PUBLIC 'CODE'
_TEXT	ENDS
;	COMDAT ?c_str@?$basic_string@DU?$char_traits@D@std@@V?$allocator@D@2@@std@@QBEPBDXZ
_TEXT	SEGMENT PARA USE32 PUBLIC 'CODE'
_TEXT	ENDS
;	COMDAT ?_Myptr@?$basic_string@DU?$char_traits@D@std@@V?$allocator@D@2@@std@@QBEPBDXZ
_TEXT	SEGMENT PARA USE32 PUBLIC 'CODE'
_TEXT	ENDS
;	COMDAT ??1logic_error@std@@UAE@XZ
_TEXT	SEGMENT PARA USE32 PUBLIC 'CODE'
_TEXT	ENDS
;	COMDAT ??_7logic_error@std@@6B@
CONST	SEGMENT DWORD USE32 PUBLIC 'CONST'
CONST	ENDS
;	COMDAT ??_Glogic_error@std@@UAEPAXI@Z
_TEXT	SEGMENT PARA USE32 PUBLIC 'CODE'
_TEXT	ENDS
;	COMDAT __CTA3?AVout_of_range@std@@
xdata$x	SEGMENT DWORD USE32 PUBLIC 'CONST'
xdata$x	ENDS
;	COMDAT __CT??_R0?AVout_of_range@std@@@8??0out_of_range@std@@QAE@ABV01@@Z40
xdata$x	SEGMENT DWORD USE32 PUBLIC 'CONST'
xdata$x	ENDS
;	COMDAT ??_R0?AVout_of_range@std@@@8
_DATA	SEGMENT DWORD USE32 PUBLIC 'DATA'
_DATA	ENDS
;	COMDAT ??0out_of_range@std@@QAE@ABV01@@Z
_TEXT	SEGMENT PARA USE32 PUBLIC 'CODE'
_TEXT	ENDS
;	COMDAT ??0logic_error@std@@QAE@ABV01@@Z
_TEXT	SEGMENT PARA USE32 PUBLIC 'CODE'
_TEXT	ENDS
;	COMDAT ??0?$basic_string@DU?$char_traits@D@std@@V?$allocator@D@2@@std@@QAE@ABV01@@Z
_TEXT	SEGMENT PARA USE32 PUBLIC 'CODE'
_TEXT	ENDS
;	COMDAT ??0?$_String_val@DV?$allocator@D@std@@@std@@IAE@V?$allocator@D@1@@Z
_TEXT	SEGMENT PARA USE32 PUBLIC 'CODE'
_TEXT	ENDS
;	COMDAT ??0?$allocator@D@std@@QAE@ABV01@@Z
_TEXT	SEGMENT PARA USE32 PUBLIC 'CODE'
_TEXT	ENDS
;	COMDAT ?_Tidy@?$basic_string@DU?$char_traits@D@std@@V?$allocator@D@2@@std@@IAEX_NI@Z
_TEXT	SEGMENT PARA USE32 PUBLIC 'CODE'
_TEXT	ENDS
;	COMDAT ?copy@?$char_traits@D@std@@SAPADPADPBDI@Z
_TEXT	SEGMENT PARA USE32 PUBLIC 'CODE'
_TEXT	ENDS
;	COMDAT ?deallocate@?$allocator@D@std@@QAEXPADI@Z
_TEXT	SEGMENT PARA USE32 PUBLIC 'CODE'
_TEXT	ENDS
;	COMDAT ?_Eos@?$basic_string@DU?$char_traits@D@std@@V?$allocator@D@2@@std@@IAEXI@Z
_TEXT	SEGMENT PARA USE32 PUBLIC 'CODE'
_TEXT	ENDS
;	COMDAT ?assign@?$char_traits@D@std@@SAXAADABD@Z
_TEXT	SEGMENT PARA USE32 PUBLIC 'CODE'
_TEXT	ENDS
;	COMDAT ?_Myptr@?$basic_string@DU?$char_traits@D@std@@V?$allocator@D@2@@std@@QAEPADXZ
_TEXT	SEGMENT PARA USE32 PUBLIC 'CODE'
_TEXT	ENDS
;	COMDAT ?assign@?$basic_string@DU?$char_traits@D@std@@V?$allocator@D@2@@std@@QAEAAV12@ABV12@II@Z
_TEXT	SEGMENT PARA USE32 PUBLIC 'CODE'
_TEXT	ENDS
;	COMDAT ?size@?$basic_string@DU?$char_traits@D@std@@V?$allocator@D@2@@std@@QBEIXZ
_TEXT	SEGMENT PARA USE32 PUBLIC 'CODE'
_TEXT	ENDS
;	COMDAT ?erase@?$basic_string@DU?$char_traits@D@std@@V?$allocator@D@2@@std@@QAEAAV12@II@Z
_TEXT	SEGMENT PARA USE32 PUBLIC 'CODE'
_TEXT	ENDS
;	COMDAT ?move@?$char_traits@D@std@@SAPADPADPBDI@Z
_TEXT	SEGMENT PARA USE32 PUBLIC 'CODE'
_TEXT	ENDS
;	COMDAT ?_Grow@?$basic_string@DU?$char_traits@D@std@@V?$allocator@D@2@@std@@IAE_NI_N@Z
_TEXT	SEGMENT PARA USE32 PUBLIC 'CODE'
_TEXT	ENDS
;	COMDAT ?max_size@?$basic_string@DU?$char_traits@D@std@@V?$allocator@D@2@@std@@QBEIXZ
_TEXT	SEGMENT PARA USE32 PUBLIC 'CODE'
_TEXT	ENDS
;	COMDAT ?max_size@?$allocator@D@std@@QBEIXZ
_TEXT	SEGMENT PARA USE32 PUBLIC 'CODE'
_TEXT	ENDS
;	COMDAT ?_Copy@?$basic_string@DU?$char_traits@D@std@@V?$allocator@D@2@@std@@IAEXII@Z
_TEXT	SEGMENT PARA USE32 PUBLIC 'CODE'
_TEXT	ENDS
;	COMDAT ?allocate@?$allocator@D@std@@QAEPADI@Z
_TEXT	SEGMENT PARA USE32 PUBLIC 'CODE'
_TEXT	ENDS
;	COMDAT ??$_Allocate@D@std@@YAPADIPAD@Z
_TEXT	SEGMENT PARA USE32 PUBLIC 'CODE'
_TEXT	ENDS
;	COMDAT ?npos@?$basic_string@DU?$char_traits@D@std@@V?$allocator@D@2@@std@@2IB
CONST	SEGMENT DWORD USE32 PUBLIC 'CONST'
CONST	ENDS
;	COMDAT __CT??_R0?AVlogic_error@std@@@8??0logic_error@std@@QAE@ABV01@@Z40
xdata$x	SEGMENT DWORD USE32 PUBLIC 'CONST'
xdata$x	ENDS
;	COMDAT ??_R0?AVlogic_error@std@@@8
_DATA	SEGMENT DWORD USE32 PUBLIC 'DATA'
_DATA	ENDS
;	COMDAT __CT??_R0?AVexception@@@8??0exception@@QAE@ABV0@@Z12
xdata$x	SEGMENT DWORD USE32 PUBLIC 'CONST'
xdata$x	ENDS
;	COMDAT ??_R0?AVexception@@@8
_DATA	SEGMENT DWORD USE32 PUBLIC 'DATA'
_DATA	ENDS
;	COMDAT ??_C@_0BM@PAPJHAGI@invalid?5map?1set?$DMT?$DO?5iterator?$AA@
CONST	SEGMENT DWORD USE32 PUBLIC 'CONST'
CONST	ENDS
;	COMDAT ??0out_of_range@std@@QAE@ABV?$basic_string@DU?$char_traits@D@std@@V?$allocator@D@2@@1@@Z
_TEXT	SEGMENT PARA USE32 PUBLIC 'CODE'
_TEXT	ENDS
;	COMDAT ??0logic_error@std@@QAE@ABV?$basic_string@DU?$char_traits@D@std@@V?$allocator@D@2@@1@@Z
_TEXT	SEGMENT PARA USE32 PUBLIC 'CODE'
_TEXT	ENDS
;	COMDAT __TI3?AVlength_error@std@@
xdata$x	SEGMENT DWORD USE32 PUBLIC 'CONST'
xdata$x	ENDS
;	COMDAT ??1length_error@std@@UAE@XZ
_TEXT	SEGMENT PARA USE32 PUBLIC 'CODE'
_TEXT	ENDS
;	COMDAT ??_7length_error@std@@6B@
CONST	SEGMENT DWORD USE32 PUBLIC 'CONST'
CONST	ENDS
;	COMDAT ??_Glength_error@std@@UAEPAXI@Z
_TEXT	SEGMENT PARA USE32 PUBLIC 'CODE'
_TEXT	ENDS
;	COMDAT __CTA3?AVlength_error@std@@
xdata$x	SEGMENT DWORD USE32 PUBLIC 'CONST'
xdata$x	ENDS
;	COMDAT __CT??_R0?AVlength_error@std@@@8??0length_error@std@@QAE@ABV01@@Z40
xdata$x	SEGMENT DWORD USE32 PUBLIC 'CONST'
xdata$x	ENDS
;	COMDAT ??_R0?AVlength_error@std@@@8
_DATA	SEGMENT DWORD USE32 PUBLIC 'DATA'
_DATA	ENDS
;	COMDAT ??0length_error@std@@QAE@ABV01@@Z
_TEXT	SEGMENT PARA USE32 PUBLIC 'CODE'
_TEXT	ENDS
;	COMDAT ??1?$basic_string@DU?$char_traits@D@std@@V?$allocator@D@2@@std@@QAE@XZ
_TEXT	SEGMENT PARA USE32 PUBLIC 'CODE'
_TEXT	ENDS
;	COMDAT ??_C@_0BD@OLBABOEK@vector?$DMT?$DO?5too?5long?$AA@
CONST	SEGMENT DWORD USE32 PUBLIC 'CONST'
CONST	ENDS
;	COMDAT ??0?$basic_string@DU?$char_traits@D@std@@V?$allocator@D@2@@std@@QAE@PBD@Z
_TEXT	SEGMENT PARA USE32 PUBLIC 'CODE'
_TEXT	ENDS
;	COMDAT ??0?$allocator@D@std@@QAE@XZ
_TEXT	SEGMENT PARA USE32 PUBLIC 'CODE'
_TEXT	ENDS
;	COMDAT ?assign@?$basic_string@DU?$char_traits@D@std@@V?$allocator@D@2@@std@@QAEAAV12@PBD@Z
_TEXT	SEGMENT PARA USE32 PUBLIC 'CODE'
_TEXT	ENDS
;	COMDAT ?assign@?$basic_string@DU?$char_traits@D@std@@V?$allocator@D@2@@std@@QAEAAV12@PBDI@Z
_TEXT	SEGMENT PARA USE32 PUBLIC 'CODE'
_TEXT	ENDS
;	COMDAT ?_Inside@?$basic_string@DU?$char_traits@D@std@@V?$allocator@D@2@@std@@IAE_NPBD@Z
_TEXT	SEGMENT PARA USE32 PUBLIC 'CODE'
_TEXT	ENDS
;	COMDAT ?length@?$char_traits@D@std@@SAIPBD@Z
_TEXT	SEGMENT PARA USE32 PUBLIC 'CODE'
_TEXT	ENDS
;	COMDAT ??0length_error@std@@QAE@ABV?$basic_string@DU?$char_traits@D@std@@V?$allocator@D@2@@1@@Z
_TEXT	SEGMENT PARA USE32 PUBLIC 'CODE'
_TEXT	ENDS
;	COMDAT ?pow@@YAMMH@Z
_TEXT	SEGMENT PARA USE32 PUBLIC 'CODE'
_TEXT	ENDS
;	COMDAT ??$_Pow_int@M@@YAMMH@Z
_TEXT	SEGMENT PARA USE32 PUBLIC 'CODE'
_TEXT	ENDS
sxdata	SEGMENT DWORD USE32 'SXDATA'
sxdata	ENDS
FLAT	GROUP _DATA, CONST, _BSS
	ASSUME	CS: FLAT, DS: FLAT, SS: FLAT
endif

INCLUDELIB LIBCMT
INCLUDELIB OLDNAMES

PUBLIC	?IsPositive@CTSkillTemp@@QAEEXZ			; CTSkillTemp::IsPositive
; Function compile flags: /Ogty
; File c:\users\pierr\desktop\4story - oldschool\sources\tserver\tmapsvr\tskilltemp.cpp
;	COMDAT ?IsPositive@CTSkillTemp@@QAEEXZ
_TEXT	SEGMENT
?IsPositive@CTSkillTemp@@QAEEXZ PROC NEAR		; CTSkillTemp::IsPositive, COMDAT
; _this$ = ecx

; 28   : 	return m_bPositive == SPT_POSITIVE;

  00000	80 79 02 01	 cmp	 BYTE PTR [ecx+2], 1
  00004	0f 94 c0	 sete	 al

; 29   : }

  00007	c3		 ret	 0
?IsPositive@CTSkillTemp@@QAEEXZ ENDP			; CTSkillTemp::IsPositive
_TEXT	ENDS
PUBLIC	?IsNegative@CTSkillTemp@@QAEEXZ			; CTSkillTemp::IsNegative
; Function compile flags: /Ogty
;	COMDAT ?IsNegative@CTSkillTemp@@QAEEXZ
_TEXT	SEGMENT
?IsNegative@CTSkillTemp@@QAEEXZ PROC NEAR		; CTSkillTemp::IsNegative, COMDAT
; _this$ = ecx

; 33   : 	return !(m_bPositive % 2);

  00000	0f b6 41 02	 movzx	 eax, BYTE PTR [ecx+2]
  00004	25 01 00 00 80	 and	 eax, -2147483647	; 80000001H
  00009	79 05		 jns	 SHORT $L153920
  0000b	48		 dec	 eax
  0000c	83 c8 fe	 or	 eax, -2			; fffffffeH
  0000f	40		 inc	 eax
$L153920:
  00010	f7 d8		 neg	 eax
  00012	1a c0		 sbb	 al, al
  00014	fe c0		 inc	 al

; 34   : }

  00016	c3		 ret	 0
?IsNegative@CTSkillTemp@@QAEEXZ ENDP			; CTSkillTemp::IsNegative
_TEXT	ENDS
PUBLIC	?GetID@CTSkillTemp@@QAEGXZ			; CTSkillTemp::GetID
; Function compile flags: /Ogty
;	COMDAT ?GetID@CTSkillTemp@@QAEGXZ
_TEXT	SEGMENT
?GetID@CTSkillTemp@@QAEGXZ PROC NEAR			; CTSkillTemp::GetID, COMDAT
; _this$ = ecx

; 224  : 	return m_wID;

  00000	66 8b 01	 mov	 ax, WORD PTR [ecx]

; 225  : }

  00003	c3		 ret	 0
?GetID@CTSkillTemp@@QAEGXZ ENDP				; CTSkillTemp::GetID
_TEXT	ENDS
PUBLIC	?IsHideBuff@CTSkillTemp@@QAEEXZ			; CTSkillTemp::IsHideBuff
; Function compile flags: /Ogty
;	COMDAT ?IsHideBuff@CTSkillTemp@@QAEEXZ
_TEXT	SEGMENT
?IsHideBuff@CTSkillTemp@@QAEEXZ PROC NEAR		; CTSkillTemp::IsHideBuff, COMDAT
; _this$ = ecx

; 297  : 	return m_bIsHideSkill;

  00000	8a 41 72	 mov	 al, BYTE PTR [ecx+114]

; 298  : }

  00003	c3		 ret	 0
?IsHideBuff@CTSkillTemp@@QAEEXZ ENDP			; CTSkillTemp::IsHideBuff
_TEXT	ENDS
PUBLIC	__real@4f800000
PUBLIC	?GetPrice@CTSkillTemp@@QAEKK@Z			; CTSkillTemp::GetPrice
EXTRN	__ftol2:NEAR
EXTRN	__fltused:NEAR
;	COMDAT __real@4f800000
CONST	SEGMENT
__real@4f800000 DD 04f800000r			; 4.29497e+009
; Function compile flags: /Ogty
CONST	ENDS
;	COMDAT ?GetPrice@CTSkillTemp@@QAEKK@Z
_TEXT	SEGMENT
tv131 = 8						; size = 4
_dwMoney$ = 8						; size = 4
?GetPrice@CTSkillTemp@@QAEKK@Z PROC NEAR		; CTSkillTemp::GetPrice, COMDAT
; _this$ = ecx

; 402  : 	return DWORD(dwMoney * m_fPrice);

  00000	8b 44 24 04	 mov	 eax, DWORD PTR _dwMoney$[esp-4]
  00004	db 44 24 04	 fild	 DWORD PTR _dwMoney$[esp-4]
  00008	85 c0		 test	 eax, eax
  0000a	7d 06		 jge	 SHORT $L153931
  0000c	d8 05 00 00 00
	00		 fadd	 DWORD PTR __real@4f800000
$L153931:
  00012	d8 49 60	 fmul	 DWORD PTR [ecx+96]
  00015	e8 00 00 00 00	 call	 __ftol2

; 403  : }

  0001a	c2 04 00	 ret	 4
?GetPrice@CTSkillTemp@@QAEKK@Z ENDP			; CTSkillTemp::GetPrice
_TEXT	ENDS
PUBLIC	?size@?$vector@PAUtagTSKILLDATA@@V?$allocator@PAUtagTSKILLDATA@@@std@@@std@@QBEIXZ ; std::vector<tagTSKILLDATA *,std::allocator<tagTSKILLDATA *> >::size
; Function compile flags: /Ogty
; File c:\program files (x86)\microsoft visual studio .net 2003\vc7\include\vector
;	COMDAT ?size@?$vector@PAUtagTSKILLDATA@@V?$allocator@PAUtagTSKILLDATA@@@std@@@std@@QBEIXZ
_TEXT	SEGMENT
?size@?$vector@PAUtagTSKILLDATA@@V?$allocator@PAUtagTSKILLDATA@@@std@@@std@@QBEIXZ PROC NEAR ; std::vector<tagTSKILLDATA *,std::allocator<tagTSKILLDATA *> >::size, COMDAT
; _this$ = ecx

; 516  : 		return (_Myfirst == 0 ? 0 : _Mylast - _Myfirst);

  00000	8b 51 04	 mov	 edx, DWORD PTR [ecx+4]
  00003	85 d2		 test	 edx, edx
  00005	75 03		 jne	 SHORT $L153938
  00007	33 c0		 xor	 eax, eax

; 517  : 		}

  00009	c3		 ret	 0
$L153938:

; 516  : 		return (_Myfirst == 0 ? 0 : _Mylast - _Myfirst);

  0000a	8b 41 08	 mov	 eax, DWORD PTR [ecx+8]
  0000d	2b c2		 sub	 eax, edx
  0000f	c1 f8 02	 sar	 eax, 2

; 517  : 		}

  00012	c3		 ret	 0
?size@?$vector@PAUtagTSKILLDATA@@V?$allocator@PAUtagTSKILLDATA@@@std@@@std@@QBEIXZ ENDP ; std::vector<tagTSKILLDATA *,std::allocator<tagTSKILLDATA *> >::size
_TEXT	ENDS
PUBLIC	?empty@?$vector@PAUtagTSKILLDATA@@V?$allocator@PAUtagTSKILLDATA@@@std@@@std@@QBE_NXZ ; std::vector<tagTSKILLDATA *,std::allocator<tagTSKILLDATA *> >::empty
; Function compile flags: /Ogty
;	COMDAT ?empty@?$vector@PAUtagTSKILLDATA@@V?$allocator@PAUtagTSKILLDATA@@@std@@@std@@QBE_NXZ
_TEXT	SEGMENT
?empty@?$vector@PAUtagTSKILLDATA@@V?$allocator@PAUtagTSKILLDATA@@@std@@@std@@QBE_NXZ PROC NEAR ; std::vector<tagTSKILLDATA *,std::allocator<tagTSKILLDATA *> >::empty, COMDAT
; _this$ = ecx

; 526  : 		return (size() == 0);

  00000	8b 51 04	 mov	 edx, DWORD PTR [ecx+4]
  00003	85 d2		 test	 edx, edx
  00005	75 0c		 jne	 SHORT $L153948
  00007	33 c0		 xor	 eax, eax
  00009	33 c9		 xor	 ecx, ecx
  0000b	85 c0		 test	 eax, eax
  0000d	0f 94 c1	 sete	 cl
  00010	8a c1		 mov	 al, cl

; 527  : 		}

  00012	c3		 ret	 0

; 526  : 		return (size() == 0);

$L153948:
  00013	8b 41 08	 mov	 eax, DWORD PTR [ecx+8]
  00016	2b c2		 sub	 eax, edx
  00018	c1 f8 02	 sar	 eax, 2
  0001b	33 c9		 xor	 ecx, ecx
  0001d	85 c0		 test	 eax, eax
  0001f	0f 94 c1	 sete	 cl
  00022	8a c1		 mov	 al, cl

; 527  : 		}

  00024	c3		 ret	 0
?empty@?$vector@PAUtagTSKILLDATA@@V?$allocator@PAUtagTSKILLDATA@@@std@@@std@@QBE_NXZ ENDP ; std::vector<tagTSKILLDATA *,std::allocator<tagTSKILLDATA *> >::empty
_TEXT	ENDS
PUBLIC	??R?$less@E@std@@QBE_NABE0@Z			; std::less<unsigned char>::operator()
; Function compile flags: /Ogty
; File c:\program files (x86)\microsoft visual studio .net 2003\vc7\include\functional
;	COMDAT ??R?$less@E@std@@QBE_NABE0@Z
_TEXT	SEGMENT
__Left$ = 8						; size = 4
__Right$ = 12						; size = 4
??R?$less@E@std@@QBE_NABE0@Z PROC NEAR			; std::less<unsigned char>::operator(), COMDAT
; _this$ = ecx

; 139  : 		return (_Left < _Right);

  00000	8b 44 24 04	 mov	 eax, DWORD PTR __Left$[esp-4]
  00004	8a 08		 mov	 cl, BYTE PTR [eax]
  00006	8b 54 24 08	 mov	 edx, DWORD PTR __Right$[esp-4]
  0000a	33 c0		 xor	 eax, eax
  0000c	3a 0a		 cmp	 cl, BYTE PTR [edx]
  0000e	1b c0		 sbb	 eax, eax
  00010	f7 d8		 neg	 eax

; 140  : 		}

  00012	c2 08 00	 ret	 8
??R?$less@E@std@@QBE_NABE0@Z ENDP			; std::less<unsigned char>::operator()
_TEXT	ENDS
PUBLIC	??0?$allocator@PAUtagTSKILLDATA@@@std@@QAE@XZ	; std::allocator<tagTSKILLDATA *>::allocator<tagTSKILLDATA *>
; Function compile flags: /Ogty
; File c:\program files (x86)\microsoft visual studio .net 2003\vc7\include\xmemory
;	COMDAT ??0?$allocator@PAUtagTSKILLDATA@@@std@@QAE@XZ
_TEXT	SEGMENT
??0?$allocator@PAUtagTSKILLDATA@@@std@@QAE@XZ PROC NEAR	; std::allocator<tagTSKILLDATA *>::allocator<tagTSKILLDATA *>, COMDAT
; _this$ = ecx

; 111  : 	allocator()

  00000	8b c1		 mov	 eax, ecx

; 112  : 		{	// construct default allocator (do nothing)
; 113  : 		}

  00002	c3		 ret	 0
??0?$allocator@PAUtagTSKILLDATA@@@std@@QAE@XZ ENDP	; std::allocator<tagTSKILLDATA *>::allocator<tagTSKILLDATA *>
_TEXT	ENDS
PUBLIC	??0?$allocator@U?$pair@$$CBEPAUtagSKILLPOINT@@@std@@@std@@QAE@XZ ; std::allocator<std::pair<unsigned char const ,tagSKILLPOINT *> >::allocator<std::pair<unsigned char const ,tagSKILLPOINT *> >
; Function compile flags: /Ogty
;	COMDAT ??0?$allocator@U?$pair@$$CBEPAUtagSKILLPOINT@@@std@@@std@@QAE@XZ
_TEXT	SEGMENT
??0?$allocator@U?$pair@$$CBEPAUtagSKILLPOINT@@@std@@@std@@QAE@XZ PROC NEAR ; std::allocator<std::pair<unsigned char const ,tagSKILLPOINT *> >::allocator<std::pair<unsigned char const ,tagSKILLPOINT *> >, COMDAT
; _this$ = ecx

; 111  : 	allocator()

  00000	8b c1		 mov	 eax, ecx

; 112  : 		{	// construct default allocator (do nothing)
; 113  : 		}

  00002	c3		 ret	 0
??0?$allocator@U?$pair@$$CBEPAUtagSKILLPOINT@@@std@@@std@@QAE@XZ ENDP ; std::allocator<std::pair<unsigned char const ,tagSKILLPOINT *> >::allocator<std::pair<unsigned char const ,tagSKILLPOINT *> >
_TEXT	ENDS
PUBLIC	??0const_iterator@?$_Tree@V?$_Tmap_traits@EPAUtagSKILLPOINT@@U?$less@E@std@@V?$allocator@U?$pair@$$CBEPAUtagSKILLPOINT@@@std@@@3@$0A@@std@@@std@@QAE@XZ ; std::_Tree<std::_Tmap_traits<unsigned char,tagSKILLPOINT *,std::less<unsigned char>,std::allocator<std::pair<unsigned char const ,tagSKILLPOINT *> >,0> >::const_iterator::const_iterator
; Function compile flags: /Ogty
; File c:\program files (x86)\microsoft visual studio .net 2003\vc7\include\xtree
;	COMDAT ??0const_iterator@?$_Tree@V?$_Tmap_traits@EPAUtagSKILLPOINT@@U?$less@E@std@@V?$allocator@U?$pair@$$CBEPAUtagSKILLPOINT@@@std@@@3@$0A@@std@@@std@@QAE@XZ
_TEXT	SEGMENT
??0const_iterator@?$_Tree@V?$_Tmap_traits@EPAUtagSKILLPOINT@@U?$less@E@std@@V?$allocator@U?$pair@$$CBEPAUtagSKILLPOINT@@@std@@@3@$0A@@std@@@std@@QAE@XZ PROC NEAR ; std::_Tree<std::_Tmap_traits<unsigned char,tagSKILLPOINT *,std::less<unsigned char>,std::allocator<std::pair<unsigned char const ,tagSKILLPOINT *> >,0> >::const_iterator::const_iterator, COMDAT
; _this$ = ecx

; 193  : 			{	// construct with null node pointer

  00000	8b c1		 mov	 eax, ecx
  00002	c7 00 00 00 00
	00		 mov	 DWORD PTR [eax], 0

; 194  : 			}

  00008	c3		 ret	 0
??0const_iterator@?$_Tree@V?$_Tmap_traits@EPAUtagSKILLPOINT@@U?$less@E@std@@V?$allocator@U?$pair@$$CBEPAUtagSKILLPOINT@@@std@@@3@$0A@@std@@@std@@QAE@XZ ENDP ; std::_Tree<std::_Tmap_traits<unsigned char,tagSKILLPOINT *,std::less<unsigned char>,std::allocator<std::pair<unsigned char const ,tagSKILLPOINT *> >,0> >::const_iterator::const_iterator
_TEXT	ENDS
PUBLIC	??8const_iterator@?$_Tree@V?$_Tmap_traits@EPAUtagSKILLPOINT@@U?$less@E@std@@V?$allocator@U?$pair@$$CBEPAUtagSKILLPOINT@@@std@@@3@$0A@@std@@@std@@QBE_NABV012@@Z ; std::_Tree<std::_Tmap_traits<unsigned char,tagSKILLPOINT *,std::less<unsigned char>,std::allocator<std::pair<unsigned char const ,tagSKILLPOINT *> >,0> >::const_iterator::operator==
; Function compile flags: /Ogty
;	COMDAT ??8const_iterator@?$_Tree@V?$_Tmap_traits@EPAUtagSKILLPOINT@@U?$less@E@std@@V?$allocator@U?$pair@$$CBEPAUtagSKILLPOINT@@@std@@@3@$0A@@std@@@std@@QBE_NABV012@@Z
_TEXT	SEGMENT
__Right$ = 8						; size = 4
??8const_iterator@?$_Tree@V?$_Tmap_traits@EPAUtagSKILLPOINT@@U?$less@E@std@@V?$allocator@U?$pair@$$CBEPAUtagSKILLPOINT@@@std@@@3@$0A@@std@@@std@@QBE_NABV012@@Z PROC NEAR ; std::_Tree<std::_Tmap_traits<unsigned char,tagSKILLPOINT *,std::less<unsigned char>,std::allocator<std::pair<unsigned char const ,tagSKILLPOINT *> >,0> >::const_iterator::operator==, COMDAT
; _this$ = ecx

; 241  : 			return (_Ptr == _Right._Ptr);

  00000	8b 01		 mov	 eax, DWORD PTR [ecx]
  00002	8b 4c 24 04	 mov	 ecx, DWORD PTR __Right$[esp-4]
  00006	2b 01		 sub	 eax, DWORD PTR [ecx]
  00008	f7 d8		 neg	 eax
  0000a	1b c0		 sbb	 eax, eax
  0000c	40		 inc	 eax

; 242  : 			}

  0000d	c2 04 00	 ret	 4
??8const_iterator@?$_Tree@V?$_Tmap_traits@EPAUtagSKILLPOINT@@U?$less@E@std@@V?$allocator@U?$pair@$$CBEPAUtagSKILLPOINT@@@std@@@3@$0A@@std@@@std@@QBE_NABV012@@Z ENDP ; std::_Tree<std::_Tmap_traits<unsigned char,tagSKILLPOINT *,std::less<unsigned char>,std::allocator<std::pair<unsigned char const ,tagSKILLPOINT *> >,0> >::const_iterator::operator==
_TEXT	ENDS
PUBLIC	?_Mynode@const_iterator@?$_Tree@V?$_Tmap_traits@EPAUtagSKILLPOINT@@U?$less@E@std@@V?$allocator@U?$pair@$$CBEPAUtagSKILLPOINT@@@std@@@3@$0A@@std@@@std@@QBEPAU_Node@?$_Tree_nod@V?$_Tmap_traits@EPAUtagSKILLPOINT@@U?$less@E@std@@V?$allocator@U?$pair@$$CBEPAUtagSKILLPOINT@@@std@@@3@$0A@@std@@@3@XZ ; std::_Tree<std::_Tmap_traits<unsigned char,tagSKILLPOINT *,std::less<unsigned char>,std::allocator<std::pair<unsigned char const ,tagSKILLPOINT *> >,0> >::const_iterator::_Mynode
; Function compile flags: /Ogty
;	COMDAT ?_Mynode@const_iterator@?$_Tree@V?$_Tmap_traits@EPAUtagSKILLPOINT@@U?$less@E@std@@V?$allocator@U?$pair@$$CBEPAUtagSKILLPOINT@@@std@@@3@$0A@@std@@@std@@QBEPAU_Node@?$_Tree_nod@V?$_Tmap_traits@EPAUtagSKILLPOINT@@U?$less@E@std@@V?$allocator@U?$pair@$$CBEPAUtagSKILLPOINT@@@std@@@3@$0A@@std@@@3@XZ
_TEXT	SEGMENT
?_Mynode@const_iterator@?$_Tree@V?$_Tmap_traits@EPAUtagSKILLPOINT@@U?$less@E@std@@V?$allocator@U?$pair@$$CBEPAUtagSKILLPOINT@@@std@@@3@$0A@@std@@@std@@QBEPAU_Node@?$_Tree_nod@V?$_Tmap_traits@EPAUtagSKILLPOINT@@U?$less@E@std@@V?$allocator@U?$pair@$$CBEPAUtagSKILLPOINT@@@std@@@3@$0A@@std@@@3@XZ PROC NEAR ; std::_Tree<std::_Tmap_traits<unsigned char,tagSKILLPOINT *,std::less<unsigned char>,std::allocator<std::pair<unsigned char const ,tagSKILLPOINT *> >,0> >::const_iterator::_Mynode, COMDAT
; _this$ = ecx

; 284  : 			return (_Ptr);

  00000	8b 01		 mov	 eax, DWORD PTR [ecx]

; 285  : 			}

  00002	c3		 ret	 0
?_Mynode@const_iterator@?$_Tree@V?$_Tmap_traits@EPAUtagSKILLPOINT@@U?$less@E@std@@V?$allocator@U?$pair@$$CBEPAUtagSKILLPOINT@@@std@@@3@$0A@@std@@@std@@QBEPAU_Node@?$_Tree_nod@V?$_Tmap_traits@EPAUtagSKILLPOINT@@U?$less@E@std@@V?$allocator@U?$pair@$$CBEPAUtagSKILLPOINT@@@std@@@3@$0A@@std@@@3@XZ ENDP ; std::_Tree<std::_Tmap_traits<unsigned char,tagSKILLPOINT *,std::less<unsigned char>,std::allocator<std::pair<unsigned char const ,tagSKILLPOINT *> >,0> >::const_iterator::_Mynode
_TEXT	ENDS
PUBLIC	??0?$allocator@PAUtagTSKILLDATA@@@std@@QAE@ABV01@@Z ; std::allocator<tagTSKILLDATA *>::allocator<tagTSKILLDATA *>
; Function compile flags: /Ogty
; File c:\program files (x86)\microsoft visual studio .net 2003\vc7\include\xmemory
;	COMDAT ??0?$allocator@PAUtagTSKILLDATA@@@std@@QAE@ABV01@@Z
_TEXT	SEGMENT
___formal$ = 8						; size = 4
??0?$allocator@PAUtagTSKILLDATA@@@std@@QAE@ABV01@@Z PROC NEAR ; std::allocator<tagTSKILLDATA *>::allocator<tagTSKILLDATA *>, COMDAT
; _this$ = ecx

; 115  : 	allocator(const allocator<_Ty>&)

  00000	8b c1		 mov	 eax, ecx

; 116  : 		{	// construct by copying (do nothing)
; 117  : 		}

  00002	c2 04 00	 ret	 4
??0?$allocator@PAUtagTSKILLDATA@@@std@@QAE@ABV01@@Z ENDP ; std::allocator<tagTSKILLDATA *>::allocator<tagTSKILLDATA *>
_TEXT	ENDS
PUBLIC	?deallocate@?$allocator@PAUtagTSKILLDATA@@@std@@QAEXPAPAUtagTSKILLDATA@@I@Z ; std::allocator<tagTSKILLDATA *>::deallocate
EXTRN	??3@YAXPAX@Z:NEAR				; operator delete
; Function compile flags: /Ogty
;	COMDAT ?deallocate@?$allocator@PAUtagTSKILLDATA@@@std@@QAEXPAPAUtagTSKILLDATA@@I@Z
_TEXT	SEGMENT
__Ptr$ = 8						; size = 4
___formal$ = 12						; size = 4
?deallocate@?$allocator@PAUtagTSKILLDATA@@@std@@QAEXPAPAUtagTSKILLDATA@@I@Z PROC NEAR ; std::allocator<tagTSKILLDATA *>::deallocate, COMDAT
; _this$ = ecx

; 132  : 		operator delete(_Ptr);

  00000	8b 44 24 04	 mov	 eax, DWORD PTR __Ptr$[esp-4]
  00004	50		 push	 eax
  00005	e8 00 00 00 00	 call	 ??3@YAXPAX@Z		; operator delete
  0000a	59		 pop	 ecx

; 133  : 		}

  0000b	c2 08 00	 ret	 8
?deallocate@?$allocator@PAUtagTSKILLDATA@@@std@@QAEXPAPAUtagTSKILLDATA@@I@Z ENDP ; std::allocator<tagTSKILLDATA *>::deallocate
_TEXT	ENDS
PUBLIC	?_Isnil@?$_Tree@V?$_Tmap_traits@EPAUtagSKILLPOINT@@U?$less@E@std@@V?$allocator@U?$pair@$$CBEPAUtagSKILLPOINT@@@std@@@3@$0A@@std@@@std@@KAAADPAU_Node@?$_Tree_nod@V?$_Tmap_traits@EPAUtagSKILLPOINT@@U?$less@E@std@@V?$allocator@U?$pair@$$CBEPAUtagSKILLPOINT@@@std@@@3@$0A@@std@@@2@@Z ; std::_Tree<std::_Tmap_traits<unsigned char,tagSKILLPOINT *,std::less<unsigned char>,std::allocator<std::pair<unsigned char const ,tagSKILLPOINT *> >,0> >::_Isnil
; Function compile flags: /Ogty
; File c:\program files (x86)\microsoft visual studio .net 2003\vc7\include\xtree
;	COMDAT ?_Isnil@?$_Tree@V?$_Tmap_traits@EPAUtagSKILLPOINT@@U?$less@E@std@@V?$allocator@U?$pair@$$CBEPAUtagSKILLPOINT@@@std@@@3@$0A@@std@@@std@@KAAADPAU_Node@?$_Tree_nod@V?$_Tmap_traits@EPAUtagSKILLPOINT@@U?$less@E@std@@V?$allocator@U?$pair@$$CBEPAUtagSKILLPOINT@@@std@@@3@$0A@@std@@@2@@Z
_TEXT	SEGMENT
__Pnode$ = 8						; size = 4
?_Isnil@?$_Tree@V?$_Tmap_traits@EPAUtagSKILLPOINT@@U?$less@E@std@@V?$allocator@U?$pair@$$CBEPAUtagSKILLPOINT@@@std@@@3@$0A@@std@@@std@@KAAADPAU_Node@?$_Tree_nod@V?$_Tmap_traits@EPAUtagSKILLPOINT@@U?$less@E@std@@V?$allocator@U?$pair@$$CBEPAUtagSKILLPOINT@@@std@@@3@$0A@@std@@@2@@Z PROC NEAR ; std::_Tree<std::_Tmap_traits<unsigned char,tagSKILLPOINT *,std::less<unsigned char>,std::allocator<std::pair<unsigned char const ,tagSKILLPOINT *> >,0> >::_Isnil, COMDAT

; 137  : 		return ((_Charref)(*_Pnode)._Isnil);

  00000	8b 44 24 04	 mov	 eax, DWORD PTR __Pnode$[esp-4]
  00004	83 c0 15	 add	 eax, 21			; 00000015H

; 138  : 		}

  00007	c3		 ret	 0
?_Isnil@?$_Tree@V?$_Tmap_traits@EPAUtagSKILLPOINT@@U?$less@E@std@@V?$allocator@U?$pair@$$CBEPAUtagSKILLPOINT@@@std@@@3@$0A@@std@@@std@@KAAADPAU_Node@?$_Tree_nod@V?$_Tmap_traits@EPAUtagSKILLPOINT@@U?$less@E@std@@V?$allocator@U?$pair@$$CBEPAUtagSKILLPOINT@@@std@@@3@$0A@@std@@@2@@Z ENDP ; std::_Tree<std::_Tmap_traits<unsigned char,tagSKILLPOINT *,std::less<unsigned char>,std::allocator<std::pair<unsigned char const ,tagSKILLPOINT *> >,0> >::_Isnil
_TEXT	ENDS
PUBLIC	?_Left@?$_Tree@V?$_Tmap_traits@EPAUtagSKILLPOINT@@U?$less@E@std@@V?$allocator@U?$pair@$$CBEPAUtagSKILLPOINT@@@std@@@3@$0A@@std@@@std@@KAAAPAU_Node@?$_Tree_nod@V?$_Tmap_traits@EPAUtagSKILLPOINT@@U?$less@E@std@@V?$allocator@U?$pair@$$CBEPAUtagSKILLPOINT@@@std@@@3@$0A@@std@@@2@PAU342@@Z ; std::_Tree<std::_Tmap_traits<unsigned char,tagSKILLPOINT *,std::less<unsigned char>,std::allocator<std::pair<unsigned char const ,tagSKILLPOINT *> >,0> >::_Left
; Function compile flags: /Ogty
;	COMDAT ?_Left@?$_Tree@V?$_Tmap_traits@EPAUtagSKILLPOINT@@U?$less@E@std@@V?$allocator@U?$pair@$$CBEPAUtagSKILLPOINT@@@std@@@3@$0A@@std@@@std@@KAAAPAU_Node@?$_Tree_nod@V?$_Tmap_traits@EPAUtagSKILLPOINT@@U?$less@E@std@@V?$allocator@U?$pair@$$CBEPAUtagSKILLPOINT@@@std@@@3@$0A@@std@@@2@PAU342@@Z
_TEXT	SEGMENT
__Pnode$ = 8						; size = 4
?_Left@?$_Tree@V?$_Tmap_traits@EPAUtagSKILLPOINT@@U?$less@E@std@@V?$allocator@U?$pair@$$CBEPAUtagSKILLPOINT@@@std@@@3@$0A@@std@@@std@@KAAAPAU_Node@?$_Tree_nod@V?$_Tmap_traits@EPAUtagSKILLPOINT@@U?$less@E@std@@V?$allocator@U?$pair@$$CBEPAUtagSKILLPOINT@@@std@@@3@$0A@@std@@@2@PAU342@@Z PROC NEAR ; std::_Tree<std::_Tmap_traits<unsigned char,tagSKILLPOINT *,std::less<unsigned char>,std::allocator<std::pair<unsigned char const ,tagSKILLPOINT *> >,0> >::_Left, COMDAT

; 147  : 		return ((_Nodepref)(*_Pnode)._Left);

  00000	8b 44 24 04	 mov	 eax, DWORD PTR __Pnode$[esp-4]

; 148  : 		}

  00004	c3		 ret	 0
?_Left@?$_Tree@V?$_Tmap_traits@EPAUtagSKILLPOINT@@U?$less@E@std@@V?$allocator@U?$pair@$$CBEPAUtagSKILLPOINT@@@std@@@3@$0A@@std@@@std@@KAAAPAU_Node@?$_Tree_nod@V?$_Tmap_traits@EPAUtagSKILLPOINT@@U?$less@E@std@@V?$allocator@U?$pair@$$CBEPAUtagSKILLPOINT@@@std@@@3@$0A@@std@@@2@PAU342@@Z ENDP ; std::_Tree<std::_Tmap_traits<unsigned char,tagSKILLPOINT *,std::less<unsigned char>,std::allocator<std::pair<unsigned char const ,tagSKILLPOINT *> >,0> >::_Left
_TEXT	ENDS
PUBLIC	?_Parent@?$_Tree@V?$_Tmap_traits@EPAUtagSKILLPOINT@@U?$less@E@std@@V?$allocator@U?$pair@$$CBEPAUtagSKILLPOINT@@@std@@@3@$0A@@std@@@std@@KAAAPAU_Node@?$_Tree_nod@V?$_Tmap_traits@EPAUtagSKILLPOINT@@U?$less@E@std@@V?$allocator@U?$pair@$$CBEPAUtagSKILLPOINT@@@std@@@3@$0A@@std@@@2@PAU342@@Z ; std::_Tree<std::_Tmap_traits<unsigned char,tagSKILLPOINT *,std::less<unsigned char>,std::allocator<std::pair<unsigned char const ,tagSKILLPOINT *> >,0> >::_Parent
; Function compile flags: /Ogty
;	COMDAT ?_Parent@?$_Tree@V?$_Tmap_traits@EPAUtagSKILLPOINT@@U?$less@E@std@@V?$allocator@U?$pair@$$CBEPAUtagSKILLPOINT@@@std@@@3@$0A@@std@@@std@@KAAAPAU_Node@?$_Tree_nod@V?$_Tmap_traits@EPAUtagSKILLPOINT@@U?$less@E@std@@V?$allocator@U?$pair@$$CBEPAUtagSKILLPOINT@@@std@@@3@$0A@@std@@@2@PAU342@@Z
_TEXT	SEGMENT
__Pnode$ = 8						; size = 4
?_Parent@?$_Tree@V?$_Tmap_traits@EPAUtagSKILLPOINT@@U?$less@E@std@@V?$allocator@U?$pair@$$CBEPAUtagSKILLPOINT@@@std@@@3@$0A@@std@@@std@@KAAAPAU_Node@?$_Tree_nod@V?$_Tmap_traits@EPAUtagSKILLPOINT@@U?$less@E@std@@V?$allocator@U?$pair@$$CBEPAUtagSKILLPOINT@@@std@@@3@$0A@@std@@@2@PAU342@@Z PROC NEAR ; std::_Tree<std::_Tmap_traits<unsigned char,tagSKILLPOINT *,std::less<unsigned char>,std::allocator<std::pair<unsigned char const ,tagSKILLPOINT *> >,0> >::_Parent, COMDAT

; 152  : 		return ((_Nodepref)(*_Pnode)._Parent);

  00000	8b 44 24 04	 mov	 eax, DWORD PTR __Pnode$[esp-4]
  00004	83 c0 04	 add	 eax, 4

; 153  : 		}

  00007	c3		 ret	 0
?_Parent@?$_Tree@V?$_Tmap_traits@EPAUtagSKILLPOINT@@U?$less@E@std@@V?$allocator@U?$pair@$$CBEPAUtagSKILLPOINT@@@std@@@3@$0A@@std@@@std@@KAAAPAU_Node@?$_Tree_nod@V?$_Tmap_traits@EPAUtagSKILLPOINT@@U?$less@E@std@@V?$allocator@U?$pair@$$CBEPAUtagSKILLPOINT@@@std@@@3@$0A@@std@@@2@PAU342@@Z ENDP ; std::_Tree<std::_Tmap_traits<unsigned char,tagSKILLPOINT *,std::less<unsigned char>,std::allocator<std::pair<unsigned char const ,tagSKILLPOINT *> >,0> >::_Parent
_TEXT	ENDS
PUBLIC	?_Right@?$_Tree@V?$_Tmap_traits@EPAUtagSKILLPOINT@@U?$less@E@std@@V?$allocator@U?$pair@$$CBEPAUtagSKILLPOINT@@@std@@@3@$0A@@std@@@std@@KAAAPAU_Node@?$_Tree_nod@V?$_Tmap_traits@EPAUtagSKILLPOINT@@U?$less@E@std@@V?$allocator@U?$pair@$$CBEPAUtagSKILLPOINT@@@std@@@3@$0A@@std@@@2@PAU342@@Z ; std::_Tree<std::_Tmap_traits<unsigned char,tagSKILLPOINT *,std::less<unsigned char>,std::allocator<std::pair<unsigned char const ,tagSKILLPOINT *> >,0> >::_Right
; Function compile flags: /Ogty
;	COMDAT ?_Right@?$_Tree@V?$_Tmap_traits@EPAUtagSKILLPOINT@@U?$less@E@std@@V?$allocator@U?$pair@$$CBEPAUtagSKILLPOINT@@@std@@@3@$0A@@std@@@std@@KAAAPAU_Node@?$_Tree_nod@V?$_Tmap_traits@EPAUtagSKILLPOINT@@U?$less@E@std@@V?$allocator@U?$pair@$$CBEPAUtagSKILLPOINT@@@std@@@3@$0A@@std@@@2@PAU342@@Z
_TEXT	SEGMENT
__Pnode$ = 8						; size = 4
?_Right@?$_Tree@V?$_Tmap_traits@EPAUtagSKILLPOINT@@U?$less@E@std@@V?$allocator@U?$pair@$$CBEPAUtagSKILLPOINT@@@std@@@3@$0A@@std@@@std@@KAAAPAU_Node@?$_Tree_nod@V?$_Tmap_traits@EPAUtagSKILLPOINT@@U?$less@E@std@@V?$allocator@U?$pair@$$CBEPAUtagSKILLPOINT@@@std@@@3@$0A@@std@@@2@PAU342@@Z PROC NEAR ; std::_Tree<std::_Tmap_traits<unsigned char,tagSKILLPOINT *,std::less<unsigned char>,std::allocator<std::pair<unsigned char const ,tagSKILLPOINT *> >,0> >::_Right, COMDAT

; 157  : 		return ((_Nodepref)(*_Pnode)._Right);

  00000	8b 44 24 04	 mov	 eax, DWORD PTR __Pnode$[esp-4]
  00004	83 c0 08	 add	 eax, 8

; 158  : 		}

  00007	c3		 ret	 0
?_Right@?$_Tree@V?$_Tmap_traits@EPAUtagSKILLPOINT@@U?$less@E@std@@V?$allocator@U?$pair@$$CBEPAUtagSKILLPOINT@@@std@@@3@$0A@@std@@@std@@KAAAPAU_Node@?$_Tree_nod@V?$_Tmap_traits@EPAUtagSKILLPOINT@@U?$less@E@std@@V?$allocator@U?$pair@$$CBEPAUtagSKILLPOINT@@@std@@@3@$0A@@std@@@2@PAU342@@Z ENDP ; std::_Tree<std::_Tmap_traits<unsigned char,tagSKILLPOINT *,std::less<unsigned char>,std::allocator<std::pair<unsigned char const ,tagSKILLPOINT *> >,0> >::_Right
_TEXT	ENDS
PUBLIC	?_Myval@?$_Tree@V?$_Tmap_traits@EPAUtagSKILLPOINT@@U?$less@E@std@@V?$allocator@U?$pair@$$CBEPAUtagSKILLPOINT@@@std@@@3@$0A@@std@@@std@@KAAAU?$pair@$$CBEPAUtagSKILLPOINT@@@2@PAU_Node@?$_Tree_nod@V?$_Tmap_traits@EPAUtagSKILLPOINT@@U?$less@E@std@@V?$allocator@U?$pair@$$CBEPAUtagSKILLPOINT@@@std@@@3@$0A@@std@@@2@@Z ; std::_Tree<std::_Tmap_traits<unsigned char,tagSKILLPOINT *,std::less<unsigned char>,std::allocator<std::pair<unsigned char const ,tagSKILLPOINT *> >,0> >::_Myval
; Function compile flags: /Ogty
;	COMDAT ?_Myval@?$_Tree@V?$_Tmap_traits@EPAUtagSKILLPOINT@@U?$less@E@std@@V?$allocator@U?$pair@$$CBEPAUtagSKILLPOINT@@@std@@@3@$0A@@std@@@std@@KAAAU?$pair@$$CBEPAUtagSKILLPOINT@@@2@PAU_Node@?$_Tree_nod@V?$_Tmap_traits@EPAUtagSKILLPOINT@@U?$less@E@std@@V?$allocator@U?$pair@$$CBEPAUtagSKILLPOINT@@@std@@@3@$0A@@std@@@2@@Z
_TEXT	SEGMENT
__Pnode$ = 8						; size = 4
?_Myval@?$_Tree@V?$_Tmap_traits@EPAUtagSKILLPOINT@@U?$less@E@std@@V?$allocator@U?$pair@$$CBEPAUtagSKILLPOINT@@@std@@@3@$0A@@std@@@std@@KAAAU?$pair@$$CBEPAUtagSKILLPOINT@@@2@PAU_Node@?$_Tree_nod@V?$_Tmap_traits@EPAUtagSKILLPOINT@@U?$less@E@std@@V?$allocator@U?$pair@$$CBEPAUtagSKILLPOINT@@@std@@@3@$0A@@std@@@2@@Z PROC NEAR ; std::_Tree<std::_Tmap_traits<unsigned char,tagSKILLPOINT *,std::less<unsigned char>,std::allocator<std::pair<unsigned char const ,tagSKILLPOINT *> >,0> >::_Myval, COMDAT

; 162  : 		return ((_Vref)(*_Pnode)._Myval);

  00000	8b 44 24 04	 mov	 eax, DWORD PTR __Pnode$[esp-4]
  00004	83 c0 0c	 add	 eax, 12			; 0000000cH

; 163  : 		}

  00007	c3		 ret	 0
?_Myval@?$_Tree@V?$_Tmap_traits@EPAUtagSKILLPOINT@@U?$less@E@std@@V?$allocator@U?$pair@$$CBEPAUtagSKILLPOINT@@@std@@@3@$0A@@std@@@std@@KAAAU?$pair@$$CBEPAUtagSKILLPOINT@@@2@PAU_Node@?$_Tree_nod@V?$_Tmap_traits@EPAUtagSKILLPOINT@@U?$less@E@std@@V?$allocator@U?$pair@$$CBEPAUtagSKILLPOINT@@@std@@@3@$0A@@std@@@2@@Z ENDP ; std::_Tree<std::_Tmap_traits<unsigned char,tagSKILLPOINT *,std::less<unsigned char>,std::allocator<std::pair<unsigned char const ,tagSKILLPOINT *> >,0> >::_Myval
_TEXT	ENDS
PUBLIC	?_Kfn@?$_Tmap_traits@EPAUtagSKILLPOINT@@U?$less@E@std@@V?$allocator@U?$pair@$$CBEPAUtagSKILLPOINT@@@std@@@3@$0A@@std@@SAABEABU?$pair@$$CBEPAUtagSKILLPOINT@@@2@@Z ; std::_Tmap_traits<unsigned char,tagSKILLPOINT *,std::less<unsigned char>,std::allocator<std::pair<unsigned char const ,tagSKILLPOINT *> >,0>::_Kfn
; Function compile flags: /Ogty
; File c:\program files (x86)\microsoft visual studio .net 2003\vc7\include\map
;	COMDAT ?_Kfn@?$_Tmap_traits@EPAUtagSKILLPOINT@@U?$less@E@std@@V?$allocator@U?$pair@$$CBEPAUtagSKILLPOINT@@@std@@@3@$0A@@std@@SAABEABU?$pair@$$CBEPAUtagSKILLPOINT@@@2@@Z
_TEXT	SEGMENT
__Val$ = 8						; size = 4
?_Kfn@?$_Tmap_traits@EPAUtagSKILLPOINT@@U?$less@E@std@@V?$allocator@U?$pair@$$CBEPAUtagSKILLPOINT@@@std@@@3@$0A@@std@@SAABEABU?$pair@$$CBEPAUtagSKILLPOINT@@@2@@Z PROC NEAR ; std::_Tmap_traits<unsigned char,tagSKILLPOINT *,std::less<unsigned char>,std::allocator<std::pair<unsigned char const ,tagSKILLPOINT *> >,0>::_Kfn, COMDAT

; 64   : 		return (_Val.first);

  00000	8b 44 24 04	 mov	 eax, DWORD PTR __Val$[esp-4]

; 65   : 		}

  00004	c3		 ret	 0
?_Kfn@?$_Tmap_traits@EPAUtagSKILLPOINT@@U?$less@E@std@@V?$allocator@U?$pair@$$CBEPAUtagSKILLPOINT@@@std@@@3@$0A@@std@@SAABEABU?$pair@$$CBEPAUtagSKILLPOINT@@@2@@Z ENDP ; std::_Tmap_traits<unsigned char,tagSKILLPOINT *,std::less<unsigned char>,std::allocator<std::pair<unsigned char const ,tagSKILLPOINT *> >,0>::_Kfn
_TEXT	ENDS
PUBLIC	??0?$allocator@U?$pair@$$CBEPAUtagSKILLPOINT@@@std@@@std@@QAE@ABV01@@Z ; std::allocator<std::pair<unsigned char const ,tagSKILLPOINT *> >::allocator<std::pair<unsigned char const ,tagSKILLPOINT *> >
; Function compile flags: /Ogty
; File c:\program files (x86)\microsoft visual studio .net 2003\vc7\include\xmemory
;	COMDAT ??0?$allocator@U?$pair@$$CBEPAUtagSKILLPOINT@@@std@@@std@@QAE@ABV01@@Z
_TEXT	SEGMENT
___formal$ = 8						; size = 4
??0?$allocator@U?$pair@$$CBEPAUtagSKILLPOINT@@@std@@@std@@QAE@ABV01@@Z PROC NEAR ; std::allocator<std::pair<unsigned char const ,tagSKILLPOINT *> >::allocator<std::pair<unsigned char const ,tagSKILLPOINT *> >, COMDAT
; _this$ = ecx

; 115  : 	allocator(const allocator<_Ty>&)

  00000	8b c1		 mov	 eax, ecx

; 116  : 		{	// construct by copying (do nothing)
; 117  : 		}

  00002	c2 04 00	 ret	 4
??0?$allocator@U?$pair@$$CBEPAUtagSKILLPOINT@@@std@@@std@@QAE@ABV01@@Z ENDP ; std::allocator<std::pair<unsigned char const ,tagSKILLPOINT *> >::allocator<std::pair<unsigned char const ,tagSKILLPOINT *> >
_TEXT	ENDS
PUBLIC	?deallocate@?$allocator@U_Node@?$_Tree_nod@V?$_Tmap_traits@EPAUtagSKILLPOINT@@U?$less@E@std@@V?$allocator@U?$pair@$$CBEPAUtagSKILLPOINT@@@std@@@3@$0A@@std@@@std@@@std@@QAEXPAU_Node@?$_Tree_nod@V?$_Tmap_traits@EPAUtagSKILLPOINT@@U?$less@E@std@@V?$allocator@U?$pair@$$CBEPAUtagSKILLPOINT@@@std@@@3@$0A@@std@@@2@I@Z ; std::allocator<std::_Tree_nod<std::_Tmap_traits<unsigned char,tagSKILLPOINT *,std::less<unsigned char>,std::allocator<std::pair<unsigned char const ,tagSKILLPOINT *> >,0> >::_Node>::deallocate
; Function compile flags: /Ogty
;	COMDAT ?deallocate@?$allocator@U_Node@?$_Tree_nod@V?$_Tmap_traits@EPAUtagSKILLPOINT@@U?$less@E@std@@V?$allocator@U?$pair@$$CBEPAUtagSKILLPOINT@@@std@@@3@$0A@@std@@@std@@@std@@QAEXPAU_Node@?$_Tree_nod@V?$_Tmap_traits@EPAUtagSKILLPOINT@@U?$less@E@std@@V?$allocator@U?$pair@$$CBEPAUtagSKILLPOINT@@@std@@@3@$0A@@std@@@2@I@Z
_TEXT	SEGMENT
__Ptr$ = 8						; size = 4
___formal$ = 12						; size = 4
?deallocate@?$allocator@U_Node@?$_Tree_nod@V?$_Tmap_traits@EPAUtagSKILLPOINT@@U?$less@E@std@@V?$allocator@U?$pair@$$CBEPAUtagSKILLPOINT@@@std@@@3@$0A@@std@@@std@@@std@@QAEXPAU_Node@?$_Tree_nod@V?$_Tmap_traits@EPAUtagSKILLPOINT@@U?$less@E@std@@V?$allocator@U?$pair@$$CBEPAUtagSKILLPOINT@@@std@@@3@$0A@@std@@@2@I@Z PROC NEAR ; std::allocator<std::_Tree_nod<std::_Tmap_traits<unsigned char,tagSKILLPOINT *,std::less<unsigned char>,std::allocator<std::pair<unsigned char const ,tagSKILLPOINT *> >,0> >::_Node>::deallocate, COMDAT
; _this$ = ecx

; 132  : 		operator delete(_Ptr);

  00000	8b 44 24 04	 mov	 eax, DWORD PTR __Ptr$[esp-4]
  00004	50		 push	 eax
  00005	e8 00 00 00 00	 call	 ??3@YAXPAX@Z		; operator delete
  0000a	59		 pop	 ecx

; 133  : 		}

  0000b	c2 08 00	 ret	 8
?deallocate@?$allocator@U_Node@?$_Tree_nod@V?$_Tmap_traits@EPAUtagSKILLPOINT@@U?$less@E@std@@V?$allocator@U?$pair@$$CBEPAUtagSKILLPOINT@@@std@@@3@$0A@@std@@@std@@@std@@QAEXPAU_Node@?$_Tree_nod@V?$_Tmap_traits@EPAUtagSKILLPOINT@@U?$less@E@std@@V?$allocator@U?$pair@$$CBEPAUtagSKILLPOINT@@@std@@@3@$0A@@std@@@2@I@Z ENDP ; std::allocator<std::_Tree_nod<std::_Tmap_traits<unsigned char,tagSKILLPOINT *,std::less<unsigned char>,std::allocator<std::pair<unsigned char const ,tagSKILLPOINT *> >,0> >::_Node>::deallocate
_TEXT	ENDS
PUBLIC	??0const_iterator@?$_Tree@V?$_Tmap_traits@EPAUtagSKILLPOINT@@U?$less@E@std@@V?$allocator@U?$pair@$$CBEPAUtagSKILLPOINT@@@std@@@3@$0A@@std@@@std@@QAE@PAU_Node@?$_Tree_nod@V?$_Tmap_traits@EPAUtagSKILLPOINT@@U?$less@E@std@@V?$allocator@U?$pair@$$CBEPAUtagSKILLPOINT@@@std@@@3@$0A@@std@@@2@@Z ; std::_Tree<std::_Tmap_traits<unsigned char,tagSKILLPOINT *,std::less<unsigned char>,std::allocator<std::pair<unsigned char const ,tagSKILLPOINT *> >,0> >::const_iterator::const_iterator
; Function compile flags: /Ogty
; File c:\program files (x86)\microsoft visual studio .net 2003\vc7\include\xtree
;	COMDAT ??0const_iterator@?$_Tree@V?$_Tmap_traits@EPAUtagSKILLPOINT@@U?$less@E@std@@V?$allocator@U?$pair@$$CBEPAUtagSKILLPOINT@@@std@@@3@$0A@@std@@@std@@QAE@PAU_Node@?$_Tree_nod@V?$_Tmap_traits@EPAUtagSKILLPOINT@@U?$less@E@std@@V?$allocator@U?$pair@$$CBEPAUtagSKILLPOINT@@@std@@@3@$0A@@std@@@2@@Z
_TEXT	SEGMENT
__Pnode$ = 8						; size = 4
??0const_iterator@?$_Tree@V?$_Tmap_traits@EPAUtagSKILLPOINT@@U?$less@E@std@@V?$allocator@U?$pair@$$CBEPAUtagSKILLPOINT@@@std@@@3@$0A@@std@@@std@@QAE@PAU_Node@?$_Tree_nod@V?$_Tmap_traits@EPAUtagSKILLPOINT@@U?$less@E@std@@V?$allocator@U?$pair@$$CBEPAUtagSKILLPOINT@@@std@@@3@$0A@@std@@@2@@Z PROC NEAR ; std::_Tree<std::_Tmap_traits<unsigned char,tagSKILLPOINT *,std::less<unsigned char>,std::allocator<std::pair<unsigned char const ,tagSKILLPOINT *> >,0> >::const_iterator::const_iterator, COMDAT
; _this$ = ecx

; 200  : 			{	// construct with node pointer _Pnode

  00000	8b c1		 mov	 eax, ecx
  00002	8b 4c 24 04	 mov	 ecx, DWORD PTR __Pnode$[esp-4]
  00006	89 08		 mov	 DWORD PTR [eax], ecx

; 201  : 			}

  00008	c2 04 00	 ret	 4
??0const_iterator@?$_Tree@V?$_Tmap_traits@EPAUtagSKILLPOINT@@U?$less@E@std@@V?$allocator@U?$pair@$$CBEPAUtagSKILLPOINT@@@std@@@3@$0A@@std@@@std@@QAE@PAU_Node@?$_Tree_nod@V?$_Tmap_traits@EPAUtagSKILLPOINT@@U?$less@E@std@@V?$allocator@U?$pair@$$CBEPAUtagSKILLPOINT@@@std@@@3@$0A@@std@@@2@@Z ENDP ; std::_Tree<std::_Tmap_traits<unsigned char,tagSKILLPOINT *,std::less<unsigned char>,std::allocator<std::pair<unsigned char const ,tagSKILLPOINT *> >,0> >::const_iterator::const_iterator
_TEXT	ENDS
PUBLIC	??Yiterator@?$vector@PAUtagTSKILLDATA@@V?$allocator@PAUtagTSKILLDATA@@@std@@@std@@QAEAAV012@H@Z ; std::vector<tagTSKILLDATA *,std::allocator<tagTSKILLDATA *> >::iterator::operator+=
; Function compile flags: /Ogty
; File c:\program files (x86)\microsoft visual studio .net 2003\vc7\include\vector
;	COMDAT ??Yiterator@?$vector@PAUtagTSKILLDATA@@V?$allocator@PAUtagTSKILLDATA@@@std@@@std@@QAEAAV012@H@Z
_TEXT	SEGMENT
__Off$ = 8						; size = 4
??Yiterator@?$vector@PAUtagTSKILLDATA@@V?$allocator@PAUtagTSKILLDATA@@@std@@@std@@QAEAAV012@H@Z PROC NEAR ; std::vector<tagTSKILLDATA *,std::allocator<tagTSKILLDATA *> >::iterator::operator+=, COMDAT
; _this$ = ecx

; 255  : 			{	// increment by integer

  00000	8b c1		 mov	 eax, ecx

; 256  : 			this->_Myptr += _Off;

  00002	8b 4c 24 04	 mov	 ecx, DWORD PTR __Off$[esp-4]
  00006	8d 14 8d 00 00
	00 00		 lea	 edx, DWORD PTR [ecx*4]
  0000d	01 10		 add	 DWORD PTR [eax], edx

; 257  : 			return (*this);
; 258  : 			}

  0000f	c2 04 00	 ret	 4
??Yiterator@?$vector@PAUtagTSKILLDATA@@V?$allocator@PAUtagTSKILLDATA@@@std@@@std@@QAEAAV012@H@Z ENDP ; std::vector<tagTSKILLDATA *,std::allocator<tagTSKILLDATA *> >::iterator::operator+=
_TEXT	ENDS
PUBLIC	??Ziterator@?$vector@PAUtagTSKILLDATA@@V?$allocator@PAUtagTSKILLDATA@@@std@@@std@@QAEAAV012@H@Z ; std::vector<tagTSKILLDATA *,std::allocator<tagTSKILLDATA *> >::iterator::operator-=
; Function compile flags: /Ogty
;	COMDAT ??Ziterator@?$vector@PAUtagTSKILLDATA@@V?$allocator@PAUtagTSKILLDATA@@@std@@@std@@QAEAAV012@H@Z
_TEXT	SEGMENT
__Off$ = 8						; size = 4
??Ziterator@?$vector@PAUtagTSKILLDATA@@V?$allocator@PAUtagTSKILLDATA@@@std@@@std@@QAEAAV012@H@Z PROC NEAR ; std::vector<tagTSKILLDATA *,std::allocator<tagTSKILLDATA *> >::iterator::operator-=, COMDAT
; _this$ = ecx

; 267  : 			{	// decrement by integer

  00000	8b c1		 mov	 eax, ecx

; 268  : 			return (*this += -_Off);

  00002	8b 4c 24 04	 mov	 ecx, DWORD PTR __Off$[esp-4]
  00006	8b 10		 mov	 edx, DWORD PTR [eax]
  00008	f7 d9		 neg	 ecx
  0000a	c1 e1 02	 shl	 ecx, 2
  0000d	03 d1		 add	 edx, ecx
  0000f	89 10		 mov	 DWORD PTR [eax], edx

; 269  : 			}

  00011	c2 04 00	 ret	 4
??Ziterator@?$vector@PAUtagTSKILLDATA@@V?$allocator@PAUtagTSKILLDATA@@@std@@@std@@QAEAAV012@H@Z ENDP ; std::vector<tagTSKILLDATA *,std::allocator<tagTSKILLDATA *> >::iterator::operator-=
_TEXT	ENDS
PUBLIC	??Dconst_iterator@?$vector@PAUtagTSKILLDATA@@V?$allocator@PAUtagTSKILLDATA@@@std@@@std@@QBEABQAUtagTSKILLDATA@@XZ ; std::vector<tagTSKILLDATA *,std::allocator<tagTSKILLDATA *> >::const_iterator::operator*
; Function compile flags: /Ogty
;	COMDAT ??Dconst_iterator@?$vector@PAUtagTSKILLDATA@@V?$allocator@PAUtagTSKILLDATA@@@std@@@std@@QBEABQAUtagTSKILLDATA@@XZ
_TEXT	SEGMENT
??Dconst_iterator@?$vector@PAUtagTSKILLDATA@@V?$allocator@PAUtagTSKILLDATA@@@std@@@std@@QBEABQAUtagTSKILLDATA@@XZ PROC NEAR ; std::vector<tagTSKILLDATA *,std::allocator<tagTSKILLDATA *> >::const_iterator::operator*, COMDAT
; _this$ = ecx

; 80   : 
; 81   : 
; 82   : 			return (*_Myptr);

  00000	8b 01		 mov	 eax, DWORD PTR [ecx]

; 83   : 			}

  00002	c3		 ret	 0
??Dconst_iterator@?$vector@PAUtagTSKILLDATA@@V?$allocator@PAUtagTSKILLDATA@@@std@@@std@@QBEABQAUtagTSKILLDATA@@XZ ENDP ; std::vector<tagTSKILLDATA *,std::allocator<tagTSKILLDATA *> >::const_iterator::operator*
_TEXT	ENDS
PUBLIC	?max_size@?$allocator@PAUtagTSKILLDATA@@@std@@QBEIXZ ; std::allocator<tagTSKILLDATA *>::max_size
; Function compile flags: /Ogty
; File c:\program files (x86)\microsoft visual studio .net 2003\vc7\include\xmemory
;	COMDAT ?max_size@?$allocator@PAUtagTSKILLDATA@@@std@@QBEIXZ
_TEXT	SEGMENT
?max_size@?$allocator@PAUtagTSKILLDATA@@@std@@QBEIXZ PROC NEAR ; std::allocator<tagTSKILLDATA *>::max_size, COMDAT
; _this$ = ecx

; 157  : 		_SIZT _Count = (_SIZT)(-1) / sizeof (_Ty);
; 158  : 		return (0 < _Count ? _Count : 1);

  00000	b8 ff ff ff 3f	 mov	 eax, 1073741823		; 3fffffffH

; 159  : 		}

  00005	c3		 ret	 0
?max_size@?$allocator@PAUtagTSKILLDATA@@@std@@QBEIXZ ENDP ; std::allocator<tagTSKILLDATA *>::max_size
_TEXT	ENDS
PUBLIC	?_Root@?$_Tree@V?$_Tmap_traits@EPAUtagSKILLPOINT@@U?$less@E@std@@V?$allocator@U?$pair@$$CBEPAUtagSKILLPOINT@@@std@@@3@$0A@@std@@@std@@IBEAAPAU_Node@?$_Tree_nod@V?$_Tmap_traits@EPAUtagSKILLPOINT@@U?$less@E@std@@V?$allocator@U?$pair@$$CBEPAUtagSKILLPOINT@@@std@@@3@$0A@@std@@@2@XZ ; std::_Tree<std::_Tmap_traits<unsigned char,tagSKILLPOINT *,std::less<unsigned char>,std::allocator<std::pair<unsigned char const ,tagSKILLPOINT *> >,0> >::_Root
; Function compile flags: /Ogty
; File c:\program files (x86)\microsoft visual studio .net 2003\vc7\include\xtree
;	COMDAT ?_Root@?$_Tree@V?$_Tmap_traits@EPAUtagSKILLPOINT@@U?$less@E@std@@V?$allocator@U?$pair@$$CBEPAUtagSKILLPOINT@@@std@@@3@$0A@@std@@@std@@IBEAAPAU_Node@?$_Tree_nod@V?$_Tmap_traits@EPAUtagSKILLPOINT@@U?$less@E@std@@V?$allocator@U?$pair@$$CBEPAUtagSKILLPOINT@@@std@@@3@$0A@@std@@@2@XZ
_TEXT	SEGMENT
?_Root@?$_Tree@V?$_Tmap_traits@EPAUtagSKILLPOINT@@U?$less@E@std@@V?$allocator@U?$pair@$$CBEPAUtagSKILLPOINT@@@std@@@3@$0A@@std@@@std@@IBEAAPAU_Node@?$_Tree_nod@V?$_Tmap_traits@EPAUtagSKILLPOINT@@U?$less@E@std@@V?$allocator@U?$pair@$$CBEPAUtagSKILLPOINT@@@std@@@3@$0A@@std@@@2@XZ PROC NEAR ; std::_Tree<std::_Tmap_traits<unsigned char,tagSKILLPOINT *,std::less<unsigned char>,std::allocator<std::pair<unsigned char const ,tagSKILLPOINT *> >,0> >::_Root, COMDAT
; _this$ = ecx

; 1064 : 		return (_Parent(_Myhead));

  00000	8b 41 04	 mov	 eax, DWORD PTR [ecx+4]
  00003	83 c0 04	 add	 eax, 4

; 1065 : 		}

  00006	c3		 ret	 0
?_Root@?$_Tree@V?$_Tmap_traits@EPAUtagSKILLPOINT@@U?$less@E@std@@V?$allocator@U?$pair@$$CBEPAUtagSKILLPOINT@@@std@@@3@$0A@@std@@@std@@IBEAAPAU_Node@?$_Tree_nod@V?$_Tmap_traits@EPAUtagSKILLPOINT@@U?$less@E@std@@V?$allocator@U?$pair@$$CBEPAUtagSKILLPOINT@@@std@@@3@$0A@@std@@@2@XZ ENDP ; std::_Tree<std::_Tmap_traits<unsigned char,tagSKILLPOINT *,std::less<unsigned char>,std::allocator<std::pair<unsigned char const ,tagSKILLPOINT *> >,0> >::_Root
_TEXT	ENDS
PUBLIC	??0const_iterator@?$vector@PAUtagTSKILLDATA@@V?$allocator@PAUtagTSKILLDATA@@@std@@@std@@QAE@PAPAUtagTSKILLDATA@@@Z ; std::vector<tagTSKILLDATA *,std::allocator<tagTSKILLDATA *> >::const_iterator::const_iterator
; Function compile flags: /Ogty
; File c:\program files (x86)\microsoft visual studio .net 2003\vc7\include\vector
;	COMDAT ??0const_iterator@?$vector@PAUtagTSKILLDATA@@V?$allocator@PAUtagTSKILLDATA@@@std@@@std@@QAE@PAPAUtagTSKILLDATA@@@Z
_TEXT	SEGMENT
__Ptr$ = 8						; size = 4
??0const_iterator@?$vector@PAUtagTSKILLDATA@@V?$allocator@PAUtagTSKILLDATA@@@std@@@std@@QAE@PAPAUtagTSKILLDATA@@@Z PROC NEAR ; std::vector<tagTSKILLDATA *,std::allocator<tagTSKILLDATA *> >::const_iterator::const_iterator, COMDAT
; _this$ = ecx

; 73   : 		const_iterator(_Tptr _Ptr)

  00000	8b c1		 mov	 eax, ecx

; 74   : 			{	// construct with pointer _Ptr
; 75   : 			_Myptr = _Ptr;

  00002	8b 4c 24 04	 mov	 ecx, DWORD PTR __Ptr$[esp-4]
  00006	89 08		 mov	 DWORD PTR [eax], ecx

; 76   : 			}

  00008	c2 04 00	 ret	 4
??0const_iterator@?$vector@PAUtagTSKILLDATA@@V?$allocator@PAUtagTSKILLDATA@@@std@@@std@@QAE@PAPAUtagTSKILLDATA@@@Z ENDP ; std::vector<tagTSKILLDATA *,std::allocator<tagTSKILLDATA *> >::const_iterator::const_iterator
_TEXT	ENDS
PUBLIC	?_Color@?$_Tree@V?$_Tmap_traits@EPAUtagSKILLPOINT@@U?$less@E@std@@V?$allocator@U?$pair@$$CBEPAUtagSKILLPOINT@@@std@@@3@$0A@@std@@@std@@KAAADPAU_Node@?$_Tree_nod@V?$_Tmap_traits@EPAUtagSKILLPOINT@@U?$less@E@std@@V?$allocator@U?$pair@$$CBEPAUtagSKILLPOINT@@@std@@@3@$0A@@std@@@2@@Z ; std::_Tree<std::_Tmap_traits<unsigned char,tagSKILLPOINT *,std::less<unsigned char>,std::allocator<std::pair<unsigned char const ,tagSKILLPOINT *> >,0> >::_Color
; Function compile flags: /Ogty
; File c:\program files (x86)\microsoft visual studio .net 2003\vc7\include\xtree
;	COMDAT ?_Color@?$_Tree@V?$_Tmap_traits@EPAUtagSKILLPOINT@@U?$less@E@std@@V?$allocator@U?$pair@$$CBEPAUtagSKILLPOINT@@@std@@@3@$0A@@std@@@std@@KAAADPAU_Node@?$_Tree_nod@V?$_Tmap_traits@EPAUtagSKILLPOINT@@U?$less@E@std@@V?$allocator@U?$pair@$$CBEPAUtagSKILLPOINT@@@std@@@3@$0A@@std@@@2@@Z
_TEXT	SEGMENT
__Pnode$ = 8						; size = 4
?_Color@?$_Tree@V?$_Tmap_traits@EPAUtagSKILLPOINT@@U?$less@E@std@@V?$allocator@U?$pair@$$CBEPAUtagSKILLPOINT@@@std@@@3@$0A@@std@@@std@@KAAADPAU_Node@?$_Tree_nod@V?$_Tmap_traits@EPAUtagSKILLPOINT@@U?$less@E@std@@V?$allocator@U?$pair@$$CBEPAUtagSKILLPOINT@@@std@@@3@$0A@@std@@@2@@Z PROC NEAR ; std::_Tree<std::_Tmap_traits<unsigned char,tagSKILLPOINT *,std::less<unsigned char>,std::allocator<std::pair<unsigned char const ,tagSKILLPOINT *> >,0> >::_Color, COMDAT

; 132  : 		return ((_Charref)(*_Pnode)._Color);

  00000	8b 44 24 04	 mov	 eax, DWORD PTR __Pnode$[esp-4]
  00004	83 c0 14	 add	 eax, 20			; 00000014H

; 133  : 		}

  00007	c3		 ret	 0
?_Color@?$_Tree@V?$_Tmap_traits@EPAUtagSKILLPOINT@@U?$less@E@std@@V?$allocator@U?$pair@$$CBEPAUtagSKILLPOINT@@@std@@@3@$0A@@std@@@std@@KAAADPAU_Node@?$_Tree_nod@V?$_Tmap_traits@EPAUtagSKILLPOINT@@U?$less@E@std@@V?$allocator@U?$pair@$$CBEPAUtagSKILLPOINT@@@std@@@3@$0A@@std@@@2@@Z ENDP ; std::_Tree<std::_Tmap_traits<unsigned char,tagSKILLPOINT *,std::less<unsigned char>,std::allocator<std::pair<unsigned char const ,tagSKILLPOINT *> >,0> >::_Color
_TEXT	ENDS
PUBLIC	?_Max@?$_Tree@V?$_Tmap_traits@EPAUtagSKILLPOINT@@U?$less@E@std@@V?$allocator@U?$pair@$$CBEPAUtagSKILLPOINT@@@std@@@3@$0A@@std@@@std@@KAPAU_Node@?$_Tree_nod@V?$_Tmap_traits@EPAUtagSKILLPOINT@@U?$less@E@std@@V?$allocator@U?$pair@$$CBEPAUtagSKILLPOINT@@@std@@@3@$0A@@std@@@2@PAU342@@Z ; std::_Tree<std::_Tmap_traits<unsigned char,tagSKILLPOINT *,std::less<unsigned char>,std::allocator<std::pair<unsigned char const ,tagSKILLPOINT *> >,0> >::_Max
; Function compile flags: /Ogty
;	COMDAT ?_Max@?$_Tree@V?$_Tmap_traits@EPAUtagSKILLPOINT@@U?$less@E@std@@V?$allocator@U?$pair@$$CBEPAUtagSKILLPOINT@@@std@@@3@$0A@@std@@@std@@KAPAU_Node@?$_Tree_nod@V?$_Tmap_traits@EPAUtagSKILLPOINT@@U?$less@E@std@@V?$allocator@U?$pair@$$CBEPAUtagSKILLPOINT@@@std@@@3@$0A@@std@@@2@PAU342@@Z
_TEXT	SEGMENT
__Pnode$ = 8						; size = 4
?_Max@?$_Tree@V?$_Tmap_traits@EPAUtagSKILLPOINT@@U?$less@E@std@@V?$allocator@U?$pair@$$CBEPAUtagSKILLPOINT@@@std@@@3@$0A@@std@@@std@@KAPAU_Node@?$_Tree_nod@V?$_Tmap_traits@EPAUtagSKILLPOINT@@U?$less@E@std@@V?$allocator@U?$pair@$$CBEPAUtagSKILLPOINT@@@std@@@3@$0A@@std@@@2@PAU342@@Z PROC NEAR ; std::_Tree<std::_Tmap_traits<unsigned char,tagSKILLPOINT *,std::less<unsigned char>,std::allocator<std::pair<unsigned char const ,tagSKILLPOINT *> >,0> >::_Max, COMDAT

; 1035 : 		while (!_Isnil(_Right(_Pnode)))

  00000	8b 44 24 04	 mov	 eax, DWORD PTR __Pnode$[esp-4]
  00004	8b 48 08	 mov	 ecx, DWORD PTR [eax+8]
  00007	8a 51 15	 mov	 dl, BYTE PTR [ecx+21]
  0000a	84 d2		 test	 dl, dl
  0000c	75 0e		 jne	 SHORT $L153192
  0000e	8b ff		 npad	 2
$L153191:

; 1036 : 			_Pnode = _Right(_Pnode);

  00010	8b c1		 mov	 eax, ecx
  00012	8b 48 08	 mov	 ecx, DWORD PTR [eax+8]
  00015	8a 51 15	 mov	 dl, BYTE PTR [ecx+21]
  00018	84 d2		 test	 dl, dl
  0001a	74 f4		 je	 SHORT $L153191
$L153192:

; 1037 : 		return (_Pnode);
; 1038 : 		}

  0001c	c3		 ret	 0
?_Max@?$_Tree@V?$_Tmap_traits@EPAUtagSKILLPOINT@@U?$less@E@std@@V?$allocator@U?$pair@$$CBEPAUtagSKILLPOINT@@@std@@@3@$0A@@std@@@std@@KAPAU_Node@?$_Tree_nod@V?$_Tmap_traits@EPAUtagSKILLPOINT@@U?$less@E@std@@V?$allocator@U?$pair@$$CBEPAUtagSKILLPOINT@@@std@@@3@$0A@@std@@@2@PAU342@@Z ENDP ; std::_Tree<std::_Tmap_traits<unsigned char,tagSKILLPOINT *,std::less<unsigned char>,std::allocator<std::pair<unsigned char const ,tagSKILLPOINT *> >,0> >::_Max
_TEXT	ENDS
PUBLIC	?_Min@?$_Tree@V?$_Tmap_traits@EPAUtagSKILLPOINT@@U?$less@E@std@@V?$allocator@U?$pair@$$CBEPAUtagSKILLPOINT@@@std@@@3@$0A@@std@@@std@@KAPAU_Node@?$_Tree_nod@V?$_Tmap_traits@EPAUtagSKILLPOINT@@U?$less@E@std@@V?$allocator@U?$pair@$$CBEPAUtagSKILLPOINT@@@std@@@3@$0A@@std@@@2@PAU342@@Z ; std::_Tree<std::_Tmap_traits<unsigned char,tagSKILLPOINT *,std::less<unsigned char>,std::allocator<std::pair<unsigned char const ,tagSKILLPOINT *> >,0> >::_Min
; Function compile flags: /Ogty
;	COMDAT ?_Min@?$_Tree@V?$_Tmap_traits@EPAUtagSKILLPOINT@@U?$less@E@std@@V?$allocator@U?$pair@$$CBEPAUtagSKILLPOINT@@@std@@@3@$0A@@std@@@std@@KAPAU_Node@?$_Tree_nod@V?$_Tmap_traits@EPAUtagSKILLPOINT@@U?$less@E@std@@V?$allocator@U?$pair@$$CBEPAUtagSKILLPOINT@@@std@@@3@$0A@@std@@@2@PAU342@@Z
_TEXT	SEGMENT
__Pnode$ = 8						; size = 4
?_Min@?$_Tree@V?$_Tmap_traits@EPAUtagSKILLPOINT@@U?$less@E@std@@V?$allocator@U?$pair@$$CBEPAUtagSKILLPOINT@@@std@@@3@$0A@@std@@@std@@KAPAU_Node@?$_Tree_nod@V?$_Tmap_traits@EPAUtagSKILLPOINT@@U?$less@E@std@@V?$allocator@U?$pair@$$CBEPAUtagSKILLPOINT@@@std@@@3@$0A@@std@@@2@PAU342@@Z PROC NEAR ; std::_Tree<std::_Tmap_traits<unsigned char,tagSKILLPOINT *,std::less<unsigned char>,std::allocator<std::pair<unsigned char const ,tagSKILLPOINT *> >,0> >::_Min, COMDAT

; 1042 : 		while (!_Isnil(_Left(_Pnode)))

  00000	8b 44 24 04	 mov	 eax, DWORD PTR __Pnode$[esp-4]
  00004	8b 08		 mov	 ecx, DWORD PTR [eax]
  00006	8a 51 15	 mov	 dl, BYTE PTR [ecx+21]
  00009	84 d2		 test	 dl, dl
  0000b	75 0e		 jne	 SHORT $L153196
  0000d	8d 49 00	 npad	 3
$L153195:

; 1043 : 			_Pnode = _Left(_Pnode);

  00010	8b c1		 mov	 eax, ecx
  00012	8b 08		 mov	 ecx, DWORD PTR [eax]
  00014	8a 51 15	 mov	 dl, BYTE PTR [ecx+21]
  00017	84 d2		 test	 dl, dl
  00019	74 f5		 je	 SHORT $L153195
$L153196:

; 1044 : 		return (_Pnode);
; 1045 : 		}

  0001b	c3		 ret	 0
?_Min@?$_Tree@V?$_Tmap_traits@EPAUtagSKILLPOINT@@U?$less@E@std@@V?$allocator@U?$pair@$$CBEPAUtagSKILLPOINT@@@std@@@3@$0A@@std@@@std@@KAPAU_Node@?$_Tree_nod@V?$_Tmap_traits@EPAUtagSKILLPOINT@@U?$less@E@std@@V?$allocator@U?$pair@$$CBEPAUtagSKILLPOINT@@@std@@@3@$0A@@std@@@2@PAU342@@Z ENDP ; std::_Tree<std::_Tmap_traits<unsigned char,tagSKILLPOINT *,std::less<unsigned char>,std::allocator<std::pair<unsigned char const ,tagSKILLPOINT *> >,0> >::_Min
_TEXT	ENDS
PUBLIC	??0?$_Tmap_traits@EPAUtagSKILLPOINT@@U?$less@E@std@@V?$allocator@U?$pair@$$CBEPAUtagSKILLPOINT@@@std@@@3@$0A@@std@@QAE@U?$less@E@1@@Z ; std::_Tmap_traits<unsigned char,tagSKILLPOINT *,std::less<unsigned char>,std::allocator<std::pair<unsigned char const ,tagSKILLPOINT *> >,0>::_Tmap_traits<unsigned char,tagSKILLPOINT *,std::less<unsigned char>,std::allocator<std::pair<unsigned char const ,tagSKILLPOINT *> >,0>
; Function compile flags: /Ogty
; File c:\program files (x86)\microsoft visual studio .net 2003\vc7\include\map
;	COMDAT ??0?$_Tmap_traits@EPAUtagSKILLPOINT@@U?$less@E@std@@V?$allocator@U?$pair@$$CBEPAUtagSKILLPOINT@@@std@@@3@$0A@@std@@QAE@U?$less@E@1@@Z
_TEXT	SEGMENT
__Parg$ = 8						; size = 1
??0?$_Tmap_traits@EPAUtagSKILLPOINT@@U?$less@E@std@@V?$allocator@U?$pair@$$CBEPAUtagSKILLPOINT@@@std@@@3@$0A@@std@@QAE@U?$less@E@1@@Z PROC NEAR ; std::_Tmap_traits<unsigned char,tagSKILLPOINT *,std::less<unsigned char>,std::allocator<std::pair<unsigned char const ,tagSKILLPOINT *> >,0>::_Tmap_traits<unsigned char,tagSKILLPOINT *,std::less<unsigned char>,std::allocator<std::pair<unsigned char const ,tagSKILLPOINT *> >,0>, COMDAT
; _this$ = ecx

; 38   : 		{	// construct with specified comparator

  00000	8b c1		 mov	 eax, ecx

; 39   : 		}

  00002	c2 04 00	 ret	 4
??0?$_Tmap_traits@EPAUtagSKILLPOINT@@U?$less@E@std@@V?$allocator@U?$pair@$$CBEPAUtagSKILLPOINT@@@std@@@3@$0A@@std@@QAE@U?$less@E@1@@Z ENDP ; std::_Tmap_traits<unsigned char,tagSKILLPOINT *,std::less<unsigned char>,std::allocator<std::pair<unsigned char const ,tagSKILLPOINT *> >,0>::_Tmap_traits<unsigned char,tagSKILLPOINT *,std::less<unsigned char>,std::allocator<std::pair<unsigned char const ,tagSKILLPOINT *> >,0>
_TEXT	ENDS
PUBLIC	??$_Allocate@PAUtagTSKILLDATA@@@std@@YAPAPAUtagTSKILLDATA@@IPAPAU1@@Z ; std::_Allocate<tagTSKILLDATA *>
EXTRN	??2@YAPAXI@Z:NEAR				; operator new
; Function compile flags: /Ogty
; File c:\program files (x86)\microsoft visual studio .net 2003\vc7\include\xmemory
;	COMDAT ??$_Allocate@PAUtagTSKILLDATA@@@std@@YAPAPAUtagTSKILLDATA@@IPAPAU1@@Z
_TEXT	SEGMENT
__Count$ = 8						; size = 4
___formal$ = 12						; size = 4
??$_Allocate@PAUtagTSKILLDATA@@@std@@YAPAPAUtagTSKILLDATA@@IPAPAU1@@Z PROC NEAR ; std::_Allocate<tagTSKILLDATA *>, COMDAT

; 34   : 	return ((_Ty _FARQ *)operator new(_Count * sizeof (_Ty)));

  00000	8b 44 24 04	 mov	 eax, DWORD PTR __Count$[esp-4]
  00004	8d 0c 85 00 00
	00 00		 lea	 ecx, DWORD PTR [eax*4]
  0000b	51		 push	 ecx
  0000c	e8 00 00 00 00	 call	 ??2@YAPAXI@Z		; operator new
  00011	83 c4 04	 add	 esp, 4

; 35   : 	}

  00014	c3		 ret	 0
??$_Allocate@PAUtagTSKILLDATA@@@std@@YAPAPAUtagTSKILLDATA@@IPAPAU1@@Z ENDP ; std::_Allocate<tagTSKILLDATA *>
_TEXT	ENDS
PUBLIC	??$_Destroy@U_Node@?$_Tree_nod@V?$_Tmap_traits@EPAUtagSKILLPOINT@@U?$less@E@std@@V?$allocator@U?$pair@$$CBEPAUtagSKILLPOINT@@@std@@@3@$0A@@std@@@std@@@std@@YAXPAU_Node@?$_Tree_nod@V?$_Tmap_traits@EPAUtagSKILLPOINT@@U?$less@E@std@@V?$allocator@U?$pair@$$CBEPAUtagSKILLPOINT@@@std@@@3@$0A@@std@@@0@@Z ; std::_Destroy<std::_Tree_nod<std::_Tmap_traits<unsigned char,tagSKILLPOINT *,std::less<unsigned char>,std::allocator<std::pair<unsigned char const ,tagSKILLPOINT *> >,0> >::_Node>
; Function compile flags: /Ogty
;	COMDAT ??$_Destroy@U_Node@?$_Tree_nod@V?$_Tmap_traits@EPAUtagSKILLPOINT@@U?$less@E@std@@V?$allocator@U?$pair@$$CBEPAUtagSKILLPOINT@@@std@@@3@$0A@@std@@@std@@@std@@YAXPAU_Node@?$_Tree_nod@V?$_Tmap_traits@EPAUtagSKILLPOINT@@U?$less@E@std@@V?$allocator@U?$pair@$$CBEPAUtagSKILLPOINT@@@std@@@3@$0A@@std@@@0@@Z
_TEXT	SEGMENT
__Ptr$ = 8						; size = 4
??$_Destroy@U_Node@?$_Tree_nod@V?$_Tmap_traits@EPAUtagSKILLPOINT@@U?$less@E@std@@V?$allocator@U?$pair@$$CBEPAUtagSKILLPOINT@@@std@@@3@$0A@@std@@@std@@@std@@YAXPAU_Node@?$_Tree_nod@V?$_Tmap_traits@EPAUtagSKILLPOINT@@U?$less@E@std@@V?$allocator@U?$pair@$$CBEPAUtagSKILLPOINT@@@std@@@3@$0A@@std@@@0@@Z PROC NEAR ; std::_Destroy<std::_Tree_nod<std::_Tmap_traits<unsigned char,tagSKILLPOINT *,std::less<unsigned char>,std::allocator<std::pair<unsigned char const ,tagSKILLPOINT *> >,0> >::_Node>, COMDAT

; 49   : 	_DESTRUCTOR(_Ty, _Ptr);
; 50   : 	}

  00000	c3		 ret	 0
??$_Destroy@U_Node@?$_Tree_nod@V?$_Tmap_traits@EPAUtagSKILLPOINT@@U?$less@E@std@@V?$allocator@U?$pair@$$CBEPAUtagSKILLPOINT@@@std@@@3@$0A@@std@@@std@@@std@@YAXPAU_Node@?$_Tree_nod@V?$_Tmap_traits@EPAUtagSKILLPOINT@@U?$less@E@std@@V?$allocator@U?$pair@$$CBEPAUtagSKILLPOINT@@@std@@@3@$0A@@std@@@0@@Z ENDP ; std::_Destroy<std::_Tree_nod<std::_Tmap_traits<unsigned char,tagSKILLPOINT *,std::less<unsigned char>,std::allocator<std::pair<unsigned char const ,tagSKILLPOINT *> >,0> >::_Node>
_TEXT	ENDS
PUBLIC	??$_Destroy@PAU_Node@?$_Tree_nod@V?$_Tmap_traits@EPAUtagSKILLPOINT@@U?$less@E@std@@V?$allocator@U?$pair@$$CBEPAUtagSKILLPOINT@@@std@@@3@$0A@@std@@@std@@@std@@YAXPAPAU_Node@?$_Tree_nod@V?$_Tmap_traits@EPAUtagSKILLPOINT@@U?$less@E@std@@V?$allocator@U?$pair@$$CBEPAUtagSKILLPOINT@@@std@@@3@$0A@@std@@@0@@Z ; std::_Destroy<std::_Tree_nod<std::_Tmap_traits<unsigned char,tagSKILLPOINT *,std::less<unsigned char>,std::allocator<std::pair<unsigned char const ,tagSKILLPOINT *> >,0> >::_Node *>
; Function compile flags: /Ogty
;	COMDAT ??$_Destroy@PAU_Node@?$_Tree_nod@V?$_Tmap_traits@EPAUtagSKILLPOINT@@U?$less@E@std@@V?$allocator@U?$pair@$$CBEPAUtagSKILLPOINT@@@std@@@3@$0A@@std@@@std@@@std@@YAXPAPAU_Node@?$_Tree_nod@V?$_Tmap_traits@EPAUtagSKILLPOINT@@U?$less@E@std@@V?$allocator@U?$pair@$$CBEPAUtagSKILLPOINT@@@std@@@3@$0A@@std@@@0@@Z
_TEXT	SEGMENT
__Ptr$ = 8						; size = 4
??$_Destroy@PAU_Node@?$_Tree_nod@V?$_Tmap_traits@EPAUtagSKILLPOINT@@U?$less@E@std@@V?$allocator@U?$pair@$$CBEPAUtagSKILLPOINT@@@std@@@3@$0A@@std@@@std@@@std@@YAXPAPAU_Node@?$_Tree_nod@V?$_Tmap_traits@EPAUtagSKILLPOINT@@U?$less@E@std@@V?$allocator@U?$pair@$$CBEPAUtagSKILLPOINT@@@std@@@3@$0A@@std@@@0@@Z PROC NEAR ; std::_Destroy<std::_Tree_nod<std::_Tmap_traits<unsigned char,tagSKILLPOINT *,std::less<unsigned char>,std::allocator<std::pair<unsigned char const ,tagSKILLPOINT *> >,0> >::_Node *>, COMDAT

; 49   : 	_DESTRUCTOR(_Ty, _Ptr);
; 50   : 	}

  00000	c3		 ret	 0
??$_Destroy@PAU_Node@?$_Tree_nod@V?$_Tmap_traits@EPAUtagSKILLPOINT@@U?$less@E@std@@V?$allocator@U?$pair@$$CBEPAUtagSKILLPOINT@@@std@@@3@$0A@@std@@@std@@@std@@YAXPAPAU_Node@?$_Tree_nod@V?$_Tmap_traits@EPAUtagSKILLPOINT@@U?$less@E@std@@V?$allocator@U?$pair@$$CBEPAUtagSKILLPOINT@@@std@@@3@$0A@@std@@@0@@Z ENDP ; std::_Destroy<std::_Tree_nod<std::_Tmap_traits<unsigned char,tagSKILLPOINT *,std::less<unsigned char>,std::allocator<std::pair<unsigned char const ,tagSKILLPOINT *> >,0> >::_Node *>
_TEXT	ENDS
PUBLIC	??$?0U?$pair@$$CBEPAUtagSKILLPOINT@@@std@@@?$allocator@PAU_Node@?$_Tree_nod@V?$_Tmap_traits@EPAUtagSKILLPOINT@@U?$less@E@std@@V?$allocator@U?$pair@$$CBEPAUtagSKILLPOINT@@@std@@@3@$0A@@std@@@std@@@std@@QAE@ABV?$allocator@U?$pair@$$CBEPAUtagSKILLPOINT@@@std@@@1@@Z ; std::allocator<std::_Tree_nod<std::_Tmap_traits<unsigned char,tagSKILLPOINT *,std::less<unsigned char>,std::allocator<std::pair<unsigned char const ,tagSKILLPOINT *> >,0> >::_Node *>::allocator<std::_Tree_nod<std::_Tmap_traits<unsigned char,tagSKILLPOINT *,std::less<unsigned char>,std::allocator<std::pair<unsigned char const ,tagSKILLPOINT *> >,0> >::_Node *><std::pair<unsigned char const ,tagSKILLPOINT *> >
; Function compile flags: /Ogty
;	COMDAT ??$?0U?$pair@$$CBEPAUtagSKILLPOINT@@@std@@@?$allocator@PAU_Node@?$_Tree_nod@V?$_Tmap_traits@EPAUtagSKILLPOINT@@U?$less@E@std@@V?$allocator@U?$pair@$$CBEPAUtagSKILLPOINT@@@std@@@3@$0A@@std@@@std@@@std@@QAE@ABV?$allocator@U?$pair@$$CBEPAUtagSKILLPOINT@@@std@@@1@@Z
_TEXT	SEGMENT
___formal$ = 8						; size = 4
??$?0U?$pair@$$CBEPAUtagSKILLPOINT@@@std@@@?$allocator@PAU_Node@?$_Tree_nod@V?$_Tmap_traits@EPAUtagSKILLPOINT@@U?$less@E@std@@V?$allocator@U?$pair@$$CBEPAUtagSKILLPOINT@@@std@@@3@$0A@@std@@@std@@@std@@QAE@ABV?$allocator@U?$pair@$$CBEPAUtagSKILLPOINT@@@std@@@1@@Z PROC NEAR ; std::allocator<std::_Tree_nod<std::_Tmap_traits<unsigned char,tagSKILLPOINT *,std::less<unsigned char>,std::allocator<std::pair<unsigned char const ,tagSKILLPOINT *> >,0> >::_Node *>::allocator<std::_Tree_nod<std::_Tmap_traits<unsigned char,tagSKILLPOINT *,std::less<unsigned char>,std::allocator<std::pair<unsigned char const ,tagSKILLPOINT *> >,0> >::_Node *><std::pair<unsigned char const ,tagSKILLPOINT *> >, COMDAT
; _this$ = ecx

; 120  : 		allocator(const allocator<_Other>&)

  00000	8b c1		 mov	 eax, ecx

; 121  : 		{	// construct from a related allocator (do nothing)
; 122  : 		}

  00002	c2 04 00	 ret	 4
??$?0U?$pair@$$CBEPAUtagSKILLPOINT@@@std@@@?$allocator@PAU_Node@?$_Tree_nod@V?$_Tmap_traits@EPAUtagSKILLPOINT@@U?$less@E@std@@V?$allocator@U?$pair@$$CBEPAUtagSKILLPOINT@@@std@@@3@$0A@@std@@@std@@@std@@QAE@ABV?$allocator@U?$pair@$$CBEPAUtagSKILLPOINT@@@std@@@1@@Z ENDP ; std::allocator<std::_Tree_nod<std::_Tmap_traits<unsigned char,tagSKILLPOINT *,std::less<unsigned char>,std::allocator<std::pair<unsigned char const ,tagSKILLPOINT *> >,0> >::_Node *>::allocator<std::_Tree_nod<std::_Tmap_traits<unsigned char,tagSKILLPOINT *,std::less<unsigned char>,std::allocator<std::pair<unsigned char const ,tagSKILLPOINT *> >,0> >::_Node *><std::pair<unsigned char const ,tagSKILLPOINT *> >
_TEXT	ENDS
PUBLIC	??$?0U?$pair@$$CBEPAUtagSKILLPOINT@@@std@@@?$allocator@U_Node@?$_Tree_nod@V?$_Tmap_traits@EPAUtagSKILLPOINT@@U?$less@E@std@@V?$allocator@U?$pair@$$CBEPAUtagSKILLPOINT@@@std@@@3@$0A@@std@@@std@@@std@@QAE@ABV?$allocator@U?$pair@$$CBEPAUtagSKILLPOINT@@@std@@@1@@Z ; std::allocator<std::_Tree_nod<std::_Tmap_traits<unsigned char,tagSKILLPOINT *,std::less<unsigned char>,std::allocator<std::pair<unsigned char const ,tagSKILLPOINT *> >,0> >::_Node>::allocator<std::_Tree_nod<std::_Tmap_traits<unsigned char,tagSKILLPOINT *,std::less<unsigned char>,std::allocator<std::pair<unsigned char const ,tagSKILLPOINT *> >,0> >::_Node><std::pair<unsigned char const ,tagSKILLPOINT *> >
; Function compile flags: /Ogty
;	COMDAT ??$?0U?$pair@$$CBEPAUtagSKILLPOINT@@@std@@@?$allocator@U_Node@?$_Tree_nod@V?$_Tmap_traits@EPAUtagSKILLPOINT@@U?$less@E@std@@V?$allocator@U?$pair@$$CBEPAUtagSKILLPOINT@@@std@@@3@$0A@@std@@@std@@@std@@QAE@ABV?$allocator@U?$pair@$$CBEPAUtagSKILLPOINT@@@std@@@1@@Z
_TEXT	SEGMENT
___formal$ = 8						; size = 4
??$?0U?$pair@$$CBEPAUtagSKILLPOINT@@@std@@@?$allocator@U_Node@?$_Tree_nod@V?$_Tmap_traits@EPAUtagSKILLPOINT@@U?$less@E@std@@V?$allocator@U?$pair@$$CBEPAUtagSKILLPOINT@@@std@@@3@$0A@@std@@@std@@@std@@QAE@ABV?$allocator@U?$pair@$$CBEPAUtagSKILLPOINT@@@std@@@1@@Z PROC NEAR ; std::allocator<std::_Tree_nod<std::_Tmap_traits<unsigned char,tagSKILLPOINT *,std::less<unsigned char>,std::allocator<std::pair<unsigned char const ,tagSKILLPOINT *> >,0> >::_Node>::allocator<std::_Tree_nod<std::_Tmap_traits<unsigned char,tagSKILLPOINT *,std::less<unsigned char>,std::allocator<std::pair<unsigned char const ,tagSKILLPOINT *> >,0> >::_Node><std::pair<unsigned char const ,tagSKILLPOINT *> >, COMDAT
; _this$ = ecx

; 120  : 		allocator(const allocator<_Other>&)

  00000	8b c1		 mov	 eax, ecx

; 121  : 		{	// construct from a related allocator (do nothing)
; 122  : 		}

  00002	c2 04 00	 ret	 4
??$?0U?$pair@$$CBEPAUtagSKILLPOINT@@@std@@@?$allocator@U_Node@?$_Tree_nod@V?$_Tmap_traits@EPAUtagSKILLPOINT@@U?$less@E@std@@V?$allocator@U?$pair@$$CBEPAUtagSKILLPOINT@@@std@@@3@$0A@@std@@@std@@@std@@QAE@ABV?$allocator@U?$pair@$$CBEPAUtagSKILLPOINT@@@std@@@1@@Z ENDP ; std::allocator<std::_Tree_nod<std::_Tmap_traits<unsigned char,tagSKILLPOINT *,std::less<unsigned char>,std::allocator<std::pair<unsigned char const ,tagSKILLPOINT *> >,0> >::_Node>::allocator<std::_Tree_nod<std::_Tmap_traits<unsigned char,tagSKILLPOINT *,std::less<unsigned char>,std::allocator<std::pair<unsigned char const ,tagSKILLPOINT *> >,0> >::_Node><std::pair<unsigned char const ,tagSKILLPOINT *> >
_TEXT	ENDS
PUBLIC	??$_Allocate@U_Node@?$_Tree_nod@V?$_Tmap_traits@EPAUtagSKILLPOINT@@U?$less@E@std@@V?$allocator@U?$pair@$$CBEPAUtagSKILLPOINT@@@std@@@3@$0A@@std@@@std@@@std@@YAPAU_Node@?$_Tree_nod@V?$_Tmap_traits@EPAUtagSKILLPOINT@@U?$less@E@std@@V?$allocator@U?$pair@$$CBEPAUtagSKILLPOINT@@@std@@@3@$0A@@std@@@0@IPAU120@@Z ; std::_Allocate<std::_Tree_nod<std::_Tmap_traits<unsigned char,tagSKILLPOINT *,std::less<unsigned char>,std::allocator<std::pair<unsigned char const ,tagSKILLPOINT *> >,0> >::_Node>
; Function compile flags: /Ogty
;	COMDAT ??$_Allocate@U_Node@?$_Tree_nod@V?$_Tmap_traits@EPAUtagSKILLPOINT@@U?$less@E@std@@V?$allocator@U?$pair@$$CBEPAUtagSKILLPOINT@@@std@@@3@$0A@@std@@@std@@@std@@YAPAU_Node@?$_Tree_nod@V?$_Tmap_traits@EPAUtagSKILLPOINT@@U?$less@E@std@@V?$allocator@U?$pair@$$CBEPAUtagSKILLPOINT@@@std@@@3@$0A@@std@@@0@IPAU120@@Z
_TEXT	SEGMENT
__Count$ = 8						; size = 4
___formal$ = 12						; size = 4
??$_Allocate@U_Node@?$_Tree_nod@V?$_Tmap_traits@EPAUtagSKILLPOINT@@U?$less@E@std@@V?$allocator@U?$pair@$$CBEPAUtagSKILLPOINT@@@std@@@3@$0A@@std@@@std@@@std@@YAPAU_Node@?$_Tree_nod@V?$_Tmap_traits@EPAUtagSKILLPOINT@@U?$less@E@std@@V?$allocator@U?$pair@$$CBEPAUtagSKILLPOINT@@@std@@@3@$0A@@std@@@0@IPAU120@@Z PROC NEAR ; std::_Allocate<std::_Tree_nod<std::_Tmap_traits<unsigned char,tagSKILLPOINT *,std::less<unsigned char>,std::allocator<std::pair<unsigned char const ,tagSKILLPOINT *> >,0> >::_Node>, COMDAT

; 34   : 	return ((_Ty _FARQ *)operator new(_Count * sizeof (_Ty)));

  00000	8b 44 24 04	 mov	 eax, DWORD PTR __Count$[esp-4]
  00004	8d 04 40	 lea	 eax, DWORD PTR [eax+eax*2]
  00007	c1 e0 03	 shl	 eax, 3
  0000a	50		 push	 eax
  0000b	e8 00 00 00 00	 call	 ??2@YAPAXI@Z		; operator new
  00010	83 c4 04	 add	 esp, 4

; 35   : 	}

  00013	c3		 ret	 0
??$_Allocate@U_Node@?$_Tree_nod@V?$_Tmap_traits@EPAUtagSKILLPOINT@@U?$less@E@std@@V?$allocator@U?$pair@$$CBEPAUtagSKILLPOINT@@@std@@@3@$0A@@std@@@std@@@std@@YAPAU_Node@?$_Tree_nod@V?$_Tmap_traits@EPAUtagSKILLPOINT@@U?$less@E@std@@V?$allocator@U?$pair@$$CBEPAUtagSKILLPOINT@@@std@@@3@$0A@@std@@@0@IPAU120@@Z ENDP ; std::_Allocate<std::_Tree_nod<std::_Tmap_traits<unsigned char,tagSKILLPOINT *,std::less<unsigned char>,std::allocator<std::pair<unsigned char const ,tagSKILLPOINT *> >,0> >::_Node>
_TEXT	ENDS
PUBLIC	??$_Ptr_cat@UtagTSKILLDATA@@@std@@YA?AU_Scalar_ptr_iterator_tag@0@PAPAUtagTSKILLDATA@@0@Z ; std::_Ptr_cat<tagTSKILLDATA>
; Function compile flags: /Ogty
; File c:\program files (x86)\microsoft visual studio .net 2003\vc7\include\xutility
;	COMDAT ??$_Ptr_cat@UtagTSKILLDATA@@@std@@YA?AU_Scalar_ptr_iterator_tag@0@PAPAUtagTSKILLDATA@@0@Z
_TEXT	SEGMENT
__Cat$ = -1						; size = 1
___formal$ = 8						; size = 4
___formal$ = 12						; size = 4
??$_Ptr_cat@UtagTSKILLDATA@@@std@@YA?AU_Scalar_ptr_iterator_tag@0@PAPAUtagTSKILLDATA@@0@Z PROC NEAR ; std::_Ptr_cat<tagTSKILLDATA>, COMDAT

; 218  : 	{	// return pointer category from pointer to pointer arguments

  00000	51		 push	 ecx

; 219  : 	_Scalar_ptr_iterator_tag _Cat;
; 220  : 	return (_Cat);

  00001	8a 44 24 03	 mov	 al, BYTE PTR __Cat$[esp+4]

; 221  : 	}

  00005	59		 pop	 ecx
  00006	c3		 ret	 0
??$_Ptr_cat@UtagTSKILLDATA@@@std@@YA?AU_Scalar_ptr_iterator_tag@0@PAPAUtagTSKILLDATA@@0@Z ENDP ; std::_Ptr_cat<tagTSKILLDATA>
_TEXT	ENDS
PUBLIC	??$_Destroy_range@PAUtagTSKILLDATA@@V?$allocator@PAUtagTSKILLDATA@@@std@@@std@@YAXPAPAUtagTSKILLDATA@@0AAV?$allocator@PAUtagTSKILLDATA@@@0@U_Scalar_ptr_iterator_tag@0@@Z ; std::_Destroy_range<tagTSKILLDATA *,std::allocator<tagTSKILLDATA *> >
; Function compile flags: /Ogty
; File c:\program files (x86)\microsoft visual studio .net 2003\vc7\include\xmemory
;	COMDAT ??$_Destroy_range@PAUtagTSKILLDATA@@V?$allocator@PAUtagTSKILLDATA@@@std@@@std@@YAXPAPAUtagTSKILLDATA@@0AAV?$allocator@PAUtagTSKILLDATA@@@0@U_Scalar_ptr_iterator_tag@0@@Z
_TEXT	SEGMENT
__First$ = 8						; size = 4
__Last$ = 12						; size = 4
__Al$ = 16						; size = 4
___formal$ = 20						; size = 1
??$_Destroy_range@PAUtagTSKILLDATA@@V?$allocator@PAUtagTSKILLDATA@@@std@@@std@@YAXPAPAUtagTSKILLDATA@@0AAV?$allocator@PAUtagTSKILLDATA@@@0@U_Scalar_ptr_iterator_tag@0@@Z PROC NEAR ; std::_Destroy_range<tagTSKILLDATA *,std::allocator<tagTSKILLDATA *> >, COMDAT

; 234  : 	}

  00000	c3		 ret	 0
??$_Destroy_range@PAUtagTSKILLDATA@@V?$allocator@PAUtagTSKILLDATA@@@std@@@std@@YAXPAPAUtagTSKILLDATA@@0AAV?$allocator@PAUtagTSKILLDATA@@@0@U_Scalar_ptr_iterator_tag@0@@Z ENDP ; std::_Destroy_range<tagTSKILLDATA *,std::allocator<tagTSKILLDATA *> >
_TEXT	ENDS
PUBLIC	??2@YAPAXIPAX@Z					; operator new
; Function compile flags: /Ogty
; File c:\program files (x86)\microsoft visual studio .net 2003\vc7\include\new.h
;	COMDAT ??2@YAPAXIPAX@Z
_TEXT	SEGMENT
___formal$ = 8						; size = 4
__P$ = 12						; size = 4
??2@YAPAXIPAX@Z PROC NEAR				; operator new, COMDAT

; 109  :         {return (_P); }

  00000	8b 44 24 08	 mov	 eax, DWORD PTR __P$[esp-4]
  00004	c3		 ret	 0
??2@YAPAXIPAX@Z ENDP					; operator new
_TEXT	ENDS
PUBLIC	?assign@?$char_traits@D@std@@SAXAADABD@Z	; std::char_traits<char>::assign
; Function compile flags: /Ogty
; File c:\program files (x86)\microsoft visual studio .net 2003\vc7\include\iosfwd
;	COMDAT ?assign@?$char_traits@D@std@@SAXAADABD@Z
_TEXT	SEGMENT
__Left$ = 8						; size = 4
__Right$ = 12						; size = 4
?assign@?$char_traits@D@std@@SAXAADABD@Z PROC NEAR	; std::char_traits<char>::assign, COMDAT

; 331  : 		_Left = _Right;

  00000	8b 44 24 08	 mov	 eax, DWORD PTR __Right$[esp-4]
  00004	8a 08		 mov	 cl, BYTE PTR [eax]
  00006	8b 54 24 04	 mov	 edx, DWORD PTR __Left$[esp-4]
  0000a	88 0a		 mov	 BYTE PTR [edx], cl

; 332  : 		}

  0000c	c3		 ret	 0
?assign@?$char_traits@D@std@@SAXAADABD@Z ENDP		; std::char_traits<char>::assign
_TEXT	ENDS
PUBLIC	?length@?$char_traits@D@std@@SAIPBD@Z		; std::char_traits<char>::length
; Function compile flags: /Ogty
;	COMDAT ?length@?$char_traits@D@std@@SAIPBD@Z
_TEXT	SEGMENT
__First$ = 8						; size = 4
?length@?$char_traits@D@std@@SAIPBD@Z PROC NEAR		; std::char_traits<char>::length, COMDAT

; 352  : 		return (::strlen(_First));

  00000	8b 44 24 04	 mov	 eax, DWORD PTR __First$[esp-4]
  00004	8d 50 01	 lea	 edx, DWORD PTR [eax+1]
$L154096:
  00007	8a 08		 mov	 cl, BYTE PTR [eax]
  00009	40		 inc	 eax
  0000a	84 c9		 test	 cl, cl
  0000c	75 f9		 jne	 SHORT $L154096
  0000e	2b c2		 sub	 eax, edx

; 353  : 		}

  00010	c3		 ret	 0
?length@?$char_traits@D@std@@SAIPBD@Z ENDP		; std::char_traits<char>::length
_TEXT	ENDS
PUBLIC	?copy@?$char_traits@D@std@@SAPADPADPBDI@Z	; std::char_traits<char>::copy
; Function compile flags: /Ogty
;	COMDAT ?copy@?$char_traits@D@std@@SAPADPADPBDI@Z
_TEXT	SEGMENT
__First1$ = 8						; size = 4
__First2$ = 12						; size = 4
__Count$ = 16						; size = 4
?copy@?$char_traits@D@std@@SAPADPADPBDI@Z PROC NEAR	; std::char_traits<char>::copy, COMDAT

; 358  : 		return ((_Elem *)::memcpy(_First1, _First2, _Count));

  00000	8b 4c 24 0c	 mov	 ecx, DWORD PTR __Count$[esp-4]
  00004	56		 push	 esi
  00005	8b 74 24 0c	 mov	 esi, DWORD PTR __First2$[esp]
  00009	57		 push	 edi
  0000a	8b 7c 24 0c	 mov	 edi, DWORD PTR __First1$[esp+4]
  0000e	8b c1		 mov	 eax, ecx
  00010	8b d7		 mov	 edx, edi
  00012	c1 e9 02	 shr	 ecx, 2
  00015	f3 a5		 rep movsd
  00017	8b c8		 mov	 ecx, eax
  00019	83 e1 03	 and	 ecx, 3
  0001c	f3 a4		 rep movsb
  0001e	5f		 pop	 edi
  0001f	8b c2		 mov	 eax, edx
  00021	5e		 pop	 esi

; 359  : 		}

  00022	c3		 ret	 0
?copy@?$char_traits@D@std@@SAPADPADPBDI@Z ENDP		; std::char_traits<char>::copy
_TEXT	ENDS
PUBLIC	?move@?$char_traits@D@std@@SAPADPADPBDI@Z	; std::char_traits<char>::move
EXTRN	_memmove:NEAR
; Function compile flags: /Ogty
;	COMDAT ?move@?$char_traits@D@std@@SAPADPADPBDI@Z
_TEXT	SEGMENT
__First1$ = 8						; size = 4
__First2$ = 12						; size = 4
__Count$ = 16						; size = 4
?move@?$char_traits@D@std@@SAPADPADPBDI@Z PROC NEAR	; std::char_traits<char>::move, COMDAT

; 370  : 		return ((_Elem *)::memmove(_First1, _First2, _Count));

  00000	e9 00 00 00 00	 jmp	 _memmove
?move@?$char_traits@D@std@@SAPADPADPBDI@Z ENDP		; std::char_traits<char>::move
_TEXT	ENDS
PUBLIC	?size@?$basic_string@DU?$char_traits@D@std@@V?$allocator@D@2@@std@@QBEIXZ ; std::basic_string<char,std::char_traits<char>,std::allocator<char> >::size
; Function compile flags: /Ogty
; File c:\program files (x86)\microsoft visual studio .net 2003\vc7\include\xstring
;	COMDAT ?size@?$basic_string@DU?$char_traits@D@std@@V?$allocator@D@2@@std@@QBEIXZ
_TEXT	SEGMENT
?size@?$basic_string@DU?$char_traits@D@std@@V?$allocator@D@2@@std@@QBEIXZ PROC NEAR ; std::basic_string<char,std::char_traits<char>,std::allocator<char> >::size, COMDAT
; _this$ = ecx

; 1109 : 		return (_Mysize);

  00000	8b 41 14	 mov	 eax, DWORD PTR [ecx+20]

; 1110 : 		}

  00003	c3		 ret	 0
?size@?$basic_string@DU?$char_traits@D@std@@V?$allocator@D@2@@std@@QBEIXZ ENDP ; std::basic_string<char,std::char_traits<char>,std::allocator<char> >::size
_TEXT	ENDS
PUBLIC	?_Myptr@?$basic_string@DU?$char_traits@D@std@@V?$allocator@D@2@@std@@QBEPBDXZ ; std::basic_string<char,std::char_traits<char>,std::allocator<char> >::_Myptr
; Function compile flags: /Ogty
;	COMDAT ?_Myptr@?$basic_string@DU?$char_traits@D@std@@V?$allocator@D@2@@std@@QBEPBDXZ
_TEXT	SEGMENT
?_Myptr@?$basic_string@DU?$char_traits@D@std@@V?$allocator@D@2@@std@@QBEPBDXZ PROC NEAR ; std::basic_string<char,std::char_traits<char>,std::allocator<char> >::_Myptr, COMDAT
; _this$ = ecx

; 1537 : 		return (_BUF_SIZE <= _Myres ? _Bx._Ptr : _Bx._Buf);

  00000	83 79 18 10	 cmp	 DWORD PTR [ecx+24], 16	; 00000010H
  00004	72 04		 jb	 SHORT $L154110
  00006	8b 41 04	 mov	 eax, DWORD PTR [ecx+4]

; 1538 : 		}

  00009	c3		 ret	 0
$L154110:

; 1537 : 		return (_BUF_SIZE <= _Myres ? _Bx._Ptr : _Bx._Buf);

  0000a	8d 41 04	 lea	 eax, DWORD PTR [ecx+4]

; 1538 : 		}

  0000d	c3		 ret	 0
?_Myptr@?$basic_string@DU?$char_traits@D@std@@V?$allocator@D@2@@std@@QBEPBDXZ ENDP ; std::basic_string<char,std::char_traits<char>,std::allocator<char> >::_Myptr
_TEXT	ENDS
PUBLIC	??0?$allocator@D@std@@QAE@ABV01@@Z		; std::allocator<char>::allocator<char>
; Function compile flags: /Ogty
; File c:\program files (x86)\microsoft visual studio .net 2003\vc7\include\xmemory
;	COMDAT ??0?$allocator@D@std@@QAE@ABV01@@Z
_TEXT	SEGMENT
___formal$ = 8						; size = 4
??0?$allocator@D@std@@QAE@ABV01@@Z PROC NEAR		; std::allocator<char>::allocator<char>, COMDAT
; _this$ = ecx

; 115  : 	allocator(const allocator<_Ty>&)

  00000	8b c1		 mov	 eax, ecx

; 116  : 		{	// construct by copying (do nothing)
; 117  : 		}

  00002	c2 04 00	 ret	 4
??0?$allocator@D@std@@QAE@ABV01@@Z ENDP			; std::allocator<char>::allocator<char>
_TEXT	ENDS
PUBLIC	?_Myptr@?$basic_string@DU?$char_traits@D@std@@V?$allocator@D@2@@std@@QAEPADXZ ; std::basic_string<char,std::char_traits<char>,std::allocator<char> >::_Myptr
; Function compile flags: /Ogty
; File c:\program files (x86)\microsoft visual studio .net 2003\vc7\include\xstring
;	COMDAT ?_Myptr@?$basic_string@DU?$char_traits@D@std@@V?$allocator@D@2@@std@@QAEPADXZ
_TEXT	SEGMENT
?_Myptr@?$basic_string@DU?$char_traits@D@std@@V?$allocator@D@2@@std@@QAEPADXZ PROC NEAR ; std::basic_string<char,std::char_traits<char>,std::allocator<char> >::_Myptr, COMDAT
; _this$ = ecx

; 1532 : 		return (_BUF_SIZE <= _Myres ? _Bx._Ptr : _Bx._Buf);

  00000	83 79 18 10	 cmp	 DWORD PTR [ecx+24], 16	; 00000010H
  00004	72 04		 jb	 SHORT $L154118
  00006	8b 41 04	 mov	 eax, DWORD PTR [ecx+4]

; 1533 : 		}

  00009	c3		 ret	 0
$L154118:

; 1532 : 		return (_BUF_SIZE <= _Myres ? _Bx._Ptr : _Bx._Buf);

  0000a	8d 41 04	 lea	 eax, DWORD PTR [ecx+4]

; 1533 : 		}

  0000d	c3		 ret	 0
?_Myptr@?$basic_string@DU?$char_traits@D@std@@V?$allocator@D@2@@std@@QAEPADXZ ENDP ; std::basic_string<char,std::char_traits<char>,std::allocator<char> >::_Myptr
_TEXT	ENDS
PUBLIC	?deallocate@?$allocator@D@std@@QAEXPADI@Z	; std::allocator<char>::deallocate
; Function compile flags: /Ogty
; File c:\program files (x86)\microsoft visual studio .net 2003\vc7\include\xmemory
;	COMDAT ?deallocate@?$allocator@D@std@@QAEXPADI@Z
_TEXT	SEGMENT
__Ptr$ = 8						; size = 4
___formal$ = 12						; size = 4
?deallocate@?$allocator@D@std@@QAEXPADI@Z PROC NEAR	; std::allocator<char>::deallocate, COMDAT
; _this$ = ecx

; 132  : 		operator delete(_Ptr);

  00000	8b 44 24 04	 mov	 eax, DWORD PTR __Ptr$[esp-4]
  00004	50		 push	 eax
  00005	e8 00 00 00 00	 call	 ??3@YAXPAX@Z		; operator delete
  0000a	59		 pop	 ecx

; 133  : 		}

  0000b	c2 08 00	 ret	 8
?deallocate@?$allocator@D@std@@QAEXPADI@Z ENDP		; std::allocator<char>::deallocate
_TEXT	ENDS
PUBLIC	?_Inside@?$basic_string@DU?$char_traits@D@std@@V?$allocator@D@2@@std@@IAE_NPBD@Z ; std::basic_string<char,std::char_traits<char>,std::allocator<char> >::_Inside
; Function compile flags: /Ogty
; File c:\program files (x86)\microsoft visual studio .net 2003\vc7\include\xstring
;	COMDAT ?_Inside@?$basic_string@DU?$char_traits@D@std@@V?$allocator@D@2@@std@@IAE_NPBD@Z
_TEXT	SEGMENT
__Ptr$ = 8						; size = 4
?_Inside@?$basic_string@DU?$char_traits@D@std@@V?$allocator@D@2@@std@@IAE_NPBD@Z PROC NEAR ; std::basic_string<char,std::char_traits<char>,std::allocator<char> >::_Inside, COMDAT
; _this$ = ecx

; 1494 : 		{	// test if _Ptr points inside string

  00000	56		 push	 esi

; 1495 : 		if (_Ptr < _Myptr() || _Myptr() + _Mysize <= _Ptr)

  00001	8b 71 18	 mov	 esi, DWORD PTR [ecx+24]
  00004	83 fe 10	 cmp	 esi, 16			; 00000010H
  00007	57		 push	 edi
  00008	8d 41 04	 lea	 eax, DWORD PTR [ecx+4]
  0000b	72 04		 jb	 SHORT $L154131
  0000d	8b 10		 mov	 edx, DWORD PTR [eax]
  0000f	eb 02		 jmp	 SHORT $L154132
$L154131:
  00011	8b d0		 mov	 edx, eax
$L154132:
  00013	8b 7c 24 0c	 mov	 edi, DWORD PTR __Ptr$[esp+4]
  00017	3b fa		 cmp	 edi, edx
  00019	72 17		 jb	 SHORT $L150517
  0001b	83 fe 10	 cmp	 esi, 16			; 00000010H
  0001e	72 02		 jb	 SHORT $L154139
  00020	8b 00		 mov	 eax, DWORD PTR [eax]
$L154139:
  00022	8b 49 14	 mov	 ecx, DWORD PTR [ecx+20]
  00025	03 c8		 add	 ecx, eax
  00027	3b cf		 cmp	 ecx, edi
  00029	76 07		 jbe	 SHORT $L150517
  0002b	5f		 pop	 edi

; 1497 : 		else
; 1498 : 			return (true);

  0002c	b0 01		 mov	 al, 1
  0002e	5e		 pop	 esi

; 1499 : 		}

  0002f	c2 04 00	 ret	 4
$L150517:
  00032	5f		 pop	 edi

; 1496 : 			return (false);	// don't ask

  00033	32 c0		 xor	 al, al
  00035	5e		 pop	 esi

; 1499 : 		}

  00036	c2 04 00	 ret	 4
?_Inside@?$basic_string@DU?$char_traits@D@std@@V?$allocator@D@2@@std@@IAE_NPBD@Z ENDP ; std::basic_string<char,std::char_traits<char>,std::allocator<char> >::_Inside
_TEXT	ENDS
PUBLIC	??0?$allocator@D@std@@QAE@XZ			; std::allocator<char>::allocator<char>
; Function compile flags: /Ogty
; File c:\program files (x86)\microsoft visual studio .net 2003\vc7\include\xmemory
;	COMDAT ??0?$allocator@D@std@@QAE@XZ
_TEXT	SEGMENT
??0?$allocator@D@std@@QAE@XZ PROC NEAR			; std::allocator<char>::allocator<char>, COMDAT
; _this$ = ecx

; 111  : 	allocator()

  00000	8b c1		 mov	 eax, ecx

; 112  : 		{	// construct default allocator (do nothing)
; 113  : 		}

  00002	c3		 ret	 0
??0?$allocator@D@std@@QAE@XZ ENDP			; std::allocator<char>::allocator<char>
_TEXT	ENDS
PUBLIC	?max_size@?$allocator@D@std@@QBEIXZ		; std::allocator<char>::max_size
; Function compile flags: /Ogty
;	COMDAT ?max_size@?$allocator@D@std@@QBEIXZ
_TEXT	SEGMENT
?max_size@?$allocator@D@std@@QBEIXZ PROC NEAR		; std::allocator<char>::max_size, COMDAT
; _this$ = ecx

; 157  : 		_SIZT _Count = (_SIZT)(-1) / sizeof (_Ty);
; 158  : 		return (0 < _Count ? _Count : 1);

  00000	83 c8 ff	 or	 eax, -1

; 159  : 		}

  00003	c3		 ret	 0
?max_size@?$allocator@D@std@@QBEIXZ ENDP		; std::allocator<char>::max_size
_TEXT	ENDS
PUBLIC	__real@3f800000
PUBLIC	??$_Pow_int@M@@YAMMH@Z				; _Pow_int<float>
;	COMDAT __real@3f800000
; File c:\program files (x86)\microsoft visual studio .net 2003\vc7\include\math.h
CONST	SEGMENT
__real@3f800000 DD 03f800000r			; 1
; Function compile flags: /Ogty
CONST	ENDS
;	COMDAT ??$_Pow_int@M@@YAMMH@Z
_TEXT	SEGMENT
__X$ = 8						; size = 4
__Y$ = 12						; size = 4
??$_Pow_int@M@@YAMMH@Z PROC NEAR			; _Pow_int<float>, COMDAT

; 518  :         if (_Y >= 0)

  00000	8b 4c 24 08	 mov	 ecx, DWORD PTR __Y$[esp-4]
  00004	85 c9		 test	 ecx, ecx

; 519  :                 _N = _Y;

  00006	8b c1		 mov	 eax, ecx

; 520  :         else

  00008	7d 02		 jge	 SHORT $L151183

; 521  :                 _N = -_Y;

  0000a	f7 d8		 neg	 eax
$L151183:

; 522  :         for (_Ty _Z = _Ty(1); ; _X *= _X)

  0000c	d9 05 00 00 00
	00		 fld	 DWORD PTR __real@3f800000
  00012	d9 44 24 04	 fld	 DWORD PTR __X$[esp-4]
$L151185:

; 523  :                 {if ((_N & 1) != 0)

  00016	a8 01		 test	 al, 1
  00018	74 06		 je	 SHORT $L151188

; 524  :                         _Z *= _X;

  0001a	d9 c9		 fxch	 ST(1)
  0001c	d8 c9		 fmul	 ST(0), ST(1)
  0001e	d9 c9		 fxch	 ST(1)
$L151188:

; 525  :                 if ((_N >>= 1) == 0)

  00020	d1 e8		 shr	 eax, 1
  00022	85 c0		 test	 eax, eax
  00024	74 06		 je	 SHORT $L154155
  00026	d9 c0		 fld	 ST(0)
  00028	de c9		 fmulp	 ST(1), ST(0)
  0002a	eb ea		 jmp	 SHORT $L151185
$L154155:

; 526  :                         return (_Y < 0 ? _Ty(1) / _Z : _Z); }}

  0002c	85 c9		 test	 ecx, ecx
  0002e	dd d8		 fstp	 ST(0)
  00030	7d 06		 jge	 SHORT $L154152
  00032	d8 3d 00 00 00
	00		 fdivr	 DWORD PTR __real@3f800000
$L154152:
  00038	c3		 ret	 0
??$_Pow_int@M@@YAMMH@Z ENDP				; _Pow_int<float>
_TEXT	ENDS
PUBLIC	??$swap@D@std@@YAXAAD0@Z			; std::swap<char>
; Function compile flags: /Ogty
; File c:\program files (x86)\microsoft visual studio .net 2003\vc7\include\utility
;	COMDAT ??$swap@D@std@@YAXAAD0@Z
_TEXT	SEGMENT
__Left$ = 8						; size = 4
__Right$ = 12						; size = 4
??$swap@D@std@@YAXAAD0@Z PROC NEAR			; std::swap<char>, COMDAT

; 15   : 	_Ty _Tmp = _Left;

  00000	8b 44 24 04	 mov	 eax, DWORD PTR __Left$[esp-4]
  00004	8a 08		 mov	 cl, BYTE PTR [eax]
  00006	56		 push	 esi

; 16   : 	_Left = _Right, _Right = _Tmp;

  00007	8b 74 24 0c	 mov	 esi, DWORD PTR __Right$[esp]
  0000b	8a 16		 mov	 dl, BYTE PTR [esi]
  0000d	88 10		 mov	 BYTE PTR [eax], dl
  0000f	88 0e		 mov	 BYTE PTR [esi], cl
  00011	5e		 pop	 esi

; 17   : 	}

  00012	c3		 ret	 0
??$swap@D@std@@YAXAAD0@Z ENDP				; std::swap<char>
_TEXT	ENDS
PUBLIC	??$_Allocate@D@std@@YAPADIPAD@Z			; std::_Allocate<char>
; Function compile flags: /Ogty
; File c:\program files (x86)\microsoft visual studio .net 2003\vc7\include\xmemory
;	COMDAT ??$_Allocate@D@std@@YAPADIPAD@Z
_TEXT	SEGMENT
__Count$ = 8						; size = 4
___formal$ = 12						; size = 4
??$_Allocate@D@std@@YAPADIPAD@Z PROC NEAR		; std::_Allocate<char>, COMDAT

; 34   : 	return ((_Ty _FARQ *)operator new(_Count * sizeof (_Ty)));

  00000	8b 44 24 04	 mov	 eax, DWORD PTR __Count$[esp-4]
  00004	50		 push	 eax
  00005	e8 00 00 00 00	 call	 ??2@YAPAXI@Z		; operator new
  0000a	83 c4 04	 add	 esp, 4

; 35   : 	}

  0000d	c3		 ret	 0
??$_Allocate@D@std@@YAPADIPAD@Z ENDP			; std::_Allocate<char>
_TEXT	ENDS
PUBLIC	??0iterator@?$_Tree@V?$_Tmap_traits@EPAUtagSKILLPOINT@@U?$less@E@std@@V?$allocator@U?$pair@$$CBEPAUtagSKILLPOINT@@@std@@@3@$0A@@std@@@std@@QAE@XZ ; std::_Tree<std::_Tmap_traits<unsigned char,tagSKILLPOINT *,std::less<unsigned char>,std::allocator<std::pair<unsigned char const ,tagSKILLPOINT *> >,0> >::iterator::iterator
; Function compile flags: /Ogty
; File c:\program files (x86)\microsoft visual studio .net 2003\vc7\include\xtree
;	COMDAT ??0iterator@?$_Tree@V?$_Tmap_traits@EPAUtagSKILLPOINT@@U?$less@E@std@@V?$allocator@U?$pair@$$CBEPAUtagSKILLPOINT@@@std@@@3@$0A@@std@@@std@@QAE@XZ
_TEXT	SEGMENT
??0iterator@?$_Tree@V?$_Tmap_traits@EPAUtagSKILLPOINT@@U?$less@E@std@@V?$allocator@U?$pair@$$CBEPAUtagSKILLPOINT@@@std@@@3@$0A@@std@@@std@@QAE@XZ PROC NEAR ; std::_Tree<std::_Tmap_traits<unsigned char,tagSKILLPOINT *,std::less<unsigned char>,std::allocator<std::pair<unsigned char const ,tagSKILLPOINT *> >,0> >::iterator::iterator, COMDAT
; _this$ = ecx

; 304  : 		iterator()

  00000	8b c1		 mov	 eax, ecx
  00002	c7 00 00 00 00
	00		 mov	 DWORD PTR [eax], 0

; 305  : 			{	// construct with null node pointer
; 306  : 			}

  00008	c3		 ret	 0
??0iterator@?$_Tree@V?$_Tmap_traits@EPAUtagSKILLPOINT@@U?$less@E@std@@V?$allocator@U?$pair@$$CBEPAUtagSKILLPOINT@@@std@@@3@$0A@@std@@@std@@QAE@XZ ENDP ; std::_Tree<std::_Tmap_traits<unsigned char,tagSKILLPOINT *,std::less<unsigned char>,std::allocator<std::pair<unsigned char const ,tagSKILLPOINT *> >,0> >::iterator::iterator
_TEXT	ENDS
PUBLIC	??9const_iterator@?$_Tree@V?$_Tmap_traits@EPAUtagSKILLPOINT@@U?$less@E@std@@V?$allocator@U?$pair@$$CBEPAUtagSKILLPOINT@@@std@@@3@$0A@@std@@@std@@QBE_NABV012@@Z ; std::_Tree<std::_Tmap_traits<unsigned char,tagSKILLPOINT *,std::less<unsigned char>,std::allocator<std::pair<unsigned char const ,tagSKILLPOINT *> >,0> >::const_iterator::operator!=
; Function compile flags: /Ogty
;	COMDAT ??9const_iterator@?$_Tree@V?$_Tmap_traits@EPAUtagSKILLPOINT@@U?$less@E@std@@V?$allocator@U?$pair@$$CBEPAUtagSKILLPOINT@@@std@@@3@$0A@@std@@@std@@QBE_NABV012@@Z
_TEXT	SEGMENT
__Right$ = 8						; size = 4
??9const_iterator@?$_Tree@V?$_Tmap_traits@EPAUtagSKILLPOINT@@U?$less@E@std@@V?$allocator@U?$pair@$$CBEPAUtagSKILLPOINT@@@std@@@3@$0A@@std@@@std@@QBE_NABV012@@Z PROC NEAR ; std::_Tree<std::_Tmap_traits<unsigned char,tagSKILLPOINT *,std::less<unsigned char>,std::allocator<std::pair<unsigned char const ,tagSKILLPOINT *> >,0> >::const_iterator::operator!=, COMDAT
; _this$ = ecx

; 246  : 			return (!(*this == _Right));

  00000	8b 01		 mov	 eax, DWORD PTR [ecx]
  00002	8b 54 24 04	 mov	 edx, DWORD PTR __Right$[esp-4]
  00006	56		 push	 esi
  00007	8b 32		 mov	 esi, DWORD PTR [edx]
  00009	33 c9		 xor	 ecx, ecx
  0000b	3b c6		 cmp	 eax, esi
  0000d	0f 95 c1	 setne	 cl
  00010	8a c1		 mov	 al, cl
  00012	5e		 pop	 esi

; 247  : 			}

  00013	c2 04 00	 ret	 4
??9const_iterator@?$_Tree@V?$_Tmap_traits@EPAUtagSKILLPOINT@@U?$less@E@std@@V?$allocator@U?$pair@$$CBEPAUtagSKILLPOINT@@@std@@@3@$0A@@std@@@std@@QBE_NABV012@@Z ENDP ; std::_Tree<std::_Tmap_traits<unsigned char,tagSKILLPOINT *,std::less<unsigned char>,std::allocator<std::pair<unsigned char const ,tagSKILLPOINT *> >,0> >::const_iterator::operator!=
_TEXT	ENDS
PUBLIC	??0?$_Vector_val@PAUtagTSKILLDATA@@V?$allocator@PAUtagTSKILLDATA@@@std@@@std@@IAE@V?$allocator@PAUtagTSKILLDATA@@@1@@Z ; std::_Vector_val<tagTSKILLDATA *,std::allocator<tagTSKILLDATA *> >::_Vector_val<tagTSKILLDATA *,std::allocator<tagTSKILLDATA *> >
; Function compile flags: /Ogty
; File c:\program files (x86)\microsoft visual studio .net 2003\vc7\include\vector
;	COMDAT ??0?$_Vector_val@PAUtagTSKILLDATA@@V?$allocator@PAUtagTSKILLDATA@@@std@@@std@@IAE@V?$allocator@PAUtagTSKILLDATA@@@1@@Z
_TEXT	SEGMENT
__Al$ = 8						; size = 1
??0?$_Vector_val@PAUtagTSKILLDATA@@V?$allocator@PAUtagTSKILLDATA@@@std@@@std@@IAE@V?$allocator@PAUtagTSKILLDATA@@@1@@Z PROC NEAR ; std::_Vector_val<tagTSKILLDATA *,std::allocator<tagTSKILLDATA *> >::_Vector_val<tagTSKILLDATA *,std::allocator<tagTSKILLDATA *> >, COMDAT
; _this$ = ecx

; 21   : 		{	// construct allocator from _Al

  00000	8b c1		 mov	 eax, ecx

; 22   : 		}

  00002	c2 04 00	 ret	 4
??0?$_Vector_val@PAUtagTSKILLDATA@@V?$allocator@PAUtagTSKILLDATA@@@std@@@std@@IAE@V?$allocator@PAUtagTSKILLDATA@@@1@@Z ENDP ; std::_Vector_val<tagTSKILLDATA *,std::allocator<tagTSKILLDATA *> >::_Vector_val<tagTSKILLDATA *,std::allocator<tagTSKILLDATA *> >
_TEXT	ENDS
PUBLIC	?_Key@?$_Tree@V?$_Tmap_traits@EPAUtagSKILLPOINT@@U?$less@E@std@@V?$allocator@U?$pair@$$CBEPAUtagSKILLPOINT@@@std@@@3@$0A@@std@@@std@@KAABEPAU_Node@?$_Tree_nod@V?$_Tmap_traits@EPAUtagSKILLPOINT@@U?$less@E@std@@V?$allocator@U?$pair@$$CBEPAUtagSKILLPOINT@@@std@@@3@$0A@@std@@@2@@Z ; std::_Tree<std::_Tmap_traits<unsigned char,tagSKILLPOINT *,std::less<unsigned char>,std::allocator<std::pair<unsigned char const ,tagSKILLPOINT *> >,0> >::_Key
; Function compile flags: /Ogty
; File c:\program files (x86)\microsoft visual studio .net 2003\vc7\include\xtree
;	COMDAT ?_Key@?$_Tree@V?$_Tmap_traits@EPAUtagSKILLPOINT@@U?$less@E@std@@V?$allocator@U?$pair@$$CBEPAUtagSKILLPOINT@@@std@@@3@$0A@@std@@@std@@KAABEPAU_Node@?$_Tree_nod@V?$_Tmap_traits@EPAUtagSKILLPOINT@@U?$less@E@std@@V?$allocator@U?$pair@$$CBEPAUtagSKILLPOINT@@@std@@@3@$0A@@std@@@2@@Z
_TEXT	SEGMENT
__Pnode$ = 8						; size = 4
?_Key@?$_Tree@V?$_Tmap_traits@EPAUtagSKILLPOINT@@U?$less@E@std@@V?$allocator@U?$pair@$$CBEPAUtagSKILLPOINT@@@std@@@3@$0A@@std@@@std@@KAABEPAU_Node@?$_Tree_nod@V?$_Tmap_traits@EPAUtagSKILLPOINT@@U?$less@E@std@@V?$allocator@U?$pair@$$CBEPAUtagSKILLPOINT@@@std@@@3@$0A@@std@@@2@@Z PROC NEAR ; std::_Tree<std::_Tmap_traits<unsigned char,tagSKILLPOINT *,std::less<unsigned char>,std::allocator<std::pair<unsigned char const ,tagSKILLPOINT *> >,0> >::_Key, COMDAT

; 142  : 		return (_Mybase::_Kfn(_Myval(_Pnode)));

  00000	8b 44 24 04	 mov	 eax, DWORD PTR __Pnode$[esp-4]
  00004	83 c0 0c	 add	 eax, 12			; 0000000cH

; 143  : 		}

  00007	c3		 ret	 0
?_Key@?$_Tree@V?$_Tmap_traits@EPAUtagSKILLPOINT@@U?$less@E@std@@V?$allocator@U?$pair@$$CBEPAUtagSKILLPOINT@@@std@@@3@$0A@@std@@@std@@KAABEPAU_Node@?$_Tree_nod@V?$_Tmap_traits@EPAUtagSKILLPOINT@@U?$less@E@std@@V?$allocator@U?$pair@$$CBEPAUtagSKILLPOINT@@@std@@@3@$0A@@std@@@2@@Z ENDP ; std::_Tree<std::_Tmap_traits<unsigned char,tagSKILLPOINT *,std::less<unsigned char>,std::allocator<std::pair<unsigned char const ,tagSKILLPOINT *> >,0> >::_Key
_TEXT	ENDS
PUBLIC	?_Lmost@?$_Tree@V?$_Tmap_traits@EPAUtagSKILLPOINT@@U?$less@E@std@@V?$allocator@U?$pair@$$CBEPAUtagSKILLPOINT@@@std@@@3@$0A@@std@@@std@@IAEAAPAU_Node@?$_Tree_nod@V?$_Tmap_traits@EPAUtagSKILLPOINT@@U?$less@E@std@@V?$allocator@U?$pair@$$CBEPAUtagSKILLPOINT@@@std@@@3@$0A@@std@@@2@XZ ; std::_Tree<std::_Tmap_traits<unsigned char,tagSKILLPOINT *,std::less<unsigned char>,std::allocator<std::pair<unsigned char const ,tagSKILLPOINT *> >,0> >::_Lmost
; Function compile flags: /Ogty
;	COMDAT ?_Lmost@?$_Tree@V?$_Tmap_traits@EPAUtagSKILLPOINT@@U?$less@E@std@@V?$allocator@U?$pair@$$CBEPAUtagSKILLPOINT@@@std@@@3@$0A@@std@@@std@@IAEAAPAU_Node@?$_Tree_nod@V?$_Tmap_traits@EPAUtagSKILLPOINT@@U?$less@E@std@@V?$allocator@U?$pair@$$CBEPAUtagSKILLPOINT@@@std@@@3@$0A@@std@@@2@XZ
_TEXT	SEGMENT
?_Lmost@?$_Tree@V?$_Tmap_traits@EPAUtagSKILLPOINT@@U?$less@E@std@@V?$allocator@U?$pair@$$CBEPAUtagSKILLPOINT@@@std@@@3@$0A@@std@@@std@@IAEAAPAU_Node@?$_Tree_nod@V?$_Tmap_traits@EPAUtagSKILLPOINT@@U?$less@E@std@@V?$allocator@U?$pair@$$CBEPAUtagSKILLPOINT@@@std@@@3@$0A@@std@@@2@XZ PROC NEAR ; std::_Tree<std::_Tmap_traits<unsigned char,tagSKILLPOINT *,std::less<unsigned char>,std::allocator<std::pair<unsigned char const ,tagSKILLPOINT *> >,0> >::_Lmost, COMDAT
; _this$ = ecx

; 1005 : 		return (_Left(_Myhead));

  00000	8b 41 04	 mov	 eax, DWORD PTR [ecx+4]

; 1006 : 		}

  00003	c3		 ret	 0
?_Lmost@?$_Tree@V?$_Tmap_traits@EPAUtagSKILLPOINT@@U?$less@E@std@@V?$allocator@U?$pair@$$CBEPAUtagSKILLPOINT@@@std@@@3@$0A@@std@@@std@@IAEAAPAU_Node@?$_Tree_nod@V?$_Tmap_traits@EPAUtagSKILLPOINT@@U?$less@E@std@@V?$allocator@U?$pair@$$CBEPAUtagSKILLPOINT@@@std@@@3@$0A@@std@@@2@XZ ENDP ; std::_Tree<std::_Tmap_traits<unsigned char,tagSKILLPOINT *,std::less<unsigned char>,std::allocator<std::pair<unsigned char const ,tagSKILLPOINT *> >,0> >::_Lmost
_TEXT	ENDS
PUBLIC	?_Rmost@?$_Tree@V?$_Tmap_traits@EPAUtagSKILLPOINT@@U?$less@E@std@@V?$allocator@U?$pair@$$CBEPAUtagSKILLPOINT@@@std@@@3@$0A@@std@@@std@@IAEAAPAU_Node@?$_Tree_nod@V?$_Tmap_traits@EPAUtagSKILLPOINT@@U?$less@E@std@@V?$allocator@U?$pair@$$CBEPAUtagSKILLPOINT@@@std@@@3@$0A@@std@@@2@XZ ; std::_Tree<std::_Tmap_traits<unsigned char,tagSKILLPOINT *,std::less<unsigned char>,std::allocator<std::pair<unsigned char const ,tagSKILLPOINT *> >,0> >::_Rmost
; Function compile flags: /Ogty
;	COMDAT ?_Rmost@?$_Tree@V?$_Tmap_traits@EPAUtagSKILLPOINT@@U?$less@E@std@@V?$allocator@U?$pair@$$CBEPAUtagSKILLPOINT@@@std@@@3@$0A@@std@@@std@@IAEAAPAU_Node@?$_Tree_nod@V?$_Tmap_traits@EPAUtagSKILLPOINT@@U?$less@E@std@@V?$allocator@U?$pair@$$CBEPAUtagSKILLPOINT@@@std@@@3@$0A@@std@@@2@XZ
_TEXT	SEGMENT
?_Rmost@?$_Tree@V?$_Tmap_traits@EPAUtagSKILLPOINT@@U?$less@E@std@@V?$allocator@U?$pair@$$CBEPAUtagSKILLPOINT@@@std@@@3@$0A@@std@@@std@@IAEAAPAU_Node@?$_Tree_nod@V?$_Tmap_traits@EPAUtagSKILLPOINT@@U?$less@E@std@@V?$allocator@U?$pair@$$CBEPAUtagSKILLPOINT@@@std@@@3@$0A@@std@@@2@XZ PROC NEAR ; std::_Tree<std::_Tmap_traits<unsigned char,tagSKILLPOINT *,std::less<unsigned char>,std::allocator<std::pair<unsigned char const ,tagSKILLPOINT *> >,0> >::_Rmost, COMDAT
; _this$ = ecx

; 1049 : 		return (_Right(_Myhead));

  00000	8b 41 04	 mov	 eax, DWORD PTR [ecx+4]
  00003	83 c0 08	 add	 eax, 8

; 1050 : 		}

  00006	c3		 ret	 0
?_Rmost@?$_Tree@V?$_Tmap_traits@EPAUtagSKILLPOINT@@U?$less@E@std@@V?$allocator@U?$pair@$$CBEPAUtagSKILLPOINT@@@std@@@3@$0A@@std@@@std@@IAEAAPAU_Node@?$_Tree_nod@V?$_Tmap_traits@EPAUtagSKILLPOINT@@U?$less@E@std@@V?$allocator@U?$pair@$$CBEPAUtagSKILLPOINT@@@std@@@3@$0A@@std@@@2@XZ ENDP ; std::_Tree<std::_Tmap_traits<unsigned char,tagSKILLPOINT *,std::less<unsigned char>,std::allocator<std::pair<unsigned char const ,tagSKILLPOINT *> >,0> >::_Rmost
_TEXT	ENDS
PUBLIC	?_Root@?$_Tree@V?$_Tmap_traits@EPAUtagSKILLPOINT@@U?$less@E@std@@V?$allocator@U?$pair@$$CBEPAUtagSKILLPOINT@@@std@@@3@$0A@@std@@@std@@IAEAAPAU_Node@?$_Tree_nod@V?$_Tmap_traits@EPAUtagSKILLPOINT@@U?$less@E@std@@V?$allocator@U?$pair@$$CBEPAUtagSKILLPOINT@@@std@@@3@$0A@@std@@@2@XZ ; std::_Tree<std::_Tmap_traits<unsigned char,tagSKILLPOINT *,std::less<unsigned char>,std::allocator<std::pair<unsigned char const ,tagSKILLPOINT *> >,0> >::_Root
; Function compile flags: /Ogty
;	COMDAT ?_Root@?$_Tree@V?$_Tmap_traits@EPAUtagSKILLPOINT@@U?$less@E@std@@V?$allocator@U?$pair@$$CBEPAUtagSKILLPOINT@@@std@@@3@$0A@@std@@@std@@IAEAAPAU_Node@?$_Tree_nod@V?$_Tmap_traits@EPAUtagSKILLPOINT@@U?$less@E@std@@V?$allocator@U?$pair@$$CBEPAUtagSKILLPOINT@@@std@@@3@$0A@@std@@@2@XZ
_TEXT	SEGMENT
?_Root@?$_Tree@V?$_Tmap_traits@EPAUtagSKILLPOINT@@U?$less@E@std@@V?$allocator@U?$pair@$$CBEPAUtagSKILLPOINT@@@std@@@3@$0A@@std@@@std@@IAEAAPAU_Node@?$_Tree_nod@V?$_Tmap_traits@EPAUtagSKILLPOINT@@U?$less@E@std@@V?$allocator@U?$pair@$$CBEPAUtagSKILLPOINT@@@std@@@3@$0A@@std@@@2@XZ PROC NEAR ; std::_Tree<std::_Tmap_traits<unsigned char,tagSKILLPOINT *,std::less<unsigned char>,std::allocator<std::pair<unsigned char const ,tagSKILLPOINT *> >,0> >::_Root, COMDAT
; _this$ = ecx

; 1059 : 		return (_Parent(_Myhead));

  00000	8b 41 04	 mov	 eax, DWORD PTR [ecx+4]
  00003	83 c0 04	 add	 eax, 4

; 1060 : 		}

  00006	c3		 ret	 0
?_Root@?$_Tree@V?$_Tmap_traits@EPAUtagSKILLPOINT@@U?$less@E@std@@V?$allocator@U?$pair@$$CBEPAUtagSKILLPOINT@@@std@@@3@$0A@@std@@@std@@IAEAAPAU_Node@?$_Tree_nod@V?$_Tmap_traits@EPAUtagSKILLPOINT@@U?$less@E@std@@V?$allocator@U?$pair@$$CBEPAUtagSKILLPOINT@@@std@@@3@$0A@@std@@@2@XZ ENDP ; std::_Tree<std::_Tmap_traits<unsigned char,tagSKILLPOINT *,std::less<unsigned char>,std::allocator<std::pair<unsigned char const ,tagSKILLPOINT *> >,0> >::_Root
_TEXT	ENDS
PUBLIC	??0iterator@?$_Tree@V?$_Tmap_traits@EPAUtagSKILLPOINT@@U?$less@E@std@@V?$allocator@U?$pair@$$CBEPAUtagSKILLPOINT@@@std@@@3@$0A@@std@@@std@@QAE@PAU_Node@?$_Tree_nod@V?$_Tmap_traits@EPAUtagSKILLPOINT@@U?$less@E@std@@V?$allocator@U?$pair@$$CBEPAUtagSKILLPOINT@@@std@@@3@$0A@@std@@@2@@Z ; std::_Tree<std::_Tmap_traits<unsigned char,tagSKILLPOINT *,std::less<unsigned char>,std::allocator<std::pair<unsigned char const ,tagSKILLPOINT *> >,0> >::iterator::iterator
; Function compile flags: /Ogty
;	COMDAT ??0iterator@?$_Tree@V?$_Tmap_traits@EPAUtagSKILLPOINT@@U?$less@E@std@@V?$allocator@U?$pair@$$CBEPAUtagSKILLPOINT@@@std@@@3@$0A@@std@@@std@@QAE@PAU_Node@?$_Tree_nod@V?$_Tmap_traits@EPAUtagSKILLPOINT@@U?$less@E@std@@V?$allocator@U?$pair@$$CBEPAUtagSKILLPOINT@@@std@@@3@$0A@@std@@@2@@Z
_TEXT	SEGMENT
__Pnode$ = 8						; size = 4
??0iterator@?$_Tree@V?$_Tmap_traits@EPAUtagSKILLPOINT@@U?$less@E@std@@V?$allocator@U?$pair@$$CBEPAUtagSKILLPOINT@@@std@@@3@$0A@@std@@@std@@QAE@PAU_Node@?$_Tree_nod@V?$_Tmap_traits@EPAUtagSKILLPOINT@@U?$less@E@std@@V?$allocator@U?$pair@$$CBEPAUtagSKILLPOINT@@@std@@@3@$0A@@std@@@2@@Z PROC NEAR ; std::_Tree<std::_Tmap_traits<unsigned char,tagSKILLPOINT *,std::less<unsigned char>,std::allocator<std::pair<unsigned char const ,tagSKILLPOINT *> >,0> >::iterator::iterator, COMDAT
; _this$ = ecx

; 312  : 			{	// construct with node pointer _Pnode

  00000	8b c1		 mov	 eax, ecx
  00002	8b 4c 24 04	 mov	 ecx, DWORD PTR __Pnode$[esp-4]
  00006	89 08		 mov	 DWORD PTR [eax], ecx

; 313  : 			}

  00008	c2 04 00	 ret	 4
??0iterator@?$_Tree@V?$_Tmap_traits@EPAUtagSKILLPOINT@@U?$less@E@std@@V?$allocator@U?$pair@$$CBEPAUtagSKILLPOINT@@@std@@@3@$0A@@std@@@std@@QAE@PAU_Node@?$_Tree_nod@V?$_Tmap_traits@EPAUtagSKILLPOINT@@U?$less@E@std@@V?$allocator@U?$pair@$$CBEPAUtagSKILLPOINT@@@std@@@3@$0A@@std@@@2@@Z ENDP ; std::_Tree<std::_Tmap_traits<unsigned char,tagSKILLPOINT *,std::less<unsigned char>,std::allocator<std::pair<unsigned char const ,tagSKILLPOINT *> >,0> >::iterator::iterator
_TEXT	ENDS
PUBLIC	??Dconst_iterator@?$_Tree@V?$_Tmap_traits@EPAUtagSKILLPOINT@@U?$less@E@std@@V?$allocator@U?$pair@$$CBEPAUtagSKILLPOINT@@@std@@@3@$0A@@std@@@std@@QBEABU?$pair@$$CBEPAUtagSKILLPOINT@@@2@XZ ; std::_Tree<std::_Tmap_traits<unsigned char,tagSKILLPOINT *,std::less<unsigned char>,std::allocator<std::pair<unsigned char const ,tagSKILLPOINT *> >,0> >::const_iterator::operator*
; Function compile flags: /Ogty
;	COMDAT ??Dconst_iterator@?$_Tree@V?$_Tmap_traits@EPAUtagSKILLPOINT@@U?$less@E@std@@V?$allocator@U?$pair@$$CBEPAUtagSKILLPOINT@@@std@@@3@$0A@@std@@@std@@QBEABU?$pair@$$CBEPAUtagSKILLPOINT@@@2@XZ
_TEXT	SEGMENT
??Dconst_iterator@?$_Tree@V?$_Tmap_traits@EPAUtagSKILLPOINT@@U?$less@E@std@@V?$allocator@U?$pair@$$CBEPAUtagSKILLPOINT@@@std@@@3@$0A@@std@@@std@@QBEABU?$pair@$$CBEPAUtagSKILLPOINT@@@2@XZ PROC NEAR ; std::_Tree<std::_Tmap_traits<unsigned char,tagSKILLPOINT *,std::less<unsigned char>,std::allocator<std::pair<unsigned char const ,tagSKILLPOINT *> >,0> >::const_iterator::operator*, COMDAT
; _this$ = ecx

; 205  : 			return (_Myval(_Ptr));

  00000	8b 01		 mov	 eax, DWORD PTR [ecx]
  00002	83 c0 0c	 add	 eax, 12			; 0000000cH

; 206  : 			}

  00005	c3		 ret	 0
??Dconst_iterator@?$_Tree@V?$_Tmap_traits@EPAUtagSKILLPOINT@@U?$less@E@std@@V?$allocator@U?$pair@$$CBEPAUtagSKILLPOINT@@@std@@@3@$0A@@std@@@std@@QBEABU?$pair@$$CBEPAUtagSKILLPOINT@@@2@XZ ENDP ; std::_Tree<std::_Tmap_traits<unsigned char,tagSKILLPOINT *,std::less<unsigned char>,std::allocator<std::pair<unsigned char const ,tagSKILLPOINT *> >,0> >::const_iterator::operator*
_TEXT	ENDS
PUBLIC	??Diterator@?$vector@PAUtagTSKILLDATA@@V?$allocator@PAUtagTSKILLDATA@@@std@@@std@@QBEAAPAUtagTSKILLDATA@@XZ ; std::vector<tagTSKILLDATA *,std::allocator<tagTSKILLDATA *> >::iterator::operator*
; Function compile flags: /Ogty
; File c:\program files (x86)\microsoft visual studio .net 2003\vc7\include\vector
;	COMDAT ??Diterator@?$vector@PAUtagTSKILLDATA@@V?$allocator@PAUtagTSKILLDATA@@@std@@@std@@QBEAAPAUtagTSKILLDATA@@XZ
_TEXT	SEGMENT
??Diterator@?$vector@PAUtagTSKILLDATA@@V?$allocator@PAUtagTSKILLDATA@@@std@@@std@@QBEAAPAUtagTSKILLDATA@@XZ PROC NEAR ; std::vector<tagTSKILLDATA *,std::allocator<tagTSKILLDATA *> >::iterator::operator*, COMDAT
; _this$ = ecx

; 220  : 			return ((reference)**(const_iterator *)this);

  00000	8b 01		 mov	 eax, DWORD PTR [ecx]

; 221  : 			}

  00002	c3		 ret	 0
??Diterator@?$vector@PAUtagTSKILLDATA@@V?$allocator@PAUtagTSKILLDATA@@@std@@@std@@QBEAAPAUtagTSKILLDATA@@XZ ENDP ; std::vector<tagTSKILLDATA *,std::allocator<tagTSKILLDATA *> >::iterator::operator*
_TEXT	ENDS
PUBLIC	??Hiterator@?$vector@PAUtagTSKILLDATA@@V?$allocator@PAUtagTSKILLDATA@@@std@@@std@@QBE?AV012@H@Z ; std::vector<tagTSKILLDATA *,std::allocator<tagTSKILLDATA *> >::iterator::operator+
; Function compile flags: /Ogty
;	COMDAT ??Hiterator@?$vector@PAUtagTSKILLDATA@@V?$allocator@PAUtagTSKILLDATA@@@std@@@std@@QBE?AV012@H@Z
_TEXT	SEGMENT
___$ReturnUdt$ = 8					; size = 4
__Off$ = 12						; size = 4
??Hiterator@?$vector@PAUtagTSKILLDATA@@V?$allocator@PAUtagTSKILLDATA@@@std@@@std@@QBE?AV012@H@Z PROC NEAR ; std::vector<tagTSKILLDATA *,std::allocator<tagTSKILLDATA *> >::iterator::operator+, COMDAT
; _this$ = ecx

; 262  : 			iterator _Tmp = *this;
; 263  : 			return (_Tmp += _Off);

  00000	8b 01		 mov	 eax, DWORD PTR [ecx]
  00002	8b 4c 24 08	 mov	 ecx, DWORD PTR __Off$[esp-4]
  00006	8d 14 88	 lea	 edx, DWORD PTR [eax+ecx*4]
  00009	8b 44 24 04	 mov	 eax, DWORD PTR ___$ReturnUdt$[esp-4]
  0000d	89 10		 mov	 DWORD PTR [eax], edx

; 264  : 			}

  0000f	c2 08 00	 ret	 8
??Hiterator@?$vector@PAUtagTSKILLDATA@@V?$allocator@PAUtagTSKILLDATA@@@std@@@std@@QBE?AV012@H@Z ENDP ; std::vector<tagTSKILLDATA *,std::allocator<tagTSKILLDATA *> >::iterator::operator+
_TEXT	ENDS
PUBLIC	??Giterator@?$vector@PAUtagTSKILLDATA@@V?$allocator@PAUtagTSKILLDATA@@@std@@@std@@QBE?AV012@H@Z ; std::vector<tagTSKILLDATA *,std::allocator<tagTSKILLDATA *> >::iterator::operator-
; Function compile flags: /Ogty
;	COMDAT ??Giterator@?$vector@PAUtagTSKILLDATA@@V?$allocator@PAUtagTSKILLDATA@@@std@@@std@@QBE?AV012@H@Z
_TEXT	SEGMENT
___$ReturnUdt$ = 8					; size = 4
__Off$ = 12						; size = 4
??Giterator@?$vector@PAUtagTSKILLDATA@@V?$allocator@PAUtagTSKILLDATA@@@std@@@std@@QBE?AV012@H@Z PROC NEAR ; std::vector<tagTSKILLDATA *,std::allocator<tagTSKILLDATA *> >::iterator::operator-, COMDAT
; _this$ = ecx

; 273  : 			iterator _Tmp = *this;
; 274  : 			return (_Tmp -= _Off);

  00000	8b 44 24 08	 mov	 eax, DWORD PTR __Off$[esp-4]
  00004	8b 09		 mov	 ecx, DWORD PTR [ecx]
  00006	8d 14 85 00 00
	00 00		 lea	 edx, DWORD PTR [eax*4]
  0000d	8b 44 24 04	 mov	 eax, DWORD PTR ___$ReturnUdt$[esp-4]
  00011	2b ca		 sub	 ecx, edx
  00013	89 08		 mov	 DWORD PTR [eax], ecx

; 275  : 			}

  00015	c2 08 00	 ret	 8
??Giterator@?$vector@PAUtagTSKILLDATA@@V?$allocator@PAUtagTSKILLDATA@@@std@@@std@@QBE?AV012@H@Z ENDP ; std::vector<tagTSKILLDATA *,std::allocator<tagTSKILLDATA *> >::iterator::operator-
_TEXT	ENDS
PUBLIC	?max_size@?$vector@PAUtagTSKILLDATA@@V?$allocator@PAUtagTSKILLDATA@@@std@@@std@@QBEIXZ ; std::vector<tagTSKILLDATA *,std::allocator<tagTSKILLDATA *> >::max_size
; Function compile flags: /Ogty
;	COMDAT ?max_size@?$vector@PAUtagTSKILLDATA@@V?$allocator@PAUtagTSKILLDATA@@@std@@@std@@QBEIXZ
_TEXT	SEGMENT
?max_size@?$vector@PAUtagTSKILLDATA@@V?$allocator@PAUtagTSKILLDATA@@@std@@@std@@QBEIXZ PROC NEAR ; std::vector<tagTSKILLDATA *,std::allocator<tagTSKILLDATA *> >::max_size, COMDAT
; _this$ = ecx

; 521  : 		return (this->_Alval.max_size());

  00000	b8 ff ff ff 3f	 mov	 eax, 1073741823		; 3fffffffH

; 522  : 		}

  00005	c3		 ret	 0
?max_size@?$vector@PAUtagTSKILLDATA@@V?$allocator@PAUtagTSKILLDATA@@@std@@@std@@QBEIXZ ENDP ; std::vector<tagTSKILLDATA *,std::allocator<tagTSKILLDATA *> >::max_size
_TEXT	ENDS
PUBLIC	?allocate@?$allocator@PAUtagTSKILLDATA@@@std@@QAEPAPAUtagTSKILLDATA@@I@Z ; std::allocator<tagTSKILLDATA *>::allocate
; Function compile flags: /Ogty
; File c:\program files (x86)\microsoft visual studio .net 2003\vc7\include\xmemory
;	COMDAT ?allocate@?$allocator@PAUtagTSKILLDATA@@@std@@QAEPAPAUtagTSKILLDATA@@I@Z
_TEXT	SEGMENT
__Count$ = 8						; size = 4
?allocate@?$allocator@PAUtagTSKILLDATA@@@std@@QAEPAPAUtagTSKILLDATA@@I@Z PROC NEAR ; std::allocator<tagTSKILLDATA *>::allocate, COMDAT
; _this$ = ecx

; 137  : 		return (_Allocate(_Count, (pointer)0));

  00000	8b 44 24 04	 mov	 eax, DWORD PTR __Count$[esp-4]
  00004	8d 0c 85 00 00
	00 00		 lea	 ecx, DWORD PTR [eax*4]
  0000b	51		 push	 ecx
  0000c	e8 00 00 00 00	 call	 ??2@YAPAXI@Z		; operator new
  00011	83 c4 04	 add	 esp, 4

; 138  : 		}

  00014	c2 04 00	 ret	 4
?allocate@?$allocator@PAUtagTSKILLDATA@@@std@@QAEPAPAUtagTSKILLDATA@@I@Z ENDP ; std::allocator<tagTSKILLDATA *>::allocate
_TEXT	ENDS
PUBLIC	?_Lbound@?$_Tree@V?$_Tmap_traits@EPAUtagSKILLPOINT@@U?$less@E@std@@V?$allocator@U?$pair@$$CBEPAUtagSKILLPOINT@@@std@@@3@$0A@@std@@@std@@IBEPAU_Node@?$_Tree_nod@V?$_Tmap_traits@EPAUtagSKILLPOINT@@U?$less@E@std@@V?$allocator@U?$pair@$$CBEPAUtagSKILLPOINT@@@std@@@3@$0A@@std@@@2@ABE@Z ; std::_Tree<std::_Tmap_traits<unsigned char,tagSKILLPOINT *,std::less<unsigned char>,std::allocator<std::pair<unsigned char const ,tagSKILLPOINT *> >,0> >::_Lbound
; Function compile flags: /Ogty
; File c:\program files (x86)\microsoft visual studio .net 2003\vc7\include\xtree
;	COMDAT ?_Lbound@?$_Tree@V?$_Tmap_traits@EPAUtagSKILLPOINT@@U?$less@E@std@@V?$allocator@U?$pair@$$CBEPAUtagSKILLPOINT@@@std@@@3@$0A@@std@@@std@@IBEPAU_Node@?$_Tree_nod@V?$_Tmap_traits@EPAUtagSKILLPOINT@@U?$less@E@std@@V?$allocator@U?$pair@$$CBEPAUtagSKILLPOINT@@@std@@@3@$0A@@std@@@2@ABE@Z
_TEXT	SEGMENT
__Keyval$ = 8						; size = 4
?_Lbound@?$_Tree@V?$_Tmap_traits@EPAUtagSKILLPOINT@@U?$less@E@std@@V?$allocator@U?$pair@$$CBEPAUtagSKILLPOINT@@@std@@@3@$0A@@std@@@std@@IBEPAU_Node@?$_Tree_nod@V?$_Tmap_traits@EPAUtagSKILLPOINT@@U?$less@E@std@@V?$allocator@U?$pair@$$CBEPAUtagSKILLPOINT@@@std@@@3@$0A@@std@@@2@ABE@Z PROC NEAR ; std::_Tree<std::_Tmap_traits<unsigned char,tagSKILLPOINT *,std::less<unsigned char>,std::allocator<std::pair<unsigned char const ,tagSKILLPOINT *> >,0> >::_Lbound, COMDAT
; _this$ = ecx

; 988  : 		_Nodeptr _Pnode = _Root();

  00000	8b 41 04	 mov	 eax, DWORD PTR [ecx+4]
  00003	8b 48 04	 mov	 ecx, DWORD PTR [eax+4]

; 989  : 		_Nodeptr _Wherenode = _Myhead;	// end() if search fails
; 990  : 
; 991  : 		while (!_Isnil(_Pnode))

  00006	8a 51 15	 mov	 dl, BYTE PTR [ecx+21]
  00009	84 d2		 test	 dl, dl
  0000b	75 1d		 jne	 SHORT $L153059
  0000d	8b 54 24 04	 mov	 edx, DWORD PTR __Keyval$[esp-4]
  00011	8a 12		 mov	 dl, BYTE PTR [edx]
  00013	53		 push	 ebx
$L153058:

; 992  : 			if (this->comp(_Key(_Pnode), _Keyval))

  00014	38 51 0c	 cmp	 BYTE PTR [ecx+12], dl
  00017	73 05		 jae	 SHORT $L153060

; 993  : 				_Pnode = _Right(_Pnode);	// descend right subtree

  00019	8b 49 08	 mov	 ecx, DWORD PTR [ecx+8]

; 994  : 			else

  0001c	eb 04		 jmp	 SHORT $L153061
$L153060:

; 995  : 				{	// _Pnode not less than _Keyval, remember it
; 996  : 				_Wherenode = _Pnode;

  0001e	8b c1		 mov	 eax, ecx

; 997  : 				_Pnode = _Left(_Pnode);	// descend left subtree

  00020	8b 09		 mov	 ecx, DWORD PTR [ecx]
$L153061:
  00022	8a 59 15	 mov	 bl, BYTE PTR [ecx+21]
  00025	84 db		 test	 bl, bl
  00027	74 eb		 je	 SHORT $L153058
  00029	5b		 pop	 ebx
$L153059:

; 998  : 				}
; 999  : 
; 1000 : 		return (_Wherenode);	// return best remembered candidate
; 1001 : 		}

  0002a	c2 04 00	 ret	 4
?_Lbound@?$_Tree@V?$_Tmap_traits@EPAUtagSKILLPOINT@@U?$less@E@std@@V?$allocator@U?$pair@$$CBEPAUtagSKILLPOINT@@@std@@@3@$0A@@std@@@std@@IBEPAU_Node@?$_Tree_nod@V?$_Tmap_traits@EPAUtagSKILLPOINT@@U?$less@E@std@@V?$allocator@U?$pair@$$CBEPAUtagSKILLPOINT@@@std@@@3@$0A@@std@@@2@ABE@Z ENDP ; std::_Tree<std::_Tmap_traits<unsigned char,tagSKILLPOINT *,std::less<unsigned char>,std::allocator<std::pair<unsigned char const ,tagSKILLPOINT *> >,0> >::_Lbound
_TEXT	ENDS
PUBLIC	?destroy@?$allocator@U_Node@?$_Tree_nod@V?$_Tmap_traits@EPAUtagSKILLPOINT@@U?$less@E@std@@V?$allocator@U?$pair@$$CBEPAUtagSKILLPOINT@@@std@@@3@$0A@@std@@@std@@@std@@QAEXPAU_Node@?$_Tree_nod@V?$_Tmap_traits@EPAUtagSKILLPOINT@@U?$less@E@std@@V?$allocator@U?$pair@$$CBEPAUtagSKILLPOINT@@@std@@@3@$0A@@std@@@2@@Z ; std::allocator<std::_Tree_nod<std::_Tmap_traits<unsigned char,tagSKILLPOINT *,std::less<unsigned char>,std::allocator<std::pair<unsigned char const ,tagSKILLPOINT *> >,0> >::_Node>::destroy
; Function compile flags: /Ogty
; File c:\program files (x86)\microsoft visual studio .net 2003\vc7\include\xmemory
;	COMDAT ?destroy@?$allocator@U_Node@?$_Tree_nod@V?$_Tmap_traits@EPAUtagSKILLPOINT@@U?$less@E@std@@V?$allocator@U?$pair@$$CBEPAUtagSKILLPOINT@@@std@@@3@$0A@@std@@@std@@@std@@QAEXPAU_Node@?$_Tree_nod@V?$_Tmap_traits@EPAUtagSKILLPOINT@@U?$less@E@std@@V?$allocator@U?$pair@$$CBEPAUtagSKILLPOINT@@@std@@@3@$0A@@std@@@2@@Z
_TEXT	SEGMENT
__Ptr$ = 8						; size = 4
?destroy@?$allocator@U_Node@?$_Tree_nod@V?$_Tmap_traits@EPAUtagSKILLPOINT@@U?$less@E@std@@V?$allocator@U?$pair@$$CBEPAUtagSKILLPOINT@@@std@@@3@$0A@@std@@@std@@@std@@QAEXPAU_Node@?$_Tree_nod@V?$_Tmap_traits@EPAUtagSKILLPOINT@@U?$less@E@std@@V?$allocator@U?$pair@$$CBEPAUtagSKILLPOINT@@@std@@@3@$0A@@std@@@2@@Z PROC NEAR ; std::allocator<std::_Tree_nod<std::_Tmap_traits<unsigned char,tagSKILLPOINT *,std::less<unsigned char>,std::allocator<std::pair<unsigned char const ,tagSKILLPOINT *> >,0> >::_Node>::destroy, COMDAT
; _this$ = ecx

; 152  : 		_Destroy(_Ptr);
; 153  : 		}

  00000	c2 04 00	 ret	 4
?destroy@?$allocator@U_Node@?$_Tree_nod@V?$_Tmap_traits@EPAUtagSKILLPOINT@@U?$less@E@std@@V?$allocator@U?$pair@$$CBEPAUtagSKILLPOINT@@@std@@@3@$0A@@std@@@std@@@std@@QAEXPAU_Node@?$_Tree_nod@V?$_Tmap_traits@EPAUtagSKILLPOINT@@U?$less@E@std@@V?$allocator@U?$pair@$$CBEPAUtagSKILLPOINT@@@std@@@3@$0A@@std@@@2@@Z ENDP ; std::allocator<std::_Tree_nod<std::_Tmap_traits<unsigned char,tagSKILLPOINT *,std::less<unsigned char>,std::allocator<std::pair<unsigned char const ,tagSKILLPOINT *> >,0> >::_Node>::destroy
_TEXT	ENDS
PUBLIC	?destroy@?$allocator@PAU_Node@?$_Tree_nod@V?$_Tmap_traits@EPAUtagSKILLPOINT@@U?$less@E@std@@V?$allocator@U?$pair@$$CBEPAUtagSKILLPOINT@@@std@@@3@$0A@@std@@@std@@@std@@QAEXPAPAU_Node@?$_Tree_nod@V?$_Tmap_traits@EPAUtagSKILLPOINT@@U?$less@E@std@@V?$allocator@U?$pair@$$CBEPAUtagSKILLPOINT@@@std@@@3@$0A@@std@@@2@@Z ; std::allocator<std::_Tree_nod<std::_Tmap_traits<unsigned char,tagSKILLPOINT *,std::less<unsigned char>,std::allocator<std::pair<unsigned char const ,tagSKILLPOINT *> >,0> >::_Node *>::destroy
; Function compile flags: /Ogty
;	COMDAT ?destroy@?$allocator@PAU_Node@?$_Tree_nod@V?$_Tmap_traits@EPAUtagSKILLPOINT@@U?$less@E@std@@V?$allocator@U?$pair@$$CBEPAUtagSKILLPOINT@@@std@@@3@$0A@@std@@@std@@@std@@QAEXPAPAU_Node@?$_Tree_nod@V?$_Tmap_traits@EPAUtagSKILLPOINT@@U?$less@E@std@@V?$allocator@U?$pair@$$CBEPAUtagSKILLPOINT@@@std@@@3@$0A@@std@@@2@@Z
_TEXT	SEGMENT
__Ptr$ = 8						; size = 4
?destroy@?$allocator@PAU_Node@?$_Tree_nod@V?$_Tmap_traits@EPAUtagSKILLPOINT@@U?$less@E@std@@V?$allocator@U?$pair@$$CBEPAUtagSKILLPOINT@@@std@@@3@$0A@@std@@@std@@@std@@QAEXPAPAU_Node@?$_Tree_nod@V?$_Tmap_traits@EPAUtagSKILLPOINT@@U?$less@E@std@@V?$allocator@U?$pair@$$CBEPAUtagSKILLPOINT@@@std@@@3@$0A@@std@@@2@@Z PROC NEAR ; std::allocator<std::_Tree_nod<std::_Tmap_traits<unsigned char,tagSKILLPOINT *,std::less<unsigned char>,std::allocator<std::pair<unsigned char const ,tagSKILLPOINT *> >,0> >::_Node *>::destroy, COMDAT
; _this$ = ecx

; 152  : 		_Destroy(_Ptr);
; 153  : 		}

  00000	c2 04 00	 ret	 4
?destroy@?$allocator@PAU_Node@?$_Tree_nod@V?$_Tmap_traits@EPAUtagSKILLPOINT@@U?$less@E@std@@V?$allocator@U?$pair@$$CBEPAUtagSKILLPOINT@@@std@@@3@$0A@@std@@@std@@@std@@QAEXPAPAU_Node@?$_Tree_nod@V?$_Tmap_traits@EPAUtagSKILLPOINT@@U?$less@E@std@@V?$allocator@U?$pair@$$CBEPAUtagSKILLPOINT@@@std@@@3@$0A@@std@@@2@@Z ENDP ; std::allocator<std::_Tree_nod<std::_Tmap_traits<unsigned char,tagSKILLPOINT *,std::less<unsigned char>,std::allocator<std::pair<unsigned char const ,tagSKILLPOINT *> >,0> >::_Node *>::destroy
_TEXT	ENDS
PUBLIC	??0iterator@?$vector@PAUtagTSKILLDATA@@V?$allocator@PAUtagTSKILLDATA@@@std@@@std@@QAE@PAPAUtagTSKILLDATA@@@Z ; std::vector<tagTSKILLDATA *,std::allocator<tagTSKILLDATA *> >::iterator::iterator
; Function compile flags: /Ogty
; File c:\program files (x86)\microsoft visual studio .net 2003\vc7\include\vector
;	COMDAT ??0iterator@?$vector@PAUtagTSKILLDATA@@V?$allocator@PAUtagTSKILLDATA@@@std@@@std@@QAE@PAPAUtagTSKILLDATA@@@Z
_TEXT	SEGMENT
__Ptr$ = 8						; size = 4
??0iterator@?$vector@PAUtagTSKILLDATA@@V?$allocator@PAUtagTSKILLDATA@@@std@@@std@@QAE@PAPAUtagTSKILLDATA@@@Z PROC NEAR ; std::vector<tagTSKILLDATA *,std::allocator<tagTSKILLDATA *> >::iterator::iterator, COMDAT
; _this$ = ecx

; 215  : 			{	// construct with pointer _Ptr

  00000	8b c1		 mov	 eax, ecx
  00002	8b 4c 24 04	 mov	 ecx, DWORD PTR __Ptr$[esp-4]
  00006	89 08		 mov	 DWORD PTR [eax], ecx

; 216  : 			}

  00008	c2 04 00	 ret	 4
??0iterator@?$vector@PAUtagTSKILLDATA@@V?$allocator@PAUtagTSKILLDATA@@@std@@@std@@QAE@PAPAUtagTSKILLDATA@@@Z ENDP ; std::vector<tagTSKILLDATA *,std::allocator<tagTSKILLDATA *> >::iterator::iterator
_TEXT	ENDS
PUBLIC	?_Inc@const_iterator@?$_Tree@V?$_Tmap_traits@EPAUtagSKILLPOINT@@U?$less@E@std@@V?$allocator@U?$pair@$$CBEPAUtagSKILLPOINT@@@std@@@3@$0A@@std@@@std@@QAEXXZ ; std::_Tree<std::_Tmap_traits<unsigned char,tagSKILLPOINT *,std::less<unsigned char>,std::allocator<std::pair<unsigned char const ,tagSKILLPOINT *> >,0> >::const_iterator::_Inc
; Function compile flags: /Ogty
; File c:\program files (x86)\microsoft visual studio .net 2003\vc7\include\xtree
;	COMDAT ?_Inc@const_iterator@?$_Tree@V?$_Tmap_traits@EPAUtagSKILLPOINT@@U?$less@E@std@@V?$allocator@U?$pair@$$CBEPAUtagSKILLPOINT@@@std@@@3@$0A@@std@@@std@@QAEXXZ
_TEXT	SEGMENT
?_Inc@const_iterator@?$_Tree@V?$_Tmap_traits@EPAUtagSKILLPOINT@@U?$less@E@std@@V?$allocator@U?$pair@$$CBEPAUtagSKILLPOINT@@@std@@@3@$0A@@std@@@std@@QAEXXZ PROC NEAR ; std::_Tree<std::_Tmap_traits<unsigned char,tagSKILLPOINT *,std::less<unsigned char>,std::allocator<std::pair<unsigned char const ,tagSKILLPOINT *> >,0> >::const_iterator::_Inc, COMDAT
; _this$ = ecx

; 268  : 			if (_Isnil(_Ptr))

  00000	8b 01		 mov	 eax, DWORD PTR [ecx]
  00002	8a 50 15	 mov	 dl, BYTE PTR [eax+21]
  00005	84 d2		 test	 dl, dl
  00007	75 4d		 jne	 SHORT $L153172

; 269  : 				;	// end() shouldn't be incremented, don't move
; 270  : 			else if (!_Isnil(_Right(_Ptr)))

  00009	8b 50 08	 mov	 edx, DWORD PTR [eax+8]
  0000c	53		 push	 ebx
  0000d	8a 5a 15	 mov	 bl, BYTE PTR [edx+21]
  00010	84 db		 test	 bl, bl
  00012	75 1b		 jne	 SHORT $L154365

; 271  : 				_Ptr = _Min(_Right(_Ptr));	// ==> smallest of right subtree

  00014	8b 02		 mov	 eax, DWORD PTR [edx]
  00016	8a 58 15	 mov	 bl, BYTE PTR [eax+21]
  00019	84 db		 test	 bl, bl
  0001b	75 0e		 jne	 SHORT $L154346
  0001d	8d 49 00	 npad	 3
$L154345:
  00020	8b d0		 mov	 edx, eax
  00022	8b 02		 mov	 eax, DWORD PTR [edx]
  00024	8a 58 15	 mov	 bl, BYTE PTR [eax+21]
  00027	84 db		 test	 bl, bl
  00029	74 f5		 je	 SHORT $L154345
$L154346:
  0002b	89 11		 mov	 DWORD PTR [ecx], edx
  0002d	5b		 pop	 ebx

; 279  : 				}
; 280  : 			}

  0002e	c3		 ret	 0
$L154365:

; 272  : 			else
; 273  : 				{	// climb looking for right subtree
; 274  : 				_Nodeptr _Pnode;
; 275  : 				while (!_Isnil(_Pnode = _Parent(_Ptr))
; 276  : 					&& _Ptr == _Right(_Pnode))

  0002f	8b 40 04	 mov	 eax, DWORD PTR [eax+4]
  00032	8a 50 15	 mov	 dl, BYTE PTR [eax+21]
  00035	84 d2		 test	 dl, dl
  00037	75 1a		 jne	 SHORT $L153176
  00039	8d a4 24 00 00
	00 00		 npad	 7
$L153175:
  00040	8b 11		 mov	 edx, DWORD PTR [ecx]
  00042	3b 50 08	 cmp	 edx, DWORD PTR [eax+8]
  00045	75 0c		 jne	 SHORT $L153176

; 277  : 					_Ptr = _Pnode;	// ==> parent while right subtree

  00047	89 01		 mov	 DWORD PTR [ecx], eax
  00049	8b 40 04	 mov	 eax, DWORD PTR [eax+4]
  0004c	8a 50 15	 mov	 dl, BYTE PTR [eax+21]
  0004f	84 d2		 test	 dl, dl
  00051	74 ed		 je	 SHORT $L153175
$L153176:

; 278  : 				_Ptr = _Pnode;	// ==> parent (head if end())

  00053	89 01		 mov	 DWORD PTR [ecx], eax
  00055	5b		 pop	 ebx
$L153172:

; 279  : 				}
; 280  : 			}

  00056	c3		 ret	 0
?_Inc@const_iterator@?$_Tree@V?$_Tmap_traits@EPAUtagSKILLPOINT@@U?$less@E@std@@V?$allocator@U?$pair@$$CBEPAUtagSKILLPOINT@@@std@@@3@$0A@@std@@@std@@QAEXXZ ENDP ; std::_Tree<std::_Tmap_traits<unsigned char,tagSKILLPOINT *,std::less<unsigned char>,std::allocator<std::pair<unsigned char const ,tagSKILLPOINT *> >,0> >::const_iterator::_Inc
_TEXT	ENDS
PUBLIC	?_Lrotate@?$_Tree@V?$_Tmap_traits@EPAUtagSKILLPOINT@@U?$less@E@std@@V?$allocator@U?$pair@$$CBEPAUtagSKILLPOINT@@@std@@@3@$0A@@std@@@std@@IAEXPAU_Node@?$_Tree_nod@V?$_Tmap_traits@EPAUtagSKILLPOINT@@U?$less@E@std@@V?$allocator@U?$pair@$$CBEPAUtagSKILLPOINT@@@std@@@3@$0A@@std@@@2@@Z ; std::_Tree<std::_Tmap_traits<unsigned char,tagSKILLPOINT *,std::less<unsigned char>,std::allocator<std::pair<unsigned char const ,tagSKILLPOINT *> >,0> >::_Lrotate
; Function compile flags: /Ogty
;	COMDAT ?_Lrotate@?$_Tree@V?$_Tmap_traits@EPAUtagSKILLPOINT@@U?$less@E@std@@V?$allocator@U?$pair@$$CBEPAUtagSKILLPOINT@@@std@@@3@$0A@@std@@@std@@IAEXPAU_Node@?$_Tree_nod@V?$_Tmap_traits@EPAUtagSKILLPOINT@@U?$less@E@std@@V?$allocator@U?$pair@$$CBEPAUtagSKILLPOINT@@@std@@@3@$0A@@std@@@2@@Z
_TEXT	SEGMENT
__Wherenode$ = 8					; size = 4
?_Lrotate@?$_Tree@V?$_Tmap_traits@EPAUtagSKILLPOINT@@U?$less@E@std@@V?$allocator@U?$pair@$$CBEPAUtagSKILLPOINT@@@std@@@3@$0A@@std@@@std@@IAEXPAU_Node@?$_Tree_nod@V?$_Tmap_traits@EPAUtagSKILLPOINT@@U?$less@E@std@@V?$allocator@U?$pair@$$CBEPAUtagSKILLPOINT@@@std@@@3@$0A@@std@@@2@@Z PROC NEAR ; std::_Tree<std::_Tmap_traits<unsigned char,tagSKILLPOINT *,std::less<unsigned char>,std::allocator<std::pair<unsigned char const ,tagSKILLPOINT *> >,0> >::_Lrotate, COMDAT
; _this$ = ecx

; 1015 : 		_Nodeptr _Pnode = _Right(_Wherenode);

  00000	8b 54 24 04	 mov	 edx, DWORD PTR __Wherenode$[esp-4]
  00004	8b 42 08	 mov	 eax, DWORD PTR [edx+8]
  00007	53		 push	 ebx
  00008	56		 push	 esi

; 1016 : 		_Right(_Wherenode) = _Left(_Pnode);

  00009	8b 30		 mov	 esi, DWORD PTR [eax]
  0000b	89 72 08	 mov	 DWORD PTR [edx+8], esi

; 1017 : 
; 1018 : 		if (!_Isnil(_Left(_Pnode)))

  0000e	8b 30		 mov	 esi, DWORD PTR [eax]
  00010	8a 5e 15	 mov	 bl, BYTE PTR [esi+21]
  00013	84 db		 test	 bl, bl
  00015	75 03		 jne	 SHORT $L153184

; 1019 : 			_Parent(_Left(_Pnode)) = _Wherenode;

  00017	89 56 04	 mov	 DWORD PTR [esi+4], edx
$L153184:

; 1020 : 		_Parent(_Pnode) = _Parent(_Wherenode);

  0001a	8b 72 04	 mov	 esi, DWORD PTR [edx+4]
  0001d	89 70 04	 mov	 DWORD PTR [eax+4], esi

; 1021 : 
; 1022 : 		if (_Wherenode == _Root())

  00020	8b 49 04	 mov	 ecx, DWORD PTR [ecx+4]
  00023	3b 51 04	 cmp	 edx, DWORD PTR [ecx+4]
  00026	75 0d		 jne	 SHORT $L153185

; 1023 : 			_Root() = _Pnode;

  00028	89 41 04	 mov	 DWORD PTR [ecx+4], eax
  0002b	5e		 pop	 esi

; 1028 : 
; 1029 : 		_Left(_Pnode) = _Wherenode;

  0002c	89 10		 mov	 DWORD PTR [eax], edx

; 1030 : 		_Parent(_Wherenode) = _Pnode;

  0002e	89 42 04	 mov	 DWORD PTR [edx+4], eax
  00031	5b		 pop	 ebx

; 1031 : 		}

  00032	c2 04 00	 ret	 4
$L153185:

; 1024 : 		else if (_Wherenode == _Left(_Parent(_Wherenode)))

  00035	8b 4a 04	 mov	 ecx, DWORD PTR [edx+4]
  00038	3b 11		 cmp	 edx, DWORD PTR [ecx]
  0003a	75 0c		 jne	 SHORT $L153187

; 1025 : 			_Left(_Parent(_Wherenode)) = _Pnode;

  0003c	89 01		 mov	 DWORD PTR [ecx], eax
  0003e	5e		 pop	 esi

; 1028 : 
; 1029 : 		_Left(_Pnode) = _Wherenode;

  0003f	89 10		 mov	 DWORD PTR [eax], edx

; 1030 : 		_Parent(_Wherenode) = _Pnode;

  00041	89 42 04	 mov	 DWORD PTR [edx+4], eax
  00044	5b		 pop	 ebx

; 1031 : 		}

  00045	c2 04 00	 ret	 4
$L153187:

; 1026 : 		else
; 1027 : 			_Right(_Parent(_Wherenode)) = _Pnode;

  00048	89 41 08	 mov	 DWORD PTR [ecx+8], eax
  0004b	5e		 pop	 esi

; 1028 : 
; 1029 : 		_Left(_Pnode) = _Wherenode;

  0004c	89 10		 mov	 DWORD PTR [eax], edx

; 1030 : 		_Parent(_Wherenode) = _Pnode;

  0004e	89 42 04	 mov	 DWORD PTR [edx+4], eax
  00051	5b		 pop	 ebx

; 1031 : 		}

  00052	c2 04 00	 ret	 4
?_Lrotate@?$_Tree@V?$_Tmap_traits@EPAUtagSKILLPOINT@@U?$less@E@std@@V?$allocator@U?$pair@$$CBEPAUtagSKILLPOINT@@@std@@@3@$0A@@std@@@std@@IAEXPAU_Node@?$_Tree_nod@V?$_Tmap_traits@EPAUtagSKILLPOINT@@U?$less@E@std@@V?$allocator@U?$pair@$$CBEPAUtagSKILLPOINT@@@std@@@3@$0A@@std@@@2@@Z ENDP ; std::_Tree<std::_Tmap_traits<unsigned char,tagSKILLPOINT *,std::less<unsigned char>,std::allocator<std::pair<unsigned char const ,tagSKILLPOINT *> >,0> >::_Lrotate
_TEXT	ENDS
PUBLIC	?_Rrotate@?$_Tree@V?$_Tmap_traits@EPAUtagSKILLPOINT@@U?$less@E@std@@V?$allocator@U?$pair@$$CBEPAUtagSKILLPOINT@@@std@@@3@$0A@@std@@@std@@IAEXPAU_Node@?$_Tree_nod@V?$_Tmap_traits@EPAUtagSKILLPOINT@@U?$less@E@std@@V?$allocator@U?$pair@$$CBEPAUtagSKILLPOINT@@@std@@@3@$0A@@std@@@2@@Z ; std::_Tree<std::_Tmap_traits<unsigned char,tagSKILLPOINT *,std::less<unsigned char>,std::allocator<std::pair<unsigned char const ,tagSKILLPOINT *> >,0> >::_Rrotate
; Function compile flags: /Ogty
;	COMDAT ?_Rrotate@?$_Tree@V?$_Tmap_traits@EPAUtagSKILLPOINT@@U?$less@E@std@@V?$allocator@U?$pair@$$CBEPAUtagSKILLPOINT@@@std@@@3@$0A@@std@@@std@@IAEXPAU_Node@?$_Tree_nod@V?$_Tmap_traits@EPAUtagSKILLPOINT@@U?$less@E@std@@V?$allocator@U?$pair@$$CBEPAUtagSKILLPOINT@@@std@@@3@$0A@@std@@@2@@Z
_TEXT	SEGMENT
__Wherenode$ = 8					; size = 4
?_Rrotate@?$_Tree@V?$_Tmap_traits@EPAUtagSKILLPOINT@@U?$less@E@std@@V?$allocator@U?$pair@$$CBEPAUtagSKILLPOINT@@@std@@@3@$0A@@std@@@std@@IAEXPAU_Node@?$_Tree_nod@V?$_Tmap_traits@EPAUtagSKILLPOINT@@U?$less@E@std@@V?$allocator@U?$pair@$$CBEPAUtagSKILLPOINT@@@std@@@3@$0A@@std@@@2@@Z PROC NEAR ; std::_Tree<std::_Tmap_traits<unsigned char,tagSKILLPOINT *,std::less<unsigned char>,std::allocator<std::pair<unsigned char const ,tagSKILLPOINT *> >,0> >::_Rrotate, COMDAT
; _this$ = ecx

; 1069 : 		_Nodeptr _Pnode = _Left(_Wherenode);

  00000	8b 54 24 04	 mov	 edx, DWORD PTR __Wherenode$[esp-4]
  00004	8b 02		 mov	 eax, DWORD PTR [edx]
  00006	53		 push	 ebx
  00007	56		 push	 esi

; 1070 : 		_Left(_Wherenode) = _Right(_Pnode);

  00008	8b 70 08	 mov	 esi, DWORD PTR [eax+8]
  0000b	89 32		 mov	 DWORD PTR [edx], esi

; 1071 : 
; 1072 : 		if (!_Isnil(_Right(_Pnode)))

  0000d	8b 70 08	 mov	 esi, DWORD PTR [eax+8]
  00010	8a 5e 15	 mov	 bl, BYTE PTR [esi+21]
  00013	84 db		 test	 bl, bl
  00015	75 03		 jne	 SHORT $L153200

; 1073 : 			_Parent(_Right(_Pnode)) = _Wherenode;

  00017	89 56 04	 mov	 DWORD PTR [esi+4], edx
$L153200:

; 1074 : 		_Parent(_Pnode) = _Parent(_Wherenode);

  0001a	8b 72 04	 mov	 esi, DWORD PTR [edx+4]
  0001d	89 70 04	 mov	 DWORD PTR [eax+4], esi

; 1075 : 
; 1076 : 		if (_Wherenode == _Root())

  00020	8b 49 04	 mov	 ecx, DWORD PTR [ecx+4]
  00023	3b 51 04	 cmp	 edx, DWORD PTR [ecx+4]
  00026	75 0e		 jne	 SHORT $L153201

; 1077 : 			_Root() = _Pnode;

  00028	89 41 04	 mov	 DWORD PTR [ecx+4], eax
  0002b	5e		 pop	 esi

; 1082 : 
; 1083 : 		_Right(_Pnode) = _Wherenode;

  0002c	89 50 08	 mov	 DWORD PTR [eax+8], edx

; 1084 : 		_Parent(_Wherenode) = _Pnode;

  0002f	89 42 04	 mov	 DWORD PTR [edx+4], eax
  00032	5b		 pop	 ebx

; 1085 : 		}

  00033	c2 04 00	 ret	 4
$L153201:

; 1078 : 		else if (_Wherenode == _Right(_Parent(_Wherenode)))

  00036	8b 4a 04	 mov	 ecx, DWORD PTR [edx+4]
  00039	3b 51 08	 cmp	 edx, DWORD PTR [ecx+8]
  0003c	75 0e		 jne	 SHORT $L153203

; 1079 : 			_Right(_Parent(_Wherenode)) = _Pnode;

  0003e	89 41 08	 mov	 DWORD PTR [ecx+8], eax
  00041	5e		 pop	 esi

; 1082 : 
; 1083 : 		_Right(_Pnode) = _Wherenode;

  00042	89 50 08	 mov	 DWORD PTR [eax+8], edx

; 1084 : 		_Parent(_Wherenode) = _Pnode;

  00045	89 42 04	 mov	 DWORD PTR [edx+4], eax
  00048	5b		 pop	 ebx

; 1085 : 		}

  00049	c2 04 00	 ret	 4
$L153203:

; 1080 : 		else
; 1081 : 			_Left(_Parent(_Wherenode)) = _Pnode;

  0004c	89 01		 mov	 DWORD PTR [ecx], eax
  0004e	5e		 pop	 esi

; 1082 : 
; 1083 : 		_Right(_Pnode) = _Wherenode;

  0004f	89 50 08	 mov	 DWORD PTR [eax+8], edx

; 1084 : 		_Parent(_Wherenode) = _Pnode;

  00052	89 42 04	 mov	 DWORD PTR [edx+4], eax
  00055	5b		 pop	 ebx

; 1085 : 		}

  00056	c2 04 00	 ret	 4
?_Rrotate@?$_Tree@V?$_Tmap_traits@EPAUtagSKILLPOINT@@U?$less@E@std@@V?$allocator@U?$pair@$$CBEPAUtagSKILLPOINT@@@std@@@3@$0A@@std@@@std@@IAEXPAU_Node@?$_Tree_nod@V?$_Tmap_traits@EPAUtagSKILLPOINT@@U?$less@E@std@@V?$allocator@U?$pair@$$CBEPAUtagSKILLPOINT@@@std@@@3@$0A@@std@@@2@@Z ENDP ; std::_Tree<std::_Tmap_traits<unsigned char,tagSKILLPOINT *,std::less<unsigned char>,std::allocator<std::pair<unsigned char const ,tagSKILLPOINT *> >,0> >::_Rrotate
_TEXT	ENDS
PUBLIC	??0?$_Tree_nod@V?$_Tmap_traits@EPAUtagSKILLPOINT@@U?$less@E@std@@V?$allocator@U?$pair@$$CBEPAUtagSKILLPOINT@@@std@@@3@$0A@@std@@@std@@IAE@ABU?$less@E@1@V?$allocator@U?$pair@$$CBEPAUtagSKILLPOINT@@@std@@@1@@Z ; std::_Tree_nod<std::_Tmap_traits<unsigned char,tagSKILLPOINT *,std::less<unsigned char>,std::allocator<std::pair<unsigned char const ,tagSKILLPOINT *> >,0> >::_Tree_nod<std::_Tmap_traits<unsigned char,tagSKILLPOINT *,std::less<unsigned char>,std::allocator<std::pair<unsigned char const ,tagSKILLPOINT *> >,0> >
; Function compile flags: /Ogty
;	COMDAT ??0?$_Tree_nod@V?$_Tmap_traits@EPAUtagSKILLPOINT@@U?$less@E@std@@V?$allocator@U?$pair@$$CBEPAUtagSKILLPOINT@@@std@@@3@$0A@@std@@@std@@IAE@ABU?$less@E@1@V?$allocator@U?$pair@$$CBEPAUtagSKILLPOINT@@@std@@@1@@Z
_TEXT	SEGMENT
__Parg$ = 8						; size = 4
__Al$ = 12						; size = 1
??0?$_Tree_nod@V?$_Tmap_traits@EPAUtagSKILLPOINT@@U?$less@E@std@@V?$allocator@U?$pair@$$CBEPAUtagSKILLPOINT@@@std@@@3@$0A@@std@@@std@@IAE@ABU?$less@E@1@V?$allocator@U?$pair@$$CBEPAUtagSKILLPOINT@@@std@@@1@@Z PROC NEAR ; std::_Tree_nod<std::_Tmap_traits<unsigned char,tagSKILLPOINT *,std::less<unsigned char>,std::allocator<std::pair<unsigned char const ,tagSKILLPOINT *> >,0> >::_Tree_nod<std::_Tmap_traits<unsigned char,tagSKILLPOINT *,std::less<unsigned char>,std::allocator<std::pair<unsigned char const ,tagSKILLPOINT *> >,0> >, COMDAT
; _this$ = ecx

; 54   : 		{	// construct traits from _Parg and allocator from _Al

  00000	8b c1		 mov	 eax, ecx

; 55   : 		}

  00002	c2 08 00	 ret	 8
??0?$_Tree_nod@V?$_Tmap_traits@EPAUtagSKILLPOINT@@U?$less@E@std@@V?$allocator@U?$pair@$$CBEPAUtagSKILLPOINT@@@std@@@3@$0A@@std@@@std@@IAE@ABU?$less@E@1@V?$allocator@U?$pair@$$CBEPAUtagSKILLPOINT@@@std@@@1@@Z ENDP ; std::_Tree_nod<std::_Tmap_traits<unsigned char,tagSKILLPOINT *,std::less<unsigned char>,std::allocator<std::pair<unsigned char const ,tagSKILLPOINT *> >,0> >::_Tree_nod<std::_Tmap_traits<unsigned char,tagSKILLPOINT *,std::less<unsigned char>,std::allocator<std::pair<unsigned char const ,tagSKILLPOINT *> >,0> >
_TEXT	ENDS
PUBLIC	?allocate@?$allocator@U_Node@?$_Tree_nod@V?$_Tmap_traits@EPAUtagSKILLPOINT@@U?$less@E@std@@V?$allocator@U?$pair@$$CBEPAUtagSKILLPOINT@@@std@@@3@$0A@@std@@@std@@@std@@QAEPAU_Node@?$_Tree_nod@V?$_Tmap_traits@EPAUtagSKILLPOINT@@U?$less@E@std@@V?$allocator@U?$pair@$$CBEPAUtagSKILLPOINT@@@std@@@3@$0A@@std@@@2@I@Z ; std::allocator<std::_Tree_nod<std::_Tmap_traits<unsigned char,tagSKILLPOINT *,std::less<unsigned char>,std::allocator<std::pair<unsigned char const ,tagSKILLPOINT *> >,0> >::_Node>::allocate
; Function compile flags: /Ogty
; File c:\program files (x86)\microsoft visual studio .net 2003\vc7\include\xmemory
;	COMDAT ?allocate@?$allocator@U_Node@?$_Tree_nod@V?$_Tmap_traits@EPAUtagSKILLPOINT@@U?$less@E@std@@V?$allocator@U?$pair@$$CBEPAUtagSKILLPOINT@@@std@@@3@$0A@@std@@@std@@@std@@QAEPAU_Node@?$_Tree_nod@V?$_Tmap_traits@EPAUtagSKILLPOINT@@U?$less@E@std@@V?$allocator@U?$pair@$$CBEPAUtagSKILLPOINT@@@std@@@3@$0A@@std@@@2@I@Z
_TEXT	SEGMENT
__Count$ = 8						; size = 4
?allocate@?$allocator@U_Node@?$_Tree_nod@V?$_Tmap_traits@EPAUtagSKILLPOINT@@U?$less@E@std@@V?$allocator@U?$pair@$$CBEPAUtagSKILLPOINT@@@std@@@3@$0A@@std@@@std@@@std@@QAEPAU_Node@?$_Tree_nod@V?$_Tmap_traits@EPAUtagSKILLPOINT@@U?$less@E@std@@V?$allocator@U?$pair@$$CBEPAUtagSKILLPOINT@@@std@@@3@$0A@@std@@@2@I@Z PROC NEAR ; std::allocator<std::_Tree_nod<std::_Tmap_traits<unsigned char,tagSKILLPOINT *,std::less<unsigned char>,std::allocator<std::pair<unsigned char const ,tagSKILLPOINT *> >,0> >::_Node>::allocate, COMDAT
; _this$ = ecx

; 137  : 		return (_Allocate(_Count, (pointer)0));

  00000	8b 44 24 04	 mov	 eax, DWORD PTR __Count$[esp-4]
  00004	8d 04 40	 lea	 eax, DWORD PTR [eax+eax*2]
  00007	c1 e0 03	 shl	 eax, 3
  0000a	50		 push	 eax
  0000b	e8 00 00 00 00	 call	 ??2@YAPAXI@Z		; operator new
  00010	83 c4 04	 add	 esp, 4

; 138  : 		}

  00013	c2 04 00	 ret	 4
?allocate@?$allocator@U_Node@?$_Tree_nod@V?$_Tmap_traits@EPAUtagSKILLPOINT@@U?$less@E@std@@V?$allocator@U?$pair@$$CBEPAUtagSKILLPOINT@@@std@@@3@$0A@@std@@@std@@@std@@QAEPAU_Node@?$_Tree_nod@V?$_Tmap_traits@EPAUtagSKILLPOINT@@U?$less@E@std@@V?$allocator@U?$pair@$$CBEPAUtagSKILLPOINT@@@std@@@3@$0A@@std@@@2@I@Z ENDP ; std::allocator<std::_Tree_nod<std::_Tmap_traits<unsigned char,tagSKILLPOINT *,std::less<unsigned char>,std::allocator<std::pair<unsigned char const ,tagSKILLPOINT *> >,0> >::_Node>::allocate
_TEXT	ENDS
PUBLIC	??$_Destroy_range@PAUtagTSKILLDATA@@V?$allocator@PAUtagTSKILLDATA@@@std@@@std@@YAXPAPAUtagTSKILLDATA@@0AAV?$allocator@PAUtagTSKILLDATA@@@0@@Z ; std::_Destroy_range<tagTSKILLDATA *,std::allocator<tagTSKILLDATA *> >
; Function compile flags: /Ogty
;	COMDAT ??$_Destroy_range@PAUtagTSKILLDATA@@V?$allocator@PAUtagTSKILLDATA@@@std@@@std@@YAXPAPAUtagTSKILLDATA@@0AAV?$allocator@PAUtagTSKILLDATA@@@0@@Z
_TEXT	SEGMENT
__First$ = 8						; size = 4
__Last$ = 12						; size = 4
__Al$ = 16						; size = 4
??$_Destroy_range@PAUtagTSKILLDATA@@V?$allocator@PAUtagTSKILLDATA@@@std@@@std@@YAXPAPAUtagTSKILLDATA@@0AAV?$allocator@PAUtagTSKILLDATA@@@0@@Z PROC NEAR ; std::_Destroy_range<tagTSKILLDATA *,std::allocator<tagTSKILLDATA *> >, COMDAT

; 217  : 	_Destroy_range(_First, _Last, _Al, _Ptr_cat(_First, _Last));
; 218  : 	}

  00000	c3		 ret	 0
??$_Destroy_range@PAUtagTSKILLDATA@@V?$allocator@PAUtagTSKILLDATA@@@std@@@std@@YAXPAPAUtagTSKILLDATA@@0AAV?$allocator@PAUtagTSKILLDATA@@@0@@Z ENDP ; std::_Destroy_range<tagTSKILLDATA *,std::allocator<tagTSKILLDATA *> >
_TEXT	ENDS
PUBLIC	??$_Construct@PAU_Node@?$_Tree_nod@V?$_Tmap_traits@EPAUtagSKILLPOINT@@U?$less@E@std@@V?$allocator@U?$pair@$$CBEPAUtagSKILLPOINT@@@std@@@3@$0A@@std@@@std@@PAU123@@std@@YAXPAPAU_Node@?$_Tree_nod@V?$_Tmap_traits@EPAUtagSKILLPOINT@@U?$less@E@std@@V?$allocator@U?$pair@$$CBEPAUtagSKILLPOINT@@@std@@@3@$0A@@std@@@0@ABQAU120@@Z ; std::_Construct<std::_Tree_nod<std::_Tmap_traits<unsigned char,tagSKILLPOINT *,std::less<unsigned char>,std::allocator<std::pair<unsigned char const ,tagSKILLPOINT *> >,0> >::_Node *,std::_Tree_nod<std::_Tmap_traits<unsigned char,tagSKILLPOINT *,std::less<unsigned char>,std::allocator<std::pair<unsigned char const ,tagSKILLPOINT *> >,0> >::_Node *>
; Function compile flags: /Ogty
;	COMDAT ??$_Construct@PAU_Node@?$_Tree_nod@V?$_Tmap_traits@EPAUtagSKILLPOINT@@U?$less@E@std@@V?$allocator@U?$pair@$$CBEPAUtagSKILLPOINT@@@std@@@3@$0A@@std@@@std@@PAU123@@std@@YAXPAPAU_Node@?$_Tree_nod@V?$_Tmap_traits@EPAUtagSKILLPOINT@@U?$less@E@std@@V?$allocator@U?$pair@$$CBEPAUtagSKILLPOINT@@@std@@@3@$0A@@std@@@0@ABQAU120@@Z
_TEXT	SEGMENT
__Ptr$ = 8						; size = 4
__Val$ = 12						; size = 4
??$_Construct@PAU_Node@?$_Tree_nod@V?$_Tmap_traits@EPAUtagSKILLPOINT@@U?$less@E@std@@V?$allocator@U?$pair@$$CBEPAUtagSKILLPOINT@@@std@@@3@$0A@@std@@@std@@PAU123@@std@@YAXPAPAU_Node@?$_Tree_nod@V?$_Tmap_traits@EPAUtagSKILLPOINT@@U?$less@E@std@@V?$allocator@U?$pair@$$CBEPAUtagSKILLPOINT@@@std@@@3@$0A@@std@@@0@ABQAU120@@Z PROC NEAR ; std::_Construct<std::_Tree_nod<std::_Tmap_traits<unsigned char,tagSKILLPOINT *,std::less<unsigned char>,std::allocator<std::pair<unsigned char const ,tagSKILLPOINT *> >,0> >::_Node *,std::_Tree_nod<std::_Tmap_traits<unsigned char,tagSKILLPOINT *,std::less<unsigned char>,std::allocator<std::pair<unsigned char const ,tagSKILLPOINT *> >,0> >::_Node *>, COMDAT

; 42   : 	new ((void _FARQ *)_Ptr) _T1(_Val);

  00000	8b 44 24 04	 mov	 eax, DWORD PTR __Ptr$[esp-4]
  00004	85 c0		 test	 eax, eax
  00006	74 08		 je	 SHORT $L154544
  00008	8b 4c 24 08	 mov	 ecx, DWORD PTR __Val$[esp-4]
  0000c	8b 11		 mov	 edx, DWORD PTR [ecx]
  0000e	89 10		 mov	 DWORD PTR [eax], edx
$L154544:

; 43   : 	}

  00010	c3		 ret	 0
??$_Construct@PAU_Node@?$_Tree_nod@V?$_Tmap_traits@EPAUtagSKILLPOINT@@U?$less@E@std@@V?$allocator@U?$pair@$$CBEPAUtagSKILLPOINT@@@std@@@3@$0A@@std@@@std@@PAU123@@std@@YAXPAPAU_Node@?$_Tree_nod@V?$_Tmap_traits@EPAUtagSKILLPOINT@@U?$less@E@std@@V?$allocator@U?$pair@$$CBEPAUtagSKILLPOINT@@@std@@@3@$0A@@std@@@0@ABQAU120@@Z ENDP ; std::_Construct<std::_Tree_nod<std::_Tmap_traits<unsigned char,tagSKILLPOINT *,std::less<unsigned char>,std::allocator<std::pair<unsigned char const ,tagSKILLPOINT *> >,0> >::_Node *,std::_Tree_nod<std::_Tmap_traits<unsigned char,tagSKILLPOINT *,std::less<unsigned char>,std::allocator<std::pair<unsigned char const ,tagSKILLPOINT *> >,0> >::_Node *>
_TEXT	ENDS
PUBLIC	?pow@@YAMMH@Z					; pow
; Function compile flags: /Ogty
; File c:\program files (x86)\microsoft visual studio .net 2003\vc7\include\math.h
;	COMDAT ?pow@@YAMMH@Z
_TEXT	SEGMENT
__X$ = 8						; size = 4
__Y$ = 12						; size = 4
?pow@@YAMMH@Z PROC NEAR					; pow, COMDAT

; 573  :         {return (_Pow_int(_X, _Y)); }

  00000	8b 44 24 08	 mov	 eax, DWORD PTR __Y$[esp-4]
  00004	8b 4c 24 04	 mov	 ecx, DWORD PTR __X$[esp-4]
  00008	50		 push	 eax
  00009	51		 push	 ecx
  0000a	e8 00 00 00 00	 call	 ??$_Pow_int@M@@YAMMH@Z	; _Pow_int<float>
  0000f	83 c4 08	 add	 esp, 8
  00012	c3		 ret	 0
?pow@@YAMMH@Z ENDP					; pow
_TEXT	ENDS
PUBLIC	??0?$_String_val@DV?$allocator@D@std@@@std@@IAE@V?$allocator@D@1@@Z ; std::_String_val<char,std::allocator<char> >::_String_val<char,std::allocator<char> >
; Function compile flags: /Ogty
; File c:\program files (x86)\microsoft visual studio .net 2003\vc7\include\xstring
;	COMDAT ??0?$_String_val@DV?$allocator@D@std@@@std@@IAE@V?$allocator@D@1@@Z
_TEXT	SEGMENT
__Al$ = 8						; size = 1
??0?$_String_val@DV?$allocator@D@std@@@std@@IAE@V?$allocator@D@1@@Z PROC NEAR ; std::_String_val<char,std::allocator<char> >::_String_val<char,std::allocator<char> >, COMDAT
; _this$ = ecx

; 34   : 		{	// construct allocator from _Al

  00000	8b c1		 mov	 eax, ecx

; 35   : 		}

  00002	c2 04 00	 ret	 4
??0?$_String_val@DV?$allocator@D@std@@@std@@IAE@V?$allocator@D@1@@Z ENDP ; std::_String_val<char,std::allocator<char> >::_String_val<char,std::allocator<char> >
_TEXT	ENDS
PUBLIC	?_Eos@?$basic_string@DU?$char_traits@D@std@@V?$allocator@D@2@@std@@IAEXI@Z ; std::basic_string<char,std::char_traits<char>,std::allocator<char> >::_Eos
; Function compile flags: /Ogty
;	COMDAT ?_Eos@?$basic_string@DU?$char_traits@D@std@@V?$allocator@D@2@@std@@IAEXI@Z
_TEXT	SEGMENT
__Newsize$ = 8						; size = 4
?_Eos@?$basic_string@DU?$char_traits@D@std@@V?$allocator@D@2@@std@@IAEXI@Z PROC NEAR ; std::basic_string<char,std::char_traits<char>,std::allocator<char> >::_Eos, COMDAT
; _this$ = ecx

; 1475 : 		_Traits::assign(_Myptr()[_Mysize = _Newsize], _Elem());

  00000	83 79 18 10	 cmp	 DWORD PTR [ecx+24], 16	; 00000010H
  00004	8b 44 24 04	 mov	 eax, DWORD PTR __Newsize$[esp-4]
  00008	89 41 14	 mov	 DWORD PTR [ecx+20], eax
  0000b	72 0a		 jb	 SHORT $L154567
  0000d	8b 49 04	 mov	 ecx, DWORD PTR [ecx+4]
  00010	c6 04 01 00	 mov	 BYTE PTR [ecx+eax], 0

; 1476 : 		}

  00014	c2 04 00	 ret	 4

; 1475 : 		_Traits::assign(_Myptr()[_Mysize = _Newsize], _Elem());

$L154567:
  00017	c6 44 01 04 00	 mov	 BYTE PTR [ecx+eax+4], 0

; 1476 : 		}

  0001c	c2 04 00	 ret	 4
?_Eos@?$basic_string@DU?$char_traits@D@std@@V?$allocator@D@2@@std@@IAEXI@Z ENDP ; std::basic_string<char,std::char_traits<char>,std::allocator<char> >::_Eos
_TEXT	ENDS
PUBLIC	?max_size@?$basic_string@DU?$char_traits@D@std@@V?$allocator@D@2@@std@@QBEIXZ ; std::basic_string<char,std::char_traits<char>,std::allocator<char> >::max_size
; Function compile flags: /Ogty
;	COMDAT ?max_size@?$basic_string@DU?$char_traits@D@std@@V?$allocator@D@2@@std@@QBEIXZ
_TEXT	SEGMENT
?max_size@?$basic_string@DU?$char_traits@D@std@@V?$allocator@D@2@@std@@QBEIXZ PROC NEAR ; std::basic_string<char,std::char_traits<char>,std::allocator<char> >::max_size, COMDAT
; _this$ = ecx

; 1114 : 		size_type _Num = _Mybase::_Alval.max_size();
; 1115 : 		return (_Num <= 1 ? 1 : _Num - 1);

  00000	b8 fe ff ff ff	 mov	 eax, -2			; fffffffeH

; 1116 : 		}

  00005	c3		 ret	 0
?max_size@?$basic_string@DU?$char_traits@D@std@@V?$allocator@D@2@@std@@QBEIXZ ENDP ; std::basic_string<char,std::char_traits<char>,std::allocator<char> >::max_size
_TEXT	ENDS
PUBLIC	?allocate@?$allocator@D@std@@QAEPADI@Z		; std::allocator<char>::allocate
; Function compile flags: /Ogty
; File c:\program files (x86)\microsoft visual studio .net 2003\vc7\include\xmemory
;	COMDAT ?allocate@?$allocator@D@std@@QAEPADI@Z
_TEXT	SEGMENT
__Count$ = 8						; size = 4
?allocate@?$allocator@D@std@@QAEPADI@Z PROC NEAR	; std::allocator<char>::allocate, COMDAT
; _this$ = ecx

; 137  : 		return (_Allocate(_Count, (pointer)0));

  00000	8b 44 24 04	 mov	 eax, DWORD PTR __Count$[esp-4]
  00004	50		 push	 eax
  00005	e8 00 00 00 00	 call	 ??2@YAPAXI@Z		; operator new
  0000a	83 c4 04	 add	 esp, 4

; 138  : 		}

  0000d	c2 04 00	 ret	 4
?allocate@?$allocator@D@std@@QAEPADI@Z ENDP		; std::allocator<char>::allocate
_TEXT	ENDS
PUBLIC	?GetValue@CTSkillTemp@@QAEHPAUtagTSKILLDATA@@E@Z ; CTSkillTemp::GetValue
PUBLIC	__real@3c23d70a
;	COMDAT __real@3c23d70a
; File c:\program files (x86)\microsoft visual studio .net 2003\vc7\include\math.h
CONST	SEGMENT
__real@3c23d70a DD 03c23d70ar			; 0.01
; Function compile flags: /Ogty
; File c:\users\pierr\desktop\4story - oldschool\sources\tserver\tmapsvr\tskilltemp.cpp
CONST	ENDS
;	COMDAT ?GetValue@CTSkillTemp@@QAEHPAUtagTSKILLDATA@@E@Z
_TEXT	SEGMENT
_pData$ = 8						; size = 4
tv227 = 12						; size = 4
_bLevel$ = 12						; size = 1
?GetValue@CTSkillTemp@@QAEHPAUtagTSKILLDATA@@E@Z PROC NEAR ; CTSkillTemp::GetValue, COMDAT
; _this$ = ecx

; 63   : {

  00000	56		 push	 esi

; 64   : 	switch(pData->m_bCalc)

  00001	8b 74 24 08	 mov	 esi, DWORD PTR _pData$[esp]
  00005	0f b6 46 0a	 movzx	 eax, BYTE PTR [esi+10]
  00009	83 f8 03	 cmp	 eax, 3
  0000c	77 78		 ja	 SHORT $L152376
  0000e	ff 24 85 00 00
	00 00		 jmp	 DWORD PTR $L154600[eax*4]
$L152379:

; 65   : 	{
; 66   : 	case 0:
; 67   : 		return pData->m_wValue;

  00015	0f b7 46 06	 movzx	 eax, WORD PTR [esi+6]
  00019	5e		 pop	 esi

; 76   : }

  0001a	c2 08 00	 ret	 8
$L152380:

; 68   : 	case 1:
; 69   :         return pData->m_wValue + (bLevel-1) * pData->m_wValueInc;

  0001d	0f b6 4c 24 0c	 movzx	 ecx, BYTE PTR _bLevel$[esp]
  00022	0f b7 46 08	 movzx	 eax, WORD PTR [esi+8]
  00026	0f b7 56 06	 movzx	 edx, WORD PTR [esi+6]
  0002a	49		 dec	 ecx
  0002b	0f af c1	 imul	 eax, ecx
  0002e	03 c2		 add	 eax, edx
  00030	5e		 pop	 esi

; 76   : }

  00031	c2 08 00	 ret	 8
$L152381:

; 70   : 	case 2:
; 71   : 		return int((pData->m_wValue * pow(m_f1stRateX, m_bStartLevel+(bLevel-1)*m_bNextLevel))/100);

  00034	0f b6 54 24 0c	 movzx	 edx, BYTE PTR _bLevel$[esp]
  00039	0f b6 41 56	 movzx	 eax, BYTE PTR [ecx+86]
  0003d	4a		 dec	 edx
  0003e	0f af c2	 imul	 eax, edx
  00041	0f b6 51 54	 movzx	 edx, BYTE PTR [ecx+84]
  00045	03 c2		 add	 eax, edx
  00047	50		 push	 eax
  00048	8b 41 7c	 mov	 eax, DWORD PTR [ecx+124]
  0004b	50		 push	 eax
  0004c	e8 00 00 00 00	 call	 ??$_Pow_int@M@@YAMMH@Z	; _Pow_int<float>
  00051	0f b7 4e 06	 movzx	 ecx, WORD PTR [esi+6]
  00055	89 4c 24 14	 mov	 DWORD PTR tv227[esp+8], ecx
  00059	83 c4 08	 add	 esp, 8
  0005c	da 4c 24 0c	 fimul	 DWORD PTR tv227[esp]
  00060	d8 0d 00 00 00
	00		 fmul	 DWORD PTR __real@3c23d70a
  00066	e8 00 00 00 00	 call	 __ftol2
  0006b	5e		 pop	 esi

; 76   : }

  0006c	c2 08 00	 ret	 8
$L152382:

; 72   : 	case 3:
; 73   : 		return INT(pData->m_wValue) - (INT(bLevel)-1) * INT(pData->m_wValueInc);

  0006f	0f b6 44 24 0c	 movzx	 eax, BYTE PTR _bLevel$[esp]
  00074	0f b7 56 08	 movzx	 edx, WORD PTR [esi+8]
  00078	48		 dec	 eax
  00079	0f af d0	 imul	 edx, eax
  0007c	0f b7 46 06	 movzx	 eax, WORD PTR [esi+6]
  00080	2b c2		 sub	 eax, edx
  00082	5e		 pop	 esi

; 76   : }

  00083	c2 08 00	 ret	 8
$L152376:

; 74   : 	}
; 75   : 	return 0;

  00086	33 c0		 xor	 eax, eax
  00088	5e		 pop	 esi

; 76   : }

  00089	c2 08 00	 ret	 8
$L154600:
  0008c	00 00 00 00	 DD	 $L152379
  00090	00 00 00 00	 DD	 $L152380
  00094	00 00 00 00	 DD	 $L152381
  00098	00 00 00 00	 DD	 $L152382
?GetValue@CTSkillTemp@@QAEHPAUtagTSKILLDATA@@E@Z ENDP	; CTSkillTemp::GetValue
_TEXT	ENDS
PUBLIC	?GetAggro@CTSkillTemp@@QAEKE@Z			; CTSkillTemp::GetAggro
; Function compile flags: /Ogty
;	COMDAT ?GetAggro@CTSkillTemp@@QAEKE@Z
_TEXT	SEGMENT
tv178 = 8						; size = 4
_bLevel$ = 8						; size = 1
?GetAggro@CTSkillTemp@@QAEKE@Z PROC NEAR		; CTSkillTemp::GetAggro, COMDAT
; _this$ = ecx

; 433  : {

  00000	56		 push	 esi

; 434  : 	if(!m_dwAggro)

  00001	8b 71 4c	 mov	 esi, DWORD PTR [ecx+76]
  00004	85 f6		 test	 esi, esi
  00006	75 06		 jne	 SHORT $L152642

; 435  : 		return 0;

  00008	33 c0		 xor	 eax, eax
  0000a	5e		 pop	 esi

; 439  : }

  0000b	c2 04 00	 ret	 4
$L152642:

; 438  : 	return dwAggro;

  0000e	0f b6 54 24 08	 movzx	 edx, BYTE PTR _bLevel$[esp]
  00013	0f b6 41 56	 movzx	 eax, BYTE PTR [ecx+86]
  00017	4a		 dec	 edx
  00018	0f af c2	 imul	 eax, edx
  0001b	0f b6 51 54	 movzx	 edx, BYTE PTR [ecx+84]
  0001f	03 c2		 add	 eax, edx
  00021	50		 push	 eax
  00022	8b 41 7c	 mov	 eax, DWORD PTR [ecx+124]
  00025	50		 push	 eax
  00026	e8 00 00 00 00	 call	 ??$_Pow_int@M@@YAMMH@Z	; _Pow_int<float>
  0002b	83 c4 08	 add	 esp, 8
  0002e	85 f6		 test	 esi, esi
  00030	89 74 24 08	 mov	 DWORD PTR tv178[esp], esi
  00034	db 44 24 08	 fild	 DWORD PTR tv178[esp]
  00038	7d 06		 jge	 SHORT $L154608
  0003a	d8 05 00 00 00
	00		 fadd	 DWORD PTR __real@4f800000
$L154608:

; 436  : 
; 437  : 	DWORD dwAggro = DWORD(m_dwAggro * pow(m_f1stRateX, m_bStartLevel+(bLevel-1)*m_bNextLevel)) / 100;

  00040	de c9		 fmulp	 ST(1), ST(0)

; 438  : 	return dwAggro;

  00042	e8 00 00 00 00	 call	 __ftol2
  00047	8b c8		 mov	 ecx, eax
  00049	b8 1f 85 eb 51	 mov	 eax, 1374389535		; 51eb851fH
  0004e	f7 e1		 mul	 ecx
  00050	8b c2		 mov	 eax, edx
  00052	c1 e8 05	 shr	 eax, 5
  00055	5e		 pop	 esi

; 439  : }

  00056	c2 04 00	 ret	 4
?GetAggro@CTSkillTemp@@QAEKE@Z ENDP			; CTSkillTemp::GetAggro
_TEXT	ENDS
PUBLIC	?begin@?$_Tree@V?$_Tmap_traits@EPAUtagSKILLPOINT@@U?$less@E@std@@V?$allocator@U?$pair@$$CBEPAUtagSKILLPOINT@@@std@@@3@$0A@@std@@@std@@QAE?AViterator@12@XZ ; std::_Tree<std::_Tmap_traits<unsigned char,tagSKILLPOINT *,std::less<unsigned char>,std::allocator<std::pair<unsigned char const ,tagSKILLPOINT *> >,0> >::begin
; Function compile flags: /Ogty
; File c:\program files (x86)\microsoft visual studio .net 2003\vc7\include\xtree
;	COMDAT ?begin@?$_Tree@V?$_Tmap_traits@EPAUtagSKILLPOINT@@U?$less@E@std@@V?$allocator@U?$pair@$$CBEPAUtagSKILLPOINT@@@std@@@3@$0A@@std@@@std@@QAE?AViterator@12@XZ
_TEXT	SEGMENT
___$ReturnUdt$ = 8					; size = 4
?begin@?$_Tree@V?$_Tmap_traits@EPAUtagSKILLPOINT@@U?$less@E@std@@V?$allocator@U?$pair@$$CBEPAUtagSKILLPOINT@@@std@@@3@$0A@@std@@@std@@QAE?AViterator@12@XZ PROC NEAR ; std::_Tree<std::_Tmap_traits<unsigned char,tagSKILLPOINT *,std::less<unsigned char>,std::allocator<std::pair<unsigned char const ,tagSKILLPOINT *> >,0> >::begin, COMDAT
; _this$ = ecx

; 408  : 		return (_TREE_ITERATOR(_Lmost()));

  00000	8b 41 04	 mov	 eax, DWORD PTR [ecx+4]
  00003	8b 08		 mov	 ecx, DWORD PTR [eax]
  00005	8b 44 24 04	 mov	 eax, DWORD PTR ___$ReturnUdt$[esp-4]
  00009	89 08		 mov	 DWORD PTR [eax], ecx

; 409  : 		}

  0000b	c2 04 00	 ret	 4
?begin@?$_Tree@V?$_Tmap_traits@EPAUtagSKILLPOINT@@U?$less@E@std@@V?$allocator@U?$pair@$$CBEPAUtagSKILLPOINT@@@std@@@3@$0A@@std@@@std@@QAE?AViterator@12@XZ ENDP ; std::_Tree<std::_Tmap_traits<unsigned char,tagSKILLPOINT *,std::less<unsigned char>,std::allocator<std::pair<unsigned char const ,tagSKILLPOINT *> >,0> >::begin
_TEXT	ENDS
PUBLIC	?end@?$_Tree@V?$_Tmap_traits@EPAUtagSKILLPOINT@@U?$less@E@std@@V?$allocator@U?$pair@$$CBEPAUtagSKILLPOINT@@@std@@@3@$0A@@std@@@std@@QAE?AViterator@12@XZ ; std::_Tree<std::_Tmap_traits<unsigned char,tagSKILLPOINT *,std::less<unsigned char>,std::allocator<std::pair<unsigned char const ,tagSKILLPOINT *> >,0> >::end
; Function compile flags: /Ogty
;	COMDAT ?end@?$_Tree@V?$_Tmap_traits@EPAUtagSKILLPOINT@@U?$less@E@std@@V?$allocator@U?$pair@$$CBEPAUtagSKILLPOINT@@@std@@@3@$0A@@std@@@std@@QAE?AViterator@12@XZ
_TEXT	SEGMENT
___$ReturnUdt$ = 8					; size = 4
?end@?$_Tree@V?$_Tmap_traits@EPAUtagSKILLPOINT@@U?$less@E@std@@V?$allocator@U?$pair@$$CBEPAUtagSKILLPOINT@@@std@@@3@$0A@@std@@@std@@QAE?AViterator@12@XZ PROC NEAR ; std::_Tree<std::_Tmap_traits<unsigned char,tagSKILLPOINT *,std::less<unsigned char>,std::allocator<std::pair<unsigned char const ,tagSKILLPOINT *> >,0> >::end, COMDAT
; _this$ = ecx

; 418  : 		return (_TREE_ITERATOR(_Myhead));

  00000	8b 49 04	 mov	 ecx, DWORD PTR [ecx+4]
  00003	8b 44 24 04	 mov	 eax, DWORD PTR ___$ReturnUdt$[esp-4]
  00007	89 08		 mov	 DWORD PTR [eax], ecx

; 419  : 		}

  00009	c2 04 00	 ret	 4
?end@?$_Tree@V?$_Tmap_traits@EPAUtagSKILLPOINT@@U?$less@E@std@@V?$allocator@U?$pair@$$CBEPAUtagSKILLPOINT@@@std@@@3@$0A@@std@@@std@@QAE?AViterator@12@XZ ENDP ; std::_Tree<std::_Tmap_traits<unsigned char,tagSKILLPOINT *,std::less<unsigned char>,std::allocator<std::pair<unsigned char const ,tagSKILLPOINT *> >,0> >::end
_TEXT	ENDS
PUBLIC	??Diterator@?$_Tree@V?$_Tmap_traits@EPAUtagSKILLPOINT@@U?$less@E@std@@V?$allocator@U?$pair@$$CBEPAUtagSKILLPOINT@@@std@@@3@$0A@@std@@@std@@QBEAAU?$pair@$$CBEPAUtagSKILLPOINT@@@2@XZ ; std::_Tree<std::_Tmap_traits<unsigned char,tagSKILLPOINT *,std::less<unsigned char>,std::allocator<std::pair<unsigned char const ,tagSKILLPOINT *> >,0> >::iterator::operator*
; Function compile flags: /Ogty
;	COMDAT ??Diterator@?$_Tree@V?$_Tmap_traits@EPAUtagSKILLPOINT@@U?$less@E@std@@V?$allocator@U?$pair@$$CBEPAUtagSKILLPOINT@@@std@@@3@$0A@@std@@@std@@QBEAAU?$pair@$$CBEPAUtagSKILLPOINT@@@2@XZ
_TEXT	SEGMENT
??Diterator@?$_Tree@V?$_Tmap_traits@EPAUtagSKILLPOINT@@U?$less@E@std@@V?$allocator@U?$pair@$$CBEPAUtagSKILLPOINT@@@std@@@3@$0A@@std@@@std@@QBEAAU?$pair@$$CBEPAUtagSKILLPOINT@@@2@XZ PROC NEAR ; std::_Tree<std::_Tmap_traits<unsigned char,tagSKILLPOINT *,std::less<unsigned char>,std::allocator<std::pair<unsigned char const ,tagSKILLPOINT *> >,0> >::iterator::operator*, COMDAT
; _this$ = ecx

; 317  : 			return ((reference)**(const_iterator *)this);

  00000	8b 01		 mov	 eax, DWORD PTR [ecx]
  00002	83 c0 0c	 add	 eax, 12			; 0000000cH

; 318  : 			}

  00005	c3		 ret	 0
??Diterator@?$_Tree@V?$_Tmap_traits@EPAUtagSKILLPOINT@@U?$less@E@std@@V?$allocator@U?$pair@$$CBEPAUtagSKILLPOINT@@@std@@@3@$0A@@std@@@std@@QBEAAU?$pair@$$CBEPAUtagSKILLPOINT@@@2@XZ ENDP ; std::_Tree<std::_Tmap_traits<unsigned char,tagSKILLPOINT *,std::less<unsigned char>,std::allocator<std::pair<unsigned char const ,tagSKILLPOINT *> >,0> >::iterator::operator*
_TEXT	ENDS
PUBLIC	?begin@?$vector@PAUtagTSKILLDATA@@V?$allocator@PAUtagTSKILLDATA@@@std@@@std@@QAE?AViterator@12@XZ ; std::vector<tagTSKILLDATA *,std::allocator<tagTSKILLDATA *> >::begin
; Function compile flags: /Ogty
; File c:\program files (x86)\microsoft visual studio .net 2003\vc7\include\vector
;	COMDAT ?begin@?$vector@PAUtagTSKILLDATA@@V?$allocator@PAUtagTSKILLDATA@@@std@@@std@@QAE?AViterator@12@XZ
_TEXT	SEGMENT
___$ReturnUdt$ = 8					; size = 4
?begin@?$vector@PAUtagTSKILLDATA@@V?$allocator@PAUtagTSKILLDATA@@@std@@@std@@QAE?AViterator@12@XZ PROC NEAR ; std::vector<tagTSKILLDATA *,std::allocator<tagTSKILLDATA *> >::begin, COMDAT
; _this$ = ecx

; 463  : 		return (iterator(_Myfirst));

  00000	8b 49 04	 mov	 ecx, DWORD PTR [ecx+4]
  00003	8b 44 24 04	 mov	 eax, DWORD PTR ___$ReturnUdt$[esp-4]
  00007	89 08		 mov	 DWORD PTR [eax], ecx

; 464  : 		}

  00009	c2 04 00	 ret	 4
?begin@?$vector@PAUtagTSKILLDATA@@V?$allocator@PAUtagTSKILLDATA@@@std@@@std@@QAE?AViterator@12@XZ ENDP ; std::vector<tagTSKILLDATA *,std::allocator<tagTSKILLDATA *> >::begin
_TEXT	ENDS
PUBLIC	?end@?$vector@PAUtagTSKILLDATA@@V?$allocator@PAUtagTSKILLDATA@@@std@@@std@@QAE?AViterator@12@XZ ; std::vector<tagTSKILLDATA *,std::allocator<tagTSKILLDATA *> >::end
; Function compile flags: /Ogty
;	COMDAT ?end@?$vector@PAUtagTSKILLDATA@@V?$allocator@PAUtagTSKILLDATA@@@std@@@std@@QAE?AViterator@12@XZ
_TEXT	SEGMENT
___$ReturnUdt$ = 8					; size = 4
?end@?$vector@PAUtagTSKILLDATA@@V?$allocator@PAUtagTSKILLDATA@@@std@@@std@@QAE?AViterator@12@XZ PROC NEAR ; std::vector<tagTSKILLDATA *,std::allocator<tagTSKILLDATA *> >::end, COMDAT
; _this$ = ecx

; 473  : 		return (iterator(_Mylast));

  00000	8b 49 08	 mov	 ecx, DWORD PTR [ecx+8]
  00003	8b 44 24 04	 mov	 eax, DWORD PTR ___$ReturnUdt$[esp-4]
  00007	89 08		 mov	 DWORD PTR [eax], ecx

; 474  : 		}

  00009	c2 04 00	 ret	 4
?end@?$vector@PAUtagTSKILLDATA@@V?$allocator@PAUtagTSKILLDATA@@@std@@@std@@QAE?AViterator@12@XZ ENDP ; std::vector<tagTSKILLDATA *,std::allocator<tagTSKILLDATA *> >::end
_TEXT	ENDS
PUBLIC	?_Destroy@?$vector@PAUtagTSKILLDATA@@V?$allocator@PAUtagTSKILLDATA@@@std@@@std@@IAEXPAPAUtagTSKILLDATA@@0@Z ; std::vector<tagTSKILLDATA *,std::allocator<tagTSKILLDATA *> >::_Destroy
; Function compile flags: /Ogty
;	COMDAT ?_Destroy@?$vector@PAUtagTSKILLDATA@@V?$allocator@PAUtagTSKILLDATA@@@std@@@std@@IAEXPAPAUtagTSKILLDATA@@0@Z
_TEXT	SEGMENT
__First$ = 8						; size = 4
__Last$ = 12						; size = 4
?_Destroy@?$vector@PAUtagTSKILLDATA@@V?$allocator@PAUtagTSKILLDATA@@@std@@@std@@IAEXPAPAUtagTSKILLDATA@@0@Z PROC NEAR ; std::vector<tagTSKILLDATA *,std::allocator<tagTSKILLDATA *> >::_Destroy, COMDAT
; _this$ = ecx

; 787  : 		_Destroy_range(_First, _Last, this->_Alval);
; 788  : 		}

  00000	c2 08 00	 ret	 8
?_Destroy@?$vector@PAUtagTSKILLDATA@@V?$allocator@PAUtagTSKILLDATA@@@std@@@std@@IAEXPAPAUtagTSKILLDATA@@0@Z ENDP ; std::vector<tagTSKILLDATA *,std::allocator<tagTSKILLDATA *> >::_Destroy
_TEXT	ENDS
PUBLIC	?_Tidy@?$vector@PAUtagTSKILLDATA@@V?$allocator@PAUtagTSKILLDATA@@@std@@@std@@IAEXXZ ; std::vector<tagTSKILLDATA *,std::allocator<tagTSKILLDATA *> >::_Tidy
; Function compile flags: /Ogty
;	COMDAT ?_Tidy@?$vector@PAUtagTSKILLDATA@@V?$allocator@PAUtagTSKILLDATA@@@std@@@std@@IAEXXZ
_TEXT	SEGMENT
?_Tidy@?$vector@PAUtagTSKILLDATA@@V?$allocator@PAUtagTSKILLDATA@@@std@@@std@@IAEXXZ PROC NEAR ; std::vector<tagTSKILLDATA *,std::allocator<tagTSKILLDATA *> >::_Tidy, COMDAT
; _this$ = ecx

; 791  : 		{	// free all storage

  00000	56		 push	 esi
  00001	8b f1		 mov	 esi, ecx

; 792  : 		if (_Myfirst != 0)

  00003	8b 46 04	 mov	 eax, DWORD PTR [esi+4]
  00006	85 c0		 test	 eax, eax
  00008	74 09		 je	 SHORT $L154685

; 793  : 			{	// something to free, destroy and deallocate it
; 794  : 			_Destroy(_Myfirst, _Mylast);
; 795  : 			this->_Alval.deallocate(_Myfirst, _Myend - _Myfirst);

  0000a	50		 push	 eax
  0000b	e8 00 00 00 00	 call	 ??3@YAXPAX@Z		; operator delete
  00010	83 c4 04	 add	 esp, 4
$L154685:

; 796  : 			}
; 797  : 		_Myfirst = 0, _Mylast = 0, _Myend = 0;

  00013	c7 46 04 00 00
	00 00		 mov	 DWORD PTR [esi+4], 0
  0001a	c7 46 08 00 00
	00 00		 mov	 DWORD PTR [esi+8], 0
  00021	c7 46 0c 00 00
	00 00		 mov	 DWORD PTR [esi+12], 0
  00028	5e		 pop	 esi

; 798  : 		}

  00029	c3		 ret	 0
?_Tidy@?$vector@PAUtagTSKILLDATA@@V?$allocator@PAUtagTSKILLDATA@@@std@@@std@@IAEXXZ ENDP ; std::vector<tagTSKILLDATA *,std::allocator<tagTSKILLDATA *> >::_Tidy
_TEXT	ENDS
PUBLIC	?lower_bound@?$_Tree@V?$_Tmap_traits@EPAUtagSKILLPOINT@@U?$less@E@std@@V?$allocator@U?$pair@$$CBEPAUtagSKILLPOINT@@@std@@@3@$0A@@std@@@std@@QAE?AViterator@12@ABE@Z ; std::_Tree<std::_Tmap_traits<unsigned char,tagSKILLPOINT *,std::less<unsigned char>,std::allocator<std::pair<unsigned char const ,tagSKILLPOINT *> >,0> >::lower_bound
; Function compile flags: /Ogty
; File c:\program files (x86)\microsoft visual studio .net 2003\vc7\include\xtree
;	COMDAT ?lower_bound@?$_Tree@V?$_Tmap_traits@EPAUtagSKILLPOINT@@U?$less@E@std@@V?$allocator@U?$pair@$$CBEPAUtagSKILLPOINT@@@std@@@3@$0A@@std@@@std@@QAE?AViterator@12@ABE@Z
_TEXT	SEGMENT
___$ReturnUdt$ = 8					; size = 4
__Keyval$ = 12						; size = 4
?lower_bound@?$_Tree@V?$_Tmap_traits@EPAUtagSKILLPOINT@@U?$less@E@std@@V?$allocator@U?$pair@$$CBEPAUtagSKILLPOINT@@@std@@@3@$0A@@std@@@std@@QAE?AViterator@12@ABE@Z PROC NEAR ; std::_Tree<std::_Tmap_traits<unsigned char,tagSKILLPOINT *,std::less<unsigned char>,std::allocator<std::pair<unsigned char const ,tagSKILLPOINT *> >,0> >::lower_bound, COMDAT
; _this$ = ecx

; 810  : 		return (_TREE_ITERATOR(_Lbound(_Keyval)));

  00000	8b 49 04	 mov	 ecx, DWORD PTR [ecx+4]
  00003	8b 41 04	 mov	 eax, DWORD PTR [ecx+4]
  00006	8a 50 15	 mov	 dl, BYTE PTR [eax+21]
  00009	84 d2		 test	 dl, dl
  0000b	75 1d		 jne	 SHORT $L154760
  0000d	8b 54 24 08	 mov	 edx, DWORD PTR __Keyval$[esp-4]
  00011	8a 12		 mov	 dl, BYTE PTR [edx]
  00013	53		 push	 ebx
$L154747:
  00014	38 50 0c	 cmp	 BYTE PTR [eax+12], dl
  00017	73 05		 jae	 SHORT $L154749
  00019	8b 40 08	 mov	 eax, DWORD PTR [eax+8]
  0001c	eb 04		 jmp	 SHORT $L154750
$L154749:
  0001e	8b c8		 mov	 ecx, eax
  00020	8b 00		 mov	 eax, DWORD PTR [eax]
$L154750:
  00022	8a 58 15	 mov	 bl, BYTE PTR [eax+21]
  00025	84 db		 test	 bl, bl
  00027	74 eb		 je	 SHORT $L154747
  00029	5b		 pop	 ebx
$L154760:
  0002a	8b 44 24 04	 mov	 eax, DWORD PTR ___$ReturnUdt$[esp-4]
  0002e	89 08		 mov	 DWORD PTR [eax], ecx

; 811  : 		}

  00030	c2 08 00	 ret	 8
?lower_bound@?$_Tree@V?$_Tmap_traits@EPAUtagSKILLPOINT@@U?$less@E@std@@V?$allocator@U?$pair@$$CBEPAUtagSKILLPOINT@@@std@@@3@$0A@@std@@@std@@QAE?AViterator@12@ABE@Z ENDP ; std::_Tree<std::_Tmap_traits<unsigned char,tagSKILLPOINT *,std::less<unsigned char>,std::allocator<std::pair<unsigned char const ,tagSKILLPOINT *> >,0> >::lower_bound
_TEXT	ENDS
PUBLIC	?_Erase@?$_Tree@V?$_Tmap_traits@EPAUtagSKILLPOINT@@U?$less@E@std@@V?$allocator@U?$pair@$$CBEPAUtagSKILLPOINT@@@std@@@3@$0A@@std@@@std@@IAEXPAU_Node@?$_Tree_nod@V?$_Tmap_traits@EPAUtagSKILLPOINT@@U?$less@E@std@@V?$allocator@U?$pair@$$CBEPAUtagSKILLPOINT@@@std@@@3@$0A@@std@@@2@@Z ; std::_Tree<std::_Tmap_traits<unsigned char,tagSKILLPOINT *,std::less<unsigned char>,std::allocator<std::pair<unsigned char const ,tagSKILLPOINT *> >,0> >::_Erase
; Function compile flags: /Ogty
;	COMDAT ?_Erase@?$_Tree@V?$_Tmap_traits@EPAUtagSKILLPOINT@@U?$less@E@std@@V?$allocator@U?$pair@$$CBEPAUtagSKILLPOINT@@@std@@@3@$0A@@std@@@std@@IAEXPAU_Node@?$_Tree_nod@V?$_Tmap_traits@EPAUtagSKILLPOINT@@U?$less@E@std@@V?$allocator@U?$pair@$$CBEPAUtagSKILLPOINT@@@std@@@3@$0A@@std@@@2@@Z
_TEXT	SEGMENT
__Rootnode$ = 8						; size = 4
?_Erase@?$_Tree@V?$_Tmap_traits@EPAUtagSKILLPOINT@@U?$less@E@std@@V?$allocator@U?$pair@$$CBEPAUtagSKILLPOINT@@@std@@@3@$0A@@std@@@std@@IAEXPAU_Node@?$_Tree_nod@V?$_Tmap_traits@EPAUtagSKILLPOINT@@U?$less@E@std@@V?$allocator@U?$pair@$$CBEPAUtagSKILLPOINT@@@std@@@3@$0A@@std@@@2@@Z PROC NEAR ; std::_Tree<std::_Tmap_traits<unsigned char,tagSKILLPOINT *,std::less<unsigned char>,std::allocator<std::pair<unsigned char const ,tagSKILLPOINT *> >,0> >::_Erase, COMDAT
; _this$ = ecx

; 890  : 		{	// free entire subtree, recursively

  00000	53		 push	 ebx
  00001	56		 push	 esi
  00002	57		 push	 edi

; 891  : 		for (_Nodeptr _Pnode = _Rootnode; !_Isnil(_Pnode); _Rootnode = _Pnode)

  00003	8b 7c 24 10	 mov	 edi, DWORD PTR __Rootnode$[esp+8]
  00007	8a 47 15	 mov	 al, BYTE PTR [edi+21]
  0000a	84 c0		 test	 al, al
  0000c	8b d9		 mov	 ebx, ecx
  0000e	8b f7		 mov	 esi, edi
  00010	75 1f		 jne	 SHORT $L152955
$L152953:

; 892  : 			{	// free subtrees, then node
; 893  : 			_Erase(_Right(_Pnode));

  00012	8b 46 08	 mov	 eax, DWORD PTR [esi+8]
  00015	50		 push	 eax
  00016	8b cb		 mov	 ecx, ebx
  00018	e8 00 00 00 00	 call	 ?_Erase@?$_Tree@V?$_Tmap_traits@EPAUtagSKILLPOINT@@U?$less@E@std@@V?$allocator@U?$pair@$$CBEPAUtagSKILLPOINT@@@std@@@3@$0A@@std@@@std@@IAEXPAU_Node@?$_Tree_nod@V?$_Tmap_traits@EPAUtagSKILLPOINT@@U?$less@E@std@@V?$allocator@U?$pair@$$CBEPAUtagSKILLPOINT@@@std@@@3@$0A@@std@@@2@@Z ; std::_Tree<std::_Tmap_traits<unsigned char,tagSKILLPOINT *,std::less<unsigned char>,std::allocator<std::pair<unsigned char const ,tagSKILLPOINT *> >,0> >::_Erase

; 894  : 			_Pnode = _Left(_Pnode);

  0001d	8b 36		 mov	 esi, DWORD PTR [esi]

; 895  : 			this->_Alnod.destroy(_Rootnode);	// destroy, free erased node
; 896  : 			this->_Alnod.deallocate(_Rootnode, 1);

  0001f	57		 push	 edi
  00020	e8 00 00 00 00	 call	 ??3@YAXPAX@Z		; operator delete
  00025	8a 46 15	 mov	 al, BYTE PTR [esi+21]
  00028	83 c4 04	 add	 esp, 4
  0002b	84 c0		 test	 al, al
  0002d	8b fe		 mov	 edi, esi
  0002f	74 e1		 je	 SHORT $L152953
$L152955:
  00031	5f		 pop	 edi
  00032	5e		 pop	 esi
  00033	5b		 pop	 ebx

; 897  : 			}
; 898  : 		}

  00034	c2 04 00	 ret	 4
?_Erase@?$_Tree@V?$_Tmap_traits@EPAUtagSKILLPOINT@@U?$less@E@std@@V?$allocator@U?$pair@$$CBEPAUtagSKILLPOINT@@@std@@@3@$0A@@std@@@std@@IAEXPAU_Node@?$_Tree_nod@V?$_Tmap_traits@EPAUtagSKILLPOINT@@U?$less@E@std@@V?$allocator@U?$pair@$$CBEPAUtagSKILLPOINT@@@std@@@3@$0A@@std@@@2@@Z ENDP ; std::_Tree<std::_Tmap_traits<unsigned char,tagSKILLPOINT *,std::less<unsigned char>,std::allocator<std::pair<unsigned char const ,tagSKILLPOINT *> >,0> >::_Erase
_TEXT	ENDS
PUBLIC	??Econst_iterator@?$_Tree@V?$_Tmap_traits@EPAUtagSKILLPOINT@@U?$less@E@std@@V?$allocator@U?$pair@$$CBEPAUtagSKILLPOINT@@@std@@@3@$0A@@std@@@std@@QAEAAV012@XZ ; std::_Tree<std::_Tmap_traits<unsigned char,tagSKILLPOINT *,std::less<unsigned char>,std::allocator<std::pair<unsigned char const ,tagSKILLPOINT *> >,0> >::const_iterator::operator++
; Function compile flags: /Ogty
;	COMDAT ??Econst_iterator@?$_Tree@V?$_Tmap_traits@EPAUtagSKILLPOINT@@U?$less@E@std@@V?$allocator@U?$pair@$$CBEPAUtagSKILLPOINT@@@std@@@3@$0A@@std@@@std@@QAEAAV012@XZ
_TEXT	SEGMENT
??Econst_iterator@?$_Tree@V?$_Tmap_traits@EPAUtagSKILLPOINT@@U?$less@E@std@@V?$allocator@U?$pair@$$CBEPAUtagSKILLPOINT@@@std@@@3@$0A@@std@@@std@@QAEAAV012@XZ PROC NEAR ; std::_Tree<std::_Tmap_traits<unsigned char,tagSKILLPOINT *,std::less<unsigned char>,std::allocator<std::pair<unsigned char const ,tagSKILLPOINT *> >,0> >::const_iterator::operator++, COMDAT
; _this$ = ecx

; 214  : 			{	// preincrement

  00000	56		 push	 esi
  00001	8b f1		 mov	 esi, ecx

; 215  : 			_Inc();

  00003	e8 00 00 00 00	 call	 ?_Inc@const_iterator@?$_Tree@V?$_Tmap_traits@EPAUtagSKILLPOINT@@U?$less@E@std@@V?$allocator@U?$pair@$$CBEPAUtagSKILLPOINT@@@std@@@3@$0A@@std@@@std@@QAEXXZ ; std::_Tree<std::_Tmap_traits<unsigned char,tagSKILLPOINT *,std::less<unsigned char>,std::allocator<std::pair<unsigned char const ,tagSKILLPOINT *> >,0> >::const_iterator::_Inc

; 216  : 			return (*this);

  00008	8b c6		 mov	 eax, esi
  0000a	5e		 pop	 esi

; 217  : 			}

  0000b	c3		 ret	 0
??Econst_iterator@?$_Tree@V?$_Tmap_traits@EPAUtagSKILLPOINT@@U?$less@E@std@@V?$allocator@U?$pair@$$CBEPAUtagSKILLPOINT@@@std@@@3@$0A@@std@@@std@@QAEAAV012@XZ ENDP ; std::_Tree<std::_Tmap_traits<unsigned char,tagSKILLPOINT *,std::less<unsigned char>,std::allocator<std::pair<unsigned char const ,tagSKILLPOINT *> >,0> >::const_iterator::operator++
_TEXT	ENDS
PUBLIC	??0?$_Tree_ptr@V?$_Tmap_traits@EPAUtagSKILLPOINT@@U?$less@E@std@@V?$allocator@U?$pair@$$CBEPAUtagSKILLPOINT@@@std@@@3@$0A@@std@@@std@@IAE@ABU?$less@E@1@V?$allocator@U?$pair@$$CBEPAUtagSKILLPOINT@@@std@@@1@@Z ; std::_Tree_ptr<std::_Tmap_traits<unsigned char,tagSKILLPOINT *,std::less<unsigned char>,std::allocator<std::pair<unsigned char const ,tagSKILLPOINT *> >,0> >::_Tree_ptr<std::_Tmap_traits<unsigned char,tagSKILLPOINT *,std::less<unsigned char>,std::allocator<std::pair<unsigned char const ,tagSKILLPOINT *> >,0> >
; Function compile flags: /Ogty
;	COMDAT ??0?$_Tree_ptr@V?$_Tmap_traits@EPAUtagSKILLPOINT@@U?$less@E@std@@V?$allocator@U?$pair@$$CBEPAUtagSKILLPOINT@@@std@@@3@$0A@@std@@@std@@IAE@ABU?$less@E@1@V?$allocator@U?$pair@$$CBEPAUtagSKILLPOINT@@@std@@@1@@Z
_TEXT	SEGMENT
__Parg$ = 8						; size = 4
__Al$ = 12						; size = 1
??0?$_Tree_ptr@V?$_Tmap_traits@EPAUtagSKILLPOINT@@U?$less@E@std@@V?$allocator@U?$pair@$$CBEPAUtagSKILLPOINT@@@std@@@3@$0A@@std@@@std@@IAE@ABU?$less@E@1@V?$allocator@U?$pair@$$CBEPAUtagSKILLPOINT@@@std@@@1@@Z PROC NEAR ; std::_Tree_ptr<std::_Tmap_traits<unsigned char,tagSKILLPOINT *,std::less<unsigned char>,std::allocator<std::pair<unsigned char const ,tagSKILLPOINT *> >,0> >::_Tree_ptr<std::_Tmap_traits<unsigned char,tagSKILLPOINT *,std::less<unsigned char>,std::allocator<std::pair<unsigned char const ,tagSKILLPOINT *> >,0> >, COMDAT
; _this$ = ecx

; 76   : 		{	// construct base, and allocator from _Al

  00000	8b c1		 mov	 eax, ecx

; 77   : 		}

  00002	c2 08 00	 ret	 8
??0?$_Tree_ptr@V?$_Tmap_traits@EPAUtagSKILLPOINT@@U?$less@E@std@@V?$allocator@U?$pair@$$CBEPAUtagSKILLPOINT@@@std@@@3@$0A@@std@@@std@@IAE@ABU?$less@E@1@V?$allocator@U?$pair@$$CBEPAUtagSKILLPOINT@@@std@@@1@@Z ENDP ; std::_Tree_ptr<std::_Tmap_traits<unsigned char,tagSKILLPOINT *,std::less<unsigned char>,std::allocator<std::pair<unsigned char const ,tagSKILLPOINT *> >,0> >::_Tree_ptr<std::_Tmap_traits<unsigned char,tagSKILLPOINT *,std::less<unsigned char>,std::allocator<std::pair<unsigned char const ,tagSKILLPOINT *> >,0> >
_TEXT	ENDS
PUBLIC	?construct@?$allocator@PAU_Node@?$_Tree_nod@V?$_Tmap_traits@EPAUtagSKILLPOINT@@U?$less@E@std@@V?$allocator@U?$pair@$$CBEPAUtagSKILLPOINT@@@std@@@3@$0A@@std@@@std@@@std@@QAEXPAPAU_Node@?$_Tree_nod@V?$_Tmap_traits@EPAUtagSKILLPOINT@@U?$less@E@std@@V?$allocator@U?$pair@$$CBEPAUtagSKILLPOINT@@@std@@@3@$0A@@std@@@2@ABQAU342@@Z ; std::allocator<std::_Tree_nod<std::_Tmap_traits<unsigned char,tagSKILLPOINT *,std::less<unsigned char>,std::allocator<std::pair<unsigned char const ,tagSKILLPOINT *> >,0> >::_Node *>::construct
; Function compile flags: /Ogty
; File c:\program files (x86)\microsoft visual studio .net 2003\vc7\include\xmemory
;	COMDAT ?construct@?$allocator@PAU_Node@?$_Tree_nod@V?$_Tmap_traits@EPAUtagSKILLPOINT@@U?$less@E@std@@V?$allocator@U?$pair@$$CBEPAUtagSKILLPOINT@@@std@@@3@$0A@@std@@@std@@@std@@QAEXPAPAU_Node@?$_Tree_nod@V?$_Tmap_traits@EPAUtagSKILLPOINT@@U?$less@E@std@@V?$allocator@U?$pair@$$CBEPAUtagSKILLPOINT@@@std@@@3@$0A@@std@@@2@ABQAU342@@Z
_TEXT	SEGMENT
__Ptr$ = 8						; size = 4
__Val$ = 12						; size = 4
?construct@?$allocator@PAU_Node@?$_Tree_nod@V?$_Tmap_traits@EPAUtagSKILLPOINT@@U?$less@E@std@@V?$allocator@U?$pair@$$CBEPAUtagSKILLPOINT@@@std@@@3@$0A@@std@@@std@@@std@@QAEXPAPAU_Node@?$_Tree_nod@V?$_Tmap_traits@EPAUtagSKILLPOINT@@U?$less@E@std@@V?$allocator@U?$pair@$$CBEPAUtagSKILLPOINT@@@std@@@3@$0A@@std@@@2@ABQAU342@@Z PROC NEAR ; std::allocator<std::_Tree_nod<std::_Tmap_traits<unsigned char,tagSKILLPOINT *,std::less<unsigned char>,std::allocator<std::pair<unsigned char const ,tagSKILLPOINT *> >,0> >::_Node *>::construct, COMDAT
; _this$ = ecx

; 147  : 		_Construct(_Ptr, _Val);

  00000	8b 44 24 04	 mov	 eax, DWORD PTR __Ptr$[esp-4]
  00004	85 c0		 test	 eax, eax
  00006	74 08		 je	 SHORT $L154817
  00008	8b 4c 24 08	 mov	 ecx, DWORD PTR __Val$[esp-4]
  0000c	8b 11		 mov	 edx, DWORD PTR [ecx]
  0000e	89 10		 mov	 DWORD PTR [eax], edx
$L154817:

; 148  : 		}

  00010	c2 08 00	 ret	 8
?construct@?$allocator@PAU_Node@?$_Tree_nod@V?$_Tmap_traits@EPAUtagSKILLPOINT@@U?$less@E@std@@V?$allocator@U?$pair@$$CBEPAUtagSKILLPOINT@@@std@@@3@$0A@@std@@@std@@@std@@QAEXPAPAU_Node@?$_Tree_nod@V?$_Tmap_traits@EPAUtagSKILLPOINT@@U?$less@E@std@@V?$allocator@U?$pair@$$CBEPAUtagSKILLPOINT@@@std@@@3@$0A@@std@@@2@ABQAU342@@Z ENDP ; std::allocator<std::_Tree_nod<std::_Tmap_traits<unsigned char,tagSKILLPOINT *,std::less<unsigned char>,std::allocator<std::pair<unsigned char const ,tagSKILLPOINT *> >,0> >::_Node *>::construct
_TEXT	ENDS
PUBLIC	?_Tidy@?$basic_string@DU?$char_traits@D@std@@V?$allocator@D@2@@std@@IAEX_NI@Z ; std::basic_string<char,std::char_traits<char>,std::allocator<char> >::_Tidy
; Function compile flags: /Ogty
; File c:\program files (x86)\microsoft visual studio .net 2003\vc7\include\xstring
;	COMDAT ?_Tidy@?$basic_string@DU?$char_traits@D@std@@V?$allocator@D@2@@std@@IAEX_NI@Z
_TEXT	SEGMENT
__Built$ = 8						; size = 1
__Newsize$ = 12						; size = 4
?_Tidy@?$basic_string@DU?$char_traits@D@std@@V?$allocator@D@2@@std@@IAEX_NI@Z PROC NEAR ; std::basic_string<char,std::char_traits<char>,std::allocator<char> >::_Tidy, COMDAT
; _this$ = ecx

; 1510 : 		if (!_Built)

  00000	8a 44 24 04	 mov	 al, BYTE PTR __Built$[esp-4]
  00004	84 c0		 test	 al, al
  00006	53		 push	 ebx
  00007	55		 push	 ebp
  00008	8b 6c 24 10	 mov	 ebp, DWORD PTR __Newsize$[esp+4]
  0000c	8b d9		 mov	 ebx, ecx
  0000e	74 2f		 je	 SHORT $L154830

; 1511 : 			;
; 1512 : 		else if (_BUF_SIZE <= _Myres)

  00010	83 7b 18 10	 cmp	 DWORD PTR [ebx+24], 16	; 00000010H
  00014	72 29		 jb	 SHORT $L154830

; 1513 : 			{	// copy any leftovers to small buffer and deallocate
; 1514 : 			_Elem *_Ptr = _Bx._Ptr;
; 1515 : 			if (0 < _Newsize)

  00016	85 ed		 test	 ebp, ebp
  00018	8b 43 04	 mov	 eax, DWORD PTR [ebx+4]
  0001b	57		 push	 edi
  0001c	8d 7b 04	 lea	 edi, DWORD PTR [ebx+4]
  0001f	76 14		 jbe	 SHORT $L154827
  00021	56		 push	 esi

; 1516 : 				_Traits::copy(_Bx._Buf, _Ptr, _Newsize);

  00022	8b cd		 mov	 ecx, ebp
  00024	8b d1		 mov	 edx, ecx
  00026	c1 e9 02	 shr	 ecx, 2
  00029	8b f0		 mov	 esi, eax
  0002b	f3 a5		 rep movsd
  0002d	8b ca		 mov	 ecx, edx
  0002f	83 e1 03	 and	 ecx, 3
  00032	f3 a4		 rep movsb
  00034	5e		 pop	 esi
$L154827:

; 1517 : 			_Mybase::_Alval.deallocate(_Ptr, _Myres + 1);

  00035	50		 push	 eax
  00036	e8 00 00 00 00	 call	 ??3@YAXPAX@Z		; operator delete
  0003b	83 c4 04	 add	 esp, 4
  0003e	5f		 pop	 edi
$L154830:

; 1518 : 			}
; 1519 : 		_Myres = _BUF_SIZE - 1;
; 1520 : 		_Eos(_Newsize);

  0003f	89 6b 14	 mov	 DWORD PTR [ebx+20], ebp
  00042	c7 43 18 0f 00
	00 00		 mov	 DWORD PTR [ebx+24], 15	; 0000000fH
  00049	c6 44 2b 04 00	 mov	 BYTE PTR [ebx+ebp+4], 0
  0004e	5d		 pop	 ebp
  0004f	5b		 pop	 ebx

; 1521 : 		}

  00050	c2 08 00	 ret	 8
?_Tidy@?$basic_string@DU?$char_traits@D@std@@V?$allocator@D@2@@std@@IAEX_NI@Z ENDP ; std::basic_string<char,std::char_traits<char>,std::allocator<char> >::_Tidy
_TEXT	ENDS
PUBLIC	?erase@?$basic_string@DU?$char_traits@D@std@@V?$allocator@D@2@@std@@QAEAAV12@II@Z ; std::basic_string<char,std::char_traits<char>,std::allocator<char> >::erase
EXTRN	?_Xran@_String_base@std@@QBEXXZ:NEAR		; std::_String_base::_Xran
; Function compile flags: /Ogty
;	COMDAT ?erase@?$basic_string@DU?$char_traits@D@std@@V?$allocator@D@2@@std@@QAEAAV12@II@Z
_TEXT	SEGMENT
__Off$ = 8						; size = 4
__Count$ = 12						; size = 4
?erase@?$basic_string@DU?$char_traits@D@std@@V?$allocator@D@2@@std@@QAEAAV12@II@Z PROC NEAR ; std::basic_string<char,std::char_traits<char>,std::allocator<char> >::erase, COMDAT
; _this$ = ecx

; 792  : 		{	// erase elements [_Off, _Off + _Count)

  00000	55		 push	 ebp

; 793  : 		if (_Mysize < _Off)

  00001	8b 6c 24 08	 mov	 ebp, DWORD PTR __Off$[esp]
  00005	56		 push	 esi
  00006	8b f1		 mov	 esi, ecx
  00008	39 6e 14	 cmp	 DWORD PTR [esi+20], ebp
  0000b	57		 push	 edi
  0000c	73 05		 jae	 SHORT $L149765

; 794  : 			_String_base::_Xran();	// _Off off end

  0000e	e8 00 00 00 00	 call	 ?_Xran@_String_base@std@@QBEXXZ ; std::_String_base::_Xran
$L149765:

; 795  : 		if (_Mysize - _Off < _Count)

  00013	8b 46 14	 mov	 eax, DWORD PTR [esi+20]
  00016	8b 7c 24 14	 mov	 edi, DWORD PTR __Count$[esp+8]
  0001a	2b c5		 sub	 eax, ebp
  0001c	3b c7		 cmp	 eax, edi
  0001e	73 02		 jae	 SHORT $L149766

; 796  : 			_Count = _Mysize - _Off;	// trim _Count

  00020	8b f8		 mov	 edi, eax
$L149766:

; 797  : 		if (0 < _Count)

  00022	85 ff		 test	 edi, edi
  00024	76 47		 jbe	 SHORT $L154895

; 798  : 			{	// move elements down
; 799  : 			_Traits::move(_Myptr() + _Off, _Myptr() + _Off + _Count,
; 800  : 				_Mysize - _Off - _Count);

  00026	8b 4e 18	 mov	 ecx, DWORD PTR [esi+24]
  00029	83 f9 10	 cmp	 ecx, 16			; 00000010H
  0002c	53		 push	 ebx
  0002d	8d 5e 04	 lea	 ebx, DWORD PTR [esi+4]
  00030	72 04		 jb	 SHORT $L154860
  00032	8b 13		 mov	 edx, DWORD PTR [ebx]
  00034	eb 02		 jmp	 SHORT $L154861
$L154860:
  00036	8b d3		 mov	 edx, ebx
$L154861:
  00038	83 f9 10	 cmp	 ecx, 16			; 00000010H
  0003b	72 04		 jb	 SHORT $L154867
  0003d	8b 0b		 mov	 ecx, DWORD PTR [ebx]
  0003f	eb 02		 jmp	 SHORT $L154868
$L154867:
  00041	8b cb		 mov	 ecx, ebx
$L154868:
  00043	2b c7		 sub	 eax, edi

; 803  : 			}
; 804  : 		return (*this);

  00045	03 d5		 add	 edx, ebp
  00047	50		 push	 eax
  00048	03 d7		 add	 edx, edi
  0004a	52		 push	 edx
  0004b	03 cd		 add	 ecx, ebp
  0004d	51		 push	 ecx
  0004e	e8 00 00 00 00	 call	 _memmove
  00053	8b 46 14	 mov	 eax, DWORD PTR [esi+20]
  00056	8b 4e 18	 mov	 ecx, DWORD PTR [esi+24]
  00059	2b c7		 sub	 eax, edi
  0005b	83 c4 0c	 add	 esp, 12			; 0000000cH
  0005e	83 f9 10	 cmp	 ecx, 16			; 00000010H
  00061	89 46 14	 mov	 DWORD PTR [esi+20], eax
  00064	72 02		 jb	 SHORT $L154890

; 801  : 			size_type _Newsize = _Mysize - _Count;
; 802  : 			_Eos(_Newsize);

  00066	8b 1b		 mov	 ebx, DWORD PTR [ebx]
$L154890:
  00068	c6 04 03 00	 mov	 BYTE PTR [ebx+eax], 0
  0006c	5b		 pop	 ebx
$L154895:
  0006d	5f		 pop	 edi

; 803  : 			}
; 804  : 		return (*this);

  0006e	8b c6		 mov	 eax, esi
  00070	5e		 pop	 esi
  00071	5d		 pop	 ebp

; 805  : 		}

  00072	c2 08 00	 ret	 8
?erase@?$basic_string@DU?$char_traits@D@std@@V?$allocator@D@2@@std@@QAEAAV12@II@Z ENDP ; std::basic_string<char,std::char_traits<char>,std::allocator<char> >::erase
_TEXT	ENDS
PUBLIC	?_Copy@?$basic_string@DU?$char_traits@D@std@@V?$allocator@D@2@@std@@IAEXII@Z ; std::basic_string<char,std::char_traits<char>,std::allocator<char> >::_Copy
EXTRN	__CxxThrowException@8:NEAR
EXTRN	__except_list:DWORD
EXTRN	___CxxFrameHandler:NEAR
;	COMDAT xdata$x
; File c:\program files (x86)\microsoft visual studio .net 2003\vc7\include\iosfwd
xdata$x	SEGMENT
$T155103 DD	0ffffffffH
	DD	00H
	DD	0ffffffffH
	DD	00H
	DD	01H
	DD	00H
	DD	01H
	DD	00H
$T155105 DD	00H
	DD	00H
	DD	00H
	DD	FLAT:$L154903
$T155106 DD	00H
	DD	00H
	DD	00H
	DD	FLAT:$L154901
$T155104 DD	02H
	DD	02H
	DD	03H
	DD	01H
	DD	FLAT:$T155105
	DD	00H
	DD	00H
	DD	03H
	DD	01H
	DD	FLAT:$T155106
$T155097 DD	019930520H
	DD	04H
	DD	FLAT:$T155103
	DD	02H
	DD	FLAT:$T155104
	DD	2 DUP(00H)
; Function compile flags: /Ogty
; File c:\program files (x86)\microsoft visual studio .net 2003\vc7\include\xstring
xdata$x	ENDS
;	COMDAT ?_Copy@?$basic_string@DU?$char_traits@D@std@@V?$allocator@D@2@@std@@IAEXII@Z
_TEXT	SEGMENT
__Newres$ = -24						; size = 4
_this$ = -20						; size = 4
__$EHRec$ = -16						; size = 16
__Ptr$ = 8						; size = 4
__Newsize$ = 8						; size = 4
__Oldlen$ = 12						; size = 4
?_Copy@?$basic_string@DU?$char_traits@D@std@@V?$allocator@D@2@@std@@IAEXII@Z PROC NEAR ; std::basic_string<char,std::char_traits<char>,std::allocator<char> >::_Copy, COMDAT
; _this$ = ecx

; 1444 : 		{	// copy _Oldlen elements to newly allocated buffer

  00000	55		 push	 ebp
  00001	8b ec		 mov	 ebp, esp
  00003	6a ff		 push	 -1
  00005	68 00 00 00 00	 push	 __ehhandler$?_Copy@?$basic_string@DU?$char_traits@D@std@@V?$allocator@D@2@@std@@IAEXII@Z
  0000a	64 a1 00 00 00
	00		 mov	 eax, DWORD PTR fs:__except_list
  00010	50		 push	 eax
  00011	64 89 25 00 00
	00 00		 mov	 DWORD PTR fs:__except_list, esp
  00018	83 ec 0c	 sub	 esp, 12			; 0000000cH

; 1445 : 		size_type _Newres = _Newsize | _ALLOC_MASK;

  0001b	8b 45 08	 mov	 eax, DWORD PTR __Newsize$[ebp]
  0001e	53		 push	 ebx
  0001f	56		 push	 esi
  00020	8b d8		 mov	 ebx, eax
  00022	83 cb 0f	 or	 ebx, 15			; 0000000fH

; 1446 : 		if (max_size() < _Newres)

  00025	83 fb fe	 cmp	 ebx, -2			; fffffffeH
  00028	57		 push	 edi
  00029	8b f1		 mov	 esi, ecx
  0002b	89 65 f0	 mov	 DWORD PTR __$EHRec$[ebp], esp
  0002e	89 75 ec	 mov	 DWORD PTR _this$[ebp], esi
  00031	76 04		 jbe	 SHORT $L150507

; 1447 : 			_Newres = _Newsize;	// undo roundup if too big

  00033	8b d8		 mov	 ebx, eax

; 1448 : 		else if (_Newres / 3 < _Myres / 2

  00035	eb 22		 jmp	 SHORT $L150509
$L150507:

; 1449 : 			&& _Myres <= max_size() - _Myres / 2)

  00037	8b 7e 18	 mov	 edi, DWORD PTR [esi+24]
  0003a	b8 ab aa aa aa	 mov	 eax, -1431655765	; aaaaaaabH
  0003f	f7 e3		 mul	 ebx
  00041	8b cf		 mov	 ecx, edi
  00043	d1 e9		 shr	 ecx, 1
  00045	d1 ea		 shr	 edx, 1
  00047	3b d1		 cmp	 edx, ecx
  00049	73 0e		 jae	 SHORT $L150509
  0004b	b8 fe ff ff ff	 mov	 eax, -2			; fffffffeH
  00050	2b c1		 sub	 eax, ecx
  00052	3b f8		 cmp	 edi, eax
  00054	77 03		 ja	 SHORT $L150509

; 1450 : 			_Newres = _Myres + _Myres / 2;	// grow exponentially if possible

  00056	8d 1c 39	 lea	 ebx, DWORD PTR [ecx+edi]
$L150509:

; 1451 : 		_Elem *_Ptr;
; 1452 : 
; 1453 : 		_TRY_BEGIN
; 1454 : 			_Ptr = _Mybase::_Alval.allocate(_Newres + 1);

  00059	8d 4b 01	 lea	 ecx, DWORD PTR [ebx+1]
  0005c	51		 push	 ecx
  0005d	c7 45 fc 00 00
	00 00		 mov	 DWORD PTR __$EHRec$[ebp+12], 0
  00064	e8 00 00 00 00	 call	 ??2@YAPAXI@Z		; operator new
  00069	8b d0		 mov	 edx, eax
  0006b	83 c4 04	 add	 esp, 4
  0006e	89 55 08	 mov	 DWORD PTR __Ptr$[ebp], edx
  00071	eb 29		 jmp	 SHORT $L150511
$L154901:

; 1455 : 		_CATCH_ALL
; 1456 : 			_Newres = _Newsize;	// allocation failed, undo roundup and retry

  00073	8b 45 08	 mov	 eax, DWORD PTR __Newsize$[ebp]
  00076	89 45 e8	 mov	 DWORD PTR __Newres$[ebp], eax

; 1457 : 			_TRY_BEGIN
; 1458 : 				_Ptr = _Mybase::_Alval.allocate(_Newres + 1);

  00079	40		 inc	 eax
  0007a	89 65 f0	 mov	 DWORD PTR __$EHRec$[ebp], esp
  0007d	50		 push	 eax
  0007e	c6 45 fc 02	 mov	 BYTE PTR __$EHRec$[ebp+12], 2
  00082	e8 00 00 00 00	 call	 ??2@YAPAXI@Z		; operator new
  00087	89 45 08	 mov	 DWORD PTR __Ptr$[ebp], eax
  0008a	83 c4 04	 add	 esp, 4

; 1462 : 			_CATCH_END
; 1463 : 		_CATCH_END

  0008d	b8 00 00 00 00	 mov	 eax, $L155098
  00092	c3		 ret	 0
$L155098:
  00093	8b 5d e8	 mov	 ebx, DWORD PTR __Newres$[ebp]
  00096	8b 75 ec	 mov	 esi, DWORD PTR _this$[ebp]
  00099	8b 55 08	 mov	 edx, DWORD PTR __Ptr$[ebp]
$L150511:

; 1464 : 
; 1465 : 		if (0 < _Oldlen)

  0009c	8b 4d 0c	 mov	 ecx, DWORD PTR __Oldlen$[ebp]
  0009f	85 c9		 test	 ecx, ecx
  000a1	76 24		 jbe	 SHORT $L155021

; 1466 : 			_Traits::copy(_Ptr, _Myptr(), _Oldlen);	// copy existing elements

  000a3	83 7e 18 10	 cmp	 DWORD PTR [esi+24], 16	; 00000010H
  000a7	72 05		 jb	 SHORT $L155017
  000a9	8b 76 04	 mov	 esi, DWORD PTR [esi+4]
  000ac	eb 03		 jmp	 SHORT $L155018
$L155017:
  000ae	83 c6 04	 add	 esi, 4
$L155018:
  000b1	8b c1		 mov	 eax, ecx
  000b3	c1 e9 02	 shr	 ecx, 2
  000b6	8b fa		 mov	 edi, edx
  000b8	f3 a5		 rep movsd
  000ba	8b c8		 mov	 ecx, eax
  000bc	83 e1 03	 and	 ecx, 3
  000bf	f3 a4		 rep movsb
  000c1	8b 75 ec	 mov	 esi, DWORD PTR _this$[ebp]
  000c4	8b 4d 0c	 mov	 ecx, DWORD PTR __Oldlen$[ebp]
$L155021:

; 1467 : 		_Tidy(true);

  000c7	83 7e 18 10	 cmp	 DWORD PTR [esi+24], 16	; 00000010H
  000cb	72 12		 jb	 SHORT $L155056
  000cd	8b 4e 04	 mov	 ecx, DWORD PTR [esi+4]
  000d0	51		 push	 ecx
  000d1	e8 00 00 00 00	 call	 ??3@YAXPAX@Z		; operator delete
  000d6	8b 55 08	 mov	 edx, DWORD PTR __Ptr$[ebp]
  000d9	8b 4d 0c	 mov	 ecx, DWORD PTR __Oldlen$[ebp]
  000dc	83 c4 04	 add	 esp, 4
$L155056:

; 1468 : 		_Bx._Ptr = _Ptr;
; 1469 : 		_Myres = _Newres;
; 1470 : 		_Eos(_Oldlen);

  000df	83 fb 10	 cmp	 ebx, 16			; 00000010H
  000e2	8d 46 04	 lea	 eax, DWORD PTR [esi+4]
  000e5	c6 00 00	 mov	 BYTE PTR [eax], 0
  000e8	89 10		 mov	 DWORD PTR [eax], edx
  000ea	89 5e 18	 mov	 DWORD PTR [esi+24], ebx
  000ed	89 4e 14	 mov	 DWORD PTR [esi+20], ecx
  000f0	72 02		 jb	 SHORT $L155091
  000f2	8b c2		 mov	 eax, edx
$L155091:

; 1471 : 		}

  000f4	5f		 pop	 edi
  000f5	c6 04 08 00	 mov	 BYTE PTR [eax+ecx], 0
  000f9	8b 4d f4	 mov	 ecx, DWORD PTR __$EHRec$[ebp+4]
  000fc	5e		 pop	 esi
  000fd	64 89 0d 00 00
	00 00		 mov	 DWORD PTR fs:__except_list, ecx
  00104	5b		 pop	 ebx
  00105	8b e5		 mov	 esp, ebp
  00107	5d		 pop	 ebp
  00108	c2 08 00	 ret	 8
$L154903:

; 1459 : 			_CATCH_ALL
; 1460 : 			_Tidy(true);	// failed again, discard storage and reraise

  0010b	8b 75 ec	 mov	 esi, DWORD PTR _this$[ebp]
  0010e	83 7e 18 10	 cmp	 DWORD PTR [esi+24], 16	; 00000010H
  00112	72 0c		 jb	 SHORT $L154995
  00114	8b 56 04	 mov	 edx, DWORD PTR [esi+4]
  00117	52		 push	 edx
  00118	e8 00 00 00 00	 call	 ??3@YAXPAX@Z		; operator delete
  0011d	83 c4 04	 add	 esp, 4
$L154995:

; 1461 : 			_RERAISE;

  00120	6a 00		 push	 0
  00122	c7 46 18 0f 00
	00 00		 mov	 DWORD PTR [esi+24], 15	; 0000000fH
  00129	c7 46 14 00 00
	00 00		 mov	 DWORD PTR [esi+20], 0
  00130	6a 00		 push	 0
  00132	c6 46 04 00	 mov	 BYTE PTR [esi+4], 0
  00136	e8 00 00 00 00	 call	 __CxxThrowException@8
$L155108:
$L155102:
  0013b	cc		 int	 3
_TEXT	ENDS
;	COMDAT text$x
text$x	SEGMENT
__ehhandler$?_Copy@?$basic_string@DU?$char_traits@D@std@@V?$allocator@D@2@@std@@IAEXII@Z:
  00000	b8 00 00 00 00	 mov	 eax, OFFSET FLAT:$T155097
  00005	e9 00 00 00 00	 jmp	 ___CxxFrameHandler
text$x	ENDS
?_Copy@?$basic_string@DU?$char_traits@D@std@@V?$allocator@D@2@@std@@IAEXII@Z ENDP ; std::basic_string<char,std::char_traits<char>,std::allocator<char> >::_Copy
PUBLIC	??1?$vector@PAUtagTSKILLDATA@@V?$allocator@PAUtagTSKILLDATA@@@std@@@std@@QAE@XZ ; std::vector<tagTSKILLDATA *,std::allocator<tagTSKILLDATA *> >::~vector<tagTSKILLDATA *,std::allocator<tagTSKILLDATA *> >
; Function compile flags: /Ogty
; File c:\program files (x86)\microsoft visual studio .net 2003\vc7\include\vector
;	COMDAT ??1?$vector@PAUtagTSKILLDATA@@V?$allocator@PAUtagTSKILLDATA@@@std@@@std@@QAE@XZ
_TEXT	SEGMENT
??1?$vector@PAUtagTSKILLDATA@@V?$allocator@PAUtagTSKILLDATA@@@std@@@std@@QAE@XZ PROC NEAR ; std::vector<tagTSKILLDATA *,std::allocator<tagTSKILLDATA *> >::~vector<tagTSKILLDATA *,std::allocator<tagTSKILLDATA *> >, COMDAT
; _this$ = ecx

; 387  : 		{	// destroy the object

  00000	56		 push	 esi
  00001	8b f1		 mov	 esi, ecx

; 388  : 		_Tidy();

  00003	8b 46 04	 mov	 eax, DWORD PTR [esi+4]
  00006	85 c0		 test	 eax, eax
  00008	74 09		 je	 SHORT $L155122
  0000a	50		 push	 eax
  0000b	e8 00 00 00 00	 call	 ??3@YAXPAX@Z		; operator delete
  00010	83 c4 04	 add	 esp, 4
$L155122:
  00013	c7 46 04 00 00
	00 00		 mov	 DWORD PTR [esi+4], 0
  0001a	c7 46 08 00 00
	00 00		 mov	 DWORD PTR [esi+8], 0
  00021	c7 46 0c 00 00
	00 00		 mov	 DWORD PTR [esi+12], 0
  00028	5e		 pop	 esi

; 389  : 		}

  00029	c3		 ret	 0
??1?$vector@PAUtagTSKILLDATA@@V?$allocator@PAUtagTSKILLDATA@@@std@@@std@@QAE@XZ ENDP ; std::vector<tagTSKILLDATA *,std::allocator<tagTSKILLDATA *> >::~vector<tagTSKILLDATA *,std::allocator<tagTSKILLDATA *> >
_TEXT	ENDS
PUBLIC	??A?$vector@PAUtagTSKILLDATA@@V?$allocator@PAUtagTSKILLDATA@@@std@@@std@@QAEAAPAUtagTSKILLDATA@@I@Z ; std::vector<tagTSKILLDATA *,std::allocator<tagTSKILLDATA *> >::operator[]
; Function compile flags: /Ogty
;	COMDAT ??A?$vector@PAUtagTSKILLDATA@@V?$allocator@PAUtagTSKILLDATA@@@std@@@std@@QAEAAPAUtagTSKILLDATA@@I@Z
_TEXT	SEGMENT
__Pos$ = 8						; size = 4
??A?$vector@PAUtagTSKILLDATA@@V?$allocator@PAUtagTSKILLDATA@@@std@@@std@@QAEAAPAUtagTSKILLDATA@@I@Z PROC NEAR ; std::vector<tagTSKILLDATA *,std::allocator<tagTSKILLDATA *> >::operator[], COMDAT
; _this$ = ecx

; 555  : 		return (*(begin() + _Pos));

  00000	8b 41 04	 mov	 eax, DWORD PTR [ecx+4]
  00003	8b 4c 24 04	 mov	 ecx, DWORD PTR __Pos$[esp-4]
  00007	8d 04 88	 lea	 eax, DWORD PTR [eax+ecx*4]

; 556  : 		}

  0000a	c2 04 00	 ret	 4
??A?$vector@PAUtagTSKILLDATA@@V?$allocator@PAUtagTSKILLDATA@@@std@@@std@@QAEAAPAUtagTSKILLDATA@@I@Z ENDP ; std::vector<tagTSKILLDATA *,std::allocator<tagTSKILLDATA *> >::operator[]
_TEXT	ENDS
PUBLIC	?back@?$vector@PAUtagTSKILLDATA@@V?$allocator@PAUtagTSKILLDATA@@@std@@@std@@QAEAAPAUtagTSKILLDATA@@XZ ; std::vector<tagTSKILLDATA *,std::allocator<tagTSKILLDATA *> >::back
; Function compile flags: /Ogty
;	COMDAT ?back@?$vector@PAUtagTSKILLDATA@@V?$allocator@PAUtagTSKILLDATA@@@std@@@std@@QAEAAPAUtagTSKILLDATA@@XZ
_TEXT	SEGMENT
?back@?$vector@PAUtagTSKILLDATA@@V?$allocator@PAUtagTSKILLDATA@@@std@@@std@@QAEAAPAUtagTSKILLDATA@@XZ PROC NEAR ; std::vector<tagTSKILLDATA *,std::allocator<tagTSKILLDATA *> >::back, COMDAT
; _this$ = ecx

; 570  : 		return (*(end() - 1));

  00000	8b 41 08	 mov	 eax, DWORD PTR [ecx+8]
  00003	83 e8 04	 sub	 eax, 4

; 571  : 		}

  00006	c3		 ret	 0
?back@?$vector@PAUtagTSKILLDATA@@V?$allocator@PAUtagTSKILLDATA@@@std@@@std@@QAEAAPAUtagTSKILLDATA@@XZ ENDP ; std::vector<tagTSKILLDATA *,std::allocator<tagTSKILLDATA *> >::back
_TEXT	ENDS
PUBLIC	?pop_back@?$vector@PAUtagTSKILLDATA@@V?$allocator@PAUtagTSKILLDATA@@@std@@@std@@QAEXXZ ; std::vector<tagTSKILLDATA *,std::allocator<tagTSKILLDATA *> >::pop_back
; Function compile flags: /Ogty
;	COMDAT ?pop_back@?$vector@PAUtagTSKILLDATA@@V?$allocator@PAUtagTSKILLDATA@@@std@@@std@@QAEXXZ
_TEXT	SEGMENT
?pop_back@?$vector@PAUtagTSKILLDATA@@V?$allocator@PAUtagTSKILLDATA@@@std@@@std@@QAEXXZ PROC NEAR ; std::vector<tagTSKILLDATA *,std::allocator<tagTSKILLDATA *> >::pop_back, COMDAT
; _this$ = ecx

; 587  : 		{	// erase element at end

  00000	56		 push	 esi

; 588  : 		if (!empty())

  00001	8b 71 04	 mov	 esi, DWORD PTR [ecx+4]
  00004	85 f6		 test	 esi, esi
  00006	74 14		 je	 SHORT $L152868
  00008	8b 51 08	 mov	 edx, DWORD PTR [ecx+8]
  0000b	8b c2		 mov	 eax, edx
  0000d	2b c6		 sub	 eax, esi
  0000f	c1 f8 02	 sar	 eax, 2
  00012	85 c0		 test	 eax, eax
  00014	74 06		 je	 SHORT $L152868

; 589  : 			{	// erase last element
; 590  : 			_Destroy(_Mylast - 1, _Mylast);
; 591  : 			--_Mylast;

  00016	83 c2 fc	 add	 edx, -4			; fffffffcH
  00019	89 51 08	 mov	 DWORD PTR [ecx+8], edx
$L152868:
  0001c	5e		 pop	 esi

; 592  : 			}
; 593  : 		}

  0001d	c3		 ret	 0
?pop_back@?$vector@PAUtagTSKILLDATA@@V?$allocator@PAUtagTSKILLDATA@@@std@@@std@@QAEXXZ ENDP ; std::vector<tagTSKILLDATA *,std::allocator<tagTSKILLDATA *> >::pop_back
_TEXT	ENDS
PUBLIC	?clear@?$vector@PAUtagTSKILLDATA@@V?$allocator@PAUtagTSKILLDATA@@@std@@@std@@QAEXXZ ; std::vector<tagTSKILLDATA *,std::allocator<tagTSKILLDATA *> >::clear
; Function compile flags: /Ogty
;	COMDAT ?clear@?$vector@PAUtagTSKILLDATA@@V?$allocator@PAUtagTSKILLDATA@@@std@@@std@@QAEXXZ
_TEXT	SEGMENT
?clear@?$vector@PAUtagTSKILLDATA@@V?$allocator@PAUtagTSKILLDATA@@@std@@@std@@QAEXXZ PROC NEAR ; std::vector<tagTSKILLDATA *,std::allocator<tagTSKILLDATA *> >::clear, COMDAT
; _this$ = ecx

; 743  : 		{	// erase all

  00000	56		 push	 esi
  00001	8b f1		 mov	 esi, ecx

; 744  : 		_Tidy();

  00003	8b 46 04	 mov	 eax, DWORD PTR [esi+4]
  00006	85 c0		 test	 eax, eax
  00008	74 09		 je	 SHORT $L155236
  0000a	50		 push	 eax
  0000b	e8 00 00 00 00	 call	 ??3@YAXPAX@Z		; operator delete
  00010	83 c4 04	 add	 esp, 4
$L155236:
  00013	c7 46 04 00 00
	00 00		 mov	 DWORD PTR [esi+4], 0
  0001a	c7 46 08 00 00
	00 00		 mov	 DWORD PTR [esi+8], 0
  00021	c7 46 0c 00 00
	00 00		 mov	 DWORD PTR [esi+12], 0
  00028	5e		 pop	 esi

; 745  : 		}

  00029	c3		 ret	 0
?clear@?$vector@PAUtagTSKILLDATA@@V?$allocator@PAUtagTSKILLDATA@@@std@@@std@@QAEXXZ ENDP ; std::vector<tagTSKILLDATA *,std::allocator<tagTSKILLDATA *> >::clear
_TEXT	ENDS
PUBLIC	?clear@?$_Tree@V?$_Tmap_traits@EPAUtagSKILLPOINT@@U?$less@E@std@@V?$allocator@U?$pair@$$CBEPAUtagSKILLPOINT@@@std@@@3@$0A@@std@@@std@@QAEXXZ ; std::_Tree<std::_Tmap_traits<unsigned char,tagSKILLPOINT *,std::less<unsigned char>,std::allocator<std::pair<unsigned char const ,tagSKILLPOINT *> >,0> >::clear
; Function compile flags: /Ogty
; File c:\program files (x86)\microsoft visual studio .net 2003\vc7\include\xtree
;	COMDAT ?clear@?$_Tree@V?$_Tmap_traits@EPAUtagSKILLPOINT@@U?$less@E@std@@V?$allocator@U?$pair@$$CBEPAUtagSKILLPOINT@@@std@@@3@$0A@@std@@@std@@QAEXXZ
_TEXT	SEGMENT
?clear@?$_Tree@V?$_Tmap_traits@EPAUtagSKILLPOINT@@U?$less@E@std@@V?$allocator@U?$pair@$$CBEPAUtagSKILLPOINT@@@std@@@3@$0A@@std@@@std@@QAEXXZ PROC NEAR ; std::_Tree<std::_Tmap_traits<unsigned char,tagSKILLPOINT *,std::less<unsigned char>,std::allocator<std::pair<unsigned char const ,tagSKILLPOINT *> >,0> >::clear, COMDAT
; _this$ = ecx

; 780  : 		{	// erase all

  00000	56		 push	 esi
  00001	8b f1		 mov	 esi, ecx

; 781  : 		_Erase(_Root());

  00003	8b 46 04	 mov	 eax, DWORD PTR [esi+4]
  00006	8b 48 04	 mov	 ecx, DWORD PTR [eax+4]
  00009	51		 push	 ecx
  0000a	8b ce		 mov	 ecx, esi
  0000c	e8 00 00 00 00	 call	 ?_Erase@?$_Tree@V?$_Tmap_traits@EPAUtagSKILLPOINT@@U?$less@E@std@@V?$allocator@U?$pair@$$CBEPAUtagSKILLPOINT@@@std@@@3@$0A@@std@@@std@@IAEXPAU_Node@?$_Tree_nod@V?$_Tmap_traits@EPAUtagSKILLPOINT@@U?$less@E@std@@V?$allocator@U?$pair@$$CBEPAUtagSKILLPOINT@@@std@@@3@$0A@@std@@@2@@Z ; std::_Tree<std::_Tmap_traits<unsigned char,tagSKILLPOINT *,std::less<unsigned char>,std::allocator<std::pair<unsigned char const ,tagSKILLPOINT *> >,0> >::_Erase

; 782  : 		_Root() = _Myhead, _Mysize = 0;

  00011	8b 46 04	 mov	 eax, DWORD PTR [esi+4]
  00014	89 40 04	 mov	 DWORD PTR [eax+4], eax

; 783  : 		_Lmost() = _Myhead, _Rmost() = _Myhead;

  00017	8b 46 04	 mov	 eax, DWORD PTR [esi+4]
  0001a	c7 46 08 00 00
	00 00		 mov	 DWORD PTR [esi+8], 0
  00021	89 00		 mov	 DWORD PTR [eax], eax
  00023	8b 76 04	 mov	 esi, DWORD PTR [esi+4]
  00026	89 76 08	 mov	 DWORD PTR [esi+8], esi
  00029	5e		 pop	 esi

; 784  : 		}

  0002a	c3		 ret	 0
?clear@?$_Tree@V?$_Tmap_traits@EPAUtagSKILLPOINT@@U?$less@E@std@@V?$allocator@U?$pair@$$CBEPAUtagSKILLPOINT@@@std@@@3@$0A@@std@@@std@@QAEXXZ ENDP ; std::_Tree<std::_Tmap_traits<unsigned char,tagSKILLPOINT *,std::less<unsigned char>,std::allocator<std::pair<unsigned char const ,tagSKILLPOINT *> >,0> >::clear
_TEXT	ENDS
PUBLIC	?find@?$_Tree@V?$_Tmap_traits@EPAUtagSKILLPOINT@@U?$less@E@std@@V?$allocator@U?$pair@$$CBEPAUtagSKILLPOINT@@@std@@@3@$0A@@std@@@std@@QAE?AViterator@12@ABE@Z ; std::_Tree<std::_Tmap_traits<unsigned char,tagSKILLPOINT *,std::less<unsigned char>,std::allocator<std::pair<unsigned char const ,tagSKILLPOINT *> >,0> >::find
; Function compile flags: /Ogty
;	COMDAT ?find@?$_Tree@V?$_Tmap_traits@EPAUtagSKILLPOINT@@U?$less@E@std@@V?$allocator@U?$pair@$$CBEPAUtagSKILLPOINT@@@std@@@3@$0A@@std@@@std@@QAE?AViterator@12@ABE@Z
_TEXT	SEGMENT
$T155280 = -4						; size = 4
___$ReturnUdt$ = 8					; size = 4
__Where$ = 12						; size = 4
__Keyval$ = 12						; size = 4
?find@?$_Tree@V?$_Tmap_traits@EPAUtagSKILLPOINT@@U?$less@E@std@@V?$allocator@U?$pair@$$CBEPAUtagSKILLPOINT@@@std@@@3@$0A@@std@@@std@@QAE?AViterator@12@ABE@Z PROC NEAR ; std::_Tree<std::_Tmap_traits<unsigned char,tagSKILLPOINT *,std::less<unsigned char>,std::allocator<std::pair<unsigned char const ,tagSKILLPOINT *> >,0> >::find, COMDAT
; _this$ = ecx

; 787  : 		{	// find an element in mutable sequence that matches _Keyval

  00000	51		 push	 ecx
  00001	53		 push	 ebx
  00002	56		 push	 esi
  00003	8b f1		 mov	 esi, ecx

; 788  : 		iterator _Where = lower_bound(_Keyval);

  00005	8b 56 04	 mov	 edx, DWORD PTR [esi+4]
  00008	8b 42 04	 mov	 eax, DWORD PTR [edx+4]
  0000b	8a 48 15	 mov	 cl, BYTE PTR [eax+21]
  0000e	84 c9		 test	 cl, cl
  00010	57		 push	 edi
  00011	8b 7c 24 18	 mov	 edi, DWORD PTR __Keyval$[esp+12]
  00015	75 1e		 jne	 SHORT $L155357
  00017	8a 0f		 mov	 cl, BYTE PTR [edi]
  00019	8d a4 24 00 00
	00 00		 npad	 7
$L155356:
  00020	38 48 0c	 cmp	 BYTE PTR [eax+12], cl
  00023	73 05		 jae	 SHORT $L155358
  00025	8b 40 08	 mov	 eax, DWORD PTR [eax+8]
  00028	eb 04		 jmp	 SHORT $L155359
$L155358:
  0002a	8b d0		 mov	 edx, eax
  0002c	8b 00		 mov	 eax, DWORD PTR [eax]
$L155359:
  0002e	8a 58 15	 mov	 bl, BYTE PTR [eax+21]
  00031	84 db		 test	 bl, bl
  00033	74 eb		 je	 SHORT $L155356
$L155357:

; 789  : 		return (_Where == end() || this->comp(_Keyval, _Key(_Where._Mynode()))
; 790  : 			? end() : _Where);

  00035	8b 46 04	 mov	 eax, DWORD PTR [esi+4]
  00038	3b d0		 cmp	 edx, eax
  0003a	89 54 24 18	 mov	 DWORD PTR __Where$[esp+12], edx
  0003e	74 1a		 je	 SHORT $L155279
  00040	8a 0f		 mov	 cl, BYTE PTR [edi]
  00042	3a 4a 0c	 cmp	 cl, BYTE PTR [edx+12]
  00045	72 13		 jb	 SHORT $L155279
  00047	8d 44 24 18	 lea	 eax, DWORD PTR __Where$[esp+12]
  0004b	8b 10		 mov	 edx, DWORD PTR [eax]
  0004d	8b 44 24 14	 mov	 eax, DWORD PTR ___$ReturnUdt$[esp+12]
  00051	5f		 pop	 edi
  00052	5e		 pop	 esi
  00053	89 10		 mov	 DWORD PTR [eax], edx
  00055	5b		 pop	 ebx

; 791  : 		}

  00056	59		 pop	 ecx
  00057	c2 08 00	 ret	 8
$L155279:

; 789  : 		return (_Where == end() || this->comp(_Keyval, _Key(_Where._Mynode()))
; 790  : 			? end() : _Where);

  0005a	89 44 24 0c	 mov	 DWORD PTR $T155280[esp+16], eax
  0005e	8d 44 24 0c	 lea	 eax, DWORD PTR $T155280[esp+16]
  00062	8b 10		 mov	 edx, DWORD PTR [eax]
  00064	8b 44 24 14	 mov	 eax, DWORD PTR ___$ReturnUdt$[esp+12]
  00068	5f		 pop	 edi
  00069	5e		 pop	 esi
  0006a	89 10		 mov	 DWORD PTR [eax], edx
  0006c	5b		 pop	 ebx

; 791  : 		}

  0006d	59		 pop	 ecx
  0006e	c2 08 00	 ret	 8
?find@?$_Tree@V?$_Tmap_traits@EPAUtagSKILLPOINT@@U?$less@E@std@@V?$allocator@U?$pair@$$CBEPAUtagSKILLPOINT@@@std@@@3@$0A@@std@@@std@@QAE?AViterator@12@ABE@Z ENDP ; std::_Tree<std::_Tmap_traits<unsigned char,tagSKILLPOINT *,std::less<unsigned char>,std::allocator<std::pair<unsigned char const ,tagSKILLPOINT *> >,0> >::find
_TEXT	ENDS
PUBLIC	??Eiterator@?$_Tree@V?$_Tmap_traits@EPAUtagSKILLPOINT@@U?$less@E@std@@V?$allocator@U?$pair@$$CBEPAUtagSKILLPOINT@@@std@@@3@$0A@@std@@@std@@QAEAAV012@XZ ; std::_Tree<std::_Tmap_traits<unsigned char,tagSKILLPOINT *,std::less<unsigned char>,std::allocator<std::pair<unsigned char const ,tagSKILLPOINT *> >,0> >::iterator::operator++
; Function compile flags: /Ogty
;	COMDAT ??Eiterator@?$_Tree@V?$_Tmap_traits@EPAUtagSKILLPOINT@@U?$less@E@std@@V?$allocator@U?$pair@$$CBEPAUtagSKILLPOINT@@@std@@@3@$0A@@std@@@std@@QAEAAV012@XZ
_TEXT	SEGMENT
??Eiterator@?$_Tree@V?$_Tmap_traits@EPAUtagSKILLPOINT@@U?$less@E@std@@V?$allocator@U?$pair@$$CBEPAUtagSKILLPOINT@@@std@@@3@$0A@@std@@@std@@QAEAAV012@XZ PROC NEAR ; std::_Tree<std::_Tmap_traits<unsigned char,tagSKILLPOINT *,std::less<unsigned char>,std::allocator<std::pair<unsigned char const ,tagSKILLPOINT *> >,0> >::iterator::operator++, COMDAT
; _this$ = ecx

; 326  : 			{	// preincrement

  00000	56		 push	 esi
  00001	8b f1		 mov	 esi, ecx

; 327  : 			++(*(const_iterator *)this);

  00003	e8 00 00 00 00	 call	 ?_Inc@const_iterator@?$_Tree@V?$_Tmap_traits@EPAUtagSKILLPOINT@@U?$less@E@std@@V?$allocator@U?$pair@$$CBEPAUtagSKILLPOINT@@@std@@@3@$0A@@std@@@std@@QAEXXZ ; std::_Tree<std::_Tmap_traits<unsigned char,tagSKILLPOINT *,std::less<unsigned char>,std::allocator<std::pair<unsigned char const ,tagSKILLPOINT *> >,0> >::const_iterator::_Inc

; 328  : 			return (*this);

  00008	8b c6		 mov	 eax, esi
  0000a	5e		 pop	 esi

; 329  : 			}

  0000b	c3		 ret	 0
??Eiterator@?$_Tree@V?$_Tmap_traits@EPAUtagSKILLPOINT@@U?$less@E@std@@V?$allocator@U?$pair@$$CBEPAUtagSKILLPOINT@@@std@@@3@$0A@@std@@@std@@QAEAAV012@XZ ENDP ; std::_Tree<std::_Tmap_traits<unsigned char,tagSKILLPOINT *,std::less<unsigned char>,std::allocator<std::pair<unsigned char const ,tagSKILLPOINT *> >,0> >::iterator::operator++
_TEXT	ENDS
PUBLIC	??0?$_Tree_val@V?$_Tmap_traits@EPAUtagSKILLPOINT@@U?$less@E@std@@V?$allocator@U?$pair@$$CBEPAUtagSKILLPOINT@@@std@@@3@$0A@@std@@@std@@IAE@ABU?$less@E@1@V?$allocator@U?$pair@$$CBEPAUtagSKILLPOINT@@@std@@@1@@Z ; std::_Tree_val<std::_Tmap_traits<unsigned char,tagSKILLPOINT *,std::less<unsigned char>,std::allocator<std::pair<unsigned char const ,tagSKILLPOINT *> >,0> >::_Tree_val<std::_Tmap_traits<unsigned char,tagSKILLPOINT *,std::less<unsigned char>,std::allocator<std::pair<unsigned char const ,tagSKILLPOINT *> >,0> >
; Function compile flags: /Ogty
;	COMDAT ??0?$_Tree_val@V?$_Tmap_traits@EPAUtagSKILLPOINT@@U?$less@E@std@@V?$allocator@U?$pair@$$CBEPAUtagSKILLPOINT@@@std@@@3@$0A@@std@@@std@@IAE@ABU?$less@E@1@V?$allocator@U?$pair@$$CBEPAUtagSKILLPOINT@@@std@@@1@@Z
_TEXT	SEGMENT
__Parg$ = 8						; size = 4
__Al$ = 12						; size = 1
??0?$_Tree_val@V?$_Tmap_traits@EPAUtagSKILLPOINT@@U?$less@E@std@@V?$allocator@U?$pair@$$CBEPAUtagSKILLPOINT@@@std@@@3@$0A@@std@@@std@@IAE@ABU?$less@E@1@V?$allocator@U?$pair@$$CBEPAUtagSKILLPOINT@@@std@@@1@@Z PROC NEAR ; std::_Tree_val<std::_Tmap_traits<unsigned char,tagSKILLPOINT *,std::less<unsigned char>,std::allocator<std::pair<unsigned char const ,tagSKILLPOINT *> >,0> >::_Tree_val<std::_Tmap_traits<unsigned char,tagSKILLPOINT *,std::less<unsigned char>,std::allocator<std::pair<unsigned char const ,tagSKILLPOINT *> >,0> >, COMDAT
; _this$ = ecx

; 95   : 		{	// construct base, and allocator from _Al

  00000	8b c1		 mov	 eax, ecx

; 96   : 		}

  00002	c2 08 00	 ret	 8
??0?$_Tree_val@V?$_Tmap_traits@EPAUtagSKILLPOINT@@U?$less@E@std@@V?$allocator@U?$pair@$$CBEPAUtagSKILLPOINT@@@std@@@3@$0A@@std@@@std@@IAE@ABU?$less@E@1@V?$allocator@U?$pair@$$CBEPAUtagSKILLPOINT@@@std@@@1@@Z ENDP ; std::_Tree_val<std::_Tmap_traits<unsigned char,tagSKILLPOINT *,std::less<unsigned char>,std::allocator<std::pair<unsigned char const ,tagSKILLPOINT *> >,0> >::_Tree_val<std::_Tmap_traits<unsigned char,tagSKILLPOINT *,std::less<unsigned char>,std::allocator<std::pair<unsigned char const ,tagSKILLPOINT *> >,0> >
_TEXT	ENDS
PUBLIC	?_Buynode@?$_Tree@V?$_Tmap_traits@EPAUtagSKILLPOINT@@U?$less@E@std@@V?$allocator@U?$pair@$$CBEPAUtagSKILLPOINT@@@std@@@3@$0A@@std@@@std@@IAEPAU_Node@?$_Tree_nod@V?$_Tmap_traits@EPAUtagSKILLPOINT@@U?$less@E@std@@V?$allocator@U?$pair@$$CBEPAUtagSKILLPOINT@@@std@@@3@$0A@@std@@@2@XZ ; std::_Tree<std::_Tmap_traits<unsigned char,tagSKILLPOINT *,std::less<unsigned char>,std::allocator<std::pair<unsigned char const ,tagSKILLPOINT *> >,0> >::_Buynode
; Function compile flags: /Ogty
;	COMDAT ?_Buynode@?$_Tree@V?$_Tmap_traits@EPAUtagSKILLPOINT@@U?$less@E@std@@V?$allocator@U?$pair@$$CBEPAUtagSKILLPOINT@@@std@@@3@$0A@@std@@@std@@IAEPAU_Node@?$_Tree_nod@V?$_Tmap_traits@EPAUtagSKILLPOINT@@U?$less@E@std@@V?$allocator@U?$pair@$$CBEPAUtagSKILLPOINT@@@std@@@3@$0A@@std@@@2@XZ
_TEXT	SEGMENT
?_Buynode@?$_Tree@V?$_Tmap_traits@EPAUtagSKILLPOINT@@U?$less@E@std@@V?$allocator@U?$pair@$$CBEPAUtagSKILLPOINT@@@std@@@3@$0A@@std@@@std@@IAEPAU_Node@?$_Tree_nod@V?$_Tmap_traits@EPAUtagSKILLPOINT@@U?$less@E@std@@V?$allocator@U?$pair@$$CBEPAUtagSKILLPOINT@@@std@@@3@$0A@@std@@@2@XZ PROC NEAR ; std::_Tree<std::_Tmap_traits<unsigned char,tagSKILLPOINT *,std::less<unsigned char>,std::allocator<std::pair<unsigned char const ,tagSKILLPOINT *> >,0> >::_Buynode, COMDAT
; _this$ = ecx

; 1106 : 		_Nodeptr _Wherenode = this->_Alnod.allocate(1);

  00000	6a 18		 push	 24			; 00000018H
  00002	e8 00 00 00 00	 call	 ??2@YAPAXI@Z		; operator new
  00007	83 c4 04	 add	 esp, 4

; 1107 : 		int _Linkcnt = 0;
; 1108 : 
; 1109 : 		_TRY_BEGIN
; 1110 : 		this->_Alptr.construct(&_Left(_Wherenode), 0);

  0000a	85 c0		 test	 eax, eax
  0000c	74 06		 je	 SHORT $L155528
  0000e	c7 00 00 00 00
	00		 mov	 DWORD PTR [eax], 0
$L155528:

; 1111 : 		++_Linkcnt;
; 1112 : 		this->_Alptr.construct(&_Parent(_Wherenode), 0);

  00014	8d 48 04	 lea	 ecx, DWORD PTR [eax+4]
  00017	85 c9		 test	 ecx, ecx
  00019	74 06		 je	 SHORT $L155555
  0001b	c7 01 00 00 00
	00		 mov	 DWORD PTR [ecx], 0
$L155555:

; 1113 : 		++_Linkcnt;
; 1114 : 		this->_Alptr.construct(&_Right(_Wherenode), 0);

  00021	8d 48 08	 lea	 ecx, DWORD PTR [eax+8]
  00024	85 c9		 test	 ecx, ecx
  00026	74 06		 je	 SHORT $L155582
  00028	c7 01 00 00 00
	00		 mov	 DWORD PTR [ecx], 0
$L155582:

; 1115 : 		_CATCH_ALL
; 1116 : 		if (1 < _Linkcnt)
; 1117 : 			this->_Alptr.destroy(&_Parent(_Wherenode));
; 1118 : 		if (0 < _Linkcnt)
; 1119 : 			this->_Alptr.destroy(&_Left(_Wherenode));
; 1120 : 		this->_Alnod.deallocate(_Wherenode, 1);
; 1121 : 		_RERAISE;
; 1122 : 		_CATCH_END
; 1123 : 		_Color(_Wherenode) = _Black;

  0002e	c6 40 14 01	 mov	 BYTE PTR [eax+20], 1

; 1124 : 		_Isnil(_Wherenode) = false;

  00032	c6 40 15 00	 mov	 BYTE PTR [eax+21], 0

; 1125 : 		return (_Wherenode);
; 1126 : 		}

  00036	c3		 ret	 0
?_Buynode@?$_Tree@V?$_Tmap_traits@EPAUtagSKILLPOINT@@U?$less@E@std@@V?$allocator@U?$pair@$$CBEPAUtagSKILLPOINT@@@std@@@3@$0A@@std@@@std@@IAEPAU_Node@?$_Tree_nod@V?$_Tmap_traits@EPAUtagSKILLPOINT@@U?$less@E@std@@V?$allocator@U?$pair@$$CBEPAUtagSKILLPOINT@@@std@@@3@$0A@@std@@@2@XZ ENDP ; std::_Tree<std::_Tmap_traits<unsigned char,tagSKILLPOINT *,std::less<unsigned char>,std::allocator<std::pair<unsigned char const ,tagSKILLPOINT *> >,0> >::_Buynode
_TEXT	ENDS
PUBLIC	??1?$basic_string@DU?$char_traits@D@std@@V?$allocator@D@2@@std@@QAE@XZ ; std::basic_string<char,std::char_traits<char>,std::allocator<char> >::~basic_string<char,std::char_traits<char>,std::allocator<char> >
; Function compile flags: /Ogty
; File c:\program files (x86)\microsoft visual studio .net 2003\vc7\include\xstring
;	COMDAT ??1?$basic_string@DU?$char_traits@D@std@@V?$allocator@D@2@@std@@QAE@XZ
_TEXT	SEGMENT
??1?$basic_string@DU?$char_traits@D@std@@V?$allocator@D@2@@std@@QAE@XZ PROC NEAR ; std::basic_string<char,std::char_traits<char>,std::allocator<char> >::~basic_string<char,std::char_traits<char>,std::allocator<char> >, COMDAT
; _this$ = ecx

; 456  : 		{	// destroy the string

  00000	56		 push	 esi
  00001	8b f1		 mov	 esi, ecx

; 457  : 		_Tidy(true);

  00003	83 7e 18 10	 cmp	 DWORD PTR [esi+24], 16	; 00000010H
  00007	72 0c		 jb	 SHORT $L155646
  00009	8b 46 04	 mov	 eax, DWORD PTR [esi+4]
  0000c	50		 push	 eax
  0000d	e8 00 00 00 00	 call	 ??3@YAXPAX@Z		; operator delete
  00012	83 c4 04	 add	 esp, 4
$L155646:
  00015	33 c0		 xor	 eax, eax
  00017	c7 46 18 0f 00
	00 00		 mov	 DWORD PTR [esi+24], 15	; 0000000fH
  0001e	89 46 14	 mov	 DWORD PTR [esi+20], eax
  00021	88 46 04	 mov	 BYTE PTR [esi+4], al
  00024	5e		 pop	 esi

; 458  : 		}

  00025	c3		 ret	 0
??1?$basic_string@DU?$char_traits@D@std@@V?$allocator@D@2@@std@@QAE@XZ ENDP ; std::basic_string<char,std::char_traits<char>,std::allocator<char> >::~basic_string<char,std::char_traits<char>,std::allocator<char> >
_TEXT	ENDS
PUBLIC	?_Grow@?$basic_string@DU?$char_traits@D@std@@V?$allocator@D@2@@std@@IAE_NI_N@Z ; std::basic_string<char,std::char_traits<char>,std::allocator<char> >::_Grow
EXTRN	?_Xlen@_String_base@std@@QBEXXZ:NEAR		; std::_String_base::_Xlen
; Function compile flags: /Ogty
;	COMDAT ?_Grow@?$basic_string@DU?$char_traits@D@std@@V?$allocator@D@2@@std@@IAE_NI_N@Z
_TEXT	SEGMENT
__Newsize$ = 8						; size = 4
__Trim$ = 12						; size = 1
?_Grow@?$basic_string@DU?$char_traits@D@std@@V?$allocator@D@2@@std@@IAE_NI_N@Z PROC NEAR ; std::basic_string<char,std::char_traits<char>,std::allocator<char> >::_Grow, COMDAT
; _this$ = ecx

; 1480 : 		{	// ensure buffer is big enough, trim to size if _Trim is true

  00000	55		 push	 ebp
  00001	56		 push	 esi

; 1481 : 		if (max_size() < _Newsize)

  00002	8b 74 24 0c	 mov	 esi, DWORD PTR __Newsize$[esp+4]
  00006	83 fe fe	 cmp	 esi, -2			; fffffffeH
  00009	8b e9		 mov	 ebp, ecx
  0000b	76 05		 jbe	 SHORT $L149774

; 1482 : 			_String_base::_Xlen();	// result too long

  0000d	e8 00 00 00 00	 call	 ?_Xlen@_String_base@std@@QBEXXZ ; std::_String_base::_Xlen
$L149774:

; 1483 : 		if (_Myres < _Newsize)

  00012	8b 45 18	 mov	 eax, DWORD PTR [ebp+24]
  00015	3b c6		 cmp	 eax, esi
  00017	73 19		 jae	 SHORT $L149775

; 1484 : 			_Copy(_Newsize, _Mysize);	// reallocate to grow

  00019	8b 45 14	 mov	 eax, DWORD PTR [ebp+20]
  0001c	50		 push	 eax
  0001d	56		 push	 esi
  0001e	8b cd		 mov	 ecx, ebp
  00020	e8 00 00 00 00	 call	 ?_Copy@?$basic_string@DU?$char_traits@D@std@@V?$allocator@D@2@@std@@IAEXII@Z ; std::basic_string<char,std::char_traits<char>,std::allocator<char> >::_Copy

; 1490 : 		return (0 < _Newsize);	// return true only if more work to do

  00025	33 c0		 xor	 eax, eax
  00027	3b c6		 cmp	 eax, esi
  00029	1b c0		 sbb	 eax, eax
  0002b	5e		 pop	 esi
  0002c	f7 d8		 neg	 eax
  0002e	5d		 pop	 ebp

; 1491 : 		}

  0002f	c2 08 00	 ret	 8
$L149775:

; 1485 : 		else if (_Trim && _Newsize < _BUF_SIZE)

  00032	8a 4c 24 10	 mov	 cl, BYTE PTR __Trim$[esp+4]
  00036	84 c9		 test	 cl, cl
  00038	74 5c		 je	 SHORT $L149777
  0003a	83 fe 10	 cmp	 esi, 16			; 00000010H
  0003d	73 57		 jae	 SHORT $L149777
  0003f	53		 push	 ebx

; 1486 : 			_Tidy(true,	// copy and deallocate if trimming to small string
; 1487 : 				_Newsize < _Mysize ? _Newsize : _Mysize);

  00040	8b 5d 14	 mov	 ebx, DWORD PTR [ebp+20]
  00043	3b f3		 cmp	 esi, ebx
  00045	73 02		 jae	 SHORT $L155661
  00047	8b de		 mov	 ebx, esi
$L155661:
  00049	83 f8 10	 cmp	 eax, 16			; 00000010H
  0004c	72 2b		 jb	 SHORT $L155716
  0004e	85 db		 test	 ebx, ebx
  00050	8b 45 04	 mov	 eax, DWORD PTR [ebp+4]
  00053	57		 push	 edi
  00054	8d 7d 04	 lea	 edi, DWORD PTR [ebp+4]
  00057	76 16		 jbe	 SHORT $L155714
  00059	8b cb		 mov	 ecx, ebx
  0005b	8b d1		 mov	 edx, ecx
  0005d	c1 e9 02	 shr	 ecx, 2
  00060	8b f0		 mov	 esi, eax
  00062	f3 a5		 rep movsd
  00064	8b ca		 mov	 ecx, edx
  00066	83 e1 03	 and	 ecx, 3
  00069	f3 a4		 rep movsb
  0006b	8b 74 24 14	 mov	 esi, DWORD PTR __Newsize$[esp+12]
$L155714:
  0006f	50		 push	 eax
  00070	e8 00 00 00 00	 call	 ??3@YAXPAX@Z		; operator delete
  00075	83 c4 04	 add	 esp, 4
  00078	5f		 pop	 edi
$L155716:
  00079	89 5d 14	 mov	 DWORD PTR [ebp+20], ebx

; 1490 : 		return (0 < _Newsize);	// return true only if more work to do

  0007c	33 c0		 xor	 eax, eax
  0007e	c7 45 18 0f 00
	00 00		 mov	 DWORD PTR [ebp+24], 15	; 0000000fH
  00085	c6 44 2b 04 00	 mov	 BYTE PTR [ebx+ebp+4], 0
  0008a	3b c6		 cmp	 eax, esi
  0008c	5b		 pop	 ebx
  0008d	1b c0		 sbb	 eax, eax
  0008f	5e		 pop	 esi
  00090	f7 d8		 neg	 eax
  00092	5d		 pop	 ebp

; 1491 : 		}

  00093	c2 08 00	 ret	 8
$L149777:

; 1488 : 		else if (_Newsize == 0)

  00096	85 f6		 test	 esi, esi
  00098	75 23		 jne	 SHORT $L155752

; 1489 : 			_Eos(0);	// new size is zero, just null terminate

  0009a	83 f8 10	 cmp	 eax, 16			; 00000010H
  0009d	89 75 14	 mov	 DWORD PTR [ebp+20], esi
  000a0	72 14		 jb	 SHORT $L155748
  000a2	8b 6d 04	 mov	 ebp, DWORD PTR [ebp+4]

; 1490 : 		return (0 < _Newsize);	// return true only if more work to do

  000a5	33 c0		 xor	 eax, eax
  000a7	3b c6		 cmp	 eax, esi
  000a9	1b c0		 sbb	 eax, eax
  000ab	5e		 pop	 esi
  000ac	c6 45 00 00	 mov	 BYTE PTR [ebp], 0
  000b0	f7 d8		 neg	 eax
  000b2	5d		 pop	 ebp

; 1491 : 		}

  000b3	c2 08 00	 ret	 8

; 1489 : 			_Eos(0);	// new size is zero, just null terminate

$L155748:
  000b6	83 c5 04	 add	 ebp, 4
  000b9	c6 45 00 00	 mov	 BYTE PTR [ebp], 0
$L155752:

; 1490 : 		return (0 < _Newsize);	// return true only if more work to do

  000bd	33 c0		 xor	 eax, eax
  000bf	3b c6		 cmp	 eax, esi
  000c1	1b c0		 sbb	 eax, eax
  000c3	5e		 pop	 esi
  000c4	f7 d8		 neg	 eax
  000c6	5d		 pop	 ebp

; 1491 : 		}

  000c7	c2 08 00	 ret	 8
?_Grow@?$basic_string@DU?$char_traits@D@std@@V?$allocator@D@2@@std@@IAE_NI_N@Z ENDP ; std::basic_string<char,std::char_traits<char>,std::allocator<char> >::_Grow
_TEXT	ENDS
PUBLIC	?HaveSkillData@CTSkillTemp@@QAEEPAUtagTSKILLDATA@@@Z ; CTSkillTemp::HaveSkillData
; Function compile flags: /Ogty
; File c:\users\pierr\desktop\4story - oldschool\sources\tserver\tmapsvr\tskilltemp.cpp
;	COMDAT ?HaveSkillData@CTSkillTemp@@QAEEPAUtagTSKILLDATA@@@Z
_TEXT	SEGMENT
_pData$ = 8						; size = 4
?HaveSkillData@CTSkillTemp@@QAEEPAUtagTSKILLDATA@@@Z PROC NEAR ; CTSkillTemp::HaveSkillData, COMDAT
; _this$ = ecx

; 37   : {

  00000	53		 push	 ebx
  00001	55		 push	 ebp
  00002	8b a9 84 00 00
	00		 mov	 ebp, DWORD PTR [ecx+132]
  00008	56		 push	 esi
  00009	57		 push	 edi

; 38   : 	for(DWORD i=0; i<m_vData.size(); i++)

  0000a	8b 7c 24 14	 mov	 edi, DWORD PTR _pData$[esp+12]
  0000e	33 f6		 xor	 esi, esi
$L152353:
  00010	85 ed		 test	 ebp, ebp
  00012	74 4c		 je	 SHORT $L152355
  00014	8b 81 88 00 00
	00		 mov	 eax, DWORD PTR [ecx+136]
  0001a	2b c5		 sub	 eax, ebp
  0001c	c1 f8 02	 sar	 eax, 2
  0001f	3b f0		 cmp	 esi, eax
  00021	73 3d		 jae	 SHORT $L152355
  00023	8b 81 84 00 00
	00		 mov	 eax, DWORD PTR [ecx+132]

; 39   : 	{
; 40   : 		if(m_vData[i]->m_bType == pData->m_bType &&
; 41   : 			m_vData[i]->m_bAttr == pData->m_bAttr &&
; 42   : 			m_vData[i]->m_bExec &&
; 43   : 			m_vData[i]->m_bExec == pData->m_bExec)

  00029	8b 14 b0	 mov	 edx, DWORD PTR [eax+esi*4]
  0002c	8a 52 01	 mov	 dl, BYTE PTR [edx+1]
  0002f	3a 57 01	 cmp	 dl, BYTE PTR [edi+1]
  00032	8d 04 b0	 lea	 eax, DWORD PTR [eax+esi*4]
  00035	75 1d		 jne	 SHORT $L152354
  00037	8b 10		 mov	 edx, DWORD PTR [eax]
  00039	8a 52 02	 mov	 dl, BYTE PTR [edx+2]
  0003c	3a 57 02	 cmp	 dl, BYTE PTR [edi+2]
  0003f	75 13		 jne	 SHORT $L152354
  00041	8b 10		 mov	 edx, DWORD PTR [eax]
  00043	8a 5a 03	 mov	 bl, BYTE PTR [edx+3]
  00046	84 db		 test	 bl, bl
  00048	74 0a		 je	 SHORT $L152354
  0004a	8b c2		 mov	 eax, edx
  0004c	8a 50 03	 mov	 dl, BYTE PTR [eax+3]
  0004f	3a 57 03	 cmp	 dl, BYTE PTR [edi+3]
  00052	74 03		 je	 SHORT $L155987
$L152354:

; 38   : 	for(DWORD i=0; i<m_vData.size(); i++)

  00054	46		 inc	 esi
  00055	eb b9		 jmp	 SHORT $L152353
$L155987:
  00057	5f		 pop	 edi
  00058	5e		 pop	 esi
  00059	5d		 pop	 ebp

; 44   : 			return TRUE;

  0005a	b0 01		 mov	 al, 1
  0005c	5b		 pop	 ebx

; 48   : }

  0005d	c2 04 00	 ret	 4
$L152355:
  00060	5f		 pop	 edi
  00061	5e		 pop	 esi
  00062	5d		 pop	 ebp

; 45   : 	}
; 46   : 
; 47   : 	return FALSE;

  00063	32 c0		 xor	 al, al
  00065	5b		 pop	 ebx

; 48   : }

  00066	c2 04 00	 ret	 4
?HaveSkillData@CTSkillTemp@@QAEEPAUtagTSKILLDATA@@@Z ENDP ; CTSkillTemp::HaveSkillData
_TEXT	ENDS
PUBLIC	__real@bf847ae147ae147b
PUBLIC	__real@41f0000000000000
PUBLIC	?Calculate@CTSkillTemp@@QAEHEKK@Z		; CTSkillTemp::Calculate
;	COMDAT __real@41f0000000000000
; File c:\program files (x86)\microsoft visual studio .net 2003\vc7\include\vector
CONST	SEGMENT
__real@41f0000000000000 DQ 041f0000000000000r	; 4.29497e+009
CONST	ENDS
;	COMDAT __real@bf847ae147ae147b
CONST	SEGMENT
__real@bf847ae147ae147b DQ 0bf847ae147ae147br	; -0.01
; Function compile flags: /Ogty
; File c:\users\pierr\desktop\4story - oldschool\sources\tserver\tmapsvr\tskilltemp.cpp
CONST	ENDS
;	COMDAT ?Calculate@CTSkillTemp@@QAEHEKK@Z
_TEXT	SEGMENT
_bLevel$ = 8						; size = 1
_index$ = 12						; size = 4
tv232 = 16						; size = 4
_dwValue$ = 16						; size = 4
?Calculate@CTSkillTemp@@QAEHEKK@Z PROC NEAR		; CTSkillTemp::Calculate, COMDAT
; _this$ = ecx

; 79   : 	int nCalcValue = GetValue(m_vData[index], bLevel);

  00000	8b 81 84 00 00
	00		 mov	 eax, DWORD PTR [ecx+132]
  00006	8b 54 24 08	 mov	 edx, DWORD PTR _index$[esp-4]
  0000a	56		 push	 esi
  0000b	8d 34 90	 lea	 esi, DWORD PTR [eax+edx*4]
  0000e	8b 44 24 08	 mov	 eax, DWORD PTR _bLevel$[esp]
  00012	8b 16		 mov	 edx, DWORD PTR [esi]
  00014	50		 push	 eax
  00015	52		 push	 edx
  00016	e8 00 00 00 00	 call	 ?GetValue@CTSkillTemp@@QAEHPAUtagTSKILLDATA@@E@Z ; CTSkillTemp::GetValue

; 80   : 	int nValue = 0;
; 81   : 
; 82   : 	switch(m_vData[index]->m_bInc)

  0001b	8b 16		 mov	 edx, DWORD PTR [esi]
  0001d	0f b6 52 04	 movzx	 edx, BYTE PTR [edx+4]
  00021	8b c8		 mov	 ecx, eax
  00023	33 c0		 xor	 eax, eax
  00025	4a		 dec	 edx
  00026	83 fa 04	 cmp	 edx, 4
  00029	77 5e		 ja	 SHORT $L152401
  0002b	ff 24 95 00 00
	00 00		 jmp	 DWORD PTR $L156107[edx*4]
$L152396:

; 83   : 	{
; 84   : 	case SVI_INCREASE:
; 85   : 		nValue = nCalcValue;
; 86   : 		break;
; 87   : 	case SVI_DECREASE:
; 88   : 		nValue = -nCalcValue;

  00032	f7 d9		 neg	 ecx
$L152395:
  00034	8b c1		 mov	 eax, ecx
  00036	5e		 pop	 esi

; 99   : 		break;
; 100  : 	default:
; 101  : 		break;
; 102  : 	}
; 103  : 
; 104  : 	return nValue;
; 105  : }

  00037	c2 0c 00	 ret	 12			; 0000000cH
$L152397:

; 89   : 		break;
; 90   : 	case SVI_MULTIPLY:
; 91   : 		nValue = dwValue * nCalcValue - dwValue;

  0003a	8d 41 ff	 lea	 eax, DWORD PTR [ecx-1]
  0003d	0f af 44 24 10	 imul	 eax, DWORD PTR _dwValue$[esp]
  00042	5e		 pop	 esi

; 99   : 		break;
; 100  : 	default:
; 101  : 		break;
; 102  : 	}
; 103  : 
; 104  : 	return nValue;
; 105  : }

  00043	c2 0c 00	 ret	 12			; 0000000cH
$L152398:

; 92   : 		break;
; 93   : 	case SVI_DIVIDE:
; 94   : 		if(nCalcValue <= 0) nCalcValue = 1;

  00046	85 c9		 test	 ecx, ecx
  00048	7f 05		 jg	 SHORT $L152399
  0004a	b9 01 00 00 00	 mov	 ecx, 1
$L152399:

; 95   : 		nValue = dwValue / nCalcValue - dwValue;

  0004f	8b 74 24 10	 mov	 esi, DWORD PTR _dwValue$[esp]
  00053	8b c6		 mov	 eax, esi
  00055	33 d2		 xor	 edx, edx
  00057	f7 f1		 div	 ecx
  00059	2b c6		 sub	 eax, esi
  0005b	5e		 pop	 esi

; 99   : 		break;
; 100  : 	default:
; 101  : 		break;
; 102  : 	}
; 103  : 
; 104  : 	return nValue;
; 105  : }

  0005c	c2 0c 00	 ret	 12			; 0000000cH
$L152400:

; 96   : 		break;
; 97   : 	case SVI_PRECENT:
; 98   : 		nValue = int(dwValue * nCalcValue / 100.0) - dwValue;

  0005f	8b 74 24 10	 mov	 esi, DWORD PTR _dwValue$[esp]
  00063	0f af ce	 imul	 ecx, esi
  00066	85 c9		 test	 ecx, ecx
  00068	89 4c 24 10	 mov	 DWORD PTR tv232[esp], ecx
  0006c	db 44 24 10	 fild	 DWORD PTR tv232[esp]
  00070	7d 06		 jge	 SHORT $L156104
  00072	dc 05 00 00 00
	00		 fadd	 QWORD PTR __real@41f0000000000000
$L156104:
  00078	dc 0d 00 00 00
	00		 fmul	 QWORD PTR __real@bf847ae147ae147b
  0007e	e8 00 00 00 00	 call	 __ftol2
  00083	f7 de		 neg	 esi
  00085	2b f0		 sub	 esi, eax
  00087	8b c6		 mov	 eax, esi
$L152401:
  00089	5e		 pop	 esi

; 99   : 		break;
; 100  : 	default:
; 101  : 		break;
; 102  : 	}
; 103  : 
; 104  : 	return nValue;
; 105  : }

  0008a	c2 0c 00	 ret	 12			; 0000000cH
  0008d	8d 49 00	 npad	 3
$L156107:
  00090	00 00 00 00	 DD	 $L152395
  00094	00 00 00 00	 DD	 $L152396
  00098	00 00 00 00	 DD	 $L152397
  0009c	00 00 00 00	 DD	 $L152398
  000a0	00 00 00 00	 DD	 $L152400
?Calculate@CTSkillTemp@@QAEHEKK@Z ENDP			; CTSkillTemp::Calculate
_TEXT	ENDS
PUBLIC	?IsMirrorType@CTSkillTemp@@QAEEXZ		; CTSkillTemp::IsMirrorType
; Function compile flags: /Ogty
;	COMDAT ?IsMirrorType@CTSkillTemp@@QAEEXZ
_TEXT	SEGMENT
?IsMirrorType@CTSkillTemp@@QAEEXZ PROC NEAR		; CTSkillTemp::IsMirrorType, COMDAT
; _this$ = ecx

; 107  : {

  00000	56		 push	 esi
  00001	8b b1 84 00 00
	00		 mov	 esi, DWORD PTR [ecx+132]
  00007	57		 push	 edi

; 108  : 	for(DWORD i=0; i<m_vData.size(); i++)

  00008	33 d2		 xor	 edx, edx
  0000a	8d 9b 00 00 00
	00		 npad	 6
$L152406:
  00010	85 f6		 test	 esi, esi
  00012	74 31		 je	 SHORT $L152408
  00014	8b 81 88 00 00
	00		 mov	 eax, DWORD PTR [ecx+136]
  0001a	2b c6		 sub	 eax, esi
  0001c	c1 f8 02	 sar	 eax, 2
  0001f	3b d0		 cmp	 edx, eax
  00021	73 22		 jae	 SHORT $L152408
  00023	8b 81 84 00 00
	00		 mov	 eax, DWORD PTR [ecx+132]

; 109  : 	{
; 110  : 		if(m_vData[i]->m_bType == SDT_STATUS &&
; 111  : 			m_vData[i]->m_bExec == SDT_STATUS_MAGICMIRROR)

  00029	8b 3c 90	 mov	 edi, DWORD PTR [eax+edx*4]
  0002c	80 7f 01 06	 cmp	 BYTE PTR [edi+1], 6
  00030	8d 04 90	 lea	 eax, DWORD PTR [eax+edx*4]
  00033	75 08		 jne	 SHORT $L152407
  00035	8b c7		 mov	 eax, edi
  00037	80 78 03 11	 cmp	 BYTE PTR [eax+3], 17	; 00000011H
  0003b	74 03		 je	 SHORT $L156230
$L152407:

; 108  : 	for(DWORD i=0; i<m_vData.size(); i++)

  0003d	42		 inc	 edx
  0003e	eb d0		 jmp	 SHORT $L152406
$L156230:
  00040	5f		 pop	 edi

; 112  : 			return TRUE;

  00041	b0 01		 mov	 al, 1
  00043	5e		 pop	 esi

; 116  : }

  00044	c3		 ret	 0
$L152408:
  00045	5f		 pop	 edi

; 113  : 	}
; 114  : 
; 115  : 	return FALSE;

  00046	32 c0		 xor	 al, al
  00048	5e		 pop	 esi

; 116  : }

  00049	c3		 ret	 0
?IsMirrorType@CTSkillTemp@@QAEEXZ ENDP			; CTSkillTemp::IsMirrorType
_TEXT	ENDS
PUBLIC	?IsDamageType@CTSkillTemp@@QAEEXZ		; CTSkillTemp::IsDamageType
; Function compile flags: /Ogty
;	COMDAT ?IsDamageType@CTSkillTemp@@QAEEXZ
_TEXT	SEGMENT
?IsDamageType@CTSkillTemp@@QAEEXZ PROC NEAR		; CTSkillTemp::IsDamageType, COMDAT
; _this$ = ecx

; 119  : {

  00000	55		 push	 ebp
  00001	56		 push	 esi
  00002	57		 push	 edi
  00003	8b b9 84 00 00
	00		 mov	 edi, DWORD PTR [ecx+132]

; 120  : 	for(DWORD i=0; i<m_vData.size(); i++)

  00009	33 f6		 xor	 esi, esi
  0000b	b0 01		 mov	 al, 1
  0000d	8d 49 00	 npad	 3
$L152414:
  00010	85 ff		 test	 edi, edi
  00012	74 43		 je	 SHORT $L152416
  00014	8b 91 88 00 00
	00		 mov	 edx, DWORD PTR [ecx+136]
  0001a	2b d7		 sub	 edx, edi
  0001c	c1 fa 02	 sar	 edx, 2
  0001f	3b f2		 cmp	 esi, edx
  00021	73 34		 jae	 SHORT $L152416
  00023	8b 91 84 00 00
	00		 mov	 edx, DWORD PTR [ecx+132]

; 121  : 	{
; 122  : 		if(m_vData[i]->m_bType == SDT_ABILITY &&
; 123  : 			m_vData[i]->m_bAttr &&
; 124  : 		   (m_vData[i]->m_bExec == MTYPE_DAMAGE ||
; 125  : 			m_vData[i]->m_bExec == MTYPE_MDAMAGE ||
; 126  : 		    m_vData[i]->m_bExec == MTYPE_HP ||
; 127  : 			m_vData[i]->m_bExec == MTYPE_MP ))

  00029	8b 2c b2	 mov	 ebp, DWORD PTR [edx+esi*4]
  0002c	38 45 01	 cmp	 BYTE PTR [ebp+1], al
  0002f	8d 14 b2	 lea	 edx, DWORD PTR [edx+esi*4]
  00032	75 20		 jne	 SHORT $L152415
  00034	80 7d 02 00	 cmp	 BYTE PTR [ebp+2], 0
  00038	74 1a		 je	 SHORT $L152415
  0003a	80 7d 03 1e	 cmp	 BYTE PTR [ebp+3], 30	; 0000001eH
  0003e	74 19		 je	 SHORT $L152412
  00040	80 7d 03 58	 cmp	 BYTE PTR [ebp+3], 88	; 00000058H
  00044	74 13		 je	 SHORT $L152412
  00046	80 7d 03 0e	 cmp	 BYTE PTR [ebp+3], 14	; 0000000eH
  0004a	74 0d		 je	 SHORT $L152412
  0004c	8b d5		 mov	 edx, ebp
  0004e	80 7a 03 16	 cmp	 BYTE PTR [edx+3], 22	; 00000016H
  00052	74 05		 je	 SHORT $L152412
$L152415:

; 120  : 	for(DWORD i=0; i<m_vData.size(); i++)
