; Listing generated by Microsoft (R) Optimizing Compiler Version 13.10.3077 

	TITLE	.\UdpSocket.cpp
	.386P
include listing.inc
if @Version gt 510
.model FLAT
else
_TEXT	SEGMENT PARA USE32 PUBLIC 'CODE'
_TEXT	ENDS
_DATA	SEGMENT DWORD USE32 PUBLIC 'DATA'
_DATA	ENDS
CONST	SEGMENT DWORD USE32 PUBLIC 'CONST'
CONST	ENDS
_BSS	SEGMENT DWORD USE32 PUBLIC 'BSS'
_BSS	ENDS
$$SYMBOLS	SEGMENT BYTE USE32 'DEBSYM'
$$SYMBOLS	ENDS
$$TYPES	SEGMENT BYTE USE32 'DEBTYP'
$$TYPES	ENDS
_TLS	SEGMENT DWORD USE32 PUBLIC 'TLS'
_TLS	ENDS
;	COMDAT ??_C@_1EO@BGAEGJFB@?$AA?$HL?$AA5?$AA1?$AAA?$AAB?$AA7?$AAA?$AA3?$AA0?$AA?9?$AA9?$AA9?$AA5?$AAA?$AA?9?$AA4?$AA4?$AAA?$AAB?$AA?9@
CONST	SEGMENT DWORD USE32 PUBLIC 'CONST'
CONST	ENDS
;	COMDAT ??_C@_0CH@JJOAEHDK@?$HL51AB7A30?9995A?944AB?9B869?97D79E92@
CONST	SEGMENT DWORD USE32 PUBLIC 'CONST'
CONST	ENDS
;	COMDAT ??_C@_0N@OGFEPDED@LocalService?$AA@
CONST	SEGMENT DWORD USE32 PUBLIC 'CONST'
CONST	ENDS
;	COMDAT ??_C@_02CCDHMLDD@?9?1?$AA@
CONST	SEGMENT DWORD USE32 PUBLIC 'CONST'
CONST	ENDS
;	COMDAT ??_C@_0M@MIGBKCMN@UnregServer?$AA@
CONST	SEGMENT DWORD USE32 PUBLIC 'CONST'
CONST	ENDS
;	COMDAT ??_C@_09LJBJJPCG@RegServer?$AA@
CONST	SEGMENT DWORD USE32 PUBLIC 'CONST'
CONST	ENDS
;	COMDAT ??_C@_07LMLHFMEG@Service?$AA@
CONST	SEGMENT DWORD USE32 PUBLIC 'CONST'
CONST	ENDS
;	COMDAT ??_C@_07PNHNHBAB@Install?$AA@
CONST	SEGMENT DWORD USE32 PUBLIC 'CONST'
CONST	ENDS
;	COMDAT ??_C@_09LAEJNBCE@UnInstall?$AA@
CONST	SEGMENT DWORD USE32 PUBLIC 'CONST'
CONST	ENDS
;	COMDAT ??_C@_04FABLJDN@Name?$AA@
CONST	SEGMENT DWORD USE32 PUBLIC 'CONST'
CONST	ENDS
;	COMDAT ??_C@_01CLKCMJKC@?5?$AA@
CONST	SEGMENT DWORD USE32 PUBLIC 'CONST'
CONST	ENDS
;	COMDAT ??_C@_0M@DBFDLFJJ@?$CFs?5?9Name?5?$CFs?$AA@
CONST	SEGMENT DWORD USE32 PUBLIC 'CONST'
CONST	ENDS
;	COMDAT ??_C@_0BP@GECJKCAK@Could?5not?5open?5Service?5Manager?$AA@
CONST	SEGMENT DWORD USE32 PUBLIC 'CONST'
CONST	ENDS
;	COMDAT ??_C@_06HCEGMCNE@RPCSS?$AA?$AA@
CONST	SEGMENT DWORD USE32 PUBLIC 'CONST'
CONST	ENDS
;	COMDAT ??_C@_0BI@HDJFCBEP@Could?5not?5start?5service?$AA@
CONST	SEGMENT DWORD USE32 PUBLIC 'CONST'
CONST	ENDS
;	COMDAT ??_C@_0BF@LNLPBIJG@Now?5Money?5?3?5?$CFu?1?$CFu?1?$CFu?$AA@
CONST	SEGMENT DWORD USE32 PUBLIC 'CONST'
CONST	ENDS
;	COMDAT ??_C@_02DPKJAMEF@?$CFd?$AA@
CONST	SEGMENT DWORD USE32 PUBLIC 'CONST'
CONST	ENDS
;	COMDAT ??_C@_08HAIKCOPJ@?$CFd?5?9?$DO?5?$CFd?$AA@
CONST	SEGMENT DWORD USE32 PUBLIC 'CONST'
CONST	ENDS
;	COMDAT ??_C@_0N@FCHLIMGO@Now?5Exp?5?3?5?$CFu?$AA@
CONST	SEGMENT DWORD USE32 PUBLIC 'CONST'
CONST	ENDS
;	COMDAT ??_C@_07PFKAHOIJ@SUCCESS?$AA@
CONST	SEGMENT DWORD USE32 PUBLIC 'CONST'
CONST	ENDS
;	COMDAT ??_C@_0BB@ICBAIEAK@ALREADYGUILDNAME?$AA@
CONST	SEGMENT DWORD USE32 PUBLIC 'CONST'
CONST	ENDS
;	COMDAT ??_C@_08PPKAPFHE@NOTCHIEF?$AA@
CONST	SEGMENT DWORD USE32 PUBLIC 'CONST'
CONST	ENDS
;	COMDAT ??_C@_0O@PBOOMHM@ALREADYMEMBER?$AA@
CONST	SEGMENT DWORD USE32 PUBLIC 'CONST'
CONST	ENDS
;	COMDAT ??_C@_09FJKKGCKF@NOTMEMBER?$AA@
CONST	SEGMENT DWORD USE32 PUBLIC 'CONST'
CONST	ENDS
;	COMDAT ??_C@_09DEKMPEHL@HAVEGUILD?$AA@
CONST	SEGMENT DWORD USE32 PUBLIC 'CONST'
CONST	ENDS
;	COMDAT ??_C@_08DJOBNNJD@NOTFOUND?$AA@
CONST	SEGMENT DWORD USE32 PUBLIC 'CONST'
CONST	ENDS
;	COMDAT ??_C@_0O@ODJEFDDJ@ESTABLISH_ERR?$AA@
CONST	SEGMENT DWORD USE32 PUBLIC 'CONST'
CONST	ENDS
;	COMDAT ??_C@_0BE@FBCEBNHN@DISORGANIZATION_ERR?$AA@
CONST	SEGMENT DWORD USE32 PUBLIC 'CONST'
CONST	ENDS
;	COMDAT ??_C@_0L@INCIIFBF@LEAVE_SELF?$AA@
CONST	SEGMENT DWORD USE32 PUBLIC 'CONST'
CONST	ENDS
;	COMDAT ??_C@_0L@CJJMNPJO@LEAVE_KICK?$AA@
CONST	SEGMENT DWORD USE32 PUBLIC 'CONST'
CONST	ENDS
;	COMDAT ??_C@_0BG@MENJOLMJ@LEAVE_DISORGANIZATION?$AA@
CONST	SEGMENT DWORD USE32 PUBLIC 'CONST'
CONST	ENDS
;	COMDAT ??_C@_0N@NKEOKGLA@JOIN_SUCCESS?$AA@
CONST	SEGMENT DWORD USE32 PUBLIC 'CONST'
CONST	ENDS
;	COMDAT ??_C@_09FLDMLBKH@JOIN_DENY?$AA@
CONST	SEGMENT DWORD USE32 PUBLIC 'CONST'
CONST	ENDS
;	COMDAT ??_C@_06NJMFPHHE@NODUTY?$AA@
CONST	SEGMENT DWORD USE32 PUBLIC 'CONST'
CONST	ENDS
;	COMDAT ??_C@_01JOAMLHOP@?9?$AA@
CONST	SEGMENT DWORD USE32 PUBLIC 'CONST'
CONST	ENDS
;	COMDAT ??_C@_09IJOCPMLD@SubMaster?$AA@
CONST	SEGMENT DWORD USE32 PUBLIC 'CONST'
CONST	ENDS
;	COMDAT ??_C@_06INNNFHKM@Master?$AA@
CONST	SEGMENT DWORD USE32 PUBLIC 'CONST'
CONST	ENDS
;	COMDAT ??_C@_04CKKCHGKD@?$LD?$LC?$MA?$NL?$AA@
CONST	SEGMENT DWORD USE32 PUBLIC 'CONST'
CONST	ENDS
;	COMDAT ??_C@_04GKECDDFA@?$MA?Z?$MA?$NL?$AA@
CONST	SEGMENT DWORD USE32 PUBLIC 'CONST'
CONST	ENDS
;	COMDAT ??_C@_04HMBOOGKB@?$LJ?i?$MA?$NL?$AA@
CONST	SEGMENT DWORD USE32 PUBLIC 'CONST'
CONST	ENDS
;	COMDAT ??_C@_04OKPEFIDN@?H?D?$MA?$NL?$AA@
CONST	SEGMENT DWORD USE32 PUBLIC 'CONST'
CONST	ENDS
;	COMDAT ??_C@_04JJKLLECK@?$LA?x?$MA?$NL?$AA@
CONST	SEGMENT DWORD USE32 PUBLIC 'CONST'
CONST	ENDS
;	COMDAT ??_C@_06IKLLLDHL@normal?$AA@
CONST	SEGMENT DWORD USE32 PUBLIC 'CONST'
CONST	ENDS
;	COMDAT ??_C@_05KAEIDCAL@apply?$AA@
CONST	SEGMENT DWORD USE32 PUBLIC 'CONST'
CONST	ENDS
;	COMDAT ??_C@_0BB@KOJLFALB@Cash?$DN?$CFu?5Bonus?$DN?$CFu?$AA@
CONST	SEGMENT DWORD USE32 PUBLIC 'CONST'
CONST	ENDS
;	COMDAT ??_C@_0P@MCDGMPHH@?$CF04d?9?$CF02d?9?$CF02d?$AA@
CONST	SEGMENT DWORD USE32 PUBLIC 'CONST'
CONST	ENDS
;	COMDAT ??_C@_05IKNCGCHC@Party?$AA@
CONST	SEGMENT DWORD USE32 PUBLIC 'CONST'
CONST	ENDS
;	COMDAT ??_C@_06IGOBCGAJ@Single?$AA@
CONST	SEGMENT DWORD USE32 PUBLIC 'CONST'
CONST	ENDS
;	COMDAT ??_C@_0BB@PHMNFLFF@Tournament?5Apply?$AA@
CONST	SEGMENT DWORD USE32 PUBLIC 'CONST'
CONST	ENDS
;	COMDAT ??_C@_0P@PANDFKMA@Tournament?5Win?$AA@
CONST	SEGMENT DWORD USE32 PUBLIC 'CONST'
CONST	ENDS
;	COMDAT ??_C@_09IHNBCNIA@?5?$FLQFINAL?$FN?$AA@
CONST	SEGMENT DWORD USE32 PUBLIC 'CONST'
CONST	ENDS
;	COMDAT ??_C@_09MFPECKPN@?5?$FLSFINAL?$FN?$AA@
CONST	SEGMENT DWORD USE32 PUBLIC 'CONST'
CONST	ENDS
;	COMDAT ??_C@_08CODJBDEI@?5?$FLFINAL?$FN?$AA@
CONST	SEGMENT DWORD USE32 PUBLIC 'CONST'
CONST	ENDS
;	COMDAT ??_C@_0BD@IHLOJELJ@Tournament?5Batting?$AA@
CONST	SEGMENT DWORD USE32 PUBLIC 'CONST'
CONST	ENDS
;	COMDAT ??_C@_0BH@JMOCNDDL@Could?5not?5open?5service?$AA@
CONST	SEGMENT DWORD USE32 PUBLIC 'CONST'
CONST	ENDS
;	COMDAT ??_C@_0BH@GKJBBOLK@Could?5not?5stop?5service?$AA@
CONST	SEGMENT DWORD USE32 PUBLIC 'CONST'
CONST	ENDS
;	COMDAT ??_C@_0BJ@NMBIIKKI@Could?5not?5delete?5service?$AA@
CONST	SEGMENT DWORD USE32 PUBLIC 'CONST'
CONST	ENDS
text$yc	SEGMENT PARA USE32 PUBLIC 'CODE'
text$yc	ENDS
CRT$XCA	SEGMENT DWORD USE32 PUBLIC 'DATA'
CRT$XCA	ENDS
CRT$XCU	SEGMENT DWORD USE32 PUBLIC 'DATA'
CRT$XCU	ENDS
CRT$XCL	SEGMENT DWORD USE32 PUBLIC 'DATA'
CRT$XCL	ENDS
CRT$XCC	SEGMENT DWORD USE32 PUBLIC 'DATA'
CRT$XCC	ENDS
CRT$XCZ	SEGMENT DWORD USE32 PUBLIC 'DATA'
CRT$XCZ	ENDS
text$yd	SEGMENT PARA USE32 PUBLIC 'CODE'
text$yd	ENDS
ATL$__m	SEGMENT DWORD USE32 PUBLIC ''
ATL$__m	ENDS
ATL$__z	SEGMENT DWORD USE32 PUBLIC ''
ATL$__z	ENDS
ATL$__a	SEGMENT DWORD USE32 PUBLIC ''
ATL$__a	ENDS
xdata$x	SEGMENT DWORD USE32 PUBLIC 'CONST'
xdata$x	ENDS
;	COMDAT ?GetServerID@CTMapSvrModule@@QAEEXZ
_TEXT	SEGMENT PARA USE32 PUBLIC 'CODE'
_TEXT	ENDS
;	COMDAT ?GetAppId@CTMapSvrModule@@SAPBGXZ
_TEXT	SEGMENT PARA USE32 PUBLIC 'CODE'
_TEXT	ENDS
;	COMDAT ?GetAppIdT@CTMapSvrModule@@SAPADXZ
_TEXT	SEGMENT PARA USE32 PUBLIC 'CODE'
_TEXT	ENDS
;	COMDAT ?UpdateRegistryAppId@CTMapSvrModule@@SGJH@Z
_TEXT	SEGMENT PARA USE32 PUBLIC 'CODE'
_TEXT	ENDS
;	COMDAT ?RegisterAppId@CTMapSvrModule@@QAEJ_N@Z
_TEXT	SEGMENT PARA USE32 PUBLIC 'CODE'
_TEXT	ENDS
;	COMDAT ?Install@CTMapSvrModule@@QAEHXZ
_TEXT	SEGMENT PARA USE32 PUBLIC 'CODE'
_TEXT	ENDS
;	COMDAT ??0CUdpSocket@@QAE@XZ
_TEXT	SEGMENT PARA USE32 PUBLIC 'CODE'
_TEXT	ENDS
;	COMDAT ??1CUdpSocket@@QAE@XZ
_TEXT	SEGMENT PARA USE32 PUBLIC 'CODE'
_TEXT	ENDS
;	COMDAT ?Initialize@CUdpSocket@@QAEHPADH@Z
_TEXT	SEGMENT PARA USE32 PUBLIC 'CODE'
_TEXT	ENDS
;	COMDAT ?SendToLogPacket@CUdpSocket@@QAEXPAU_UDPPACKET@@@Z
_TEXT	SEGMENT PARA USE32 PUBLIC 'CODE'
_TEXT	ENDS
;	COMDAT ?Log@CUdpSocket@@QAEXPAU_UDPPACKET@@@Z
_TEXT	SEGMENT PARA USE32 PUBLIC 'CODE'
_TEXT	ENDS
;	COMDAT ?SendDMLog@CUdpSocket@@QAEXU_LOG_DATA_@@@Z
_TEXT	SEGMENT PARA USE32 PUBLIC 'CODE'
_TEXT	ENDS
;	COMDAT ?LogMoney@CUdpSocket@@QAEXKPAVCTPlayer@@PAVCTMonster@@_JPAUtagQUESTTEMP@@E@Z
_TEXT	SEGMENT PARA USE32 PUBLIC 'CODE'
_TEXT	ENDS
;	COMDAT ?LogItemByNPC@CUdpSocket@@QAEXKPAVCTPlayer@@PAVCTNpc@@PAVCTItem@@HPAUtagQUESTTEMP@@@Z
_TEXT	SEGMENT PARA USE32 PUBLIC 'CODE'
_TEXT	ENDS
;	COMDAT ?LogItemByMonster@CUdpSocket@@QAEXKPAVCTPlayer@@PAVCTMonster@@PAVCTItem@@_J@Z
_TEXT	SEGMENT PARA USE32 PUBLIC 'CODE'
_TEXT	ENDS
;	COMDAT ?LogItemByMonster@CUdpSocket@@QAEXKPAVCTPlayer@@HPAVCTItem@@@Z
_TEXT	SEGMENT PARA USE32 PUBLIC 'CODE'
_TEXT	ENDS
;	COMDAT ?LogItemUpgrade@CUdpSocket@@QAEXKPAVCTPlayer@@PAVCTItem@@H@Z
_TEXT	SEGMENT PARA USE32 PUBLIC 'CODE'
_TEXT	ENDS
;	COMDAT ?LogItemTrade@CUdpSocket@@QAEXKPAVCTPlayer@@PAVCTItem@@V?$CStringT@DV?$StrTraitATL@DV?$ChTraitsCRT@D@ATL@@@ATL@@@ATL@@@Z
_TEXT	SEGMENT PARA USE32 PUBLIC 'CODE'
_TEXT	ENDS
;	COMDAT ?LogMoneyTrade@CUdpSocket@@QAEXKPAVCTPlayer@@V?$CStringT@DV?$StrTraitATL@DV?$ChTraitsCRT@D@ATL@@@ATL@@@ATL@@_JH@Z
_TEXT	SEGMENT PARA USE32 PUBLIC 'CODE'
_TEXT	ENDS
;	COMDAT ?LogItemByStore@CUdpSocket@@QAEXKPAVCTPlayer@@V?$CStringT@DV?$StrTraitATL@DV?$ChTraitsCRT@D@ATL@@@ATL@@@ATL@@PAVCTItem@@_JE@Z
_TEXT	SEGMENT PARA USE32 PUBLIC 'CODE'
_TEXT	ENDS
;	COMDAT ?LogExpByMonster@CUdpSocket@@QAEXKPAVCTPlayer@@PAVCTMonster@@KE@Z
_TEXT	SEGMENT PARA USE32 PUBLIC 'CODE'
_TEXT	ENDS
;	COMDAT ?LogSkillAct@CUdpSocket@@QAEXKPAVCTPlayer@@PAVCTSkill@@_J@Z
_TEXT	SEGMENT PARA USE32 PUBLIC 'CODE'
_TEXT	ENDS
;	COMDAT ?LogPet@CUdpSocket@@QAEXKPAVCTPlayer@@GV?$CStringT@DV?$StrTraitATL@DV?$ChTraitsCRT@D@ATL@@@ATL@@@ATL@@_J@Z
_TEXT	SEGMENT PARA USE32 PUBLIC 'CODE'
_TEXT	ENDS
;	COMDAT ?LogLevelUp@CUdpSocket@@QAEXKPAVCTPlayer@@E@Z
_TEXT	SEGMENT PARA USE32 PUBLIC 'CODE'
_TEXT	ENDS
;	COMDAT ?LogMonster@CUdpSocket@@QAEXKPAVCTPlayer@@PAVCTMonster@@@Z
_TEXT	SEGMENT PARA USE32 PUBLIC 'CODE'
_TEXT	ENDS
;	COMDAT ?LogUserDie@CUdpSocket@@QAEXKPAVCTPlayer@@E@Z
_TEXT	SEGMENT PARA USE32 PUBLIC 'CODE'
_TEXT	ENDS
;	COMDAT ?LogQuest@CUdpSocket@@QAEXKPAVCTPlayer@@KK@Z
_TEXT	SEGMENT PARA USE32 PUBLIC 'CODE'
_TEXT	ENDS
;	COMDAT ?LogEnterMap@CUdpSocket@@QAEXKPAVCTPlayer@@@Z
_TEXT	SEGMENT PARA USE32 PUBLIC 'CODE'
_TEXT	ENDS
;	COMDAT ?LogLocalOccupy@CUdpSocket@@QAEXKEGEK@Z
_TEXT	SEGMENT PARA USE32 PUBLIC 'CODE'
_TEXT	ENDS
;	COMDAT ?LogLocalEnable@CUdpSocket@@QAEXKGE@Z
_TEXT	SEGMENT PARA USE32 PUBLIC 'CODE'
_TEXT	ENDS
;	COMDAT ?LogCabinet@CUdpSocket@@QAEXKPAVCTPlayer@@EPAVCTItem@@EH@Z
_TEXT	SEGMENT PARA USE32 PUBLIC 'CODE'
_TEXT	ENDS
;	COMDAT ?LogChat@CUdpSocket@@QAEXKPAVCTPlayer@@V?$CStringT@DV?$StrTraitATL@DV?$ChTraitsCRT@D@ATL@@@ATL@@@ATL@@1@Z
_TEXT	SEGMENT PARA USE32 PUBLIC 'CODE'
_TEXT	ENDS
;	COMDAT ?LogGuild@CUdpSocket@@QAEXKPAVCTPlayer@@KV?$CStringT@DV?$StrTraitATL@DV?$ChTraitsCRT@D@ATL@@@ATL@@@ATL@@K1E@Z
_TEXT	SEGMENT PARA USE32 PUBLIC 'CODE'
_TEXT	ENDS
;	COMDAT ?LogGuildDutyPeer@CUdpSocket@@QAEXKPAVCTPlayer@@KV?$CStringT@DV?$StrTraitATL@DV?$ChTraitsCRT@D@ATL@@@ATL@@@ATL@@K1HE@Z
_TEXT	SEGMENT PARA USE32 PUBLIC 'CODE'
_TEXT	ENDS
;	COMDAT ?LogGuildDisorganization@CUdpSocket@@QAEXKPAVCTPlayer@@E@Z
_TEXT	SEGMENT PARA USE32 PUBLIC 'CODE'
_TEXT	ENDS
;	COMDAT ?LogGuildExpMoeny@CUdpSocket@@QAEXKPAVCTPlayer@@HHHHHE@Z
_TEXT	SEGMENT PARA USE32 PUBLIC 'CODE'
_TEXT	ENDS
;	COMDAT ?LogGuildCabinet@CUdpSocket@@QAEXKPAVCTPlayer@@KV?$CStringT@DV?$StrTraitATL@DV?$ChTraitsCRT@D@ATL@@@ATL@@@ATL@@EPAVCTItem@@EK@Z
_TEXT	SEGMENT PARA USE32 PUBLIC 'CODE'
_TEXT	ENDS
;	COMDAT ?LogCashItem@CUdpSocket@@QAEXKPAVCTPlayer@@KV?$CStringT@DV?$StrTraitATL@DV?$ChTraitsCRT@D@ATL@@@ATL@@@ATL@@PAVCTItem@@HHH@Z
_TEXT	SEGMENT PARA USE32 PUBLIC 'CODE'
_TEXT	ENDS
;	COMDAT ?LogCashCabinetBuy@CUdpSocket@@QAEXKPAVCTPlayer@@H_JHHH@Z
_TEXT	SEGMENT PARA USE32 PUBLIC 'CODE'
_TEXT	ENDS
;	COMDAT ?LogTeleport@CUdpSocket@@QAEXKPAVCTPlayer@@PAVCTNpc@@HH@Z
_TEXT	SEGMENT PARA USE32 PUBLIC 'CODE'
_TEXT	ENDS
;	COMDAT ?LogPvPointChar@CUdpSocket@@QAEXKPAVCTPlayer@@KEEV?$CStringT@DV?$StrTraitATL@DV?$ChTraitsCRT@D@ATL@@@ATL@@@ATL@@@Z
_TEXT	SEGMENT PARA USE32 PUBLIC 'CODE'
_TEXT	ENDS
;	COMDAT ?LogPvPointGuild@CUdpSocket@@QAEXKKGEKEE@Z
_TEXT	SEGMENT PARA USE32 PUBLIC 'CODE'
_TEXT	ENDS
;	COMDAT ?LogAuctionReg@CUdpSocket@@QAEXKPAVCTPlayer@@K_J1PAVCTItem@@KV?$CStringT@DV?$StrTraitATL@DV?$ChTraitsCRT@D@ATL@@@ATL@@@ATL@@@Z
_TEXT	SEGMENT PARA USE32 PUBLIC 'CODE'
_TEXT	ENDS
;	COMDAT ?LogAuctionBid@CUdpSocket@@QAEXKPAVCTPlayer@@K_JPAVCTItem@@EKV?$CStringT@DV?$StrTraitATL@DV?$ChTraitsCRT@D@ATL@@@ATL@@@ATL@@@Z
_TEXT	SEGMENT PARA USE32 PUBLIC 'CODE'
_TEXT	ENDS
;	COMDAT ?LogTournamentApply@CUdpSocket@@QAEXKPAVCTPlayer@@V?$CStringT@DV?$StrTraitATL@DV?$ChTraitsCRT@D@ATL@@@ATL@@@ATL@@E1@Z
_TEXT	SEGMENT PARA USE32 PUBLIC 'CODE'
_TEXT	ENDS
;	COMDAT ?LogTournamentWin@CUdpSocket@@QAEXKPAUtagTOURNAMENTPLAYER@@0V?$CStringT@DV?$StrTraitATL@DV?$ChTraitsCRT@D@ATL@@@ATL@@@ATL@@KE@Z
_TEXT	SEGMENT PARA USE32 PUBLIC 'CODE'
_TEXT	ENDS
;	COMDAT ?LogTournamentEvent@CUdpSocket@@QAEXKPAVCTPlayer@@KV?$CStringT@DV?$StrTraitATL@DV?$ChTraitsCRT@D@ATL@@@ATL@@@ATL@@E@Z
_TEXT	SEGMENT PARA USE32 PUBLIC 'CODE'
_TEXT	ENDS
;	COMDAT ?LogRPSGame@CUdpSocket@@QAEXKPAVCTPlayer@@EEK@Z
_TEXT	SEGMENT PARA USE32 PUBLIC 'CODE'
_TEXT	ENDS
;	COMDAT ?LogTactics@CUdpSocket@@QAEXKPAVCTPlayer@@KV?$CStringT@DV?$StrTraitATL@DV?$ChTraitsCRT@D@ATL@@@ATL@@@ATL@@@Z
_TEXT	SEGMENT PARA USE32 PUBLIC 'CODE'
_TEXT	ENDS
;	COMDAT ?LogAidCountry@CUdpSocket@@QAEXKPAVCTPlayer@@EE@Z
_TEXT	SEGMENT PARA USE32 PUBLIC 'CODE'
_TEXT	ENDS
;	COMDAT ?LogCountry@CUdpSocket@@QAEXKPAVCTPlayer@@EE@Z
_TEXT	SEGMENT PARA USE32 PUBLIC 'CODE'
_TEXT	ENDS
;	COMDAT ?LogKickOut@CUdpSocket@@QAEXKPAVCTPlayer@@E@Z
_TEXT	SEGMENT PARA USE32 PUBLIC 'CODE'
_TEXT	ENDS
;	COMDAT ?LogCMGift@CUdpSocket@@QAEXKPAVCTPlayer@@GKEKE@Z
_TEXT	SEGMENT PARA USE32 PUBLIC 'CODE'
_TEXT	ENDS
;	COMDAT ??Y?$CStringT@DV?$StrTraitATL@DV?$ChTraitsCRT@D@ATL@@@ATL@@@ATL@@QAEAAV01@PBD@Z
_TEXT	SEGMENT PARA USE32 PUBLIC 'CODE'
_TEXT	ENDS
;	COMDAT ?Tokenize@?$CStringT@DV?$StrTraitATL@DV?$ChTraitsCRT@D@ATL@@@ATL@@@ATL@@QBE?AV12@PBDAAH@Z
_TEXT	SEGMENT PARA USE32 PUBLIC 'CODE'
_TEXT	ENDS
;	COMDAT ?Format@?$CStringT@DV?$StrTraitATL@DV?$ChTraitsCRT@D@ATL@@@ATL@@@ATL@@QAAXPBDZZ
_TEXT	SEGMENT PARA USE32 PUBLIC 'CODE'
_TEXT	ENDS
;	COMDAT ?begin@?$_Tree@V?$_Tmap_traits@EPAUtagTMAGIC@@U?$less@E@std@@V?$allocator@U?$pair@$$CBEPAUtagTMAGIC@@@std@@@3@$0A@@std@@@std@@QAE?AViterator@12@XZ
_TEXT	SEGMENT PARA USE32 PUBLIC 'CODE'
_TEXT	ENDS
;	COMDAT ?end@?$_Tree@V?$_Tmap_traits@EPAUtagTMAGIC@@U?$less@E@std@@V?$allocator@U?$pair@$$CBEPAUtagTMAGIC@@@std@@@3@$0A@@std@@@std@@QAE?AViterator@12@XZ
_TEXT	SEGMENT PARA USE32 PUBLIC 'CODE'
_TEXT	ENDS
;	COMDAT ?UnregisterAppId@?$CAtlServiceModuleT@VCTMapSvrModule@@$0GE@@ATL@@QAEJXZ
_TEXT	SEGMENT PARA USE32 PUBLIC 'CODE'
_TEXT	ENDS
;	COMDAT ?IsInstalled@?$CAtlServiceModuleT@VCTMapSvrModule@@$0GE@@ATL@@QAEHXZ
_TEXT	SEGMENT PARA USE32 PUBLIC 'CODE'
_TEXT	ENDS
;	COMDAT ?Uninstall@?$CAtlServiceModuleT@VCTMapSvrModule@@$0GE@@ATL@@QAEHXZ
_TEXT	SEGMENT PARA USE32 PUBLIC 'CODE'
_TEXT	ENDS
;	COMDAT ??1?$CAtlExeModuleT@VCTMapSvrModule@@@ATL@@UAE@XZ
_TEXT	SEGMENT PARA USE32 PUBLIC 'CODE'
_TEXT	ENDS
;	COMDAT ?Unlock@?$CAtlExeModuleT@VCTMapSvrModule@@@ATL@@UAEJXZ
_TEXT	SEGMENT PARA USE32 PUBLIC 'CODE'
_TEXT	ENDS
;	COMDAT ?RegisterServer@?$CAtlModuleT@VCTMapSvrModule@@@ATL@@QAEJHPBU_GUID@@@Z
_TEXT	SEGMENT PARA USE32 PUBLIC 'CODE'
_TEXT	ENDS
;	COMDAT ?UnregisterServer@?$CAtlModuleT@VCTMapSvrModule@@@ATL@@QAEJHPBU_GUID@@@Z
_TEXT	SEGMENT PARA USE32 PUBLIC 'CODE'
_TEXT	ENDS
;	COMDAT ?AddCommonRGSReplacements@?$CAtlModuleT@VCTMapSvrModule@@@ATL@@UAEJPAUIRegistrarBase@@@Z
_TEXT	SEGMENT PARA USE32 PUBLIC 'CODE'
_TEXT	ENDS
;	COMDAT ??0iterator@?$_Tree@V?$_Tmap_traits@EPAUtagTMAGIC@@U?$less@E@std@@V?$allocator@U?$pair@$$CBEPAUtagTMAGIC@@@std@@@3@$0A@@std@@@std@@QAE@XZ
_TEXT	SEGMENT PARA USE32 PUBLIC 'CODE'
_TEXT	ENDS
;	COMDAT ??Diterator@?$_Tree@V?$_Tmap_traits@EPAUtagTMAGIC@@U?$less@E@std@@V?$allocator@U?$pair@$$CBEPAUtagTMAGIC@@@std@@@3@$0A@@std@@@std@@QBEAAU?$pair@$$CBEPAUtagTMAGIC@@@2@XZ
_TEXT	SEGMENT PARA USE32 PUBLIC 'CODE'
_TEXT	ENDS
;	COMDAT ??Eiterator@?$_Tree@V?$_Tmap_traits@EPAUtagTMAGIC@@U?$less@E@std@@V?$allocator@U?$pair@$$CBEPAUtagTMAGIC@@@std@@@3@$0A@@std@@@std@@QAE?AV012@H@Z
_TEXT	SEGMENT PARA USE32 PUBLIC 'CODE'
_TEXT	ENDS
;	COMDAT ??9const_iterator@?$_Tree@V?$_Tmap_traits@EPAUtagTMAGIC@@U?$less@E@std@@V?$allocator@U?$pair@$$CBEPAUtagTMAGIC@@@std@@@3@$0A@@std@@@std@@QBE_NABV012@@Z
_TEXT	SEGMENT PARA USE32 PUBLIC 'CODE'
_TEXT	ENDS
;	COMDAT ??_G?$CAtlExeModuleT@VCTMapSvrModule@@@ATL@@UAEPAXI@Z
_TEXT	SEGMENT PARA USE32 PUBLIC 'CODE'
_TEXT	ENDS
;	COMDAT ??1?$CAtlModuleT@VCTMapSvrModule@@@ATL@@UAE@XZ
_TEXT	SEGMENT PARA USE32 PUBLIC 'CODE'
_TEXT	ENDS
;	COMDAT ??0?$CStringT@DV?$StrTraitATL@DV?$ChTraitsCRT@D@ATL@@@ATL@@@ATL@@QAE@PAUIAtlStringMgr@1@@Z
_TEXT	SEGMENT PARA USE32 PUBLIC 'CODE'
_TEXT	ENDS
;	COMDAT ?Mid@?$CStringT@DV?$StrTraitATL@DV?$ChTraitsCRT@D@ATL@@@ATL@@@ATL@@QBE?AV12@HH@Z
_TEXT	SEGMENT PARA USE32 PUBLIC 'CODE'
_TEXT	ENDS
;	COMDAT ?FormatV@?$CStringT@DV?$StrTraitATL@DV?$ChTraitsCRT@D@ATL@@@ATL@@@ATL@@QAEXPBDPAD@Z
_TEXT	SEGMENT PARA USE32 PUBLIC 'CODE'
_TEXT	ENDS
;	COMDAT ??Y?$CSimpleStringT@D$0A@@ATL@@QAEAAV01@PBD@Z
_TEXT	SEGMENT PARA USE32 PUBLIC 'CODE'
_TEXT	ENDS
;	COMDAT ?GetManager@?$CSimpleStringT@D$0A@@ATL@@QBEPAUIAtlStringMgr@2@XZ
_TEXT	SEGMENT PARA USE32 PUBLIC 'CODE'
_TEXT	ENDS
;	COMDAT ?StringSpanIncluding@?$ChTraitsCRT@D@ATL@@SAHPBD0@Z
_TEXT	SEGMENT PARA USE32 PUBLIC 'CODE'
_TEXT	ENDS
;	COMDAT ?StringSpanExcluding@?$ChTraitsCRT@D@ATL@@SAHPBD0@Z
_TEXT	SEGMENT PARA USE32 PUBLIC 'CODE'
_TEXT	ENDS
;	COMDAT ?_Lmost@?$_Tree@V?$_Tmap_traits@EPAUtagTMAGIC@@U?$less@E@std@@V?$allocator@U?$pair@$$CBEPAUtagTMAGIC@@@std@@@3@$0A@@std@@@std@@IAEAAPAU_Node@?$_Tree_nod@V?$_Tmap_traits@EPAUtagTMAGIC@@U?$less@E@std@@V?$allocator@U?$pair@$$CBEPAUtagTMAGIC@@@std@@@3@$0A@@std@@@2@XZ
_TEXT	SEGMENT PARA USE32 PUBLIC 'CODE'
_TEXT	ENDS
;	COMDAT ?UninitializeCom@?$CAtlExeModuleT@VCTMapSvrModule@@@ATL@@SAXXZ
_TEXT	SEGMENT PARA USE32 PUBLIC 'CODE'
_TEXT	ENDS
;	COMDAT ??0iterator@?$_Tree@V?$_Tmap_traits@EPAUtagTMAGIC@@U?$less@E@std@@V?$allocator@U?$pair@$$CBEPAUtagTMAGIC@@@std@@@3@$0A@@std@@@std@@QAE@PAU_Node@?$_Tree_nod@V?$_Tmap_traits@EPAUtagTMAGIC@@U?$less@E@std@@V?$allocator@U?$pair@$$CBEPAUtagTMAGIC@@@std@@@3@$0A@@std@@@2@@Z
_TEXT	SEGMENT PARA USE32 PUBLIC 'CODE'
_TEXT	ENDS
;	COMDAT ??Eiterator@?$_Tree@V?$_Tmap_traits@EPAUtagTMAGIC@@U?$less@E@std@@V?$allocator@U?$pair@$$CBEPAUtagTMAGIC@@@std@@@3@$0A@@std@@@std@@QAEAAV012@XZ
_TEXT	SEGMENT PARA USE32 PUBLIC 'CODE'
_TEXT	ENDS
;	COMDAT ??0const_iterator@?$_Tree@V?$_Tmap_traits@EPAUtagTMAGIC@@U?$less@E@std@@V?$allocator@U?$pair@$$CBEPAUtagTMAGIC@@@std@@@3@$0A@@std@@@std@@QAE@XZ
_TEXT	SEGMENT PARA USE32 PUBLIC 'CODE'
_TEXT	ENDS
;	COMDAT ??Dconst_iterator@?$_Tree@V?$_Tmap_traits@EPAUtagTMAGIC@@U?$less@E@std@@V?$allocator@U?$pair@$$CBEPAUtagTMAGIC@@@std@@@3@$0A@@std@@@std@@QBEABU?$pair@$$CBEPAUtagTMAGIC@@@2@XZ
_TEXT	SEGMENT PARA USE32 PUBLIC 'CODE'
_TEXT	ENDS
;	COMDAT ??8const_iterator@?$_Tree@V?$_Tmap_traits@EPAUtagTMAGIC@@U?$less@E@std@@V?$allocator@U?$pair@$$CBEPAUtagTMAGIC@@@std@@@3@$0A@@std@@@std@@QBE_NABV012@@Z
_TEXT	SEGMENT PARA USE32 PUBLIC 'CODE'
_TEXT	ENDS
;	COMDAT ??0?$CStringT@DV?$StrTraitATL@DV?$ChTraitsCRT@D@ATL@@@ATL@@@ATL@@QAE@PBDHPAUIAtlStringMgr@1@@Z
_TEXT	SEGMENT PARA USE32 PUBLIC 'CODE'
_TEXT	ENDS
;	COMDAT ?Append@?$CSimpleStringT@D$0A@@ATL@@QAEXPBD@Z
_TEXT	SEGMENT PARA USE32 PUBLIC 'CODE'
_TEXT	ENDS
;	COMDAT ?_Left@?$_Tree@V?$_Tmap_traits@EPAUtagTMAGIC@@U?$less@E@std@@V?$allocator@U?$pair@$$CBEPAUtagTMAGIC@@@std@@@3@$0A@@std@@@std@@KAAAPAU_Node@?$_Tree_nod@V?$_Tmap_traits@EPAUtagTMAGIC@@U?$less@E@std@@V?$allocator@U?$pair@$$CBEPAUtagTMAGIC@@@std@@@3@$0A@@std@@@2@PAU342@@Z
_TEXT	SEGMENT PARA USE32 PUBLIC 'CODE'
_TEXT	ENDS
;	COMDAT ?_Myval@?$_Tree@V?$_Tmap_traits@EPAUtagTMAGIC@@U?$less@E@std@@V?$allocator@U?$pair@$$CBEPAUtagTMAGIC@@@std@@@3@$0A@@std@@@std@@KAAAU?$pair@$$CBEPAUtagTMAGIC@@@2@PAU_Node@?$_Tree_nod@V?$_Tmap_traits@EPAUtagTMAGIC@@U?$less@E@std@@V?$allocator@U?$pair@$$CBEPAUtagTMAGIC@@@std@@@3@$0A@@std@@@2@@Z
_TEXT	SEGMENT PARA USE32 PUBLIC 'CODE'
_TEXT	ENDS
;	COMDAT ??0const_iterator@?$_Tree@V?$_Tmap_traits@EPAUtagTMAGIC@@U?$less@E@std@@V?$allocator@U?$pair@$$CBEPAUtagTMAGIC@@@std@@@3@$0A@@std@@@std@@QAE@PAU_Node@?$_Tree_nod@V?$_Tmap_traits@EPAUtagTMAGIC@@U?$less@E@std@@V?$allocator@U?$pair@$$CBEPAUtagTMAGIC@@@std@@@3@$0A@@std@@@2@@Z
_TEXT	SEGMENT PARA USE32 PUBLIC 'CODE'
_TEXT	ENDS
;	COMDAT ??Econst_iterator@?$_Tree@V?$_Tmap_traits@EPAUtagTMAGIC@@U?$less@E@std@@V?$allocator@U?$pair@$$CBEPAUtagTMAGIC@@@std@@@3@$0A@@std@@@std@@QAEAAV012@XZ
_TEXT	SEGMENT PARA USE32 PUBLIC 'CODE'
_TEXT	ENDS
;	COMDAT ??0?$CSimpleStringT@D$0A@@ATL@@QAE@PBDHPAUIAtlStringMgr@1@@Z
_TEXT	SEGMENT PARA USE32 PUBLIC 'CODE'
_TEXT	ENDS
;	COMDAT ?Append@?$CSimpleStringT@D$0A@@ATL@@QAEXPBDH@Z
_TEXT	SEGMENT PARA USE32 PUBLIC 'CODE'
_TEXT	ENDS
;	COMDAT ?_Inc@const_iterator@?$_Tree@V?$_Tmap_traits@EPAUtagTMAGIC@@U?$less@E@std@@V?$allocator@U?$pair@$$CBEPAUtagTMAGIC@@@std@@@3@$0A@@std@@@std@@QAEXXZ
_TEXT	SEGMENT PARA USE32 PUBLIC 'CODE'
_TEXT	ENDS
;	COMDAT ?_Isnil@?$_Tree@V?$_Tmap_traits@EPAUtagTMAGIC@@U?$less@E@std@@V?$allocator@U?$pair@$$CBEPAUtagTMAGIC@@@std@@@3@$0A@@std@@@std@@KAAADPAU_Node@?$_Tree_nod@V?$_Tmap_traits@EPAUtagTMAGIC@@U?$less@E@std@@V?$allocator@U?$pair@$$CBEPAUtagTMAGIC@@@std@@@3@$0A@@std@@@2@@Z
_TEXT	SEGMENT PARA USE32 PUBLIC 'CODE'
_TEXT	ENDS
;	COMDAT ?_Parent@?$_Tree@V?$_Tmap_traits@EPAUtagTMAGIC@@U?$less@E@std@@V?$allocator@U?$pair@$$CBEPAUtagTMAGIC@@@std@@@3@$0A@@std@@@std@@KAAAPAU_Node@?$_Tree_nod@V?$_Tmap_traits@EPAUtagTMAGIC@@U?$less@E@std@@V?$allocator@U?$pair@$$CBEPAUtagTMAGIC@@@std@@@3@$0A@@std@@@2@PAU342@@Z
_TEXT	SEGMENT PARA USE32 PUBLIC 'CODE'
_TEXT	ENDS
;	COMDAT ?_Right@?$_Tree@V?$_Tmap_traits@EPAUtagTMAGIC@@U?$less@E@std@@V?$allocator@U?$pair@$$CBEPAUtagTMAGIC@@@std@@@3@$0A@@std@@@std@@KAAAPAU_Node@?$_Tree_nod@V?$_Tmap_traits@EPAUtagTMAGIC@@U?$less@E@std@@V?$allocator@U?$pair@$$CBEPAUtagTMAGIC@@@std@@@3@$0A@@std@@@2@PAU342@@Z
_TEXT	SEGMENT PARA USE32 PUBLIC 'CODE'
_TEXT	ENDS
;	COMDAT ?_Min@?$_Tree@V?$_Tmap_traits@EPAUtagTMAGIC@@U?$less@E@std@@V?$allocator@U?$pair@$$CBEPAUtagTMAGIC@@@std@@@3@$0A@@std@@@std@@KAPAU_Node@?$_Tree_nod@V?$_Tmap_traits@EPAUtagTMAGIC@@U?$less@E@std@@V?$allocator@U?$pair@$$CBEPAUtagTMAGIC@@@std@@@3@$0A@@std@@@2@PAU342@@Z
_TEXT	SEGMENT PARA USE32 PUBLIC 'CODE'
_TEXT	ENDS
;	COMDAT ?Unlock@?$CComCritSecLock@VCComCriticalSection@ATL@@@ATL@@QAEXXZ
_TEXT	SEGMENT PARA USE32 PUBLIC 'CODE'
_TEXT	ENDS
;	COMDAT ??$_Uninit_fill_n@GIG@std@@YAXPAGIABGAAV?$allocator@G@0@U_Scalar_ptr_iterator_tag@0@@Z
_TEXT	SEGMENT PARA USE32 PUBLIC 'CODE'
_TEXT	ENDS
;	COMDAT ??$_Ptr_cat@UtagTAICONDITION@@@std@@YA?AU_Scalar_ptr_iterator_tag@0@PAPAUtagTAICONDITION@@0@Z
_TEXT	SEGMENT PARA USE32 PUBLIC 'CODE'
_TEXT	ENDS
;	COMDAT ??$_Destroy_range@PAUtagTAICONDITION@@V?$allocator@PAUtagTAICONDITION@@@std@@@std@@YAXPAPAUtagTAICONDITION@@0AAV?$allocator@PAUtagTAICONDITION@@@0@U_Scalar_ptr_iterator_tag@0@@Z
_TEXT	SEGMENT PARA USE32 PUBLIC 'CODE'
_TEXT	ENDS
;	COMDAT ??$_Ptr_cat@UtagTMONITEM@@@std@@YA?AU_Scalar_ptr_iterator_tag@0@PAPAUtagTMONITEM@@0@Z
_TEXT	SEGMENT PARA USE32 PUBLIC 'CODE'
_TEXT	ENDS
;	COMDAT ??$_Destroy_range@PAUtagTMONITEM@@V?$allocator@PAUtagTMONITEM@@@std@@@std@@YAXPAPAUtagTMONITEM@@0AAV?$allocator@PAUtagTMONITEM@@@0@U_Scalar_ptr_iterator_tag@0@@Z
_TEXT	SEGMENT PARA USE32 PUBLIC 'CODE'
_TEXT	ENDS
;	COMDAT ??$_Ptr_cat@UtagTMAPMON@@@std@@YA?AU_Scalar_ptr_iterator_tag@0@PAPAUtagTMAPMON@@0@Z
_TEXT	SEGMENT PARA USE32 PUBLIC 'CODE'
_TEXT	ENDS
;	COMDAT ??$_Destroy_range@PAUtagTMAPMON@@V?$allocator@PAUtagTMAPMON@@@std@@@std@@YAXPAPAUtagTMAPMON@@0AAV?$allocator@PAUtagTMAPMON@@@0@U_Scalar_ptr_iterator_tag@0@@Z
_TEXT	SEGMENT PARA USE32 PUBLIC 'CODE'
_TEXT	ENDS
;	COMDAT ??$_Ptr_cat@UtagPATHPOINT@@@std@@YA?AU_Scalar_ptr_iterator_tag@0@PAPAUtagPATHPOINT@@0@Z
_TEXT	SEGMENT PARA USE32 PUBLIC 'CODE'
_TEXT	ENDS
;	COMDAT ??$_Destroy_range@PAUtagPATHPOINT@@V?$allocator@PAUtagPATHPOINT@@@std@@@std@@YAXPAPAUtagPATHPOINT@@0AAV?$allocator@PAUtagPATHPOINT@@@0@U_Scalar_ptr_iterator_tag@0@@Z
_TEXT	SEGMENT PARA USE32 PUBLIC 'CODE'
_TEXT	ENDS
;	COMDAT ??$_Ptr_cat@UtagQUESTCONDITION@@@std@@YA?AU_Scalar_ptr_iterator_tag@0@PAPAUtagQUESTCONDITION@@0@Z
_TEXT	SEGMENT PARA USE32 PUBLIC 'CODE'
_TEXT	ENDS
;	COMDAT ??$_Destroy_range@PAUtagQUESTCONDITION@@V?$allocator@PAUtagQUESTCONDITION@@@std@@@std@@YAXPAPAUtagQUESTCONDITION@@0AAV?$allocator@PAUtagQUESTCONDITION@@@0@U_Scalar_ptr_iterator_tag@0@@Z
_TEXT	SEGMENT PARA USE32 PUBLIC 'CODE'
_TEXT	ENDS
;	COMDAT ??$_Ptr_cat@UtagQUESTREWARD@@@std@@YA?AU_Scalar_ptr_iterator_tag@0@PAPAUtagQUESTREWARD@@0@Z
_TEXT	SEGMENT PARA USE32 PUBLIC 'CODE'
_TEXT	ENDS
;	COMDAT ??$_Destroy_range@PAUtagQUESTREWARD@@V?$allocator@PAUtagQUESTREWARD@@@std@@@std@@YAXPAPAUtagQUESTREWARD@@0AAV?$allocator@PAUtagQUESTREWARD@@@0@U_Scalar_ptr_iterator_tag@0@@Z
_TEXT	SEGMENT PARA USE32 PUBLIC 'CODE'
_TEXT	ENDS
;	COMDAT ??$_Ptr_cat@UtagQUESTTERM@@@std@@YA?AU_Scalar_ptr_iterator_tag@0@PAPAUtagQUESTTERM@@0@Z
_TEXT	SEGMENT PARA USE32 PUBLIC 'CODE'
_TEXT	ENDS
;	COMDAT ??$_Destroy_range@PAUtagQUESTTERM@@V?$allocator@PAUtagQUESTTERM@@@std@@@std@@YAXPAPAUtagQUESTTERM@@0AAV?$allocator@PAUtagQUESTTERM@@@0@U_Scalar_ptr_iterator_tag@0@@Z
_TEXT	SEGMENT PARA USE32 PUBLIC 'CODE'
_TEXT	ENDS
;	COMDAT ??$_Ptr_cat@PAUtagTCASHITMSALE@@PAU1@@std@@YA?AU_Nonscalar_ptr_iterator_tag@0@AAPAUtagTCASHITMSALE@@0@Z
_TEXT	SEGMENT PARA USE32 PUBLIC 'CODE'
_TEXT	ENDS
;	COMDAT ??$_Uninit_fill_n@PAUtagTCASHITMSALE@@IU1@V?$allocator@UtagTCASHITMSALE@@@std@@@std@@YAXPAUtagTCASHITMSALE@@IABU1@AAV?$allocator@UtagTCASHITMSALE@@@0@U_Nonscalar_ptr_iterator_tag@0@@Z
_TEXT	SEGMENT PARA USE32 PUBLIC 'CODE'
_TEXT	ENDS
;	COMDAT ??$_Ptr_cat@PAUtagMONREGEN@@PAU1@@std@@YA?AU_Nonscalar_ptr_iterator_tag@0@AAPAUtagMONREGEN@@0@Z
_TEXT	SEGMENT PARA USE32 PUBLIC 'CODE'
_TEXT	ENDS
;	COMDAT ??$_Uninit_fill_n@PAUtagMONREGEN@@IU1@V?$allocator@UtagMONREGEN@@@std@@@std@@YAXPAUtagMONREGEN@@IABU1@AAV?$allocator@UtagMONREGEN@@@0@U_Nonscalar_ptr_iterator_tag@0@@Z
_TEXT	SEGMENT PARA USE32 PUBLIC 'CODE'
_TEXT	ENDS
;	COMDAT ??$_Ptr_cat@PAUtagLOTTERY@@PAU1@@std@@YA?AU_Nonscalar_ptr_iterator_tag@0@AAPAUtagLOTTERY@@0@Z
_TEXT	SEGMENT PARA USE32 PUBLIC 'CODE'
_TEXT	ENDS
;	COMDAT ??$_Uninit_fill_n@PAUtagLOTTERY@@IU1@V?$allocator@UtagLOTTERY@@@std@@@std@@YAXPAUtagLOTTERY@@IABU1@AAV?$allocator@UtagLOTTERY@@@0@U_Nonscalar_ptr_iterator_tag@0@@Z
_TEXT	SEGMENT PARA USE32 PUBLIC 'CODE'
_TEXT	ENDS
;	COMDAT ??$_Destroy_range@GV?$allocator@G@std@@@std@@YAXPAG0AAV?$allocator@G@0@U_Scalar_ptr_iterator_tag@0@@Z
_TEXT	SEGMENT PARA USE32 PUBLIC 'CODE'
_TEXT	ENDS
;	COMDAT ??$_Uninitialized_copy@PAGPAGV?$allocator@G@std@@@std@@YAPAGPAG00AAV?$allocator@G@0@@Z
_TEXT	SEGMENT PARA USE32 PUBLIC 'CODE'
_TEXT	ENDS
;	COMDAT ??$_Copy_backward_opt@PAGPAG@std@@YAPAGPAG00U_Scalar_ptr_iterator_tag@0@@Z
_TEXT	SEGMENT PARA USE32 PUBLIC 'CODE'
_TEXT	ENDS
;	COMDAT ??$_Ptr_cat@VCTPlayer@@@std@@YA?AU_Scalar_ptr_iterator_tag@0@PAPAVCTPlayer@@0@Z
_TEXT	SEGMENT PARA USE32 PUBLIC 'CODE'
_TEXT	ENDS
;	COMDAT ??$_Destroy_range@PAVCTPlayer@@V?$allocator@PAVCTPlayer@@@std@@@std@@YAXPAPAVCTPlayer@@0AAV?$allocator@PAVCTPlayer@@@0@U_Scalar_ptr_iterator_tag@0@@Z
_TEXT	SEGMENT PARA USE32 PUBLIC 'CODE'
_TEXT	ENDS
;	COMDAT ??$_Destroy_range@UtagTCASHITMSALE@@V?$allocator@UtagTCASHITMSALE@@@std@@@std@@YAXPAUtagTCASHITMSALE@@0AAV?$allocator@UtagTCASHITMSALE@@@0@U_Nonscalar_ptr_iterator_tag@0@@Z
_TEXT	SEGMENT PARA USE32 PUBLIC 'CODE'
_TEXT	ENDS
;	COMDAT ??$_Uninitialized_copy@PAUtagTCASHITMSALE@@PAU1@V?$allocator@UtagTCASHITMSALE@@@std@@@std@@YAPAUtagTCASHITMSALE@@PAU1@00AAV?$allocator@UtagTCASHITMSALE@@@0@@Z
_TEXT	SEGMENT PARA USE32 PUBLIC 'CODE'
_TEXT	ENDS
;	COMDAT ??$_Copy_backward_opt@PAUtagTCASHITMSALE@@PAU1@@std@@YAPAUtagTCASHITMSALE@@PAU1@00U_Nonscalar_ptr_iterator_tag@0@@Z
_TEXT	SEGMENT PARA USE32 PUBLIC 'CODE'
_TEXT	ENDS
;	COMDAT ??$_Destroy_range@UtagMONREGEN@@V?$allocator@UtagMONREGEN@@@std@@@std@@YAXPAUtagMONREGEN@@0AAV?$allocator@UtagMONREGEN@@@0@U_Nonscalar_ptr_iterator_tag@0@@Z
_TEXT	SEGMENT PARA USE32 PUBLIC 'CODE'
_TEXT	ENDS
;	COMDAT ??$_Uninitialized_copy@PAUtagMONREGEN@@PAU1@V?$allocator@UtagMONREGEN@@@std@@@std@@YAPAUtagMONREGEN@@PAU1@00AAV?$allocator@UtagMONREGEN@@@0@@Z
_TEXT	SEGMENT PARA USE32 PUBLIC 'CODE'
_TEXT	ENDS
;	COMDAT ??$_Copy_backward_opt@PAUtagMONREGEN@@PAU1@@std@@YAPAUtagMONREGEN@@PAU1@00U_Nonscalar_ptr_iterator_tag@0@@Z
_TEXT	SEGMENT PARA USE32 PUBLIC 'CODE'
_TEXT	ENDS
;	COMDAT ??$_Destroy_range@UtagLOTTERY@@V?$allocator@UtagLOTTERY@@@std@@@std@@YAXPAUtagLOTTERY@@0AAV?$allocator@UtagLOTTERY@@@0@U_Nonscalar_ptr_iterator_tag@0@@Z
_TEXT	SEGMENT PARA USE32 PUBLIC 'CODE'
_TEXT	ENDS
;	COMDAT ??$_Uninitialized_copy@PAUtagLOTTERY@@PAU1@V?$allocator@UtagLOTTERY@@@std@@@std@@YAPAUtagLOTTERY@@PAU1@00AAV?$allocator@UtagLOTTERY@@@0@@Z
_TEXT	SEGMENT PARA USE32 PUBLIC 'CODE'
_TEXT	ENDS
;	COMDAT ??$_Copy_backward_opt@PAUtagLOTTERY@@PAU1@@std@@YAPAUtagLOTTERY@@PAU1@00U_Nonscalar_ptr_iterator_tag@0@@Z
_TEXT	SEGMENT PARA USE32 PUBLIC 'CODE'
_TEXT	ENDS
;	COMDAT ?construct@?$allocator@UtagTCASHITMSALE@@@std@@QAEXPAUtagTCASHITMSALE@@ABU3@@Z
_TEXT	SEGMENT PARA USE32 PUBLIC 'CODE'
_TEXT	ENDS
;	COMDAT ?destroy@?$allocator@UtagTCASHITMSALE@@@std@@QAEXPAUtagTCASHITMSALE@@@Z
_TEXT	SEGMENT PARA USE32 PUBLIC 'CODE'
_TEXT	ENDS
;	COMDAT ?construct@?$allocator@UtagMONREGEN@@@std@@QAEXPAUtagMONREGEN@@ABU3@@Z
_TEXT	SEGMENT PARA USE32 PUBLIC 'CODE'
_TEXT	ENDS
;	COMDAT ?destroy@?$allocator@UtagMONREGEN@@@std@@QAEXPAUtagMONREGEN@@@Z
_TEXT	SEGMENT PARA USE32 PUBLIC 'CODE'
_TEXT	ENDS
;	COMDAT ?construct@?$allocator@UtagLOTTERY@@@std@@QAEXPAUtagLOTTERY@@ABU3@@Z
_TEXT	SEGMENT PARA USE32 PUBLIC 'CODE'
_TEXT	ENDS
;	COMDAT ?destroy@?$allocator@UtagLOTTERY@@@std@@QAEXPAUtagLOTTERY@@@Z
_TEXT	SEGMENT PARA USE32 PUBLIC 'CODE'
_TEXT	ENDS
;	COMDAT ??$fill_n@PAGIG@std@@YAXPAGIABG@Z
_TEXT	SEGMENT PARA USE32 PUBLIC 'CODE'
_TEXT	ENDS
;	COMDAT ??$_Uninit_copy@GG@std@@YAPAGPAG00AAV?$allocator@G@0@U_Scalar_ptr_iterator_tag@0@@Z
_TEXT	SEGMENT PARA USE32 PUBLIC 'CODE'
_TEXT	ENDS
;	COMDAT ??$_Uninit_copy@PAUtagTCASHITMSALE@@PAU1@V?$allocator@UtagTCASHITMSALE@@@std@@@std@@YAPAUtagTCASHITMSALE@@PAU1@00AAV?$allocator@UtagTCASHITMSALE@@@0@U_Nonscalar_ptr_iterator_tag@0@@Z
_TEXT	SEGMENT PARA USE32 PUBLIC 'CODE'
_TEXT	ENDS
;	COMDAT ??$_Uninit_copy@PAUtagMONREGEN@@PAU1@V?$allocator@UtagMONREGEN@@@std@@@std@@YAPAUtagMONREGEN@@PAU1@00AAV?$allocator@UtagMONREGEN@@@0@U_Nonscalar_ptr_iterator_tag@0@@Z
_TEXT	SEGMENT PARA USE32 PUBLIC 'CODE'
_TEXT	ENDS
;	COMDAT ??$_Uninit_copy@PAUtagLOTTERY@@PAU1@V?$allocator@UtagLOTTERY@@@std@@@std@@YAPAUtagLOTTERY@@PAU1@00AAV?$allocator@UtagLOTTERY@@@0@U_Nonscalar_ptr_iterator_tag@0@@Z
_TEXT	SEGMENT PARA USE32 PUBLIC 'CODE'
_TEXT	ENDS
;	COMDAT ??$_Construct@UtagTCASHITMSALE@@U1@@std@@YAXPAUtagTCASHITMSALE@@ABU1@@Z
_TEXT	SEGMENT PARA USE32 PUBLIC 'CODE'
_TEXT	ENDS
;	COMDAT ??$_Destroy@UtagTCASHITMSALE@@@std@@YAXPAUtagTCASHITMSALE@@@Z
_TEXT	SEGMENT PARA USE32 PUBLIC 'CODE'
_TEXT	ENDS
;	COMDAT ??$_Construct@UtagMONREGEN@@U1@@std@@YAXPAUtagMONREGEN@@ABU1@@Z
_TEXT	SEGMENT PARA USE32 PUBLIC 'CODE'
_TEXT	ENDS
;	COMDAT ??$_Destroy@UtagMONREGEN@@@std@@YAXPAUtagMONREGEN@@@Z
_TEXT	SEGMENT PARA USE32 PUBLIC 'CODE'
_TEXT	ENDS
;	COMDAT ??$_Construct@UtagLOTTERY@@U1@@std@@YAXPAUtagLOTTERY@@ABU1@@Z
_TEXT	SEGMENT PARA USE32 PUBLIC 'CODE'
_TEXT	ENDS
;	COMDAT ??$_Destroy@UtagLOTTERY@@@std@@YAXPAUtagLOTTERY@@@Z
_TEXT	SEGMENT PARA USE32 PUBLIC 'CODE'
_TEXT	ENDS
;	COMDAT ?GetGITPtr@CAtlModule@ATL@@UAEJPAPAUIGlobalInterfaceTable@@@Z
_TEXT	SEGMENT PARA USE32 PUBLIC 'CODE'
_TEXT	ENDS
;	COMDAT __GUID_00000146_0000_0000_c000_000000000046
CONST	SEGMENT DWORD USE32 PUBLIC 'CONST'
CONST	ENDS
;	COMDAT _CLSID_StdGlobalInterfaceTable
CONST	SEGMENT DWORD USE32 PUBLIC 'CONST'
CONST	ENDS
;	COMDAT ?GetLockCount@CAtlModule@ATL@@UAEJXZ
_TEXT	SEGMENT PARA USE32 PUBLIC 'CODE'
_TEXT	ENDS
;	COMDAT ?Lock@CAtlModule@ATL@@UAEJXZ
_TEXT	SEGMENT PARA USE32 PUBLIC 'CODE'
_TEXT	ENDS
;	COMDAT ?Increment@CComMultiThreadModel@ATL@@SGKPAJ@Z
_TEXT	SEGMENT PARA USE32 PUBLIC 'CODE'
_TEXT	ENDS
;	COMDAT ??2@YAPAXIPAX@Z
_TEXT	SEGMENT PARA USE32 PUBLIC 'CODE'
_TEXT	ENDS
;	COMDAT ?_Ptr_cat@std@@YA?AU_Scalar_ptr_iterator_tag@1@PAG0@Z
_TEXT	SEGMENT PARA USE32 PUBLIC 'CODE'
_TEXT	ENDS
;	COMDAT ?_Psave@?$_Facetptr@V?$ctype@G@std@@@std@@2PBVfacet@locale@2@B
_DATA	SEGMENT DWORD USE32 PUBLIC 'DATA'
_DATA	ENDS
;	COMDAT ?_Psave@?$_Facetptr@V?$ctype@D@std@@@std@@2PBVfacet@locale@2@B
_DATA	SEGMENT DWORD USE32 PUBLIC 'DATA'
_DATA	ENDS
;	COMDAT ?Unlock@CComCriticalSection@ATL@@QAEJXZ
_TEXT	SEGMENT PARA USE32 PUBLIC 'CODE'
_TEXT	ENDS
;	COMDAT ?CopyChars@?$CSimpleStringT@D$0A@@ATL@@SAXPADPBDH@Z
_TEXT	SEGMENT PARA USE32 PUBLIC 'CODE'
_TEXT	ENDS
;	COMDAT ?SetLength@?$CSimpleStringT@D$0A@@ATL@@AAEXH@Z
_TEXT	SEGMENT PARA USE32 PUBLIC 'CODE'
_TEXT	ENDS
;	COMDAT ?Attach@?$CSimpleStringT@D$0A@@ATL@@AAEXPAUCStringData@2@@Z
_TEXT	SEGMENT PARA USE32 PUBLIC 'CODE'
_TEXT	ENDS
;	COMDAT ?data@CStringData@ATL@@QAEPAXXZ
_TEXT	SEGMENT PARA USE32 PUBLIC 'CODE'
_TEXT	ENDS
;	COMDAT ?ThrowMemoryException@?$CSimpleStringT@D$0A@@ATL@@KAXXZ
_TEXT	SEGMENT PARA USE32 PUBLIC 'CODE'
_TEXT	ENDS
;	COMDAT ?StringLength@?$CSimpleStringT@D$0A@@ATL@@SAHPBD@Z
_TEXT	SEGMENT PARA USE32 PUBLIC 'CODE'
_TEXT	ENDS
;	COMDAT ?GetData@?$CSimpleStringT@D$0A@@ATL@@ABEPAUCStringData@2@XZ
_TEXT	SEGMENT PARA USE32 PUBLIC 'CODE'
_TEXT	ENDS
;	COMDAT ?ReleaseBufferSetLength@?$CSimpleStringT@D$0A@@ATL@@QAEXH@Z
_TEXT	SEGMENT PARA USE32 PUBLIC 'CODE'
_TEXT	ENDS
;	COMDAT ?Format@?$ChTraitsCRT@D@ATL@@SAHPADPBD0@Z
_TEXT	SEGMENT PARA USE32 PUBLIC 'CODE'
_TEXT	ENDS
;	COMDAT ?GetBuffer@?$CSimpleStringT@D$0A@@ATL@@QAEPADH@Z
_TEXT	SEGMENT PARA USE32 PUBLIC 'CODE'
_TEXT	ENDS
;	COMDAT ?PrepareWrite@?$CSimpleStringT@D$0A@@ATL@@AAEPADH@Z
_TEXT	SEGMENT PARA USE32 PUBLIC 'CODE'
_TEXT	ENDS
;	COMDAT ?PrepareWrite2@?$CSimpleStringT@D$0A@@ATL@@AAEXH@Z
_TEXT	SEGMENT PARA USE32 PUBLIC 'CODE'
_TEXT	ENDS
;	COMDAT ?IsShared@CStringData@ATL@@QBE_NXZ
_TEXT	SEGMENT PARA USE32 PUBLIC 'CODE'
_TEXT	ENDS
;	COMDAT ?Fork@?$CSimpleStringT@D$0A@@ATL@@AAEXH@Z
_TEXT	SEGMENT PARA USE32 PUBLIC 'CODE'
_TEXT	ENDS
;	COMDAT ?Release@CStringData@ATL@@QAEXXZ
_TEXT	SEGMENT PARA USE32 PUBLIC 'CODE'
_TEXT	ENDS
;	COMDAT ?Reallocate@?$CSimpleStringT@D$0A@@ATL@@AAEXH@Z
_TEXT	SEGMENT PARA USE32 PUBLIC 'CODE'
_TEXT	ENDS
;	COMDAT ?GetFormattedLength@?$ChTraitsCRT@D@ATL@@SAHPBDPAD@Z
_TEXT	SEGMENT PARA USE32 PUBLIC 'CODE'
_TEXT	ENDS
;	COMDAT ??1?$CSimpleStringT@D$0A@@ATL@@QAE@XZ
_TEXT	SEGMENT PARA USE32 PUBLIC 'CODE'
_TEXT	ENDS
;	COMDAT ??0?$CSimpleStringT@D$0A@@ATL@@QAE@PAUIAtlStringMgr@1@@Z
_TEXT	SEGMENT PARA USE32 PUBLIC 'CODE'
_TEXT	ENDS
;	COMDAT ??1CAtlModule@ATL@@UAE@XZ
_TEXT	SEGMENT PARA USE32 PUBLIC 'CODE'
_TEXT	ENDS
;	COMDAT ?_pPerfUnRegFunc@ATL@@3P6AJXZA
_DATA	SEGMENT DWORD USE32 PUBLIC 'DATA'
_DATA	ENDS
;	COMDAT ?_pPerfRegFunc@ATL@@3P6AJPAUHINSTANCE__@@@ZA
_DATA	SEGMENT DWORD USE32 PUBLIC 'DATA'
_DATA	ENDS
;	COMDAT ?Decrement@CComMultiThreadModel@ATL@@SGKPAJ@Z
_TEXT	SEGMENT PARA USE32 PUBLIC 'CODE'
_TEXT	ENDS
;	COMDAT ?Term@CAtlModule@ATL@@QAEXXZ
_TEXT	SEGMENT PARA USE32 PUBLIC 'CODE'
_TEXT	ENDS
;	COMDAT ?AtlCallTermFunc@ATL@@YGXPAU_ATL_MODULE70@1@@Z
_TEXT	SEGMENT PARA USE32 PUBLIC 'CODE'
_TEXT	ENDS
;	COMDAT ?_AtlRaiseException@ATL@@YAXKK@Z
_TEXT	SEGMENT PARA USE32 PUBLIC 'CODE'
_TEXT	ENDS
;	COMDAT ?Term@CComCriticalSection@ATL@@QAEJXZ
_TEXT	SEGMENT PARA USE32 PUBLIC 'CODE'
_TEXT	ENDS
;	COMDAT ?Unlock@CAtlModule@ATL@@UAEJXZ
_TEXT	SEGMENT PARA USE32 PUBLIC 'CODE'
_TEXT	ENDS
;	COMDAT ?GetString@?$CSimpleStringT@D$0A@@ATL@@QBEPBDXZ
_TEXT	SEGMENT PARA USE32 PUBLIC 'CODE'
_TEXT	ENDS
;	COMDAT ??0?$CStringT@DV?$StrTraitATL@DV?$ChTraitsCRT@D@ATL@@@ATL@@@ATL@@QAE@ABV01@@Z
_TEXT	SEGMENT PARA USE32 PUBLIC 'CODE'
_TEXT	ENDS
;	COMDAT ??0?$CSimpleStringT@D$0A@@ATL@@QAE@ABV01@@Z
_TEXT	SEGMENT PARA USE32 PUBLIC 'CODE'
_TEXT	ENDS
;	COMDAT ?CloneData@?$CSimpleStringT@D$0A@@ATL@@CAPAUCStringData@2@PAU32@@Z
_TEXT	SEGMENT PARA USE32 PUBLIC 'CODE'
_TEXT	ENDS
;	COMDAT ?IsLocked@CStringData@ATL@@QBE_NXZ
_TEXT	SEGMENT PARA USE32 PUBLIC 'CODE'
_TEXT	ENDS
;	COMDAT ?AddRef@CStringData@ATL@@QAEXXZ
_TEXT	SEGMENT PARA USE32 PUBLIC 'CODE'
_TEXT	ENDS
;	COMDAT ?AtlThrow@ATL@@YGXJ@Z
_TEXT	SEGMENT PARA USE32 PUBLIC 'CODE'
_TEXT	ENDS
;	COMDAT ??0CAtlException@ATL@@QAE@J@Z
_TEXT	SEGMENT PARA USE32 PUBLIC 'CODE'
_TEXT	ENDS
;	COMDAT __TI1?AVCAtlException@ATL@@
xdata$x	SEGMENT DWORD USE32 PUBLIC 'CONST'
xdata$x	ENDS
;	COMDAT __CTA1?AVCAtlException@ATL@@
xdata$x	SEGMENT DWORD USE32 PUBLIC 'CONST'
xdata$x	ENDS
;	COMDAT __CT??_R0?AVCAtlException@ATL@@@84
xdata$x	SEGMENT DWORD USE32 PUBLIC 'CONST'
xdata$x	ENDS
;	COMDAT ??_R0?AVCAtlException@ATL@@@8
_DATA	SEGMENT DWORD USE32 PUBLIC 'DATA'
_DATA	ENDS
;	COMDAT ?__TIMETODB@@YAX_JAAUtagTIMESTAMP_STRUCT@@@Z
_TEXT	SEGMENT PARA USE32 PUBLIC 'CODE'
_TEXT	ENDS
;	COMDAT ??0CTime@ATL@@QAE@_J@Z
_TEXT	SEGMENT PARA USE32 PUBLIC 'CODE'
_TEXT	ENDS
;	COMDAT ?GetYear@CTime@ATL@@QBEHXZ
_TEXT	SEGMENT PARA USE32 PUBLIC 'CODE'
_TEXT	ENDS
;	COMDAT ?GetLocalTm@CTime@ATL@@QBEPAUtm@@PAU3@@Z
_TEXT	SEGMENT PARA USE32 PUBLIC 'CODE'
_TEXT	ENDS
;	COMDAT ?GetMonth@CTime@ATL@@QBEHXZ
_TEXT	SEGMENT PARA USE32 PUBLIC 'CODE'
_TEXT	ENDS
;	COMDAT ?GetDay@CTime@ATL@@QBEHXZ
_TEXT	SEGMENT PARA USE32 PUBLIC 'CODE'
_TEXT	ENDS
;	COMDAT ?GetHour@CTime@ATL@@QBEHXZ
_TEXT	SEGMENT PARA USE32 PUBLIC 'CODE'
_TEXT	ENDS
;	COMDAT ?GetMinute@CTime@ATL@@QBEHXZ
_TEXT	SEGMENT PARA USE32 PUBLIC 'CODE'
_TEXT	ENDS
;	COMDAT ?GetSecond@CTime@ATL@@QBEHXZ
_TEXT	SEGMENT PARA USE32 PUBLIC 'CODE'
_TEXT	ENDS
;	COMDAT ?GetLength@?$CSimpleStringT@D$0A@@ATL@@QBEHXZ
_TEXT	SEGMENT PARA USE32 PUBLIC 'CODE'
_TEXT	ENDS
;	COMDAT ?GetTickCount@CTime@ATL@@SG?AV12@XZ
_TEXT	SEGMENT PARA USE32 PUBLIC 'CODE'
_TEXT	ENDS
;	COMDAT ?CLOSESOCKET@CUdpSocket@@AAEXAAI@Z
_TEXT	SEGMENT PARA USE32 PUBLIC 'CODE'
_TEXT	ENDS
;	COMDAT ?AtlLoadString@ATL@@YAHIPADH@Z
_TEXT	SEGMENT PARA USE32 PUBLIC 'CODE'
_TEXT	ENDS
;	COMDAT ??0?$CStringT@DV?$StrTraitATL@DV?$ChTraitsCRT@D@ATL@@@ATL@@@ATL@@QAE@XZ
_TEXT	SEGMENT PARA USE32 PUBLIC 'CODE'
_TEXT	ENDS
;	COMDAT ?GetDefaultManager@?$StrTraitATL@DV?$ChTraitsCRT@D@ATL@@@ATL@@SAPAUIAtlStringMgr@2@XZ
_TEXT	SEGMENT PARA USE32 PUBLIC 'CODE'
_TEXT	ENDS
;	COMDAT ??B?$CSimpleStringT@D$0A@@ATL@@QBEPBDXZ
_TEXT	SEGMENT PARA USE32 PUBLIC 'CODE'
_TEXT	ENDS
;	COMDAT ??4?$CStringT@DV?$StrTraitATL@DV?$ChTraitsCRT@D@ATL@@@ATL@@@ATL@@QAEAAV01@ABV01@@Z
_TEXT	SEGMENT PARA USE32 PUBLIC 'CODE'
_TEXT	ENDS
;	COMDAT ??4?$CSimpleStringT@D$0A@@ATL@@QAEAAV01@ABV01@@Z
_TEXT	SEGMENT PARA USE32 PUBLIC 'CODE'
_TEXT	ENDS
;	COMDAT ?SetString@?$CSimpleStringT@D$0A@@ATL@@QAEXPBDH@Z
_TEXT	SEGMENT PARA USE32 PUBLIC 'CODE'
_TEXT	ENDS
;	COMDAT ?Empty@?$CSimpleStringT@D$0A@@ATL@@QAEXXZ
_TEXT	SEGMENT PARA USE32 PUBLIC 'CODE'
_TEXT	ENDS
;	COMDAT ?CopyCharsOverlapped@?$CSimpleStringT@D$0A@@ATL@@SAXPADPBDH@Z
_TEXT	SEGMENT PARA USE32 PUBLIC 'CODE'
_TEXT	ENDS
;	COMDAT ??1?$CStringT@DV?$StrTraitATL@DV?$ChTraitsCRT@D@ATL@@@ATL@@@ATL@@QAE@XZ
_TEXT	SEGMENT PARA USE32 PUBLIC 'CODE'
_TEXT	ENDS
;	COMDAT ??0?$CStringT@DV?$StrTraitATL@DV?$ChTraitsCRT@D@ATL@@@ATL@@@ATL@@QAE@PBD@Z
_TEXT	SEGMENT PARA USE32 PUBLIC 'CODE'
_TEXT	ENDS
;	COMDAT ?CheckImplicitLoad@?$CStringT@DV?$StrTraitATL@DV?$ChTraitsCRT@D@ATL@@@ATL@@@ATL@@AAE_NPBX@Z
_TEXT	SEGMENT PARA USE32 PUBLIC 'CODE'
_TEXT	ENDS
;	COMDAT ?LoadStringA@?$CStringT@DV?$StrTraitATL@DV?$ChTraitsCRT@D@ATL@@@ATL@@@ATL@@QAEHI@Z
_TEXT	SEGMENT PARA USE32 PUBLIC 'CODE'
_TEXT	ENDS
;	COMDAT ?FindStringResourceInstance@?$StrTraitATL@DV?$ChTraitsCRT@D@ATL@@@ATL@@SAPAUHINSTANCE__@@I@Z
_TEXT	SEGMENT PARA USE32 PUBLIC 'CODE'
_TEXT	ENDS
;	COMDAT ?AtlFindStringResourceInstance@ATL@@YAPAUHINSTANCE__@@IG@Z
_TEXT	SEGMENT PARA USE32 PUBLIC 'CODE'
_TEXT	ENDS
;	COMDAT ?AtlGetStringResourceImage@ATL@@YAPBUATLSTRINGRESOURCEIMAGE@1@PAUHINSTANCE__@@IG@Z
_TEXT	SEGMENT PARA USE32 PUBLIC 'CODE'
_TEXT	ENDS
;	COMDAT ?_AtlGetStringResourceImage@ATL@@YAPBUATLSTRINGRESOURCEIMAGE@1@PAUHINSTANCE__@@PAUHRSRC__@@I@Z
_TEXT	SEGMENT PARA USE32 PUBLIC 'CODE'
_TEXT	ENDS
;	COMDAT ?LoadStringA@?$CStringT@DV?$StrTraitATL@DV?$ChTraitsCRT@D@ATL@@@ATL@@@ATL@@QAEHPAUHINSTANCE__@@I@Z
_TEXT	SEGMENT PARA USE32 PUBLIC 'CODE'
_TEXT	ENDS
;	COMDAT ?AtlGetStringResourceImage@ATL@@YAPBUATLSTRINGRESOURCEIMAGE@1@PAUHINSTANCE__@@I@Z
_TEXT	SEGMENT PARA USE32 PUBLIC 'CODE'
_TEXT	ENDS
;	COMDAT ?GetBaseTypeLength@?$ChTraitsCRT@D@ATL@@SAHPBGH@Z
_TEXT	SEGMENT PARA USE32 PUBLIC 'CODE'
_TEXT	ENDS
;	COMDAT ?_AtlGetConversionACP@ATL@@YGIXZ
_TEXT	SEGMENT PARA USE32 PUBLIC 'CODE'
_TEXT	ENDS
;	COMDAT ?g_pfnGetThreadACP@ATL@@3P6GIXZA
_DATA	SEGMENT DWORD USE32 PUBLIC 'DATA'
_DATA	ENDS
;	COMDAT ?_AtlGetThreadACPThunk@ATL@@YGIXZ
_TEXT	SEGMENT PARA USE32 PUBLIC 'CODE'
_TEXT	ENDS
;	COMDAT ?_AtlGetThreadACPReal@ATL@@YGIXZ
_TEXT	SEGMENT PARA USE32 PUBLIC 'CODE'
_TEXT	ENDS
;	COMDAT ?_AtlGetThreadACPFake@ATL@@YGIXZ
_TEXT	SEGMENT PARA USE32 PUBLIC 'CODE'
_TEXT	ENDS
;	COMDAT ?InterlockedExchangePointer@@YGPAXPAPAXPAX@Z
_TEXT	SEGMENT PARA USE32 PUBLIC 'CODE'
_TEXT	ENDS
;	COMDAT ?ConvertToBaseType@?$ChTraitsCRT@D@ATL@@SAXPADHPBGH@Z
_TEXT	SEGMENT PARA USE32 PUBLIC 'CODE'
_TEXT	ENDS
;	COMDAT ??4?$CStringT@DV?$StrTraitATL@DV?$ChTraitsCRT@D@ATL@@@ATL@@@ATL@@QAEAAV01@PBD@Z
_TEXT	SEGMENT PARA USE32 PUBLIC 'CODE'
_TEXT	ENDS
;	COMDAT ??4?$CSimpleStringT@D$0A@@ATL@@QAEAAV01@PBD@Z
_TEXT	SEGMENT PARA USE32 PUBLIC 'CODE'
_TEXT	ENDS
;	COMDAT ?SetString@?$CSimpleStringT@D$0A@@ATL@@QAEXPBD@Z
_TEXT	SEGMENT PARA USE32 PUBLIC 'CODE'
_TEXT	ENDS
;	COMDAT ?WordCmpI@CAtlModule@ATL@@SAHPBD0@Z
_TEXT	SEGMENT PARA USE32 PUBLIC 'CODE'
_TEXT	ENDS
;	COMDAT ?FindOneOf@CAtlModule@ATL@@SAPBDPBD0@Z
_TEXT	SEGMENT PARA USE32 PUBLIC 'CODE'
_TEXT	ENDS
;	COMDAT ?SetStringValue@CRegKey@ATL@@QAEJPBD0K@Z
_TEXT	SEGMENT PARA USE32 PUBLIC 'CODE'
_TEXT	ENDS
;	COMDAT ?DeleteValue@CRegKey@ATL@@QAEJPBD@Z
_TEXT	SEGMENT PARA USE32 PUBLIC 'CODE'
_TEXT	ENDS
;	COMDAT ??BCRegKey@ATL@@QBEPAUHKEY__@@XZ
_TEXT	SEGMENT PARA USE32 PUBLIC 'CODE'
_TEXT	ENDS
;	COMDAT ?Create@CRegKey@ATL@@QAEJPAUHKEY__@@PBDPADKKPAU_SECURITY_ATTRIBUTES@@PAK@Z
_TEXT	SEGMENT PARA USE32 PUBLIC 'CODE'
_TEXT	ENDS
;	COMDAT ?Close@CRegKey@ATL@@QAEJXZ
_TEXT	SEGMENT PARA USE32 PUBLIC 'CODE'
_TEXT	ENDS
;	COMDAT ?AtlHresultFromWin32@ATL@@YAJK@Z
_TEXT	SEGMENT PARA USE32 PUBLIC 'CODE'
_TEXT	ENDS
;	COMDAT ??_C@_05PDIKPLII@AppID?$AA@
CONST	SEGMENT DWORD USE32 PUBLIC 'CONST'
CONST	ENDS
;	COMDAT ?Open@CRegKey@ATL@@QAEJPAUHKEY__@@PBDK@Z
_TEXT	SEGMENT PARA USE32 PUBLIC 'CODE'
_TEXT	ENDS
;	COMDAT ??1CRegKey@ATL@@QAE@XZ
_TEXT	SEGMENT PARA USE32 PUBLIC 'CODE'
_TEXT	ENDS
;	COMDAT ??0CRegKey@ATL@@QAE@XZ
_TEXT	SEGMENT PARA USE32 PUBLIC 'CODE'
_TEXT	ENDS
;	COMDAT ?_pAtlModule@ATL@@3PAVCAtlModule@1@A
_DATA	SEGMENT DWORD USE32 PUBLIC 'DATA'
_DATA	ENDS
;	COMDAT ?UpdateRegistryFromResourceS@CAtlModule@ATL@@QAGJIHPAU_ATL_REGMAP_ENTRY@2@@Z
_TEXT	SEGMENT PARA USE32 PUBLIC 'CODE'
_TEXT	ENDS
;	COMDAT ??0CRegObject@ATL@@QAE@XZ
_TEXT	SEGMENT PARA USE32 PUBLIC 'CODE'
_TEXT	ENDS
;	COMDAT ??0IRegistrarBase@@QAE@XZ
_TEXT	SEGMENT PARA USE32 PUBLIC 'CODE'
_TEXT	ENDS
;	COMDAT ??0IUnknown@@QAE@XZ
_TEXT	SEGMENT PARA USE32 PUBLIC 'CODE'
_TEXT	ENDS
;	COMDAT ??_7CRegObject@ATL@@6B@
CONST	SEGMENT DWORD USE32 PUBLIC 'CONST'
CONST	ENDS
;	COMDAT ?QueryInterface@CRegObject@ATL@@UAGJABU_GUID@@PAPAX@Z
_TEXT	SEGMENT PARA USE32 PUBLIC 'CODE'
_TEXT	ENDS
;	COMDAT ?AddRef@CRegObject@ATL@@UAGKXZ
_TEXT	SEGMENT PARA USE32 PUBLIC 'CODE'
_TEXT	ENDS
;	COMDAT ?Release@CRegObject@ATL@@UAGKXZ
_TEXT	SEGMENT PARA USE32 PUBLIC 'CODE'
_TEXT	ENDS
;	COMDAT ?ClearReplacements@CRegObject@ATL@@UAGJXZ
_TEXT	SEGMENT PARA USE32 PUBLIC 'CODE'
_TEXT	ENDS
;	COMDAT ?Lock@CComFakeCriticalSection@ATL@@QAEJXZ
_TEXT	SEGMENT PARA USE32 PUBLIC 'CODE'
_TEXT	ENDS
;	COMDAT ?ClearReplacements@CExpansionVector@ATL@@QAEJXZ
_TEXT	SEGMENT PARA USE32 PUBLIC 'CODE'
_TEXT	ENDS
;	COMDAT ?GetSize@?$CSimpleMap@PADPAGVCExpansionVectorEqualHelper@ATL@@@ATL@@QBEHXZ
_TEXT	SEGMENT PARA USE32 PUBLIC 'CODE'
_TEXT	ENDS
;	COMDAT ?GetKeyAt@?$CSimpleMap@PADPAGVCExpansionVectorEqualHelper@ATL@@@ATL@@QBEAAPADH@Z
_TEXT	SEGMENT PARA USE32 PUBLIC 'CODE'
_TEXT	ENDS
;	COMDAT ?GetValueAt@?$CSimpleMap@PADPAGVCExpansionVectorEqualHelper@ATL@@@ATL@@QBEAAPAGH@Z
_TEXT	SEGMENT PARA USE32 PUBLIC 'CODE'
_TEXT	ENDS
;	COMDAT ?RemoveAll@?$CSimpleMap@PADPAGVCExpansionVectorEqualHelper@ATL@@@ATL@@QAEXXZ
_TEXT	SEGMENT PARA USE32 PUBLIC 'CODE'
_TEXT	ENDS
;	COMDAT ?Unlock@CComFakeCriticalSection@ATL@@QAEJXZ
_TEXT	SEGMENT PARA USE32 PUBLIC 'CODE'
_TEXT	ENDS
;	COMDAT ??_GCRegObject@ATL@@UAEPAXI@Z
_TEXT	SEGMENT PARA USE32 PUBLIC 'CODE'
_TEXT	ENDS
;	COMDAT ??0CExpansionVector@ATL@@QAE@XZ
_TEXT	SEGMENT PARA USE32 PUBLIC 'CODE'
_TEXT	ENDS
;	COMDAT ??0?$CSimpleMap@PADPAGVCExpansionVectorEqualHelper@ATL@@@ATL@@QAE@XZ
_TEXT	SEGMENT PARA USE32 PUBLIC 'CODE'
_TEXT	ENDS
;	COMDAT ??1?$CSimpleMap@PADPAGVCExpansionVectorEqualHelper@ATL@@@ATL@@QAE@XZ
_TEXT	SEGMENT PARA USE32 PUBLIC 'CODE'
_TEXT	ENDS
;	COMDAT ??1CExpansionVector@ATL@@QAE@XZ
_TEXT	SEGMENT PARA USE32 PUBLIC 'CODE'
_TEXT	ENDS
;	COMDAT ??1CRegObject@ATL@@UAE@XZ
_TEXT	SEGMENT PARA USE32 PUBLIC 'CODE'
_TEXT	ENDS
;	COMDAT ??0?$CAtlSafeAllocBufferManager@VCCRTAllocator@ATL@@@_ATL_SAFE_ALLOCA_IMPL@ATL@@QAE@XZ
_TEXT	SEGMENT PARA USE32 PUBLIC 'CODE'
_TEXT	ENDS
;	COMDAT ??1?$CAtlSafeAllocBufferManager@VCCRTAllocator@ATL@@@_ATL_SAFE_ALLOCA_IMPL@ATL@@QAE@XZ
_TEXT	SEGMENT PARA USE32 PUBLIC 'CODE'
_TEXT	ENDS
;	COMDAT ?Free@CCRTAllocator@ATL@@SAXPAX@Z
_TEXT	SEGMENT PARA USE32 PUBLIC 'CODE'
_TEXT	ENDS
;	COMDAT ?GetModuleInstance@CAtlBaseModule@ATL@@QAEPAUHINSTANCE__@@XZ
_TEXT	SEGMENT PARA USE32 PUBLIC 'CODE'
_TEXT	ENDS
;	COMDAT ?AtlHresultFromLastError@ATL@@YAJXZ
_TEXT	SEGMENT PARA USE32 PUBLIC 'CODE'
_TEXT	ENDS
;	COMDAT ?AtlA2WHelper@@YGPAGPAGPBDHI@Z
_TEXT	SEGMENT PARA USE32 PUBLIC 'CODE'
_TEXT	ENDS
;	COMDAT ?_AtlVerifyStackAvailable@_ATL_SAFE_ALLOCA_IMPL@ATL@@YA_NK@Z
_TEXT	SEGMENT PARA USE32 PUBLIC 'CODE'
_TEXT	ENDS
;	COMDAT ?Allocate@?$CAtlSafeAllocBufferManager@VCCRTAllocator@ATL@@@_ATL_SAFE_ALLOCA_IMPL@ATL@@QAEPAXK@Z
_TEXT	SEGMENT PARA USE32 PUBLIC 'CODE'
_TEXT	ENDS
;	COMDAT ?Allocate@CCRTAllocator@ATL@@SAPAXI@Z
_TEXT	SEGMENT PARA USE32 PUBLIC 'CODE'
_TEXT	ENDS
;	COMDAT ?GetData@CAtlSafeAllocBufferNode@?$CAtlSafeAllocBufferManager@VCCRTAllocator@ATL@@@_ATL_SAFE_ALLOCA_IMPL@ATL@@QAEPAXXZ
_TEXT	SEGMENT PARA USE32 PUBLIC 'CODE'
_TEXT	ENDS
;	COMDAT ?EscapeSingleQuote@CAtlModule@ATL@@SAXPAGPBG@Z
_TEXT	SEGMENT PARA USE32 PUBLIC 'CODE'
_TEXT	ENDS
;	COMDAT ?ocscpy@@YAPAGPAGPBG@Z
_TEXT	SEGMENT PARA USE32 PUBLIC 'CODE'
_TEXT	ENDS
;	COMDAT ?ocslen@@YAHPBG@Z
_TEXT	SEGMENT PARA USE32 PUBLIC 'CODE'
_TEXT	ENDS
;	COMDAT ??_C@_1O@MNLDABAF@?$AAM?$AAo?$AAd?$AAu?$AAl?$AAe?$AA?$AA@
CONST	SEGMENT DWORD USE32 PUBLIC 'CONST'
CONST	ENDS
;	COMDAT ?AddReplacement@CRegObject@ATL@@UAGJPBG0@Z
_TEXT	SEGMENT PARA USE32 PUBLIC 'CODE'
_TEXT	ENDS
;	COMDAT ?AtlW2AHelper@@YGPADPADPBGHI@Z
_TEXT	SEGMENT PARA USE32 PUBLIC 'CODE'
_TEXT	ENDS
;	COMDAT ?Add@CExpansionVector@ATL@@QAEHPBDPBG@Z
_TEXT	SEGMENT PARA USE32 PUBLIC 'CODE'
_TEXT	ENDS
;	COMDAT ?Add@?$CSimpleMap@PADPAGVCExpansionVectorEqualHelper@ATL@@@ATL@@QAEHABQADABQAG@Z
_TEXT	SEGMENT PARA USE32 PUBLIC 'CODE'
_TEXT	ENDS
;	COMDAT ?InternalSetAtIndex@?$CSimpleMap@PADPAGVCExpansionVectorEqualHelper@ATL@@@ATL@@QAEXHABQADABQAG@Z
_TEXT	SEGMENT PARA USE32 PUBLIC 'CODE'
_TEXT	ENDS
;	COMDAT ??$?2PAD@?$Wrapper@PAD@?$CSimpleMap@PADPAGVCExpansionVectorEqualHelper@ATL@@@ATL@@SAPAXIPAPAD@Z
_TEXT	SEGMENT PARA USE32 PUBLIC 'CODE'
_TEXT	ENDS
;	COMDAT ??$?3PAD@?$Wrapper@PAD@?$CSimpleMap@PADPAGVCExpansionVectorEqualHelper@ATL@@@ATL@@SAXPAXPAPAD@Z
_TEXT	SEGMENT PARA USE32 PUBLIC 'CODE'
_TEXT	ENDS
;	COMDAT ??0?$Wrapper@PAD@?$CSimpleMap@PADPAGVCExpansionVectorEqualHelper@ATL@@@ATL@@QAE@ABQAD@Z
_TEXT	SEGMENT PARA USE32 PUBLIC 'CODE'
_TEXT	ENDS
;	COMDAT ??$?2PAG@?$Wrapper@PAG@?$CSimpleMap@PADPAGVCExpansionVectorEqualHelper@ATL@@@ATL@@SAPAXIPAPAG@Z
_TEXT	SEGMENT PARA USE32 PUBLIC 'CODE'
_TEXT	ENDS
;	COMDAT ??$?3PAG@?$Wrapper@PAG@?$CSimpleMap@PADPAGVCExpansionVectorEqualHelper@ATL@@@ATL@@SAXPAXPAPAG@Z
_TEXT	SEGMENT PARA USE32 PUBLIC 'CODE'
_TEXT	ENDS
;	COMDAT ??0?$Wrapper@PAG@?$CSimpleMap@PADPAGVCExpansionVectorEqualHelper@ATL@@@ATL@@QAE@ABQAG@Z
_TEXT	SEGMENT PARA USE32 PUBLIC 'CODE'
_TEXT	ENDS
;	COMDAT ??_C@_1BG@JBACFMF@?$AAM?$AAo?$AAd?$AAu?$AAl?$AAe?$AA_?$AAR?$AAa?$AAw?$AA?$AA@
CONST	SEGMENT DWORD USE32 PUBLIC 'CONST'
CONST	ENDS
;	COMDAT ??_C@_1BC@KAILKFFG@?$AAR?$AAE?$AAG?$AAI?$AAS?$AAT?$AAR?$AAY?$AA?$AA@
CONST	SEGMENT DWORD USE32 PUBLIC 'CONST'
CONST	ENDS
;	COMDAT ?ResourceRegister@CRegObject@ATL@@QAGJPBGI0@Z
_TEXT	SEGMENT PARA USE32 PUBLIC 'CODE'
_TEXT	ENDS
;	COMDAT ?RegisterFromResource@CRegObject@ATL@@IAEJPBGPBD1H@Z
_TEXT	SEGMENT PARA USE32 PUBLIC 'CODE'
_TEXT	ENDS
;	COMDAT ??0CRegParser@ATL@@QAE@PAVCRegObject@1@@Z
_TEXT	SEGMENT PARA USE32 PUBLIC 'CODE'
_TEXT	ENDS
;	COMDAT ??0?$CTempBuffer@D$0EAA@VCCRTAllocator@ATL@@@ATL@@QAE@XZ
_TEXT	SEGMENT PARA USE32 PUBLIC 'CODE'
_TEXT	ENDS
;	COMDAT ??1?$CTempBuffer@D$0EAA@VCCRTAllocator@ATL@@@ATL@@QAE@XZ
_TEXT	SEGMENT PARA USE32 PUBLIC 'CODE'
_TEXT	ENDS
;	COMDAT ?FreeHeap@?$CTempBuffer@D$0EAA@VCCRTAllocator@ATL@@@ATL@@AAEXXZ
_TEXT	SEGMENT PARA USE32 PUBLIC 'CODE'
_TEXT	ENDS
;	COMDAT ?Allocate@?$CTempBuffer@D$0EAA@VCCRTAllocator@ATL@@@ATL@@QAEPADI@Z
_TEXT	SEGMENT PARA USE32 PUBLIC 'CODE'
_TEXT	ENDS
;	COMDAT ?AllocateBytes@?$CTempBuffer@D$0EAA@VCCRTAllocator@ATL@@@ATL@@QAEPADI@Z
_TEXT	SEGMENT PARA USE32 PUBLIC 'CODE'
_TEXT	ENDS
;	COMDAT ?AllocateHeap@?$CTempBuffer@D$0EAA@VCCRTAllocator@ATL@@@ATL@@AAEXI@Z
_TEXT	SEGMENT PARA USE32 PUBLIC 'CODE'
_TEXT	ENDS
;	COMDAT ?RegisterBuffer@CRegParser@ATL@@QAEJPADH@Z
_TEXT	SEGMENT PARA USE32 PUBLIC 'CODE'
_TEXT	ENDS
;	COMDAT ?PreProcessBuffer@CRegParser@ATL@@QAEJPADPAPAD@Z
_TEXT	SEGMENT PARA USE32 PUBLIC 'CODE'
_TEXT	ENDS
;	COMDAT ??0CParseBuffer@CRegParser@ATL@@QAE@H@Z
_TEXT	SEGMENT PARA USE32 PUBLIC 'CODE'
_TEXT	ENDS
;	COMDAT ??1CParseBuffer@CRegParser@ATL@@QAE@XZ
_TEXT	SEGMENT PARA USE32 PUBLIC 'CODE'
_TEXT	ENDS
;	COMDAT ?StrChrA@CRegParser@ATL@@KAPADPADD@Z
_TEXT	SEGMENT PARA USE32 PUBLIC 'CODE'
_TEXT	ENDS
;	COMDAT ?StrFromMap@CRegObject@ATL@@QAEPBGPAD@Z
_TEXT	SEGMENT PARA USE32 PUBLIC 'CODE'
_TEXT	ENDS
;	COMDAT ?Lookup@?$CSimpleMap@PADPAGVCExpansionVectorEqualHelper@ATL@@@ATL@@QBEPAGABQAD@Z
_TEXT	SEGMENT PARA USE32 PUBLIC 'CODE'
_TEXT	ENDS
;	COMDAT ?FindKey@?$CSimpleMap@PADPAGVCExpansionVectorEqualHelper@ATL@@@ATL@@QBEHABQAD@Z
_TEXT	SEGMENT PARA USE32 PUBLIC 'CODE'
_TEXT	ENDS
;	COMDAT ?IsEqualKey@CExpansionVectorEqualHelper@ATL@@SA_NQAD0@Z
_TEXT	SEGMENT PARA USE32 PUBLIC 'CODE'
_TEXT	ENDS
;	COMDAT ?AddString@CParseBuffer@CRegParser@ATL@@QAEHPBG@Z
_TEXT	SEGMENT PARA USE32 PUBLIC 'CODE'
_TEXT	ENDS
;	COMDAT ?Append@CParseBuffer@CRegParser@ATL@@QAEHPBDH@Z
_TEXT	SEGMENT PARA USE32 PUBLIC 'CODE'
_TEXT	ENDS
;	COMDAT ?AddChar@CParseBuffer@CRegParser@ATL@@QAEHPBD@Z
_TEXT	SEGMENT PARA USE32 PUBLIC 'CODE'
_TEXT	ENDS
;	COMDAT ?Detach@CParseBuffer@CRegParser@ATL@@QAEPADXZ
_TEXT	SEGMENT PARA USE32 PUBLIC 'CODE'
_TEXT	ENDS
;	COMDAT ?HKeyFromString@CRegParser@ATL@@KAPAUHKEY__@@PAD@Z
_TEXT	SEGMENT PARA USE32 PUBLIC 'CODE'
_TEXT	ENDS
;	COMDAT ??_C@_04OHBKMIBJ@HKCR?$AA@
CONST	SEGMENT DWORD USE32 PUBLIC 'CONST'
CONST	ENDS
;	COMDAT ??_C@_04KIFLFONO@HKCU?$AA@
CONST	SEGMENT DWORD USE32 PUBLIC 'CONST'
CONST	ENDS
;	COMDAT ??_C@_04CBBMIBLK@HKLM?$AA@
CONST	SEGMENT DWORD USE32 PUBLIC 'CONST'
CONST	ENDS
;	COMDAT ??_C@_03DLBIJLAB@HKU?$AA@
CONST	SEGMENT DWORD USE32 PUBLIC 'CONST'
CONST	ENDS
;	COMDAT ??_C@_04OFOCGAOH@HKPD?$AA@
CONST	SEGMENT DWORD USE32 PUBLIC 'CONST'
CONST	ENDS
;	COMDAT ??_C@_04POMNGLEL@HKDD?$AA@
CONST	SEGMENT DWORD USE32 PUBLIC 'CONST'
CONST	ENDS
;	COMDAT ??_C@_04LEMDOLAJ@HKCC?$AA@
CONST	SEGMENT DWORD USE32 PUBLIC 'CONST'
CONST	ENDS
;	COMDAT ??_C@_0BC@JBJOLKMF@HKEY_CLASSES_ROOT?$AA@
CONST	SEGMENT DWORD USE32 PUBLIC 'CONST'
CONST	ENDS
;	COMDAT ??_C@_0BC@GMMMKLBI@HKEY_CURRENT_USER?$AA@
CONST	SEGMENT DWORD USE32 PUBLIC 'CONST'
CONST	ENDS
;	COMDAT ??_C@_0BD@GIIFIKDM@HKEY_LOCAL_MACHINE?$AA@
CONST	SEGMENT DWORD USE32 PUBLIC 'CONST'
CONST	ENDS
;	COMDAT ??_C@_0L@OEMMANAM@HKEY_USERS?$AA@
CONST	SEGMENT DWORD USE32 PUBLIC 'CONST'
CONST	ENDS
;	COMDAT ??_C@_0BG@IDBEHNDO@HKEY_PERFORMANCE_DATA?$AA@
CONST	SEGMENT DWORD USE32 PUBLIC 'CONST'
CONST	ENDS
;	COMDAT ??_C@_0O@MJDLIIGK@HKEY_DYN_DATA?$AA@
CONST	SEGMENT DWORD USE32 PUBLIC 'CONST'
CONST	ENDS
;	COMDAT ??_C@_0BE@NLNNHLLF@HKEY_CURRENT_CONFIG?$AA@
CONST	SEGMENT DWORD USE32 PUBLIC 'CONST'
CONST	ENDS
;	COMDAT ?map@?2??HKeyFromString@CRegParser@ATL@@KAPAUHKEY__@@PAD@Z@4QBUkeymap@23@B
CONST	SEGMENT DWORD USE32 PUBLIC 'CONST'
CONST	ENDS
;	COMDAT ?NextToken@CRegParser@ATL@@IAEJPAD@Z
_TEXT	SEGMENT PARA USE32 PUBLIC 'CODE'
_TEXT	ENDS
;	COMDAT ?EndOfVar@CRegParser@ATL@@IAEHXZ
_TEXT	SEGMENT PARA USE32 PUBLIC 'CODE'
_TEXT	ENDS
;	COMDAT ?IsSpace@CRegParser@ATL@@IAEHD@Z
_TEXT	SEGMENT PARA USE32 PUBLIC 'CODE'
_TEXT	ENDS
;	COMDAT ?GenerateError@CRegParser@ATL@@IAEJI@Z
_TEXT	SEGMENT PARA USE32 PUBLIC 'CODE'
_TEXT	ENDS
;	COMDAT ?RegisterSubkeys@CRegParser@ATL@@IAEJPADPAUHKEY__@@HH@Z
_TEXT	SEGMENT PARA USE32 PUBLIC 'CODE'
_TEXT	ENDS
;	COMDAT ??_C@_06JBKGCNBB@Delete?$AA@
CONST	SEGMENT DWORD USE32 PUBLIC 'CONST'
CONST	ENDS
;	COMDAT ??_C@_0M@DBGDLGLL@ForceRemove?$AA@
CONST	SEGMENT DWORD USE32 PUBLIC 'CONST'
CONST	ENDS
;	COMDAT ??_C@_08KAAPDIAN@NoRemove?$AA@
CONST	SEGMENT DWORD USE32 PUBLIC 'CONST'
CONST	ENDS
;	COMDAT ??_C@_03LAIAPFCB@Val?$AA@
CONST	SEGMENT DWORD USE32 PUBLIC 'CONST'
CONST	ENDS
;	COMDAT ?AddValue@CRegParser@ATL@@IAEJAAVCRegKey@2@PBDPAD@Z
_TEXT	SEGMENT PARA USE32 PUBLIC 'CODE'
_TEXT	ENDS
;	COMDAT ?VTFromRegType@CRegParser@ATL@@KAHPBDAAG@Z
_TEXT	SEGMENT PARA USE32 PUBLIC 'CODE'
_TEXT	ENDS
;	COMDAT ??_C@_01CPLAODJH@S?$AA@
CONST	SEGMENT DWORD USE32 PUBLIC 'CONST'
CONST	ENDS
;	COMDAT ??_C@_01PLPBNMEI@M?$AA@
CONST	SEGMENT DWORD USE32 PUBLIC 'CONST'
CONST	ENDS
;	COMDAT ??_C@_01CKDDGHAB@D?$AA@
CONST	SEGMENT DWORD USE32 PUBLIC 'CONST'
CONST	ENDS
;	COMDAT ??_C@_01HMGJMAIH@B?$AA@
CONST	SEGMENT DWORD USE32 PUBLIC 'CONST'
CONST	ENDS
;	COMDAT ?map@?2??VTFromRegType@CRegParser@ATL@@KAHPBDAAG@Z@4QBUtypemap@23@B
_DATA	SEGMENT DWORD USE32 PUBLIC 'DATA'
_DATA	ENDS
;	COMDAT ?$S4@?2??VTFromRegType@CRegParser@ATL@@KAHPBDAAG@Z@4IA
_BSS	SEGMENT DWORD USE32 PUBLIC 'BSS'
_BSS	ENDS
;	COMDAT ??0?$CTempBuffer@D$0BAA@VCCRTAllocator@ATL@@@ATL@@QAE@XZ
_TEXT	SEGMENT PARA USE32 PUBLIC 'CODE'
_TEXT	ENDS
;	COMDAT ??1?$CTempBuffer@D$0BAA@VCCRTAllocator@ATL@@@ATL@@QAE@XZ
_TEXT	SEGMENT PARA USE32 PUBLIC 'CODE'
_TEXT	ENDS
;	COMDAT ?FreeHeap@?$CTempBuffer@D$0BAA@VCCRTAllocator@ATL@@@ATL@@AAEXXZ
_TEXT	SEGMENT PARA USE32 PUBLIC 'CODE'
_TEXT	ENDS
;	COMDAT ?Allocate@?$CTempBuffer@D$0BAA@VCCRTAllocator@ATL@@@ATL@@QAEPADI@Z
_TEXT	SEGMENT PARA USE32 PUBLIC 'CODE'
_TEXT	ENDS
;	COMDAT ?AllocateBytes@?$CTempBuffer@D$0BAA@VCCRTAllocator@ATL@@@ATL@@QAEPADI@Z
_TEXT	SEGMENT PARA USE32 PUBLIC 'CODE'
_TEXT	ENDS
;	COMDAT ?AllocateHeap@?$CTempBuffer@D$0BAA@VCCRTAllocator@ATL@@@ATL@@AAEXI@Z
_TEXT	SEGMENT PARA USE32 PUBLIC 'CODE'
_TEXT	ENDS
;	COMDAT ?SetMultiStringValue@CRegKey@ATL@@QAEJPBD0@Z
_TEXT	SEGMENT PARA USE32 PUBLIC 'CODE'
_TEXT	ENDS
;	COMDAT ??B?$CTempBuffer@D$0BAA@VCCRTAllocator@ATL@@@ATL@@QBEPADXZ
_TEXT	SEGMENT PARA USE32 PUBLIC 'CODE'
_TEXT	ENDS
;	COMDAT ?SetDWORDValue@CRegKey@ATL@@QAEJPBDK@Z
_TEXT	SEGMENT PARA USE32 PUBLIC 'CODE'
_TEXT	ENDS
;	COMDAT ??0?$CTempBuffer@E$0BAA@VCCRTAllocator@ATL@@@ATL@@QAE@XZ
_TEXT	SEGMENT PARA USE32 PUBLIC 'CODE'
_TEXT	ENDS
;	COMDAT ??1?$CTempBuffer@E$0BAA@VCCRTAllocator@ATL@@@ATL@@QAE@XZ
_TEXT	SEGMENT PARA USE32 PUBLIC 'CODE'
_TEXT	ENDS
;	COMDAT ?FreeHeap@?$CTempBuffer@E$0BAA@VCCRTAllocator@ATL@@@ATL@@AAEXXZ
_TEXT	SEGMENT PARA USE32 PUBLIC 'CODE'
_TEXT	ENDS
;	COMDAT ?Allocate@?$CTempBuffer@E$0BAA@VCCRTAllocator@ATL@@@ATL@@QAEPAEI@Z
_TEXT	SEGMENT PARA USE32 PUBLIC 'CODE'
_TEXT	ENDS
;	COMDAT ?AllocateBytes@?$CTempBuffer@E$0BAA@VCCRTAllocator@ATL@@@ATL@@QAEPAEI@Z
_TEXT	SEGMENT PARA USE32 PUBLIC 'CODE'
_TEXT	ENDS
;	COMDAT ?AllocateHeap@?$CTempBuffer@E$0BAA@VCCRTAllocator@ATL@@@ATL@@AAEXI@Z
_TEXT	SEGMENT PARA USE32 PUBLIC 'CODE'
_TEXT	ENDS
;	COMDAT ?ChToByte@CRegParser@ATL@@KAED@Z
_TEXT	SEGMENT PARA USE32 PUBLIC 'CODE'
_TEXT	ENDS
;	COMDAT ??B?$CTempBuffer@E$0BAA@VCCRTAllocator@ATL@@@ATL@@QBEPAEXZ
_TEXT	SEGMENT PARA USE32 PUBLIC 'CODE'
_TEXT	ENDS
;	COMDAT ?SkipAssignment@CRegParser@ATL@@IAEJPAD@Z
_TEXT	SEGMENT PARA USE32 PUBLIC 'CODE'
_TEXT	ENDS
;	COMDAT ?HasSubKeys@CRegParser@ATL@@IAEHPAUHKEY__@@@Z
_TEXT	SEGMENT PARA USE32 PUBLIC 'CODE'
_TEXT	ENDS
;	COMDAT ?CanForceRemoveKey@CRegParser@ATL@@IAEHPBD@Z
_TEXT	SEGMENT PARA USE32 PUBLIC 'CODE'
_TEXT	ENDS
;	COMDAT ?rgszNeverDelete@CRegParser@ATL@@1QBQBDB
CONST	SEGMENT DWORD USE32 PUBLIC 'CONST'
CONST	ENDS
;	COMDAT ??_C@_05GIBEAPNE@CLSID?$AA@
CONST	SEGMENT DWORD USE32 PUBLIC 'CONST'
CONST	ENDS
;	COMDAT ??_C@_0BF@HDDNNDFH@Component?5Categories?$AA@
CONST	SEGMENT DWORD USE32 PUBLIC 'CONST'
CONST	ENDS
;	COMDAT ??_C@_08PICKODJL@FileType?$AA@
CONST	SEGMENT DWORD USE32 PUBLIC 'CONST'
CONST	ENDS
;	COMDAT ??_C@_09JKPGEJCH@Interface?$AA@
CONST	SEGMENT DWORD USE32 PUBLIC 'CONST'
CONST	ENDS
;	COMDAT ??_C@_08PPIOJEA@Hardware?$AA@
CONST	SEGMENT DWORD USE32 PUBLIC 'CONST'
CONST	ENDS
;	COMDAT ??_C@_04IHBFOLAC@Mime?$AA@
CONST	SEGMENT DWORD USE32 PUBLIC 'CONST'
CONST	ENDS
;	COMDAT ??_C@_03DDIMFGBA@SAM?$AA@
CONST	SEGMENT DWORD USE32 PUBLIC 'CONST'
CONST	ENDS
;	COMDAT ??_C@_08LOPHEHKG@SECURITY?$AA@
CONST	SEGMENT DWORD USE32 PUBLIC 'CONST'
CONST	ENDS
;	COMDAT ??_C@_06FDHFNJBJ@SYSTEM?$AA@
CONST	SEGMENT DWORD USE32 PUBLIC 'CONST'
CONST	ENDS
;	COMDAT ??_C@_08KEKAJNJI@Software?$AA@
CONST	SEGMENT DWORD USE32 PUBLIC 'CONST'
CONST	ENDS
;	COMDAT ??_C@_07KJLOKDKB@TypeLib?$AA@
CONST	SEGMENT DWORD USE32 PUBLIC 'CONST'
CONST	ENDS
;	COMDAT ?RecurseDeleteKey@CRegKey@ATL@@QAEJPBD@Z
_TEXT	SEGMENT PARA USE32 PUBLIC 'CODE'
_TEXT	ENDS
;	COMDAT ?Attach@CRegKey@ATL@@QAEXPAUHKEY__@@@Z
_TEXT	SEGMENT PARA USE32 PUBLIC 'CODE'
_TEXT	ENDS
;	COMDAT ?DeleteSubKey@CRegKey@ATL@@QAEJPBD@Z
_TEXT	SEGMENT PARA USE32 PUBLIC 'CODE'
_TEXT	ENDS
;	COMDAT ?Detach@CRegKey@ATL@@QAEPAUHKEY__@@XZ
_TEXT	SEGMENT PARA USE32 PUBLIC 'CODE'
_TEXT	ENDS
;	COMDAT ?SkipWhiteSpace@CRegParser@ATL@@IAEXXZ
_TEXT	SEGMENT PARA USE32 PUBLIC 'CODE'
_TEXT	ENDS
;	COMDAT ??B?$CTempBuffer@D$0EAA@VCCRTAllocator@ATL@@@ATL@@QBEPADXZ
_TEXT	SEGMENT PARA USE32 PUBLIC 'CODE'
_TEXT	ENDS
;	COMDAT ?ResourceUnregister@CRegObject@ATL@@QAGJPBGI0@Z
_TEXT	SEGMENT PARA USE32 PUBLIC 'CODE'
_TEXT	ENDS
;	COMDAT ??_C@_1M@PPPPCDEP@?$AAA?$AAP?$AAP?$AAI?$AAD?$AA?$AA@
CONST	SEGMENT DWORD USE32 PUBLIC 'CONST'
CONST	ENDS
;	COMDAT ?m_libid@CAtlModule@ATL@@2U_GUID@@A
_DATA	SEGMENT DWORD USE32 PUBLIC 'DATA'
_DATA	ENDS
sxdata	SEGMENT DWORD USE32 'SXDATA'
sxdata	ENDS
FLAT	GROUP _DATA, CONST, _BSS
	ASSUME	CS: FLAT, DS: FLAT, SS: FLAT
endif

INCLUDELIB LIBCMT
INCLUDELIB OLDNAMES

PUBLIC	?rgszNeverDelete@CRegParser@ATL@@1QBQBDB	; ATL::CRegParser::rgszNeverDelete
PUBLIC	?g_pfnGetThreadACP@ATL@@3P6GIXZA		; ATL::g_pfnGetThreadACP
PUBLIC	?_AtlGetThreadACPThunk@ATL@@YGIXZ		; ATL::_AtlGetThreadACPThunk
PUBLIC	??_C@_0BF@HDDNNDFH@Component?5Categories?$AA@	; `string'
PUBLIC	??_C@_08PICKODJL@FileType?$AA@			; `string'
PUBLIC	??_C@_09JKPGEJCH@Interface?$AA@			; `string'
PUBLIC	??_C@_08PPIOJEA@Hardware?$AA@			; `string'
PUBLIC	??_C@_04IHBFOLAC@Mime?$AA@			; `string'
PUBLIC	??_C@_03DDIMFGBA@SAM?$AA@			; `string'
PUBLIC	??_C@_08LOPHEHKG@SECURITY?$AA@			; `string'
PUBLIC	??_C@_06FDHFNJBJ@SYSTEM?$AA@			; `string'
PUBLIC	??_C@_08KEKAJNJI@Software?$AA@			; `string'
PUBLIC	??_C@_07KJLOKDKB@TypeLib?$AA@			; `string'
PUBLIC	?_pAtlModule@ATL@@3PAVCAtlModule@1@A		; ATL::_pAtlModule
PUBLIC	?m_libid@CAtlModule@ATL@@2U_GUID@@A		; ATL::CAtlModule::m_libid
PUBLIC	_CLSID_StdGlobalInterfaceTable
PUBLIC	??_C@_05GIBEAPNE@CLSID?$AA@			; `string'
PUBLIC	??_C@_05PDIKPLII@AppID?$AA@			; `string'
PUBLIC	??_C@_01CPLAODJH@S?$AA@				; `string'
PUBLIC	??_C@_01PLPBNMEI@M?$AA@				; `string'
PUBLIC	??_C@_01CKDDGHAB@D?$AA@				; `string'
PUBLIC	??_C@_01HMGJMAIH@B?$AA@				; `string'
PUBLIC	??_C@_03LAIAPFCB@Val?$AA@			; `string'
PUBLIC	??_C@_0M@DBGDLGLL@ForceRemove?$AA@		; `string'
PUBLIC	??_C@_08KAAPDIAN@NoRemove?$AA@			; `string'
PUBLIC	??_C@_06JBKGCNBB@Delete?$AA@			; `string'
PUBLIC	?_pPerfRegFunc@ATL@@3P6AJPAUHINSTANCE__@@@ZA	; ATL::_pPerfRegFunc
PUBLIC	?_pPerfUnRegFunc@ATL@@3P6AJXZA			; ATL::_pPerfUnRegFunc
;	COMDAT ?_pAtlModule@ATL@@3PAVCAtlModule@1@A
_BSS	SEGMENT
?_pAtlModule@ATL@@3PAVCAtlModule@1@A DD 01H DUP (?)	; ATL::_pAtlModule
_BSS	ENDS
;	COMDAT ?m_libid@CAtlModule@ATL@@2U_GUID@@A
_BSS	SEGMENT
?m_libid@CAtlModule@ATL@@2U_GUID@@A DB 010H DUP (?)	; ATL::CAtlModule::m_libid
_BSS	ENDS
;	COMDAT ?_pPerfRegFunc@ATL@@3P6AJPAUHINSTANCE__@@@ZA
_BSS	SEGMENT
?_pPerfRegFunc@ATL@@3P6AJPAUHINSTANCE__@@@ZA DD 01H DUP (?) ; ATL::_pPerfRegFunc
_BSS	ENDS
;	COMDAT ?_pPerfUnRegFunc@ATL@@3P6AJXZA
_BSS	SEGMENT
?_pPerfUnRegFunc@ATL@@3P6AJXZA DD 01H DUP (?)		; ATL::_pPerfUnRegFunc
_BSS	ENDS
;	COMDAT ?g_pfnGetThreadACP@ATL@@3P6GIXZA
_DATA	SEGMENT
?g_pfnGetThreadACP@ATL@@3P6GIXZA DD FLAT:?_AtlGetThreadACPThunk@ATL@@YGIXZ ; ATL::g_pfnGetThreadACP
_DATA	ENDS
;	COMDAT _CLSID_StdGlobalInterfaceTable
CONST	SEGMENT
_CLSID_StdGlobalInterfaceTable DD 0323H
	DW	00H
	DW	00H
	DB	0c0H
	DB	00H
	DB	00H
	DB	00H
	DB	00H
	DB	00H
	DB	00H
	DB	046H
CONST	ENDS
;	COMDAT ??_C@_01CPLAODJH@S?$AA@
CONST	SEGMENT
??_C@_01CPLAODJH@S?$AA@ DB 'S', 00H			; `string'
CONST	ENDS
CONST	SEGMENT
_szStringVal DD	FLAT:??_C@_01CPLAODJH@S?$AA@
CONST	ENDS
;	COMDAT ??_C@_01PLPBNMEI@M?$AA@
CONST	SEGMENT
??_C@_01PLPBNMEI@M?$AA@ DB 'M', 00H			; `string'
CONST	ENDS
CONST	SEGMENT
_multiszStringVal DD FLAT:??_C@_01PLPBNMEI@M?$AA@
CONST	ENDS
;	COMDAT ??_C@_01CKDDGHAB@D?$AA@
CONST	SEGMENT
??_C@_01CKDDGHAB@D?$AA@ DB 'D', 00H			; `string'
CONST	ENDS
CONST	SEGMENT
_szDwordVal DD	FLAT:??_C@_01CKDDGHAB@D?$AA@
CONST	ENDS
;	COMDAT ??_C@_01HMGJMAIH@B?$AA@
CONST	SEGMENT
??_C@_01HMGJMAIH@B?$AA@ DB 'B', 00H			; `string'
CONST	ENDS
CONST	SEGMENT
_szBinaryVal DD	FLAT:??_C@_01HMGJMAIH@B?$AA@
CONST	ENDS
;	COMDAT ??_C@_03LAIAPFCB@Val?$AA@
CONST	SEGMENT
??_C@_03LAIAPFCB@Val?$AA@ DB 'Val', 00H			; `string'
CONST	ENDS
CONST	SEGMENT
_szValToken DD	FLAT:??_C@_03LAIAPFCB@Val?$AA@
CONST	ENDS
;	COMDAT ??_C@_0M@DBGDLGLL@ForceRemove?$AA@
CONST	SEGMENT
??_C@_0M@DBGDLGLL@ForceRemove?$AA@ DB 'ForceRemove', 00H ; `string'
CONST	ENDS
CONST	SEGMENT
_szForceRemove DD FLAT:??_C@_0M@DBGDLGLL@ForceRemove?$AA@
CONST	ENDS
;	COMDAT ??_C@_08KAAPDIAN@NoRemove?$AA@
CONST	SEGMENT
??_C@_08KAAPDIAN@NoRemove?$AA@ DB 'NoRemove', 00H	; `string'
CONST	ENDS
CONST	SEGMENT
_szNoRemove DD	FLAT:??_C@_08KAAPDIAN@NoRemove?$AA@
CONST	ENDS
;	COMDAT ??_C@_06JBKGCNBB@Delete?$AA@
CONST	SEGMENT
??_C@_06JBKGCNBB@Delete?$AA@ DB 'Delete', 00H		; `string'
CONST	ENDS
CONST	SEGMENT
_szDelete DD	FLAT:??_C@_06JBKGCNBB@Delete?$AA@
CONST	ENDS
;	COMDAT ??_C@_05PDIKPLII@AppID?$AA@
CONST	SEGMENT
??_C@_05PDIKPLII@AppID?$AA@ DB 'AppID', 00H		; `string'
CONST	ENDS
;	COMDAT ??_C@_05GIBEAPNE@CLSID?$AA@
CONST	SEGMENT
??_C@_05GIBEAPNE@CLSID?$AA@ DB 'CLSID', 00H		; `string'
CONST	ENDS
;	COMDAT ??_C@_0BF@HDDNNDFH@Component?5Categories?$AA@
CONST	SEGMENT
??_C@_0BF@HDDNNDFH@Component?5Categories?$AA@ DB 'Component Categories', 00H ; `string'
CONST	ENDS
;	COMDAT ??_C@_08PICKODJL@FileType?$AA@
CONST	SEGMENT
??_C@_08PICKODJL@FileType?$AA@ DB 'FileType', 00H	; `string'
CONST	ENDS
;	COMDAT ??_C@_09JKPGEJCH@Interface?$AA@
CONST	SEGMENT
??_C@_09JKPGEJCH@Interface?$AA@ DB 'Interface', 00H	; `string'
CONST	ENDS
;	COMDAT ??_C@_08PPIOJEA@Hardware?$AA@
CONST	SEGMENT
??_C@_08PPIOJEA@Hardware?$AA@ DB 'Hardware', 00H	; `string'
CONST	ENDS
;	COMDAT ??_C@_04IHBFOLAC@Mime?$AA@
CONST	SEGMENT
??_C@_04IHBFOLAC@Mime?$AA@ DB 'Mime', 00H		; `string'
CONST	ENDS
;	COMDAT ??_C@_03DDIMFGBA@SAM?$AA@
CONST	SEGMENT
??_C@_03DDIMFGBA@SAM?$AA@ DB 'SAM', 00H			; `string'
CONST	ENDS
;	COMDAT ??_C@_08LOPHEHKG@SECURITY?$AA@
CONST	SEGMENT
??_C@_08LOPHEHKG@SECURITY?$AA@ DB 'SECURITY', 00H	; `string'
CONST	ENDS
;	COMDAT ??_C@_06FDHFNJBJ@SYSTEM?$AA@
CONST	SEGMENT
??_C@_06FDHFNJBJ@SYSTEM?$AA@ DB 'SYSTEM', 00H		; `string'
CONST	ENDS
;	COMDAT ??_C@_08KEKAJNJI@Software?$AA@
CONST	SEGMENT
??_C@_08KEKAJNJI@Software?$AA@ DB 'Software', 00H	; `string'
CONST	ENDS
;	COMDAT ??_C@_07KJLOKDKB@TypeLib?$AA@
CONST	SEGMENT
??_C@_07KJLOKDKB@TypeLib?$AA@ DB 'TypeLib', 00H		; `string'
CONST	ENDS
;	COMDAT ?rgszNeverDelete@CRegParser@ATL@@1QBQBDB
CONST	SEGMENT
?rgszNeverDelete@CRegParser@ATL@@1QBQBDB DD FLAT:??_C@_05PDIKPLII@AppID?$AA@ ; ATL::CRegParser::rgszNeverDelete
	DD	FLAT:??_C@_05GIBEAPNE@CLSID?$AA@
	DD	FLAT:??_C@_0BF@HDDNNDFH@Component?5Categories?$AA@
	DD	FLAT:??_C@_08PICKODJL@FileType?$AA@
	DD	FLAT:??_C@_09JKPGEJCH@Interface?$AA@
	DD	FLAT:??_C@_08PPIOJEA@Hardware?$AA@
	DD	FLAT:??_C@_04IHBFOLAC@Mime?$AA@
	DD	FLAT:??_C@_03DDIMFGBA@SAM?$AA@
	DD	FLAT:??_C@_08LOPHEHKG@SECURITY?$AA@
	DD	FLAT:??_C@_06FDHFNJBJ@SYSTEM?$AA@
	DD	FLAT:??_C@_08KEKAJNJI@Software?$AA@
	DD	FLAT:??_C@_07KJLOKDKB@TypeLib?$AA@
CONST	ENDS
PUBLIC	?GetServerID@CTMapSvrModule@@QAEEXZ		; CTMapSvrModule::GetServerID
; Function compile flags: /Ogty
; File c:\users\pierr\desktop\4story - oldschool\sources\tserver\tmapsvr\tmapsvrmodule.h
;	COMDAT ?GetServerID@CTMapSvrModule@@QAEEXZ
_TEXT	SEGMENT
?GetServerID@CTMapSvrModule@@QAEEXZ PROC NEAR		; CTMapSvrModule::GetServerID, COMDAT
; _this$ = ecx

; 530  : 	BYTE GetServerID() { return m_bServerID; };

  00000	8a 81 82 9e 00
	00		 mov	 al, BYTE PTR [ecx+40578]
  00006	c3		 ret	 0
?GetServerID@CTMapSvrModule@@QAEEXZ ENDP		; CTMapSvrModule::GetServerID
_TEXT	ENDS
PUBLIC	??0CUdpSocket@@QAE@XZ				; CUdpSocket::CUdpSocket
EXTRN	??_U@YAPAXI@Z:NEAR				; operator new[]
EXTRN	__imp__InitializeCriticalSectionAndSpinCount@8:NEAR
; Function compile flags: /Ogty
; File c:\users\pierr\desktop\4story - oldschool\sources\tserver\tmapsvr\udpsocket.cpp
;	COMDAT ??0CUdpSocket@@QAE@XZ
_TEXT	SEGMENT
??0CUdpSocket@@QAE@XZ PROC NEAR				; CUdpSocket::CUdpSocket, COMDAT
; _this$ = ecx

; 16   : {

  00000	56		 push	 esi

; 17   : 	m_lpLogBuf  = new char [sizeof(_UDPPACKET)+1] ;

  00001	68 25 04 00 00	 push	 1061			; 00000425H
  00006	8b f1		 mov	 esi, ecx
  00008	e8 00 00 00 00	 call	 ??_U@YAPAXI@Z		; operator new[]
  0000d	83 c4 04	 add	 esp, 4
  00010	89 46 2c	 mov	 DWORD PTR [esi+44], eax

; 18   : 
; 19   : 	InitializeCriticalSectionAndSpinCount(&m_LogLock, 4000);

  00013	68 a0 0f 00 00	 push	 4000			; 00000fa0H
  00018	8d 46 14	 lea	 eax, DWORD PTR [esi+20]
  0001b	50		 push	 eax
  0001c	ff 15 00 00 00
	00		 call	 DWORD PTR __imp__InitializeCriticalSectionAndSpinCount@8

; 20   : }

  00022	8b c6		 mov	 eax, esi
  00024	5e		 pop	 esi
  00025	c3		 ret	 0
??0CUdpSocket@@QAE@XZ ENDP				; CUdpSocket::CUdpSocket
_TEXT	ENDS
PUBLIC	?Initialize@CUdpSocket@@QAEHPADH@Z		; CUdpSocket::Initialize
EXTRN	__imp__WSASocketA@24:NEAR
EXTRN	__imp__htons@4:NEAR
EXTRN	__imp__inet_addr@4:NEAR
; Function compile flags: /Ogty
;	COMDAT ?Initialize@CUdpSocket@@QAEHPADH@Z
_TEXT	SEGMENT
_pIPAddr$ = 8						; size = 4
_pPort$ = 12						; size = 4
?Initialize@CUdpSocket@@QAEHPADH@Z PROC NEAR		; CUdpSocket::Initialize, COMDAT
; _this$ = ecx

; 35   : {

  00000	56		 push	 esi

; 36   : 
; 37   : 	m_SendSock = WSASocket(AF_INET, SOCK_DGRAM, IPPROTO_UDP, NULL, 0, 0);

  00001	6a 00		 push	 0
  00003	6a 00		 push	 0
  00005	6a 00		 push	 0
  00007	6a 11		 push	 17			; 00000011H
  00009	6a 02		 push	 2
  0000b	6a 02		 push	 2
  0000d	8b f1		 mov	 esi, ecx
  0000f	ff 15 00 00 00
	00		 call	 DWORD PTR __imp__WSASocketA@24

; 38   : 
; 39   : 	if(INVALID_SOCKET == m_SendSock )

  00015	83 f8 ff	 cmp	 eax, -1
  00018	89 06		 mov	 DWORD PTR [esi], eax
  0001a	75 06		 jne	 SHORT $L175223

; 40   : 	{
; 41   : 		return FALSE;

  0001c	33 c0		 xor	 eax, eax
  0001e	5e		 pop	 esi

; 49   : }

  0001f	c2 08 00	 ret	 8
$L175223:

; 42   : 	}
; 43   : 
; 44   : 	m_LogAddr.sin_family		= AF_INET;
; 45   : 	m_LogAddr.sin_port			= htons(pPort);

  00022	8b 44 24 0c	 mov	 eax, DWORD PTR _pPort$[esp]
  00026	50		 push	 eax
  00027	66 c7 46 04 02
	00		 mov	 WORD PTR [esi+4], 2
  0002d	ff 15 00 00 00
	00		 call	 DWORD PTR __imp__htons@4

; 46   : 	m_LogAddr.sin_addr.s_addr	= inet_addr(pIPAddr);

  00033	8b 4c 24 08	 mov	 ecx, DWORD PTR _pIPAddr$[esp]
  00037	51		 push	 ecx
  00038	66 89 46 06	 mov	 WORD PTR [esi+6], ax
  0003c	ff 15 00 00 00
	00		 call	 DWORD PTR __imp__inet_addr@4
  00042	89 46 08	 mov	 DWORD PTR [esi+8], eax

; 47   : 
; 48   : 	return TRUE;

  00045	b8 01 00 00 00	 mov	 eax, 1
  0004a	5e		 pop	 esi

; 49   : }

  0004b	c2 08 00	 ret	 8
?Initialize@CUdpSocket@@QAEHPADH@Z ENDP			; CUdpSocket::Initialize
_TEXT	ENDS
PUBLIC	?SendToLogPacket@CUdpSocket@@QAEXPAU_UDPPACKET@@@Z ; CUdpSocket::SendToLogPacket
EXTRN	??3@YAXPAX@Z:NEAR				; operator delete
EXTRN	__imp__EnterCriticalSection@4:NEAR
EXTRN	__imp__LeaveCriticalSection@4:NEAR
EXTRN	__imp__sendto@24:NEAR
; Function compile flags: /Ogty
;	COMDAT ?SendToLogPacket@CUdpSocket@@QAEXPAU_UDPPACKET@@@Z
_TEXT	SEGMENT
_pUdpPacket$ = 8					; size = 4
?SendToLogPacket@CUdpSocket@@QAEXPAU_UDPPACKET@@@Z PROC NEAR ; CUdpSocket::SendToLogPacket, COMDAT
; _this$ = ecx

; 56   : {

  00000	53		 push	 ebx
  00001	55		 push	 ebp
  00002	56		 push	 esi
  00003	8b d9		 mov	 ebx, ecx
  00005	57		 push	 edi

; 57   : 	EnterCriticalSection(&m_LogLock);

  00006	8d 6b 14	 lea	 ebp, DWORD PTR [ebx+20]
  00009	55		 push	 ebp
  0000a	ff 15 00 00 00
	00		 call	 DWORD PTR __imp__EnterCriticalSection@4

; 58   : 
; 59   : 		memcpy(m_lpLogBuf, pUdpPacket, sizeof(_UDPPACKET));

  00010	8b 44 24 14	 mov	 eax, DWORD PTR _pUdpPacket$[esp+12]
  00014	8b 7b 2c	 mov	 edi, DWORD PTR [ebx+44]
  00017	8b f0		 mov	 esi, eax

; 60   : 
; 61   : 		m_nSendByte = sendto(m_SendSock, m_lpLogBuf, pUdpPacket->dwSize, 0, (SOCKADDR *)&m_LogAddr, sizeof(m_LogAddr));

  00019	6a 10		 push	 16			; 00000010H
  0001b	b9 09 01 00 00	 mov	 ecx, 265		; 00000109H
  00020	f3 a5		 rep movsd
  00022	0f b7 10	 movzx	 edx, WORD PTR [eax]
  00025	8b 43 2c	 mov	 eax, DWORD PTR [ebx+44]
  00028	8d 4b 04	 lea	 ecx, DWORD PTR [ebx+4]
  0002b	51		 push	 ecx
  0002c	8b 0b		 mov	 ecx, DWORD PTR [ebx]
  0002e	6a 00		 push	 0
  00030	52		 push	 edx
  00031	50		 push	 eax
  00032	51		 push	 ecx
  00033	ff 15 00 00 00
	00		 call	 DWORD PTR __imp__sendto@24

; 62   : 
; 63   : 		if(SOCKET_ERROR == m_nSendByte) 
; 64   : 		{
; 65   : 			//
; 66   : 			//	Mr Park Add Log
; 67   : 			//
; 68   : 			//	LogEvent("(X) UDP sendto failed with error");
; 69   : 			//
; 70   : 		}
; 71   : 
; 72   : 	LeaveCriticalSection(&m_LogLock);

  00039	55		 push	 ebp
  0003a	89 43 30	 mov	 DWORD PTR [ebx+48], eax
  0003d	ff 15 00 00 00
	00		 call	 DWORD PTR __imp__LeaveCriticalSection@4

; 73   : 
; 74   : 	if(pUdpPacket) 
; 75   : 	{
; 76   : 		delete pUdpPacket;

  00043	8b 54 24 14	 mov	 edx, DWORD PTR _pUdpPacket$[esp+12]
  00047	52		 push	 edx
  00048	e8 00 00 00 00	 call	 ??3@YAXPAX@Z		; operator delete
  0004d	83 c4 04	 add	 esp, 4
  00050	5f		 pop	 edi
  00051	5e		 pop	 esi
  00052	5d		 pop	 ebp
  00053	5b		 pop	 ebx

; 77   : 		pUdpPacket	= 0x00;
; 78   : 	}
; 79   : }

  00054	c2 04 00	 ret	 4
?SendToLogPacket@CUdpSocket@@QAEXPAU_UDPPACKET@@@Z ENDP	; CUdpSocket::SendToLogPacket
_TEXT	ENDS
PUBLIC	?Log@CUdpSocket@@QAEXPAU_UDPPACKET@@@Z		; CUdpSocket::Log
; Function compile flags: /Ogty
;	COMDAT ?Log@CUdpSocket@@QAEXPAU_UDPPACKET@@@Z
_TEXT	SEGMENT
_pUDPPacket$ = 8					; size = 4
?Log@CUdpSocket@@QAEXPAU_UDPPACKET@@@Z PROC NEAR	; CUdpSocket::Log, COMDAT
; _this$ = ecx

; 86   :  	pUDPPacket->dwCommand	= LP_LOG;

  00000	8b 44 24 04	 mov	 eax, DWORD PTR _pUDPPacket$[esp-4]

; 87   : 
; 88   : 	int pLogSize = sizeof(_UDPPACKET) - sizeof(pUDPPacket->szPacket ) + sizeof(_LOG_DATA_) - sizeof(((_LPLOG_DATA_)pUDPPacket->szPacket)->szLog);
; 89   : 
; 90   : 	switch(	((_LPLOG_DATA_)pUDPPacket->szPacket)->dwFormat )

  00004	8b 90 14 02 00
	00		 mov	 edx, DWORD PTR [eax+532]
  0000a	4a		 dec	 edx
  0000b	83 fa 03	 cmp	 edx, 3
  0000e	66 c7 40 02 00
	00		 mov	 WORD PTR [eax+2], 0
  00014	77 4b		 ja	 SHORT $L175254
  00016	ff 24 95 00 00
	00 00		 jmp	 DWORD PTR $L177485[edx*4]
$L175246:

; 91   : 	{
; 92   : 	case 1:	pLogSize += sizeof(_LOG_CHARBASE_);		break;

  0001d	ba 44 02 00 00	 mov	 edx, 580		; 00000244H

; 102  : 		break;
; 103  : 	}
; 104  : 	pUDPPacket->dwSize	= pLogSize;

  00022	66 89 10	 mov	 WORD PTR [eax], dx

; 105  : 	
; 106  : 	SendToLogPacket(pUDPPacket);

  00025	89 44 24 04	 mov	 DWORD PTR _pUDPPacket$[esp-4], eax
  00029	e9 00 00 00 00	 jmp	 ?SendToLogPacket@CUdpSocket@@QAEXPAU_UDPPACKET@@@Z ; CUdpSocket::SendToLogPacket
$L175248:

; 93   : 
; 94   : 	case 2:	pLogSize += sizeof(_LOG_ITEM_);			break;

  0002e	ba 9c 02 00 00	 mov	 edx, 668		; 0000029cH

; 102  : 		break;
; 103  : 	}
; 104  : 	pUDPPacket->dwSize	= pLogSize;

  00033	66 89 10	 mov	 WORD PTR [eax], dx

; 105  : 	
; 106  : 	SendToLogPacket(pUDPPacket);

  00036	89 44 24 04	 mov	 DWORD PTR _pUDPPacket$[esp-4], eax
  0003a	e9 00 00 00 00	 jmp	 ?SendToLogPacket@CUdpSocket@@QAEXPAU_UDPPACKET@@@Z ; CUdpSocket::SendToLogPacket
$L175250:

; 95   : 
; 96   : 	case 3:	pLogSize += sizeof(_LOG_SKILL_);		break;

  0003f	ba 38 02 00 00	 mov	 edx, 568		; 00000238H

; 102  : 		break;
; 103  : 	}
; 104  : 	pUDPPacket->dwSize	= pLogSize;

  00044	66 89 10	 mov	 WORD PTR [eax], dx

; 105  : 	
; 106  : 	SendToLogPacket(pUDPPacket);

  00047	89 44 24 04	 mov	 DWORD PTR _pUDPPacket$[esp-4], eax
  0004b	e9 00 00 00 00	 jmp	 ?SendToLogPacket@CUdpSocket@@QAEXPAU_UDPPACKET@@@Z ; CUdpSocket::SendToLogPacket
$L175252:

; 97   : 
; 98   : 	case 4:	pLogSize += sizeof(_LOG_PET_);			break;

  00050	ba 54 02 00 00	 mov	 edx, 596		; 00000254H

; 102  : 		break;
; 103  : 	}
; 104  : 	pUDPPacket->dwSize	= pLogSize;

  00055	66 89 10	 mov	 WORD PTR [eax], dx

; 105  : 	
; 106  : 	SendToLogPacket(pUDPPacket);

  00058	89 44 24 04	 mov	 DWORD PTR _pUDPPacket$[esp-4], eax
  0005c	e9 00 00 00 00	 jmp	 ?SendToLogPacket@CUdpSocket@@QAEXPAU_UDPPACKET@@@Z ; CUdpSocket::SendToLogPacket
$L175254:

; 99   : 
; 100  : 	default:
; 101  : 		pLogSize += sizeof(((_LPLOG_DATA_)pUDPPacket->szPacket)->szLog);

  00061	ba 1c 04 00 00	 mov	 edx, 1052		; 0000041cH

; 102  : 		break;
; 103  : 	}
; 104  : 	pUDPPacket->dwSize	= pLogSize;

  00066	66 89 10	 mov	 WORD PTR [eax], dx

; 105  : 	
; 106  : 	SendToLogPacket(pUDPPacket);

  00069	89 44 24 04	 mov	 DWORD PTR _pUDPPacket$[esp-4], eax
  0006d	e9 00 00 00 00	 jmp	 ?SendToLogPacket@CUdpSocket@@QAEXPAU_UDPPACKET@@@Z ; CUdpSocket::SendToLogPacket
  00072	8b ff		 npad	 2
$L177485:

; 107  : }

  00074	00 00 00 00	 DD	 $L175246
  00078	00 00 00 00	 DD	 $L175248
  0007c	00 00 00 00	 DD	 $L175250
  00080	00 00 00 00	 DD	 $L175252
?Log@CUdpSocket@@QAEXPAU_UDPPACKET@@@Z ENDP		; CUdpSocket::Log
_TEXT	ENDS
PUBLIC	?InterlockedExchangePointer@@YGPAXPAPAXPAX@Z	; InterlockedExchangePointer
EXTRN	__imp__InterlockedExchange@8:NEAR
; Function compile flags: /Ogty
; File c:\program files (x86)\microsoft visual studio .net 2003\vc7\atlmfc\include\atlconv.h
;	COMDAT ?InterlockedExchangePointer@@YGPAXPAPAXPAX@Z
_TEXT	SEGMENT
_pp$ = 8						; size = 4
_pNew$ = 12						; size = 4
?InterlockedExchangePointer@@YGPAXPAPAXPAX@Z PROC NEAR	; InterlockedExchangePointer, COMDAT

; 92   : 	return( reinterpret_cast<void*>(static_cast<LONG_PTR>(::InterlockedExchange(reinterpret_cast<LONG*>(pp), static_cast<LONG>(reinterpret_cast<LONG_PTR>(pNew))))) );

  00000	ff 25 00 00 00
	00		 jmp	 DWORD PTR __imp__InterlockedExchange@8
?InterlockedExchangePointer@@YGPAXPAPAXPAX@Z ENDP	; InterlockedExchangePointer
_TEXT	ENDS
PUBLIC	?_AtlGetThreadACPFake@ATL@@YGIXZ		; ATL::_AtlGetThreadACPFake
EXTRN	__imp__GetACP@0:NEAR
EXTRN	___security_cookie:DWORD
EXTRN	@__security_check_cookie@4:NEAR
EXTRN	__imp__GetLocaleInfoA@16:NEAR
EXTRN	__imp__GetThreadLocale@0:NEAR
; Function compile flags: /Ogty
;	COMDAT ?_AtlGetThreadACPFake@ATL@@YGIXZ
_TEXT	SEGMENT
_szACP$ = -12						; size = 7
__$ArrayPad$ = -4					; size = 4
__$ReturnAddr$ = 4					; size = 4
?_AtlGetThreadACPFake@ATL@@YGIXZ PROC NEAR		; ATL::_AtlGetThreadACPFake, COMDAT

; 101  : {

  00000	83 ec 0c	 sub	 esp, 12			; 0000000cH
  00003	a1 00 00 00 00	 mov	 eax, DWORD PTR ___security_cookie
  00008	56		 push	 esi
  00009	89 44 24 0c	 mov	 DWORD PTR __$ArrayPad$[esp+16], eax

; 102  : 	UINT nACP = 0;

  0000d	33 f6		 xor	 esi, esi

; 103  : 
; 104  : 	LCID lcidThread = ::GetThreadLocale();

  0000f	ff 15 00 00 00
	00		 call	 DWORD PTR __imp__GetThreadLocale@0

; 105  : 
; 106  : 	char szACP[7];
; 107  : 	// GetLocaleInfoA will fail for a Unicode-only LCID, but those are only supported on 
; 108  : 	// Windows 2000.  Since Windows 2000 supports CP_THREAD_ACP, this code path is never
; 109  : 	// executed on Windows 2000.
; 110  : 	if (::GetLocaleInfoA(lcidThread, LOCALE_IDEFAULTANSICODEPAGE, szACP, 7) != 0)

  00015	6a 07		 push	 7
  00017	8d 4c 24 08	 lea	 ecx, DWORD PTR _szACP$[esp+20]
  0001b	51		 push	 ecx
  0001c	68 04 10 00 00	 push	 4100			; 00001004H
  00021	50		 push	 eax
  00022	ff 15 00 00 00
	00		 call	 DWORD PTR __imp__GetLocaleInfoA@16
  00028	85 c0		 test	 eax, eax
  0002a	74 21		 je	 SHORT $L177496

; 111  : 	{
; 112  : 		char* pch = szACP;
; 113  : 		while (*pch != '\0')

  0002c	8a 44 24 04	 mov	 al, BYTE PTR _szACP$[esp+16]
  00030	84 c0		 test	 al, al
  00032	8d 4c 24 04	 lea	 ecx, DWORD PTR _szACP$[esp+16]
  00036	74 15		 je	 SHORT $L177496
$L58550:

; 114  : 		{
; 115  : 			nACP *= 10;
; 116  : 			nACP += *pch++ - '0';

  00038	0f be c0	 movsx	 eax, al
  0003b	8d 14 b6	 lea	 edx, DWORD PTR [esi+esi*4]
  0003e	41		 inc	 ecx
  0003f	8d 74 50 d0	 lea	 esi, DWORD PTR [eax+edx*2-48]
  00043	8a 01		 mov	 al, BYTE PTR [ecx]
  00045	84 c0		 test	 al, al
  00047	75 ef		 jne	 SHORT $L58550

; 117  : 		}
; 118  : 	}
; 119  : 	// Use the Default ANSI Code Page if we were unable to get the thread ACP or if one does not exist.
; 120  : 	if (nACP == 0)

  00049	85 f6		 test	 esi, esi
  0004b	75 14		 jne	 SHORT $L177497
$L177496:

; 121  : 		nACP = ::GetACP();

  0004d	ff 15 00 00 00
	00		 call	 DWORD PTR __imp__GetACP@0
  00053	5e		 pop	 esi

; 122  : 
; 123  : 	return nACP;
; 124  : }

  00054	8b 4c 24 08	 mov	 ecx, DWORD PTR __$ArrayPad$[esp+12]
  00058	e8 00 00 00 00	 call	 @__security_check_cookie@4
  0005d	83 c4 0c	 add	 esp, 12			; 0000000cH
  00060	c3		 ret	 0
$L177497:
  00061	8b 4c 24 0c	 mov	 ecx, DWORD PTR __$ArrayPad$[esp+16]
  00065	8b c6		 mov	 eax, esi
  00067	5e		 pop	 esi
  00068	e8 00 00 00 00	 call	 @__security_check_cookie@4
  0006d	83 c4 0c	 add	 esp, 12			; 0000000cH
  00070	c3		 ret	 0
?_AtlGetThreadACPFake@ATL@@YGIXZ ENDP			; ATL::_AtlGetThreadACPFake
_TEXT	ENDS
PUBLIC	?_AtlGetThreadACPReal@ATL@@YGIXZ		; ATL::_AtlGetThreadACPReal
; Function compile flags: /Ogty
;	COMDAT ?_AtlGetThreadACPReal@ATL@@YGIXZ
_TEXT	SEGMENT
?_AtlGetThreadACPReal@ATL@@YGIXZ PROC NEAR		; ATL::_AtlGetThreadACPReal, COMDAT

; 128  : 	return( CP_THREAD_ACP );

  00000	b8 03 00 00 00	 mov	 eax, 3

; 129  : }

  00005	c3		 ret	 0
?_AtlGetThreadACPReal@ATL@@YGIXZ ENDP			; ATL::_AtlGetThreadACPReal
_TEXT	ENDS
EXTRN	__imp__GetVersionExA@4:NEAR
; Function compile flags: /Ogty
;	COMDAT ?_AtlGetThreadACPThunk@ATL@@YGIXZ
_TEXT	SEGMENT
_ver$ = -152						; size = 148
__$ArrayPad$ = -4					; size = 4
__$ReturnAddr$ = 4					; size = 4
?_AtlGetThreadACPThunk@ATL@@YGIXZ PROC NEAR		; ATL::_AtlGetThreadACPThunk, COMDAT

; 134  : {

  00000	81 ec 98 00 00
	00		 sub	 esp, 152		; 00000098H
  00006	a1 00 00 00 00	 mov	 eax, DWORD PTR ___security_cookie
  0000b	89 84 24 94 00
	00 00		 mov	 DWORD PTR __$ArrayPad$[esp+152], eax

; 135  : 	OSVERSIONINFO ver;
; 136  : 	ATLGETTHREADACP pfnGetThreadACP;
; 137  : 
; 138  : 	ver.dwOSVersionInfoSize = sizeof( ver );
; 139  : 	::GetVersionEx( &ver );

  00012	8d 04 24	 lea	 eax, DWORD PTR _ver$[esp+152]
  00015	50		 push	 eax
  00016	c7 44 24 04 94
	00 00 00	 mov	 DWORD PTR _ver$[esp+156], 148 ; 00000094H
  0001e	ff 15 00 00 00
	00		 call	 DWORD PTR __imp__GetVersionExA@4

; 140  : 	if( (ver.dwPlatformId == VER_PLATFORM_WIN32_NT) && (ver.dwMajorVersion >= 5) )

  00024	83 7c 24 10 02	 cmp	 DWORD PTR _ver$[esp+168], 2
  00029	75 0c		 jne	 SHORT $L58560
  0002b	83 7c 24 04 05	 cmp	 DWORD PTR _ver$[esp+156], 5

; 141  : 	{
; 142  : 		// On Win2K, CP_THREAD_ACP is supported
; 143  : 		pfnGetThreadACP = _AtlGetThreadACPReal;

  00030	b8 00 00 00 00	 mov	 eax, OFFSET FLAT:?_AtlGetThreadACPReal@ATL@@YGIXZ ; ATL::_AtlGetThreadACPReal
  00035	73 05		 jae	 SHORT $L58561
$L58560:

; 144  : 	}
; 145  : 	else
; 146  : 	{
; 147  : 		pfnGetThreadACP = _AtlGetThreadACPFake;

  00037	b8 00 00 00 00	 mov	 eax, OFFSET FLAT:?_AtlGetThreadACPFake@ATL@@YGIXZ ; ATL::_AtlGetThreadACPFake
$L58561:

; 148  : 	}
; 149  : 	InterlockedExchangePointer( reinterpret_cast< void** >(&g_pfnGetThreadACP), pfnGetThreadACP );

  0003c	50		 push	 eax
  0003d	68 00 00 00 00	 push	 OFFSET FLAT:?g_pfnGetThreadACP@ATL@@3P6GIXZA ; ATL::g_pfnGetThreadACP
  00042	ff 15 00 00 00
	00		 call	 DWORD PTR __imp__InterlockedExchange@8

; 150  : 
; 151  : 	return( g_pfnGetThreadACP() );

  00048	ff 15 00 00 00
	00		 call	 DWORD PTR ?g_pfnGetThreadACP@ATL@@3P6GIXZA ; ATL::g_pfnGetThreadACP

; 152  : }

  0004e	8b 8c 24 94 00
	00 00		 mov	 ecx, DWORD PTR __$ArrayPad$[esp+152]
  00055	e8 00 00 00 00	 call	 @__security_check_cookie@4
  0005a	81 c4 98 00 00
	00		 add	 esp, 152		; 00000098H
  00060	c3		 ret	 0
?_AtlGetThreadACPThunk@ATL@@YGIXZ ENDP			; ATL::_AtlGetThreadACPThunk
_TEXT	ENDS
PUBLIC	?_AtlGetConversionACP@ATL@@YGIXZ		; ATL::_AtlGetConversionACP
; Function compile flags: /Ogty
;	COMDAT ?_AtlGetConversionACP@ATL@@YGIXZ
_TEXT	SEGMENT
?_AtlGetConversionACP@ATL@@YGIXZ PROC NEAR		; ATL::_AtlGetConversionACP, COMDAT

; 158  : 	return( g_pfnGetThreadACP() );

  00000	ff 25 00 00 00
	00		 jmp	 DWORD PTR ?g_pfnGetThreadACP@ATL@@3P6GIXZA ; ATL::g_pfnGetThreadACP
?_AtlGetConversionACP@ATL@@YGIXZ ENDP			; ATL::_AtlGetConversionACP
_TEXT	ENDS
PUBLIC	??0CAtlException@ATL@@QAE@J@Z			; ATL::CAtlException::CAtlException
; Function compile flags: /Ogty
; File c:\program files (x86)\microsoft visual studio .net 2003\vc7\atlmfc\include\atlexcept.h
;	COMDAT ??0CAtlException@ATL@@QAE@J@Z
_TEXT	SEGMENT
_hr$ = 8						; size = 4
??0CAtlException@ATL@@QAE@J@Z PROC NEAR			; ATL::CAtlException::CAtlException, COMDAT
; _this$ = ecx

; 40   : 	{

  00000	8b c1		 mov	 eax, ecx
  00002	8b 4c 24 04	 mov	 ecx, DWORD PTR _hr$[esp-4]
  00006	89 08		 mov	 DWORD PTR [eax], ecx

; 41   : 	}

  00008	c2 04 00	 ret	 4
??0CAtlException@ATL@@QAE@J@Z ENDP			; ATL::CAtlException::CAtlException
_TEXT	ENDS
PUBLIC	?AtlThrow@ATL@@YGXJ@Z				; ATL::AtlThrow
PUBLIC	__TI1?AVCAtlException@ATL@@
PUBLIC	__CTA1?AVCAtlException@ATL@@
PUBLIC	??_R0?AVCAtlException@ATL@@@8			; ATL::CAtlException `RTTI Type Descriptor'
PUBLIC	__CT??_R0?AVCAtlException@ATL@@@84
EXTRN	__CxxThrowException@8:NEAR
EXTRN	??_7type_info@@6B@:DWORD			; type_info::`vftable'
;	COMDAT __TI1?AVCAtlException@ATL@@
xdata$x	SEGMENT
__TI1?AVCAtlException@ATL@@ DD 00H
	DD	00H
	DD	00H
	DD	FLAT:__CTA1?AVCAtlException@ATL@@
xdata$x	ENDS
;	COMDAT __CTA1?AVCAtlException@ATL@@
xdata$x	SEGMENT
__CTA1?AVCAtlException@ATL@@ DD 01H
	DD	FLAT:__CT??_R0?AVCAtlException@ATL@@@84
xdata$x	ENDS
;	COMDAT __CT??_R0?AVCAtlException@ATL@@@84
xdata$x	SEGMENT
__CT??_R0?AVCAtlException@ATL@@@84 DD 00H
	DD	FLAT:??_R0?AVCAtlException@ATL@@@8
	DD	00H
	DD	0ffffffffH
	ORG $+4
	DD	04H
	DD	00H
xdata$x	ENDS
;	COMDAT ??_R0?AVCAtlException@ATL@@@8
_DATA	SEGMENT
??_R0?AVCAtlException@ATL@@@8 DD FLAT:??_7type_info@@6B@ ; ATL::CAtlException `RTTI Type Descriptor'
	DD	00H
	DB	'.?AVCAtlException@ATL@@', 00H
; Function compile flags: /Ogty
_DATA	ENDS
;	COMDAT ?AtlThrow@ATL@@YGXJ@Z
_TEXT	SEGMENT
$T177522 = 8						; size = 4
_hr$ = 8						; size = 4
?AtlThrow@ATL@@YGXJ@Z PROC NEAR				; ATL::AtlThrow, COMDAT

; 62   : 	ATLTRACE(atlTraceException, 0, _T("AtlThrow: hr = 0x%x\n"), hr );
; 63   : #ifdef _AFX
; 64   : 	if( hr == E_OUTOFMEMORY )
; 65   : 	{
; 66   : 		AfxThrowMemoryException();
; 67   : 	}
; 68   : 	else
; 69   : 	{
; 70   : 		AfxThrowOleException( hr );
; 71   : 	}
; 72   : #else
; 73   : 	throw CAtlException( hr );

  00000	8b 44 24 04	 mov	 eax, DWORD PTR _hr$[esp-4]
  00004	68 00 00 00 00	 push	 OFFSET FLAT:__TI1?AVCAtlException@ATL@@
  00009	8d 4c 24 08	 lea	 ecx, DWORD PTR $T177522[esp]
  0000d	51		 push	 ecx
  0000e	89 44 24 0c	 mov	 DWORD PTR $T177522[esp+4], eax
  00012	e8 00 00 00 00	 call	 __CxxThrowException@8
$L177529:
$L177528:
  00017	cc		 int	 3
?AtlThrow@ATL@@YGXJ@Z ENDP				; ATL::AtlThrow
_TEXT	ENDS
PUBLIC	?_AtlGetStringResourceImage@ATL@@YAPBUATLSTRINGRESOURCEIMAGE@1@PAUHINSTANCE__@@PAUHRSRC__@@I@Z ; ATL::_AtlGetStringResourceImage
EXTRN	__imp__LockResource@4:NEAR
EXTRN	__imp__LoadResource@8:NEAR
EXTRN	__imp__SizeofResource@8:NEAR
; Function compile flags: /Ogty
; File c:\program files (x86)\microsoft visual studio .net 2003\vc7\atlmfc\include\atlcore.h
;	COMDAT ?_AtlGetStringResourceImage@ATL@@YAPBUATLSTRINGRESOURCEIMAGE@1@PAUHINSTANCE__@@PAUHRSRC__@@I@Z
_TEXT	SEGMENT
_hInstance$ = 8						; size = 4
_hResource$ = 12					; size = 4
_id$ = 16						; size = 4
?_AtlGetStringResourceImage@ATL@@YAPBUATLSTRINGRESOURCEIMAGE@1@PAUHINSTANCE__@@PAUHRSRC__@@I@Z PROC NEAR ; ATL::_AtlGetStringResourceImage, COMDAT

; 239  : {

  00000	53		 push	 ebx

; 240  : 	const ATLSTRINGRESOURCEIMAGE* pImage;
; 241  : 	const ATLSTRINGRESOURCEIMAGE* pImageEnd;
; 242  : 	ULONG nResourceSize;
; 243  : 	HGLOBAL hGlobal;
; 244  : 	UINT iIndex;
; 245  : 
; 246  : 	hGlobal = ::LoadResource( hInstance, hResource );

  00001	8b 5c 24 08	 mov	 ebx, DWORD PTR _hInstance$[esp]
  00005	57		 push	 edi
  00006	8b 7c 24 10	 mov	 edi, DWORD PTR _hResource$[esp+4]
  0000a	57		 push	 edi
  0000b	53		 push	 ebx
  0000c	ff 15 00 00 00
	00		 call	 DWORD PTR __imp__LoadResource@8

; 247  : 	if( hGlobal == NULL )

  00012	85 c0		 test	 eax, eax
  00014	75 03		 jne	 SHORT $L59408
  00016	5f		 pop	 edi
  00017	5b		 pop	 ebx

; 272  : 	{
; 273  : 		return( NULL );
; 274  : 	}
; 275  : 
; 276  : 	return( pImage );
; 277  : }

  00018	c3		 ret	 0
$L59408:
  00019	56		 push	 esi

; 248  : 	{
; 249  : 		return( NULL );
; 250  : 	}
; 251  : 
; 252  : 	pImage = (const ATLSTRINGRESOURCEIMAGE*)::LockResource( hGlobal );

  0001a	50		 push	 eax
  0001b	ff 15 00 00 00
	00		 call	 DWORD PTR __imp__LockResource@4
  00021	8b f0		 mov	 esi, eax

; 253  : 	if( pImage == NULL )

  00023	85 f6		 test	 esi, esi
  00025	75 06		 jne	 SHORT $L59410
$L177535:
  00027	5e		 pop	 esi
  00028	5f		 pop	 edi

; 254  : 	{
; 255  : 		return( NULL );

  00029	33 c0		 xor	 eax, eax
  0002b	5b		 pop	 ebx

; 272  : 	{
; 273  : 		return( NULL );
; 274  : 	}
; 275  : 
; 276  : 	return( pImage );
; 277  : }

  0002c	c3		 ret	 0
$L59410:

; 256  : 	}
; 257  : 
; 258  : 	nResourceSize = ::SizeofResource( hInstance, hResource );

  0002d	57		 push	 edi
  0002e	53		 push	 ebx
  0002f	ff 15 00 00 00
	00		 call	 DWORD PTR __imp__SizeofResource@8

; 259  : 	pImageEnd = (const ATLSTRINGRESOURCEIMAGE*)(LPBYTE( pImage )+nResourceSize);
; 260  : 	iIndex = id&0x000f;

  00035	8b 4c 24 18	 mov	 ecx, DWORD PTR _id$[esp+8]
  00039	03 c6		 add	 eax, esi
  0003b	83 e1 0f	 and	 ecx, 15			; 0000000fH

; 261  : 
; 262  : 	while( (iIndex > 0) && (pImage < pImageEnd) )

  0003e	76 0e		 jbe	 SHORT $L59414
$L59413:
  00040	3b f0		 cmp	 esi, eax
  00042	73 e3		 jae	 SHORT $L177535

; 263  : 	{
; 264  : 		pImage = (const ATLSTRINGRESOURCEIMAGE*)(LPBYTE( pImage )+(sizeof( ATLSTRINGRESOURCEIMAGE )+(pImage->nLength*sizeof( WCHAR ))));
; 265  : 		iIndex--;

  00044	49		 dec	 ecx
  00045	0f b7 16	 movzx	 edx, WORD PTR [esi]
  00048	8d 74 56 02	 lea	 esi, DWORD PTR [esi+edx*2+2]
  0004c	75 f2		 jne	 SHORT $L59413
$L59414:

; 266  : 	}
; 267  : 	if( pImage >= pImageEnd )

  0004e	3b f0		 cmp	 esi, eax

; 268  : 	{
; 269  : 		return( NULL );

  00050	73 d5		 jae	 SHORT $L177535

; 270  : 	}
; 271  : 	if( pImage->nLength == 0 )

  00052	66 8b 06	 mov	 ax, WORD PTR [esi]
  00055	66 f7 d8	 neg	 ax
  00058	1b c0		 sbb	 eax, eax
  0005a	23 c6		 and	 eax, esi
  0005c	5e		 pop	 esi
  0005d	5f		 pop	 edi
  0005e	5b		 pop	 ebx

; 272  : 	{
; 273  : 		return( NULL );
; 274  : 	}
; 275  : 
; 276  : 	return( pImage );
; 277  : }

  0005f	c3		 ret	 0
?_AtlGetStringResourceImage@ATL@@YAPBUATLSTRINGRESOURCEIMAGE@1@PAUHINSTANCE__@@PAUHRSRC__@@I@Z ENDP ; ATL::_AtlGetStringResourceImage
_TEXT	ENDS
PUBLIC	?AtlGetStringResourceImage@ATL@@YAPBUATLSTRINGRESOURCEIMAGE@1@PAUHINSTANCE__@@I@Z ; ATL::AtlGetStringResourceImage
EXTRN	__imp__FindResourceA@12:NEAR
; Function compile flags: /Ogty
;	COMDAT ?AtlGetStringResourceImage@ATL@@YAPBUATLSTRINGRESOURCEIMAGE@1@PAUHINSTANCE__@@I@Z
_TEXT	SEGMENT
_hInstance$ = 8						; size = 4
_id$ = 12						; size = 4
?AtlGetStringResourceImage@ATL@@YAPBUATLSTRINGRESOURCEIMAGE@1@PAUHINSTANCE__@@I@Z PROC NEAR ; ATL::AtlGetStringResourceImage, COMDAT

; 280  : {

  00000	56		 push	 esi

; 281  : 	HRSRC hResource;
; 282  : 
; 283  : 	hResource = ::FindResource( hInstance, MAKEINTRESOURCE( ((id>>4)+1) ), RT_STRING );

  00001	8b 74 24 0c	 mov	 esi, DWORD PTR _id$[esp]
  00005	8b c6		 mov	 eax, esi
  00007	c1 e8 04	 shr	 eax, 4
  0000a	57		 push	 edi
  0000b	8b 7c 24 0c	 mov	 edi, DWORD PTR _hInstance$[esp+4]
  0000f	40		 inc	 eax
  00010	0f b7 c8	 movzx	 ecx, ax
  00013	6a 06		 push	 6
  00015	51		 push	 ecx
  00016	57		 push	 edi
  00017	ff 15 00 00 00
	00		 call	 DWORD PTR __imp__FindResourceA@12

; 284  : 	if( hResource == NULL )

  0001d	85 c0		 test	 eax, eax
  0001f	75 03		 jne	 SHORT $L59431
  00021	5f		 pop	 edi
  00022	5e		 pop	 esi

; 290  : }

  00023	c3		 ret	 0
$L59431:

; 285  : 	{
; 286  : 		return( NULL );
; 287  : 	}
; 288  : 
; 289  : 	return _AtlGetStringResourceImage( hInstance, hResource, id );

  00024	56		 push	 esi
  00025	50		 push	 eax
  00026	57		 push	 edi
  00027	e8 00 00 00 00	 call	 ?_AtlGetStringResourceImage@ATL@@YAPBUATLSTRINGRESOURCEIMAGE@1@PAUHINSTANCE__@@PAUHRSRC__@@I@Z ; ATL::_AtlGetStringResourceImage
  0002c	83 c4 0c	 add	 esp, 12			; 0000000cH
  0002f	5f		 pop	 edi
  00030	5e		 pop	 esi

; 290  : }

  00031	c3		 ret	 0
?AtlGetStringResourceImage@ATL@@YAPBUATLSTRINGRESOURCEIMAGE@1@PAUHINSTANCE__@@I@Z ENDP ; ATL::AtlGetStringResourceImage
_TEXT	ENDS
PUBLIC	?AtlGetStringResourceImage@ATL@@YAPBUATLSTRINGRESOURCEIMAGE@1@PAUHINSTANCE__@@IG@Z ; ATL::AtlGetStringResourceImage
EXTRN	__imp__FindResourceExA@16:NEAR
; Function compile flags: /Ogty
;	COMDAT ?AtlGetStringResourceImage@ATL@@YAPBUATLSTRINGRESOURCEIMAGE@1@PAUHINSTANCE__@@IG@Z
_TEXT	SEGMENT
_hInstance$ = 8						; size = 4
_id$ = 12						; size = 4
_wLanguage$ = 16					; size = 2
?AtlGetStringResourceImage@ATL@@YAPBUATLSTRINGRESOURCEIMAGE@1@PAUHINSTANCE__@@IG@Z PROC NEAR ; ATL::AtlGetStringResourceImage, COMDAT

; 294  : 	HRSRC hResource;
; 295  : 
; 296  : 	hResource = ::FindResourceEx( hInstance, RT_STRING, MAKEINTRESOURCE( ((id>>4)+1) ), wLanguage );

  00000	8b 44 24 0c	 mov	 eax, DWORD PTR _wLanguage$[esp-4]
  00004	56		 push	 esi
  00005	8b 74 24 0c	 mov	 esi, DWORD PTR _id$[esp]
  00009	8b ce		 mov	 ecx, esi
  0000b	57		 push	 edi
  0000c	8b 7c 24 0c	 mov	 edi, DWORD PTR _hInstance$[esp+4]
  00010	c1 e9 04	 shr	 ecx, 4
  00013	41		 inc	 ecx
  00014	50		 push	 eax
  00015	0f b7 d1	 movzx	 edx, cx
  00018	52		 push	 edx
  00019	6a 06		 push	 6
  0001b	57		 push	 edi
  0001c	ff 15 00 00 00
	00		 call	 DWORD PTR __imp__FindResourceExA@16

; 297  : 	if( hResource == NULL )

  00022	85 c0		 test	 eax, eax
  00024	75 03		 jne	 SHORT $L59445
  00026	5f		 pop	 edi
  00027	5e		 pop	 esi

; 303  : }

  00028	c3		 ret	 0
$L59445:

; 298  : 	{
; 299  : 		return( NULL );
; 300  : 	}
; 301  : 
; 302  : 	return _AtlGetStringResourceImage( hInstance, hResource, id );

  00029	56		 push	 esi
  0002a	50		 push	 eax
  0002b	57		 push	 edi
  0002c	e8 00 00 00 00	 call	 ?_AtlGetStringResourceImage@ATL@@YAPBUATLSTRINGRESOURCEIMAGE@1@PAUHINSTANCE__@@PAUHRSRC__@@I@Z ; ATL::_AtlGetStringResourceImage
  00031	83 c4 0c	 add	 esp, 12			; 0000000cH
  00034	5f		 pop	 edi
  00035	5e		 pop	 esi

; 303  : }

  00036	c3		 ret	 0
?AtlGetStringResourceImage@ATL@@YAPBUATLSTRINGRESOURCEIMAGE@1@PAUHINSTANCE__@@IG@Z ENDP ; ATL::AtlGetStringResourceImage
_TEXT	ENDS
PUBLIC	?AtlFindStringResourceInstance@ATL@@YAPAUHINSTANCE__@@IG@Z ; ATL::AtlFindStringResourceInstance
EXTRN	?GetHInstanceAt@CAtlBaseModule@ATL@@QAEPAUHINSTANCE__@@H@Z:NEAR ; ATL::CAtlBaseModule::GetHInstanceAt
EXTRN	?_AtlBaseModule@ATL@@3VCAtlBaseModule@1@A:BYTE	; ATL::_AtlBaseModule
; Function compile flags: /Ogty
;	COMDAT ?AtlFindStringResourceInstance@ATL@@YAPAUHINSTANCE__@@IG@Z
_TEXT	SEGMENT
_nID$ = 8						; size = 4
_wLanguage$ = 12					; size = 2
?AtlFindStringResourceInstance@ATL@@YAPAUHINSTANCE__@@IG@Z PROC NEAR ; ATL::AtlFindStringResourceInstance, COMDAT

; 380  : {

  00000	53		 push	 ebx
  00001	55		 push	 ebp
  00002	56		 push	 esi
  00003	57		 push	 edi

; 381  : 	const ATLSTRINGRESOURCEIMAGE* p = NULL;

  00004	33 ff		 xor	 edi, edi

; 382  : 	HINSTANCE hInst = _AtlBaseModule.GetHInstanceAt(0);

  00006	57		 push	 edi
  00007	b9 00 00 00 00	 mov	 ecx, OFFSET FLAT:?_AtlBaseModule@ATL@@3VCAtlBaseModule@1@A
  0000c	e8 00 00 00 00	 call	 ?GetHInstanceAt@CAtlBaseModule@ATL@@QAEPAUHINSTANCE__@@H@Z ; ATL::CAtlBaseModule::GetHInstanceAt
  00011	8b f0		 mov	 esi, eax

; 383  : 
; 384  : 	for (int i = 1; hInst != NULL && p == NULL; hInst = _AtlBaseModule.GetHInstanceAt(i++))

  00013	85 f6		 test	 esi, esi
  00015	bd 01 00 00 00	 mov	 ebp, 1
  0001a	74 47		 je	 SHORT $L59538
  0001c	8b 5c 24 14	 mov	 ebx, DWORD PTR _nID$[esp+12]
$L59536:
  00020	85 ff		 test	 edi, edi
  00022	75 3f		 jne	 SHORT $L59538

; 385  : 	{
; 386  : 		p = AtlGetStringResourceImage(hInst, nID, wLanguage);

  00024	8b 44 24 18	 mov	 eax, DWORD PTR _wLanguage$[esp+12]
  00028	8b cb		 mov	 ecx, ebx
  0002a	c1 e9 04	 shr	 ecx, 4
  0002d	41		 inc	 ecx
  0002e	50		 push	 eax
  0002f	0f b7 d1	 movzx	 edx, cx
  00032	52		 push	 edx
  00033	6a 06		 push	 6
  00035	56		 push	 esi
  00036	ff 15 00 00 00
	00		 call	 DWORD PTR __imp__FindResourceExA@16
  0003c	85 c0		 test	 eax, eax
  0003e	74 11		 je	 SHORT $L177554
$L177549:
  00040	53		 push	 ebx
  00041	50		 push	 eax
  00042	56		 push	 esi
  00043	e8 00 00 00 00	 call	 ?_AtlGetStringResourceImage@ATL@@YAPBUATLSTRINGRESOURCEIMAGE@1@PAUHINSTANCE__@@PAUHRSRC__@@I@Z ; ATL::_AtlGetStringResourceImage
  00048	8b f8		 mov	 edi, eax
  0004a	83 c4 0c	 add	 esp, 12			; 0000000cH

; 387  : 		if (p != NULL)

  0004d	85 ff		 test	 edi, edi
  0004f	75 19		 jne	 SHORT $L177552
$L177554:

; 383  : 
; 384  : 	for (int i = 1; hInst != NULL && p == NULL; hInst = _AtlBaseModule.GetHInstanceAt(i++))

  00051	55		 push	 ebp
  00052	b9 00 00 00 00	 mov	 ecx, OFFSET FLAT:?_AtlBaseModule@ATL@@3VCAtlBaseModule@1@A
  00057	e8 00 00 00 00	 call	 ?GetHInstanceAt@CAtlBaseModule@ATL@@QAEPAUHINSTANCE__@@H@Z ; ATL::CAtlBaseModule::GetHInstanceAt
  0005c	8b f0		 mov	 esi, eax
  0005e	45		 inc	 ebp
  0005f	85 f6		 test	 esi, esi
  00061	75 bd		 jne	 SHORT $L59536
$L59538:
  00063	5f		 pop	 edi
  00064	5e		 pop	 esi
  00065	5d		 pop	 ebp

; 389  : 	}
; 390  : 
; 391  : 	return NULL;

  00066	33 c0		 xor	 eax, eax
  00068	5b		 pop	 ebx

; 392  : }

  00069	c3		 ret	 0
$L177552:
  0006a	5f		 pop	 edi

; 388  : 			return hInst;

  0006b	8b c6		 mov	 eax, esi
  0006d	5e		 pop	 esi
  0006e	5d		 pop	 ebp
  0006f	5b		 pop	 ebx

; 392  : }

  00070	c3		 ret	 0
?AtlFindStringResourceInstance@ATL@@YAPAUHINSTANCE__@@IG@Z ENDP ; ATL::AtlFindStringResourceInstance
_TEXT	ENDS
PUBLIC	??0const_iterator@?$_Tree@V?$_Tmap_traits@EPAUtagTMAGIC@@U?$less@E@std@@V?$allocator@U?$pair@$$CBEPAUtagTMAGIC@@@std@@@3@$0A@@std@@@std@@QAE@XZ ; std::_Tree<std::_Tmap_traits<unsigned char,tagTMAGIC *,std::less<unsigned char>,std::allocator<std::pair<unsigned char const ,tagTMAGIC *> >,0> >::const_iterator::const_iterator
; Function compile flags: /Ogty
; File c:\program files (x86)\microsoft visual studio .net 2003\vc7\include\xtree
;	COMDAT ??0const_iterator@?$_Tree@V?$_Tmap_traits@EPAUtagTMAGIC@@U?$less@E@std@@V?$allocator@U?$pair@$$CBEPAUtagTMAGIC@@@std@@@3@$0A@@std@@@std@@QAE@XZ
_TEXT	SEGMENT
??0const_iterator@?$_Tree@V?$_Tmap_traits@EPAUtagTMAGIC@@U?$less@E@std@@V?$allocator@U?$pair@$$CBEPAUtagTMAGIC@@@std@@@3@$0A@@std@@@std@@QAE@XZ PROC NEAR ; std::_Tree<std::_Tmap_traits<unsigned char,tagTMAGIC *,std::less<unsigned char>,std::allocator<std::pair<unsigned char const ,tagTMAGIC *> >,0> >::const_iterator::const_iterator, COMDAT
; _this$ = ecx

; 193  : 			{	// construct with null node pointer

  00000	8b c1		 mov	 eax, ecx
  00002	c7 00 00 00 00
	00		 mov	 DWORD PTR [eax], 0

; 194  : 			}

  00008	c3		 ret	 0
??0const_iterator@?$_Tree@V?$_Tmap_traits@EPAUtagTMAGIC@@U?$less@E@std@@V?$allocator@U?$pair@$$CBEPAUtagTMAGIC@@@std@@@3@$0A@@std@@@std@@QAE@XZ ENDP ; std::_Tree<std::_Tmap_traits<unsigned char,tagTMAGIC *,std::less<unsigned char>,std::allocator<std::pair<unsigned char const ,tagTMAGIC *> >,0> >::const_iterator::const_iterator
_TEXT	ENDS
PUBLIC	??8const_iterator@?$_Tree@V?$_Tmap_traits@EPAUtagTMAGIC@@U?$less@E@std@@V?$allocator@U?$pair@$$CBEPAUtagTMAGIC@@@std@@@3@$0A@@std@@@std@@QBE_NABV012@@Z ; std::_Tree<std::_Tmap_traits<unsigned char,tagTMAGIC *,std::less<unsigned char>,std::allocator<std::pair<unsigned char const ,tagTMAGIC *> >,0> >::const_iterator::operator==
; Function compile flags: /Ogty
;	COMDAT ??8const_iterator@?$_Tree@V?$_Tmap_traits@EPAUtagTMAGIC@@U?$less@E@std@@V?$allocator@U?$pair@$$CBEPAUtagTMAGIC@@@std@@@3@$0A@@std@@@std@@QBE_NABV012@@Z
_TEXT	SEGMENT
__Right$ = 8						; size = 4
??8const_iterator@?$_Tree@V?$_Tmap_traits@EPAUtagTMAGIC@@U?$less@E@std@@V?$allocator@U?$pair@$$CBEPAUtagTMAGIC@@@std@@@3@$0A@@std@@@std@@QBE_NABV012@@Z PROC NEAR ; std::_Tree<std::_Tmap_traits<unsigned char,tagTMAGIC *,std::less<unsigned char>,std::allocator<std::pair<unsigned char const ,tagTMAGIC *> >,0> >::const_iterator::operator==, COMDAT
; _this$ = ecx

; 241  : 			return (_Ptr == _Right._Ptr);

  00000	8b 01		 mov	 eax, DWORD PTR [ecx]
  00002	8b 4c 24 04	 mov	 ecx, DWORD PTR __Right$[esp-4]
  00006	2b 01		 sub	 eax, DWORD PTR [ecx]
  00008	f7 d8		 neg	 eax
  0000a	1b c0		 sbb	 eax, eax
  0000c	40		 inc	 eax

; 242  : 			}

  0000d	c2 04 00	 ret	 4
??8const_iterator@?$_Tree@V?$_Tmap_traits@EPAUtagTMAGIC@@U?$less@E@std@@V?$allocator@U?$pair@$$CBEPAUtagTMAGIC@@@std@@@3@$0A@@std@@@std@@QBE_NABV012@@Z ENDP ; std::_Tree<std::_Tmap_traits<unsigned char,tagTMAGIC *,std::less<unsigned char>,std::allocator<std::pair<unsigned char const ,tagTMAGIC *> >,0> >::const_iterator::operator==
_TEXT	ENDS
PUBLIC	?_Left@?$_Tree@V?$_Tmap_traits@EPAUtagTMAGIC@@U?$less@E@std@@V?$allocator@U?$pair@$$CBEPAUtagTMAGIC@@@std@@@3@$0A@@std@@@std@@KAAAPAU_Node@?$_Tree_nod@V?$_Tmap_traits@EPAUtagTMAGIC@@U?$less@E@std@@V?$allocator@U?$pair@$$CBEPAUtagTMAGIC@@@std@@@3@$0A@@std@@@2@PAU342@@Z ; std::_Tree<std::_Tmap_traits<unsigned char,tagTMAGIC *,std::less<unsigned char>,std::allocator<std::pair<unsigned char const ,tagTMAGIC *> >,0> >::_Left
; Function compile flags: /Ogty
;	COMDAT ?_Left@?$_Tree@V?$_Tmap_traits@EPAUtagTMAGIC@@U?$less@E@std@@V?$allocator@U?$pair@$$CBEPAUtagTMAGIC@@@std@@@3@$0A@@std@@@std@@KAAAPAU_Node@?$_Tree_nod@V?$_Tmap_traits@EPAUtagTMAGIC@@U?$less@E@std@@V?$allocator@U?$pair@$$CBEPAUtagTMAGIC@@@std@@@3@$0A@@std@@@2@PAU342@@Z
_TEXT	SEGMENT
__Pnode$ = 8						; size = 4
?_Left@?$_Tree@V?$_Tmap_traits@EPAUtagTMAGIC@@U?$less@E@std@@V?$allocator@U?$pair@$$CBEPAUtagTMAGIC@@@std@@@3@$0A@@std@@@std@@KAAAPAU_Node@?$_Tree_nod@V?$_Tmap_traits@EPAUtagTMAGIC@@U?$less@E@std@@V?$allocator@U?$pair@$$CBEPAUtagTMAGIC@@@std@@@3@$0A@@std@@@2@PAU342@@Z PROC NEAR ; std::_Tree<std::_Tmap_traits<unsigned char,tagTMAGIC *,std::less<unsigned char>,std::allocator<std::pair<unsigned char const ,tagTMAGIC *> >,0> >::_Left, COMDAT

; 147  : 		return ((_Nodepref)(*_Pnode)._Left);

  00000	8b 44 24 04	 mov	 eax, DWORD PTR __Pnode$[esp-4]

; 148  : 		}

  00004	c3		 ret	 0
?_Left@?$_Tree@V?$_Tmap_traits@EPAUtagTMAGIC@@U?$less@E@std@@V?$allocator@U?$pair@$$CBEPAUtagTMAGIC@@@std@@@3@$0A@@std@@@std@@KAAAPAU_Node@?$_Tree_nod@V?$_Tmap_traits@EPAUtagTMAGIC@@U?$less@E@std@@V?$allocator@U?$pair@$$CBEPAUtagTMAGIC@@@std@@@3@$0A@@std@@@2@PAU342@@Z ENDP ; std::_Tree<std::_Tmap_traits<unsigned char,tagTMAGIC *,std::less<unsigned char>,std::allocator<std::pair<unsigned char const ,tagTMAGIC *> >,0> >::_Left
_TEXT	ENDS
PUBLIC	?_Myval@?$_Tree@V?$_Tmap_traits@EPAUtagTMAGIC@@U?$less@E@std@@V?$allocator@U?$pair@$$CBEPAUtagTMAGIC@@@std@@@3@$0A@@std@@@std@@KAAAU?$pair@$$CBEPAUtagTMAGIC@@@2@PAU_Node@?$_Tree_nod@V?$_Tmap_traits@EPAUtagTMAGIC@@U?$less@E@std@@V?$allocator@U?$pair@$$CBEPAUtagTMAGIC@@@std@@@3@$0A@@std@@@2@@Z ; std::_Tree<std::_Tmap_traits<unsigned char,tagTMAGIC *,std::less<unsigned char>,std::allocator<std::pair<unsigned char const ,tagTMAGIC *> >,0> >::_Myval
; Function compile flags: /Ogty
;	COMDAT ?_Myval@?$_Tree@V?$_Tmap_traits@EPAUtagTMAGIC@@U?$less@E@std@@V?$allocator@U?$pair@$$CBEPAUtagTMAGIC@@@std@@@3@$0A@@std@@@std@@KAAAU?$pair@$$CBEPAUtagTMAGIC@@@2@PAU_Node@?$_Tree_nod@V?$_Tmap_traits@EPAUtagTMAGIC@@U?$less@E@std@@V?$allocator@U?$pair@$$CBEPAUtagTMAGIC@@@std@@@3@$0A@@std@@@2@@Z
_TEXT	SEGMENT
__Pnode$ = 8						; size = 4
?_Myval@?$_Tree@V?$_Tmap_traits@EPAUtagTMAGIC@@U?$less@E@std@@V?$allocator@U?$pair@$$CBEPAUtagTMAGIC@@@std@@@3@$0A@@std@@@std@@KAAAU?$pair@$$CBEPAUtagTMAGIC@@@2@PAU_Node@?$_Tree_nod@V?$_Tmap_traits@EPAUtagTMAGIC@@U?$less@E@std@@V?$allocator@U?$pair@$$CBEPAUtagTMAGIC@@@std@@@3@$0A@@std@@@2@@Z PROC NEAR ; std::_Tree<std::_Tmap_traits<unsigned char,tagTMAGIC *,std::less<unsigned char>,std::allocator<std::pair<unsigned char const ,tagTMAGIC *> >,0> >::_Myval, COMDAT

; 162  : 		return ((_Vref)(*_Pnode)._Myval);

  00000	8b 44 24 04	 mov	 eax, DWORD PTR __Pnode$[esp-4]
  00004	83 c0 0c	 add	 eax, 12			; 0000000cH

; 163  : 		}

  00007	c3		 ret	 0
?_Myval@?$_Tree@V?$_Tmap_traits@EPAUtagTMAGIC@@U?$less@E@std@@V?$allocator@U?$pair@$$CBEPAUtagTMAGIC@@@std@@@3@$0A@@std@@@std@@KAAAU?$pair@$$CBEPAUtagTMAGIC@@@2@PAU_Node@?$_Tree_nod@V?$_Tmap_traits@EPAUtagTMAGIC@@U?$less@E@std@@V?$allocator@U?$pair@$$CBEPAUtagTMAGIC@@@std@@@3@$0A@@std@@@2@@Z ENDP ; std::_Tree<std::_Tmap_traits<unsigned char,tagTMAGIC *,std::less<unsigned char>,std::allocator<std::pair<unsigned char const ,tagTMAGIC *> >,0> >::_Myval
_TEXT	ENDS
PUBLIC	??0const_iterator@?$_Tree@V?$_Tmap_traits@EPAUtagTMAGIC@@U?$less@E@std@@V?$allocator@U?$pair@$$CBEPAUtagTMAGIC@@@std@@@3@$0A@@std@@@std@@QAE@PAU_Node@?$_Tree_nod@V?$_Tmap_traits@EPAUtagTMAGIC@@U?$less@E@std@@V?$allocator@U?$pair@$$CBEPAUtagTMAGIC@@@std@@@3@$0A@@std@@@2@@Z ; std::_Tree<std::_Tmap_traits<unsigned char,tagTMAGIC *,std::less<unsigned char>,std::allocator<std::pair<unsigned char const ,tagTMAGIC *> >,0> >::const_iterator::const_iterator
; Function compile flags: /Ogty
;	COMDAT ??0const_iterator@?$_Tree@V?$_Tmap_traits@EPAUtagTMAGIC@@U?$less@E@std@@V?$allocator@U?$pair@$$CBEPAUtagTMAGIC@@@std@@@3@$0A@@std@@@std@@QAE@PAU_Node@?$_Tree_nod@V?$_Tmap_traits@EPAUtagTMAGIC@@U?$less@E@std@@V?$allocator@U?$pair@$$CBEPAUtagTMAGIC@@@std@@@3@$0A@@std@@@2@@Z
_TEXT	SEGMENT
__Pnode$ = 8						; size = 4
??0const_iterator@?$_Tree@V?$_Tmap_traits@EPAUtagTMAGIC@@U?$less@E@std@@V?$allocator@U?$pair@$$CBEPAUtagTMAGIC@@@std@@@3@$0A@@std@@@std@@QAE@PAU_Node@?$_Tree_nod@V?$_Tmap_traits@EPAUtagTMAGIC@@U?$less@E@std@@V?$allocator@U?$pair@$$CBEPAUtagTMAGIC@@@std@@@3@$0A@@std@@@2@@Z PROC NEAR ; std::_Tree<std::_Tmap_traits<unsigned char,tagTMAGIC *,std::less<unsigned char>,std::allocator<std::pair<unsigned char const ,tagTMAGIC *> >,0> >::const_iterator::const_iterator, COMDAT
; _this$ = ecx

; 200  : 			{	// construct with node pointer _Pnode

  00000	8b c1		 mov	 eax, ecx
  00002	8b 4c 24 04	 mov	 ecx, DWORD PTR __Pnode$[esp-4]
  00006	89 08		 mov	 DWORD PTR [eax], ecx

; 201  : 			}

  00008	c2 04 00	 ret	 4
??0const_iterator@?$_Tree@V?$_Tmap_traits@EPAUtagTMAGIC@@U?$less@E@std@@V?$allocator@U?$pair@$$CBEPAUtagTMAGIC@@@std@@@3@$0A@@std@@@std@@QAE@PAU_Node@?$_Tree_nod@V?$_Tmap_traits@EPAUtagTMAGIC@@U?$less@E@std@@V?$allocator@U?$pair@$$CBEPAUtagTMAGIC@@@std@@@3@$0A@@std@@@2@@Z ENDP ; std::_Tree<std::_Tmap_traits<unsigned char,tagTMAGIC *,std::less<unsigned char>,std::allocator<std::pair<unsigned char const ,tagTMAGIC *> >,0> >::const_iterator::const_iterator
_TEXT	ENDS
PUBLIC	?_Isnil@?$_Tree@V?$_Tmap_traits@EPAUtagTMAGIC@@U?$less@E@std@@V?$allocator@U?$pair@$$CBEPAUtagTMAGIC@@@std@@@3@$0A@@std@@@std@@KAAADPAU_Node@?$_Tree_nod@V?$_Tmap_traits@EPAUtagTMAGIC@@U?$less@E@std@@V?$allocator@U?$pair@$$CBEPAUtagTMAGIC@@@std@@@3@$0A@@std@@@2@@Z ; std::_Tree<std::_Tmap_traits<unsigned char,tagTMAGIC *,std::less<unsigned char>,std::allocator<std::pair<unsigned char const ,tagTMAGIC *> >,0> >::_Isnil
; Function compile flags: /Ogty
;	COMDAT ?_Isnil@?$_Tree@V?$_Tmap_traits@EPAUtagTMAGIC@@U?$less@E@std@@V?$allocator@U?$pair@$$CBEPAUtagTMAGIC@@@std@@@3@$0A@@std@@@std@@KAAADPAU_Node@?$_Tree_nod@V?$_Tmap_traits@EPAUtagTMAGIC@@U?$less@E@std@@V?$allocator@U?$pair@$$CBEPAUtagTMAGIC@@@std@@@3@$0A@@std@@@2@@Z
_TEXT	SEGMENT
__Pnode$ = 8						; size = 4
?_Isnil@?$_Tree@V?$_Tmap_traits@EPAUtagTMAGIC@@U?$less@E@std@@V?$allocator@U?$pair@$$CBEPAUtagTMAGIC@@@std@@@3@$0A@@std@@@std@@KAAADPAU_Node@?$_Tree_nod@V?$_Tmap_traits@EPAUtagTMAGIC@@U?$less@E@std@@V?$allocator@U?$pair@$$CBEPAUtagTMAGIC@@@std@@@3@$0A@@std@@@2@@Z PROC NEAR ; std::_Tree<std::_Tmap_traits<unsigned char,tagTMAGIC *,std::less<unsigned char>,std::allocator<std::pair<unsigned char const ,tagTMAGIC *> >,0> >::_Isnil, COMDAT

; 137  : 		return ((_Charref)(*_Pnode)._Isnil);

  00000	8b 44 24 04	 mov	 eax, DWORD PTR __Pnode$[esp-4]
  00004	83 c0 15	 add	 eax, 21			; 00000015H

; 138  : 		}

  00007	c3		 ret	 0
?_Isnil@?$_Tree@V?$_Tmap_traits@EPAUtagTMAGIC@@U?$less@E@std@@V?$allocator@U?$pair@$$CBEPAUtagTMAGIC@@@std@@@3@$0A@@std@@@std@@KAAADPAU_Node@?$_Tree_nod@V?$_Tmap_traits@EPAUtagTMAGIC@@U?$less@E@std@@V?$allocator@U?$pair@$$CBEPAUtagTMAGIC@@@std@@@3@$0A@@std@@@2@@Z ENDP ; std::_Tree<std::_Tmap_traits<unsigned char,tagTMAGIC *,std::less<unsigned char>,std::allocator<std::pair<unsigned char const ,tagTMAGIC *> >,0> >::_Isnil
_TEXT	ENDS
PUBLIC	?_Parent@?$_Tree@V?$_Tmap_traits@EPAUtagTMAGIC@@U?$less@E@std@@V?$allocator@U?$pair@$$CBEPAUtagTMAGIC@@@std@@@3@$0A@@std@@@std@@KAAAPAU_Node@?$_Tree_nod@V?$_Tmap_traits@EPAUtagTMAGIC@@U?$less@E@std@@V?$allocator@U?$pair@$$CBEPAUtagTMAGIC@@@std@@@3@$0A@@std@@@2@PAU342@@Z ; std::_Tree<std::_Tmap_traits<unsigned char,tagTMAGIC *,std::less<unsigned char>,std::allocator<std::pair<unsigned char const ,tagTMAGIC *> >,0> >::_Parent
; Function compile flags: /Ogty
;	COMDAT ?_Parent@?$_Tree@V?$_Tmap_traits@EPAUtagTMAGIC@@U?$less@E@std@@V?$allocator@U?$pair@$$CBEPAUtagTMAGIC@@@std@@@3@$0A@@std@@@std@@KAAAPAU_Node@?$_Tree_nod@V?$_Tmap_traits@EPAUtagTMAGIC@@U?$less@E@std@@V?$allocator@U?$pair@$$CBEPAUtagTMAGIC@@@std@@@3@$0A@@std@@@2@PAU342@@Z
_TEXT	SEGMENT
__Pnode$ = 8						; size = 4
?_Parent@?$_Tree@V?$_Tmap_traits@EPAUtagTMAGIC@@U?$less@E@std@@V?$allocator@U?$pair@$$CBEPAUtagTMAGIC@@@std@@@3@$0A@@std@@@std@@KAAAPAU_Node@?$_Tree_nod@V?$_Tmap_traits@EPAUtagTMAGIC@@U?$less@E@std@@V?$allocator@U?$pair@$$CBEPAUtagTMAGIC@@@std@@@3@$0A@@std@@@2@PAU342@@Z PROC NEAR ; std::_Tree<std::_Tmap_traits<unsigned char,tagTMAGIC *,std::less<unsigned char>,std::allocator<std::pair<unsigned char const ,tagTMAGIC *> >,0> >::_Parent, COMDAT

; 152  : 		return ((_Nodepref)(*_Pnode)._Parent);

  00000	8b 44 24 04	 mov	 eax, DWORD PTR __Pnode$[esp-4]
  00004	83 c0 04	 add	 eax, 4

; 153  : 		}

  00007	c3		 ret	 0
?_Parent@?$_Tree@V?$_Tmap_traits@EPAUtagTMAGIC@@U?$less@E@std@@V?$allocator@U?$pair@$$CBEPAUtagTMAGIC@@@std@@@3@$0A@@std@@@std@@KAAAPAU_Node@?$_Tree_nod@V?$_Tmap_traits@EPAUtagTMAGIC@@U?$less@E@std@@V?$allocator@U?$pair@$$CBEPAUtagTMAGIC@@@std@@@3@$0A@@std@@@2@PAU342@@Z ENDP ; std::_Tree<std::_Tmap_traits<unsigned char,tagTMAGIC *,std::less<unsigned char>,std::allocator<std::pair<unsigned char const ,tagTMAGIC *> >,0> >::_Parent
_TEXT	ENDS
PUBLIC	?_Right@?$_Tree@V?$_Tmap_traits@EPAUtagTMAGIC@@U?$less@E@std@@V?$allocator@U?$pair@$$CBEPAUtagTMAGIC@@@std@@@3@$0A@@std@@@std@@KAAAPAU_Node@?$_Tree_nod@V?$_Tmap_traits@EPAUtagTMAGIC@@U?$less@E@std@@V?$allocator@U?$pair@$$CBEPAUtagTMAGIC@@@std@@@3@$0A@@std@@@2@PAU342@@Z ; std::_Tree<std::_Tmap_traits<unsigned char,tagTMAGIC *,std::less<unsigned char>,std::allocator<std::pair<unsigned char const ,tagTMAGIC *> >,0> >::_Right
; Function compile flags: /Ogty
;	COMDAT ?_Right@?$_Tree@V?$_Tmap_traits@EPAUtagTMAGIC@@U?$less@E@std@@V?$allocator@U?$pair@$$CBEPAUtagTMAGIC@@@std@@@3@$0A@@std@@@std@@KAAAPAU_Node@?$_Tree_nod@V?$_Tmap_traits@EPAUtagTMAGIC@@U?$less@E@std@@V?$allocator@U?$pair@$$CBEPAUtagTMAGIC@@@std@@@3@$0A@@std@@@2@PAU342@@Z
_TEXT	SEGMENT
__Pnode$ = 8						; size = 4
?_Right@?$_Tree@V?$_Tmap_traits@EPAUtagTMAGIC@@U?$less@E@std@@V?$allocator@U?$pair@$$CBEPAUtagTMAGIC@@@std@@@3@$0A@@std@@@std@@KAAAPAU_Node@?$_Tree_nod@V?$_Tmap_traits@EPAUtagTMAGIC@@U?$less@E@std@@V?$allocator@U?$pair@$$CBEPAUtagTMAGIC@@@std@@@3@$0A@@std@@@2@PAU342@@Z PROC NEAR ; std::_Tree<std::_Tmap_traits<unsigned char,tagTMAGIC *,std::less<unsigned char>,std::allocator<std::pair<unsigned char const ,tagTMAGIC *> >,0> >::_Right, COMDAT

; 157  : 		return ((_Nodepref)(*_Pnode)._Right);

  00000	8b 44 24 04	 mov	 eax, DWORD PTR __Pnode$[esp-4]
  00004	83 c0 08	 add	 eax, 8

; 158  : 		}

  00007	c3		 ret	 0
?_Right@?$_Tree@V?$_Tmap_traits@EPAUtagTMAGIC@@U?$less@E@std@@V?$allocator@U?$pair@$$CBEPAUtagTMAGIC@@@std@@@3@$0A@@std@@@std@@KAAAPAU_Node@?$_Tree_nod@V?$_Tmap_traits@EPAUtagTMAGIC@@U?$less@E@std@@V?$allocator@U?$pair@$$CBEPAUtagTMAGIC@@@std@@@3@$0A@@std@@@2@PAU342@@Z ENDP ; std::_Tree<std::_Tmap_traits<unsigned char,tagTMAGIC *,std::less<unsigned char>,std::allocator<std::pair<unsigned char const ,tagTMAGIC *> >,0> >::_Right
_TEXT	ENDS
PUBLIC	?_Min@?$_Tree@V?$_Tmap_traits@EPAUtagTMAGIC@@U?$less@E@std@@V?$allocator@U?$pair@$$CBEPAUtagTMAGIC@@@std@@@3@$0A@@std@@@std@@KAPAU_Node@?$_Tree_nod@V?$_Tmap_traits@EPAUtagTMAGIC@@U?$less@E@std@@V?$allocator@U?$pair@$$CBEPAUtagTMAGIC@@@std@@@3@$0A@@std@@@2@PAU342@@Z ; std::_Tree<std::_Tmap_traits<unsigned char,tagTMAGIC *,std::less<unsigned char>,std::allocator<std::pair<unsigned char const ,tagTMAGIC *> >,0> >::_Min
; Function compile flags: /Ogty
;	COMDAT ?_Min@?$_Tree@V?$_Tmap_traits@EPAUtagTMAGIC@@U?$less@E@std@@V?$allocator@U?$pair@$$CBEPAUtagTMAGIC@@@std@@@3@$0A@@std@@@std@@KAPAU_Node@?$_Tree_nod@V?$_Tmap_traits@EPAUtagTMAGIC@@U?$less@E@std@@V?$allocator@U?$pair@$$CBEPAUtagTMAGIC@@@std@@@3@$0A@@std@@@2@PAU342@@Z
_TEXT	SEGMENT
__Pnode$ = 8						; size = 4
?_Min@?$_Tree@V?$_Tmap_traits@EPAUtagTMAGIC@@U?$less@E@std@@V?$allocator@U?$pair@$$CBEPAUtagTMAGIC@@@std@@@3@$0A@@std@@@std@@KAPAU_Node@?$_Tree_nod@V?$_Tmap_traits@EPAUtagTMAGIC@@U?$less@E@std@@V?$allocator@U?$pair@$$CBEPAUtagTMAGIC@@@std@@@3@$0A@@std@@@2@PAU342@@Z PROC NEAR ; std::_Tree<std::_Tmap_traits<unsigned char,tagTMAGIC *,std::less<unsigned char>,std::allocator<std::pair<unsigned char const ,tagTMAGIC *> >,0> >::_Min, COMDAT

; 1042 : 		while (!_Isnil(_Left(_Pnode)))

  00000	8b 44 24 04	 mov	 eax, DWORD PTR __Pnode$[esp-4]
  00004	8b 08		 mov	 ecx, DWORD PTR [eax]
  00006	8a 51 15	 mov	 dl, BYTE PTR [ecx+21]
  00009	84 d2		 test	 dl, dl
  0000b	75 0e		 jne	 SHORT $L176583
  0000d	8d 49 00	 npad	 3
$L176582:

; 1043 : 			_Pnode = _Left(_Pnode);

  00010	8b c1		 mov	 eax, ecx
  00012	8b 08		 mov	 ecx, DWORD PTR [eax]
  00014	8a 51 15	 mov	 dl, BYTE PTR [ecx+21]
  00017	84 d2		 test	 dl, dl
  00019	74 f5		 je	 SHORT $L176582
$L176583:

; 1044 : 		return (_Pnode);
; 1045 : 		}

  0001b	c3		 ret	 0
?_Min@?$_Tree@V?$_Tmap_traits@EPAUtagTMAGIC@@U?$less@E@std@@V?$allocator@U?$pair@$$CBEPAUtagTMAGIC@@@std@@@3@$0A@@std@@@std@@KAPAU_Node@?$_Tree_nod@V?$_Tmap_traits@EPAUtagTMAGIC@@U?$less@E@std@@V?$allocator@U?$pair@$$CBEPAUtagTMAGIC@@@std@@@3@$0A@@std@@@2@PAU342@@Z ENDP ; std::_Tree<std::_Tmap_traits<unsigned char,tagTMAGIC *,std::less<unsigned char>,std::allocator<std::pair<unsigned char const ,tagTMAGIC *> >,0> >::_Min
_TEXT	ENDS
PUBLIC	?data@CStringData@ATL@@QAEPAXXZ			; ATL::CStringData::data
; Function compile flags: /Ogty
; File c:\program files (x86)\microsoft visual studio .net 2003\vc7\atlmfc\include\atlsimpstr.h
;	COMDAT ?data@CStringData@ATL@@QAEPAXXZ
_TEXT	SEGMENT
?data@CStringData@ATL@@QAEPAXXZ PROC NEAR		; ATL::CStringData::data, COMDAT
; _this$ = ecx

; 66   : 		return (this+1);

  00000	8d 41 10	 lea	 eax, DWORD PTR [ecx+16]

; 67   : 	}

  00003	c3		 ret	 0
?data@CStringData@ATL@@QAEPAXXZ ENDP			; ATL::CStringData::data
_TEXT	ENDS
PUBLIC	?IsLocked@CStringData@ATL@@QBE_NXZ		; ATL::CStringData::IsLocked
; Function compile flags: /Ogty
;	COMDAT ?IsLocked@CStringData@ATL@@QBE_NXZ
_TEXT	SEGMENT
?IsLocked@CStringData@ATL@@QBE_NXZ PROC NEAR		; ATL::CStringData::IsLocked, COMDAT
; _this$ = ecx

; 76   : 		return nRefs < 0;

  00000	8b 51 0c	 mov	 edx, DWORD PTR [ecx+12]
  00003	33 c0		 xor	 eax, eax
  00005	85 d2		 test	 edx, edx
  00007	0f 9c c0	 setl	 al

; 77   : 	}

  0000a	c3		 ret	 0
?IsLocked@CStringData@ATL@@QBE_NXZ ENDP			; ATL::CStringData::IsLocked
_TEXT	ENDS
PUBLIC	?IsShared@CStringData@ATL@@QBE_NXZ		; ATL::CStringData::IsShared
; Function compile flags: /Ogty
;	COMDAT ?IsShared@CStringData@ATL@@QBE_NXZ
_TEXT	SEGMENT
?IsShared@CStringData@ATL@@QBE_NXZ PROC NEAR		; ATL::CStringData::IsShared, COMDAT
; _this$ = ecx

; 80   : 		return( nRefs > 1 ); 

  00000	8b 51 0c	 mov	 edx, DWORD PTR [ecx+12]
  00003	33 c0		 xor	 eax, eax
  00005	83 fa 01	 cmp	 edx, 1
  00008	0f 9f c0	 setg	 al

; 81   : 	}

  0000b	c3		 ret	 0
?IsShared@CStringData@ATL@@QBE_NXZ ENDP			; ATL::CStringData::IsShared
_TEXT	ENDS
PUBLIC	?Release@CStringData@ATL@@QAEXXZ		; ATL::CStringData::Release
; Function compile flags: /Ogty
;	COMDAT ?Release@CStringData@ATL@@QAEXXZ
_TEXT	SEGMENT
?Release@CStringData@ATL@@QAEXXZ PROC NEAR		; ATL::CStringData::Release, COMDAT
; _this$ = ecx

; 93   : 		ATLASSERT( nRefs != 0 );
; 94   : 
; 95   : 		if( _InterlockedDecrement( &nRefs ) <= 0 )

  00000	8d 41 0c	 lea	 eax, DWORD PTR [ecx+12]
  00003	83 ca ff	 or	 edx, -1
  00006	f0 0f c1 10	 lock	  xadd	 DWORD PTR [eax], edx
  0000a	4a		 dec	 edx
  0000b	85 d2		 test	 edx, edx
  0000d	7f 0a		 jg	 SHORT $L73499

; 96   : 		{
; 97   : 			pStringMgr->Free( this );

  0000f	8b 01		 mov	 eax, DWORD PTR [ecx]
  00011	8b 10		 mov	 edx, DWORD PTR [eax]
  00013	51		 push	 ecx
  00014	8b c8		 mov	 ecx, eax
  00016	ff 52 04	 call	 DWORD PTR [edx+4]
$L73499:

; 98   : 		}
; 99   : 	}

  00019	c3		 ret	 0
?Release@CStringData@ATL@@QAEXXZ ENDP			; ATL::CStringData::Release
_TEXT	ENDS
PUBLIC	??0CTime@ATL@@QAE@_J@Z				; ATL::CTime::CTime
; Function compile flags: /Ogty
; File c:\program files (x86)\microsoft visual studio .net 2003\vc7\atlmfc\include\atltime.inl
;	COMDAT ??0CTime@ATL@@QAE@_J@Z
_TEXT	SEGMENT
_time$ = 8						; size = 8
??0CTime@ATL@@QAE@_J@Z PROC NEAR			; ATL::CTime::CTime, COMDAT
; _this$ = ecx

; 149  : {

  00000	8b 54 24 08	 mov	 edx, DWORD PTR _time$[esp]
  00004	8b c1		 mov	 eax, ecx
  00006	8b 4c 24 04	 mov	 ecx, DWORD PTR _time$[esp-4]
  0000a	89 08		 mov	 DWORD PTR [eax], ecx
  0000c	89 50 04	 mov	 DWORD PTR [eax+4], edx

; 150  : }

  0000f	c2 08 00	 ret	 8
??0CTime@ATL@@QAE@_J@Z ENDP				; ATL::CTime::CTime
_TEXT	ENDS
PUBLIC	?GetLocalTm@CTime@ATL@@QBEPAUtm@@PAU3@@Z	; ATL::CTime::GetLocalTm
EXTRN	__localtime64:NEAR
; Function compile flags: /Ogty
;	COMDAT ?GetLocalTm@CTime@ATL@@QBEPAUtm@@PAU3@@Z
_TEXT	SEGMENT
_ptm$ = 8						; size = 4
?GetLocalTm@CTime@ATL@@QBEPAUtm@@PAU3@@Z PROC NEAR	; ATL::CTime::GetLocalTm, COMDAT
; _this$ = ecx

; 320  : {

  00000	53		 push	 ebx

; 321  : 	if (ptm != NULL)

  00001	8b 5c 24 08	 mov	 ebx, DWORD PTR _ptm$[esp]

; 322  : 	{
; 323  : 		struct tm* ptmTemp = _localtime64(&m_time);

  00005	51		 push	 ecx
  00006	e8 00 00 00 00	 call	 __localtime64
  0000b	83 c4 04	 add	 esp, 4
  0000e	85 db		 test	 ebx, ebx
  00010	74 19		 je	 SHORT $L77285

; 324  : 		if (ptmTemp == NULL)

  00012	85 c0		 test	 eax, eax
  00014	75 04		 jne	 SHORT $L77284
  00016	5b		 pop	 ebx

; 329  : 	}
; 330  : 	else
; 331  : 		return _localtime64(&m_time);
; 332  : }

  00017	c2 04 00	 ret	 4
$L77284:
  0001a	56		 push	 esi
  0001b	57		 push	 edi

; 325  : 			return NULL;    // indicates the m_time was not initialized!
; 326  : 
; 327  : 		*ptm = *ptmTemp;

  0001c	8b f0		 mov	 esi, eax
  0001e	b9 09 00 00 00	 mov	 ecx, 9
  00023	8b fb		 mov	 edi, ebx
  00025	f3 a5		 rep movsd
  00027	5f		 pop	 edi

; 328  : 		return ptm;

  00028	8b c3		 mov	 eax, ebx
  0002a	5e		 pop	 esi
$L77285:
  0002b	5b		 pop	 ebx

; 329  : 	}
; 330  : 	else
; 331  : 		return _localtime64(&m_time);
; 332  : }

  0002c	c2 04 00	 ret	 4
?GetLocalTm@CTime@ATL@@QBEPAUtm@@PAU3@@Z ENDP		; ATL::CTime::GetLocalTm
_TEXT	ENDS
PUBLIC	?GetYear@CTime@ATL@@QBEHXZ			; ATL::CTime::GetYear
; Function compile flags: /Ogty
;	COMDAT ?GetYear@CTime@ATL@@QBEHXZ
_TEXT	SEGMENT
?GetYear@CTime@ATL@@QBEHXZ PROC NEAR			; ATL::CTime::GetYear, COMDAT
; _this$ = ecx

; 359  : 	struct tm * ptm;
; 360  : 	ptm = GetLocalTm();

  00000	51		 push	 ecx
  00001	e8 00 00 00 00	 call	 __localtime64
  00006	83 c4 04	 add	 esp, 4

; 361  : 	return ptm ? (ptm->tm_year) + 1900 : 0 ; 

  00009	85 c0		 test	 eax, eax
  0000b	74 09		 je	 SHORT $L177615
  0000d	8b 40 14	 mov	 eax, DWORD PTR [eax+20]
  00010	05 6c 07 00 00	 add	 eax, 1900		; 0000076cH

; 362  : }

  00015	c3		 ret	 0
$L177615:

; 361  : 	return ptm ? (ptm->tm_year) + 1900 : 0 ; 

  00016	33 c0		 xor	 eax, eax

; 362  : }

  00018	c3		 ret	 0
?GetYear@CTime@ATL@@QBEHXZ ENDP				; ATL::CTime::GetYear
_TEXT	ENDS
PUBLIC	?GetMonth@CTime@ATL@@QBEHXZ			; ATL::CTime::GetMonth
; Function compile flags: /Ogty
;	COMDAT ?GetMonth@CTime@ATL@@QBEHXZ
_TEXT	SEGMENT
?GetMonth@CTime@ATL@@QBEHXZ PROC NEAR			; ATL::CTime::GetMonth, COMDAT
; _this$ = ecx

; 366  : 	struct tm * ptm;
; 367  : 	ptm = GetLocalTm();

  00000	51		 push	 ecx
  00001	e8 00 00 00 00	 call	 __localtime64
  00006	83 c4 04	 add	 esp, 4

; 368  : 	return ptm ? ptm->tm_mon + 1 : 0;

  00009	85 c0		 test	 eax, eax
  0000b	74 05		 je	 SHORT $L177628
  0000d	8b 40 10	 mov	 eax, DWORD PTR [eax+16]
  00010	40		 inc	 eax

; 369  : }

  00011	c3		 ret	 0
$L177628:

; 368  : 	return ptm ? ptm->tm_mon + 1 : 0;

  00012	33 c0		 xor	 eax, eax

; 369  : }

  00014	c3		 ret	 0
?GetMonth@CTime@ATL@@QBEHXZ ENDP			; ATL::CTime::GetMonth
_TEXT	ENDS
PUBLIC	?GetDay@CTime@ATL@@QBEHXZ			; ATL::CTime::GetDay
; Function compile flags: /Ogty
;	COMDAT ?GetDay@CTime@ATL@@QBEHXZ
_TEXT	SEGMENT
?GetDay@CTime@ATL@@QBEHXZ PROC NEAR			; ATL::CTime::GetDay, COMDAT
; _this$ = ecx

; 373  : 	struct tm * ptm;
; 374  : 	ptm = GetLocalTm();

  00000	51		 push	 ecx
  00001	e8 00 00 00 00	 call	 __localtime64
  00006	83 c4 04	 add	 esp, 4

; 375  : 	return ptm ? ptm->tm_mday : 0 ; 

  00009	85 c0		 test	 eax, eax
  0000b	74 04		 je	 SHORT $L177641
  0000d	8b 40 0c	 mov	 eax, DWORD PTR [eax+12]

; 376  : }

  00010	c3		 ret	 0
$L177641:

; 375  : 	return ptm ? ptm->tm_mday : 0 ; 

  00011	33 c0		 xor	 eax, eax

; 376  : }

  00013	c3		 ret	 0
?GetDay@CTime@ATL@@QBEHXZ ENDP				; ATL::CTime::GetDay
_TEXT	ENDS
PUBLIC	?GetHour@CTime@ATL@@QBEHXZ			; ATL::CTime::GetHour
; Function compile flags: /Ogty
;	COMDAT ?GetHour@CTime@ATL@@QBEHXZ
_TEXT	SEGMENT
?GetHour@CTime@ATL@@QBEHXZ PROC NEAR			; ATL::CTime::GetHour, COMDAT
; _this$ = ecx

; 380  : 	struct tm * ptm;
; 381  : 	ptm = GetLocalTm();

  00000	51		 push	 ecx
  00001	e8 00 00 00 00	 call	 __localtime64
  00006	83 c4 04	 add	 esp, 4

; 382  : 	return ptm ? ptm->tm_hour : -1 ; 

  00009	85 c0		 test	 eax, eax
  0000b	74 04		 je	 SHORT $L177654
  0000d	8b 40 08	 mov	 eax, DWORD PTR [eax+8]

; 383  : }

  00010	c3		 ret	 0
$L177654:

; 382  : 	return ptm ? ptm->tm_hour : -1 ; 

  00011	83 c8 ff	 or	 eax, -1

; 383  : }

  00014	c3		 ret	 0
?GetHour@CTime@ATL@@QBEHXZ ENDP				; ATL::CTime::GetHour
_TEXT	ENDS
PUBLIC	?GetMinute@CTime@ATL@@QBEHXZ			; ATL::CTime::GetMinute
; Function compile flags: /Ogty
;	COMDAT ?GetMinute@CTime@ATL@@QBEHXZ
_TEXT	SEGMENT
?GetMinute@CTime@ATL@@QBEHXZ PROC NEAR			; ATL::CTime::GetMinute, COMDAT
; _this$ = ecx

; 387  : 	struct tm * ptm;
; 388  : 	ptm = GetLocalTm();

  00000	51		 push	 ecx
  00001	e8 00 00 00 00	 call	 __localtime64
  00006	83 c4 04	 add	 esp, 4

; 389  : 	return ptm ? ptm->tm_min : -1 ; 

  00009	85 c0		 test	 eax, eax
  0000b	74 04		 je	 SHORT $L177667
  0000d	8b 40 04	 mov	 eax, DWORD PTR [eax+4]

; 390  : }

  00010	c3		 ret	 0
$L177667:

; 389  : 	return ptm ? ptm->tm_min : -1 ; 

  00011	83 c8 ff	 or	 eax, -1

; 390  : }

  00014	c3		 ret	 0
?GetMinute@CTime@ATL@@QBEHXZ ENDP			; ATL::CTime::GetMinute
_TEXT	ENDS
PUBLIC	?GetSecond@CTime@ATL@@QBEHXZ			; ATL::CTime::GetSecond
; Function compile flags: /Ogty
;	COMDAT ?GetSecond@CTime@ATL@@QBEHXZ
_TEXT	SEGMENT
?GetSecond@CTime@ATL@@QBEHXZ PROC NEAR			; ATL::CTime::GetSecond, COMDAT
; _this$ = ecx

; 394  : 	struct tm * ptm;
; 395  : 	ptm = GetLocalTm();

  00000	51		 push	 ecx
  00001	e8 00 00 00 00	 call	 __localtime64
  00006	83 c4 04	 add	 esp, 4

; 396  : 	return ptm ? ptm->tm_sec : -1 ;

  00009	85 c0		 test	 eax, eax
  0000b	74 03		 je	 SHORT $L177680
  0000d	8b 00		 mov	 eax, DWORD PTR [eax]

; 397  : }

  0000f	c3		 ret	 0
$L177680:

; 396  : 	return ptm ? ptm->tm_sec : -1 ;

  00010	83 c8 ff	 or	 eax, -1

; 397  : }

  00013	c3		 ret	 0
?GetSecond@CTime@ATL@@QBEHXZ ENDP			; ATL::CTime::GetSecond
_TEXT	ENDS
PUBLIC	?__TIMETODB@@YAX_JAAUtagTIMESTAMP_STRUCT@@@Z	; __TIMETODB
; Function compile flags: /Ogty
; File c:\users\pierr\desktop\4story - oldschool\sources\tserver\tnetlib\tnetdef.h
;	COMDAT ?__TIMETODB@@YAX_JAAUtagTIMESTAMP_STRUCT@@@Z
_TEXT	SEGMENT
_time$90369 = 8						; size = 8
_time_t$ = 8						; size = 8
_timestamp$ = 16					; size = 4
?__TIMETODB@@YAX_JAAUtagTIMESTAMP_STRUCT@@@Z PROC NEAR	; __TIMETODB, COMDAT

; 53   : 	if(!time_t)

  00000	8b 44 24 04	 mov	 eax, DWORD PTR _time_t$[esp-4]
  00004	8b 4c 24 08	 mov	 ecx, DWORD PTR _time_t$[esp]
  00008	8b d0		 mov	 edx, eax
  0000a	0b d1		 or	 edx, ecx
  0000c	57		 push	 edi
  0000d	75 29		 jne	 SHORT $L90367

; 54   : 	{
; 55   : 		timestamp.year = 1900;

  0000f	8b 44 24 10	 mov	 eax, DWORD PTR _timestamp$[esp]

; 56   : 		timestamp.month = 1;
; 57   : 		timestamp.day = 1;
; 58   : 		timestamp.hour = 0;

  00013	33 ff		 xor	 edi, edi
  00015	b9 01 00 00 00	 mov	 ecx, 1
  0001a	66 89 78 06	 mov	 WORD PTR [eax+6], di

; 59   : 		timestamp.minute = 0;

  0001e	66 89 78 08	 mov	 WORD PTR [eax+8], di

; 60   : 		timestamp.second = 0;

  00022	66 89 78 0a	 mov	 WORD PTR [eax+10], di

; 61   : 		timestamp.fraction = 0;

  00026	89 78 0c	 mov	 DWORD PTR [eax+12], edi
  00029	66 c7 00 6c 07	 mov	 WORD PTR [eax], 1900	; 0000076cH
  0002e	66 89 48 02	 mov	 WORD PTR [eax+2], cx
  00032	66 89 48 04	 mov	 WORD PTR [eax+4], cx
  00036	5f		 pop	 edi

; 74   : 	}
; 75   : };

  00037	c3		 ret	 0
$L90367:

; 62   : 	}
; 63   : 	else
; 64   : 	{
; 65   : 		CTime time(time_t);

  00038	89 44 24 08	 mov	 DWORD PTR _time$90369[esp], eax

; 66   : 
; 67   : 		timestamp.year = time.GetYear();

  0003c	8d 44 24 08	 lea	 eax, DWORD PTR _time$90369[esp]
  00040	50		 push	 eax
  00041	89 4c 24 10	 mov	 DWORD PTR _time$90369[esp+8], ecx
  00045	e8 00 00 00 00	 call	 __localtime64
  0004a	33 ff		 xor	 edi, edi
  0004c	83 c4 04	 add	 esp, 4
  0004f	3b c7		 cmp	 eax, edi
  00051	74 0a		 je	 SHORT $L177710
  00053	8b 40 14	 mov	 eax, DWORD PTR [eax+20]
  00056	05 6c 07 00 00	 add	 eax, 1900		; 0000076cH
  0005b	eb 02		 jmp	 SHORT $L177711
$L177710:
  0005d	33 c0		 xor	 eax, eax
$L177711:
  0005f	56		 push	 esi
  00060	8b 74 24 14	 mov	 esi, DWORD PTR _timestamp$[esp+4]

; 68   : 		timestamp.month = time.GetMonth();

  00064	8d 4c 24 0c	 lea	 ecx, DWORD PTR _time$90369[esp+4]
  00068	51		 push	 ecx
  00069	66 89 06	 mov	 WORD PTR [esi], ax
  0006c	e8 00 00 00 00	 call	 __localtime64
  00071	83 c4 04	 add	 esp, 4
  00074	3b c7		 cmp	 eax, edi
  00076	74 06		 je	 SHORT $L177732
  00078	8b 40 10	 mov	 eax, DWORD PTR [eax+16]
  0007b	40		 inc	 eax
  0007c	eb 02		 jmp	 SHORT $L177733
$L177732:
  0007e	33 c0		 xor	 eax, eax
$L177733:

; 69   : 		timestamp.day = time.GetDay();

  00080	8d 54 24 0c	 lea	 edx, DWORD PTR _time$90369[esp+4]
  00084	52		 push	 edx
  00085	66 89 46 02	 mov	 WORD PTR [esi+2], ax
  00089	e8 00 00 00 00	 call	 __localtime64
  0008e	83 c4 04	 add	 esp, 4
  00091	3b c7		 cmp	 eax, edi
  00093	74 05		 je	 SHORT $L177754
  00095	8b 40 0c	 mov	 eax, DWORD PTR [eax+12]
  00098	eb 02		 jmp	 SHORT $L177755
$L177754:
  0009a	33 c0		 xor	 eax, eax
$L177755:
  0009c	66 89 46 04	 mov	 WORD PTR [esi+4], ax

; 70   : 		timestamp.hour = time.GetHour();

  000a0	8d 44 24 0c	 lea	 eax, DWORD PTR _time$90369[esp+4]
  000a4	50		 push	 eax
  000a5	e8 00 00 00 00	 call	 __localtime64
  000aa	83 c4 04	 add	 esp, 4
  000ad	3b c7		 cmp	 eax, edi
  000af	74 05		 je	 SHORT $L177776
  000b1	8b 40 08	 mov	 eax, DWORD PTR [eax+8]
  000b4	eb 03		 jmp	 SHORT $L177777
$L177776:
  000b6	83 c8 ff	 or	 eax, -1
$L177777:

; 71   : 		timestamp.minute = time.GetMinute();

  000b9	8d 4c 24 0c	 lea	 ecx, DWORD PTR _time$90369[esp+4]
  000bd	51		 push	 ecx
  000be	66 89 46 06	 mov	 WORD PTR [esi+6], ax
  000c2	e8 00 00 00 00	 call	 __localtime64
  000c7	83 c4 04	 add	 esp, 4
  000ca	3b c7		 cmp	 eax, edi
  000cc	74 05		 je	 SHORT $L177798
  000ce	8b 40 04	 mov	 eax, DWORD PTR [eax+4]
  000d1	eb 03		 jmp	 SHORT $L177799
$L177798:
  000d3	83 c8 ff	 or	 eax, -1
$L177799:

; 72   : 		timestamp.second = time.GetSecond();

  000d6	8d 54 24 0c	 lea	 edx, DWORD PTR _time$90369[esp+4]
  000da	52		 push	 edx
  000db	66 89 46 08	 mov	 WORD PTR [esi+8], ax
  000df	e8 00 00 00 00	 call	 __localtime64
  000e4	83 c4 04	 add	 esp, 4
  000e7	3b c7		 cmp	 eax, edi
  000e9	74 0c		 je	 SHORT $L177820
  000eb	8b 00		 mov	 eax, DWORD PTR [eax]

; 73   : 		timestamp.fraction = 0;

  000ed	89 7e 0c	 mov	 DWORD PTR [esi+12], edi
  000f0	66 89 46 0a	 mov	 WORD PTR [esi+10], ax
  000f4	5e		 pop	 esi
  000f5	5f		 pop	 edi

; 74   : 	}
; 75   : };

  000f6	c3		 ret	 0

; 72   : 		timestamp.second = time.GetSecond();

$L177820:
  000f7	83 c8 ff	 or	 eax, -1

; 73   : 		timestamp.fraction = 0;

  000fa	89 7e 0c	 mov	 DWORD PTR [esi+12], edi
  000fd	66 89 46 0a	 mov	 WORD PTR [esi+10], ax
  00101	5e		 pop	 esi
  00102	5f		 pop	 edi

; 74   : 	}
; 75   : };

  00103	c3		 ret	 0
?__TIMETODB@@YAX_JAAUtagTIMESTAMP_STRUCT@@@Z ENDP	; __TIMETODB
_TEXT	ENDS
PUBLIC	?CLOSESOCKET@CUdpSocket@@AAEXAAI@Z		; CUdpSocket::CLOSESOCKET
EXTRN	__imp__closesocket@4:NEAR
; Function compile flags: /Ogty
; File c:\users\pierr\desktop\4story - oldschool\sources\tserver\tmapsvr\udpsocket.h
;	COMDAT ?CLOSESOCKET@CUdpSocket@@AAEXAAI@Z
_TEXT	SEGMENT
_x$ = 8							; size = 4
?CLOSESOCKET@CUdpSocket@@AAEXAAI@Z PROC NEAR		; CUdpSocket::CLOSESOCKET, COMDAT
; _this$ = ecx

; 30   : 	VOID CLOSESOCKET( SOCKET &x )	{	if(x != INVALID_SOCKET) closesocket(x), x = INVALID_SOCKET; }

  00000	56		 push	 esi
  00001	8b 74 24 08	 mov	 esi, DWORD PTR _x$[esp]
  00005	8b 06		 mov	 eax, DWORD PTR [esi]
  00007	83 f8 ff	 cmp	 eax, -1
  0000a	74 0d		 je	 SHORT $L146415
  0000c	50		 push	 eax
  0000d	ff 15 00 00 00
	00		 call	 DWORD PTR __imp__closesocket@4
  00013	c7 06 ff ff ff
	ff		 mov	 DWORD PTR [esi], -1
$L146415:
  00019	5e		 pop	 esi
  0001a	c2 04 00	 ret	 4
?CLOSESOCKET@CUdpSocket@@AAEXAAI@Z ENDP			; CUdpSocket::CLOSESOCKET
_TEXT	ENDS
PUBLIC	??B?$CSimpleStringT@D$0A@@ATL@@QBEPBDXZ		; ATL::CSimpleStringT<char,0>::operator char const *
; Function compile flags: /Ogty
; File c:\program files (x86)\microsoft visual studio .net 2003\vc7\atlmfc\include\atlsimpstr.h
;	COMDAT ??B?$CSimpleStringT@D$0A@@ATL@@QBEPBDXZ
_TEXT	SEGMENT
??B?$CSimpleStringT@D$0A@@ATL@@QBEPBDXZ PROC NEAR	; ATL::CSimpleStringT<char,0>::operator char const *, COMDAT
; _this$ = ecx

; 379  : 		return( m_pszData );

  00000	8b 01		 mov	 eax, DWORD PTR [ecx]

; 380  : 	}

  00002	c3		 ret	 0
??B?$CSimpleStringT@D$0A@@ATL@@QBEPBDXZ ENDP		; ATL::CSimpleStringT<char,0>::operator char const *
_TEXT	ENDS
PUBLIC	?GetData@?$CSimpleStringT@D$0A@@ATL@@ABEPAUCStringData@2@XZ ; ATL::CSimpleStringT<char,0>::GetData
; Function compile flags: /Ogty
;	COMDAT ?GetData@?$CSimpleStringT@D$0A@@ATL@@ABEPAUCStringData@2@XZ
_TEXT	SEGMENT
?GetData@?$CSimpleStringT@D$0A@@ATL@@ABEPAUCStringData@2@XZ PROC NEAR ; ATL::CSimpleStringT<char,0>::GetData, COMDAT
; _this$ = ecx

; 731  : 		return( reinterpret_cast< CStringData* >( m_pszData )-1 );

  00000	8b 01		 mov	 eax, DWORD PTR [ecx]
  00002	83 e8 10	 sub	 eax, 16			; 00000010H

; 732  : 	}

  00005	c3		 ret	 0
?GetData@?$CSimpleStringT@D$0A@@ATL@@ABEPAUCStringData@2@XZ ENDP ; ATL::CSimpleStringT<char,0>::GetData
_TEXT	ENDS
PUBLIC	?FindStringResourceInstance@?$StrTraitATL@DV?$ChTraitsCRT@D@ATL@@@ATL@@SAPAUHINSTANCE__@@I@Z ; ATL::StrTraitATL<char,ATL::ChTraitsCRT<char> >::FindStringResourceInstance
; Function compile flags: /Ogty
; File c:\program files (x86)\microsoft visual studio .net 2003\vc7\atlmfc\include\atlstr.h
;	COMDAT ?FindStringResourceInstance@?$StrTraitATL@DV?$ChTraitsCRT@D@ATL@@@ATL@@SAPAUHINSTANCE__@@I@Z
_TEXT	SEGMENT
_nID$ = 8						; size = 4
?FindStringResourceInstance@?$StrTraitATL@DV?$ChTraitsCRT@D@ATL@@@ATL@@SAPAUHINSTANCE__@@I@Z PROC NEAR ; ATL::StrTraitATL<char,ATL::ChTraitsCRT<char> >::FindStringResourceInstance, COMDAT

; 949  : 		return( AtlFindStringResourceInstance( nID ) );

  00000	8b 44 24 04	 mov	 eax, DWORD PTR _nID$[esp-4]
  00004	6a 00		 push	 0
  00006	50		 push	 eax
  00007	e8 00 00 00 00	 call	 ?AtlFindStringResourceInstance@ATL@@YAPAUHINSTANCE__@@IG@Z ; ATL::AtlFindStringResourceInstance
  0000c	83 c4 08	 add	 esp, 8

; 950  : 	}

  0000f	c3		 ret	 0
?FindStringResourceInstance@?$StrTraitATL@DV?$ChTraitsCRT@D@ATL@@@ATL@@SAPAUHINSTANCE__@@I@Z ENDP ; ATL::StrTraitATL<char,ATL::ChTraitsCRT<char> >::FindStringResourceInstance
_TEXT	ENDS
PUBLIC	?GetDefaultManager@?$StrTraitATL@DV?$ChTraitsCRT@D@ATL@@@ATL@@SAPAUIAtlStringMgr@2@XZ ; ATL::StrTraitATL<char,ATL::ChTraitsCRT<char> >::GetDefaultManager
EXTRN	?g_strmgr@ATL@@3VCAtlStringMgr@1@A:BYTE		; ATL::g_strmgr
; Function compile flags: /Ogty
;	COMDAT ?GetDefaultManager@?$StrTraitATL@DV?$ChTraitsCRT@D@ATL@@@ATL@@SAPAUIAtlStringMgr@2@XZ
_TEXT	SEGMENT
?GetDefaultManager@?$StrTraitATL@DV?$ChTraitsCRT@D@ATL@@@ATL@@SAPAUIAtlStringMgr@2@XZ PROC NEAR ; ATL::StrTraitATL<char,ATL::ChTraitsCRT<char> >::GetDefaultManager, COMDAT

; 954  : 		return( &g_strmgr );

  00000	b8 00 00 00 00	 mov	 eax, OFFSET FLAT:?g_strmgr@ATL@@3VCAtlStringMgr@1@A ; ATL::g_strmgr

; 955  : 	}

  00005	c3		 ret	 0
?GetDefaultManager@?$StrTraitATL@DV?$ChTraitsCRT@D@ATL@@@ATL@@SAPAUIAtlStringMgr@2@XZ ENDP ; ATL::StrTraitATL<char,ATL::ChTraitsCRT<char> >::GetDefaultManager
_TEXT	ENDS
PUBLIC	?GetString@?$CSimpleStringT@D$0A@@ATL@@QBEPBDXZ	; ATL::CSimpleStringT<char,0>::GetString
; Function compile flags: /Ogty
; File c:\program files (x86)\microsoft visual studio .net 2003\vc7\atlmfc\include\atlsimpstr.h
;	COMDAT ?GetString@?$CSimpleStringT@D$0A@@ATL@@QBEPBDXZ
_TEXT	SEGMENT
?GetString@?$CSimpleStringT@D$0A@@ATL@@QBEPBDXZ PROC NEAR ; ATL::CSimpleStringT<char,0>::GetString, COMDAT
; _this$ = ecx

; 510  : 		return( m_pszData );

  00000	8b 01		 mov	 eax, DWORD PTR [ecx]

; 511  : 	}

  00002	c3		 ret	 0
?GetString@?$CSimpleStringT@D$0A@@ATL@@QBEPBDXZ ENDP	; ATL::CSimpleStringT<char,0>::GetString
_TEXT	ENDS
PUBLIC	?Attach@?$CSimpleStringT@D$0A@@ATL@@AAEXPAUCStringData@2@@Z ; ATL::CSimpleStringT<char,0>::Attach
; Function compile flags: /Ogty
;	COMDAT ?Attach@?$CSimpleStringT@D$0A@@ATL@@AAEXPAUCStringData@2@@Z
_TEXT	SEGMENT
_pData$ = 8						; size = 4
?Attach@?$CSimpleStringT@D$0A@@ATL@@AAEXPAUCStringData@2@@Z PROC NEAR ; ATL::CSimpleStringT<char,0>::Attach, COMDAT
; _this$ = ecx

; 712  : 		m_pszData = static_cast< PXSTR >( pData->data() );

  00000	8b 44 24 04	 mov	 eax, DWORD PTR _pData$[esp-4]
  00004	83 c0 10	 add	 eax, 16			; 00000010H
  00007	89 01		 mov	 DWORD PTR [ecx], eax

; 713  : 	}

  00009	c2 04 00	 ret	 4
?Attach@?$CSimpleStringT@D$0A@@ATL@@AAEXPAUCStringData@2@@Z ENDP ; ATL::CSimpleStringT<char,0>::Attach
_TEXT	ENDS
PUBLIC	?GetBaseTypeLength@?$ChTraitsCRT@D@ATL@@SAHPBGH@Z ; ATL::ChTraitsCRT<char>::GetBaseTypeLength
EXTRN	__imp__WideCharToMultiByte@32:NEAR
; Function compile flags: /Ogty
; File c:\program files (x86)\microsoft visual studio .net 2003\vc7\atlmfc\include\cstringt.h
;	COMDAT ?GetBaseTypeLength@?$ChTraitsCRT@D@ATL@@SAHPBGH@Z
_TEXT	SEGMENT
_pszSource$ = 8						; size = 4
_nLength$ = 12						; size = 4
?GetBaseTypeLength@?$ChTraitsCRT@D@ATL@@SAHPBGH@Z PROC NEAR ; ATL::ChTraitsCRT<char>::GetBaseTypeLength, COMDAT

; 437  : 		// Returns required buffer length in XCHARs
; 438  : 		return ::WideCharToMultiByte( _AtlGetConversionACP(), 0, pszSource, nLength, NULL, 0, NULL, NULL );

  00000	8b 44 24 08	 mov	 eax, DWORD PTR _nLength$[esp-4]
  00004	8b 4c 24 04	 mov	 ecx, DWORD PTR _pszSource$[esp-4]
  00008	6a 00		 push	 0
  0000a	6a 00		 push	 0
  0000c	6a 00		 push	 0
  0000e	6a 00		 push	 0
  00010	50		 push	 eax
  00011	51		 push	 ecx
  00012	6a 00		 push	 0
  00014	ff 15 00 00 00
	00		 call	 DWORD PTR ?g_pfnGetThreadACP@ATL@@3P6GIXZA ; ATL::g_pfnGetThreadACP
  0001a	50		 push	 eax
  0001b	ff 15 00 00 00
	00		 call	 DWORD PTR __imp__WideCharToMultiByte@32

; 439  : 	}

  00021	c3		 ret	 0
?GetBaseTypeLength@?$ChTraitsCRT@D@ATL@@SAHPBGH@Z ENDP	; ATL::ChTraitsCRT<char>::GetBaseTypeLength
_TEXT	ENDS
PUBLIC	?ConvertToBaseType@?$ChTraitsCRT@D@ATL@@SAXPADHPBGH@Z ; ATL::ChTraitsCRT<char>::ConvertToBaseType
; Function compile flags: /Ogty
;	COMDAT ?ConvertToBaseType@?$ChTraitsCRT@D@ATL@@SAXPADHPBGH@Z
_TEXT	SEGMENT
_pszDest$ = 8						; size = 4
_nDestLength$ = 12					; size = 4
_pszSrc$ = 16						; size = 4
_nSrcLength$ = 20					; size = 4
?ConvertToBaseType@?$ChTraitsCRT@D@ATL@@SAXPADHPBGH@Z PROC NEAR ; ATL::ChTraitsCRT<char>::ConvertToBaseType, COMDAT

; 452  : 		// nLen is in XCHARs
; 453  : 		::WideCharToMultiByte( _AtlGetConversionACP(), 0, pszSrc, nSrcLength, pszDest, nDestLength, NULL, NULL );

  00000	8b 44 24 08	 mov	 eax, DWORD PTR _nDestLength$[esp-4]
  00004	8b 4c 24 04	 mov	 ecx, DWORD PTR _pszDest$[esp-4]
  00008	8b 54 24 10	 mov	 edx, DWORD PTR _nSrcLength$[esp-4]
  0000c	6a 00		 push	 0
  0000e	6a 00		 push	 0
  00010	50		 push	 eax
  00011	8b 44 24 18	 mov	 eax, DWORD PTR _pszSrc$[esp+8]
  00015	51		 push	 ecx
  00016	52		 push	 edx
  00017	50		 push	 eax
  00018	6a 00		 push	 0
  0001a	ff 15 00 00 00
	00		 call	 DWORD PTR ?g_pfnGetThreadACP@ATL@@3P6GIXZA ; ATL::g_pfnGetThreadACP
  00020	50		 push	 eax
  00021	ff 15 00 00 00
	00		 call	 DWORD PTR __imp__WideCharToMultiByte@32

; 454  : 	}

  00027	c3		 ret	 0
?ConvertToBaseType@?$ChTraitsCRT@D@ATL@@SAXPADHPBGH@Z ENDP ; ATL::ChTraitsCRT<char>::ConvertToBaseType
_TEXT	ENDS
PUBLIC	?CopyChars@?$CSimpleStringT@D$0A@@ATL@@SAXPADPBDH@Z ; ATL::CSimpleStringT<char,0>::CopyChars
; Function compile flags: /Ogty
; File c:\program files (x86)\microsoft visual studio .net 2003\vc7\atlmfc\include\atlsimpstr.h
;	COMDAT ?CopyChars@?$CSimpleStringT@D$0A@@ATL@@SAXPADPBDH@Z
_TEXT	SEGMENT
_pchDest$ = 8						; size = 4
_pchSrc$ = 12						; size = 4
_nChars$ = 16						; size = 4
?CopyChars@?$CSimpleStringT@D$0A@@ATL@@SAXPADPBDH@Z PROC NEAR ; ATL::CSimpleStringT<char,0>::CopyChars, COMDAT

; 653  : 		memcpy( pchDest, pchSrc, nChars*sizeof( XCHAR ) );

  00000	8b 4c 24 0c	 mov	 ecx, DWORD PTR _nChars$[esp-4]
  00004	56		 push	 esi
  00005	8b 74 24 0c	 mov	 esi, DWORD PTR _pchSrc$[esp]
  00009	8b c1		 mov	 eax, ecx
  0000b	57		 push	 edi
  0000c	8b 7c 24 0c	 mov	 edi, DWORD PTR _pchDest$[esp+4]
  00010	c1 e9 02	 shr	 ecx, 2
  00013	f3 a5		 rep movsd
  00015	8b c8		 mov	 ecx, eax
  00017	83 e1 03	 and	 ecx, 3
  0001a	f3 a4		 rep movsb
  0001c	5f		 pop	 edi
  0001d	5e		 pop	 esi

; 654  : 	}

  0001e	c3		 ret	 0
?CopyChars@?$CSimpleStringT@D$0A@@ATL@@SAXPADPBDH@Z ENDP ; ATL::CSimpleStringT<char,0>::CopyChars
_TEXT	ENDS
PUBLIC	?CopyCharsOverlapped@?$CSimpleStringT@D$0A@@ATL@@SAXPADPBDH@Z ; ATL::CSimpleStringT<char,0>::CopyCharsOverlapped
EXTRN	_memmove:NEAR
; Function compile flags: /Ogty
;	COMDAT ?CopyCharsOverlapped@?$CSimpleStringT@D$0A@@ATL@@SAXPADPBDH@Z
_TEXT	SEGMENT
_pchDest$ = 8						; size = 4
_pchSrc$ = 12						; size = 4
_nChars$ = 16						; size = 4
?CopyCharsOverlapped@?$CSimpleStringT@D$0A@@ATL@@SAXPADPBDH@Z PROC NEAR ; ATL::CSimpleStringT<char,0>::CopyCharsOverlapped, COMDAT

; 657  : 		memmove( pchDest, pchSrc, nChars*sizeof( XCHAR ) );

  00000	e9 00 00 00 00	 jmp	 _memmove
?CopyCharsOverlapped@?$CSimpleStringT@D$0A@@ATL@@SAXPADPBDH@Z ENDP ; ATL::CSimpleStringT<char,0>::CopyCharsOverlapped
_TEXT	ENDS
PUBLIC	?StringLength@?$CSimpleStringT@D$0A@@ATL@@SAHPBD@Z ; ATL::CSimpleStringT<char,0>::StringLength
; Function compile flags: /Ogty
;	COMDAT ?StringLength@?$CSimpleStringT@D$0A@@ATL@@SAHPBD@Z
_TEXT	SEGMENT
_psz$ = 8						; size = 4
?StringLength@?$CSimpleStringT@D$0A@@ATL@@SAHPBD@Z PROC NEAR ; ATL::CSimpleStringT<char,0>::StringLength, COMDAT

; 678  : 		if( psz == NULL )

  00000	8b 44 24 04	 mov	 eax, DWORD PTR _psz$[esp-4]
  00004	85 c0		 test	 eax, eax
  00006	75 01		 jne	 SHORT $L150470

; 683  : 	}

  00008	c3		 ret	 0
$L150470:

; 679  : 		{
; 680  : 			return( 0 );
; 681  : 		}
; 682  : 		return( int( strlen( psz ) ) );

  00009	8d 50 01	 lea	 edx, DWORD PTR [eax+1]
  0000c	8d 64 24 00	 npad	 4
$L177873:
  00010	8a 08		 mov	 cl, BYTE PTR [eax]
  00012	40		 inc	 eax
  00013	84 c9		 test	 cl, cl
  00015	75 f9		 jne	 SHORT $L177873
  00017	2b c2		 sub	 eax, edx

; 683  : 	}

  00019	c3		 ret	 0
?StringLength@?$CSimpleStringT@D$0A@@ATL@@SAHPBD@Z ENDP	; ATL::CSimpleStringT<char,0>::StringLength
_TEXT	ENDS
PUBLIC	?ThrowMemoryException@?$CSimpleStringT@D$0A@@ATL@@KAXXZ ; ATL::CSimpleStringT<char,0>::ThrowMemoryException
; Function compile flags: /Ogty
;	COMDAT ?ThrowMemoryException@?$CSimpleStringT@D$0A@@ATL@@KAXXZ
_TEXT	SEGMENT
?ThrowMemoryException@?$CSimpleStringT@D$0A@@ATL@@KAXXZ PROC NEAR ; ATL::CSimpleStringT<char,0>::ThrowMemoryException, COMDAT

; 705  : 		AtlThrow( E_OUTOFMEMORY );

  00000	68 0e 00 07 80	 push	 -2147024882		; 8007000eH
  00005	e8 00 00 00 00	 call	 ?AtlThrow@ATL@@YGXJ@Z	; ATL::AtlThrow
$L177878:
$L177877:
  0000a	cc		 int	 3
?ThrowMemoryException@?$CSimpleStringT@D$0A@@ATL@@KAXXZ ENDP ; ATL::CSimpleStringT<char,0>::ThrowMemoryException
_TEXT	ENDS
PUBLIC	?Fork@?$CSimpleStringT@D$0A@@ATL@@AAEXH@Z	; ATL::CSimpleStringT<char,0>::Fork
; Function compile flags: /Ogty
;	COMDAT ?Fork@?$CSimpleStringT@D$0A@@ATL@@AAEXH@Z
_TEXT	SEGMENT
_this$ = -4						; size = 4
tv181 = 8						; size = 4
_nLength$ = 8						; size = 4
?Fork@?$CSimpleStringT@D$0A@@ATL@@AAEXH@Z PROC NEAR	; ATL::CSimpleStringT<char,0>::Fork, COMDAT
; _this$ = ecx

; 715  : 	{

  00000	51		 push	 ecx
  00001	53		 push	 ebx

; 716  : 		CStringData* pOldData = GetData();

  00002	8b 19		 mov	 ebx, DWORD PTR [ecx]
  00004	83 eb 10	 sub	 ebx, 16			; 00000010H
  00007	55		 push	 ebp

; 717  : 		int nOldLength = pOldData->nDataLength;

  00008	8b 6b 04	 mov	 ebp, DWORD PTR [ebx+4]
  0000b	89 4c 24 08	 mov	 DWORD PTR _this$[esp+12], ecx

; 718  : 		CStringData* pNewData = pOldData->pStringMgr->Clone()->Allocate( nLength, sizeof( XCHAR ) );

  0000f	8b 0b		 mov	 ecx, DWORD PTR [ebx]
  00011	8b 01		 mov	 eax, DWORD PTR [ecx]
  00013	56		 push	 esi
  00014	ff 50 10	 call	 DWORD PTR [eax+16]
  00017	8b 74 24 14	 mov	 esi, DWORD PTR _nLength$[esp+12]
  0001b	8b 10		 mov	 edx, DWORD PTR [eax]
  0001d	6a 01		 push	 1
  0001f	56		 push	 esi
  00020	8b c8		 mov	 ecx, eax
  00022	ff 12		 call	 DWORD PTR [edx]

; 719  : 		if( pNewData == NULL )

  00024	85 c0		 test	 eax, eax
  00026	75 05		 jne	 SHORT $L150479

; 720  : 		{
; 721  : 			ThrowMemoryException();

  00028	e8 00 00 00 00	 call	 ?ThrowMemoryException@?$CSimpleStringT@D$0A@@ATL@@KAXXZ ; ATL::CSimpleStringT<char,0>::ThrowMemoryException
$L177909:
$L150479:

; 722  : 		}
; 723  : 		int nCharsToCopy = ((nOldLength < nLength) ? nOldLength : nLength)+1;  // Copy '\0'

  0002d	3b ee		 cmp	 ebp, esi
  0002f	7d 02		 jge	 SHORT $L177883
  00031	8b f5		 mov	 esi, ebp
$L177883:
  00033	8d 4e 01	 lea	 ecx, DWORD PTR [esi+1]

; 724  : 		CopyChars( PXSTR( pNewData->data() ), PCXSTR( pOldData->data() ), nCharsToCopy );

  00036	8b d1		 mov	 edx, ecx
  00038	57		 push	 edi
  00039	c1 e9 02	 shr	 ecx, 2
  0003c	8d 78 10	 lea	 edi, DWORD PTR [eax+16]
  0003f	89 7c 24 18	 mov	 DWORD PTR tv181[esp+16], edi
  00043	8d 73 10	 lea	 esi, DWORD PTR [ebx+16]
  00046	f3 a5		 rep movsd
  00048	8b ca		 mov	 ecx, edx
  0004a	83 e1 03	 and	 ecx, 3
  0004d	f3 a4		 rep movsb

; 725  : 		pNewData->nDataLength = nOldLength;

  0004f	89 68 04	 mov	 DWORD PTR [eax+4], ebp

; 726  : 		pOldData->Release();

  00052	8d 43 0c	 lea	 eax, DWORD PTR [ebx+12]
  00055	83 c9 ff	 or	 ecx, -1
  00058	f0 0f c1 08	 lock	  xadd	 DWORD PTR [eax], ecx
  0005c	49		 dec	 ecx
  0005d	85 c9		 test	 ecx, ecx
  0005f	5f		 pop	 edi
  00060	7f 08		 jg	 SHORT $L177899
  00062	8b 0b		 mov	 ecx, DWORD PTR [ebx]
  00064	8b 11		 mov	 edx, DWORD PTR [ecx]
  00066	53		 push	 ebx
  00067	ff 52 04	 call	 DWORD PTR [edx+4]
$L177899:

; 727  : 		Attach( pNewData );

  0006a	8b 44 24 14	 mov	 eax, DWORD PTR tv181[esp+12]
  0006e	8b 4c 24 0c	 mov	 ecx, DWORD PTR _this$[esp+16]
  00072	5e		 pop	 esi
  00073	5d		 pop	 ebp
  00074	89 01		 mov	 DWORD PTR [ecx], eax
  00076	5b		 pop	 ebx

; 728  : 	}

  00077	59		 pop	 ecx
  00078	c2 04 00	 ret	 4
$L177908:
?Fork@?$CSimpleStringT@D$0A@@ATL@@AAEXH@Z ENDP		; ATL::CSimpleStringT<char,0>::Fork
_TEXT	ENDS
PUBLIC	?Reallocate@?$CSimpleStringT@D$0A@@ATL@@AAEXH@Z	; ATL::CSimpleStringT<char,0>::Reallocate
; Function compile flags: /Ogty
;	COMDAT ?Reallocate@?$CSimpleStringT@D$0A@@ATL@@AAEXH@Z
_TEXT	SEGMENT
_nLength$ = 8						; size = 4
?Reallocate@?$CSimpleStringT@D$0A@@ATL@@AAEXH@Z PROC NEAR ; ATL::CSimpleStringT<char,0>::Reallocate, COMDAT
; _this$ = ecx

; 776  : 	{

  00000	56		 push	 esi
  00001	57		 push	 edi

; 777  : 		CStringData* pOldData = GetData();
; 778  : 		ATLASSERT( pOldData->nAllocLength < nLength );
; 779  : 		IAtlStringMgr* pStringMgr = pOldData->pStringMgr;
; 780  : 		CStringData* pNewData = pStringMgr->Reallocate( pOldData, nLength, sizeof( XCHAR ) );

  00002	8b 7c 24 0c	 mov	 edi, DWORD PTR _nLength$[esp+4]
  00006	8b f1		 mov	 esi, ecx
  00008	8b 06		 mov	 eax, DWORD PTR [esi]
  0000a	8b 48 f0	 mov	 ecx, DWORD PTR [eax-16]
  0000d	8b 11		 mov	 edx, DWORD PTR [ecx]
  0000f	83 e8 10	 sub	 eax, 16			; 00000010H
  00012	6a 01		 push	 1
  00014	57		 push	 edi
  00015	50		 push	 eax
  00016	ff 52 08	 call	 DWORD PTR [edx+8]

; 781  : 		if( pNewData == NULL )

  00019	85 c0		 test	 eax, eax
  0001b	75 05		 jne	 SHORT $L150488

; 782  : 		{
; 783  : 			ThrowMemoryException();

  0001d	e8 00 00 00 00	 call	 ?ThrowMemoryException@?$CSimpleStringT@D$0A@@ATL@@KAXXZ ; ATL::CSimpleStringT<char,0>::ThrowMemoryException
$L177925:
$L150488:

; 784  : 		}
; 785  : 		Attach( pNewData );

  00022	83 c0 10	 add	 eax, 16			; 00000010H
  00025	5f		 pop	 edi
  00026	89 06		 mov	 DWORD PTR [esi], eax
  00028	5e		 pop	 esi

; 786  : 	}

  00029	c2 04 00	 ret	 4
$L177924:
?Reallocate@?$CSimpleStringT@D$0A@@ATL@@AAEXH@Z ENDP	; ATL::CSimpleStringT<char,0>::Reallocate
_TEXT	ENDS
PUBLIC	?SetLength@?$CSimpleStringT@D$0A@@ATL@@AAEXH@Z	; ATL::CSimpleStringT<char,0>::SetLength
; Function compile flags: /Ogty
;	COMDAT ?SetLength@?$CSimpleStringT@D$0A@@ATL@@AAEXH@Z
_TEXT	SEGMENT
_nLength$ = 8						; size = 4
?SetLength@?$CSimpleStringT@D$0A@@ATL@@AAEXH@Z PROC NEAR ; ATL::CSimpleStringT<char,0>::SetLength, COMDAT
; _this$ = ecx

; 790  : 		ATLASSERT( nLength >= 0 );
; 791  : 		ATLASSERT( nLength <= GetData()->nAllocLength );
; 792  : 
; 793  : 		if( nLength < 0 || nLength > GetData()->nAllocLength)

  00000	8b 44 24 04	 mov	 eax, DWORD PTR _nLength$[esp-4]
  00004	85 c0		 test	 eax, eax
  00006	7c 13		 jl	 SHORT $L150494
  00008	8b 11		 mov	 edx, DWORD PTR [ecx]
  0000a	3b 42 f8	 cmp	 eax, DWORD PTR [edx-8]
  0000d	7f 0c		 jg	 SHORT $L150494

; 794  : 			AtlThrow(E_INVALIDARG);
; 795  : 			
; 796  : 		GetData()->nDataLength = nLength;

  0000f	89 42 f4	 mov	 DWORD PTR [edx-12], eax

; 797  : 		m_pszData[nLength] = 0;

  00012	8b 09		 mov	 ecx, DWORD PTR [ecx]
  00014	c6 04 08 00	 mov	 BYTE PTR [eax+ecx], 0

; 798  : 	}

  00018	c2 04 00	 ret	 4
$L150494:
  0001b	68 57 00 07 80	 push	 -2147024809		; 80070057H
  00020	e8 00 00 00 00	 call	 ?AtlThrow@ATL@@YGXJ@Z	; ATL::AtlThrow
$L177936:
$L177935:
  00025	cc		 int	 3
?SetLength@?$CSimpleStringT@D$0A@@ATL@@AAEXH@Z ENDP	; ATL::CSimpleStringT<char,0>::SetLength
_TEXT	ENDS
PUBLIC	??1CUdpSocket@@QAE@XZ				; CUdpSocket::~CUdpSocket
EXTRN	__imp__DeleteCriticalSection@4:NEAR
; Function compile flags: /Ogty
; File c:\users\pierr\desktop\4story - oldschool\sources\tserver\tmapsvr\udpsocket.cpp
;	COMDAT ??1CUdpSocket@@QAE@XZ
_TEXT	SEGMENT
??1CUdpSocket@@QAE@XZ PROC NEAR				; CUdpSocket::~CUdpSocket, COMDAT
; _this$ = ecx

; 23   : {

  00000	56		 push	 esi
  00001	8b f1		 mov	 esi, ecx

; 24   : 	CLOSESOCKET(m_SendSock);

  00003	8b 06		 mov	 eax, DWORD PTR [esi]
  00005	83 f8 ff	 cmp	 eax, -1
  00008	74 0d		 je	 SHORT $L177944
  0000a	50		 push	 eax
  0000b	ff 15 00 00 00
	00		 call	 DWORD PTR __imp__closesocket@4
  00011	c7 06 ff ff ff
	ff		 mov	 DWORD PTR [esi], -1
$L177944:

; 25   : 
; 26   : 	delete m_lpLogBuf;

  00017	8b 46 2c	 mov	 eax, DWORD PTR [esi+44]
  0001a	50		 push	 eax
  0001b	e8 00 00 00 00	 call	 ??3@YAXPAX@Z		; operator delete
  00020	83 c4 04	 add	 esp, 4

; 27   : 
; 28   : 	DeleteCriticalSection(&m_LogLock);

  00023	83 c6 14	 add	 esi, 20			; 00000014H
  00026	56		 push	 esi
  00027	ff 15 00 00 00
	00		 call	 DWORD PTR __imp__DeleteCriticalSection@4
  0002d	5e		 pop	 esi

; 29   : }

  0002e	c3		 ret	 0
??1CUdpSocket@@QAE@XZ ENDP				; CUdpSocket::~CUdpSocket
_TEXT	ENDS
PUBLIC	??0iterator@?$_Tree@V?$_Tmap_traits@EPAUtagTMAGIC@@U?$less@E@std@@V?$allocator@U?$pair@$$CBEPAUtagTMAGIC@@@std@@@3@$0A@@std@@@std@@QAE@XZ ; std::_Tree<std::_Tmap_traits<unsigned char,tagTMAGIC *,std::less<unsigned char>,std::allocator<std::pair<unsigned char const ,tagTMAGIC *> >,0> >::iterator::iterator
; Function compile flags: /Ogty
; File c:\program files (x86)\microsoft visual studio .net 2003\vc7\include\xtree
;	COMDAT ??0iterator@?$_Tree@V?$_Tmap_traits@EPAUtagTMAGIC@@U?$less@E@std@@V?$allocator@U?$pair@$$CBEPAUtagTMAGIC@@@std@@@3@$0A@@std@@@std@@QAE@XZ
_TEXT	SEGMENT
??0iterator@?$_Tree@V?$_Tmap_traits@EPAUtagTMAGIC@@U?$less@E@std@@V?$allocator@U?$pair@$$CBEPAUtagTMAGIC@@@std@@@3@$0A@@std@@@std@@QAE@XZ PROC NEAR ; std::_Tree<std::_Tmap_traits<unsigned char,tagTMAGIC *,std::less<unsigned char>,std::allocator<std::pair<unsigned char const ,tagTMAGIC *> >,0> >::iterator::iterator, COMDAT
; _this$ = ecx

; 304  : 		iterator()

  00000	8b c1		 mov	 eax, ecx
  00002	c7 00 00 00 00
	00		 mov	 DWORD PTR [eax], 0

; 305  : 			{	// construct with null node pointer
; 306  : 			}

  00008	c3		 ret	 0
??0iterator@?$_Tree@V?$_Tmap_traits@EPAUtagTMAGIC@@U?$less@E@std@@V?$allocator@U?$pair@$$CBEPAUtagTMAGIC@@@std@@@3@$0A@@std@@@std@@QAE@XZ ENDP ; std::_Tree<std::_Tmap_traits<unsigned char,tagTMAGIC *,std::less<unsigned char>,std::allocator<std::pair<unsigned char const ,tagTMAGIC *> >,0> >::iterator::iterator
_TEXT	ENDS
PUBLIC	??9const_iterator@?$_Tree@V?$_Tmap_traits@EPAUtagTMAGIC@@U?$less@E@std@@V?$allocator@U?$pair@$$CBEPAUtagTMAGIC@@@std@@@3@$0A@@std@@@std@@QBE_NABV012@@Z ; std::_Tree<std::_Tmap_traits<unsigned char,tagTMAGIC *,std::less<unsigned char>,std::allocator<std::pair<unsigned char const ,tagTMAGIC *> >,0> >::const_iterator::operator!=
; Function compile flags: /Ogty
;	COMDAT ??9const_iterator@?$_Tree@V?$_Tmap_traits@EPAUtagTMAGIC@@U?$less@E@std@@V?$allocator@U?$pair@$$CBEPAUtagTMAGIC@@@std@@@3@$0A@@std@@@std@@QBE_NABV012@@Z
_TEXT	SEGMENT
__Right$ = 8						; size = 4
??9const_iterator@?$_Tree@V?$_Tmap_traits@EPAUtagTMAGIC@@U?$less@E@std@@V?$allocator@U?$pair@$$CBEPAUtagTMAGIC@@@std@@@3@$0A@@std@@@std@@QBE_NABV012@@Z PROC NEAR ; std::_Tree<std::_Tmap_traits<unsigned char,tagTMAGIC *,std::less<unsigned char>,std::allocator<std::pair<unsigned char const ,tagTMAGIC *> >,0> >::const_iterator::operator!=, COMDAT
; _this$ = ecx

; 246  : 			return (!(*this == _Right));

  00000	8b 01		 mov	 eax, DWORD PTR [ecx]
  00002	8b 54 24 04	 mov	 edx, DWORD PTR __Right$[esp-4]
  00006	56		 push	 esi
  00007	8b 32		 mov	 esi, DWORD PTR [edx]
  00009	33 c9		 xor	 ecx, ecx
  0000b	3b c6		 cmp	 eax, esi
  0000d	0f 95 c1	 setne	 cl
  00010	8a c1		 mov	 al, cl
  00012	5e		 pop	 esi

; 247  : 			}

  00013	c2 04 00	 ret	 4
??9const_iterator@?$_Tree@V?$_Tmap_traits@EPAUtagTMAGIC@@U?$less@E@std@@V?$allocator@U?$pair@$$CBEPAUtagTMAGIC@@@std@@@3@$0A@@std@@@std@@QBE_NABV012@@Z ENDP ; std::_Tree<std::_Tmap_traits<unsigned char,tagTMAGIC *,std::less<unsigned char>,std::allocator<std::pair<unsigned char const ,tagTMAGIC *> >,0> >::const_iterator::operator!=
_TEXT	ENDS
PUBLIC	?_Lmost@?$_Tree@V?$_Tmap_traits@EPAUtagTMAGIC@@U?$less@E@std@@V?$allocator@U?$pair@$$CBEPAUtagTMAGIC@@@std@@@3@$0A@@std@@@std@@IAEAAPAU_Node@?$_Tree_nod@V?$_Tmap_traits@EPAUtagTMAGIC@@U?$less@E@std@@V?$allocator@U?$pair@$$CBEPAUtagTMAGIC@@@std@@@3@$0A@@std@@@2@XZ ; std::_Tree<std::_Tmap_traits<unsigned char,tagTMAGIC *,std::less<unsigned char>,std::allocator<std::pair<unsigned char const ,tagTMAGIC *> >,0> >::_Lmost
; Function compile flags: /Ogty
;	COMDAT ?_Lmost@?$_Tree@V?$_Tmap_traits@EPAUtagTMAGIC@@U?$less@E@std@@V?$allocator@U?$pair@$$CBEPAUtagTMAGIC@@@std@@@3@$0A@@std@@@std@@IAEAAPAU_Node@?$_Tree_nod@V?$_Tmap_traits@EPAUtagTMAGIC@@U?$less@E@std@@V?$allocator@U?$pair@$$CBEPAUtagTMAGIC@@@std@@@3@$0A@@std@@@2@XZ
_TEXT	SEGMENT
?_Lmost@?$_Tree@V?$_Tmap_traits@EPAUtagTMAGIC@@U?$less@E@std@@V?$allocator@U?$pair@$$CBEPAUtagTMAGIC@@@std@@@3@$0A@@std@@@std@@IAEAAPAU_Node@?$_Tree_nod@V?$_Tmap_traits@EPAUtagTMAGIC@@U?$less@E@std@@V?$allocator@U?$pair@$$CBEPAUtagTMAGIC@@@std@@@3@$0A@@std@@@2@XZ PROC NEAR ; std::_Tree<std::_Tmap_traits<unsigned char,tagTMAGIC *,std::less<unsigned char>,std::allocator<std::pair<unsigned char const ,tagTMAGIC *> >,0> >::_Lmost, COMDAT
; _this$ = ecx

; 1005 : 		return (_Left(_Myhead));

  00000	8b 41 04	 mov	 eax, DWORD PTR [ecx+4]

; 1006 : 		}

  00003	c3		 ret	 0
?_Lmost@?$_Tree@V?$_Tmap_traits@EPAUtagTMAGIC@@U?$less@E@std@@V?$allocator@U?$pair@$$CBEPAUtagTMAGIC@@@std@@@3@$0A@@std@@@std@@IAEAAPAU_Node@?$_Tree_nod@V?$_Tmap_traits@EPAUtagTMAGIC@@U?$less@E@std@@V?$allocator@U?$pair@$$CBEPAUtagTMAGIC@@@std@@@3@$0A@@std@@@2@XZ ENDP ; std::_Tree<std::_Tmap_traits<unsigned char,tagTMAGIC *,std::less<unsigned char>,std::allocator<std::pair<unsigned char const ,tagTMAGIC *> >,0> >::_Lmost
_TEXT	ENDS
PUBLIC	??0iterator@?$_Tree@V?$_Tmap_traits@EPAUtagTMAGIC@@U?$less@E@std@@V?$allocator@U?$pair@$$CBEPAUtagTMAGIC@@@std@@@3@$0A@@std@@@std@@QAE@PAU_Node@?$_Tree_nod@V?$_Tmap_traits@EPAUtagTMAGIC@@U?$less@E@std@@V?$allocator@U?$pair@$$CBEPAUtagTMAGIC@@@std@@@3@$0A@@std@@@2@@Z ; std::_Tree<std::_Tmap_traits<unsigned char,tagTMAGIC *,std::less<unsigned char>,std::allocator<std::pair<unsigned char const ,tagTMAGIC *> >,0> >::iterator::iterator
; Function compile flags: /Ogty
;	COMDAT ??0iterator@?$_Tree@V?$_Tmap_traits@EPAUtagTMAGIC@@U?$less@E@std@@V?$allocator@U?$pair@$$CBEPAUtagTMAGIC@@@std@@@3@$0A@@std@@@std@@QAE@PAU_Node@?$_Tree_nod@V?$_Tmap_traits@EPAUtagTMAGIC@@U?$less@E@std@@V?$allocator@U?$pair@$$CBEPAUtagTMAGIC@@@std@@@3@$0A@@std@@@2@@Z
_TEXT	SEGMENT
__Pnode$ = 8						; size = 4
??0iterator@?$_Tree@V?$_Tmap_traits@EPAUtagTMAGIC@@U?$less@E@std@@V?$allocator@U?$pair@$$CBEPAUtagTMAGIC@@@std@@@3@$0A@@std@@@std@@QAE@PAU_Node@?$_Tree_nod@V?$_Tmap_traits@EPAUtagTMAGIC@@U?$less@E@std@@V?$allocator@U?$pair@$$CBEPAUtagTMAGIC@@@std@@@3@$0A@@std@@@2@@Z PROC NEAR ; std::_Tree<std::_Tmap_traits<unsigned char,tagTMAGIC *,std::less<unsigned char>,std::allocator<std::pair<unsigned char const ,tagTMAGIC *> >,0> >::iterator::iterator, COMDAT
; _this$ = ecx

; 312  : 			{	// construct with node pointer _Pnode

  00000	8b c1		 mov	 eax, ecx
  00002	8b 4c 24 04	 mov	 ecx, DWORD PTR __Pnode$[esp-4]
  00006	89 08		 mov	 DWORD PTR [eax], ecx

; 313  : 			}

  00008	c2 04 00	 ret	 4
??0iterator@?$_Tree@V?$_Tmap_traits@EPAUtagTMAGIC@@U?$less@E@std@@V?$allocator@U?$pair@$$CBEPAUtagTMAGIC@@@std@@@3@$0A@@std@@@std@@QAE@PAU_Node@?$_Tree_nod@V?$_Tmap_traits@EPAUtagTMAGIC@@U?$less@E@std@@V?$allocator@U?$pair@$$CBEPAUtagTMAGIC@@@std@@@3@$0A@@std@@@2@@Z ENDP ; std::_Tree<std::_Tmap_traits<unsigned char,tagTMAGIC *,std::less<unsigned char>,std::allocator<std::pair<unsigned char const ,tagTMAGIC *> >,0> >::iterator::iterator
_TEXT	ENDS
PUBLIC	??Dconst_iterator@?$_Tree@V?$_Tmap_traits@EPAUtagTMAGIC@@U?$less@E@std@@V?$allocator@U?$pair@$$CBEPAUtagTMAGIC@@@std@@@3@$0A@@std@@@std@@QBEABU?$pair@$$CBEPAUtagTMAGIC@@@2@XZ ; std::_Tree<std::_Tmap_traits<unsigned char,tagTMAGIC *,std::less<unsigned char>,std::allocator<std::pair<unsigned char const ,tagTMAGIC *> >,0> >::const_iterator::operator*
; Function compile flags: /Ogty
;	COMDAT ??Dconst_iterator@?$_Tree@V?$_Tmap_traits@EPAUtagTMAGIC@@U?$less@E@std@@V?$allocator@U?$pair@$$CBEPAUtagTMAGIC@@@std@@@3@$0A@@std@@@std@@QBEABU?$pair@$$CBEPAUtagTMAGIC@@@2@XZ
_TEXT	SEGMENT
??Dconst_iterator@?$_Tree@V?$_Tmap_traits@EPAUtagTMAGIC@@U?$less@E@std@@V?$allocator@U?$pair@$$CBEPAUtagTMAGIC@@@std@@@3@$0A@@std@@@std@@QBEABU?$pair@$$CBEPAUtagTMAGIC@@@2@XZ PROC NEAR ; std::_Tree<std::_Tmap_traits<unsigned char,tagTMAGIC *,std::less<unsigned char>,std::allocator<std::pair<unsigned char const ,tagTMAGIC *> >,0> >::const_iterator::operator*, COMDAT
; _this$ = ecx

; 205  : 			return (_Myval(_Ptr));

  00000	8b 01		 mov	 eax, DWORD PTR [ecx]
  00002	83 c0 0c	 add	 eax, 12			; 0000000cH

; 206  : 			}

  00005	c3		 ret	 0
??Dconst_iterator@?$_Tree@V?$_Tmap_traits@EPAUtagTMAGIC@@U?$less@E@std@@V?$allocator@U?$pair@$$CBEPAUtagTMAGIC@@@std@@@3@$0A@@std@@@std@@QBEABU?$pair@$$CBEPAUtagTMAGIC@@@2@XZ ENDP ; std::_Tree<std::_Tmap_traits<unsigned char,tagTMAGIC *,std::less<unsigned char>,std::allocator<std::pair<unsigned char const ,tagTMAGIC *> >,0> >::const_iterator::operator*
_TEXT	ENDS
PUBLIC	?_Inc@const_iterator@?$_Tree@V?$_Tmap_traits@EPAUtagTMAGIC@@U?$less@E@std@@V?$allocator@U?$pair@$$CBEPAUtagTMAGIC@@@std@@@3@$0A@@std@@@std@@QAEXXZ ; std::_Tree<std::_Tmap_traits<unsigned char,tagTMAGIC *,std::less<unsigned char>,std::allocator<std::pair<unsigned char const ,tagTMAGIC *> >,0> >::const_iterator::_Inc
; Function compile flags: /Ogty
;	COMDAT ?_Inc@const_iterator@?$_Tree@V?$_Tmap_traits@EPAUtagTMAGIC@@U?$less@E@std@@V?$allocator@U?$pair@$$CBEPAUtagTMAGIC@@@std@@@3@$0A@@std@@@std@@QAEXXZ
_TEXT	SEGMENT
?_Inc@const_iterator@?$_Tree@V?$_Tmap_traits@EPAUtagTMAGIC@@U?$less@E@std@@V?$allocator@U?$pair@$$CBEPAUtagTMAGIC@@@std@@@3@$0A@@std@@@std@@QAEXXZ PROC NEAR ; std::_Tree<std::_Tmap_traits<unsigned char,tagTMAGIC *,std::less<unsigned char>,std::allocator<std::pair<unsigned char const ,tagTMAGIC *> >,0> >::const_iterator::_Inc, COMDAT
; _this$ = ecx

; 268  : 			if (_Isnil(_Ptr))

  00000	8b 01		 mov	 eax, DWORD PTR [ecx]
  00002	8a 50 15	 mov	 dl, BYTE PTR [eax+21]
  00005	84 d2		 test	 dl, dl
  00007	75 4d		 jne	 SHORT $L176569

; 269  : 				;	// end() shouldn't be incremented, don't move
; 270  : 			else if (!_Isnil(_Right(_Ptr)))

  00009	8b 50 08	 mov	 edx, DWORD PTR [eax+8]
  0000c	53		 push	 ebx
  0000d	8a 5a 15	 mov	 bl, BYTE PTR [edx+21]
  00010	84 db		 test	 bl, bl
  00012	75 1b		 jne	 SHORT $L178022

; 271  : 				_Ptr = _Min(_Right(_Ptr));	// ==> smallest of right subtree

  00014	8b 02		 mov	 eax, DWORD PTR [edx]
  00016	8a 58 15	 mov	 bl, BYTE PTR [eax+21]
  00019	84 db		 test	 bl, bl
  0001b	75 0e		 jne	 SHORT $L178003
  0001d	8d 49 00	 npad	 3
$L178002:
  00020	8b d0		 mov	 edx, eax
  00022	8b 02		 mov	 eax, DWORD PTR [edx]
  00024	8a 58 15	 mov	 bl, BYTE PTR [eax+21]
  00027	84 db		 test	 bl, bl
  00029	74 f5		 je	 SHORT $L178002
$L178003:
  0002b	89 11		 mov	 DWORD PTR [ecx], edx
  0002d	5b		 pop	 ebx

; 279  : 				}
; 280  : 			}

  0002e	c3		 ret	 0
$L178022:

; 272  : 			else
; 273  : 				{	// climb looking for right subtree
; 274  : 				_Nodeptr _Pnode;
; 275  : 				while (!_Isnil(_Pnode = _Parent(_Ptr))
; 276  : 					&& _Ptr == _Right(_Pnode))

  0002f	8b 40 04	 mov	 eax, DWORD PTR [eax+4]
  00032	8a 50 15	 mov	 dl, BYTE PTR [eax+21]
  00035	84 d2		 test	 dl, dl
  00037	75 1a		 jne	 SHORT $L176573
  00039	8d a4 24 00 00
	00 00		 npad	 7
$L176572:
  00040	8b 11		 mov	 edx, DWORD PTR [ecx]
  00042	3b 50 08	 cmp	 edx, DWORD PTR [eax+8]
  00045	75 0c		 jne	 SHORT $L176573

; 277  : 					_Ptr = _Pnode;	// ==> parent while right subtree

  00047	89 01		 mov	 DWORD PTR [ecx], eax
  00049	8b 40 04	 mov	 eax, DWORD PTR [eax+4]
  0004c	8a 50 15	 mov	 dl, BYTE PTR [eax+21]
  0004f	84 d2		 test	 dl, dl
  00051	74 ed		 je	 SHORT $L176572
$L176573:

; 278  : 				_Ptr = _Pnode;	// ==> parent (head if end())

  00053	89 01		 mov	 DWORD PTR [ecx], eax
  00055	5b		 pop	 ebx
$L176569:

; 279  : 				}
; 280  : 			}

  00056	c3		 ret	 0
?_Inc@const_iterator@?$_Tree@V?$_Tmap_traits@EPAUtagTMAGIC@@U?$less@E@std@@V?$allocator@U?$pair@$$CBEPAUtagTMAGIC@@@std@@@3@$0A@@std@@@std@@QAEXXZ ENDP ; std::_Tree<std::_Tmap_traits<unsigned char,tagTMAGIC *,std::less<unsigned char>,std::allocator<std::pair<unsigned char const ,tagTMAGIC *> >,0> >::const_iterator::_Inc
_TEXT	ENDS
PUBLIC	?GetTickCount@CTime@ATL@@SG?AV12@XZ		; ATL::CTime::GetTickCount
EXTRN	__time64:NEAR
; Function compile flags: /Ogty
; File c:\program files (x86)\microsoft visual studio .net 2003\vc7\atlmfc\include\atltime.inl
;	COMDAT ?GetTickCount@CTime@ATL@@SG?AV12@XZ
_TEXT	SEGMENT
___$ReturnUdt$ = 8					; size = 4
?GetTickCount@CTime@ATL@@SG?AV12@XZ PROC NEAR		; ATL::CTime::GetTickCount, COMDAT

; 139  : 	return( CTime( ::_time64( NULL ) ) );

  00000	6a 00		 push	 0
  00002	e8 00 00 00 00	 call	 __time64
  00007	8b 4c 24 08	 mov	 ecx, DWORD PTR ___$ReturnUdt$[esp]
  0000b	89 01		 mov	 DWORD PTR [ecx], eax
  0000d	83 c4 04	 add	 esp, 4
  00010	89 51 04	 mov	 DWORD PTR [ecx+4], edx
  00013	8b c1		 mov	 eax, ecx

; 140  : }

  00015	c2 04 00	 ret	 4
?GetTickCount@CTime@ATL@@SG?AV12@XZ ENDP		; ATL::CTime::GetTickCount
_TEXT	ENDS
PUBLIC	?GetLength@?$CSimpleStringT@D$0A@@ATL@@QBEHXZ	; ATL::CSimpleStringT<char,0>::GetLength
; Function compile flags: /Ogty
; File c:\program files (x86)\microsoft visual studio .net 2003\vc7\atlmfc\include\atlsimpstr.h
;	COMDAT ?GetLength@?$CSimpleStringT@D$0A@@ATL@@QBEHXZ
_TEXT	SEGMENT
?GetLength@?$CSimpleStringT@D$0A@@ATL@@QBEHXZ PROC NEAR	; ATL::CSimpleStringT<char,0>::GetLength, COMDAT
; _this$ = ecx

; 501  : 		return( GetData()->nDataLength );

  00000	8b 01		 mov	 eax, DWORD PTR [ecx]
  00002	8b 40 f4	 mov	 eax, DWORD PTR [eax-12]

; 502  : 	}

  00005	c3		 ret	 0
?GetLength@?$CSimpleStringT@D$0A@@ATL@@QBEHXZ ENDP	; ATL::CSimpleStringT<char,0>::GetLength
_TEXT	ENDS
PUBLIC	??0?$CSimpleStringT@D$0A@@ATL@@QAE@PAUIAtlStringMgr@1@@Z ; ATL::CSimpleStringT<char,0>::CSimpleStringT<char,0>
; Function compile flags: /Ogty
;	COMDAT ??0?$CSimpleStringT@D$0A@@ATL@@QAE@PAUIAtlStringMgr@1@@Z
_TEXT	SEGMENT
_pStringMgr$ = 8					; size = 4
??0?$CSimpleStringT@D$0A@@ATL@@QAE@PAUIAtlStringMgr@1@@Z PROC NEAR ; ATL::CSimpleStringT<char,0>::CSimpleStringT<char,0>, COMDAT
; _this$ = ecx

; 210  : 	explicit CSimpleStringT( IAtlStringMgr* pStringMgr ) throw()

  00000	56		 push	 esi
  00001	8b f1		 mov	 esi, ecx

; 211  : 	{
; 212  : 		ATLASSERT( pStringMgr != NULL );
; 213  : 		CStringData* pData = pStringMgr->GetNilString();

  00003	8b 4c 24 08	 mov	 ecx, DWORD PTR _pStringMgr$[esp]
  00007	8b 01		 mov	 eax, DWORD PTR [ecx]
  00009	ff 50 0c	 call	 DWORD PTR [eax+12]

; 214  : 		Attach( pData );

  0000c	83 c0 10	 add	 eax, 16			; 00000010H
  0000f	89 06		 mov	 DWORD PTR [esi], eax

; 215  : 	}

  00011	8b c6		 mov	 eax, esi
  00013	5e		 pop	 esi
  00014	c2 04 00	 ret	 4
??0?$CSimpleStringT@D$0A@@ATL@@QAE@PAUIAtlStringMgr@1@@Z ENDP ; ATL::CSimpleStringT<char,0>::CSimpleStringT<char,0>
_TEXT	ENDS
PUBLIC	??1?$CSimpleStringT@D$0A@@ATL@@QAE@XZ		; ATL::CSimpleStringT<char,0>::~CSimpleStringT<char,0>
; Function compile flags: /Ogty
;	COMDAT ??1?$CSimpleStringT@D$0A@@ATL@@QAE@XZ
_TEXT	SEGMENT
??1?$CSimpleStringT@D$0A@@ATL@@QAE@XZ PROC NEAR		; ATL::CSimpleStringT<char,0>::~CSimpleStringT<char,0>, COMDAT
; _this$ = ecx

; 263  : 		CStringData* pData = GetData();

  00000	8b 01		 mov	 eax, DWORD PTR [ecx]
  00002	83 e8 10	 sub	 eax, 16			; 00000010H

; 264  : 		pData->Release();

  00005	8d 48 0c	 lea	 ecx, DWORD PTR [eax+12]
  00008	83 ca ff	 or	 edx, -1
  0000b	f0 0f c1 11	 lock	  xadd	 DWORD PTR [ecx], edx
  0000f	4a		 dec	 edx
  00010	85 d2		 test	 edx, edx
  00012	7f 08		 jg	 SHORT $L178058
  00014	8b 08		 mov	 ecx, DWORD PTR [eax]
  00016	8b 11		 mov	 edx, DWORD PTR [ecx]
  00018	50		 push	 eax
  00019	ff 52 04	 call	 DWORD PTR [edx+4]
$L178058:

; 265  : 	}

  0001c	c3		 ret	 0
??1?$CSimpleStringT@D$0A@@ATL@@QAE@XZ ENDP		; ATL::CSimpleStringT<char,0>::~CSimpleStringT<char,0>
_TEXT	ENDS
PUBLIC	?ReleaseBufferSetLength@?$CSimpleStringT@D$0A@@ATL@@QAEXH@Z ; ATL::CSimpleStringT<char,0>::ReleaseBufferSetLength
; Function compile flags: /Ogty
;	COMDAT ?ReleaseBufferSetLength@?$CSimpleStringT@D$0A@@ATL@@QAEXH@Z
_TEXT	SEGMENT
_nNewLength$ = 8					; size = 4
?ReleaseBufferSetLength@?$CSimpleStringT@D$0A@@ATL@@QAEXH@Z PROC NEAR ; ATL::CSimpleStringT<char,0>::ReleaseBufferSetLength, COMDAT
; _this$ = ecx

; 547  : 		ATLASSERT( nNewLength >= 0 );
; 548  : 		SetLength( nNewLength );

  00000	8b 44 24 04	 mov	 eax, DWORD PTR _nNewLength$[esp-4]
  00004	85 c0		 test	 eax, eax
  00006	7c 13		 jl	 SHORT $L178077
  00008	8b 11		 mov	 edx, DWORD PTR [ecx]
  0000a	3b 42 f8	 cmp	 eax, DWORD PTR [edx-8]
  0000d	7f 0c		 jg	 SHORT $L178077
  0000f	89 42 f4	 mov	 DWORD PTR [edx-12], eax
  00012	8b 09		 mov	 ecx, DWORD PTR [ecx]
  00014	c6 04 08 00	 mov	 BYTE PTR [eax+ecx], 0

; 549  : 	}

  00018	c2 04 00	 ret	 4
$L178077:
  0001b	68 57 00 07 80	 push	 -2147024809		; 80070057H
  00020	e8 00 00 00 00	 call	 ?AtlThrow@ATL@@YGXJ@Z	; ATL::AtlThrow
$L178080:
$L178079:
  00025	cc		 int	 3
?ReleaseBufferSetLength@?$CSimpleStringT@D$0A@@ATL@@QAEXH@Z ENDP ; ATL::CSimpleStringT<char,0>::ReleaseBufferSetLength
_TEXT	ENDS
PUBLIC	?PrepareWrite2@?$CSimpleStringT@D$0A@@ATL@@AAEXH@Z ; ATL::CSimpleStringT<char,0>::PrepareWrite2
; Function compile flags: /Ogty
;	COMDAT ?PrepareWrite2@?$CSimpleStringT@D$0A@@ATL@@AAEXH@Z
_TEXT	SEGMENT
_nLength$ = 8						; size = 4
?PrepareWrite2@?$CSimpleStringT@D$0A@@ATL@@AAEXH@Z PROC NEAR ; ATL::CSimpleStringT<char,0>::PrepareWrite2, COMDAT
; _this$ = ecx

; 747  : 		CStringData* pOldData = GetData();

  00000	8b 01		 mov	 eax, DWORD PTR [ecx]

; 748  : 		if( pOldData->nDataLength > nLength )

  00002	8b 54 24 04	 mov	 edx, DWORD PTR _nLength$[esp-4]
  00006	83 e8 10	 sub	 eax, 16			; 00000010H
  00009	56		 push	 esi
  0000a	8b 70 04	 mov	 esi, DWORD PTR [eax+4]
  0000d	3b f2		 cmp	 esi, edx
  0000f	7e 02		 jle	 SHORT $L149740

; 749  : 		{
; 750  : 			nLength = pOldData->nDataLength;

  00011	8b d6		 mov	 edx, esi
$L149740:

; 751  : 		}
; 752  : 		if( pOldData->IsShared() )

  00013	83 78 0c 01	 cmp	 DWORD PTR [eax+12], 1
  00017	5e		 pop	 esi
  00018	7e 09		 jle	 SHORT $L149741

; 753  : 		{
; 754  : 			Fork( nLength );

  0001a	89 54 24 04	 mov	 DWORD PTR _nLength$[esp-4], edx
  0001e	e9 00 00 00 00	 jmp	 ?Fork@?$CSimpleStringT@D$0A@@ATL@@AAEXH@Z ; ATL::CSimpleStringT<char,0>::Fork
$L149741:

; 755  : 		}
; 756  : 		else if( pOldData->nAllocLength < nLength )

  00023	8b 40 08	 mov	 eax, DWORD PTR [eax+8]
  00026	3b c2		 cmp	 eax, edx
  00028	7d 1f		 jge	 SHORT $L149743

; 757  : 		{
; 758  : 			// Grow exponentially, until we hit 1K.
; 759  : 			int nNewLength = pOldData->nAllocLength;
; 760  : 			if( nNewLength > 1024 )

  0002a	3d 00 04 00 00	 cmp	 eax, 1024		; 00000400H
  0002f	7e 07		 jle	 SHORT $L149745

; 761  : 			{
; 762  : 				nNewLength += 1024;

  00031	05 00 04 00 00	 add	 eax, 1024		; 00000400H

; 763  : 			}
; 764  : 			else

  00036	eb 02		 jmp	 SHORT $L149746
$L149745:

; 765  : 			{
; 766  : 				nNewLength *= 2;

  00038	03 c0		 add	 eax, eax
$L149746:

; 767  : 			}
; 768  : 			if( nNewLength < nLength )

  0003a	3b c2		 cmp	 eax, edx
  0003c	7d 02		 jge	 SHORT $L149747

; 769  : 			{
; 770  : 				nNewLength = nLength;

  0003e	8b c2		 mov	 eax, edx
$L149747:

; 771  : 			}
; 772  : 			Reallocate( nNewLength );

  00040	89 44 24 04	 mov	 DWORD PTR _nLength$[esp-4], eax
  00044	e9 00 00 00 00	 jmp	 ?Reallocate@?$CSimpleStringT@D$0A@@ATL@@AAEXH@Z ; ATL::CSimpleStringT<char,0>::Reallocate
$L149743:

; 773  : 		}
; 774  : 	}

  00049	c2 04 00	 ret	 4
?PrepareWrite2@?$CSimpleStringT@D$0A@@ATL@@AAEXH@Z ENDP	; ATL::CSimpleStringT<char,0>::PrepareWrite2
_TEXT	ENDS
PUBLIC	?Empty@?$CSimpleStringT@D$0A@@ATL@@QAEXXZ	; ATL::CSimpleStringT<char,0>::Empty
; Function compile flags: /Ogty
;	COMDAT ?Empty@?$CSimpleStringT@D$0A@@ATL@@QAEXXZ
_TEXT	SEGMENT
?Empty@?$CSimpleStringT@D$0A@@ATL@@QAEXXZ PROC NEAR	; ATL::CSimpleStringT<char,0>::Empty, COMDAT
; _this$ = ecx

; 421  : 	{

  00000	56		 push	 esi
  00001	8b f1		 mov	 esi, ecx

; 422  : 		CStringData* pOldData = GetData();

  00003	8b 0e		 mov	 ecx, DWORD PTR [esi]

; 423  : 		IAtlStringMgr* pStringMgr = pOldData->pStringMgr;
; 424  : 		if( pOldData->nDataLength == 0 )

  00005	8b 51 f4	 mov	 edx, DWORD PTR [ecx-12]
  00008	85 d2		 test	 edx, edx
  0000a	8d 41 f0	 lea	 eax, DWORD PTR [ecx-16]
  0000d	57		 push	 edi
  0000e	8b 38		 mov	 edi, DWORD PTR [eax]
  00010	74 4c		 je	 SHORT $L178123
  00012	53		 push	 ebx

; 425  : 		{
; 426  : 			return;
; 427  : 		}
; 428  : 
; 429  : 		if( pOldData->IsLocked() )

  00013	8b 58 0c	 mov	 ebx, DWORD PTR [eax+12]
  00016	8d 50 0c	 lea	 edx, DWORD PTR [eax+12]
  00019	85 db		 test	 ebx, ebx
  0001b	5b		 pop	 ebx
  0001c	7d 20		 jge	 SHORT $L150462

; 430  : 		{
; 431  : 			// Don't reallocate a locked buffer that's shrinking
; 432  : 			SetLength( 0 );

  0001e	8b 41 f8	 mov	 eax, DWORD PTR [ecx-8]
  00021	85 c0		 test	 eax, eax
  00023	7d 0a		 jge	 SHORT $L178112
  00025	68 57 00 07 80	 push	 -2147024809		; 80070057H
  0002a	e8 00 00 00 00	 call	 ?AtlThrow@ATL@@YGXJ@Z	; ATL::AtlThrow
$L178128:
$L178112:
  0002f	c7 41 f4 00 00
	00 00		 mov	 DWORD PTR [ecx-12], 0
  00036	8b 06		 mov	 eax, DWORD PTR [esi]
  00038	5f		 pop	 edi
  00039	c6 00 00	 mov	 BYTE PTR [eax], 0
  0003c	5e		 pop	 esi

; 439  : 		}
; 440  : 	}

  0003d	c3		 ret	 0
$L150462:

; 433  : 		}
; 434  : 		else
; 435  : 		{
; 436  : 			pOldData->Release();

  0003e	83 c9 ff	 or	 ecx, -1
  00041	f0 0f c1 0a	 lock	  xadd	 DWORD PTR [edx], ecx
  00045	49		 dec	 ecx
  00046	85 c9		 test	 ecx, ecx
  00048	7f 08		 jg	 SHORT $L178117
  0004a	8b 08		 mov	 ecx, DWORD PTR [eax]
  0004c	8b 11		 mov	 edx, DWORD PTR [ecx]
  0004e	50		 push	 eax
  0004f	ff 52 04	 call	 DWORD PTR [edx+4]
$L178117:

; 437  : 			CStringData* pNewData = pStringMgr->GetNilString();

  00052	8b 07		 mov	 eax, DWORD PTR [edi]
  00054	8b cf		 mov	 ecx, edi
  00056	ff 50 0c	 call	 DWORD PTR [eax+12]

; 438  : 			Attach( pNewData );

  00059	83 c0 10	 add	 eax, 16			; 00000010H
  0005c	89 06		 mov	 DWORD PTR [esi], eax
$L178123:
  0005e	5f		 pop	 edi
  0005f	5e		 pop	 esi

; 439  : 		}
; 440  : 	}

  00060	c3		 ret	 0
$L178127:
?Empty@?$CSimpleStringT@D$0A@@ATL@@QAEXXZ ENDP		; ATL::CSimpleStringT<char,0>::Empty
_TEXT	ENDS
PUBLIC	?SendDMLog@CUdpSocket@@QAEXU_LOG_DATA_@@@Z	; CUdpSocket::SendDMLog
EXTRN	?_AtlModule@@3VCTMapSvrModule@@A:BYTE		; _AtlModule
EXTRN	?GetAsDBTIMESTAMP@CTime@ATL@@QBE_NAAUtagDBTIMESTAMP@@@Z:NEAR ; ATL::CTime::GetAsDBTIMESTAMP
EXTRN	?SendDM_UDPLOG_REQ@CTMapSvrModule@@QAEXU_LOG_DATA_@@@Z:NEAR ; CTMapSvrModule::SendDM_UDPLOG_REQ
; Function compile flags: /Ogty
; File c:\users\pierr\desktop\4story - oldschool\sources\tserver\tmapsvr\udpsocket.cpp
;	COMDAT ?SendDMLog@CUdpSocket@@QAEXU_LOG_DATA_@@@Z
_TEXT	SEGMENT
_tNowTime$ = -8						; size = 8
_pLogData$ = 8						; size = 1016
?SendDMLog@CUdpSocket@@QAEXU_LOG_DATA_@@@Z PROC NEAR	; CUdpSocket::SendDMLog, COMDAT
; _this$ = ecx

; 113  : {

  00000	83 ec 08	 sub	 esp, 8
  00003	56		 push	 esi
  00004	57		 push	 edi

; 114  : 	//	Set Current Time
; 115  : 	CTime tNowTime = CTime::GetCurrentTime();

  00005	6a 00		 push	 0
  00007	e8 00 00 00 00	 call	 __time64
  0000c	89 44 24 0c	 mov	 DWORD PTR _tNowTime$[esp+20], eax
  00010	83 c4 04	 add	 esp, 4

; 116  : 	tNowTime.GetAsDBTIMESTAMP( pLogData.tTimeStamp );

  00013	8d 44 24 14	 lea	 eax, DWORD PTR _pLogData$[esp+12]
  00017	50		 push	 eax
  00018	8d 4c 24 0c	 lea	 ecx, DWORD PTR _tNowTime$[esp+20]
  0001c	89 54 24 10	 mov	 DWORD PTR _tNowTime$[esp+24], edx
  00020	e8 00 00 00 00	 call	 ?GetAsDBTIMESTAMP@CTime@ATL@@QBE_NAAUtagDBTIMESTAMP@@@Z ; ATL::CTime::GetAsDBTIMESTAMP

; 117  : 
; 118  : 	//
; 119  : 	//	Send Batch Thead
; 120  : 	//
; 121  : 	_AtlModule.SendDM_UDPLOG_REQ(pLogData);

  00025	81 ec f8 03 00
	00		 sub	 esp, 1016		; 000003f8H
  0002b	8b fc		 mov	 edi, esp
  0002d	b9 fe 00 00 00	 mov	 ecx, 254		; 000000feH
  00032	8d b4 24 0c 04
	00 00		 lea	 esi, DWORD PTR _pLogData$[esp+1028]
  00039	f3 a5		 rep movsd
  0003b	b9 00 00 00 00	 mov	 ecx, OFFSET FLAT:?_AtlModule@@3VCTMapSvrModule@@A
  00040	e8 00 00 00 00	 call	 ?SendDM_UDPLOG_REQ@CTMapSvrModule@@QAEXU_LOG_DATA_@@@Z ; CTMapSvrModule::SendDM_UDPLOG_REQ

; 122  : }

  00045	5f		 pop	 edi
  00046	5e		 pop	 esi
  00047	83 c4 08	 add	 esp, 8
  0004a	c2 f8 03	 ret	 1016			; 000003f8H
?SendDMLog@CUdpSocket@@QAEXU_LOG_DATA_@@@Z ENDP		; CUdpSocket::SendDMLog
_TEXT	ENDS
PUBLIC	??_C@_0BF@LNLPBIJG@Now?5Money?5?3?5?$CFu?1?$CFu?1?$CFu?$AA@ ; `string'
PUBLIC	??_C@_02DPKJAMEF@?$CFd?$AA@			; `string'
PUBLIC	?LogMoney@CUdpSocket@@QAEXKPAVCTPlayer@@PAVCTMonster@@_JPAUtagQUESTTEMP@@E@Z ; CUdpSocket::LogMoney
EXTRN	__imp__lstrcpyA@8:NEAR
EXTRN	__imp__inet_ntoa@4:NEAR
EXTRN	__imp__wsprintfA:NEAR
EXTRN	__ftol2:NEAR
;	COMDAT ??_C@_0BF@LNLPBIJG@Now?5Money?5?3?5?$CFu?1?$CFu?1?$CFu?$AA@
; File c:\program files (x86)\microsoft visual studio .net 2003\vc7\atlmfc\include\atlsimpstr.h
CONST	SEGMENT
??_C@_0BF@LNLPBIJG@Now?5Money?5?3?5?$CFu?1?$CFu?1?$CFu?$AA@ DB 'Now Money'
	DB	' : %u/%u/%u', 00H				; `string'
CONST	ENDS
;	COMDAT ??_C@_02DPKJAMEF@?$CFd?$AA@
CONST	SEGMENT
??_C@_02DPKJAMEF@?$CFd?$AA@ DB '%d', 00H		; `string'
; Function compile flags: /Ogty
; File c:\users\pierr\desktop\4story - oldschool\sources\tserver\tmapsvr\udpsocket.cpp
CONST	ENDS
;	COMDAT ?LogMoney@CUdpSocket@@QAEXKPAVCTPlayer@@PAVCTMonster@@_JPAUtagQUESTTEMP@@E@Z
_TEXT	SEGMENT
_this$ = -1028						; size = 4
_LogData$ = -1024					; size = 1016
__$ArrayPad$ = -4					; size = 4
__$ReturnAddr$ = 4					; size = 4
_pAction$ = 8						; size = 4
_pPlayer$ = 12						; size = 4
_pMon$ = 16						; size = 4
_pMoney$ = 20						; size = 8
_pQUEST$ = 28						; size = 4
_bIsWorld$ = 32						; size = 1
?LogMoney@CUdpSocket@@QAEXKPAVCTPlayer@@PAVCTMonster@@_JPAUtagQUESTTEMP@@E@Z PROC NEAR ; CUdpSocket::LogMoney, COMDAT
; _this$ = ecx

; 128  : {

  00000	55		 push	 ebp
  00001	8b ec		 mov	 ebp, esp
  00003	83 e4 f8	 and	 esp, -8			; fffffff8H
  00006	81 ec 04 04 00
	00		 sub	 esp, 1028		; 00000404H
  0000c	a1 00 00 00 00	 mov	 eax, DWORD PTR ___security_cookie
  00011	53		 push	 ebx
  00012	56		 push	 esi

; 129  : 	if(!pPlayer) return;

  00013	8b 75 0c	 mov	 esi, DWORD PTR _pPlayer$[ebp]
  00016	33 db		 xor	 ebx, ebx
  00018	3b f3		 cmp	 esi, ebx
  0001a	89 84 24 08 04
	00 00		 mov	 DWORD PTR __$ArrayPad$[esp+1036], eax
  00021	57		 push	 edi
  00022	89 4c 24 0c	 mov	 DWORD PTR _this$[esp+1040], ecx
  00026	0f 84 86 01 00
	00		 je	 $L175270

; 130  : 
; 131  : 	_LOG_DATA_ LogData;
; 132  : 	memset( &LogData, 0x00, sizeof(_LOG_DATA_));
; 133  : 
; 134  : 	LogData.dwAction		=	pAction;
; 135  : 	LogData.dwServerID		=	_AtlModule.GetServerID();
; 136  : 
; 137  : 	lstrcpy( LogData.szClientIP, inet_ntoa(pPlayer->m_addr.sin_addr) );	

  0002c	8b 56 40	 mov	 edx, DWORD PTR [esi+64]
  0002f	33 c0		 xor	 eax, eax
  00031	b9 fe 00 00 00	 mov	 ecx, 254		; 000000feH
  00036	8d 7c 24 10	 lea	 edi, DWORD PTR _LogData$[esp+1040]
  0003a	f3 ab		 rep stosd
  0003c	0f b6 0d 82 9e
	00 00		 movzx	 ecx, BYTE PTR ?_AtlModule@@3VCTMapSvrModule@@A+40578
  00043	8b 45 08	 mov	 eax, DWORD PTR _pAction$[ebp]
  00046	52		 push	 edx
  00047	89 44 24 38	 mov	 DWORD PTR _LogData$[esp+1080], eax
  0004b	89 4c 24 24	 mov	 DWORD PTR _LogData$[esp+1060], ecx
  0004f	ff 15 00 00 00
	00		 call	 DWORD PTR __imp__inet_ntoa@4
  00055	8b 3d 00 00 00
	00		 mov	 edi, DWORD PTR __imp__lstrcpyA@8
  0005b	50		 push	 eax
  0005c	8d 44 24 28	 lea	 eax, DWORD PTR _LogData$[esp+1064]
  00060	50		 push	 eax
  00061	ff d7		 call	 edi

; 138  : 		
; 139  : 	LogData.wMapID			=	pPlayer->m_wMapID;				//	Map ID

  00063	66 8b 8e 90 01
	01 00		 mov	 cx, WORD PTR [esi+65936]

; 140  : 	LogData.nX				=	(int)pPlayer->m_fPosX;			//	X

  0006a	d9 86 7c 01 01
	00		 fld	 DWORD PTR [esi+65916]
  00070	66 89 4c 24 38	 mov	 WORD PTR _LogData$[esp+1080], cx
  00075	e8 00 00 00 00	 call	 __ftol2

; 141  : 	LogData.nY				=	(int)pPlayer->m_fPosY;			//	Y

  0007a	d9 86 80 01 01
	00		 fld	 DWORD PTR [esi+65920]
  00080	89 44 24 3c	 mov	 DWORD PTR _LogData$[esp+1084], eax
  00084	e8 00 00 00 00	 call	 __ftol2

; 142  : 	LogData.nZ				=	(int)pPlayer->m_fPosZ;			//	Z

  00089	d9 86 84 01 01
	00		 fld	 DWORD PTR [esi+65924]
  0008f	89 44 24 40	 mov	 DWORD PTR _LogData$[esp+1088], eax
  00093	e8 00 00 00 00	 call	 __ftol2

; 143  : 	
; 144  : 	LogData.dwKey[0]		=	pPlayer->m_dwUserID;			//	User ID

  00098	8b 96 ac 03 01
	00		 mov	 edx, DWORD PTR [esi+66476]

; 145  : 	LogData.dwKey[1]		=	pPlayer->m_dwID;				//	Character Seq
; 146  : 	lstrcpy(LogData.szKey[1],	pPlayer->m_strNAME	);			//	Character Name

  0009e	8b 8e a4 03 01
	00		 mov	 ecx, DWORD PTR [esi+66468]
  000a4	89 54 24 48	 mov	 DWORD PTR _LogData$[esp+1096], edx
  000a8	89 44 24 44	 mov	 DWORD PTR _LogData$[esp+1092], eax
  000ac	8b 86 44 01 01
	00		 mov	 eax, DWORD PTR [esi+65860]
  000b2	51		 push	 ecx
  000b3	8d 94 24 d6 00
	00 00		 lea	 edx, DWORD PTR _LogData$[esp+1238]
  000ba	52		 push	 edx
  000bb	89 5c 24 54	 mov	 DWORD PTR _LogData$[esp+1108], ebx
  000bf	89 44 24 58	 mov	 DWORD PTR _LogData$[esp+1112], eax
  000c3	89 5c 24 5c	 mov	 DWORD PTR _LogData$[esp+1116], ebx
  000c7	ff d7		 call	 edi

; 147  : 
; 148  : 	LogData.dwKey[9]		=	pPlayer->m_bCountry + (pPlayer->m_bAidCountry == TCONTRY_N ? 0 : (pPlayer->m_bAidCountry+1)*10);			//	Country

  000c9	8a 86 9e 01 01
	00		 mov	 al, BYTE PTR [esi+65950]
  000cf	3c 03		 cmp	 al, 3
  000d1	75 04		 jne	 SHORT $L178145
  000d3	33 c9		 xor	 ecx, ecx
  000d5	eb 09		 jmp	 SHORT $L178146
$L178145:
  000d7	0f b6 c0	 movzx	 eax, al
  000da	40		 inc	 eax
  000db	8d 0c 80	 lea	 ecx, DWORD PTR [eax+eax*4]
  000de	d1 e1		 shl	 ecx, 1
$L178146:
  000e0	0f b6 86 9d 01
	01 00		 movzx	 eax, BYTE PTR [esi+65949]
  000e7	03 c1		 add	 eax, ecx
  000e9	99		 cdq
  000ea	89 84 24 90 00
	00 00		 mov	 DWORD PTR _LogData$[esp+1168], eax

; 149  : 	LogData.dwKey[10]		=	pPlayer->m_bLevel;				//	Level

  000f1	0f b6 86 7b 01
	01 00		 movzx	 eax, BYTE PTR [esi+65915]
  000f8	89 94 24 94 00
	00 00		 mov	 DWORD PTR _LogData$[esp+1172], edx
  000ff	99		 cdq
  00100	89 84 24 98 00
	00 00		 mov	 DWORD PTR _LogData$[esp+1176], eax

; 150  : 
; 151  : 	if(pMon)

  00107	8b 45 10	 mov	 eax, DWORD PTR _pMon$[ebp]
  0010a	3b c3		 cmp	 eax, ebx
  0010c	89 94 24 9c 00
	00 00		 mov	 DWORD PTR _LogData$[esp+1180], edx
  00113	74 13		 je	 SHORT $L175277

; 152  : 	{	
; 153  : 		LogData.dwKey[2]	=	pMon->m_pMON->m_wID;			//	Monster	ID

  00115	8b 80 ec 00 00
	00		 mov	 eax, DWORD PTR [eax+236]
  0011b	0f b7 40 24	 movzx	 eax, WORD PTR [eax+36]
  0011f	99		 cdq
  00120	89 44 24 58	 mov	 DWORD PTR _LogData$[esp+1112], eax
  00124	89 54 24 5c	 mov	 DWORD PTR _LogData$[esp+1116], edx
$L175277:

; 154  : 	}
; 155  : 
; 156  : 	LogData.dwKey[5]		=	pMoney;							//	Get Money   
; 157  : 	wsprintf( LogData.szKey[5], "Now Money : %u/%u/%u",			//	Now Money
; 158  : 											pPlayer->m_dwGold,		
; 159  : 											pPlayer->m_dwSilver, 
; 160  : 											pPlayer->m_dwCooper );

  00128	8b 86 c8 03 01
	00		 mov	 eax, DWORD PTR [esi+66504]
  0012e	8b 4d 14	 mov	 ecx, DWORD PTR _pMoney$[ebp]
  00131	8b 55 18	 mov	 edx, DWORD PTR _pMoney$[ebp+4]
  00134	50		 push	 eax
  00135	89 4c 24 74	 mov	 DWORD PTR _LogData$[esp+1140], ecx
  00139	8b 8e cc 03 01
	00		 mov	 ecx, DWORD PTR [esi+66508]
  0013f	51		 push	 ecx
  00140	89 54 24 7c	 mov	 DWORD PTR _LogData$[esp+1148], edx
  00144	8b 96 d0 03 01
	00		 mov	 edx, DWORD PTR [esi+66512]
  0014a	8b 35 00 00 00
	00		 mov	 esi, DWORD PTR __imp__wsprintfA
  00150	52		 push	 edx
  00151	8d 84 24 a6 01
	00 00		 lea	 eax, DWORD PTR _LogData$[esp+1446]
  00158	68 00 00 00 00	 push	 OFFSET FLAT:??_C@_0BF@LNLPBIJG@Now?5Money?5?3?5?$CFu?1?$CFu?1?$CFu?$AA@
  0015d	50		 push	 eax
  0015e	ff d6		 call	 esi

; 161  : 
; 162  : 	if(pQUEST)

  00160	8b 45 1c	 mov	 eax, DWORD PTR _pQUEST$[ebp]
  00163	83 c4 14	 add	 esp, 20			; 00000014H
  00166	3b c3		 cmp	 eax, ebx
  00168	74 0b		 je	 SHORT $L175279

; 163  : 	{
; 164  : 		LogData.dwKey[6]	=	pQUEST->m_dwQuestID;			//	Quest

  0016a	8b 48 44	 mov	 ecx, DWORD PTR [eax+68]
  0016d	89 4c 24 78	 mov	 DWORD PTR _LogData$[esp+1144], ecx
  00171	89 5c 24 7c	 mov	 DWORD PTR _LogData$[esp+1148], ebx
$L175279:

; 165  : 	}
; 166  : 
; 167  : 	// Is World 	  
; 168  : 	LogData.dwFormat = LF_TEXT;
; 169  : 
; 170  : 	wsprintf(LogData.szLog, "%d", bIsWorld);

  00175	0f b6 55 20	 movzx	 edx, BYTE PTR _bIsWorld$[ebp]
  00179	52		 push	 edx
  0017a	8d 84 24 08 02
	00 00		 lea	 eax, DWORD PTR _LogData$[esp+1544]
  00181	68 00 00 00 00	 push	 OFFSET FLAT:??_C@_02DPKJAMEF@?$CFd?$AA@
  00186	50		 push	 eax
  00187	89 9c 24 0c 02
	00 00		 mov	 DWORD PTR _LogData$[esp+1548], ebx
  0018e	ff d6		 call	 esi

; 171  : 
; 172  : 	SendDMLog( LogData );

  00190	81 ec ec 03 00
	00		 sub	 esp, 1004		; 000003ecH
  00196	8b fc		 mov	 edi, esp
  00198	b9 fe 00 00 00	 mov	 ecx, 254		; 000000feH
  0019d	8d b4 24 08 04
	00 00		 lea	 esi, DWORD PTR _LogData$[esp+2056]
  001a4	f3 a5		 rep movsd
  001a6	8b 8c 24 04 04
	00 00		 mov	 ecx, DWORD PTR _this$[esp+2056]
  001ad	e8 00 00 00 00	 call	 ?SendDMLog@CUdpSocket@@QAEXU_LOG_DATA_@@@Z ; CUdpSocket::SendDMLog
$L175270:

; 173  : }

  001b2	8b 8c 24 0c 04
	00 00		 mov	 ecx, DWORD PTR __$ArrayPad$[esp+1040]
  001b9	e8 00 00 00 00	 call	 @__security_check_cookie@4
  001be	5f		 pop	 edi
  001bf	5e		 pop	 esi
  001c0	5b		 pop	 ebx
  001c1	8b e5		 mov	 esp, ebp
  001c3	5d		 pop	 ebp
  001c4	c2 1c 00	 ret	 28			; 0000001cH
?LogMoney@CUdpSocket@@QAEXKPAVCTPlayer@@PAVCTMonster@@_JPAUtagQUESTTEMP@@E@Z ENDP ; CUdpSocket::LogMoney
_TEXT	ENDS
PUBLIC	??_C@_0N@FCHLIMGO@Now?5Exp?5?3?5?$CFu?$AA@	; `string'
PUBLIC	?LogExpByMonster@CUdpSocket@@QAEXKPAVCTPlayer@@PAVCTMonster@@KE@Z ; CUdpSocket::LogExpByMonster
;	COMDAT ??_C@_0N@FCHLIMGO@Now?5Exp?5?3?5?$CFu?$AA@
; File c:\program files (x86)\microsoft visual studio .net 2003\vc7\atlmfc\include\atlsimpstr.h
CONST	SEGMENT
??_C@_0N@FCHLIMGO@Now?5Exp?5?3?5?$CFu?$AA@ DB 'Now Exp : %u', 00H ; `string'
; Function compile flags: /Ogty
; File c:\users\pierr\desktop\4story - oldschool\sources\tserver\tmapsvr\udpsocket.cpp
CONST	ENDS
;	COMDAT ?LogExpByMonster@CUdpSocket@@QAEXKPAVCTPlayer@@PAVCTMonster@@KE@Z
_TEXT	SEGMENT
_this$ = -1028						; size = 4
_LogData$ = -1024					; size = 1016
__$ArrayPad$ = -4					; size = 4
__$ReturnAddr$ = 4					; size = 4
_pAction$ = 8						; size = 4
_pPlayer$ = 12						; size = 4
_pMon$ = 16						; size = 4
_dwGain$ = 20						; size = 4
_bIsWorld$ = 24						; size = 1
?LogExpByMonster@CUdpSocket@@QAEXKPAVCTPlayer@@PAVCTMonster@@KE@Z PROC NEAR ; CUdpSocket::LogExpByMonster, COMDAT
; _this$ = ecx

; 883  : {

  00000	55		 push	 ebp
  00001	8b ec		 mov	 ebp, esp
  00003	83 e4 f8	 and	 esp, -8			; fffffff8H
  00006	81 ec 04 04 00
	00		 sub	 esp, 1028		; 00000404H
  0000c	a1 00 00 00 00	 mov	 eax, DWORD PTR ___security_cookie
  00011	53		 push	 ebx
  00012	56		 push	 esi

; 884  : 	if(!pPlayer || !pMon ) return;

  00013	8b 75 0c	 mov	 esi, DWORD PTR _pPlayer$[ebp]
  00016	33 db		 xor	 ebx, ebx
  00018	3b f3		 cmp	 esi, ebx
  0001a	89 84 24 08 04
	00 00		 mov	 DWORD PTR __$ArrayPad$[esp+1036], eax
  00021	57		 push	 edi
  00022	89 4c 24 0c	 mov	 DWORD PTR _this$[esp+1040], ecx
  00026	0f 84 6b 01 00
	00		 je	 $L175627
  0002c	39 5d 10	 cmp	 DWORD PTR _pMon$[ebp], ebx
  0002f	0f 84 62 01 00
	00		 je	 $L175627

; 885  : 
; 886  : 	_LOG_DATA_ LogData;
; 887  : 	memset( &LogData, 0x00, sizeof(_LOG_DATA_));
; 888  : 
; 889  : 	LogData.dwAction	=	pAction;
; 890  : 	LogData.dwServerID	=	_AtlModule.GetServerID();
; 891  : 
; 892  : 	lstrcpy( LogData.szClientIP, inet_ntoa(pPlayer->m_addr.sin_addr) );	

  00035	8b 56 40	 mov	 edx, DWORD PTR [esi+64]
  00038	33 c0		 xor	 eax, eax
  0003a	b9 fe 00 00 00	 mov	 ecx, 254		; 000000feH
  0003f	8d 7c 24 10	 lea	 edi, DWORD PTR _LogData$[esp+1040]
  00043	f3 ab		 rep stosd
  00045	0f b6 0d 82 9e
	00 00		 movzx	 ecx, BYTE PTR ?_AtlModule@@3VCTMapSvrModule@@A+40578
  0004c	8b 45 08	 mov	 eax, DWORD PTR _pAction$[ebp]
  0004f	52		 push	 edx
  00050	89 44 24 38	 mov	 DWORD PTR _LogData$[esp+1080], eax
  00054	89 4c 24 24	 mov	 DWORD PTR _LogData$[esp+1060], ecx
  00058	ff 15 00 00 00
	00		 call	 DWORD PTR __imp__inet_ntoa@4
  0005e	8b 3d 00 00 00
	00		 mov	 edi, DWORD PTR __imp__lstrcpyA@8
  00064	50		 push	 eax
  00065	8d 44 24 28	 lea	 eax, DWORD PTR _LogData$[esp+1064]
  00069	50		 push	 eax
  0006a	ff d7		 call	 edi

; 893  : 
; 894  : 
; 895  : 	LogData.wMapID			=	pPlayer->m_wMapID;				//	Map ID

  0006c	66 8b 8e 90 01
	01 00		 mov	 cx, WORD PTR [esi+65936]

; 896  : 	LogData.nX				=	(int)pPlayer->m_fPosX;			//	X

  00073	d9 86 7c 01 01
	00		 fld	 DWORD PTR [esi+65916]
  00079	66 89 4c 24 38	 mov	 WORD PTR _LogData$[esp+1080], cx
  0007e	e8 00 00 00 00	 call	 __ftol2

; 897  : 	LogData.nY				=	(int)pPlayer->m_fPosY;			//	Y

  00083	d9 86 80 01 01
	00		 fld	 DWORD PTR [esi+65920]
  00089	89 44 24 3c	 mov	 DWORD PTR _LogData$[esp+1084], eax
  0008d	e8 00 00 00 00	 call	 __ftol2

; 898  : 	LogData.nZ				=	(int)pPlayer->m_fPosZ;			//	Z

  00092	d9 86 84 01 01
	00		 fld	 DWORD PTR [esi+65924]
  00098	89 44 24 40	 mov	 DWORD PTR _LogData$[esp+1088], eax
  0009c	e8 00 00 00 00	 call	 __ftol2

; 899  : 
; 900  : 	LogData.dwKey[0]		=	pPlayer->m_dwUserID;			//	User ID

  000a1	8b 96 ac 03 01
	00		 mov	 edx, DWORD PTR [esi+66476]

; 901  : 	LogData.dwKey[1]		=	pPlayer->m_dwID;				//	Character Seq
; 902  : 	lstrcpy(LogData.szKey[1],	pPlayer->m_strNAME	);			//	Character Name

  000a7	8b 8e a4 03 01
	00		 mov	 ecx, DWORD PTR [esi+66468]
  000ad	89 54 24 48	 mov	 DWORD PTR _LogData$[esp+1096], edx
  000b1	89 44 24 44	 mov	 DWORD PTR _LogData$[esp+1092], eax
  000b5	8b 86 44 01 01
	00		 mov	 eax, DWORD PTR [esi+65860]
  000bb	51		 push	 ecx
  000bc	8d 94 24 d6 00
	00 00		 lea	 edx, DWORD PTR _LogData$[esp+1238]
  000c3	52		 push	 edx
  000c4	89 5c 24 54	 mov	 DWORD PTR _LogData$[esp+1108], ebx
  000c8	89 44 24 58	 mov	 DWORD PTR _LogData$[esp+1112], eax
  000cc	89 5c 24 5c	 mov	 DWORD PTR _LogData$[esp+1116], ebx
  000d0	ff d7		 call	 edi

; 903  : 
; 904  : 	LogData.dwKey[9]		=	pPlayer->m_bCountry + (pPlayer->m_bAidCountry == TCONTRY_N ? 0 : (pPlayer->m_bAidCountry+1)*10);			//	Country

  000d2	8a 86 9e 01 01
	00		 mov	 al, BYTE PTR [esi+65950]
  000d8	3c 03		 cmp	 al, 3
  000da	75 04		 jne	 SHORT $L178160
  000dc	33 c9		 xor	 ecx, ecx
  000de	eb 09		 jmp	 SHORT $L178161
$L178160:
  000e0	0f b6 c0	 movzx	 eax, al
  000e3	40		 inc	 eax
  000e4	8d 0c 80	 lea	 ecx, DWORD PTR [eax+eax*4]
  000e7	d1 e1		 shl	 ecx, 1
$L178161:
  000e9	0f b6 86 9d 01
	01 00		 movzx	 eax, BYTE PTR [esi+65949]
  000f0	03 c1		 add	 eax, ecx
  000f2	99		 cdq
  000f3	89 84 24 90 00
	00 00		 mov	 DWORD PTR _LogData$[esp+1168], eax

; 905  : 	LogData.dwKey[10]		=	pPlayer->m_bLevel;				//	Level

  000fa	0f b6 86 7b 01
	01 00		 movzx	 eax, BYTE PTR [esi+65915]
  00101	89 94 24 94 00
	00 00		 mov	 DWORD PTR _LogData$[esp+1172], edx
  00108	99		 cdq
  00109	89 84 24 98 00
	00 00		 mov	 DWORD PTR _LogData$[esp+1176], eax

; 906  : 
; 907  : 
; 908  : 
; 909  : 	if(pMon)
; 910  : 	{
; 911  : 		LogData.dwKey[2]	=	pMon->m_pMON->m_wID;			//	Npc ID

  00110	8b 45 10	 mov	 eax, DWORD PTR _pMon$[ebp]
  00113	8b 88 ec 00 00
	00		 mov	 ecx, DWORD PTR [eax+236]
  00119	89 94 24 9c 00
	00 00		 mov	 DWORD PTR _LogData$[esp+1180], edx
  00120	0f b7 41 24	 movzx	 eax, WORD PTR [ecx+36]
  00124	99		 cdq
  00125	89 44 24 58	 mov	 DWORD PTR _LogData$[esp+1112], eax

; 912  : 	}
; 913  : 
; 914  : 	LogData.dwKey[6]		=	dwGain;							// Exp
; 915  : 	wsprintf(LogData.szKey[6],"Now Exp : %u", pPlayer->m_dwEXP);// Now Exp

  00129	8b 86 d4 03 01
	00		 mov	 eax, DWORD PTR [esi+66516]
  0012f	8b 35 00 00 00
	00		 mov	 esi, DWORD PTR __imp__wsprintfA
  00135	50		 push	 eax
  00136	89 54 24 60	 mov	 DWORD PTR _LogData$[esp+1120], edx
  0013a	8b 55 14	 mov	 edx, DWORD PTR _dwGain$[ebp]
  0013d	8d 8c 24 d0 01
	00 00		 lea	 ecx, DWORD PTR _LogData$[esp+1488]
  00144	68 00 00 00 00	 push	 OFFSET FLAT:??_C@_0N@FCHLIMGO@Now?5Exp?5?3?5?$CFu?$AA@
  00149	51		 push	 ecx
  0014a	89 94 24 84 00
	00 00		 mov	 DWORD PTR _LogData$[esp+1156], edx
  00151	89 9c 24 88 00
	00 00		 mov	 DWORD PTR _LogData$[esp+1160], ebx
  00158	ff d6		 call	 esi

; 916  : 
; 917  : 	// Is World 	  
; 918  : 	LogData.dwFormat = LF_TEXT;
; 919  : 
; 920  : 	wsprintf((char*)LogData.szLog, "%d", bIsWorld);

  0015a	0f b6 55 18	 movzx	 edx, BYTE PTR _bIsWorld$[ebp]
  0015e	52		 push	 edx
  0015f	8d 84 24 14 02
	00 00		 lea	 eax, DWORD PTR _LogData$[esp+1556]
  00166	68 00 00 00 00	 push	 OFFSET FLAT:??_C@_02DPKJAMEF@?$CFd?$AA@
  0016b	50		 push	 eax
  0016c	89 9c 24 18 02
	00 00		 mov	 DWORD PTR _LogData$[esp+1560], ebx
  00173	ff d6		 call	 esi

; 921  : 
; 922  : 	SendDMLog( LogData );

  00175	81 ec e0 03 00
	00		 sub	 esp, 992		; 000003e0H
  0017b	8b fc		 mov	 edi, esp
  0017d	b9 fe 00 00 00	 mov	 ecx, 254		; 000000feH
  00182	8d b4 24 08 04
	00 00		 lea	 esi, DWORD PTR _LogData$[esp+2056]
  00189	f3 a5		 rep movsd
  0018b	8b 8c 24 04 04
	00 00		 mov	 ecx, DWORD PTR _this$[esp+2056]
  00192	e8 00 00 00 00	 call	 ?SendDMLog@CUdpSocket@@QAEXU_LOG_DATA_@@@Z ; CUdpSocket::SendDMLog
$L175627:

; 923  : }

  00197	8b 8c 24 0c 04
	00 00		 mov	 ecx, DWORD PTR __$ArrayPad$[esp+1040]
  0019e	e8 00 00 00 00	 call	 @__security_check_cookie@4
  001a3	5f		 pop	 edi
  001a4	5e		 pop	 esi
  001a5	5b		 pop	 ebx
  001a6	8b e5		 mov	 esp, ebp
  001a8	5d		 pop	 ebp
  001a9	c2 14 00	 ret	 20			; 00000014H
?LogExpByMonster@CUdpSocket@@QAEXKPAVCTPlayer@@PAVCTMonster@@KE@Z ENDP ; CUdpSocket::LogExpByMonster
_TEXT	ENDS
PUBLIC	?LogSkillAct@CUdpSocket@@QAEXKPAVCTPlayer@@PAVCTSkill@@_J@Z ; CUdpSocket::LogSkillAct
EXTRN	?GetID@CTSkill@@QAEGXZ:NEAR			; CTSkill::GetID
; Function compile flags: /Ogty
;	COMDAT ?LogSkillAct@CUdpSocket@@QAEXKPAVCTPlayer@@PAVCTSkill@@_J@Z
_TEXT	SEGMENT
_this$ = -1028						; size = 4
_LogData$ = -1024					; size = 1016
__$ArrayPad$ = -4					; size = 4
__$ReturnAddr$ = 4					; size = 4
_pAction$ = 8						; size = 4
_pPlayer$ = 12						; size = 4
_pSkill$ = 16						; size = 4
_pMoney$ = 20						; size = 8
?LogSkillAct@CUdpSocket@@QAEXKPAVCTPlayer@@PAVCTSkill@@_J@Z PROC NEAR ; CUdpSocket::LogSkillAct, COMDAT
; _this$ = ecx

; 929  : {

  00000	55		 push	 ebp
  00001	8b ec		 mov	 ebp, esp
  00003	83 e4 f8	 and	 esp, -8			; fffffff8H
  00006	81 ec 04 04 00
	00		 sub	 esp, 1028		; 00000404H
  0000c	a1 00 00 00 00	 mov	 eax, DWORD PTR ___security_cookie
  00011	53		 push	 ebx
  00012	56		 push	 esi

; 930  : 	if(!pPlayer || !pSkill) return;

  00013	8b 75 0c	 mov	 esi, DWORD PTR _pPlayer$[ebp]
  00016	85 f6		 test	 esi, esi
  00018	89 84 24 08 04
	00 00		 mov	 DWORD PTR __$ArrayPad$[esp+1036], eax
  0001f	57		 push	 edi
  00020	89 4c 24 0c	 mov	 DWORD PTR _this$[esp+1040], ecx
  00024	0f 84 ac 01 00
	00		 je	 $L175644
  0002a	8b 5d 10	 mov	 ebx, DWORD PTR _pSkill$[ebp]
  0002d	85 db		 test	 ebx, ebx
  0002f	0f 84 a1 01 00
	00		 je	 $L175644

; 931  : 
; 932  : 	_LOG_DATA_ LogData;
; 933  : 	memset( &LogData, 0x00, sizeof(_LOG_DATA_));
; 934  : 
; 935  : 	LogData.dwAction	=	pAction;
; 936  : 	LogData.dwServerID	=	_AtlModule.GetServerID();
; 937  : 
; 938  : 	lstrcpy( LogData.szClientIP, inet_ntoa(pPlayer->m_addr.sin_addr) );

  00035	8b 56 40	 mov	 edx, DWORD PTR [esi+64]
  00038	33 c0		 xor	 eax, eax
  0003a	b9 fe 00 00 00	 mov	 ecx, 254		; 000000feH
  0003f	8d 7c 24 10	 lea	 edi, DWORD PTR _LogData$[esp+1040]
  00043	f3 ab		 rep stosd
  00045	0f b6 0d 82 9e
	00 00		 movzx	 ecx, BYTE PTR ?_AtlModule@@3VCTMapSvrModule@@A+40578
  0004c	8b 45 08	 mov	 eax, DWORD PTR _pAction$[ebp]
  0004f	52		 push	 edx
  00050	89 44 24 38	 mov	 DWORD PTR _LogData$[esp+1080], eax
  00054	89 4c 24 24	 mov	 DWORD PTR _LogData$[esp+1060], ecx
  00058	ff 15 00 00 00
	00		 call	 DWORD PTR __imp__inet_ntoa@4
  0005e	8b 3d 00 00 00
	00		 mov	 edi, DWORD PTR __imp__lstrcpyA@8
  00064	50		 push	 eax
  00065	8d 44 24 28	 lea	 eax, DWORD PTR _LogData$[esp+1064]
  00069	50		 push	 eax
  0006a	ff d7		 call	 edi

; 939  : 		
; 940  : 	LogData.wMapID			=	pPlayer->m_wMapID;				//	Map ID

  0006c	66 8b 8e 90 01
	01 00		 mov	 cx, WORD PTR [esi+65936]

; 941  : 	LogData.nX				=	(int)pPlayer->m_fPosX;			//	X

  00073	d9 86 7c 01 01
	00		 fld	 DWORD PTR [esi+65916]
  00079	66 89 4c 24 38	 mov	 WORD PTR _LogData$[esp+1080], cx
  0007e	e8 00 00 00 00	 call	 __ftol2

; 942  : 	LogData.nY				=	(int)pPlayer->m_fPosY;			//	Y

  00083	d9 86 80 01 01
	00		 fld	 DWORD PTR [esi+65920]
  00089	89 44 24 3c	 mov	 DWORD PTR _LogData$[esp+1084], eax
  0008d	e8 00 00 00 00	 call	 __ftol2

; 943  : 	LogData.nZ				=	(int)pPlayer->m_fPosZ;			//	Z

  00092	d9 86 84 01 01
	00		 fld	 DWORD PTR [esi+65924]
  00098	89 44 24 40	 mov	 DWORD PTR _LogData$[esp+1088], eax
  0009c	e8 00 00 00 00	 call	 __ftol2

; 944  : 		
; 945  : 	LogData.dwKey[0]		=	pPlayer->m_dwUserID;			//	User ID

  000a1	8b 96 ac 03 01
	00		 mov	 edx, DWORD PTR [esi+66476]

; 946  : 	LogData.dwKey[1]		=	pPlayer->m_dwID;				//	Character Seq

  000a7	8b 8e 44 01 01
	00		 mov	 ecx, DWORD PTR [esi+65860]
  000ad	89 44 24 44	 mov	 DWORD PTR _LogData$[esp+1092], eax
  000b1	33 c0		 xor	 eax, eax
  000b3	89 54 24 48	 mov	 DWORD PTR _LogData$[esp+1096], edx

; 947  : 	lstrcpy(LogData.szKey[1],	pPlayer->m_strNAME	);			//	Character Name

  000b7	8b 96 a4 03 01
	00		 mov	 edx, DWORD PTR [esi+66468]
  000bd	89 44 24 4c	 mov	 DWORD PTR _LogData$[esp+1100], eax
  000c1	89 44 24 54	 mov	 DWORD PTR _LogData$[esp+1108], eax
  000c5	52		 push	 edx
  000c6	8d 84 24 d6 00
	00 00		 lea	 eax, DWORD PTR _LogData$[esp+1238]
  000cd	50		 push	 eax
  000ce	89 4c 24 58	 mov	 DWORD PTR _LogData$[esp+1112], ecx
  000d2	ff d7		 call	 edi

; 948  : 
; 949  : 	LogData.dwKey[9]		=	pPlayer->m_bCountry + (pPlayer->m_bAidCountry == TCONTRY_N ? 0 : (pPlayer->m_bAidCountry+1)*10);			//	Country

  000d4	8a 86 9e 01 01
	00		 mov	 al, BYTE PTR [esi+65950]
  000da	3c 03		 cmp	 al, 3
  000dc	75 04		 jne	 SHORT $L178174
  000de	33 c9		 xor	 ecx, ecx
  000e0	eb 09		 jmp	 SHORT $L178175
$L178174:
  000e2	0f b6 c0	 movzx	 eax, al
  000e5	40		 inc	 eax
  000e6	8d 0c 80	 lea	 ecx, DWORD PTR [eax+eax*4]
  000e9	d1 e1		 shl	 ecx, 1
$L178175:
  000eb	0f b6 86 9d 01
	01 00		 movzx	 eax, BYTE PTR [esi+65949]
  000f2	03 c1		 add	 eax, ecx
  000f4	99		 cdq
  000f5	89 84 24 90 00
	00 00		 mov	 DWORD PTR _LogData$[esp+1168], eax

; 950  : 	LogData.dwKey[10]		=	pPlayer->m_bLevel;				//	Level

  000fc	0f b6 86 7b 01
	01 00		 movzx	 eax, BYTE PTR [esi+65915]
  00103	89 94 24 94 00
	00 00		 mov	 DWORD PTR _LogData$[esp+1172], edx
  0010a	99		 cdq

; 951  : 
; 952  : 
; 953  : 	LogData.dwKey[3]		=	pSkill->GetID();				// Skill

  0010b	8b cb		 mov	 ecx, ebx
  0010d	89 84 24 98 00
	00 00		 mov	 DWORD PTR _LogData$[esp+1176], eax
  00114	89 94 24 9c 00
	00 00		 mov	 DWORD PTR _LogData$[esp+1180], edx
  0011b	e8 00 00 00 00	 call	 ?GetID@CTSkill@@QAEGXZ	; CTSkill::GetID

; 954  : 
; 955  : 	
; 956  : 	LogData.dwKey[5]		=	pMoney;							//	Out Money 

  00120	8b 4d 14	 mov	 ecx, DWORD PTR _pMoney$[ebp]
  00123	0f b7 c0	 movzx	 eax, ax
  00126	99		 cdq
  00127	89 44 24 60	 mov	 DWORD PTR _LogData$[esp+1120], eax

; 957  : 	wsprintf( LogData.szKey[5], "Now Money : %u/%u/%u",			//	Now Money
; 958  : 											pPlayer->m_dwGold,		
; 959  : 											pPlayer->m_dwSilver, 
; 960  : 											pPlayer->m_dwCooper );

  0012b	8b 86 c8 03 01
	00		 mov	 eax, DWORD PTR [esi+66504]
  00131	50		 push	 eax
  00132	89 54 24 68	 mov	 DWORD PTR _LogData$[esp+1128], edx
  00136	8b 55 18	 mov	 edx, DWORD PTR _pMoney$[ebp+4]
  00139	89 4c 24 74	 mov	 DWORD PTR _LogData$[esp+1140], ecx
  0013d	8b 8e cc 03 01
	00		 mov	 ecx, DWORD PTR [esi+66508]
  00143	51		 push	 ecx
  00144	89 54 24 7c	 mov	 DWORD PTR _LogData$[esp+1148], edx
  00148	8b 96 d0 03 01
	00		 mov	 edx, DWORD PTR [esi+66512]
  0014e	52		 push	 edx
  0014f	8d 84 24 a6 01
	00 00		 lea	 eax, DWORD PTR _LogData$[esp+1446]
  00156	68 00 00 00 00	 push	 OFFSET FLAT:??_C@_0BF@LNLPBIJG@Now?5Money?5?3?5?$CFu?1?$CFu?1?$CFu?$AA@
  0015b	50		 push	 eax
  0015c	ff 15 00 00 00
	00		 call	 DWORD PTR __imp__wsprintfA

; 961  : 
; 962  : 	LogData.dwKey[6]		=	pSkill->m_bLevel;				//	SkillLevel

  00162	0f b6 43 50	 movzx	 eax, BYTE PTR [ebx+80]

; 963  : 
; 964  : 	//
; 965  : 	//	SKILL INFO
; 966  : 	//
; 967  : 	LogData.dwFormat = LF_SKILL;
; 968  : 
; 969  : 	_LPLOG_SKILL_ pLogSkill = (_LPLOG_SKILL_)LogData.szLog;
; 970  : 
; 971  : 	
; 972  : 	pLogSkill->dwCharID		=	pPlayer->m_dwID;				//	Character ID

  00166	8b 8e 44 01 01
	00		 mov	 ecx, DWORD PTR [esi+65860]
  0016c	99		 cdq
  0016d	83 c4 14	 add	 esp, 20			; 00000014H
  00170	89 54 24 7c	 mov	 DWORD PTR _LogData$[esp+1148], edx

; 973  : 	lstrcpy(pLogSkill->szName,	pPlayer->m_strNAME	);			//	Character Name

  00174	8b 96 a4 03 01
	00		 mov	 edx, DWORD PTR [esi+66468]
  0017a	89 44 24 78	 mov	 DWORD PTR _LogData$[esp+1144], eax
  0017e	52		 push	 edx
  0017f	8d 84 24 0c 02
	00 00		 lea	 eax, DWORD PTR _LogData$[esp+1548]
  00186	50		 push	 eax
  00187	c7 84 24 08 02
	00 00 03 00 00
	00		 mov	 DWORD PTR _LogData$[esp+1544], 3
  00192	89 8c 24 0c 02
	00 00		 mov	 DWORD PTR _LogData$[esp+1548], ecx
  00199	ff d7		 call	 edi

; 974  : 	pLogSkill->wSkill		=	pSkill->GetID();				//	 ID

  0019b	8b cb		 mov	 ecx, ebx
  0019d	e8 00 00 00 00	 call	 ?GetID@CTSkill@@QAEGXZ	; CTSkill::GetID

; 975  : 	pLogSkill->bLevel		=	pSkill->m_bLevel;				//	 Level

  001a2	8a 4b 50	 mov	 cl, BYTE PTR [ebx+80]
  001a5	88 8c 24 1e 02
	00 00		 mov	 BYTE PTR _LogData$[esp+1566], cl

; 976  : 
; 977  : 	SendDMLog( LogData );

  001ac	81 ec f8 03 00
	00		 sub	 esp, 1016		; 000003f8H
  001b2	8b fc		 mov	 edi, esp
  001b4	66 89 84 24 14
	06 00 00	 mov	 WORD PTR _LogData$[esp+2580], ax
  001bc	b9 fe 00 00 00	 mov	 ecx, 254		; 000000feH
  001c1	8d b4 24 08 04
	00 00		 lea	 esi, DWORD PTR _LogData$[esp+2056]
  001c8	f3 a5		 rep movsd
  001ca	8b 8c 24 04 04
	00 00		 mov	 ecx, DWORD PTR _this$[esp+2056]
  001d1	e8 00 00 00 00	 call	 ?SendDMLog@CUdpSocket@@QAEXU_LOG_DATA_@@@Z ; CUdpSocket::SendDMLog
$L175644:

; 978  : }

  001d6	8b 8c 24 0c 04
	00 00		 mov	 ecx, DWORD PTR __$ArrayPad$[esp+1040]
  001dd	e8 00 00 00 00	 call	 @__security_check_cookie@4
  001e2	5f		 pop	 edi
  001e3	5e		 pop	 esi
  001e4	5b		 pop	 ebx
  001e5	8b e5		 mov	 esp, ebp
  001e7	5d		 pop	 ebp
  001e8	c2 14 00	 ret	 20			; 00000014H
?LogSkillAct@CUdpSocket@@QAEXKPAVCTPlayer@@PAVCTSkill@@_J@Z ENDP ; CUdpSocket::LogSkillAct
_TEXT	ENDS
PUBLIC	?LogLevelUp@CUdpSocket@@QAEXKPAVCTPlayer@@E@Z	; CUdpSocket::LogLevelUp
; Function compile flags: /Ogty
;	COMDAT ?LogLevelUp@CUdpSocket@@QAEXKPAVCTPlayer@@E@Z
_TEXT	SEGMENT
_this$ = -1028						; size = 4
_LogData$ = -1024					; size = 1016
__$ArrayPad$ = -4					; size = 4
__$ReturnAddr$ = 4					; size = 4
_pAction$ = 8						; size = 4
_pPlayer$ = 12						; size = 4
_m_bLevel$ = 16						; size = 1
?LogLevelUp@CUdpSocket@@QAEXKPAVCTPlayer@@E@Z PROC NEAR	; CUdpSocket::LogLevelUp, COMDAT
; _this$ = ecx

; 1042 : {

  00000	55		 push	 ebp
  00001	8b ec		 mov	 ebp, esp
  00003	83 e4 f8	 and	 esp, -8			; fffffff8H
  00006	81 ec 08 04 00
	00		 sub	 esp, 1032		; 00000408H
  0000c	a1 00 00 00 00	 mov	 eax, DWORD PTR ___security_cookie
  00011	56		 push	 esi

; 1043 : 	if(!pPlayer) return;

  00012	8b 75 0c	 mov	 esi, DWORD PTR _pPlayer$[ebp]
  00015	85 f6		 test	 esi, esi
  00017	89 84 24 08 04
	00 00		 mov	 DWORD PTR __$ArrayPad$[esp+1036], eax
  0001e	57		 push	 edi
  0001f	89 4c 24 0c	 mov	 DWORD PTR _this$[esp+1040], ecx
  00023	0f 84 1f 01 00
	00		 je	 $L175675

; 1044 : 
; 1045 : 	_LOG_DATA_ LogData;
; 1046 : 	memset( &LogData, 0x00, sizeof(_LOG_DATA_));
; 1047 : 
; 1048 : 	LogData.dwAction	=	pAction;
; 1049 : 	LogData.dwServerID	=	_AtlModule.GetServerID();
; 1050 : 
; 1051 : 	lstrcpy( LogData.szClientIP, inet_ntoa(pPlayer->m_addr.sin_addr) );

  00029	8b 56 40	 mov	 edx, DWORD PTR [esi+64]
  0002c	33 c0		 xor	 eax, eax
  0002e	b9 fe 00 00 00	 mov	 ecx, 254		; 000000feH
  00033	8d 7c 24 10	 lea	 edi, DWORD PTR _LogData$[esp+1040]
  00037	f3 ab		 rep stosd
  00039	0f b6 0d 82 9e
	00 00		 movzx	 ecx, BYTE PTR ?_AtlModule@@3VCTMapSvrModule@@A+40578
  00040	8b 45 08	 mov	 eax, DWORD PTR _pAction$[ebp]
  00043	52		 push	 edx
  00044	89 44 24 38	 mov	 DWORD PTR _LogData$[esp+1080], eax
  00048	89 4c 24 24	 mov	 DWORD PTR _LogData$[esp+1060], ecx
  0004c	ff 15 00 00 00
	00		 call	 DWORD PTR __imp__inet_ntoa@4
  00052	8b 3d 00 00 00
	00		 mov	 edi, DWORD PTR __imp__lstrcpyA@8
  00058	50		 push	 eax
  00059	8d 44 24 28	 lea	 eax, DWORD PTR _LogData$[esp+1064]
  0005d	50		 push	 eax
  0005e	ff d7		 call	 edi

; 1052 : 		
; 1053 : 	LogData.wMapID			=	pPlayer->m_wMapID;				//	Map ID

  00060	66 8b 8e 90 01
	01 00		 mov	 cx, WORD PTR [esi+65936]

; 1054 : 	LogData.nX				=	(int)pPlayer->m_fPosX;			//	X

  00067	d9 86 7c 01 01
	00		 fld	 DWORD PTR [esi+65916]
  0006d	66 89 4c 24 38	 mov	 WORD PTR _LogData$[esp+1080], cx
  00072	e8 00 00 00 00	 call	 __ftol2

; 1055 : 	LogData.nY				=	(int)pPlayer->m_fPosY;			//	Y

  00077	d9 86 80 01 01
	00		 fld	 DWORD PTR [esi+65920]
  0007d	89 44 24 3c	 mov	 DWORD PTR _LogData$[esp+1084], eax
  00081	e8 00 00 00 00	 call	 __ftol2

; 1056 : 	LogData.nZ				=	(int)pPlayer->m_fPosZ;			//	Z

  00086	d9 86 84 01 01
	00		 fld	 DWORD PTR [esi+65924]
  0008c	89 44 24 40	 mov	 DWORD PTR _LogData$[esp+1088], eax
  00090	e8 00 00 00 00	 call	 __ftol2

; 1057 : 	
; 1058 : 	LogData.dwKey[0]		=	pPlayer->m_dwUserID;			//	User ID

  00095	8b 96 ac 03 01
	00		 mov	 edx, DWORD PTR [esi+66476]

; 1059 : 	LogData.dwKey[1]		=	pPlayer->m_dwID;				//	Character Seq
; 1060 : 	lstrcpy(LogData.szKey[1],	pPlayer->m_strNAME	);			//	Character Name

  0009b	8b 8e a4 03 01
	00		 mov	 ecx, DWORD PTR [esi+66468]
  000a1	89 54 24 48	 mov	 DWORD PTR _LogData$[esp+1096], edx
  000a5	89 44 24 44	 mov	 DWORD PTR _LogData$[esp+1092], eax
  000a9	8b 86 44 01 01
	00		 mov	 eax, DWORD PTR [esi+65860]
  000af	51		 push	 ecx
  000b0	8d 94 24 d6 00
	00 00		 lea	 edx, DWORD PTR _LogData$[esp+1238]
  000b7	52		 push	 edx
  000b8	c7 44 24 54 00
	00 00 00	 mov	 DWORD PTR _LogData$[esp+1108], 0
  000c0	89 44 24 58	 mov	 DWORD PTR _LogData$[esp+1112], eax
  000c4	c7 44 24 5c 00
	00 00 00	 mov	 DWORD PTR _LogData$[esp+1116], 0
  000cc	ff d7		 call	 edi

; 1061 : 
; 1062 : 	LogData.dwKey[9]		=	pPlayer->m_bCountry + (pPlayer->m_bAidCountry == TCONTRY_N ? 0 : (pPlayer->m_bAidCountry+1)*10);			//	Country

  000ce	8a 86 9e 01 01
	00		 mov	 al, BYTE PTR [esi+65950]
  000d4	3c 03		 cmp	 al, 3
  000d6	75 04		 jne	 SHORT $L178192
  000d8	33 c9		 xor	 ecx, ecx
  000da	eb 09		 jmp	 SHORT $L178193
$L178192:
  000dc	0f b6 c0	 movzx	 eax, al
  000df	40		 inc	 eax
  000e0	8d 0c 80	 lea	 ecx, DWORD PTR [eax+eax*4]
  000e3	d1 e1		 shl	 ecx, 1
$L178193:
  000e5	0f b6 86 9d 01
	01 00		 movzx	 eax, BYTE PTR [esi+65949]
  000ec	03 c1		 add	 eax, ecx
  000ee	99		 cdq
  000ef	89 84 24 90 00
	00 00		 mov	 DWORD PTR _LogData$[esp+1168], eax

; 1063 : 	LogData.dwKey[10]		=	pPlayer->m_bLevel;				//	Level

  000f6	0f b6 86 7b 01
	01 00		 movzx	 eax, BYTE PTR [esi+65915]
  000fd	89 94 24 94 00
	00 00		 mov	 DWORD PTR _LogData$[esp+1172], edx
  00104	99		 cdq
  00105	89 84 24 98 00
	00 00		 mov	 DWORD PTR _LogData$[esp+1176], eax

; 1064 : 
; 1065 : 	LogData.dwKey[6]		=	m_bLevel;						//	SkillLevel

  0010c	0f b6 45 10	 movzx	 eax, BYTE PTR _m_bLevel$[ebp]
  00110	89 94 24 9c 00
	00 00		 mov	 DWORD PTR _LogData$[esp+1180], edx
  00117	99		 cdq

; 1066 : 	
; 1067 : 	SendDMLog( LogData );

  00118	81 ec f8 03 00
	00		 sub	 esp, 1016		; 000003f8H
  0011e	8b fc		 mov	 edi, esp
  00120	89 84 24 70 04
	00 00		 mov	 DWORD PTR _LogData$[esp+2160], eax
  00127	89 94 24 74 04
	00 00		 mov	 DWORD PTR _LogData$[esp+2164], edx
  0012e	b9 fe 00 00 00	 mov	 ecx, 254		; 000000feH
  00133	8d b4 24 08 04
	00 00		 lea	 esi, DWORD PTR _LogData$[esp+2056]
  0013a	f3 a5		 rep movsd
  0013c	8b 8c 24 04 04
	00 00		 mov	 ecx, DWORD PTR _this$[esp+2056]
  00143	e8 00 00 00 00	 call	 ?SendDMLog@CUdpSocket@@QAEXU_LOG_DATA_@@@Z ; CUdpSocket::SendDMLog
$L175675:

; 1068 : }

  00148	8b 8c 24 0c 04
	00 00		 mov	 ecx, DWORD PTR __$ArrayPad$[esp+1040]
  0014f	e8 00 00 00 00	 call	 @__security_check_cookie@4
  00154	5f		 pop	 edi
  00155	5e		 pop	 esi
  00156	8b e5		 mov	 esp, ebp
  00158	5d		 pop	 ebp
  00159	c2 0c 00	 ret	 12			; 0000000cH
?LogLevelUp@CUdpSocket@@QAEXKPAVCTPlayer@@E@Z ENDP	; CUdpSocket::LogLevelUp
_TEXT	ENDS
PUBLIC	?LogMonster@CUdpSocket@@QAEXKPAVCTPlayer@@PAVCTMonster@@@Z ; CUdpSocket::LogMonster
; Function compile flags: /Ogty
;	COMDAT ?LogMonster@CUdpSocket@@QAEXKPAVCTPlayer@@PAVCTMonster@@@Z
_TEXT	SEGMENT
_this$ = -1028						; size = 4
_LogData$ = -1024					; size = 1016
__$ArrayPad$ = -4					; size = 4
__$ReturnAddr$ = 4					; size = 4
_pAction$ = 8						; size = 4
_pPlayer$ = 12						; size = 4
_pMon$ = 16						; size = 4
?LogMonster@CUdpSocket@@QAEXKPAVCTPlayer@@PAVCTMonster@@@Z PROC NEAR ; CUdpSocket::LogMonster, COMDAT
; _this$ = ecx

; 1074 : {

  00000	55		 push	 ebp
  00001	8b ec		 mov	 ebp, esp
  00003	83 e4 f8	 and	 esp, -8			; fffffff8H
  00006	81 ec 04 04 00
	00		 sub	 esp, 1028		; 00000404H
  0000c	a1 00 00 00 00	 mov	 eax, DWORD PTR ___security_cookie
  00011	53		 push	 ebx

; 1075 : 	if(!pMon) return;

  00012	8b 5d 10	 mov	 ebx, DWORD PTR _pMon$[ebp]
  00015	85 db		 test	 ebx, ebx
  00017	56		 push	 esi
  00018	89 84 24 08 04
	00 00		 mov	 DWORD PTR __$ArrayPad$[esp+1036], eax
  0001f	57		 push	 edi
  00020	89 4c 24 0c	 mov	 DWORD PTR _this$[esp+1040], ecx
  00024	0f 84 27 01 00
	00		 je	 $L175687

; 1076 : 
; 1077 : 	_LOG_DATA_ LogData;
; 1078 : 	memset( &LogData, 0x00, sizeof(_LOG_DATA_));
; 1079 : 
; 1080 : 	LogData.dwAction	=	pAction;
; 1081 : 	LogData.dwServerID	=	_AtlModule.GetServerID();	
; 1082 : 
; 1083 : 	//
; 1084 : 	//	Player
; 1085 : 	//
; 1086 : 	if(pPlayer)

  0002a	8b 75 0c	 mov	 esi, DWORD PTR _pPlayer$[ebp]
  0002d	33 c0		 xor	 eax, eax
  0002f	85 f6		 test	 esi, esi
  00031	b9 fe 00 00 00	 mov	 ecx, 254		; 000000feH
  00036	8d 7c 24 10	 lea	 edi, DWORD PTR _LogData$[esp+1040]
  0003a	f3 ab		 rep stosd
  0003c	0f b6 0d 82 9e
	00 00		 movzx	 ecx, BYTE PTR ?_AtlModule@@3VCTMapSvrModule@@A+40578
  00043	8b 45 08	 mov	 eax, DWORD PTR _pAction$[ebp]
  00046	89 44 24 34	 mov	 DWORD PTR _LogData$[esp+1076], eax
  0004a	89 4c 24 20	 mov	 DWORD PTR _LogData$[esp+1056], ecx
  0004e	0f 84 8c 00 00
	00		 je	 $L175691

; 1087 : 	{
; 1088 : 		lstrcpy( LogData.szClientIP, inet_ntoa(pPlayer->m_addr.sin_addr) );	//	Connect IP Address

  00054	8b 56 40	 mov	 edx, DWORD PTR [esi+64]
  00057	52		 push	 edx
  00058	ff 15 00 00 00
	00		 call	 DWORD PTR __imp__inet_ntoa@4
  0005e	8b 3d 00 00 00
	00		 mov	 edi, DWORD PTR __imp__lstrcpyA@8
  00064	50		 push	 eax
  00065	8d 44 24 28	 lea	 eax, DWORD PTR _LogData$[esp+1064]
  00069	50		 push	 eax
  0006a	ff d7		 call	 edi

; 1089 : 
; 1090 : 		LogData.dwKey[0]		=	pPlayer->m_dwUserID;					//	User ID

  0006c	8b 8e ac 03 01
	00		 mov	 ecx, DWORD PTR [esi+66476]

; 1091 : 
; 1092 : 		LogData.dwKey[1]		=	pPlayer->m_dwID;						//	Character Seq

  00072	8b 96 44 01 01
	00		 mov	 edx, DWORD PTR [esi+65860]
  00078	33 c0		 xor	 eax, eax
  0007a	89 44 24 4c	 mov	 DWORD PTR _LogData$[esp+1100], eax
  0007e	89 44 24 54	 mov	 DWORD PTR _LogData$[esp+1108], eax

; 1093 : 		lstrcpy(LogData.szKey[1],	pPlayer->m_strNAME			);			//	Character Name

  00082	8b 86 a4 03 01
	00		 mov	 eax, DWORD PTR [esi+66468]
  00088	89 4c 24 48	 mov	 DWORD PTR _LogData$[esp+1096], ecx
  0008c	50		 push	 eax
  0008d	8d 8c 24 d6 00
	00 00		 lea	 ecx, DWORD PTR _LogData$[esp+1238]
  00094	51		 push	 ecx
  00095	89 54 24 58	 mov	 DWORD PTR _LogData$[esp+1112], edx
  00099	ff d7		 call	 edi

; 1094 : 
; 1095 : 		LogData.dwKey[9]		=	pPlayer->m_bCountry + (pPlayer->m_bAidCountry == TCONTRY_N ? 0 : (pPlayer->m_bAidCountry+1)*10);					//	Country

  0009b	8a 86 9e 01 01
	00		 mov	 al, BYTE PTR [esi+65950]
  000a1	3c 03		 cmp	 al, 3
  000a3	75 04		 jne	 SHORT $L178206
  000a5	33 c9		 xor	 ecx, ecx
  000a7	eb 09		 jmp	 SHORT $L178207
$L178206:
  000a9	0f b6 c0	 movzx	 eax, al
  000ac	40		 inc	 eax
  000ad	8d 0c 80	 lea	 ecx, DWORD PTR [eax+eax*4]
  000b0	d1 e1		 shl	 ecx, 1
$L178207:
  000b2	0f b6 86 9d 01
	01 00		 movzx	 eax, BYTE PTR [esi+65949]
  000b9	03 c1		 add	 eax, ecx
  000bb	99		 cdq
  000bc	89 84 24 90 00
	00 00		 mov	 DWORD PTR _LogData$[esp+1168], eax

; 1096 : 		LogData.dwKey[10]		=	pPlayer->m_bLevel;						//	Level

  000c3	0f b6 86 7b 01
	01 00		 movzx	 eax, BYTE PTR [esi+65915]
  000ca	89 94 24 94 00
	00 00		 mov	 DWORD PTR _LogData$[esp+1172], edx
  000d1	99		 cdq
  000d2	89 84 24 98 00
	00 00		 mov	 DWORD PTR _LogData$[esp+1176], eax
  000d9	89 94 24 9c 00
	00 00		 mov	 DWORD PTR _LogData$[esp+1180], edx
$L175691:

; 1097 : 	}
; 1098 : 
; 1099 : 	//
; 1100 : 	//	Monster
; 1101 : 	//
; 1102 : 	if( pMon )
; 1103 : 	{
; 1104 : 		LogData.wMapID			=	pMon->m_wMapID;					// Map ID

  000e0	66 8b 93 90 00
	00 00		 mov	 dx, WORD PTR [ebx+144]

; 1105 : 		LogData.nX				=	(int)pMon->m_fPosX;				//		X

  000e7	d9 43 7c	 fld	 DWORD PTR [ebx+124]
  000ea	66 89 54 24 38	 mov	 WORD PTR _LogData$[esp+1080], dx
  000ef	e8 00 00 00 00	 call	 __ftol2

; 1106 : 		LogData.nY				=	(int)pMon->m_fPosY;				//		Y

  000f4	d9 83 80 00 00
	00		 fld	 DWORD PTR [ebx+128]
  000fa	89 44 24 3c	 mov	 DWORD PTR _LogData$[esp+1084], eax
  000fe	e8 00 00 00 00	 call	 __ftol2

; 1107 : 		LogData.nZ				=	(int)pMon->m_fPosZ;				//		Z

  00103	d9 83 84 00 00
	00		 fld	 DWORD PTR [ebx+132]
  00109	89 44 24 40	 mov	 DWORD PTR _LogData$[esp+1088], eax
  0010d	e8 00 00 00 00	 call	 __ftol2
  00112	89 44 24 44	 mov	 DWORD PTR _LogData$[esp+1092], eax

; 1108 : 
; 1109 : 		LogData.dwKey[2]		=	pMon->m_pMON->m_wID;			// Mon ID

  00116	8b 83 ec 00 00
	00		 mov	 eax, DWORD PTR [ebx+236]
  0011c	0f b7 40 24	 movzx	 eax, WORD PTR [eax+36]
  00120	99		 cdq

; 1110 : 	}
; 1111 : 
; 1112 : 	SendDMLog( LogData );

  00121	81 ec f8 03 00
	00		 sub	 esp, 1016		; 000003f8H
  00127	8b fc		 mov	 edi, esp
  00129	89 84 24 50 04
	00 00		 mov	 DWORD PTR _LogData$[esp+2128], eax
  00130	89 94 24 54 04
	00 00		 mov	 DWORD PTR _LogData$[esp+2132], edx
  00137	b9 fe 00 00 00	 mov	 ecx, 254		; 000000feH
  0013c	8d b4 24 08 04
	00 00		 lea	 esi, DWORD PTR _LogData$[esp+2056]
  00143	f3 a5		 rep movsd
  00145	8b 8c 24 04 04
	00 00		 mov	 ecx, DWORD PTR _this$[esp+2056]
  0014c	e8 00 00 00 00	 call	 ?SendDMLog@CUdpSocket@@QAEXU_LOG_DATA_@@@Z ; CUdpSocket::SendDMLog
$L175687:

; 1113 : }

  00151	8b 8c 24 0c 04
	00 00		 mov	 ecx, DWORD PTR __$ArrayPad$[esp+1040]
  00158	e8 00 00 00 00	 call	 @__security_check_cookie@4
  0015d	5f		 pop	 edi
  0015e	5e		 pop	 esi
  0015f	5b		 pop	 ebx
  00160	8b e5		 mov	 esp, ebp
  00162	5d		 pop	 ebp
  00163	c2 0c 00	 ret	 12			; 0000000cH
?LogMonster@CUdpSocket@@QAEXKPAVCTPlayer@@PAVCTMonster@@@Z ENDP ; CUdpSocket::LogMonster
_TEXT	ENDS
PUBLIC	?LogUserDie@CUdpSocket@@QAEXKPAVCTPlayer@@E@Z	; CUdpSocket::LogUserDie
; Function compile flags: /Ogty
;	COMDAT ?LogUserDie@CUdpSocket@@QAEXKPAVCTPlayer@@E@Z
_TEXT	SEGMENT
_this$ = -1028						; size = 4
_LogData$ = -1024					; size = 1016
__$ArrayPad$ = -4					; size = 4
__$ReturnAddr$ = 4					; size = 4
_pAction$ = 8						; size = 4
_pPlayer$ = 12						; size = 4
_m_bType$ = 16						; size = 1
?LogUserDie@CUdpSocket@@QAEXKPAVCTPlayer@@E@Z PROC NEAR	; CUdpSocket::LogUserDie, COMDAT
; _this$ = ecx

; 1120 : {

  00000	55		 push	 ebp
  00001	8b ec		 mov	 ebp, esp
  00003	83 e4 f8	 and	 esp, -8			; fffffff8H
  00006	81 ec 08 04 00
	00		 sub	 esp, 1032		; 00000408H
  0000c	a1 00 00 00 00	 mov	 eax, DWORD PTR ___security_cookie
  00011	56		 push	 esi

; 1121 : 	if(!pPlayer) return;

  00012	8b 75 0c	 mov	 esi, DWORD PTR _pPlayer$[ebp]
  00015	85 f6		 test	 esi, esi
  00017	89 84 24 08 04
	00 00		 mov	 DWORD PTR __$ArrayPad$[esp+1036], eax
  0001e	57		 push	 edi
  0001f	89 4c 24 0c	 mov	 DWORD PTR _this$[esp+1040], ecx
  00023	0f 84 1f 01 00
	00		 je	 $L175701

; 1122 : 
; 1123 : 	_LOG_DATA_ LogData;
; 1124 : 	memset( &LogData, 0x00, sizeof(_LOG_DATA_));
; 1125 : 
; 1126 : 	LogData.dwAction		=	pAction;
; 1127 : 	LogData.dwServerID		=	_AtlModule.GetServerID();
; 1128 : 
; 1129 : 	lstrcpy( LogData.szClientIP, inet_ntoa(pPlayer->m_addr.sin_addr) );

  00029	8b 56 40	 mov	 edx, DWORD PTR [esi+64]
  0002c	33 c0		 xor	 eax, eax
  0002e	b9 fe 00 00 00	 mov	 ecx, 254		; 000000feH
  00033	8d 7c 24 10	 lea	 edi, DWORD PTR _LogData$[esp+1040]
  00037	f3 ab		 rep stosd
  00039	0f b6 0d 82 9e
	00 00		 movzx	 ecx, BYTE PTR ?_AtlModule@@3VCTMapSvrModule@@A+40578
  00040	8b 45 08	 mov	 eax, DWORD PTR _pAction$[ebp]
  00043	52		 push	 edx
  00044	89 44 24 38	 mov	 DWORD PTR _LogData$[esp+1080], eax
  00048	89 4c 24 24	 mov	 DWORD PTR _LogData$[esp+1060], ecx
  0004c	ff 15 00 00 00
	00		 call	 DWORD PTR __imp__inet_ntoa@4
  00052	8b 3d 00 00 00
	00		 mov	 edi, DWORD PTR __imp__lstrcpyA@8
  00058	50		 push	 eax
  00059	8d 44 24 28	 lea	 eax, DWORD PTR _LogData$[esp+1064]
  0005d	50		 push	 eax
  0005e	ff d7		 call	 edi

; 1130 : 		
; 1131 : 	LogData.wMapID			=	pPlayer->m_wMapID;				//	Map ID

  00060	66 8b 8e 90 01
	01 00		 mov	 cx, WORD PTR [esi+65936]

; 1132 : 	LogData.nX				=	(int)pPlayer->m_fPosX;			//	X

  00067	d9 86 7c 01 01
	00		 fld	 DWORD PTR [esi+65916]
  0006d	66 89 4c 24 38	 mov	 WORD PTR _LogData$[esp+1080], cx
  00072	e8 00 00 00 00	 call	 __ftol2

; 1133 : 	LogData.nY				=	(int)pPlayer->m_fPosY;			//	Y

  00077	d9 86 80 01 01
	00		 fld	 DWORD PTR [esi+65920]
  0007d	89 44 24 3c	 mov	 DWORD PTR _LogData$[esp+1084], eax
  00081	e8 00 00 00 00	 call	 __ftol2

; 1134 : 	LogData.nZ				=	(int)pPlayer->m_fPosZ;			//	Z

  00086	d9 86 84 01 01
	00		 fld	 DWORD PTR [esi+65924]
  0008c	89 44 24 40	 mov	 DWORD PTR _LogData$[esp+1088], eax
  00090	e8 00 00 00 00	 call	 __ftol2

; 1135 : 	
; 1136 : 	LogData.dwKey[0]		=	pPlayer->m_dwUserID;			//	User ID

  00095	8b 96 ac 03 01
	00		 mov	 edx, DWORD PTR [esi+66476]

; 1137 : 	LogData.dwKey[1]		=	pPlayer->m_dwID;				//	Character Seq
; 1138 : 	lstrcpy(LogData.szKey[1],	pPlayer->m_strNAME	);			//	Character Name

  0009b	8b 8e a4 03 01
	00		 mov	 ecx, DWORD PTR [esi+66468]
  000a1	89 54 24 48	 mov	 DWORD PTR _LogData$[esp+1096], edx
  000a5	89 44 24 44	 mov	 DWORD PTR _LogData$[esp+1092], eax
  000a9	8b 86 44 01 01
	00		 mov	 eax, DWORD PTR [esi+65860]
  000af	51		 push	 ecx
  000b0	8d 94 24 d6 00
	00 00		 lea	 edx, DWORD PTR _LogData$[esp+1238]
  000b7	52		 push	 edx
  000b8	c7 44 24 54 00
	00 00 00	 mov	 DWORD PTR _LogData$[esp+1108], 0
  000c0	89 44 24 58	 mov	 DWORD PTR _LogData$[esp+1112], eax
  000c4	c7 44 24 5c 00
	00 00 00	 mov	 DWORD PTR _LogData$[esp+1116], 0
  000cc	ff d7		 call	 edi

; 1139 : 
; 1140 : 	LogData.dwKey[9]		=	pPlayer->m_bCountry + (pPlayer->m_bAidCountry == TCONTRY_N ? 0 : (pPlayer->m_bAidCountry+1)*10);			//	Country

  000ce	8a 86 9e 01 01
	00		 mov	 al, BYTE PTR [esi+65950]
  000d4	3c 03		 cmp	 al, 3
  000d6	75 04		 jne	 SHORT $L178220
  000d8	33 c9		 xor	 ecx, ecx
  000da	eb 09		 jmp	 SHORT $L178221
$L178220:
  000dc	0f b6 c0	 movzx	 eax, al
  000df	40		 inc	 eax
  000e0	8d 0c 80	 lea	 ecx, DWORD PTR [eax+eax*4]
  000e3	d1 e1		 shl	 ecx, 1
$L178221:
  000e5	0f b6 86 9d 01
	01 00		 movzx	 eax, BYTE PTR [esi+65949]
  000ec	03 c1		 add	 eax, ecx
  000ee	99		 cdq
  000ef	89 84 24 90 00
	00 00		 mov	 DWORD PTR _LogData$[esp+1168], eax

; 1141 : 	LogData.dwKey[10]		=	pPlayer->m_bLevel;				//	Level

  000f6	0f b6 86 7b 01
	01 00		 movzx	 eax, BYTE PTR [esi+65915]
  000fd	89 94 24 94 00
	00 00		 mov	 DWORD PTR _LogData$[esp+1172], edx
  00104	99		 cdq
  00105	89 84 24 98 00
	00 00		 mov	 DWORD PTR _LogData$[esp+1176], eax

; 1142 : 
; 1143 : 
; 1144 : 	LogData.dwKey[6]		=	m_bType;						//	Die Type

  0010c	0f b6 45 10	 movzx	 eax, BYTE PTR _m_bType$[ebp]
  00110	89 94 24 9c 00
	00 00		 mov	 DWORD PTR _LogData$[esp+1180], edx
  00117	99		 cdq

; 1145 : 
; 1146 : 	SendDMLog( LogData );

  00118	81 ec f8 03 00
	00		 sub	 esp, 1016		; 000003f8H
  0011e	8b fc		 mov	 edi, esp
  00120	89 84 24 70 04
	00 00		 mov	 DWORD PTR _LogData$[esp+2160], eax
  00127	89 94 24 74 04
	00 00		 mov	 DWORD PTR _LogData$[esp+2164], edx
  0012e	b9 fe 00 00 00	 mov	 ecx, 254		; 000000feH
  00133	8d b4 24 08 04
	00 00		 lea	 esi, DWORD PTR _LogData$[esp+2056]
  0013a	f3 a5		 rep movsd
  0013c	8b 8c 24 04 04
	00 00		 mov	 ecx, DWORD PTR _this$[esp+2056]
  00143	e8 00 00 00 00	 call	 ?SendDMLog@CUdpSocket@@QAEXU_LOG_DATA_@@@Z ; CUdpSocket::SendDMLog
$L175701:

; 1147 : }

  00148	8b 8c 24 0c 04
	00 00		 mov	 ecx, DWORD PTR __$ArrayPad$[esp+1040]
  0014f	e8 00 00 00 00	 call	 @__security_check_cookie@4
  00154	5f		 pop	 edi
  00155	5e		 pop	 esi
  00156	8b e5		 mov	 esp, ebp
  00158	5d		 pop	 ebp
  00159	c2 0c 00	 ret	 12			; 0000000cH
?LogUserDie@CUdpSocket@@QAEXKPAVCTPlayer@@E@Z ENDP	; CUdpSocket::LogUserDie
_TEXT	ENDS
PUBLIC	?LogQuest@CUdpSocket@@QAEXKPAVCTPlayer@@KK@Z	; CUdpSocket::LogQuest
; Function compile flags: /Ogty
;	COMDAT ?LogQuest@CUdpSocket@@QAEXKPAVCTPlayer@@KK@Z
_TEXT	SEGMENT
_this$ = -1028						; size = 4
_LogData$ = -1024					; size = 1016
__$ArrayPad$ = -4					; size = 4
__$ReturnAddr$ = 4					; size = 4
_pAction$ = 8						; size = 4
_pPlayer$ = 12						; size = 4
_dwQuestID$ = 16					; size = 4
_dwGain$ = 20						; size = 4
?LogQuest@CUdpSocket@@QAEXKPAVCTPlayer@@KK@Z PROC NEAR	; CUdpSocket::LogQuest, COMDAT
; _this$ = ecx

; 1153 : {

  00000	55		 push	 ebp
  00001	8b ec		 mov	 ebp, esp
  00003	83 e4 f8	 and	 esp, -8			; fffffff8H
  00006	81 ec 04 04 00
	00		 sub	 esp, 1028		; 00000404H
  0000c	a1 00 00 00 00	 mov	 eax, DWORD PTR ___security_cookie
  00011	53		 push	 ebx
  00012	56		 push	 esi

; 1154 : 	if(!pPlayer) return;

  00013	8b 75 0c	 mov	 esi, DWORD PTR _pPlayer$[ebp]
  00016	33 db		 xor	 ebx, ebx
  00018	3b f3		 cmp	 esi, ebx
  0001a	89 84 24 08 04
	00 00		 mov	 DWORD PTR __$ArrayPad$[esp+1036], eax
  00021	57		 push	 edi
  00022	89 4c 24 0c	 mov	 DWORD PTR _this$[esp+1040], ecx
  00026	0f 84 3d 01 00
	00		 je	 $L175714

; 1155 : 
; 1156 : 	_LOG_DATA_ LogData;
; 1157 : 	memset( &LogData, 0x00, sizeof(_LOG_DATA_));
; 1158 : 
; 1159 : 	LogData.dwAction	=	pAction;
; 1160 : 	LogData.dwServerID	=	_AtlModule.GetServerID();
; 1161 : 
; 1162 : 	lstrcpy( LogData.szClientIP, inet_ntoa(pPlayer->m_addr.sin_addr) );

  0002c	8b 56 40	 mov	 edx, DWORD PTR [esi+64]
  0002f	33 c0		 xor	 eax, eax
  00031	b9 fe 00 00 00	 mov	 ecx, 254		; 000000feH
  00036	8d 7c 24 10	 lea	 edi, DWORD PTR _LogData$[esp+1040]
  0003a	f3 ab		 rep stosd
  0003c	0f b6 0d 82 9e
	00 00		 movzx	 ecx, BYTE PTR ?_AtlModule@@3VCTMapSvrModule@@A+40578
  00043	8b 45 08	 mov	 eax, DWORD PTR _pAction$[ebp]
  00046	52		 push	 edx
  00047	89 44 24 38	 mov	 DWORD PTR _LogData$[esp+1080], eax
  0004b	89 4c 24 24	 mov	 DWORD PTR _LogData$[esp+1060], ecx
  0004f	ff 15 00 00 00
	00		 call	 DWORD PTR __imp__inet_ntoa@4
  00055	8b 3d 00 00 00
	00		 mov	 edi, DWORD PTR __imp__lstrcpyA@8
  0005b	50		 push	 eax
  0005c	8d 44 24 28	 lea	 eax, DWORD PTR _LogData$[esp+1064]
  00060	50		 push	 eax
  00061	ff d7		 call	 edi

; 1163 : 		
; 1164 : 	LogData.wMapID			=	pPlayer->m_wMapID;					//	Map ID

  00063	66 8b 8e 90 01
	01 00		 mov	 cx, WORD PTR [esi+65936]

; 1165 : 	LogData.nX				=	(int)pPlayer->m_fPosX;				//	X

  0006a	d9 86 7c 01 01
	00		 fld	 DWORD PTR [esi+65916]
  00070	66 89 4c 24 38	 mov	 WORD PTR _LogData$[esp+1080], cx
  00075	e8 00 00 00 00	 call	 __ftol2

; 1166 : 	LogData.nY				=	(int)pPlayer->m_fPosY;				//	Y

  0007a	d9 86 80 01 01
	00		 fld	 DWORD PTR [esi+65920]
  00080	89 44 24 3c	 mov	 DWORD PTR _LogData$[esp+1084], eax
  00084	e8 00 00 00 00	 call	 __ftol2

; 1167 : 	LogData.nZ				=	(int)pPlayer->m_fPosZ;				//	Z

  00089	d9 86 84 01 01
	00		 fld	 DWORD PTR [esi+65924]
  0008f	89 44 24 40	 mov	 DWORD PTR _LogData$[esp+1088], eax
  00093	e8 00 00 00 00	 call	 __ftol2

; 1168 : 	
; 1169 : 	LogData.dwKey[0]		=	pPlayer->m_dwUserID;				//	User ID

  00098	8b 96 ac 03 01
	00		 mov	 edx, DWORD PTR [esi+66476]

; 1170 : 	LogData.dwKey[1]		=	pPlayer->m_dwID;					//	Character Seq
; 1171 : 	lstrcpy(LogData.szKey[1],	pPlayer->m_strNAME	);				//	Character Name

  0009e	8b 8e a4 03 01
	00		 mov	 ecx, DWORD PTR [esi+66468]
  000a4	89 54 24 48	 mov	 DWORD PTR _LogData$[esp+1096], edx
  000a8	89 44 24 44	 mov	 DWORD PTR _LogData$[esp+1092], eax
  000ac	8b 86 44 01 01
	00		 mov	 eax, DWORD PTR [esi+65860]
  000b2	51		 push	 ecx
  000b3	8d 94 24 d6 00
	00 00		 lea	 edx, DWORD PTR _LogData$[esp+1238]
  000ba	52		 push	 edx
  000bb	89 5c 24 54	 mov	 DWORD PTR _LogData$[esp+1108], ebx
  000bf	89 44 24 58	 mov	 DWORD PTR _LogData$[esp+1112], eax
  000c3	89 5c 24 5c	 mov	 DWORD PTR _LogData$[esp+1116], ebx
  000c7	ff d7		 call	 edi

; 1172 : 	LogData.dwKey[9]		=	pPlayer->m_bCountry + (pPlayer->m_bAidCountry == TCONTRY_N ? 0 : (pPlayer->m_bAidCountry+1)*10);				//	Country

  000c9	8a 86 9e 01 01
	00		 mov	 al, BYTE PTR [esi+65950]
  000cf	3c 03		 cmp	 al, 3
  000d1	75 04		 jne	 SHORT $L178234
  000d3	33 c9		 xor	 ecx, ecx
  000d5	eb 09		 jmp	 SHORT $L178235
$L178234:
  000d7	0f b6 c0	 movzx	 eax, al
  000da	40		 inc	 eax
  000db	8d 0c 80	 lea	 ecx, DWORD PTR [eax+eax*4]
  000de	d1 e1		 shl	 ecx, 1
$L178235:
  000e0	0f b6 86 9d 01
	01 00		 movzx	 eax, BYTE PTR [esi+65949]
  000e7	03 c1		 add	 eax, ecx

; 1173 : 	LogData.dwKey[10]		=	pPlayer->m_bLevel;					//	Level
; 1174 : 
; 1175 : 
; 1176 : 
; 1177 : 	LogData.dwKey[5]		=	dwGain;								//	Exp
; 1178 : 	wsprintf( LogData.szKey[5], "Now Exp : %u", pPlayer->m_dwEXP);	//	Now Exp

  000e9	8b 8e d4 03 01
	00		 mov	 ecx, DWORD PTR [esi+66516]
  000ef	99		 cdq
  000f0	89 84 24 90 00
	00 00		 mov	 DWORD PTR _LogData$[esp+1168], eax
  000f7	0f b6 86 7b 01
	01 00		 movzx	 eax, BYTE PTR [esi+65915]
  000fe	89 94 24 94 00
	00 00		 mov	 DWORD PTR _LogData$[esp+1172], edx
  00105	99		 cdq
  00106	51		 push	 ecx
  00107	89 94 24 a0 00
	00 00		 mov	 DWORD PTR _LogData$[esp+1184], edx
  0010e	89 84 24 9c 00
	00 00		 mov	 DWORD PTR _LogData$[esp+1180], eax
  00115	8b 45 14	 mov	 eax, DWORD PTR _dwGain$[ebp]
  00118	8d 94 24 9e 01
	00 00		 lea	 edx, DWORD PTR _LogData$[esp+1438]
  0011f	68 00 00 00 00	 push	 OFFSET FLAT:??_C@_0N@FCHLIMGO@Now?5Exp?5?3?5?$CFu?$AA@
  00124	52		 push	 edx
  00125	89 44 24 7c	 mov	 DWORD PTR _LogData$[esp+1148], eax
  00129	89 9c 24 80 00
	00 00		 mov	 DWORD PTR _LogData$[esp+1152], ebx
  00130	ff 15 00 00 00
	00		 call	 DWORD PTR __imp__wsprintfA

; 1179 : 
; 1180 : 	LogData.dwKey[6]		=	dwQuestID;							//	Quest

  00136	8b 45 10	 mov	 eax, DWORD PTR _dwQuestID$[ebp]

; 1181 : 
; 1182 : 	SendDMLog( LogData );

  00139	81 ec ec 03 00
	00		 sub	 esp, 1004		; 000003ecH
  0013f	8b fc		 mov	 edi, esp
  00141	89 84 24 70 04
	00 00		 mov	 DWORD PTR _LogData$[esp+2160], eax
  00148	89 9c 24 74 04
	00 00		 mov	 DWORD PTR _LogData$[esp+2164], ebx
  0014f	b9 fe 00 00 00	 mov	 ecx, 254		; 000000feH
  00154	8d b4 24 08 04
	00 00		 lea	 esi, DWORD PTR _LogData$[esp+2056]
  0015b	f3 a5		 rep movsd
  0015d	8b 8c 24 04 04
	00 00		 mov	 ecx, DWORD PTR _this$[esp+2056]
  00164	e8 00 00 00 00	 call	 ?SendDMLog@CUdpSocket@@QAEXU_LOG_DATA_@@@Z ; CUdpSocket::SendDMLog
$L175714:

; 1183 : }

  00169	8b 8c 24 0c 04
	00 00		 mov	 ecx, DWORD PTR __$ArrayPad$[esp+1040]
  00170	e8 00 00 00 00	 call	 @__security_check_cookie@4
  00175	5f		 pop	 edi
  00176	5e		 pop	 esi
  00177	5b		 pop	 ebx
  00178	8b e5		 mov	 esp, ebp
  0017a	5d		 pop	 ebp
  0017b	c2 10 00	 ret	 16			; 00000010H
?LogQuest@CUdpSocket@@QAEXKPAVCTPlayer@@KK@Z ENDP	; CUdpSocket::LogQuest
_TEXT	ENDS
PUBLIC	?LogEnterMap@CUdpSocket@@QAEXKPAVCTPlayer@@@Z	; CUdpSocket::LogEnterMap
; Function compile flags: /Ogty
;	COMDAT ?LogEnterMap@CUdpSocket@@QAEXKPAVCTPlayer@@@Z
_TEXT	SEGMENT
_this$ = -1028						; size = 4
_LogData$ = -1024					; size = 1016
__$ArrayPad$ = -4					; size = 4
__$ReturnAddr$ = 4					; size = 4
_pAction$ = 8						; size = 4
_pPlayer$ = 12						; size = 4
?LogEnterMap@CUdpSocket@@QAEXKPAVCTPlayer@@@Z PROC NEAR	; CUdpSocket::LogEnterMap, COMDAT
; _this$ = ecx

; 1190 : {

  00000	55		 push	 ebp
  00001	8b ec		 mov	 ebp, esp
  00003	83 e4 f8	 and	 esp, -8			; fffffff8H
  00006	81 ec 04 04 00
	00		 sub	 esp, 1028		; 00000404H
  0000c	a1 00 00 00 00	 mov	 eax, DWORD PTR ___security_cookie
  00011	53		 push	 ebx
  00012	56		 push	 esi

; 1191 : 	if(!pPlayer) return;

  00013	8b 75 0c	 mov	 esi, DWORD PTR _pPlayer$[ebp]
  00016	33 db		 xor	 ebx, ebx
  00018	3b f3		 cmp	 esi, ebx
  0001a	89 84 24 08 04
	00 00		 mov	 DWORD PTR __$ArrayPad$[esp+1036], eax
  00021	57		 push	 edi
  00022	89 4c 24 0c	 mov	 DWORD PTR _this$[esp+1040], ecx
  00026	0f 84 27 02 00
	00		 je	 $L175725

; 1192 : 
; 1193 : 	_LOG_DATA_ LogData;
; 1194 : 	memset( &LogData, 0x00, sizeof(_LOG_DATA_));
; 1195 : 
; 1196 : 	LogData.dwAction	=	pAction;
; 1197 : 	LogData.dwServerID	=	_AtlModule.GetServerID();
; 1198 : 
; 1199 : 	lstrcpy( LogData.szClientIP, inet_ntoa(pPlayer->m_addr.sin_addr) );

  0002c	8b 56 40	 mov	 edx, DWORD PTR [esi+64]
  0002f	33 c0		 xor	 eax, eax
  00031	b9 fe 00 00 00	 mov	 ecx, 254		; 000000feH
  00036	8d 7c 24 10	 lea	 edi, DWORD PTR _LogData$[esp+1040]
  0003a	f3 ab		 rep stosd
  0003c	0f b6 0d 82 9e
	00 00		 movzx	 ecx, BYTE PTR ?_AtlModule@@3VCTMapSvrModule@@A+40578
  00043	8b 45 08	 mov	 eax, DWORD PTR _pAction$[ebp]
  00046	52		 push	 edx
  00047	89 44 24 38	 mov	 DWORD PTR _LogData$[esp+1080], eax
  0004b	89 4c 24 24	 mov	 DWORD PTR _LogData$[esp+1060], ecx
  0004f	ff 15 00 00 00
	00		 call	 DWORD PTR __imp__inet_ntoa@4
  00055	8b 3d 00 00 00
	00		 mov	 edi, DWORD PTR __imp__lstrcpyA@8
  0005b	50		 push	 eax
  0005c	8d 44 24 28	 lea	 eax, DWORD PTR _LogData$[esp+1064]
  00060	50		 push	 eax
  00061	ff d7		 call	 edi

; 1200 : 		
; 1201 : 	LogData.wMapID			=	pPlayer->m_wMapID;				//	Map ID

  00063	66 8b 8e 90 01
	01 00		 mov	 cx, WORD PTR [esi+65936]

; 1202 : 	LogData.nX				=	(int)pPlayer->m_fPosX;			//	X

  0006a	d9 86 7c 01 01
	00		 fld	 DWORD PTR [esi+65916]
  00070	66 89 4c 24 38	 mov	 WORD PTR _LogData$[esp+1080], cx
  00075	e8 00 00 00 00	 call	 __ftol2

; 1203 : 	LogData.nY				=	(int)pPlayer->m_fPosY;			//	Y

  0007a	d9 86 80 01 01
	00		 fld	 DWORD PTR [esi+65920]
  00080	89 44 24 3c	 mov	 DWORD PTR _LogData$[esp+1084], eax
  00084	e8 00 00 00 00	 call	 __ftol2

; 1204 : 	LogData.nZ				=	(int)pPlayer->m_fPosZ;			//	Z

  00089	d9 86 84 01 01
	00		 fld	 DWORD PTR [esi+65924]
  0008f	89 44 24 40	 mov	 DWORD PTR _LogData$[esp+1088], eax
  00093	e8 00 00 00 00	 call	 __ftol2

; 1205 : 	
; 1206 : 	LogData.dwKey[0]		=	pPlayer->m_dwUserID;			//	User ID

  00098	8b 96 ac 03 01
	00		 mov	 edx, DWORD PTR [esi+66476]

; 1207 : 	LogData.dwKey[1]		=	pPlayer->m_dwID;				//	Character Seq
; 1208 : 	lstrcpy(LogData.szKey[1],	pPlayer->m_strNAME	);			//	Character Name

  0009e	8b 8e a4 03 01
	00		 mov	 ecx, DWORD PTR [esi+66468]
  000a4	89 54 24 48	 mov	 DWORD PTR _LogData$[esp+1096], edx
  000a8	89 44 24 44	 mov	 DWORD PTR _LogData$[esp+1092], eax
  000ac	8b 86 44 01 01
	00		 mov	 eax, DWORD PTR [esi+65860]
  000b2	51		 push	 ecx
  000b3	8d 94 24 d6 00
	00 00		 lea	 edx, DWORD PTR _LogData$[esp+1238]
  000ba	52		 push	 edx
  000bb	89 5c 24 54	 mov	 DWORD PTR _LogData$[esp+1108], ebx
  000bf	89 44 24 58	 mov	 DWORD PTR _LogData$[esp+1112], eax
  000c3	89 5c 24 5c	 mov	 DWORD PTR _LogData$[esp+1116], ebx
  000c7	ff d7		 call	 edi

; 1209 : 
; 1210 : 	LogData.dwKey[3]		=	pPlayer->m_bRace;

  000c9	0f b6 86 ba 03
	01 00		 movzx	 eax, BYTE PTR [esi+66490]
  000d0	99		 cdq
  000d1	89 44 24 60	 mov	 DWORD PTR _LogData$[esp+1120], eax

; 1211 : 	LogData.dwKey[5]		=	pPlayer->m_bClass;

  000d5	0f b6 86 b8 03
	01 00		 movzx	 eax, BYTE PTR [esi+66488]
  000dc	89 54 24 64	 mov	 DWORD PTR _LogData$[esp+1124], edx
  000e0	99		 cdq
  000e1	89 44 24 70	 mov	 DWORD PTR _LogData$[esp+1136], eax

; 1212 : 
; 1213 : 	LogData.dwKey[9]		=	pPlayer->m_bCountry + (pPlayer->m_bAidCountry == TCONTRY_N ? 0 : (pPlayer->m_bAidCountry+1)*10);			//	Country

  000e5	8a 86 9e 01 01
	00		 mov	 al, BYTE PTR [esi+65950]
  000eb	3c 03		 cmp	 al, 3
  000ed	89 54 24 74	 mov	 DWORD PTR _LogData$[esp+1140], edx
  000f1	75 04		 jne	 SHORT $L178248
  000f3	33 c9		 xor	 ecx, ecx
  000f5	eb 09		 jmp	 SHORT $L178249
$L178248:
  000f7	0f b6 c0	 movzx	 eax, al
  000fa	40		 inc	 eax
  000fb	8d 0c 80	 lea	 ecx, DWORD PTR [eax+eax*4]
  000fe	d1 e1		 shl	 ecx, 1
$L178249:
  00100	0f b6 86 9d 01
	01 00		 movzx	 eax, BYTE PTR [esi+65949]

; 1214 : 	LogData.dwKey[10]		=	pPlayer->m_bLevel;				//	Level
; 1215 : 
; 1216 : 
; 1217 : 
; 1218 : 	//
; 1219 : 	wsprintf( LogData.szKey[5], "Now Money : %u/%u/%u",			//	Now Money
; 1220 : 											pPlayer->m_dwGold,		
; 1221 : 											pPlayer->m_dwSilver, 
; 1222 : 											pPlayer->m_dwCooper );	

  00107	8b 1d 00 00 00
	00		 mov	 ebx, DWORD PTR __imp__wsprintfA
  0010d	03 c1		 add	 eax, ecx
  0010f	8b 8e cc 03 01
	00		 mov	 ecx, DWORD PTR [esi+66508]
  00115	99		 cdq
  00116	89 84 24 90 00
	00 00		 mov	 DWORD PTR _LogData$[esp+1168], eax
  0011d	0f b6 86 7b 01
	01 00		 movzx	 eax, BYTE PTR [esi+65915]
  00124	89 94 24 94 00
	00 00		 mov	 DWORD PTR _LogData$[esp+1172], edx
  0012b	99		 cdq
  0012c	89 84 24 98 00
	00 00		 mov	 DWORD PTR _LogData$[esp+1176], eax
  00133	8b 86 c8 03 01
	00		 mov	 eax, DWORD PTR [esi+66504]
  00139	50		 push	 eax
  0013a	51		 push	 ecx
  0013b	89 94 24 a4 00
	00 00		 mov	 DWORD PTR _LogData$[esp+1188], edx
  00142	8b 96 d0 03 01
	00		 mov	 edx, DWORD PTR [esi+66512]
  00148	52		 push	 edx
  00149	8d 84 24 a6 01
	00 00		 lea	 eax, DWORD PTR _LogData$[esp+1446]
  00150	68 00 00 00 00	 push	 OFFSET FLAT:??_C@_0BF@LNLPBIJG@Now?5Money?5?3?5?$CFu?1?$CFu?1?$CFu?$AA@
  00155	50		 push	 eax
  00156	ff d3		 call	 ebx

; 1223 : 
; 1224 : 	
; 1225 : 	wsprintf( LogData.szKey[6], "Now Exp : %u", pPlayer->m_dwEXP);	// Now Exp

  00158	8b 8e d4 03 01
	00		 mov	 ecx, DWORD PTR [esi+66516]
  0015e	51		 push	 ecx
  0015f	8d 94 24 e4 01
	00 00		 lea	 edx, DWORD PTR _LogData$[esp+1508]
  00166	68 00 00 00 00	 push	 OFFSET FLAT:??_C@_0N@FCHLIMGO@Now?5Exp?5?3?5?$CFu?$AA@
  0016b	52		 push	 edx
  0016c	ff d3		 call	 ebx

; 1226 : 
; 1227 : 	//
; 1228 : 	//	Char Base
; 1229 : 	//
; 1230 : 	LogData.dwFormat = LF_CHARBASE;
; 1231 : 
; 1232 : 	_LPLOG_CHARBASE_ pCharBase = (_LPLOG_CHARBASE_)LogData.szLog;
; 1233 : 	
; 1234 : 	pCharBase->dwCharID = pPlayer->m_dwID;
; 1235 : 	lstrcpy( pCharBase->szName, pPlayer->m_strNAME);

  0016e	8b 8e a4 03 01
	00		 mov	 ecx, DWORD PTR [esi+66468]
  00174	8b 86 44 01 01
	00		 mov	 eax, DWORD PTR [esi+65860]
  0017a	83 c4 20	 add	 esp, 32			; 00000020H
  0017d	51		 push	 ecx
  0017e	8d 94 24 0c 02
	00 00		 lea	 edx, DWORD PTR _LogData$[esp+1548]
  00185	52		 push	 edx
  00186	c7 84 24 08 02
	00 00 01 00 00
	00		 mov	 DWORD PTR _LogData$[esp+1544], 1
  00191	89 84 24 0c 02
	00 00		 mov	 DWORD PTR _LogData$[esp+1548], eax
  00198	ff d7		 call	 edi

; 1236 : 	pCharBase->bSlot	= 0;
; 1237 : 	pCharBase->bLevel	= pPlayer->m_bLevel;
; 1238 : 	pCharBase->bClass	= pPlayer->m_bClass;

  0019a	8a 8e b8 03 01
	00		 mov	 cl, BYTE PTR [esi+66488]
  001a0	8a 86 7b 01 01
	00		 mov	 al, BYTE PTR [esi+65915]

; 1239 : 	pCharBase->bRace	= pPlayer->m_bRace;

  001a6	8a 96 ba 03 01
	00		 mov	 dl, BYTE PTR [esi+66490]
  001ac	88 8c 24 1e 02
	00 00		 mov	 BYTE PTR _LogData$[esp+1566], cl

; 1240 : 	pCharBase->bCountry	= pPlayer->m_bCountry;
; 1241 : 	pCharBase->bSex		= pPlayer->m_bSex;

  001b3	8a 8e c0 03 01
	00		 mov	 cl, BYTE PTR [esi+66496]
  001b9	88 84 24 1d 02
	00 00		 mov	 BYTE PTR _LogData$[esp+1565], al
  001c0	8a 86 9d 01 01
	00		 mov	 al, BYTE PTR [esi+65949]
  001c6	88 8c 24 21 02
	00 00		 mov	 BYTE PTR _LogData$[esp+1569], cl

; 1242 : 	pCharBase->bHair	= pPlayer->m_bHair;
; 1243 : 	pCharBase->bFace	= pPlayer->m_bFace;
; 1244 : 	pCharBase->bBody	= pPlayer->m_bBody;

  001cd	8a 8e bd 03 01
	00		 mov	 cl, BYTE PTR [esi+66493]
  001d3	88 94 24 1f 02
	00 00		 mov	 BYTE PTR _LogData$[esp+1567], dl
  001da	8a 96 bb 03 01
	00		 mov	 dl, BYTE PTR [esi+66491]
  001e0	88 84 24 20 02
	00 00		 mov	 BYTE PTR _LogData$[esp+1568], al
  001e7	8a 86 bc 03 01
	00		 mov	 al, BYTE PTR [esi+66492]
  001ed	88 8c 24 24 02
	00 00		 mov	 BYTE PTR _LogData$[esp+1572], cl

; 1245 : 	pCharBase->bPants	= pPlayer->m_bPants;
; 1246 : 	pCharBase->bHand	= pPlayer->m_bHand;
; 1247 : 	pCharBase->bFoot	= pPlayer->m_bFoot;

  001f4	8a 8e bf 03 01
	00		 mov	 cl, BYTE PTR [esi+66495]
  001fa	88 94 24 22 02
	00 00		 mov	 BYTE PTR _LogData$[esp+1570], dl
  00201	8a 96 b9 03 01
	00		 mov	 dl, BYTE PTR [esi+66489]
  00207	88 84 24 23 02
	00 00		 mov	 BYTE PTR _LogData$[esp+1571], al
  0020e	8a 86 be 03 01
	00		 mov	 al, BYTE PTR [esi+66494]
  00214	88 8c 24 27 02
	00 00		 mov	 BYTE PTR _LogData$[esp+1575], cl

; 1248 : 
; 1249 : 	SendDMLog( LogData );	

  0021b	81 ec f8 03 00
	00		 sub	 esp, 1016		; 000003f8H
  00221	8b fc		 mov	 edi, esp
  00223	c6 84 24 14 06
	00 00 00	 mov	 BYTE PTR _LogData$[esp+2580], 0
  0022b	88 94 24 1d 06
	00 00		 mov	 BYTE PTR _LogData$[esp+2589], dl
  00232	88 84 24 1e 06
	00 00		 mov	 BYTE PTR _LogData$[esp+2590], al
  00239	b9 fe 00 00 00	 mov	 ecx, 254		; 000000feH
  0023e	8d b4 24 08 04
	00 00		 lea	 esi, DWORD PTR _LogData$[esp+2056]
  00245	f3 a5		 rep movsd
  00247	8b 8c 24 04 04
	00 00		 mov	 ecx, DWORD PTR _this$[esp+2056]
  0024e	e8 00 00 00 00	 call	 ?SendDMLog@CUdpSocket@@QAEXU_LOG_DATA_@@@Z ; CUdpSocket::SendDMLog
$L175725:

; 1250 : }

  00253	8b 8c 24 0c 04
	00 00		 mov	 ecx, DWORD PTR __$ArrayPad$[esp+1040]
  0025a	e8 00 00 00 00	 call	 @__security_check_cookie@4
  0025f	5f		 pop	 edi
  00260	5e		 pop	 esi
  00261	5b		 pop	 ebx
  00262	8b e5		 mov	 esp, ebp
  00264	5d		 pop	 ebp
  00265	c2 08 00	 ret	 8
?LogEnterMap@CUdpSocket@@QAEXKPAVCTPlayer@@@Z ENDP	; CUdpSocket::LogEnterMap
_TEXT	ENDS
PUBLIC	?LogLocalOccupy@CUdpSocket@@QAEXKEGEK@Z		; CUdpSocket::LogLocalOccupy
; Function compile flags: /Ogty
;	COMDAT ?LogLocalOccupy@CUdpSocket@@QAEXKEGEK@Z
_TEXT	SEGMENT
_tNowTime$178286 = -2048				; size = 8
$T178287 = -2040					; size = 1016
_LogData$ = -1024					; size = 1016
__$ArrayPad$ = -4					; size = 4
__$ReturnAddr$ = 4					; size = 4
_pAction$ = 8						; size = 4
_bType$ = 12						; size = 1
_wLocalID$ = 16						; size = 2
_bCountry$ = 20						; size = 1
_dwGuildID$ = 24					; size = 4
?LogLocalOccupy@CUdpSocket@@QAEXKEGEK@Z PROC NEAR	; CUdpSocket::LogLocalOccupy, COMDAT
; _this$ = ecx

; 1256 : {

  00000	55		 push	 ebp
  00001	8b ec		 mov	 ebp, esp
  00003	83 e4 f8	 and	 esp, -8			; fffffff8H
  00006	81 ec 00 08 00
	00		 sub	 esp, 2048		; 00000800H
  0000c	a1 00 00 00 00	 mov	 eax, DWORD PTR ___security_cookie
  00011	89 84 24 fc 07
	00 00		 mov	 DWORD PTR __$ArrayPad$[esp+2048], eax

; 1257 : 	_LOG_DATA_ LogData;
; 1258 : 
; 1259 : 	memset( &LogData, 0x00, sizeof(_LOG_DATA_));

  00018	33 c0		 xor	 eax, eax
  0001a	56		 push	 esi
  0001b	57		 push	 edi
  0001c	b9 fe 00 00 00	 mov	 ecx, 254		; 000000feH
  00021	8d bc 24 08 04
	00 00		 lea	 edi, DWORD PTR _LogData$[esp+2056]
  00028	f3 ab		 rep stosd

; 1260 : 
; 1261 : 	LogData.dwAction	=	pAction;

  0002a	8b 45 08	 mov	 eax, DWORD PTR _pAction$[ebp]

; 1262 : 	LogData.dwServerID	=	_AtlModule.GetServerID();

  0002d	0f b6 0d 82 9e
	00 00		 movzx	 ecx, BYTE PTR ?_AtlModule@@3VCTMapSvrModule@@A+40578
  00034	89 84 24 2c 04
	00 00		 mov	 DWORD PTR _LogData$[esp+2092], eax

; 1263 : 
; 1264 : 	LogData.dwKey[0]	=	wLocalID;

  0003b	0f b7 45 10	 movzx	 eax, WORD PTR _wLocalID$[ebp]
  0003f	99		 cdq
  00040	89 84 24 40 04
	00 00		 mov	 DWORD PTR _LogData$[esp+2112], eax

; 1265 : 
; 1266 : 	LogData.dwKey[2]	=	bCountry;

  00047	0f b6 45 14	 movzx	 eax, BYTE PTR _bCountry$[ebp]
  0004b	89 94 24 44 04
	00 00		 mov	 DWORD PTR _LogData$[esp+2116], edx
  00052	99		 cdq
  00053	89 84 24 50 04
	00 00		 mov	 DWORD PTR _LogData$[esp+2128], eax

; 1267 : 
; 1268 : 	LogData.dwKey[3]	=	dwGuildID;
; 1269 : 
; 1270 : 	LogData.dwKey[6]	=	bType;

  0005a	0f b6 45 0c	 movzx	 eax, BYTE PTR _bType$[ebp]
  0005e	89 94 24 54 04
	00 00		 mov	 DWORD PTR _LogData$[esp+2132], edx
  00065	8b 55 18	 mov	 edx, DWORD PTR _dwGuildID$[ebp]
  00068	89 94 24 58 04
	00 00		 mov	 DWORD PTR _LogData$[esp+2136], edx
  0006f	99		 cdq
  00070	89 8c 24 18 04
	00 00		 mov	 DWORD PTR _LogData$[esp+2072], ecx
  00077	89 84 24 70 04
	00 00		 mov	 DWORD PTR _LogData$[esp+2160], eax
  0007e	89 94 24 74 04
	00 00		 mov	 DWORD PTR _LogData$[esp+2164], edx

; 1271 : 
; 1272 : 	SendDMLog( LogData );	

  00085	b9 fe 00 00 00	 mov	 ecx, 254		; 000000feH
  0008a	8d b4 24 08 04
	00 00		 lea	 esi, DWORD PTR _LogData$[esp+2056]
  00091	8d 7c 24 10	 lea	 edi, DWORD PTR $T178287[esp+2056]
  00095	c7 84 24 5c 04
	00 00 00 00 00
	00		 mov	 DWORD PTR _LogData$[esp+2140], 0
  000a0	6a 00		 push	 0
  000a2	f3 a5		 rep movsd
  000a4	e8 00 00 00 00	 call	 __time64
  000a9	89 44 24 0c	 mov	 DWORD PTR _tNowTime$178286[esp+2060], eax
  000ad	83 c4 04	 add	 esp, 4
  000b0	8d 44 24 10	 lea	 eax, DWORD PTR $T178287[esp+2056]
  000b4	50		 push	 eax
  000b5	8d 4c 24 0c	 lea	 ecx, DWORD PTR _tNowTime$178286[esp+2060]
  000b9	89 54 24 10	 mov	 DWORD PTR _tNowTime$178286[esp+2064], edx
  000bd	e8 00 00 00 00	 call	 ?GetAsDBTIMESTAMP@CTime@ATL@@QBE_NAAUtagDBTIMESTAMP@@@Z ; ATL::CTime::GetAsDBTIMESTAMP
  000c2	81 ec f8 03 00
	00		 sub	 esp, 1016		; 000003f8H
  000c8	8b fc		 mov	 edi, esp
  000ca	b9 fe 00 00 00	 mov	 ecx, 254		; 000000feH
  000cf	8d b4 24 08 04
	00 00		 lea	 esi, DWORD PTR $T178287[esp+3072]
  000d6	f3 a5		 rep movsd
  000d8	b9 00 00 00 00	 mov	 ecx, OFFSET FLAT:?_AtlModule@@3VCTMapSvrModule@@A
  000dd	e8 00 00 00 00	 call	 ?SendDM_UDPLOG_REQ@CTMapSvrModule@@QAEXU_LOG_DATA_@@@Z ; CTMapSvrModule::SendDM_UDPLOG_REQ

; 1273 : }

  000e2	8b 8c 24 04 08
	00 00		 mov	 ecx, DWORD PTR __$ArrayPad$[esp+2056]
  000e9	e8 00 00 00 00	 call	 @__security_check_cookie@4
  000ee	5f		 pop	 edi
  000ef	5e		 pop	 esi
  000f0	8b e5		 mov	 esp, ebp
  000f2	5d		 pop	 ebp
  000f3	c2 14 00	 ret	 20			; 00000014H
?LogLocalOccupy@CUdpSocket@@QAEXKEGEK@Z ENDP		; CUdpSocket::LogLocalOccupy
_TEXT	ENDS
PUBLIC	?LogLocalEnable@CUdpSocket@@QAEXKGE@Z		; CUdpSocket::LogLocalEnable
; Function compile flags: /Ogty
;	COMDAT ?LogLocalEnable@CUdpSocket@@QAEXKGE@Z
_TEXT	SEGMENT
_tNowTime$178312 = -2048				; size = 8
$T178313 = -2040					; size = 1016
_LogData$ = -1024					; size = 1016
__$ArrayPad$ = -4					; size = 4
__$ReturnAddr$ = 4					; size = 4
_pAction$ = 8						; size = 4
_wLocalID$ = 12						; size = 2
_bStatus$ = 16						; size = 1
?LogLocalEnable@CUdpSocket@@QAEXKGE@Z PROC NEAR		; CUdpSocket::LogLocalEnable, COMDAT
; _this$ = ecx

; 1279 : {

  00000	55		 push	 ebp
  00001	8b ec		 mov	 ebp, esp
  00003	83 e4 f8	 and	 esp, -8			; fffffff8H
  00006	81 ec 00 08 00
	00		 sub	 esp, 2048		; 00000800H
  0000c	a1 00 00 00 00	 mov	 eax, DWORD PTR ___security_cookie
  00011	89 84 24 fc 07
	00 00		 mov	 DWORD PTR __$ArrayPad$[esp+2048], eax
  00018	56		 push	 esi

; 1280 : 	_LOG_DATA_ LogData;
; 1281 : 	memset( &LogData, 0x00, sizeof(_LOG_DATA_));

  00019	33 c0		 xor	 eax, eax
  0001b	57		 push	 edi
  0001c	b9 fe 00 00 00	 mov	 ecx, 254		; 000000feH
  00021	8d bc 24 08 04
	00 00		 lea	 edi, DWORD PTR _LogData$[esp+2056]
  00028	f3 ab		 rep stosd

; 1282 : 
; 1283 : 	LogData.dwAction	=	pAction;

  0002a	8b 45 08	 mov	 eax, DWORD PTR _pAction$[ebp]

; 1284 : 	LogData.dwServerID	=	_AtlModule.GetServerID();

  0002d	0f b6 0d 82 9e
	00 00		 movzx	 ecx, BYTE PTR ?_AtlModule@@3VCTMapSvrModule@@A+40578
  00034	89 84 24 2c 04
	00 00		 mov	 DWORD PTR _LogData$[esp+2092], eax

; 1285 : 
; 1286 : 	LogData.dwKey[0]	=	wLocalID;

  0003b	0f b7 45 0c	 movzx	 eax, WORD PTR _wLocalID$[ebp]
  0003f	99		 cdq
  00040	89 84 24 40 04
	00 00		 mov	 DWORD PTR _LogData$[esp+2112], eax

; 1287 : 
; 1288 : 	LogData.dwKey[6]	=	bStatus;

  00047	0f b6 45 10	 movzx	 eax, BYTE PTR _bStatus$[ebp]
  0004b	89 94 24 44 04
	00 00		 mov	 DWORD PTR _LogData$[esp+2116], edx
  00052	99		 cdq
  00053	89 8c 24 18 04
	00 00		 mov	 DWORD PTR _LogData$[esp+2072], ecx
  0005a	89 84 24 70 04
	00 00		 mov	 DWORD PTR _LogData$[esp+2160], eax
  00061	89 94 24 74 04
	00 00		 mov	 DWORD PTR _LogData$[esp+2164], edx

; 1289 : 
; 1290 : 	SendDMLog( LogData );

  00068	b9 fe 00 00 00	 mov	 ecx, 254		; 000000feH
  0006d	8d b4 24 08 04
	00 00		 lea	 esi, DWORD PTR _LogData$[esp+2056]
  00074	8d 7c 24 10	 lea	 edi, DWORD PTR $T178313[esp+2056]
  00078	6a 00		 push	 0
  0007a	f3 a5		 rep movsd
  0007c	e8 00 00 00 00	 call	 __time64
  00081	89 54 24 10	 mov	 DWORD PTR _tNowTime$178312[esp+2064], edx
  00085	83 c4 04	 add	 esp, 4
  00088	8d 54 24 10	 lea	 edx, DWORD PTR $T178313[esp+2056]
  0008c	52		 push	 edx
  0008d	8d 4c 24 0c	 lea	 ecx, DWORD PTR _tNowTime$178312[esp+2060]
  00091	89 44 24 0c	 mov	 DWORD PTR _tNowTime$178312[esp+2060], eax
  00095	e8 00 00 00 00	 call	 ?GetAsDBTIMESTAMP@CTime@ATL@@QBE_NAAUtagDBTIMESTAMP@@@Z ; ATL::CTime::GetAsDBTIMESTAMP
  0009a	81 ec f8 03 00
	00		 sub	 esp, 1016		; 000003f8H
  000a0	8b fc		 mov	 edi, esp
  000a2	b9 fe 00 00 00	 mov	 ecx, 254		; 000000feH
  000a7	8d b4 24 08 04
	00 00		 lea	 esi, DWORD PTR $T178313[esp+3072]
  000ae	f3 a5		 rep movsd
  000b0	b9 00 00 00 00	 mov	 ecx, OFFSET FLAT:?_AtlModule@@3VCTMapSvrModule@@A
  000b5	e8 00 00 00 00	 call	 ?SendDM_UDPLOG_REQ@CTMapSvrModule@@QAEXU_LOG_DATA_@@@Z ; CTMapSvrModule::SendDM_UDPLOG_REQ

; 1291 : }

  000ba	8b 8c 24 04 08
	00 00		 mov	 ecx, DWORD PTR __$ArrayPad$[esp+2056]
  000c1	e8 00 00 00 00	 call	 @__security_check_cookie@4
  000c6	5f		 pop	 edi
  000c7	5e		 pop	 esi
  000c8	8b e5		 mov	 esp, ebp
  000ca	5d		 pop	 ebp
  000cb	c2 0c 00	 ret	 12			; 0000000cH
?LogLocalEnable@CUdpSocket@@QAEXKGE@Z ENDP		; CUdpSocket::LogLocalEnable
_TEXT	ENDS
PUBLIC	??_C@_06IKLLLDHL@normal?$AA@			; `string'
PUBLIC	??_C@_05KAEIDCAL@apply?$AA@			; `string'
PUBLIC	?LogGuildDisorganization@CUdpSocket@@QAEXKPAVCTPlayer@@E@Z ; CUdpSocket::LogGuildDisorganization
;	COMDAT ??_C@_05KAEIDCAL@apply?$AA@
; File c:\program files (x86)\microsoft visual studio .net 2003\vc7\atlmfc\include\atlsimpstr.h
CONST	SEGMENT
??_C@_05KAEIDCAL@apply?$AA@ DB 'apply', 00H		; `string'
CONST	ENDS
;	COMDAT ??_C@_06IKLLLDHL@normal?$AA@
CONST	SEGMENT
??_C@_06IKLLLDHL@normal?$AA@ DB 'normal', 00H		; `string'
; Function compile flags: /Ogty
; File c:\users\pierr\desktop\4story - oldschool\sources\tserver\tmapsvr\udpsocket.cpp
CONST	ENDS
;	COMDAT ?LogGuildDisorganization@CUdpSocket@@QAEXKPAVCTPlayer@@E@Z
_TEXT	SEGMENT
_this$ = -1028						; size = 4
_LogData$ = -1024					; size = 1016
__$ArrayPad$ = -4					; size = 4
__$ReturnAddr$ = 4					; size = 4
_pAction$ = 8						; size = 4
_pPlayer$ = 12						; size = 4
_pDisorg$ = 16						; size = 1
?LogGuildDisorganization@CUdpSocket@@QAEXKPAVCTPlayer@@E@Z PROC NEAR ; CUdpSocket::LogGuildDisorganization, COMDAT
; _this$ = ecx

; 1610 : {

  00000	55		 push	 ebp
  00001	8b ec		 mov	 ebp, esp
  00003	83 e4 f8	 and	 esp, -8			; fffffff8H
  00006	81 ec 04 04 00
	00		 sub	 esp, 1028		; 00000404H
  0000c	a1 00 00 00 00	 mov	 eax, DWORD PTR ___security_cookie
  00011	53		 push	 ebx
  00012	56		 push	 esi

; 1611 : 	if(!pPlayer) return;

  00013	8b 75 0c	 mov	 esi, DWORD PTR _pPlayer$[ebp]
  00016	33 db		 xor	 ebx, ebx
  00018	3b f3		 cmp	 esi, ebx
  0001a	89 84 24 08 04
	00 00		 mov	 DWORD PTR __$ArrayPad$[esp+1036], eax
  00021	57		 push	 edi
  00022	89 4c 24 0c	 mov	 DWORD PTR _this$[esp+1040], ecx
  00026	0f 84 53 01 00
	00		 je	 $L175931

; 1612 : 
; 1613 : 	_LOG_DATA_ LogData;
; 1614 : 	memset( &LogData, 0x00, sizeof(_LOG_DATA_));
; 1615 : 
; 1616 : 	LogData.dwAction	=	pAction;
; 1617 : 	LogData.dwServerID	=	_AtlModule.GetServerID();
; 1618 : 
; 1619 : 	lstrcpy( LogData.szClientIP, inet_ntoa(pPlayer->m_addr.sin_addr) );

  0002c	8b 56 40	 mov	 edx, DWORD PTR [esi+64]
  0002f	33 c0		 xor	 eax, eax
  00031	b9 fe 00 00 00	 mov	 ecx, 254		; 000000feH
  00036	8d 7c 24 10	 lea	 edi, DWORD PTR _LogData$[esp+1040]
  0003a	f3 ab		 rep stosd
  0003c	0f b6 0d 82 9e
	00 00		 movzx	 ecx, BYTE PTR ?_AtlModule@@3VCTMapSvrModule@@A+40578
  00043	8b 45 08	 mov	 eax, DWORD PTR _pAction$[ebp]
  00046	52		 push	 edx
  00047	89 44 24 38	 mov	 DWORD PTR _LogData$[esp+1080], eax
  0004b	89 4c 24 24	 mov	 DWORD PTR _LogData$[esp+1060], ecx
  0004f	ff 15 00 00 00
	00		 call	 DWORD PTR __imp__inet_ntoa@4
  00055	8b 3d 00 00 00
	00		 mov	 edi, DWORD PTR __imp__lstrcpyA@8
  0005b	50		 push	 eax
  0005c	8d 44 24 28	 lea	 eax, DWORD PTR _LogData$[esp+1064]
  00060	50		 push	 eax
  00061	ff d7		 call	 edi

; 1620 : 
; 1621 : 	LogData.wMapID			=	pPlayer->m_wMapID;				//	Map ID

  00063	66 8b 8e 90 01
	01 00		 mov	 cx, WORD PTR [esi+65936]

; 1622 : 	LogData.nX				=	(int)pPlayer->m_fPosX;			//	X

  0006a	d9 86 7c 01 01
	00		 fld	 DWORD PTR [esi+65916]
  00070	66 89 4c 24 38	 mov	 WORD PTR _LogData$[esp+1080], cx
  00075	e8 00 00 00 00	 call	 __ftol2

; 1623 : 	LogData.nY				=	(int)pPlayer->m_fPosY;			//	Y

  0007a	d9 86 80 01 01
	00		 fld	 DWORD PTR [esi+65920]
  00080	89 44 24 3c	 mov	 DWORD PTR _LogData$[esp+1084], eax
  00084	e8 00 00 00 00	 call	 __ftol2

; 1624 : 	LogData.nZ				=	(int)pPlayer->m_fPosZ;			//	Z

  00089	d9 86 84 01 01
	00		 fld	 DWORD PTR [esi+65924]
  0008f	89 44 24 40	 mov	 DWORD PTR _LogData$[esp+1088], eax
  00093	e8 00 00 00 00	 call	 __ftol2

; 1625 : 
; 1626 : 	LogData.dwKey[0]		=	pPlayer->m_dwUserID;			// User ID

  00098	8b 96 ac 03 01
	00		 mov	 edx, DWORD PTR [esi+66476]

; 1627 : 	LogData.dwKey[1]		=	pPlayer->m_dwID;				//	Character Seq
; 1628 : 	lstrcpy(LogData.szKey[1],	pPlayer->m_strNAME	);			//	Character Name

  0009e	8b 8e a4 03 01
	00		 mov	 ecx, DWORD PTR [esi+66468]
  000a4	89 54 24 48	 mov	 DWORD PTR _LogData$[esp+1096], edx
  000a8	89 44 24 44	 mov	 DWORD PTR _LogData$[esp+1092], eax
  000ac	8b 86 44 01 01
	00		 mov	 eax, DWORD PTR [esi+65860]
  000b2	51		 push	 ecx
  000b3	8d 94 24 d6 00
	00 00		 lea	 edx, DWORD PTR _LogData$[esp+1238]
  000ba	52		 push	 edx
  000bb	89 5c 24 54	 mov	 DWORD PTR _LogData$[esp+1108], ebx
  000bf	89 44 24 58	 mov	 DWORD PTR _LogData$[esp+1112], eax
  000c3	89 5c 24 5c	 mov	 DWORD PTR _LogData$[esp+1116], ebx
  000c7	ff d7		 call	 edi

; 1629 : 	LogData.dwKey[9]		=	pPlayer->m_bCountry + (pPlayer->m_bAidCountry == TCONTRY_N ? 0 : (pPlayer->m_bAidCountry+1)*10);			//	Country

  000c9	8a 86 9e 01 01
	00		 mov	 al, BYTE PTR [esi+65950]
  000cf	3c 03		 cmp	 al, 3
  000d1	75 04		 jne	 SHORT $L178318
  000d3	33 c9		 xor	 ecx, ecx
  000d5	eb 09		 jmp	 SHORT $L178319
$L178318:
  000d7	0f b6 c0	 movzx	 eax, al
  000da	40		 inc	 eax
  000db	8d 0c 80	 lea	 ecx, DWORD PTR [eax+eax*4]
  000de	d1 e1		 shl	 ecx, 1
$L178319:
  000e0	0f b6 86 9d 01
	01 00		 movzx	 eax, BYTE PTR [esi+65949]
  000e7	03 c1		 add	 eax, ecx

; 1630 : 	LogData.dwKey[10]		=	pPlayer->m_bLevel;				//	Level
; 1631 : 
; 1632 : 
; 1633 : 
; 1634 : 
; 1635 : 	//	4: Guild
; 1636 : 	LogData.dwKey[4]		=	pPlayer->m_dwGuildID;
; 1637 : 	lstrcpy(LogData.szKey[4],	pPlayer->m_strGuildName	);

  000e9	8b 8e b4 01 01
	00		 mov	 ecx, DWORD PTR [esi+65972]
  000ef	99		 cdq
  000f0	89 84 24 90 00
	00 00		 mov	 DWORD PTR _LogData$[esp+1168], eax
  000f7	0f b6 86 7b 01
	01 00		 movzx	 eax, BYTE PTR [esi+65915]
  000fe	89 94 24 94 00
	00 00		 mov	 DWORD PTR _LogData$[esp+1172], edx
  00105	99		 cdq
  00106	89 94 24 9c 00
	00 00		 mov	 DWORD PTR _LogData$[esp+1180], edx
  0010d	89 84 24 98 00
	00 00		 mov	 DWORD PTR _LogData$[esp+1176], eax
  00114	8b 86 b0 01 01
	00		 mov	 eax, DWORD PTR [esi+65968]
  0011a	51		 push	 ecx
  0011b	8d 94 24 6c 01
	00 00		 lea	 edx, DWORD PTR _LogData$[esp+1388]
  00122	52		 push	 edx
  00123	89 44 24 70	 mov	 DWORD PTR _LogData$[esp+1136], eax
  00127	89 5c 24 74	 mov	 DWORD PTR _LogData$[esp+1140], ebx
  0012b	ff d7		 call	 edi

; 1638 : 
; 1639 : 	//	5
; 1640 : 	switch(pDisorg)

  0012d	0f b6 45 10	 movzx	 eax, BYTE PTR _pDisorg$[ebp]
  00131	2b c3		 sub	 eax, ebx
  00133	74 12		 je	 SHORT $L175942
  00135	48		 dec	 eax
  00136	75 1e		 jne	 SHORT $L175939

; 1643 : 	case 1	:	lstrcpy(LogData.szKey[5],	"apply"		);	break;

  00138	68 00 00 00 00	 push	 OFFSET FLAT:??_C@_05KAEIDCAL@apply?$AA@
  0013d	8d 84 24 9e 01
	00 00		 lea	 eax, DWORD PTR _LogData$[esp+1438]
  00144	50		 push	 eax
  00145	eb 0d		 jmp	 SHORT $L178333
$L175942:

; 1641 : 	{
; 1642 : 	case 0	:	lstrcpy(LogData.szKey[5],	"normal"	);	break;

  00147	68 00 00 00 00	 push	 OFFSET FLAT:??_C@_06IKLLLDHL@normal?$AA@
  0014c	8d 8c 24 9e 01
	00 00		 lea	 ecx, DWORD PTR _LogData$[esp+1438]
  00153	51		 push	 ecx
$L178333:
  00154	ff d7		 call	 edi
$L175939:

; 1644 : 	}
; 1645 : 
; 1646 : 	LogData.dwFormat = LF_TEXT;
; 1647 : 
; 1648 : 	SendDMLog( LogData );

  00156	81 ec f8 03 00
	00		 sub	 esp, 1016		; 000003f8H
  0015c	8b fc		 mov	 edi, esp
  0015e	89 9c 24 f8 05
	00 00		 mov	 DWORD PTR _LogData$[esp+2552], ebx
  00165	b9 fe 00 00 00	 mov	 ecx, 254		; 000000feH
  0016a	8d b4 24 08 04
	00 00		 lea	 esi, DWORD PTR _LogData$[esp+2056]
  00171	f3 a5		 rep movsd
  00173	8b 8c 24 04 04
	00 00		 mov	 ecx, DWORD PTR _this$[esp+2056]
  0017a	e8 00 00 00 00	 call	 ?SendDMLog@CUdpSocket@@QAEXU_LOG_DATA_@@@Z ; CUdpSocket::SendDMLog
$L175931:

; 1649 : }

  0017f	8b 8c 24 0c 04
	00 00		 mov	 ecx, DWORD PTR __$ArrayPad$[esp+1040]
  00186	e8 00 00 00 00	 call	 @__security_check_cookie@4
  0018b	5f		 pop	 edi
  0018c	5e		 pop	 esi
  0018d	5b		 pop	 ebx
  0018e	8b e5		 mov	 esp, ebp
  00190	5d		 pop	 ebp
  00191	c2 0c 00	 ret	 12			; 0000000cH
?LogGuildDisorganization@CUdpSocket@@QAEXKPAVCTPlayer@@E@Z ENDP ; CUdpSocket::LogGuildDisorganization
_TEXT	ENDS
PUBLIC	??_C@_07PFKAHOIJ@SUCCESS?$AA@			; `string'
PUBLIC	??_C@_0BB@ICBAIEAK@ALREADYGUILDNAME?$AA@	; `string'
PUBLIC	??_C@_08PPKAPFHE@NOTCHIEF?$AA@			; `string'
PUBLIC	??_C@_0O@PBOOMHM@ALREADYMEMBER?$AA@		; `string'
PUBLIC	??_C@_09FJKKGCKF@NOTMEMBER?$AA@			; `string'
PUBLIC	??_C@_09DEKMPEHL@HAVEGUILD?$AA@			; `string'
PUBLIC	??_C@_08DJOBNNJD@NOTFOUND?$AA@			; `string'
PUBLIC	??_C@_0O@ODJEFDDJ@ESTABLISH_ERR?$AA@		; `string'
PUBLIC	??_C@_0BE@FBCEBNHN@DISORGANIZATION_ERR?$AA@	; `string'
PUBLIC	??_C@_0L@INCIIFBF@LEAVE_SELF?$AA@		; `string'
PUBLIC	??_C@_0L@CJJMNPJO@LEAVE_KICK?$AA@		; `string'
PUBLIC	??_C@_0BG@MENJOLMJ@LEAVE_DISORGANIZATION?$AA@	; `string'
PUBLIC	??_C@_0N@NKEOKGLA@JOIN_SUCCESS?$AA@		; `string'
PUBLIC	??_C@_09FLDMLBKH@JOIN_DENY?$AA@			; `string'
PUBLIC	??_C@_06NJMFPHHE@NODUTY?$AA@			; `string'
PUBLIC	?LogGuildExpMoeny@CUdpSocket@@QAEXKPAVCTPlayer@@HHHHHE@Z ; CUdpSocket::LogGuildExpMoeny
;	COMDAT ??_C@_07PFKAHOIJ@SUCCESS?$AA@
; File c:\program files (x86)\microsoft visual studio .net 2003\vc7\atlmfc\include\atlsimpstr.h
CONST	SEGMENT
??_C@_07PFKAHOIJ@SUCCESS?$AA@ DB 'SUCCESS', 00H		; `string'
CONST	ENDS
;	COMDAT ??_C@_0BB@ICBAIEAK@ALREADYGUILDNAME?$AA@
CONST	SEGMENT
??_C@_0BB@ICBAIEAK@ALREADYGUILDNAME?$AA@ DB 'ALREADYGUILDNAME', 00H ; `string'
CONST	ENDS
;	COMDAT ??_C@_08PPKAPFHE@NOTCHIEF?$AA@
CONST	SEGMENT
??_C@_08PPKAPFHE@NOTCHIEF?$AA@ DB 'NOTCHIEF', 00H	; `string'
CONST	ENDS
;	COMDAT ??_C@_0O@PBOOMHM@ALREADYMEMBER?$AA@
CONST	SEGMENT
??_C@_0O@PBOOMHM@ALREADYMEMBER?$AA@ DB 'ALREADYMEMBER', 00H ; `string'
CONST	ENDS
;	COMDAT ??_C@_09FJKKGCKF@NOTMEMBER?$AA@
CONST	SEGMENT
??_C@_09FJKKGCKF@NOTMEMBER?$AA@ DB 'NOTMEMBER', 00H	; `string'
CONST	ENDS
;	COMDAT ??_C@_09DEKMPEHL@HAVEGUILD?$AA@
CONST	SEGMENT
??_C@_09DEKMPEHL@HAVEGUILD?$AA@ DB 'HAVEGUILD', 00H	; `string'
CONST	ENDS
;	COMDAT ??_C@_08DJOBNNJD@NOTFOUND?$AA@
CONST	SEGMENT
??_C@_08DJOBNNJD@NOTFOUND?$AA@ DB 'NOTFOUND', 00H	; `string'
CONST	ENDS
;	COMDAT ??_C@_0O@ODJEFDDJ@ESTABLISH_ERR?$AA@
CONST	SEGMENT
??_C@_0O@ODJEFDDJ@ESTABLISH_ERR?$AA@ DB 'ESTABLISH_ERR', 00H ; `string'
CONST	ENDS
;	COMDAT ??_C@_0BE@FBCEBNHN@DISORGANIZATION_ERR?$AA@
CONST	SEGMENT
??_C@_0BE@FBCEBNHN@DISORGANIZATION_ERR?$AA@ DB 'DISORGANIZATION_ERR', 00H ; `string'
CONST	ENDS
;	COMDAT ??_C@_0L@INCIIFBF@LEAVE_SELF?$AA@
CONST	SEGMENT
??_C@_0L@INCIIFBF@LEAVE_SELF?$AA@ DB 'LEAVE_SELF', 00H	; `string'
CONST	ENDS
;	COMDAT ??_C@_0L@CJJMNPJO@LEAVE_KICK?$AA@
CONST	SEGMENT
??_C@_0L@CJJMNPJO@LEAVE_KICK?$AA@ DB 'LEAVE_KICK', 00H	; `string'
CONST	ENDS
;	COMDAT ??_C@_0BG@MENJOLMJ@LEAVE_DISORGANIZATION?$AA@
CONST	SEGMENT
??_C@_0BG@MENJOLMJ@LEAVE_DISORGANIZATION?$AA@ DB 'LEAVE_DISORGANIZATION', 00H ; `string'
CONST	ENDS
;	COMDAT ??_C@_0N@NKEOKGLA@JOIN_SUCCESS?$AA@
CONST	SEGMENT
??_C@_0N@NKEOKGLA@JOIN_SUCCESS?$AA@ DB 'JOIN_SUCCESS', 00H ; `string'
CONST	ENDS
;	COMDAT ??_C@_09FLDMLBKH@JOIN_DENY?$AA@
CONST	SEGMENT
??_C@_09FLDMLBKH@JOIN_DENY?$AA@ DB 'JOIN_DENY', 00H	; `string'
CONST	ENDS
;	COMDAT ??_C@_06NJMFPHHE@NODUTY?$AA@
CONST	SEGMENT
??_C@_06NJMFPHHE@NODUTY?$AA@ DB 'NODUTY', 00H		; `string'
; Function compile flags: /Ogty
; File c:\users\pierr\desktop\4story - oldschool\sources\tserver\tmapsvr\udpsocket.cpp
CONST	ENDS
;	COMDAT ?LogGuildExpMoeny@CUdpSocket@@QAEXKPAVCTPlayer@@HHHHHE@Z
_TEXT	SEGMENT
_this$ = -1028						; size = 4
_LogData$ = -1024					; size = 1016
__$ArrayPad$ = -4					; size = 4
__$ReturnAddr$ = 4					; size = 4
_pAction$ = 8						; size = 4
_pPlayer$ = 12						; size = 4
_pExp$ = 16						; size = 4
_pGold$ = 20						; size = 4
_pSilver$ = 24						; size = 4
_pCooper$ = 28						; size = 4
_pPvPoint$ = 32						; size = 4
_bRet$ = 36						; size = 1
?LogGuildExpMoeny@CUdpSocket@@QAEXKPAVCTPlayer@@HHHHHE@Z PROC NEAR ; CUdpSocket::LogGuildExpMoeny, COMDAT
; _this$ = ecx

; 1655 : {

  00000	55		 push	 ebp
  00001	8b ec		 mov	 ebp, esp
  00003	83 e4 f8	 and	 esp, -8			; fffffff8H
  00006	81 ec 04 04 00
	00		 sub	 esp, 1028		; 00000404H
