; Listing generated by Microsoft (R) Optimizing Compiler Version 13.10.3077 

	TITLE	.\UdpSocket.cpp
	.386P
include listing.inc
if @Version gt 510
.model FLAT
else
_TEXT	SEGMENT PARA USE32 PUBLIC 'CODE'
_TEXT	ENDS
_DATA	SEGMENT DWORD USE32 PUBLIC 'DATA'
_DATA	ENDS
CONST	SEGMENT DWORD USE32 PUBLIC 'CONST'
CONST	ENDS
_BSS	SEGMENT DWORD USE32 PUBLIC 'BSS'
_BSS	ENDS
$$SYMBOLS	SEGMENT BYTE USE32 'DEBSYM'
$$SYMBOLS	ENDS
$$TYPES	SEGMENT BYTE USE32 'DEBTYP'
$$TYPES	ENDS
_TLS	SEGMENT DWORD USE32 PUBLIC 'TLS'
_TLS	ENDS
;	COMDAT ??_C@_1EO@BGAEGJFB@?$AA?$HL?$AA5?$AA1?$AAA?$AAB?$AA7?$AAA?$AA3?$AA0?$AA?9?$AA9?$AA9?$AA5?$AAA?$AA?9?$AA4?$AA4?$AAA?$AAB?$AA?9@
CONST	SEGMENT DWORD USE32 PUBLIC 'CONST'
CONST	ENDS
;	COMDAT ??_C@_0CH@JJOAEHDK@?$HL51AB7A30?9995A?944AB?9B869?97D79E92@
CONST	SEGMENT DWORD USE32 PUBLIC 'CONST'
CONST	ENDS
;	COMDAT ??_C@_0N@OGFEPDED@LocalService?$AA@
CONST	SEGMENT DWORD USE32 PUBLIC 'CONST'
CONST	ENDS
;	COMDAT ??_C@_02CCDHMLDD@?9?1?$AA@
CONST	SEGMENT DWORD USE32 PUBLIC 'CONST'
CONST	ENDS
;	COMDAT ??_C@_0M@MIGBKCMN@UnregServer?$AA@
CONST	SEGMENT DWORD USE32 PUBLIC 'CONST'
CONST	ENDS
;	COMDAT ??_C@_09LJBJJPCG@RegServer?$AA@
CONST	SEGMENT DWORD USE32 PUBLIC 'CONST'
CONST	ENDS
;	COMDAT ??_C@_07LMLHFMEG@Service?$AA@
CONST	SEGMENT DWORD USE32 PUBLIC 'CONST'
CONST	ENDS
;	COMDAT ??_C@_07PNHNHBAB@Install?$AA@
CONST	SEGMENT DWORD USE32 PUBLIC 'CONST'
CONST	ENDS
;	COMDAT ??_C@_09LAEJNBCE@UnInstall?$AA@
CONST	SEGMENT DWORD USE32 PUBLIC 'CONST'
CONST	ENDS
;	COMDAT ??_C@_04FABLJDN@Name?$AA@
CONST	SEGMENT DWORD USE32 PUBLIC 'CONST'
CONST	ENDS
;	COMDAT ??_C@_01CLKCMJKC@?5?$AA@
CONST	SEGMENT DWORD USE32 PUBLIC 'CONST'
CONST	ENDS
;	COMDAT ??_C@_0M@DBFDLFJJ@?$CFs?5?9Name?5?$CFs?$AA@
CONST	SEGMENT DWORD USE32 PUBLIC 'CONST'
CONST	ENDS
;	COMDAT ??_C@_0BP@GECJKCAK@Could?5not?5open?5Service?5Manager?$AA@
CONST	SEGMENT DWORD USE32 PUBLIC 'CONST'
CONST	ENDS
;	COMDAT ??_C@_06HCEGMCNE@RPCSS?$AA?$AA@
CONST	SEGMENT DWORD USE32 PUBLIC 'CONST'
CONST	ENDS
;	COMDAT ??_C@_0BI@HDJFCBEP@Could?5not?5start?5service?$AA@
CONST	SEGMENT DWORD USE32 PUBLIC 'CONST'
CONST	ENDS
;	COMDAT ??_C@_0BF@LNLPBIJG@Now?5Money?5?3?5?$CFu?1?$CFu?1?$CFu?$AA@
CONST	SEGMENT DWORD USE32 PUBLIC 'CONST'
CONST	ENDS
;	COMDAT ??_C@_02DPKJAMEF@?$CFd?$AA@
CONST	SEGMENT DWORD USE32 PUBLIC 'CONST'
CONST	ENDS
;	COMDAT ??_C@_08HAIKCOPJ@?$CFd?5?9?$DO?5?$CFd?$AA@
CONST	SEGMENT DWORD USE32 PUBLIC 'CONST'
CONST	ENDS
;	COMDAT ??_C@_0N@FCHLIMGO@Now?5Exp?5?3?5?$CFu?$AA@
CONST	SEGMENT DWORD USE32 PUBLIC 'CONST'
CONST	ENDS
;	COMDAT ??_C@_07PFKAHOIJ@SUCCESS?$AA@
CONST	SEGMENT DWORD USE32 PUBLIC 'CONST'
CONST	ENDS
;	COMDAT ??_C@_0BB@ICBAIEAK@ALREADYGUILDNAME?$AA@
CONST	SEGMENT DWORD USE32 PUBLIC 'CONST'
CONST	ENDS
;	COMDAT ??_C@_08PPKAPFHE@NOTCHIEF?$AA@
CONST	SEGMENT DWORD USE32 PUBLIC 'CONST'
CONST	ENDS
;	COMDAT ??_C@_0O@PBOOMHM@ALREADYMEMBER?$AA@
CONST	SEGMENT DWORD USE32 PUBLIC 'CONST'
CONST	ENDS
;	COMDAT ??_C@_09FJKKGCKF@NOTMEMBER?$AA@
CONST	SEGMENT DWORD USE32 PUBLIC 'CONST'
CONST	ENDS
;	COMDAT ??_C@_09DEKMPEHL@HAVEGUILD?$AA@
CONST	SEGMENT DWORD USE32 PUBLIC 'CONST'
CONST	ENDS
;	COMDAT ??_C@_08DJOBNNJD@NOTFOUND?$AA@
CONST	SEGMENT DWORD USE32 PUBLIC 'CONST'
CONST	ENDS
;	COMDAT ??_C@_0O@ODJEFDDJ@ESTABLISH_ERR?$AA@
CONST	SEGMENT DWORD USE32 PUBLIC 'CONST'
CONST	ENDS
;	COMDAT ??_C@_0BE@FBCEBNHN@DISORGANIZATION_ERR?$AA@
CONST	SEGMENT DWORD USE32 PUBLIC 'CONST'
CONST	ENDS
;	COMDAT ??_C@_0L@INCIIFBF@LEAVE_SELF?$AA@
CONST	SEGMENT DWORD USE32 PUBLIC 'CONST'
CONST	ENDS
;	COMDAT ??_C@_0L@CJJMNPJO@LEAVE_KICK?$AA@
CONST	SEGMENT DWORD USE32 PUBLIC 'CONST'
CONST	ENDS
;	COMDAT ??_C@_0BG@MENJOLMJ@LEAVE_DISORGANIZATION?$AA@
CONST	SEGMENT DWORD USE32 PUBLIC 'CONST'
CONST	ENDS
;	COMDAT ??_C@_0N@NKEOKGLA@JOIN_SUCCESS?$AA@
CONST	SEGMENT DWORD USE32 PUBLIC 'CONST'
CONST	ENDS
;	COMDAT ??_C@_09FLDMLBKH@JOIN_DENY?$AA@
CONST	SEGMENT DWORD USE32 PUBLIC 'CONST'
CONST	ENDS
;	COMDAT ??_C@_06NJMFPHHE@NODUTY?$AA@
CONST	SEGMENT DWORD USE32 PUBLIC 'CONST'
CONST	ENDS
;	COMDAT ??_C@_01JOAMLHOP@?9?$AA@
CONST	SEGMENT DWORD USE32 PUBLIC 'CONST'
CONST	ENDS
;	COMDAT ??_C@_09IJOCPMLD@SubMaster?$AA@
CONST	SEGMENT DWORD USE32 PUBLIC 'CONST'
CONST	ENDS
;	COMDAT ??_C@_06INNNFHKM@Master?$AA@
CONST	SEGMENT DWORD USE32 PUBLIC 'CONST'
CONST	ENDS
;	COMDAT ??_C@_04CKKCHGKD@?$LD?$LC?$MA?$NL?$AA@
CONST	SEGMENT DWORD USE32 PUBLIC 'CONST'
CONST	ENDS
;	COMDAT ??_C@_04GKECDDFA@?$MA?Z?$MA?$NL?$AA@
CONST	SEGMENT DWORD USE32 PUBLIC 'CONST'
CONST	ENDS
;	COMDAT ??_C@_04HMBOOGKB@?$LJ?i?$MA?$NL?$AA@
CONST	SEGMENT DWORD USE32 PUBLIC 'CONST'
CONST	ENDS
;	COMDAT ??_C@_04OKPEFIDN@?H?D?$MA?$NL?$AA@
CONST	SEGMENT DWORD USE32 PUBLIC 'CONST'
CONST	ENDS
;	COMDAT ??_C@_04JJKLLECK@?$LA?x?$MA?$NL?$AA@
CONST	SEGMENT DWORD USE32 PUBLIC 'CONST'
CONST	ENDS
;	COMDAT ??_C@_06IKLLLDHL@normal?$AA@
CONST	SEGMENT DWORD USE32 PUBLIC 'CONST'
CONST	ENDS
;	COMDAT ??_C@_05KAEIDCAL@apply?$AA@
CONST	SEGMENT DWORD USE32 PUBLIC 'CONST'
CONST	ENDS
;	COMDAT ??_C@_0BB@KOJLFALB@Cash?$DN?$CFu?5Bonus?$DN?$CFu?$AA@
CONST	SEGMENT DWORD USE32 PUBLIC 'CONST'
CONST	ENDS
;	COMDAT ??_C@_0P@MCDGMPHH@?$CF04d?9?$CF02d?9?$CF02d?$AA@
CONST	SEGMENT DWORD USE32 PUBLIC 'CONST'
CONST	ENDS
;	COMDAT ??_C@_05IKNCGCHC@Party?$AA@
CONST	SEGMENT DWORD USE32 PUBLIC 'CONST'
CONST	ENDS
;	COMDAT ??_C@_06IGOBCGAJ@Single?$AA@
CONST	SEGMENT DWORD USE32 PUBLIC 'CONST'
CONST	ENDS
;	COMDAT ??_C@_0BB@PHMNFLFF@Tournament?5Apply?$AA@
CONST	SEGMENT DWORD USE32 PUBLIC 'CONST'
CONST	ENDS
;	COMDAT ??_C@_0P@PANDFKMA@Tournament?5Win?$AA@
CONST	SEGMENT DWORD USE32 PUBLIC 'CONST'
CONST	ENDS
;	COMDAT ??_C@_09IHNBCNIA@?5?$FLQFINAL?$FN?$AA@
CONST	SEGMENT DWORD USE32 PUBLIC 'CONST'
CONST	ENDS
;	COMDAT ??_C@_09MFPECKPN@?5?$FLSFINAL?$FN?$AA@
CONST	SEGMENT DWORD USE32 PUBLIC 'CONST'
CONST	ENDS
;	COMDAT ??_C@_08CODJBDEI@?5?$FLFINAL?$FN?$AA@
CONST	SEGMENT DWORD USE32 PUBLIC 'CONST'
CONST	ENDS
;	COMDAT ??_C@_0BD@IHLOJELJ@Tournament?5Batting?$AA@
CONST	SEGMENT DWORD USE32 PUBLIC 'CONST'
CONST	ENDS
;	COMDAT ??_C@_0BH@JMOCNDDL@Could?5not?5open?5service?$AA@
CONST	SEGMENT DWORD USE32 PUBLIC 'CONST'
CONST	ENDS
;	COMDAT ??_C@_0BH@GKJBBOLK@Could?5not?5stop?5service?$AA@
CONST	SEGMENT DWORD USE32 PUBLIC 'CONST'
CONST	ENDS
;	COMDAT ??_C@_0BJ@NMBIIKKI@Could?5not?5delete?5service?$AA@
CONST	SEGMENT DWORD USE32 PUBLIC 'CONST'
CONST	ENDS
text$yc	SEGMENT PARA USE32 PUBLIC 'CODE'
text$yc	ENDS
CRT$XCA	SEGMENT DWORD USE32 PUBLIC 'DATA'
CRT$XCA	ENDS
CRT$XCU	SEGMENT DWORD USE32 PUBLIC 'DATA'
CRT$XCU	ENDS
CRT$XCL	SEGMENT DWORD USE32 PUBLIC 'DATA'
CRT$XCL	ENDS
CRT$XCC	SEGMENT DWORD USE32 PUBLIC 'DATA'
CRT$XCC	ENDS
CRT$XCZ	SEGMENT DWORD USE32 PUBLIC 'DATA'
CRT$XCZ	ENDS
text$yd	SEGMENT PARA USE32 PUBLIC 'CODE'
text$yd	ENDS
ATL$__m	SEGMENT DWORD USE32 PUBLIC ''
ATL$__m	ENDS
ATL$__z	SEGMENT DWORD USE32 PUBLIC ''
ATL$__z	ENDS
ATL$__a	SEGMENT DWORD USE32 PUBLIC ''
ATL$__a	ENDS
xdata$x	SEGMENT DWORD USE32 PUBLIC 'CONST'
xdata$x	ENDS
;	COMDAT ?GetServerID@CTMapSvrModule@@QAEEXZ
_TEXT	SEGMENT PARA USE32 PUBLIC 'CODE'
_TEXT	ENDS
;	COMDAT ?GetAppId@CTMapSvrModule@@SAPBGXZ
_TEXT	SEGMENT PARA USE32 PUBLIC 'CODE'
_TEXT	ENDS
;	COMDAT ?GetAppIdT@CTMapSvrModule@@SAPADXZ
_TEXT	SEGMENT PARA USE32 PUBLIC 'CODE'
_TEXT	ENDS
;	COMDAT ?UpdateRegistryAppId@CTMapSvrModule@@SGJH@Z
_TEXT	SEGMENT PARA USE32 PUBLIC 'CODE'
_TEXT	ENDS
;	COMDAT ?RegisterAppId@CTMapSvrModule@@QAEJ_N@Z
_TEXT	SEGMENT PARA USE32 PUBLIC 'CODE'
_TEXT	ENDS
;	COMDAT ?Install@CTMapSvrModule@@QAEHXZ
_TEXT	SEGMENT PARA USE32 PUBLIC 'CODE'
_TEXT	ENDS
;	COMDAT ??0CUdpSocket@@QAE@XZ
_TEXT	SEGMENT PARA USE32 PUBLIC 'CODE'
_TEXT	ENDS
;	COMDAT ??1CUdpSocket@@QAE@XZ
_TEXT	SEGMENT PARA USE32 PUBLIC 'CODE'
_TEXT	ENDS
;	COMDAT ?Initialize@CUdpSocket@@QAEHPADH@Z
_TEXT	SEGMENT PARA USE32 PUBLIC 'CODE'
_TEXT	ENDS
;	COMDAT ?SendToLogPacket@CUdpSocket@@QAEXPAU_UDPPACKET@@@Z
_TEXT	SEGMENT PARA USE32 PUBLIC 'CODE'
_TEXT	ENDS
;	COMDAT ?Log@CUdpSocket@@QAEXPAU_UDPPACKET@@@Z
_TEXT	SEGMENT PARA USE32 PUBLIC 'CODE'
_TEXT	ENDS
;	COMDAT ?SendDMLog@CUdpSocket@@QAEXU_LOG_DATA_@@@Z
_TEXT	SEGMENT PARA USE32 PUBLIC 'CODE'
_TEXT	ENDS
;	COMDAT ?LogMoney@CUdpSocket@@QAEXKPAVCTPlayer@@PAVCTMonster@@_JPAUtagQUESTTEMP@@E@Z
_TEXT	SEGMENT PARA USE32 PUBLIC 'CODE'
_TEXT	ENDS
;	COMDAT ?LogItemByNPC@CUdpSocket@@QAEXKPAVCTPlayer@@PAVCTNpc@@PAVCTItem@@HPAUtagQUESTTEMP@@@Z
_TEXT	SEGMENT PARA USE32 PUBLIC 'CODE'
_TEXT	ENDS
;	COMDAT ?LogItemByMonster@CUdpSocket@@QAEXKPAVCTPlayer@@PAVCTMonster@@PAVCTItem@@_J@Z
_TEXT	SEGMENT PARA USE32 PUBLIC 'CODE'
_TEXT	ENDS
;	COMDAT ?LogItemByMonster@CUdpSocket@@QAEXKPAVCTPlayer@@HPAVCTItem@@@Z
_TEXT	SEGMENT PARA USE32 PUBLIC 'CODE'
_TEXT	ENDS
;	COMDAT ?LogItemUpgrade@CUdpSocket@@QAEXKPAVCTPlayer@@PAVCTItem@@H@Z
_TEXT	SEGMENT PARA USE32 PUBLIC 'CODE'
_TEXT	ENDS
;	COMDAT ?LogItemTrade@CUdpSocket@@QAEXKPAVCTPlayer@@PAVCTItem@@V?$CStringT@DV?$StrTraitATL@DV?$ChTraitsCRT@D@ATL@@@ATL@@@ATL@@@Z
_TEXT	SEGMENT PARA USE32 PUBLIC 'CODE'
_TEXT	ENDS
;	COMDAT ?LogMoneyTrade@CUdpSocket@@QAEXKPAVCTPlayer@@V?$CStringT@DV?$StrTraitATL@DV?$ChTraitsCRT@D@ATL@@@ATL@@@ATL@@_JH@Z
_TEXT	SEGMENT PARA USE32 PUBLIC 'CODE'
_TEXT	ENDS
;	COMDAT ?LogItemByStore@CUdpSocket@@QAEXKPAVCTPlayer@@V?$CStringT@DV?$StrTraitATL@DV?$ChTraitsCRT@D@ATL@@@ATL@@@ATL@@PAVCTItem@@_JE@Z
_TEXT	SEGMENT PARA USE32 PUBLIC 'CODE'
_TEXT	ENDS
;	COMDAT ?LogExpByMonster@CUdpSocket@@QAEXKPAVCTPlayer@@PAVCTMonster@@KE@Z
_TEXT	SEGMENT PARA USE32 PUBLIC 'CODE'
_TEXT	ENDS
;	COMDAT ?LogSkillAct@CUdpSocket@@QAEXKPAVCTPlayer@@PAVCTSkill@@_J@Z
_TEXT	SEGMENT PARA USE32 PUBLIC 'CODE'
_TEXT	ENDS
;	COMDAT ?LogPet@CUdpSocket@@QAEXKPAVCTPlayer@@GV?$CStringT@DV?$StrTraitATL@DV?$ChTraitsCRT@D@ATL@@@ATL@@@ATL@@_J@Z
_TEXT	SEGMENT PARA USE32 PUBLIC 'CODE'
_TEXT	ENDS
;	COMDAT ?LogLevelUp@CUdpSocket@@QAEXKPAVCTPlayer@@E@Z
_TEXT	SEGMENT PARA USE32 PUBLIC 'CODE'
_TEXT	ENDS
;	COMDAT ?LogMonster@CUdpSocket@@QAEXKPAVCTPlayer@@PAVCTMonster@@@Z
_TEXT	SEGMENT PARA USE32 PUBLIC 'CODE'
_TEXT	ENDS
;	COMDAT ?LogUserDie@CUdpSocket@@QAEXKPAVCTPlayer@@E@Z
_TEXT	SEGMENT PARA USE32 PUBLIC 'CODE'
_TEXT	ENDS
;	COMDAT ?LogQuest@CUdpSocket@@QAEXKPAVCTPlayer@@KK@Z
_TEXT	SEGMENT PARA USE32 PUBLIC 'CODE'
_TEXT	ENDS
;	COMDAT ?LogEnterMap@CUdpSocket@@QAEXKPAVCTPlayer@@@Z
_TEXT	SEGMENT PARA USE32 PUBLIC 'CODE'
_TEXT	ENDS
;	COMDAT ?LogLocalOccupy@CUdpSocket@@QAEXKEGEK@Z
_TEXT	SEGMENT PARA USE32 PUBLIC 'CODE'
_TEXT	ENDS
;	COMDAT ?LogLocalEnable@CUdpSocket@@QAEXKGE@Z
_TEXT	SEGMENT PARA USE32 PUBLIC 'CODE'
_TEXT	ENDS
;	COMDAT ?LogCabinet@CUdpSocket@@QAEXKPAVCTPlayer@@EPAVCTItem@@EH@Z
_TEXT	SEGMENT PARA USE32 PUBLIC 'CODE'
_TEXT	ENDS
;	COMDAT ?LogChat@CUdpSocket@@QAEXKPAVCTPlayer@@V?$CStringT@DV?$StrTraitATL@DV?$ChTraitsCRT@D@ATL@@@ATL@@@ATL@@1@Z
_TEXT	SEGMENT PARA USE32 PUBLIC 'CODE'
_TEXT	ENDS
;	COMDAT ?LogGuild@CUdpSocket@@QAEXKPAVCTPlayer@@KV?$CStringT@DV?$StrTraitATL@DV?$ChTraitsCRT@D@ATL@@@ATL@@@ATL@@K1E@Z
_TEXT	SEGMENT PARA USE32 PUBLIC 'CODE'
_TEXT	ENDS
;	COMDAT ?LogGuildDutyPeer@CUdpSocket@@QAEXKPAVCTPlayer@@KV?$CStringT@DV?$StrTraitATL@DV?$ChTraitsCRT@D@ATL@@@ATL@@@ATL@@K1HE@Z
_TEXT	SEGMENT PARA USE32 PUBLIC 'CODE'
_TEXT	ENDS
;	COMDAT ?LogGuildDisorganization@CUdpSocket@@QAEXKPAVCTPlayer@@E@Z
_TEXT	SEGMENT PARA USE32 PUBLIC 'CODE'
_TEXT	ENDS
;	COMDAT ?LogGuildExpMoeny@CUdpSocket@@QAEXKPAVCTPlayer@@HHHHHE@Z
_TEXT	SEGMENT PARA USE32 PUBLIC 'CODE'
_TEXT	ENDS
;	COMDAT ?LogGuildCabinet@CUdpSocket@@QAEXKPAVCTPlayer@@KV?$CStringT@DV?$StrTraitATL@DV?$ChTraitsCRT@D@ATL@@@ATL@@@ATL@@EPAVCTItem@@EK@Z
_TEXT	SEGMENT PARA USE32 PUBLIC 'CODE'
_TEXT	ENDS
;	COMDAT ?LogCashItem@CUdpSocket@@QAEXKPAVCTPlayer@@KV?$CStringT@DV?$StrTraitATL@DV?$ChTraitsCRT@D@ATL@@@ATL@@@ATL@@PAVCTItem@@HHH@Z
_TEXT	SEGMENT PARA USE32 PUBLIC 'CODE'
_TEXT	ENDS
;	COMDAT ?LogCashCabinetBuy@CUdpSocket@@QAEXKPAVCTPlayer@@H_JHHH@Z
_TEXT	SEGMENT PARA USE32 PUBLIC 'CODE'
_TEXT	ENDS
;	COMDAT ?LogTeleport@CUdpSocket@@QAEXKPAVCTPlayer@@PAVCTNpc@@HH@Z
_TEXT	SEGMENT PARA USE32 PUBLIC 'CODE'
_TEXT	ENDS
;	COMDAT ?LogPvPointChar@CUdpSocket@@QAEXKPAVCTPlayer@@KEEV?$CStringT@DV?$StrTraitATL@DV?$ChTraitsCRT@D@ATL@@@ATL@@@ATL@@@Z
_TEXT	SEGMENT PARA USE32 PUBLIC 'CODE'
_TEXT	ENDS
;	COMDAT ?LogPvPointGuild@CUdpSocket@@QAEXKKGEKEE@Z
_TEXT	SEGMENT PARA USE32 PUBLIC 'CODE'
_TEXT	ENDS
;	COMDAT ?LogAuctionReg@CUdpSocket@@QAEXKPAVCTPlayer@@K_J1PAVCTItem@@KV?$CStringT@DV?$StrTraitATL@DV?$ChTraitsCRT@D@ATL@@@ATL@@@ATL@@@Z
_TEXT	SEGMENT PARA USE32 PUBLIC 'CODE'
_TEXT	ENDS
;	COMDAT ?LogAuctionBid@CUdpSocket@@QAEXKPAVCTPlayer@@K_JPAVCTItem@@EKV?$CStringT@DV?$StrTraitATL@DV?$ChTraitsCRT@D@ATL@@@ATL@@@ATL@@@Z
_TEXT	SEGMENT PARA USE32 PUBLIC 'CODE'
_TEXT	ENDS
;	COMDAT ?LogTournamentApply@CUdpSocket@@QAEXKPAVCTPlayer@@V?$CStringT@DV?$StrTraitATL@DV?$ChTraitsCRT@D@ATL@@@ATL@@@ATL@@E1@Z
_TEXT	SEGMENT PARA USE32 PUBLIC 'CODE'
_TEXT	ENDS
;	COMDAT ?LogTournamentWin@CUdpSocket@@QAEXKPAUtagTOURNAMENTPLAYER@@0V?$CStringT@DV?$StrTraitATL@DV?$ChTraitsCRT@D@ATL@@@ATL@@@ATL@@KE@Z
_TEXT	SEGMENT PARA USE32 PUBLIC 'CODE'
_TEXT	ENDS
;	COMDAT ?LogTournamentEvent@CUdpSocket@@QAEXKPAVCTPlayer@@KV?$CStringT@DV?$StrTraitATL@DV?$ChTraitsCRT@D@ATL@@@ATL@@@ATL@@E@Z
_TEXT	SEGMENT PARA USE32 PUBLIC 'CODE'
_TEXT	ENDS
;	COMDAT ?LogRPSGame@CUdpSocket@@QAEXKPAVCTPlayer@@EEK@Z
_TEXT	SEGMENT PARA USE32 PUBLIC 'CODE'
_TEXT	ENDS
;	COMDAT ?LogTactics@CUdpSocket@@QAEXKPAVCTPlayer@@KV?$CStringT@DV?$StrTraitATL@DV?$ChTraitsCRT@D@ATL@@@ATL@@@ATL@@@Z
_TEXT	SEGMENT PARA USE32 PUBLIC 'CODE'
_TEXT	ENDS
;	COMDAT ?LogAidCountry@CUdpSocket@@QAEXKPAVCTPlayer@@EE@Z
_TEXT	SEGMENT PARA USE32 PUBLIC 'CODE'
_TEXT	ENDS
;	COMDAT ?LogCountry@CUdpSocket@@QAEXKPAVCTPlayer@@EE@Z
_TEXT	SEGMENT PARA USE32 PUBLIC 'CODE'
_TEXT	ENDS
;	COMDAT ?LogKickOut@CUdpSocket@@QAEXKPAVCTPlayer@@E@Z
_TEXT	SEGMENT PARA USE32 PUBLIC 'CODE'
_TEXT	ENDS
;	COMDAT ?LogCMGift@CUdpSocket@@QAEXKPAVCTPlayer@@GKEKE@Z
_TEXT	SEGMENT PARA USE32 PUBLIC 'CODE'
_TEXT	ENDS
;	COMDAT ??Y?$CStringT@DV?$StrTraitATL@DV?$ChTraitsCRT@D@ATL@@@ATL@@@ATL@@QAEAAV01@PBD@Z
_TEXT	SEGMENT PARA USE32 PUBLIC 'CODE'
_TEXT	ENDS
;	COMDAT ?Tokenize@?$CStringT@DV?$StrTraitATL@DV?$ChTraitsCRT@D@ATL@@@ATL@@@ATL@@QBE?AV12@PBDAAH@Z
_TEXT	SEGMENT PARA USE32 PUBLIC 'CODE'
_TEXT	ENDS
;	COMDAT ?Format@?$CStringT@DV?$StrTraitATL@DV?$ChTraitsCRT@D@ATL@@@ATL@@@ATL@@QAAXPBDZZ
_TEXT	SEGMENT PARA USE32 PUBLIC 'CODE'
_TEXT	ENDS
;	COMDAT ?begin@?$_Tree@V?$_Tmap_traits@EPAUtagTMAGIC@@U?$less@E@std@@V?$allocator@U?$pair@$$CBEPAUtagTMAGIC@@@std@@@3@$0A@@std@@@std@@QAE?AViterator@12@XZ
_TEXT	SEGMENT PARA USE32 PUBLIC 'CODE'
_TEXT	ENDS
;	COMDAT ?end@?$_Tree@V?$_Tmap_traits@EPAUtagTMAGIC@@U?$less@E@std@@V?$allocator@U?$pair@$$CBEPAUtagTMAGIC@@@std@@@3@$0A@@std@@@std@@QAE?AViterator@12@XZ
_TEXT	SEGMENT PARA USE32 PUBLIC 'CODE'
_TEXT	ENDS
;	COMDAT ?UnregisterAppId@?$CAtlServiceModuleT@VCTMapSvrModule@@$0GE@@ATL@@QAEJXZ
_TEXT	SEGMENT PARA USE32 PUBLIC 'CODE'
_TEXT	ENDS
;	COMDAT ?IsInstalled@?$CAtlServiceModuleT@VCTMapSvrModule@@$0GE@@ATL@@QAEHXZ
_TEXT	SEGMENT PARA USE32 PUBLIC 'CODE'
_TEXT	ENDS
;	COMDAT ?Uninstall@?$CAtlServiceModuleT@VCTMapSvrModule@@$0GE@@ATL@@QAEHXZ
_TEXT	SEGMENT PARA USE32 PUBLIC 'CODE'
_TEXT	ENDS
;	COMDAT ??1?$CAtlExeModuleT@VCTMapSvrModule@@@ATL@@UAE@XZ
_TEXT	SEGMENT PARA USE32 PUBLIC 'CODE'
_TEXT	ENDS
;	COMDAT ?Unlock@?$CAtlExeModuleT@VCTMapSvrModule@@@ATL@@UAEJXZ
_TEXT	SEGMENT PARA USE32 PUBLIC 'CODE'
_TEXT	ENDS
;	COMDAT ?RegisterServer@?$CAtlModuleT@VCTMapSvrModule@@@ATL@@QAEJHPBU_GUID@@@Z
_TEXT	SEGMENT PARA USE32 PUBLIC 'CODE'
_TEXT	ENDS
;	COMDAT ?UnregisterServer@?$CAtlModuleT@VCTMapSvrModule@@@ATL@@QAEJHPBU_GUID@@@Z
_TEXT	SEGMENT PARA USE32 PUBLIC 'CODE'
_TEXT	ENDS
;	COMDAT ?AddCommonRGSReplacements@?$CAtlModuleT@VCTMapSvrModule@@@ATL@@UAEJPAUIRegistrarBase@@@Z
_TEXT	SEGMENT PARA USE32 PUBLIC 'CODE'
_TEXT	ENDS
;	COMDAT ??0iterator@?$_Tree@V?$_Tmap_traits@EPAUtagTMAGIC@@U?$less@E@std@@V?$allocator@U?$pair@$$CBEPAUtagTMAGIC@@@std@@@3@$0A@@std@@@std@@QAE@XZ
_TEXT	SEGMENT PARA USE32 PUBLIC 'CODE'
_TEXT	ENDS
;	COMDAT ??Diterator@?$_Tree@V?$_Tmap_traits@EPAUtagTMAGIC@@U?$less@E@std@@V?$allocator@U?$pair@$$CBEPAUtagTMAGIC@@@std@@@3@$0A@@std@@@std@@QBEAAU?$pair@$$CBEPAUtagTMAGIC@@@2@XZ
_TEXT	SEGMENT PARA USE32 PUBLIC 'CODE'
_TEXT	ENDS
;	COMDAT ??Eiterator@?$_Tree@V?$_Tmap_traits@EPAUtagTMAGIC@@U?$less@E@std@@V?$allocator@U?$pair@$$CBEPAUtagTMAGIC@@@std@@@3@$0A@@std@@@std@@QAE?AV012@H@Z
_TEXT	SEGMENT PARA USE32 PUBLIC 'CODE'
_TEXT	ENDS
;	COMDAT ??9const_iterator@?$_Tree@V?$_Tmap_traits@EPAUtagTMAGIC@@U?$less@E@std@@V?$allocator@U?$pair@$$CBEPAUtagTMAGIC@@@std@@@3@$0A@@std@@@std@@QBE_NABV012@@Z
_TEXT	SEGMENT PARA USE32 PUBLIC 'CODE'
_TEXT	ENDS
;	COMDAT ??_G?$CAtlExeModuleT@VCTMapSvrModule@@@ATL@@UAEPAXI@Z
_TEXT	SEGMENT PARA USE32 PUBLIC 'CODE'
_TEXT	ENDS
;	COMDAT ??1?$CAtlModuleT@VCTMapSvrModule@@@ATL@@UAE@XZ
_TEXT	SEGMENT PARA USE32 PUBLIC 'CODE'
_TEXT	ENDS
;	COMDAT ??0?$CStringT@DV?$StrTraitATL@DV?$ChTraitsCRT@D@ATL@@@ATL@@@ATL@@QAE@PAUIAtlStringMgr@1@@Z
_TEXT	SEGMENT PARA USE32 PUBLIC 'CODE'
_TEXT	ENDS
;	COMDAT ?Mid@?$CStringT@DV?$StrTraitATL@DV?$ChTraitsCRT@D@ATL@@@ATL@@@ATL@@QBE?AV12@HH@Z
_TEXT	SEGMENT PARA USE32 PUBLIC 'CODE'
_TEXT	ENDS
;	COMDAT ?FormatV@?$CStringT@DV?$StrTraitATL@DV?$ChTraitsCRT@D@ATL@@@ATL@@@ATL@@QAEXPBDPAD@Z
_TEXT	SEGMENT PARA USE32 PUBLIC 'CODE'
_TEXT	ENDS
;	COMDAT ??Y?$CSimpleStringT@D$0A@@ATL@@QAEAAV01@PBD@Z
_TEXT	SEGMENT PARA USE32 PUBLIC 'CODE'
_TEXT	ENDS
;	COMDAT ?GetManager@?$CSimpleStringT@D$0A@@ATL@@QBEPAUIAtlStringMgr@2@XZ
_TEXT	SEGMENT PARA USE32 PUBLIC 'CODE'
_TEXT	ENDS
;	COMDAT ?StringSpanIncluding@?$ChTraitsCRT@D@ATL@@SAHPBD0@Z
_TEXT	SEGMENT PARA USE32 PUBLIC 'CODE'
_TEXT	ENDS
;	COMDAT ?StringSpanExcluding@?$ChTraitsCRT@D@ATL@@SAHPBD0@Z
_TEXT	SEGMENT PARA USE32 PUBLIC 'CODE'
_TEXT	ENDS
;	COMDAT ?_Lmost@?$_Tree@V?$_Tmap_traits@EPAUtagTMAGIC@@U?$less@E@std@@V?$allocator@U?$pair@$$CBEPAUtagTMAGIC@@@std@@@3@$0A@@std@@@std@@IAEAAPAU_Node@?$_Tree_nod@V?$_Tmap_traits@EPAUtagTMAGIC@@U?$less@E@std@@V?$allocator@U?$pair@$$CBEPAUtagTMAGIC@@@std@@@3@$0A@@std@@@2@XZ
_TEXT	SEGMENT PARA USE32 PUBLIC 'CODE'
_TEXT	ENDS
;	COMDAT ?UninitializeCom@?$CAtlExeModuleT@VCTMapSvrModule@@@ATL@@SAXXZ
_TEXT	SEGMENT PARA USE32 PUBLIC 'CODE'
_TEXT	ENDS
;	COMDAT ??0iterator@?$_Tree@V?$_Tmap_traits@EPAUtagTMAGIC@@U?$less@E@std@@V?$allocator@U?$pair@$$CBEPAUtagTMAGIC@@@std@@@3@$0A@@std@@@std@@QAE@PAU_Node@?$_Tree_nod@V?$_Tmap_traits@EPAUtagTMAGIC@@U?$less@E@std@@V?$allocator@U?$pair@$$CBEPAUtagTMAGIC@@@std@@@3@$0A@@std@@@2@@Z
_TEXT	SEGMENT PARA USE32 PUBLIC 'CODE'
_TEXT	ENDS
;	COMDAT ??Eiterator@?$_Tree@V?$_Tmap_traits@EPAUtagTMAGIC@@U?$less@E@std@@V?$allocator@U?$pair@$$CBEPAUtagTMAGIC@@@std@@@3@$0A@@std@@@std@@QAEAAV012@XZ
_TEXT	SEGMENT PARA USE32 PUBLIC 'CODE'
_TEXT	ENDS
;	COMDAT ??0const_iterator@?$_Tree@V?$_Tmap_traits@EPAUtagTMAGIC@@U?$less@E@std@@V?$allocator@U?$pair@$$CBEPAUtagTMAGIC@@@std@@@3@$0A@@std@@@std@@QAE@XZ
_TEXT	SEGMENT PARA USE32 PUBLIC 'CODE'
_TEXT	ENDS
;	COMDAT ??Dconst_iterator@?$_Tree@V?$_Tmap_traits@EPAUtagTMAGIC@@U?$less@E@std@@V?$allocator@U?$pair@$$CBEPAUtagTMAGIC@@@std@@@3@$0A@@std@@@std@@QBEABU?$pair@$$CBEPAUtagTMAGIC@@@2@XZ
_TEXT	SEGMENT PARA USE32 PUBLIC 'CODE'
_TEXT	ENDS
;	COMDAT ??8const_iterator@?$_Tree@V?$_Tmap_traits@EPAUtagTMAGIC@@U?$less@E@std@@V?$allocator@U?$pair@$$CBEPAUtagTMAGIC@@@std@@@3@$0A@@std@@@std@@QBE_NABV012@@Z
_TEXT	SEGMENT PARA USE32 PUBLIC 'CODE'
_TEXT	ENDS
;	COMDAT ??0?$CStringT@DV?$StrTraitATL@DV?$ChTraitsCRT@D@ATL@@@ATL@@@ATL@@QAE@PBDHPAUIAtlStringMgr@1@@Z
_TEXT	SEGMENT PARA USE32 PUBLIC 'CODE'
_TEXT	ENDS
;	COMDAT ?Append@?$CSimpleStringT@D$0A@@ATL@@QAEXPBD@Z
_TEXT	SEGMENT PARA USE32 PUBLIC 'CODE'
_TEXT	ENDS
;	COMDAT ?_Left@?$_Tree@V?$_Tmap_traits@EPAUtagTMAGIC@@U?$less@E@std@@V?$allocator@U?$pair@$$CBEPAUtagTMAGIC@@@std@@@3@$0A@@std@@@std@@KAAAPAU_Node@?$_Tree_nod@V?$_Tmap_traits@EPAUtagTMAGIC@@U?$less@E@std@@V?$allocator@U?$pair@$$CBEPAUtagTMAGIC@@@std@@@3@$0A@@std@@@2@PAU342@@Z
_TEXT	SEGMENT PARA USE32 PUBLIC 'CODE'
_TEXT	ENDS
;	COMDAT ?_Myval@?$_Tree@V?$_Tmap_traits@EPAUtagTMAGIC@@U?$less@E@std@@V?$allocator@U?$pair@$$CBEPAUtagTMAGIC@@@std@@@3@$0A@@std@@@std@@KAAAU?$pair@$$CBEPAUtagTMAGIC@@@2@PAU_Node@?$_Tree_nod@V?$_Tmap_traits@EPAUtagTMAGIC@@U?$less@E@std@@V?$allocator@U?$pair@$$CBEPAUtagTMAGIC@@@std@@@3@$0A@@std@@@2@@Z
_TEXT	SEGMENT PARA USE32 PUBLIC 'CODE'
_TEXT	ENDS
;	COMDAT ??0const_iterator@?$_Tree@V?$_Tmap_traits@EPAUtagTMAGIC@@U?$less@E@std@@V?$allocator@U?$pair@$$CBEPAUtagTMAGIC@@@std@@@3@$0A@@std@@@std@@QAE@PAU_Node@?$_Tree_nod@V?$_Tmap_traits@EPAUtagTMAGIC@@U?$less@E@std@@V?$allocator@U?$pair@$$CBEPAUtagTMAGIC@@@std@@@3@$0A@@std@@@2@@Z
_TEXT	SEGMENT PARA USE32 PUBLIC 'CODE'
_TEXT	ENDS
;	COMDAT ??Econst_iterator@?$_Tree@V?$_Tmap_traits@EPAUtagTMAGIC@@U?$less@E@std@@V?$allocator@U?$pair@$$CBEPAUtagTMAGIC@@@std@@@3@$0A@@std@@@std@@QAEAAV012@XZ
_TEXT	SEGMENT PARA USE32 PUBLIC 'CODE'
_TEXT	ENDS
;	COMDAT ??0?$CSimpleStringT@D$0A@@ATL@@QAE@PBDHPAUIAtlStringMgr@1@@Z
_TEXT	SEGMENT PARA USE32 PUBLIC 'CODE'
_TEXT	ENDS
;	COMDAT ?Append@?$CSimpleStringT@D$0A@@ATL@@QAEXPBDH@Z
_TEXT	SEGMENT PARA USE32 PUBLIC 'CODE'
_TEXT	ENDS
;	COMDAT ?_Inc@const_iterator@?$_Tree@V?$_Tmap_traits@EPAUtagTMAGIC@@U?$less@E@std@@V?$allocator@U?$pair@$$CBEPAUtagTMAGIC@@@std@@@3@$0A@@std@@@std@@QAEXXZ
_TEXT	SEGMENT PARA USE32 PUBLIC 'CODE'
_TEXT	ENDS
;	COMDAT ?_Isnil@?$_Tree@V?$_Tmap_traits@EPAUtagTMAGIC@@U?$less@E@std@@V?$allocator@U?$pair@$$CBEPAUtagTMAGIC@@@std@@@3@$0A@@std@@@std@@KAAADPAU_Node@?$_Tree_nod@V?$_Tmap_traits@EPAUtagTMAGIC@@U?$less@E@std@@V?$allocator@U?$pair@$$CBEPAUtagTMAGIC@@@std@@@3@$0A@@std@@@2@@Z
_TEXT	SEGMENT PARA USE32 PUBLIC 'CODE'
_TEXT	ENDS
;	COMDAT ?_Parent@?$_Tree@V?$_Tmap_traits@EPAUtagTMAGIC@@U?$less@E@std@@V?$allocator@U?$pair@$$CBEPAUtagTMAGIC@@@std@@@3@$0A@@std@@@std@@KAAAPAU_Node@?$_Tree_nod@V?$_Tmap_traits@EPAUtagTMAGIC@@U?$less@E@std@@V?$allocator@U?$pair@$$CBEPAUtagTMAGIC@@@std@@@3@$0A@@std@@@2@PAU342@@Z
_TEXT	SEGMENT PARA USE32 PUBLIC 'CODE'
_TEXT	ENDS
;	COMDAT ?_Right@?$_Tree@V?$_Tmap_traits@EPAUtagTMAGIC@@U?$less@E@std@@V?$allocator@U?$pair@$$CBEPAUtagTMAGIC@@@std@@@3@$0A@@std@@@std@@KAAAPAU_Node@?$_Tree_nod@V?$_Tmap_traits@EPAUtagTMAGIC@@U?$less@E@std@@V?$allocator@U?$pair@$$CBEPAUtagTMAGIC@@@std@@@3@$0A@@std@@@2@PAU342@@Z
_TEXT	SEGMENT PARA USE32 PUBLIC 'CODE'
_TEXT	ENDS
;	COMDAT ?_Min@?$_Tree@V?$_Tmap_traits@EPAUtagTMAGIC@@U?$less@E@std@@V?$allocator@U?$pair@$$CBEPAUtagTMAGIC@@@std@@@3@$0A@@std@@@std@@KAPAU_Node@?$_Tree_nod@V?$_Tmap_traits@EPAUtagTMAGIC@@U?$less@E@std@@V?$allocator@U?$pair@$$CBEPAUtagTMAGIC@@@std@@@3@$0A@@std@@@2@PAU342@@Z
_TEXT	SEGMENT PARA USE32 PUBLIC 'CODE'
_TEXT	ENDS
;	COMDAT ?Unlock@?$CComCritSecLock@VCComCriticalSection@ATL@@@ATL@@QAEXXZ
_TEXT	SEGMENT PARA USE32 PUBLIC 'CODE'
_TEXT	ENDS
;	COMDAT ??$_Uninit_fill_n@GIG@std@@YAXPAGIABGAAV?$allocator@G@0@U_Scalar_ptr_iterator_tag@0@@Z
_TEXT	SEGMENT PARA USE32 PUBLIC 'CODE'
_TEXT	ENDS
;	COMDAT ??$_Ptr_cat@UtagTAICONDITION@@@std@@YA?AU_Scalar_ptr_iterator_tag@0@PAPAUtagTAICONDITION@@0@Z
_TEXT	SEGMENT PARA USE32 PUBLIC 'CODE'
_TEXT	ENDS
;	COMDAT ??$_Destroy_range@PAUtagTAICONDITION@@V?$allocator@PAUtagTAICONDITION@@@std@@@std@@YAXPAPAUtagTAICONDITION@@0AAV?$allocator@PAUtagTAICONDITION@@@0@U_Scalar_ptr_iterator_tag@0@@Z
_TEXT	SEGMENT PARA USE32 PUBLIC 'CODE'
_TEXT	ENDS
;	COMDAT ??$_Ptr_cat@UtagTMONITEM@@@std@@YA?AU_Scalar_ptr_iterator_tag@0@PAPAUtagTMONITEM@@0@Z
_TEXT	SEGMENT PARA USE32 PUBLIC 'CODE'
_TEXT	ENDS
;	COMDAT ??$_Destroy_range@PAUtagTMONITEM@@V?$allocator@PAUtagTMONITEM@@@std@@@std@@YAXPAPAUtagTMONITEM@@0AAV?$allocator@PAUtagTMONITEM@@@0@U_Scalar_ptr_iterator_tag@0@@Z
_TEXT	SEGMENT PARA USE32 PUBLIC 'CODE'
_TEXT	ENDS
;	COMDAT ??$_Ptr_cat@UtagTMAPMON@@@std@@YA?AU_Scalar_ptr_iterator_tag@0@PAPAUtagTMAPMON@@0@Z
_TEXT	SEGMENT PARA USE32 PUBLIC 'CODE'
_TEXT	ENDS
;	COMDAT ??$_Destroy_range@PAUtagTMAPMON@@V?$allocator@PAUtagTMAPMON@@@std@@@std@@YAXPAPAUtagTMAPMON@@0AAV?$allocator@PAUtagTMAPMON@@@0@U_Scalar_ptr_iterator_tag@0@@Z
_TEXT	SEGMENT PARA USE32 PUBLIC 'CODE'
_TEXT	ENDS
;	COMDAT ??$_Ptr_cat@UtagPATHPOINT@@@std@@YA?AU_Scalar_ptr_iterator_tag@0@PAPAUtagPATHPOINT@@0@Z
_TEXT	SEGMENT PARA USE32 PUBLIC 'CODE'
_TEXT	ENDS
;	COMDAT ??$_Destroy_range@PAUtagPATHPOINT@@V?$allocator@PAUtagPATHPOINT@@@std@@@std@@YAXPAPAUtagPATHPOINT@@0AAV?$allocator@PAUtagPATHPOINT@@@0@U_Scalar_ptr_iterator_tag@0@@Z
_TEXT	SEGMENT PARA USE32 PUBLIC 'CODE'
_TEXT	ENDS
;	COMDAT ??$_Ptr_cat@UtagQUESTCONDITION@@@std@@YA?AU_Scalar_ptr_iterator_tag@0@PAPAUtagQUESTCONDITION@@0@Z
_TEXT	SEGMENT PARA USE32 PUBLIC 'CODE'
_TEXT	ENDS
;	COMDAT ??$_Destroy_range@PAUtagQUESTCONDITION@@V?$allocator@PAUtagQUESTCONDITION@@@std@@@std@@YAXPAPAUtagQUESTCONDITION@@0AAV?$allocator@PAUtagQUESTCONDITION@@@0@U_Scalar_ptr_iterator_tag@0@@Z
_TEXT	SEGMENT PARA USE32 PUBLIC 'CODE'
_TEXT	ENDS
;	COMDAT ??$_Ptr_cat@UtagQUESTREWARD@@@std@@YA?AU_Scalar_ptr_iterator_tag@0@PAPAUtagQUESTREWARD@@0@Z
_TEXT	SEGMENT PARA USE32 PUBLIC 'CODE'
_TEXT	ENDS
;	COMDAT ??$_Destroy_range@PAUtagQUESTREWARD@@V?$allocator@PAUtagQUESTREWARD@@@std@@@std@@YAXPAPAUtagQUESTREWARD@@0AAV?$allocator@PAUtagQUESTREWARD@@@0@U_Scalar_ptr_iterator_tag@0@@Z
_TEXT	SEGMENT PARA USE32 PUBLIC 'CODE'
_TEXT	ENDS
;	COMDAT ??$_Ptr_cat@UtagQUESTTERM@@@std@@YA?AU_Scalar_ptr_iterator_tag@0@PAPAUtagQUESTTERM@@0@Z
_TEXT	SEGMENT PARA USE32 PUBLIC 'CODE'
_TEXT	ENDS
;	COMDAT ??$_Destroy_range@PAUtagQUESTTERM@@V?$allocator@PAUtagQUESTTERM@@@std@@@std@@YAXPAPAUtagQUESTTERM@@0AAV?$allocator@PAUtagQUESTTERM@@@0@U_Scalar_ptr_iterator_tag@0@@Z
_TEXT	SEGMENT PARA USE32 PUBLIC 'CODE'
_TEXT	ENDS
;	COMDAT ??$_Ptr_cat@PAUtagTCASHITMSALE@@PAU1@@std@@YA?AU_Nonscalar_ptr_iterator_tag@0@AAPAUtagTCASHITMSALE@@0@Z
_TEXT	SEGMENT PARA USE32 PUBLIC 'CODE'
_TEXT	ENDS
;	COMDAT ??$_Uninit_fill_n@PAUtagTCASHITMSALE@@IU1@V?$allocator@UtagTCASHITMSALE@@@std@@@std@@YAXPAUtagTCASHITMSALE@@IABU1@AAV?$allocator@UtagTCASHITMSALE@@@0@U_Nonscalar_ptr_iterator_tag@0@@Z
_TEXT	SEGMENT PARA USE32 PUBLIC 'CODE'
_TEXT	ENDS
;	COMDAT ??$_Ptr_cat@PAUtagMONREGEN@@PAU1@@std@@YA?AU_Nonscalar_ptr_iterator_tag@0@AAPAUtagMONREGEN@@0@Z
_TEXT	SEGMENT PARA USE32 PUBLIC 'CODE'
_TEXT	ENDS
;	COMDAT ??$_Uninit_fill_n@PAUtagMONREGEN@@IU1@V?$allocator@UtagMONREGEN@@@std@@@std@@YAXPAUtagMONREGEN@@IABU1@AAV?$allocator@UtagMONREGEN@@@0@U_Nonscalar_ptr_iterator_tag@0@@Z
_TEXT	SEGMENT PARA USE32 PUBLIC 'CODE'
_TEXT	ENDS
;	COMDAT ??$_Ptr_cat@PAUtagLOTTERY@@PAU1@@std@@YA?AU_Nonscalar_ptr_iterator_tag@0@AAPAUtagLOTTERY@@0@Z
_TEXT	SEGMENT PARA USE32 PUBLIC 'CODE'
_TEXT	ENDS
;	COMDAT ??$_Uninit_fill_n@PAUtagLOTTERY@@IU1@V?$allocator@UtagLOTTERY@@@std@@@std@@YAXPAUtagLOTTERY@@IABU1@AAV?$allocator@UtagLOTTERY@@@0@U_Nonscalar_ptr_iterator_tag@0@@Z
_TEXT	SEGMENT PARA USE32 PUBLIC 'CODE'
_TEXT	ENDS
;	COMDAT ??$_Destroy_range@GV?$allocator@G@std@@@std@@YAXPAG0AAV?$allocator@G@0@U_Scalar_ptr_iterator_tag@0@@Z
_TEXT	SEGMENT PARA USE32 PUBLIC 'CODE'
_TEXT	ENDS
;	COMDAT ??$_Uninitialized_copy@PAGPAGV?$allocator@G@std@@@std@@YAPAGPAG00AAV?$allocator@G@0@@Z
_TEXT	SEGMENT PARA USE32 PUBLIC 'CODE'
_TEXT	ENDS
;	COMDAT ??$_Copy_backward_opt@PAGPAG@std@@YAPAGPAG00U_Scalar_ptr_iterator_tag@0@@Z
_TEXT	SEGMENT PARA USE32 PUBLIC 'CODE'
_TEXT	ENDS
;	COMDAT ??$_Ptr_cat@VCTPlayer@@@std@@YA?AU_Scalar_ptr_iterator_tag@0@PAPAVCTPlayer@@0@Z
_TEXT	SEGMENT PARA USE32 PUBLIC 'CODE'
_TEXT	ENDS
;	COMDAT ??$_Destroy_range@PAVCTPlayer@@V?$allocator@PAVCTPlayer@@@std@@@std@@YAXPAPAVCTPlayer@@0AAV?$allocator@PAVCTPlayer@@@0@U_Scalar_ptr_iterator_tag@0@@Z
_TEXT	SEGMENT PARA USE32 PUBLIC 'CODE'
_TEXT	ENDS
;	COMDAT ??$_Destroy_range@UtagTCASHITMSALE@@V?$allocator@UtagTCASHITMSALE@@@std@@@std@@YAXPAUtagTCASHITMSALE@@0AAV?$allocator@UtagTCASHITMSALE@@@0@U_Nonscalar_ptr_iterator_tag@0@@Z
_TEXT	SEGMENT PARA USE32 PUBLIC 'CODE'
_TEXT	ENDS
;	COMDAT ??$_Uninitialized_copy@PAUtagTCASHITMSALE@@PAU1@V?$allocator@UtagTCASHITMSALE@@@std@@@std@@YAPAUtagTCASHITMSALE@@PAU1@00AAV?$allocator@UtagTCASHITMSALE@@@0@@Z
_TEXT	SEGMENT PARA USE32 PUBLIC 'CODE'
_TEXT	ENDS
;	COMDAT ??$_Copy_backward_opt@PAUtagTCASHITMSALE@@PAU1@@std@@YAPAUtagTCASHITMSALE@@PAU1@00U_Nonscalar_ptr_iterator_tag@0@@Z
_TEXT	SEGMENT PARA USE32 PUBLIC 'CODE'
_TEXT	ENDS
;	COMDAT ??$_Destroy_range@UtagMONREGEN@@V?$allocator@UtagMONREGEN@@@std@@@std@@YAXPAUtagMONREGEN@@0AAV?$allocator@UtagMONREGEN@@@0@U_Nonscalar_ptr_iterator_tag@0@@Z
_TEXT	SEGMENT PARA USE32 PUBLIC 'CODE'
_TEXT	ENDS
;	COMDAT ??$_Uninitialized_copy@PAUtagMONREGEN@@PAU1@V?$allocator@UtagMONREGEN@@@std@@@std@@YAPAUtagMONREGEN@@PAU1@00AAV?$allocator@UtagMONREGEN@@@0@@Z
_TEXT	SEGMENT PARA USE32 PUBLIC 'CODE'
_TEXT	ENDS
;	COMDAT ??$_Copy_backward_opt@PAUtagMONREGEN@@PAU1@@std@@YAPAUtagMONREGEN@@PAU1@00U_Nonscalar_ptr_iterator_tag@0@@Z
_TEXT	SEGMENT PARA USE32 PUBLIC 'CODE'
_TEXT	ENDS
;	COMDAT ??$_Destroy_range@UtagLOTTERY@@V?$allocator@UtagLOTTERY@@@std@@@std@@YAXPAUtagLOTTERY@@0AAV?$allocator@UtagLOTTERY@@@0@U_Nonscalar_ptr_iterator_tag@0@@Z
_TEXT	SEGMENT PARA USE32 PUBLIC 'CODE'
_TEXT	ENDS
;	COMDAT ??$_Uninitialized_copy@PAUtagLOTTERY@@PAU1@V?$allocator@UtagLOTTERY@@@std@@@std@@YAPAUtagLOTTERY@@PAU1@00AAV?$allocator@UtagLOTTERY@@@0@@Z
_TEXT	SEGMENT PARA USE32 PUBLIC 'CODE'
_TEXT	ENDS
;	COMDAT ??$_Copy_backward_opt@PAUtagLOTTERY@@PAU1@@std@@YAPAUtagLOTTERY@@PAU1@00U_Nonscalar_ptr_iterator_tag@0@@Z
_TEXT	SEGMENT PARA USE32 PUBLIC 'CODE'
_TEXT	ENDS
;	COMDAT ?construct@?$allocator@UtagTCASHITMSALE@@@std@@QAEXPAUtagTCASHITMSALE@@ABU3@@Z
_TEXT	SEGMENT PARA USE32 PUBLIC 'CODE'
_TEXT	ENDS
;	COMDAT ?destroy@?$allocator@UtagTCASHITMSALE@@@std@@QAEXPAUtagTCASHITMSALE@@@Z
_TEXT	SEGMENT PARA USE32 PUBLIC 'CODE'
_TEXT	ENDS
;	COMDAT ?construct@?$allocator@UtagMONREGEN@@@std@@QAEXPAUtagMONREGEN@@ABU3@@Z
_TEXT	SEGMENT PARA USE32 PUBLIC 'CODE'
_TEXT	ENDS
;	COMDAT ?destroy@?$allocator@UtagMONREGEN@@@std@@QAEXPAUtagMONREGEN@@@Z
_TEXT	SEGMENT PARA USE32 PUBLIC 'CODE'
_TEXT	ENDS
;	COMDAT ?construct@?$allocator@UtagLOTTERY@@@std@@QAEXPAUtagLOTTERY@@ABU3@@Z
_TEXT	SEGMENT PARA USE32 PUBLIC 'CODE'
_TEXT	ENDS
;	COMDAT ?destroy@?$allocator@UtagLOTTERY@@@std@@QAEXPAUtagLOTTERY@@@Z
_TEXT	SEGMENT PARA USE32 PUBLIC 'CODE'
_TEXT	ENDS
;	COMDAT ??$fill_n@PAGIG@std@@YAXPAGIABG@Z
_TEXT	SEGMENT PARA USE32 PUBLIC 'CODE'
_TEXT	ENDS
;	COMDAT ??$_Uninit_copy@GG@std@@YAPAGPAG00AAV?$allocator@G@0@U_Scalar_ptr_iterator_tag@0@@Z
_TEXT	SEGMENT PARA USE32 PUBLIC 'CODE'
_TEXT	ENDS
;	COMDAT ??$_Uninit_copy@PAUtagTCASHITMSALE@@PAU1@V?$allocator@UtagTCASHITMSALE@@@std@@@std@@YAPAUtagTCASHITMSALE@@PAU1@00AAV?$allocator@UtagTCASHITMSALE@@@0@U_Nonscalar_ptr_iterator_tag@0@@Z
_TEXT	SEGMENT PARA USE32 PUBLIC 'CODE'
_TEXT	ENDS
;	COMDAT ??$_Uninit_copy@PAUtagMONREGEN@@PAU1@V?$allocator@UtagMONREGEN@@@std@@@std@@YAPAUtagMONREGEN@@PAU1@00AAV?$allocator@UtagMONREGEN@@@0@U_Nonscalar_ptr_iterator_tag@0@@Z
_TEXT	SEGMENT PARA USE32 PUBLIC 'CODE'
_TEXT	ENDS
;	COMDAT ??$_Uninit_copy@PAUtagLOTTERY@@PAU1@V?$allocator@UtagLOTTERY@@@std@@@std@@YAPAUtagLOTTERY@@PAU1@00AAV?$allocator@UtagLOTTERY@@@0@U_Nonscalar_ptr_iterator_tag@0@@Z
_TEXT	SEGMENT PARA USE32 PUBLIC 'CODE'
_TEXT	ENDS
;	COMDAT ??$_Construct@UtagTCASHITMSALE@@U1@@std@@YAXPAUtagTCASHITMSALE@@ABU1@@Z
_TEXT	SEGMENT PARA USE32 PUBLIC 'CODE'
_TEXT	ENDS
;	COMDAT ??$_Destroy@UtagTCASHITMSALE@@@std@@YAXPAUtagTCASHITMSALE@@@Z
_TEXT	SEGMENT PARA USE32 PUBLIC 'CODE'
_TEXT	ENDS
;	COMDAT ??$_Construct@UtagMONREGEN@@U1@@std@@YAXPAUtagMONREGEN@@ABU1@@Z
_TEXT	SEGMENT PARA USE32 PUBLIC 'CODE'
_TEXT	ENDS
;	COMDAT ??$_Destroy@UtagMONREGEN@@@std@@YAXPAUtagMONREGEN@@@Z
_TEXT	SEGMENT PARA USE32 PUBLIC 'CODE'
_TEXT	ENDS
;	COMDAT ??$_Construct@UtagLOTTERY@@U1@@std@@YAXPAUtagLOTTERY@@ABU1@@Z
_TEXT	SEGMENT PARA USE32 PUBLIC 'CODE'
_TEXT	ENDS
;	COMDAT ??$_Destroy@UtagLOTTERY@@@std@@YAXPAUtagLOTTERY@@@Z
_TEXT	SEGMENT PARA USE32 PUBLIC 'CODE'
_TEXT	ENDS
;	COMDAT ?GetGITPtr@CAtlModule@ATL@@UAEJPAPAUIGlobalInterfaceTable@@@Z
_TEXT	SEGMENT PARA USE32 PUBLIC 'CODE'
_TEXT	ENDS
;	COMDAT __GUID_00000146_0000_0000_c000_000000000046
CONST	SEGMENT DWORD USE32 PUBLIC 'CONST'
CONST	ENDS
;	COMDAT _CLSID_StdGlobalInterfaceTable
CONST	SEGMENT DWORD USE32 PUBLIC 'CONST'
CONST	ENDS
;	COMDAT ?GetLockCount@CAtlModule@ATL@@UAEJXZ
_TEXT	SEGMENT PARA USE32 PUBLIC 'CODE'
_TEXT	ENDS
;	COMDAT ?Lock@CAtlModule@ATL@@UAEJXZ
_TEXT	SEGMENT PARA USE32 PUBLIC 'CODE'
_TEXT	ENDS
;	COMDAT ?Increment@CComMultiThreadModel@ATL@@SGKPAJ@Z
_TEXT	SEGMENT PARA USE32 PUBLIC 'CODE'
_TEXT	ENDS
;	COMDAT ??2@YAPAXIPAX@Z
_TEXT	SEGMENT PARA USE32 PUBLIC 'CODE'
_TEXT	ENDS
;	COMDAT ?_Ptr_cat@std@@YA?AU_Scalar_ptr_iterator_tag@1@PAG0@Z
_TEXT	SEGMENT PARA USE32 PUBLIC 'CODE'
_TEXT	ENDS
;	COMDAT ?_Psave@?$_Facetptr@V?$ctype@G@std@@@std@@2PBVfacet@locale@2@B
_DATA	SEGMENT DWORD USE32 PUBLIC 'DATA'
_DATA	ENDS
;	COMDAT ?_Psave@?$_Facetptr@V?$ctype@D@std@@@std@@2PBVfacet@locale@2@B
_DATA	SEGMENT DWORD USE32 PUBLIC 'DATA'
_DATA	ENDS
;	COMDAT ?Unlock@CComCriticalSection@ATL@@QAEJXZ
_TEXT	SEGMENT PARA USE32 PUBLIC 'CODE'
_TEXT	ENDS
;	COMDAT ?CopyChars@?$CSimpleStringT@D$0A@@ATL@@SAXPADPBDH@Z
_TEXT	SEGMENT PARA USE32 PUBLIC 'CODE'
_TEXT	ENDS
;	COMDAT ?SetLength@?$CSimpleStringT@D$0A@@ATL@@AAEXH@Z
_TEXT	SEGMENT PARA USE32 PUBLIC 'CODE'
_TEXT	ENDS
;	COMDAT ?Attach@?$CSimpleStringT@D$0A@@ATL@@AAEXPAUCStringData@2@@Z
_TEXT	SEGMENT PARA USE32 PUBLIC 'CODE'
_TEXT	ENDS
;	COMDAT ?data@CStringData@ATL@@QAEPAXXZ
_TEXT	SEGMENT PARA USE32 PUBLIC 'CODE'
_TEXT	ENDS
;	COMDAT ?ThrowMemoryException@?$CSimpleStringT@D$0A@@ATL@@KAXXZ
_TEXT	SEGMENT PARA USE32 PUBLIC 'CODE'
_TEXT	ENDS
;	COMDAT ?StringLength@?$CSimpleStringT@D$0A@@ATL@@SAHPBD@Z
_TEXT	SEGMENT PARA USE32 PUBLIC 'CODE'
_TEXT	ENDS
;	COMDAT ?GetData@?$CSimpleStringT@D$0A@@ATL@@ABEPAUCStringData@2@XZ
_TEXT	SEGMENT PARA USE32 PUBLIC 'CODE'
_TEXT	ENDS
;	COMDAT ?ReleaseBufferSetLength@?$CSimpleStringT@D$0A@@ATL@@QAEXH@Z
_TEXT	SEGMENT PARA USE32 PUBLIC 'CODE'
_TEXT	ENDS
;	COMDAT ?Format@?$ChTraitsCRT@D@ATL@@SAHPADPBD0@Z
_TEXT	SEGMENT PARA USE32 PUBLIC 'CODE'
_TEXT	ENDS
;	COMDAT ?GetBuffer@?$CSimpleStringT@D$0A@@ATL@@QAEPADH@Z
_TEXT	SEGMENT PARA USE32 PUBLIC 'CODE'
_TEXT	ENDS
;	COMDAT ?PrepareWrite@?$CSimpleStringT@D$0A@@ATL@@AAEPADH@Z
_TEXT	SEGMENT PARA USE32 PUBLIC 'CODE'
_TEXT	ENDS
;	COMDAT ?PrepareWrite2@?$CSimpleStringT@D$0A@@ATL@@AAEXH@Z
_TEXT	SEGMENT PARA USE32 PUBLIC 'CODE'
_TEXT	ENDS
;	COMDAT ?IsShared@CStringData@ATL@@QBE_NXZ
_TEXT	SEGMENT PARA USE32 PUBLIC 'CODE'
_TEXT	ENDS
;	COMDAT ?Fork@?$CSimpleStringT@D$0A@@ATL@@AAEXH@Z
_TEXT	SEGMENT PARA USE32 PUBLIC 'CODE'
_TEXT	ENDS
;	COMDAT ?Release@CStringData@ATL@@QAEXXZ
_TEXT	SEGMENT PARA USE32 PUBLIC 'CODE'
_TEXT	ENDS
;	COMDAT ?Reallocate@?$CSimpleStringT@D$0A@@ATL@@AAEXH@Z
_TEXT	SEGMENT PARA USE32 PUBLIC 'CODE'
_TEXT	ENDS
;	COMDAT ?GetFormattedLength@?$ChTraitsCRT@D@ATL@@SAHPBDPAD@Z
_TEXT	SEGMENT PARA USE32 PUBLIC 'CODE'
_TEXT	ENDS
;	COMDAT ??1?$CSimpleStringT@D$0A@@ATL@@QAE@XZ
_TEXT	SEGMENT PARA USE32 PUBLIC 'CODE'
_TEXT	ENDS
;	COMDAT ??0?$CSimpleStringT@D$0A@@ATL@@QAE@PAUIAtlStringMgr@1@@Z
_TEXT	SEGMENT PARA USE32 PUBLIC 'CODE'
_TEXT	ENDS
;	COMDAT ??1CAtlModule@ATL@@UAE@XZ
_TEXT	SEGMENT PARA USE32 PUBLIC 'CODE'
_TEXT	ENDS
;	COMDAT ?_pPerfUnRegFunc@ATL@@3P6AJXZA
_DATA	SEGMENT DWORD USE32 PUBLIC 'DATA'
_DATA	ENDS
;	COMDAT ?_pPerfRegFunc@ATL@@3P6AJPAUHINSTANCE__@@@ZA
_DATA	SEGMENT DWORD USE32 PUBLIC 'DATA'
_DATA	ENDS
;	COMDAT ?Decrement@CComMultiThreadModel@ATL@@SGKPAJ@Z
_TEXT	SEGMENT PARA USE32 PUBLIC 'CODE'
_TEXT	ENDS
;	COMDAT ?Term@CAtlModule@ATL@@QAEXXZ
_TEXT	SEGMENT PARA USE32 PUBLIC 'CODE'
_TEXT	ENDS
;	COMDAT ?AtlCallTermFunc@ATL@@YGXPAU_ATL_MODULE70@1@@Z
_TEXT	SEGMENT PARA USE32 PUBLIC 'CODE'
_TEXT	ENDS
;	COMDAT ?_AtlRaiseException@ATL@@YAXKK@Z
_TEXT	SEGMENT PARA USE32 PUBLIC 'CODE'
_TEXT	ENDS
;	COMDAT ?Term@CComCriticalSection@ATL@@QAEJXZ
_TEXT	SEGMENT PARA USE32 PUBLIC 'CODE'
_TEXT	ENDS
;	COMDAT ?Unlock@CAtlModule@ATL@@UAEJXZ
_TEXT	SEGMENT PARA USE32 PUBLIC 'CODE'
_TEXT	ENDS
;	COMDAT ?GetString@?$CSimpleStringT@D$0A@@ATL@@QBEPBDXZ
_TEXT	SEGMENT PARA USE32 PUBLIC 'CODE'
_TEXT	ENDS
;	COMDAT ??0?$CStringT@DV?$StrTraitATL@DV?$ChTraitsCRT@D@ATL@@@ATL@@@ATL@@QAE@ABV01@@Z
_TEXT	SEGMENT PARA USE32 PUBLIC 'CODE'
_TEXT	ENDS
;	COMDAT ??0?$CSimpleStringT@D$0A@@ATL@@QAE@ABV01@@Z
_TEXT	SEGMENT PARA USE32 PUBLIC 'CODE'
_TEXT	ENDS
;	COMDAT ?CloneData@?$CSimpleStringT@D$0A@@ATL@@CAPAUCStringData@2@PAU32@@Z
_TEXT	SEGMENT PARA USE32 PUBLIC 'CODE'
_TEXT	ENDS
;	COMDAT ?IsLocked@CStringData@ATL@@QBE_NXZ
_TEXT	SEGMENT PARA USE32 PUBLIC 'CODE'
_TEXT	ENDS
;	COMDAT ?AddRef@CStringData@ATL@@QAEXXZ
_TEXT	SEGMENT PARA USE32 PUBLIC 'CODE'
_TEXT	ENDS
;	COMDAT ?AtlThrow@ATL@@YGXJ@Z
_TEXT	SEGMENT PARA USE32 PUBLIC 'CODE'
_TEXT	ENDS
;	COMDAT ??0CAtlException@ATL@@QAE@J@Z
_TEXT	SEGMENT PARA USE32 PUBLIC 'CODE'
_TEXT	ENDS
;	COMDAT __TI1?AVCAtlException@ATL@@
xdata$x	SEGMENT DWORD USE32 PUBLIC 'CONST'
xdata$x	ENDS
;	COMDAT __CTA1?AVCAtlException@ATL@@
xdata$x	SEGMENT DWORD USE32 PUBLIC 'CONST'
xdata$x	ENDS
;	COMDAT __CT??_R0?AVCAtlException@ATL@@@84
xdata$x	SEGMENT DWORD USE32 PUBLIC 'CONST'
xdata$x	ENDS
;	COMDAT ??_R0?AVCAtlException@ATL@@@8
_DATA	SEGMENT DWORD USE32 PUBLIC 'DATA'
_DATA	ENDS
;	COMDAT ?__TIMETODB@@YAX_JAAUtagTIMESTAMP_STRUCT@@@Z
_TEXT	SEGMENT PARA USE32 PUBLIC 'CODE'
_TEXT	ENDS
;	COMDAT ??0CTime@ATL@@QAE@_J@Z
_TEXT	SEGMENT PARA USE32 PUBLIC 'CODE'
_TEXT	ENDS
;	COMDAT ?GetYear@CTime@ATL@@QBEHXZ
_TEXT	SEGMENT PARA USE32 PUBLIC 'CODE'
_TEXT	ENDS
;	COMDAT ?GetLocalTm@CTime@ATL@@QBEPAUtm@@PAU3@@Z
_TEXT	SEGMENT PARA USE32 PUBLIC 'CODE'
_TEXT	ENDS
;	COMDAT ?GetMonth@CTime@ATL@@QBEHXZ
_TEXT	SEGMENT PARA USE32 PUBLIC 'CODE'
_TEXT	ENDS
;	COMDAT ?GetDay@CTime@ATL@@QBEHXZ
_TEXT	SEGMENT PARA USE32 PUBLIC 'CODE'
_TEXT	ENDS
;	COMDAT ?GetHour@CTime@ATL@@QBEHXZ
_TEXT	SEGMENT PARA USE32 PUBLIC 'CODE'
_TEXT	ENDS
;	COMDAT ?GetMinute@CTime@ATL@@QBEHXZ
_TEXT	SEGMENT PARA USE32 PUBLIC 'CODE'
_TEXT	ENDS
;	COMDAT ?GetSecond@CTime@ATL@@QBEHXZ
_TEXT	SEGMENT PARA USE32 PUBLIC 'CODE'
_TEXT	ENDS
;	COMDAT ?GetLength@?$CSimpleStringT@D$0A@@ATL@@QBEHXZ
_TEXT	SEGMENT PARA USE32 PUBLIC 'CODE'
_TEXT	ENDS
;	COMDAT ?GetTickCount@CTime@ATL@@SG?AV12@XZ
_TEXT	SEGMENT PARA USE32 PUBLIC 'CODE'
_TEXT	ENDS
;	COMDAT ?CLOSESOCKET@CUdpSocket@@AAEXAAI@Z
_TEXT	SEGMENT PARA USE32 PUBLIC 'CODE'
_TEXT	ENDS
;	COMDAT ?AtlLoadString@ATL@@YAHIPADH@Z
_TEXT	SEGMENT PARA USE32 PUBLIC 'CODE'
_TEXT	ENDS
;	COMDAT ??0?$CStringT@DV?$StrTraitATL@DV?$ChTraitsCRT@D@ATL@@@ATL@@@ATL@@QAE@XZ
_TEXT	SEGMENT PARA USE32 PUBLIC 'CODE'
_TEXT	ENDS
;	COMDAT ?GetDefaultManager@?$StrTraitATL@DV?$ChTraitsCRT@D@ATL@@@ATL@@SAPAUIAtlStringMgr@2@XZ
_TEXT	SEGMENT PARA USE32 PUBLIC 'CODE'
_TEXT	ENDS
;	COMDAT ??B?$CSimpleStringT@D$0A@@ATL@@QBEPBDXZ
_TEXT	SEGMENT PARA USE32 PUBLIC 'CODE'
_TEXT	ENDS
;	COMDAT ??4?$CStringT@DV?$StrTraitATL@DV?$ChTraitsCRT@D@ATL@@@ATL@@@ATL@@QAEAAV01@ABV01@@Z
_TEXT	SEGMENT PARA USE32 PUBLIC 'CODE'
_TEXT	ENDS
;	COMDAT ??4?$CSimpleStringT@D$0A@@ATL@@QAEAAV01@ABV01@@Z
_TEXT	SEGMENT PARA USE32 PUBLIC 'CODE'
_TEXT	ENDS
;	COMDAT ?SetString@?$CSimpleStringT@D$0A@@ATL@@QAEXPBDH@Z
_TEXT	SEGMENT PARA USE32 PUBLIC 'CODE'
_TEXT	ENDS
;	COMDAT ?Empty@?$CSimpleStringT@D$0A@@ATL@@QAEXXZ
_TEXT	SEGMENT PARA USE32 PUBLIC 'CODE'
_TEXT	ENDS
;	COMDAT ?CopyCharsOverlapped@?$CSimpleStringT@D$0A@@ATL@@SAXPADPBDH@Z
_TEXT	SEGMENT PARA USE32 PUBLIC 'CODE'
_TEXT	ENDS
;	COMDAT ??1?$CStringT@DV?$StrTraitATL@DV?$ChTraitsCRT@D@ATL@@@ATL@@@ATL@@QAE@XZ
_TEXT	SEGMENT PARA USE32 PUBLIC 'CODE'
_TEXT	ENDS
;	COMDAT ??0?$CStringT@DV?$StrTraitATL@DV?$ChTraitsCRT@D@ATL@@@ATL@@@ATL@@QAE@PBD@Z
_TEXT	SEGMENT PARA USE32 PUBLIC 'CODE'
_TEXT	ENDS
;	COMDAT ?CheckImplicitLoad@?$CStringT@DV?$StrTraitATL@DV?$ChTraitsCRT@D@ATL@@@ATL@@@ATL@@AAE_NPBX@Z
_TEXT	SEGMENT PARA USE32 PUBLIC 'CODE'
_TEXT	ENDS
;	COMDAT ?LoadStringA@?$CStringT@DV?$StrTraitATL@DV?$ChTraitsCRT@D@ATL@@@ATL@@@ATL@@QAEHI@Z
_TEXT	SEGMENT PARA USE32 PUBLIC 'CODE'
_TEXT	ENDS
;	COMDAT ?FindStringResourceInstance@?$StrTraitATL@DV?$ChTraitsCRT@D@ATL@@@ATL@@SAPAUHINSTANCE__@@I@Z
_TEXT	SEGMENT PARA USE32 PUBLIC 'CODE'
_TEXT	ENDS
;	COMDAT ?AtlFindStringResourceInstance@ATL@@YAPAUHINSTANCE__@@IG@Z
_TEXT	SEGMENT PARA USE32 PUBLIC 'CODE'
_TEXT	ENDS
;	COMDAT ?AtlGetStringResourceImage@ATL@@YAPBUATLSTRINGRESOURCEIMAGE@1@PAUHINSTANCE__@@IG@Z
_TEXT	SEGMENT PARA USE32 PUBLIC 'CODE'
_TEXT	ENDS
;	COMDAT ?_AtlGetStringResourceImage@ATL@@YAPBUATLSTRINGRESOURCEIMAGE@1@PAUHINSTANCE__@@PAUHRSRC__@@I@Z
_TEXT	SEGMENT PARA USE32 PUBLIC 'CODE'
_TEXT	ENDS
;	COMDAT ?LoadStringA@?$CStringT@DV?$StrTraitATL@DV?$ChTraitsCRT@D@ATL@@@ATL@@@ATL@@QAEHPAUHINSTANCE__@@I@Z
_TEXT	SEGMENT PARA USE32 PUBLIC 'CODE'
_TEXT	ENDS
;	COMDAT ?AtlGetStringResourceImage@ATL@@YAPBUATLSTRINGRESOURCEIMAGE@1@PAUHINSTANCE__@@I@Z
_TEXT	SEGMENT PARA USE32 PUBLIC 'CODE'
_TEXT	ENDS
;	COMDAT ?GetBaseTypeLength@?$ChTraitsCRT@D@ATL@@SAHPBGH@Z
_TEXT	SEGMENT PARA USE32 PUBLIC 'CODE'
_TEXT	ENDS
;	COMDAT ?_AtlGetConversionACP@ATL@@YGIXZ
_TEXT	SEGMENT PARA USE32 PUBLIC 'CODE'
_TEXT	ENDS
;	COMDAT ?g_pfnGetThreadACP@ATL@@3P6GIXZA
_DATA	SEGMENT DWORD USE32 PUBLIC 'DATA'
_DATA	ENDS
;	COMDAT ?_AtlGetThreadACPThunk@ATL@@YGIXZ
_TEXT	SEGMENT PARA USE32 PUBLIC 'CODE'
_TEXT	ENDS
;	COMDAT ?_AtlGetThreadACPReal@ATL@@YGIXZ
_TEXT	SEGMENT PARA USE32 PUBLIC 'CODE'
_TEXT	ENDS
;	COMDAT ?_AtlGetThreadACPFake@ATL@@YGIXZ
_TEXT	SEGMENT PARA USE32 PUBLIC 'CODE'
_TEXT	ENDS
;	COMDAT ?InterlockedExchangePointer@@YGPAXPAPAXPAX@Z
_TEXT	SEGMENT PARA USE32 PUBLIC 'CODE'
_TEXT	ENDS
;	COMDAT ?ConvertToBaseType@?$ChTraitsCRT@D@ATL@@SAXPADHPBGH@Z
_TEXT	SEGMENT PARA USE32 PUBLIC 'CODE'
_TEXT	ENDS
;	COMDAT ??4?$CStringT@DV?$StrTraitATL@DV?$ChTraitsCRT@D@ATL@@@ATL@@@ATL@@QAEAAV01@PBD@Z
_TEXT	SEGMENT PARA USE32 PUBLIC 'CODE'
_TEXT	ENDS
;	COMDAT ??4?$CSimpleStringT@D$0A@@ATL@@QAEAAV01@PBD@Z
_TEXT	SEGMENT PARA USE32 PUBLIC 'CODE'
_TEXT	ENDS
;	COMDAT ?SetString@?$CSimpleStringT@D$0A@@ATL@@QAEXPBD@Z
_TEXT	SEGMENT PARA USE32 PUBLIC 'CODE'
_TEXT	ENDS
;	COMDAT ?WordCmpI@CAtlModule@ATL@@SAHPBD0@Z
_TEXT	SEGMENT PARA USE32 PUBLIC 'CODE'
_TEXT	ENDS
;	COMDAT ?FindOneOf@CAtlModule@ATL@@SAPBDPBD0@Z
_TEXT	SEGMENT PARA USE32 PUBLIC 'CODE'
_TEXT	ENDS
;	COMDAT ?SetStringValue@CRegKey@ATL@@QAEJPBD0K@Z
_TEXT	SEGMENT PARA USE32 PUBLIC 'CODE'
_TEXT	ENDS
;	COMDAT ?DeleteValue@CRegKey@ATL@@QAEJPBD@Z
_TEXT	SEGMENT PARA USE32 PUBLIC 'CODE'
_TEXT	ENDS
;	COMDAT ??BCRegKey@ATL@@QBEPAUHKEY__@@XZ
_TEXT	SEGMENT PARA USE32 PUBLIC 'CODE'
_TEXT	ENDS
;	COMDAT ?Create@CRegKey@ATL@@QAEJPAUHKEY__@@PBDPADKKPAU_SECURITY_ATTRIBUTES@@PAK@Z
_TEXT	SEGMENT PARA USE32 PUBLIC 'CODE'
_TEXT	ENDS
;	COMDAT ?Close@CRegKey@ATL@@QAEJXZ
_TEXT	SEGMENT PARA USE32 PUBLIC 'CODE'
_TEXT	ENDS
;	COMDAT ?AtlHresultFromWin32@ATL@@YAJK@Z
_TEXT	SEGMENT PARA USE32 PUBLIC 'CODE'
_TEXT	ENDS
;	COMDAT ??_C@_05PDIKPLII@AppID?$AA@
CONST	SEGMENT DWORD USE32 PUBLIC 'CONST'
CONST	ENDS
;	COMDAT ?Open@CRegKey@ATL@@QAEJPAUHKEY__@@PBDK@Z
_TEXT	SEGMENT PARA USE32 PUBLIC 'CODE'
_TEXT	ENDS
;	COMDAT ??1CRegKey@ATL@@QAE@XZ
_TEXT	SEGMENT PARA USE32 PUBLIC 'CODE'
_TEXT	ENDS
;	COMDAT ??0CRegKey@ATL@@QAE@XZ
_TEXT	SEGMENT PARA USE32 PUBLIC 'CODE'
_TEXT	ENDS
;	COMDAT ?_pAtlModule@ATL@@3PAVCAtlModule@1@A
_DATA	SEGMENT DWORD USE32 PUBLIC 'DATA'
_DATA	ENDS
;	COMDAT ?UpdateRegistryFromResourceS@CAtlModule@ATL@@QAGJIHPAU_ATL_REGMAP_ENTRY@2@@Z
_TEXT	SEGMENT PARA USE32 PUBLIC 'CODE'
_TEXT	ENDS
;	COMDAT ??0CRegObject@ATL@@QAE@XZ
_TEXT	SEGMENT PARA USE32 PUBLIC 'CODE'
_TEXT	ENDS
;	COMDAT ??0IRegistrarBase@@QAE@XZ
_TEXT	SEGMENT PARA USE32 PUBLIC 'CODE'
_TEXT	ENDS
;	COMDAT ??0IUnknown@@QAE@XZ
_TEXT	SEGMENT PARA USE32 PUBLIC 'CODE'
_TEXT	ENDS
;	COMDAT ??_7CRegObject@ATL@@6B@
CONST	SEGMENT DWORD USE32 PUBLIC 'CONST'
CONST	ENDS
;	COMDAT ?QueryInterface@CRegObject@ATL@@UAGJABU_GUID@@PAPAX@Z
_TEXT	SEGMENT PARA USE32 PUBLIC 'CODE'
_TEXT	ENDS
;	COMDAT ?AddRef@CRegObject@ATL@@UAGKXZ
_TEXT	SEGMENT PARA USE32 PUBLIC 'CODE'
_TEXT	ENDS
;	COMDAT ?Release@CRegObject@ATL@@UAGKXZ
_TEXT	SEGMENT PARA USE32 PUBLIC 'CODE'
_TEXT	ENDS
;	COMDAT ?ClearReplacements@CRegObject@ATL@@UAGJXZ
_TEXT	SEGMENT PARA USE32 PUBLIC 'CODE'
_TEXT	ENDS
;	COMDAT ?Lock@CComFakeCriticalSection@ATL@@QAEJXZ
_TEXT	SEGMENT PARA USE32 PUBLIC 'CODE'
_TEXT	ENDS
;	COMDAT ?ClearReplacements@CExpansionVector@ATL@@QAEJXZ
_TEXT	SEGMENT PARA USE32 PUBLIC 'CODE'
_TEXT	ENDS
;	COMDAT ?GetSize@?$CSimpleMap@PADPAGVCExpansionVectorEqualHelper@ATL@@@ATL@@QBEHXZ
_TEXT	SEGMENT PARA USE32 PUBLIC 'CODE'
_TEXT	ENDS
;	COMDAT ?GetKeyAt@?$CSimpleMap@PADPAGVCExpansionVectorEqualHelper@ATL@@@ATL@@QBEAAPADH@Z
_TEXT	SEGMENT PARA USE32 PUBLIC 'CODE'
_TEXT	ENDS
;	COMDAT ?GetValueAt@?$CSimpleMap@PADPAGVCExpansionVectorEqualHelper@ATL@@@ATL@@QBEAAPAGH@Z
_TEXT	SEGMENT PARA USE32 PUBLIC 'CODE'
_TEXT	ENDS
;	COMDAT ?RemoveAll@?$CSimpleMap@PADPAGVCExpansionVectorEqualHelper@ATL@@@ATL@@QAEXXZ
_TEXT	SEGMENT PARA USE32 PUBLIC 'CODE'
_TEXT	ENDS
;	COMDAT ?Unlock@CComFakeCriticalSection@ATL@@QAEJXZ
_TEXT	SEGMENT PARA USE32 PUBLIC 'CODE'
_TEXT	ENDS
;	COMDAT ??_GCRegObject@ATL@@UAEPAXI@Z
_TEXT	SEGMENT PARA USE32 PUBLIC 'CODE'
_TEXT	ENDS
;	COMDAT ??0CExpansionVector@ATL@@QAE@XZ
_TEXT	SEGMENT PARA USE32 PUBLIC 'CODE'
_TEXT	ENDS
;	COMDAT ??0?$CSimpleMap@PADPAGVCExpansionVectorEqualHelper@ATL@@@ATL@@QAE@XZ
_TEXT	SEGMENT PARA USE32 PUBLIC 'CODE'
_TEXT	ENDS
;	COMDAT ??1?$CSimpleMap@PADPAGVCExpansionVectorEqualHelper@ATL@@@ATL@@QAE@XZ
_TEXT	SEGMENT PARA USE32 PUBLIC 'CODE'
_TEXT	ENDS
;	COMDAT ??1CExpansionVector@ATL@@QAE@XZ
_TEXT	SEGMENT PARA USE32 PUBLIC 'CODE'
_TEXT	ENDS
;	COMDAT ??1CRegObject@ATL@@UAE@XZ
_TEXT	SEGMENT PARA USE32 PUBLIC 'CODE'
_TEXT	ENDS
;	COMDAT ??0?$CAtlSafeAllocBufferManager@VCCRTAllocator@ATL@@@_ATL_SAFE_ALLOCA_IMPL@ATL@@QAE@XZ
_TEXT	SEGMENT PARA USE32 PUBLIC 'CODE'
_TEXT	ENDS
;	COMDAT ??1?$CAtlSafeAllocBufferManager@VCCRTAllocator@ATL@@@_ATL_SAFE_ALLOCA_IMPL@ATL@@QAE@XZ
_TEXT	SEGMENT PARA USE32 PUBLIC 'CODE'
_TEXT	ENDS
;	COMDAT ?Free@CCRTAllocator@ATL@@SAXPAX@Z
_TEXT	SEGMENT PARA USE32 PUBLIC 'CODE'
_TEXT	ENDS
;	COMDAT ?GetModuleInstance@CAtlBaseModule@ATL@@QAEPAUHINSTANCE__@@XZ
_TEXT	SEGMENT PARA USE32 PUBLIC 'CODE'
_TEXT	ENDS
;	COMDAT ?AtlHresultFromLastError@ATL@@YAJXZ
_TEXT	SEGMENT PARA USE32 PUBLIC 'CODE'
_TEXT	ENDS
;	COMDAT ?AtlA2WHelper@@YGPAGPAGPBDHI@Z
_TEXT	SEGMENT PARA USE32 PUBLIC 'CODE'
_TEXT	ENDS
;	COMDAT ?_AtlVerifyStackAvailable@_ATL_SAFE_ALLOCA_IMPL@ATL@@YA_NK@Z
_TEXT	SEGMENT PARA USE32 PUBLIC 'CODE'
_TEXT	ENDS
;	COMDAT ?Allocate@?$CAtlSafeAllocBufferManager@VCCRTAllocator@ATL@@@_ATL_SAFE_ALLOCA_IMPL@ATL@@QAEPAXK@Z
_TEXT	SEGMENT PARA USE32 PUBLIC 'CODE'
_TEXT	ENDS
;	COMDAT ?Allocate@CCRTAllocator@ATL@@SAPAXI@Z
_TEXT	SEGMENT PARA USE32 PUBLIC 'CODE'
_TEXT	ENDS
;	COMDAT ?GetData@CAtlSafeAllocBufferNode@?$CAtlSafeAllocBufferManager@VCCRTAllocator@ATL@@@_ATL_SAFE_ALLOCA_IMPL@ATL@@QAEPAXXZ
_TEXT	SEGMENT PARA USE32 PUBLIC 'CODE'
_TEXT	ENDS
;	COMDAT ?EscapeSingleQuote@CAtlModule@ATL@@SAXPAGPBG@Z
_TEXT	SEGMENT PARA USE32 PUBLIC 'CODE'
_TEXT	ENDS
;	COMDAT ?ocscpy@@YAPAGPAGPBG@Z
_TEXT	SEGMENT PARA USE32 PUBLIC 'CODE'
_TEXT	ENDS
;	COMDAT ?ocslen@@YAHPBG@Z
_TEXT	SEGMENT PARA USE32 PUBLIC 'CODE'
_TEXT	ENDS
;	COMDAT ??_C@_1O@MNLDABAF@?$AAM?$AAo?$AAd?$AAu?$AAl?$AAe?$AA?$AA@
CONST	SEGMENT DWORD USE32 PUBLIC 'CONST'
CONST	ENDS
;	COMDAT ?AddReplacement@CRegObject@ATL@@UAGJPBG0@Z
_TEXT	SEGMENT PARA USE32 PUBLIC 'CODE'
_TEXT	ENDS
;	COMDAT ?AtlW2AHelper@@YGPADPADPBGHI@Z
_TEXT	SEGMENT PARA USE32 PUBLIC 'CODE'
_TEXT	ENDS
;	COMDAT ?Add@CExpansionVector@ATL@@QAEHPBDPBG@Z
_TEXT	SEGMENT PARA USE32 PUBLIC 'CODE'
_TEXT	ENDS
;	COMDAT ?Add@?$CSimpleMap@PADPAGVCExpansionVectorEqualHelper@ATL@@@ATL@@QAEHABQADABQAG@Z
_TEXT	SEGMENT PARA USE32 PUBLIC 'CODE'
_TEXT	ENDS
;	COMDAT ?InternalSetAtIndex@?$CSimpleMap@PADPAGVCExpansionVectorEqualHelper@ATL@@@ATL@@QAEXHABQADABQAG@Z
_TEXT	SEGMENT PARA USE32 PUBLIC 'CODE'
_TEXT	ENDS
;	COMDAT ??$?2PAD@?$Wrapper@PAD@?$CSimpleMap@PADPAGVCExpansionVectorEqualHelper@ATL@@@ATL@@SAPAXIPAPAD@Z
_TEXT	SEGMENT PARA USE32 PUBLIC 'CODE'
_TEXT	ENDS
;	COMDAT ??$?3PAD@?$Wrapper@PAD@?$CSimpleMap@PADPAGVCExpansionVectorEqualHelper@ATL@@@ATL@@SAXPAXPAPAD@Z
_TEXT	SEGMENT PARA USE32 PUBLIC 'CODE'
_TEXT	ENDS
;	COMDAT ??0?$Wrapper@PAD@?$CSimpleMap@PADPAGVCExpansionVectorEqualHelper@ATL@@@ATL@@QAE@ABQAD@Z
_TEXT	SEGMENT PARA USE32 PUBLIC 'CODE'
_TEXT	ENDS
;	COMDAT ??$?2PAG@?$Wrapper@PAG@?$CSimpleMap@PADPAGVCExpansionVectorEqualHelper@ATL@@@ATL@@SAPAXIPAPAG@Z
_TEXT	SEGMENT PARA USE32 PUBLIC 'CODE'
_TEXT	ENDS
;	COMDAT ??$?3PAG@?$Wrapper@PAG@?$CSimpleMap@PADPAGVCExpansionVectorEqualHelper@ATL@@@ATL@@SAXPAXPAPAG@Z
_TEXT	SEGMENT PARA USE32 PUBLIC 'CODE'
_TEXT	ENDS
;	COMDAT ??0?$Wrapper@PAG@?$CSimpleMap@PADPAGVCExpansionVectorEqualHelper@ATL@@@ATL@@QAE@ABQAG@Z
_TEXT	SEGMENT PARA USE32 PUBLIC 'CODE'
_TEXT	ENDS
;	COMDAT ??_C@_1BG@JBACFMF@?$AAM?$AAo?$AAd?$AAu?$AAl?$AAe?$AA_?$AAR?$AAa?$AAw?$AA?$AA@
CONST	SEGMENT DWORD USE32 PUBLIC 'CONST'
CONST	ENDS
;	COMDAT ??_C@_1BC@KAILKFFG@?$AAR?$AAE?$AAG?$AAI?$AAS?$AAT?$AAR?$AAY?$AA?$AA@
CONST	SEGMENT DWORD USE32 PUBLIC 'CONST'
CONST	ENDS
;	COMDAT ?ResourceRegister@CRegObject@ATL@@QAGJPBGI0@Z
_TEXT	SEGMENT PARA USE32 PUBLIC 'CODE'
_TEXT	ENDS
;	COMDAT ?RegisterFromResource@CRegObject@ATL@@IAEJPBGPBD1H@Z
_TEXT	SEGMENT PARA USE32 PUBLIC 'CODE'
_TEXT	ENDS
;	COMDAT ??0CRegParser@ATL@@QAE@PAVCRegObject@1@@Z
_TEXT	SEGMENT PARA USE32 PUBLIC 'CODE'
_TEXT	ENDS
;	COMDAT ??0?$CTempBuffer@D$0EAA@VCCRTAllocator@ATL@@@ATL@@QAE@XZ
_TEXT	SEGMENT PARA USE32 PUBLIC 'CODE'
_TEXT	ENDS
;	COMDAT ??1?$CTempBuffer@D$0EAA@VCCRTAllocator@ATL@@@ATL@@QAE@XZ
_TEXT	SEGMENT PARA USE32 PUBLIC 'CODE'
_TEXT	ENDS
;	COMDAT ?FreeHeap@?$CTempBuffer@D$0EAA@VCCRTAllocator@ATL@@@ATL@@AAEXXZ
_TEXT	SEGMENT PARA USE32 PUBLIC 'CODE'
_TEXT	ENDS
;	COMDAT ?Allocate@?$CTempBuffer@D$0EAA@VCCRTAllocator@ATL@@@ATL@@QAEPADI@Z
_TEXT	SEGMENT PARA USE32 PUBLIC 'CODE'
_TEXT	ENDS
;	COMDAT ?AllocateBytes@?$CTempBuffer@D$0EAA@VCCRTAllocator@ATL@@@ATL@@QAEPADI@Z
_TEXT	SEGMENT PARA USE32 PUBLIC 'CODE'
_TEXT	ENDS
;	COMDAT ?AllocateHeap@?$CTempBuffer@D$0EAA@VCCRTAllocator@ATL@@@ATL@@AAEXI@Z
_TEXT	SEGMENT PARA USE32 PUBLIC 'CODE'
_TEXT	ENDS
;	COMDAT ?RegisterBuffer@CRegParser@ATL@@QAEJPADH@Z
_TEXT	SEGMENT PARA USE32 PUBLIC 'CODE'
_TEXT	ENDS
;	COMDAT ?PreProcessBuffer@CRegParser@ATL@@QAEJPADPAPAD@Z
_TEXT	SEGMENT PARA USE32 PUBLIC 'CODE'
_TEXT	ENDS
;	COMDAT ??0CParseBuffer@CRegParser@ATL@@QAE@H@Z
_TEXT	SEGMENT PARA USE32 PUBLIC 'CODE'
_TEXT	ENDS
;	COMDAT ??1CParseBuffer@CRegParser@ATL@@QAE@XZ
_TEXT	SEGMENT PARA USE32 PUBLIC 'CODE'
_TEXT	ENDS
;	COMDAT ?StrChrA@CRegParser@ATL@@KAPADPADD@Z
_TEXT	SEGMENT PARA USE32 PUBLIC 'CODE'
_TEXT	ENDS
;	COMDAT ?StrFromMap@CRegObject@ATL@@QAEPBGPAD@Z
_TEXT	SEGMENT PARA USE32 PUBLIC 'CODE'
_TEXT	ENDS
;	COMDAT ?Lookup@?$CSimpleMap@PADPAGVCExpansionVectorEqualHelper@ATL@@@ATL@@QBEPAGABQAD@Z
_TEXT	SEGMENT PARA USE32 PUBLIC 'CODE'
_TEXT	ENDS
;	COMDAT ?FindKey@?$CSimpleMap@PADPAGVCExpansionVectorEqualHelper@ATL@@@ATL@@QBEHABQAD@Z
_TEXT	SEGMENT PARA USE32 PUBLIC 'CODE'
_TEXT	ENDS
;	COMDAT ?IsEqualKey@CExpansionVectorEqualHelper@ATL@@SA_NQAD0@Z
_TEXT	SEGMENT PARA USE32 PUBLIC 'CODE'
_TEXT	ENDS
;	COMDAT ?AddString@CParseBuffer@CRegParser@ATL@@QAEHPBG@Z
_TEXT	SEGMENT PARA USE32 PUBLIC 'CODE'
_TEXT	ENDS
;	COMDAT ?Append@CParseBuffer@CRegParser@ATL@@QAEHPBDH@Z
_TEXT	SEGMENT PARA USE32 PUBLIC 'CODE'
_TEXT	ENDS
;	COMDAT ?AddChar@CParseBuffer@CRegParser@ATL@@QAEHPBD@Z
_TEXT	SEGMENT PARA USE32 PUBLIC 'CODE'
_TEXT	ENDS
;	COMDAT ?Detach@CParseBuffer@CRegParser@ATL@@QAEPADXZ
_TEXT	SEGMENT PARA USE32 PUBLIC 'CODE'
_TEXT	ENDS
;	COMDAT ?HKeyFromString@CRegParser@ATL@@KAPAUHKEY__@@PAD@Z
_TEXT	SEGMENT PARA USE32 PUBLIC 'CODE'
_TEXT	ENDS
;	COMDAT ??_C@_04OHBKMIBJ@HKCR?$AA@
CONST	SEGMENT DWORD USE32 PUBLIC 'CONST'
CONST	ENDS
;	COMDAT ??_C@_04KIFLFONO@HKCU?$AA@
CONST	SEGMENT DWORD USE32 PUBLIC 'CONST'
CONST	ENDS
;	COMDAT ??_C@_04CBBMIBLK@HKLM?$AA@
CONST	SEGMENT DWORD USE32 PUBLIC 'CONST'
CONST	ENDS
;	COMDAT ??_C@_03DLBIJLAB@HKU?$AA@
CONST	SEGMENT DWORD USE32 PUBLIC 'CONST'
CONST	ENDS
;	COMDAT ??_C@_04OFOCGAOH@HKPD?$AA@
CONST	SEGMENT DWORD USE32 PUBLIC 'CONST'
CONST	ENDS
;	COMDAT ??_C@_04POMNGLEL@HKDD?$AA@
CONST	SEGMENT DWORD USE32 PUBLIC 'CONST'
CONST	ENDS
;	COMDAT ??_C@_04LEMDOLAJ@HKCC?$AA@
CONST	SEGMENT DWORD USE32 PUBLIC 'CONST'
CONST	ENDS
;	COMDAT ??_C@_0BC@JBJOLKMF@HKEY_CLASSES_ROOT?$AA@
CONST	SEGMENT DWORD USE32 PUBLIC 'CONST'
CONST	ENDS
;	COMDAT ??_C@_0BC@GMMMKLBI@HKEY_CURRENT_USER?$AA@
CONST	SEGMENT DWORD USE32 PUBLIC 'CONST'
CONST	ENDS
;	COMDAT ??_C@_0BD@GIIFIKDM@HKEY_LOCAL_MACHINE?$AA@
CONST	SEGMENT DWORD USE32 PUBLIC 'CONST'
CONST	ENDS
;	COMDAT ??_C@_0L@OEMMANAM@HKEY_USERS?$AA@
CONST	SEGMENT DWORD USE32 PUBLIC 'CONST'
CONST	ENDS
;	COMDAT ??_C@_0BG@IDBEHNDO@HKEY_PERFORMANCE_DATA?$AA@
CONST	SEGMENT DWORD USE32 PUBLIC 'CONST'
CONST	ENDS
;	COMDAT ??_C@_0O@MJDLIIGK@HKEY_DYN_DATA?$AA@
CONST	SEGMENT DWORD USE32 PUBLIC 'CONST'
CONST	ENDS
;	COMDAT ??_C@_0BE@NLNNHLLF@HKEY_CURRENT_CONFIG?$AA@
CONST	SEGMENT DWORD USE32 PUBLIC 'CONST'
CONST	ENDS
;	COMDAT ?map@?2??HKeyFromString@CRegParser@ATL@@KAPAUHKEY__@@PAD@Z@4QBUkeymap@23@B
CONST	SEGMENT DWORD USE32 PUBLIC 'CONST'
CONST	ENDS
;	COMDAT ?NextToken@CRegParser@ATL@@IAEJPAD@Z
_TEXT	SEGMENT PARA USE32 PUBLIC 'CODE'
_TEXT	ENDS
;	COMDAT ?EndOfVar@CRegParser@ATL@@IAEHXZ
_TEXT	SEGMENT PARA USE32 PUBLIC 'CODE'
_TEXT	ENDS
;	COMDAT ?IsSpace@CRegParser@ATL@@IAEHD@Z
_TEXT	SEGMENT PARA USE32 PUBLIC 'CODE'
_TEXT	ENDS
;	COMDAT ?GenerateError@CRegParser@ATL@@IAEJI@Z
_TEXT	SEGMENT PARA USE32 PUBLIC 'CODE'
_TEXT	ENDS
;	COMDAT ?RegisterSubkeys@CRegParser@ATL@@IAEJPADPAUHKEY__@@HH@Z
_TEXT	SEGMENT PARA USE32 PUBLIC 'CODE'
_TEXT	ENDS
;	COMDAT ??_C@_06JBKGCNBB@Delete?$AA@
CONST	SEGMENT DWORD USE32 PUBLIC 'CONST'
CONST	ENDS
;	COMDAT ??_C@_0M@DBGDLGLL@ForceRemove?$AA@
CONST	SEGMENT DWORD USE32 PUBLIC 'CONST'
CONST	ENDS
;	COMDAT ??_C@_08KAAPDIAN@NoRemove?$AA@
CONST	SEGMENT DWORD USE32 PUBLIC 'CONST'
CONST	ENDS
;	COMDAT ??_C@_03LAIAPFCB@Val?$AA@
CONST	SEGMENT DWORD USE32 PUBLIC 'CONST'
CONST	ENDS
;	COMDAT ?AddValue@CRegParser@ATL@@IAEJAAVCRegKey@2@PBDPAD@Z
_TEXT	SEGMENT PARA USE32 PUBLIC 'CODE'
_TEXT	ENDS
;	COMDAT ?VTFromRegType@CRegParser@ATL@@KAHPBDAAG@Z
_TEXT	SEGMENT PARA USE32 PUBLIC 'CODE'
_TEXT	ENDS
;	COMDAT ??_C@_01CPLAODJH@S?$AA@
CONST	SEGMENT DWORD USE32 PUBLIC 'CONST'
CONST	ENDS
;	COMDAT ??_C@_01PLPBNMEI@M?$AA@
CONST	SEGMENT DWORD USE32 PUBLIC 'CONST'
CONST	ENDS
;	COMDAT ??_C@_01CKDDGHAB@D?$AA@
CONST	SEGMENT DWORD USE32 PUBLIC 'CONST'
CONST	ENDS
;	COMDAT ??_C@_01HMGJMAIH@B?$AA@
CONST	SEGMENT DWORD USE32 PUBLIC 'CONST'
CONST	ENDS
;	COMDAT ?map@?2??VTFromRegType@CRegParser@ATL@@KAHPBDAAG@Z@4QBUtypemap@23@B
_DATA	SEGMENT DWORD USE32 PUBLIC 'DATA'
_DATA	ENDS
;	COMDAT ?$S4@?2??VTFromRegType@CRegParser@ATL@@KAHPBDAAG@Z@4IA
_BSS	SEGMENT DWORD USE32 PUBLIC 'BSS'
_BSS	ENDS
;	COMDAT ??0?$CTempBuffer@D$0BAA@VCCRTAllocator@ATL@@@ATL@@QAE@XZ
_TEXT	SEGMENT PARA USE32 PUBLIC 'CODE'
_TEXT	ENDS
;	COMDAT ??1?$CTempBuffer@D$0BAA@VCCRTAllocator@ATL@@@ATL@@QAE@XZ
_TEXT	SEGMENT PARA USE32 PUBLIC 'CODE'
_TEXT	ENDS
;	COMDAT ?FreeHeap@?$CTempBuffer@D$0BAA@VCCRTAllocator@ATL@@@ATL@@AAEXXZ
_TEXT	SEGMENT PARA USE32 PUBLIC 'CODE'
_TEXT	ENDS
;	COMDAT ?Allocate@?$CTempBuffer@D$0BAA@VCCRTAllocator@ATL@@@ATL@@QAEPADI@Z
_TEXT	SEGMENT PARA USE32 PUBLIC 'CODE'
_TEXT	ENDS
;	COMDAT ?AllocateBytes@?$CTempBuffer@D$0BAA@VCCRTAllocator@ATL@@@ATL@@QAEPADI@Z
_TEXT	SEGMENT PARA USE32 PUBLIC 'CODE'
_TEXT	ENDS
;	COMDAT ?AllocateHeap@?$CTempBuffer@D$0BAA@VCCRTAllocator@ATL@@@ATL@@AAEXI@Z
_TEXT	SEGMENT PARA USE32 PUBLIC 'CODE'
_TEXT	ENDS
;	COMDAT ?SetMultiStringValue@CRegKey@ATL@@QAEJPBD0@Z
_TEXT	SEGMENT PARA USE32 PUBLIC 'CODE'
_TEXT	ENDS
;	COMDAT ??B?$CTempBuffer@D$0BAA@VCCRTAllocator@ATL@@@ATL@@QBEPADXZ
_TEXT	SEGMENT PARA USE32 PUBLIC 'CODE'
_TEXT	ENDS
;	COMDAT ?SetDWORDValue@CRegKey@ATL@@QAEJPBDK@Z
_TEXT	SEGMENT PARA USE32 PUBLIC 'CODE'
_TEXT	ENDS
;	COMDAT ??0?$CTempBuffer@E$0BAA@VCCRTAllocator@ATL@@@ATL@@QAE@XZ
_TEXT	SEGMENT PARA USE32 PUBLIC 'CODE'
_TEXT	ENDS
;	COMDAT ??1?$CTempBuffer@E$0BAA@VCCRTAllocator@ATL@@@ATL@@QAE@XZ
_TEXT	SEGMENT PARA USE32 PUBLIC 'CODE'
_TEXT	ENDS
;	COMDAT ?FreeHeap@?$CTempBuffer@E$0BAA@VCCRTAllocator@ATL@@@ATL@@AAEXXZ
_TEXT	SEGMENT PARA USE32 PUBLIC 'CODE'
_TEXT	ENDS
;	COMDAT ?Allocate@?$CTempBuffer@E$0BAA@VCCRTAllocator@ATL@@@ATL@@QAEPAEI@Z
_TEXT	SEGMENT PARA USE32 PUBLIC 'CODE'
_TEXT	ENDS
;	COMDAT ?AllocateBytes@?$CTempBuffer@E$0BAA@VCCRTAllocator@ATL@@@ATL@@QAEPAEI@Z
_TEXT	SEGMENT PARA USE32 PUBLIC 'CODE'
_TEXT	ENDS
;	COMDAT ?AllocateHeap@?$CTempBuffer@E$0BAA@VCCRTAllocator@ATL@@@ATL@@AAEXI@Z
_TEXT	SEGMENT PARA USE32 PUBLIC 'CODE'
_TEXT	ENDS
;	COMDAT ?ChToByte@CRegParser@ATL@@KAED@Z
_TEXT	SEGMENT PARA USE32 PUBLIC 'CODE'
_TEXT	ENDS
;	COMDAT ??B?$CTempBuffer@E$0BAA@VCCRTAllocator@ATL@@@ATL@@QBEPAEXZ
_TEXT	SEGMENT PARA USE32 PUBLIC 'CODE'
_TEXT	ENDS
;	COMDAT ?SkipAssignment@CRegParser@ATL@@IAEJPAD@Z
_TEXT	SEGMENT PARA USE32 PUBLIC 'CODE'
_TEXT	ENDS
;	COMDAT ?HasSubKeys@CRegParser@ATL@@IAEHPAUHKEY__@@@Z
_TEXT	SEGMENT PARA USE32 PUBLIC 'CODE'
_TEXT	ENDS
;	COMDAT ?CanForceRemoveKey@CRegParser@ATL@@IAEHPBD@Z
_TEXT	SEGMENT PARA USE32 PUBLIC 'CODE'
_TEXT	ENDS
;	COMDAT ?rgszNeverDelete@CRegParser@ATL@@1QBQBDB
CONST	SEGMENT DWORD USE32 PUBLIC 'CONST'
CONST	ENDS
;	COMDAT ??_C@_05GIBEAPNE@CLSID?$AA@
CONST	SEGMENT DWORD USE32 PUBLIC 'CONST'
CONST	ENDS
;	COMDAT ??_C@_0BF@HDDNNDFH@Component?5Categories?$AA@
CONST	SEGMENT DWORD USE32 PUBLIC 'CONST'
CONST	ENDS
;	COMDAT ??_C@_08PICKODJL@FileType?$AA@
CONST	SEGMENT DWORD USE32 PUBLIC 'CONST'
CONST	ENDS
;	COMDAT ??_C@_09JKPGEJCH@Interface?$AA@
CONST	SEGMENT DWORD USE32 PUBLIC 'CONST'
CONST	ENDS
;	COMDAT ??_C@_08PPIOJEA@Hardware?$AA@
CONST	SEGMENT DWORD USE32 PUBLIC 'CONST'
CONST	ENDS
;	COMDAT ??_C@_04IHBFOLAC@Mime?$AA@
CONST	SEGMENT DWORD USE32 PUBLIC 'CONST'
CONST	ENDS
;	COMDAT ??_C@_03DDIMFGBA@SAM?$AA@
CONST	SEGMENT DWORD USE32 PUBLIC 'CONST'
CONST	ENDS
;	COMDAT ??_C@_08LOPHEHKG@SECURITY?$AA@
CONST	SEGMENT DWORD USE32 PUBLIC 'CONST'
CONST	ENDS
;	COMDAT ??_C@_06FDHFNJBJ@SYSTEM?$AA@
CONST	SEGMENT DWORD USE32 PUBLIC 'CONST'
CONST	ENDS
;	COMDAT ??_C@_08KEKAJNJI@Software?$AA@
CONST	SEGMENT DWORD USE32 PUBLIC 'CONST'
CONST	ENDS
;	COMDAT ??_C@_07KJLOKDKB@TypeLib?$AA@
CONST	SEGMENT DWORD USE32 PUBLIC 'CONST'
CONST	ENDS
;	COMDAT ?RecurseDeleteKey@CRegKey@ATL@@QAEJPBD@Z
_TEXT	SEGMENT PARA USE32 PUBLIC 'CODE'
_TEXT	ENDS
;	COMDAT ?Attach@CRegKey@ATL@@QAEXPAUHKEY__@@@Z
_TEXT	SEGMENT PARA USE32 PUBLIC 'CODE'
_TEXT	ENDS
;	COMDAT ?DeleteSubKey@CRegKey@ATL@@QAEJPBD@Z
_TEXT	SEGMENT PARA USE32 PUBLIC 'CODE'
_TEXT	ENDS
;	COMDAT ?Detach@CRegKey@ATL@@QAEPAUHKEY__@@XZ
_TEXT	SEGMENT PARA USE32 PUBLIC 'CODE'
_TEXT	ENDS
;	COMDAT ?SkipWhiteSpace@CRegParser@ATL@@IAEXXZ
_TEXT	SEGMENT PARA USE32 PUBLIC 'CODE'
_TEXT	ENDS
;	COMDAT ??B?$CTempBuffer@D$0EAA@VCCRTAllocator@ATL@@@ATL@@QBEPADXZ
_TEXT	SEGMENT PARA USE32 PUBLIC 'CODE'
_TEXT	ENDS
;	COMDAT ?ResourceUnregister@CRegObject@ATL@@QAGJPBGI0@Z
_TEXT	SEGMENT PARA USE32 PUBLIC 'CODE'
_TEXT	ENDS
;	COMDAT ??_C@_1M@PPPPCDEP@?$AAA?$AAP?$AAP?$AAI?$AAD?$AA?$AA@
CONST	SEGMENT DWORD USE32 PUBLIC 'CONST'
CONST	ENDS
;	COMDAT ?m_libid@CAtlModule@ATL@@2U_GUID@@A
_DATA	SEGMENT DWORD USE32 PUBLIC 'DATA'
_DATA	ENDS
sxdata	SEGMENT DWORD USE32 'SXDATA'
sxdata	ENDS
FLAT	GROUP _DATA, CONST, _BSS
	ASSUME	CS: FLAT, DS: FLAT, SS: FLAT
endif

INCLUDELIB LIBCMT
INCLUDELIB OLDNAMES

PUBLIC	?rgszNeverDelete@CRegParser@ATL@@1QBQBDB	; ATL::CRegParser::rgszNeverDelete
PUBLIC	?g_pfnGetThreadACP@ATL@@3P6GIXZA		; ATL::g_pfnGetThreadACP
PUBLIC	?_AtlGetThreadACPThunk@ATL@@YGIXZ		; ATL::_AtlGetThreadACPThunk
PUBLIC	??_C@_0BF@HDDNNDFH@Component?5Categories?$AA@	; `string'
PUBLIC	??_C@_08PICKODJL@FileType?$AA@			; `string'
PUBLIC	??_C@_09JKPGEJCH@Interface?$AA@			; `string'
PUBLIC	??_C@_08PPIOJEA@Hardware?$AA@			; `string'
PUBLIC	??_C@_04IHBFOLAC@Mime?$AA@			; `string'
PUBLIC	??_C@_03DDIMFGBA@SAM?$AA@			; `string'
PUBLIC	??_C@_08LOPHEHKG@SECURITY?$AA@			; `string'
PUBLIC	??_C@_06FDHFNJBJ@SYSTEM?$AA@			; `string'
PUBLIC	??_C@_08KEKAJNJI@Software?$AA@			; `string'
PUBLIC	??_C@_07KJLOKDKB@TypeLib?$AA@			; `string'
PUBLIC	?_pAtlModule@ATL@@3PAVCAtlModule@1@A		; ATL::_pAtlModule
PUBLIC	?m_libid@CAtlModule@ATL@@2U_GUID@@A		; ATL::CAtlModule::m_libid
PUBLIC	_CLSID_StdGlobalInterfaceTable
PUBLIC	??_C@_05GIBEAPNE@CLSID?$AA@			; `string'
PUBLIC	??_C@_05PDIKPLII@AppID?$AA@			; `string'
PUBLIC	??_C@_01CPLAODJH@S?$AA@				; `string'
PUBLIC	??_C@_01PLPBNMEI@M?$AA@				; `string'
PUBLIC	??_C@_01CKDDGHAB@D?$AA@				; `string'
PUBLIC	??_C@_01HMGJMAIH@B?$AA@				; `string'
PUBLIC	??_C@_03LAIAPFCB@Val?$AA@			; `string'
PUBLIC	??_C@_0M@DBGDLGLL@ForceRemove?$AA@		; `string'
PUBLIC	??_C@_08KAAPDIAN@NoRemove?$AA@			; `string'
PUBLIC	??_C@_06JBKGCNBB@Delete?$AA@			; `string'
PUBLIC	?_pPerfRegFunc@ATL@@3P6AJPAUHINSTANCE__@@@ZA	; ATL::_pPerfRegFunc
PUBLIC	?_pPerfUnRegFunc@ATL@@3P6AJXZA			; ATL::_pPerfUnRegFunc
;	COMDAT ?_pAtlModule@ATL@@3PAVCAtlModule@1@A
_BSS	SEGMENT
?_pAtlModule@ATL@@3PAVCAtlModule@1@A DD 01H DUP (?)	; ATL::_pAtlModule
_BSS	ENDS
;	COMDAT ?m_libid@CAtlModule@ATL@@2U_GUID@@A
_BSS	SEGMENT
?m_libid@CAtlModule@ATL@@2U_GUID@@A DB 010H DUP (?)	; ATL::CAtlModule::m_libid
_BSS	ENDS
;	COMDAT ?_pPerfRegFunc@ATL@@3P6AJPAUHINSTANCE__@@@ZA
_BSS	SEGMENT
?_pPerfRegFunc@ATL@@3P6AJPAUHINSTANCE__@@@ZA DD 01H DUP (?) ; ATL::_pPerfRegFunc
_BSS	ENDS
;	COMDAT ?_pPerfUnRegFunc@ATL@@3P6AJXZA
_BSS	SEGMENT
?_pPerfUnRegFunc@ATL@@3P6AJXZA DD 01H DUP (?)		; ATL::_pPerfUnRegFunc
_BSS	ENDS
;	COMDAT ?g_pfnGetThreadACP@ATL@@3P6GIXZA
_DATA	SEGMENT
?g_pfnGetThreadACP@ATL@@3P6GIXZA DD FLAT:?_AtlGetThreadACPThunk@ATL@@YGIXZ ; ATL::g_pfnGetThreadACP
_DATA	ENDS
;	COMDAT _CLSID_StdGlobalInterfaceTable
CONST	SEGMENT
_CLSID_StdGlobalInterfaceTable DD 0323H
	DW	00H
	DW	00H
	DB	0c0H
	DB	00H
	DB	00H
	DB	00H
	DB	00H
	DB	00H
	DB	00H
	DB	046H
CONST	ENDS
;	COMDAT ??_C@_01CPLAODJH@S?$AA@
CONST	SEGMENT
??_C@_01CPLAODJH@S?$AA@ DB 'S', 00H			; `string'
CONST	ENDS
CONST	SEGMENT
_szStringVal DD	FLAT:??_C@_01CPLAODJH@S?$AA@
CONST	ENDS
;	COMDAT ??_C@_01PLPBNMEI@M?$AA@
CONST	SEGMENT
??_C@_01PLPBNMEI@M?$AA@ DB 'M', 00H			; `string'
CONST	ENDS
CONST	SEGMENT
_multiszStringVal DD FLAT:??_C@_01PLPBNMEI@M?$AA@
CONST	ENDS
;	COMDAT ??_C@_01CKDDGHAB@D?$AA@
CONST	SEGMENT
??_C@_01CKDDGHAB@D?$AA@ DB 'D', 00H			; `string'
CONST	ENDS
CONST	SEGMENT
_szDwordVal DD	FLAT:??_C@_01CKDDGHAB@D?$AA@
CONST	ENDS
;	COMDAT ??_C@_01HMGJMAIH@B?$AA@
CONST	SEGMENT
??_C@_01HMGJMAIH@B?$AA@ DB 'B', 00H			; `string'
CONST	ENDS
CONST	SEGMENT
_szBinaryVal DD	FLAT:??_C@_01HMGJMAIH@B?$AA@
CONST	ENDS
;	COMDAT ??_C@_03LAIAPFCB@Val?$AA@
CONST	SEGMENT
??_C@_03LAIAPFCB@Val?$AA@ DB 'Val', 00H			; `string'
CONST	ENDS
CONST	SEGMENT
_szValToken DD	FLAT:??_C@_03LAIAPFCB@Val?$AA@
CONST	ENDS
;	COMDAT ??_C@_0M@DBGDLGLL@ForceRemove?$AA@
CONST	SEGMENT
??_C@_0M@DBGDLGLL@ForceRemove?$AA@ DB 'ForceRemove', 00H ; `string'
CONST	ENDS
CONST	SEGMENT
_szForceRemove DD FLAT:??_C@_0M@DBGDLGLL@ForceRemove?$AA@
CONST	ENDS
;	COMDAT ??_C@_08KAAPDIAN@NoRemove?$AA@
CONST	SEGMENT
??_C@_08KAAPDIAN@NoRemove?$AA@ DB 'NoRemove', 00H	; `string'
CONST	ENDS
CONST	SEGMENT
_szNoRemove DD	FLAT:??_C@_08KAAPDIAN@NoRemove?$AA@
CONST	ENDS
;	COMDAT ??_C@_06JBKGCNBB@Delete?$AA@
CONST	SEGMENT
??_C@_06JBKGCNBB@Delete?$AA@ DB 'Delete', 00H		; `string'
CONST	ENDS
CONST	SEGMENT
_szDelete DD	FLAT:??_C@_06JBKGCNBB@Delete?$AA@
CONST	ENDS
;	COMDAT ??_C@_05PDIKPLII@AppID?$AA@
CONST	SEGMENT
??_C@_05PDIKPLII@AppID?$AA@ DB 'AppID', 00H		; `string'
CONST	ENDS
;	COMDAT ??_C@_05GIBEAPNE@CLSID?$AA@
CONST	SEGMENT
??_C@_05GIBEAPNE@CLSID?$AA@ DB 'CLSID', 00H		; `string'
CONST	ENDS
;	COMDAT ??_C@_0BF@HDDNNDFH@Component?5Categories?$AA@
CONST	SEGMENT
??_C@_0BF@HDDNNDFH@Component?5Categories?$AA@ DB 'Component Categories', 00H ; `string'
CONST	ENDS
;	COMDAT ??_C@_08PICKODJL@FileType?$AA@
CONST	SEGMENT
??_C@_08PICKODJL@FileType?$AA@ DB 'FileType', 00H	; `string'
CONST	ENDS
;	COMDAT ??_C@_09JKPGEJCH@Interface?$AA@
CONST	SEGMENT
??_C@_09JKPGEJCH@Interface?$AA@ DB 'Interface', 00H	; `string'
CONST	ENDS
;	COMDAT ??_C@_08PPIOJEA@Hardware?$AA@
CONST	SEGMENT
??_C@_08PPIOJEA@Hardware?$AA@ DB 'Hardware', 00H	; `string'
CONST	ENDS
;	COMDAT ??_C@_04IHBFOLAC@Mime?$AA@
CONST	SEGMENT
??_C@_04IHBFOLAC@Mime?$AA@ DB 'Mime', 00H		; `string'
CONST	ENDS
;	COMDAT ??_C@_03DDIMFGBA@SAM?$AA@
CONST	SEGMENT
??_C@_03DDIMFGBA@SAM?$AA@ DB 'SAM', 00H			; `string'
CONST	ENDS
;	COMDAT ??_C@_08LOPHEHKG@SECURITY?$AA@
CONST	SEGMENT
??_C@_08LOPHEHKG@SECURITY?$AA@ DB 'SECURITY', 00H	; `string'
CONST	ENDS
;	COMDAT ??_C@_06FDHFNJBJ@SYSTEM?$AA@
CONST	SEGMENT
??_C@_06FDHFNJBJ@SYSTEM?$AA@ DB 'SYSTEM', 00H		; `string'
CONST	ENDS
;	COMDAT ??_C@_08KEKAJNJI@Software?$AA@
CONST	SEGMENT
??_C@_08KEKAJNJI@Software?$AA@ DB 'Software', 00H	; `string'
CONST	ENDS
;	COMDAT ??_C@_07KJLOKDKB@TypeLib?$AA@
CONST	SEGMENT
??_C@_07KJLOKDKB@TypeLib?$AA@ DB 'TypeLib', 00H		; `string'
CONST	ENDS
;	COMDAT ?rgszNeverDelete@CRegParser@ATL@@1QBQBDB
CONST	SEGMENT
?rgszNeverDelete@CRegParser@ATL@@1QBQBDB DD FLAT:??_C@_05PDIKPLII@AppID?$AA@ ; ATL::CRegParser::rgszNeverDelete
	DD	FLAT:??_C@_05GIBEAPNE@CLSID?$AA@
	DD	FLAT:??_C@_0BF@HDDNNDFH@Component?5Categories?$AA@
	DD	FLAT:??_C@_08PICKODJL@FileType?$AA@
	DD	FLAT:??_C@_09JKPGEJCH@Interface?$AA@
	DD	FLAT:??_C@_08PPIOJEA@Hardware?$AA@
	DD	FLAT:??_C@_04IHBFOLAC@Mime?$AA@
	DD	FLAT:??_C@_03DDIMFGBA@SAM?$AA@
	DD	FLAT:??_C@_08LOPHEHKG@SECURITY?$AA@
	DD	FLAT:??_C@_06FDHFNJBJ@SYSTEM?$AA@
	DD	FLAT:??_C@_08KEKAJNJI@Software?$AA@
	DD	FLAT:??_C@_07KJLOKDKB@TypeLib?$AA@
CONST	ENDS
PUBLIC	?GetServerID@CTMapSvrModule@@QAEEXZ		; CTMapSvrModule::GetServerID
; Function compile flags: /Ogty
; File c:\users\pierr\desktop\4story - oldschool\sources\tserver\tmapsvr\tmapsvrmodule.h
;	COMDAT ?GetServerID@CTMapSvrModule@@QAEEXZ
_TEXT	SEGMENT
?GetServerID@CTMapSvrModule@@QAEEXZ PROC NEAR		; CTMapSvrModule::GetServerID, COMDAT
; _this$ = ecx

; 530  : 	BYTE GetServerID() { return m_bServerID; };

  00000	8a 81 82 9e 00
	00		 mov	 al, BYTE PTR [ecx+40578]
  00006	c3		 ret	 0
?GetServerID@CTMapSvrModule@@QAEEXZ ENDP		; CTMapSvrModule::GetServerID
_TEXT	ENDS
PUBLIC	??0CUdpSocket@@QAE@XZ				; CUdpSocket::CUdpSocket
EXTRN	??_U@YAPAXI@Z:NEAR				; operator new[]
EXTRN	__imp__InitializeCriticalSectionAndSpinCount@8:NEAR
; Function compile flags: /Ogty
; File c:\users\pierr\desktop\4story - oldschool\sources\tserver\tmapsvr\udpsocket.cpp
;	COMDAT ??0CUdpSocket@@QAE@XZ
_TEXT	SEGMENT
??0CUdpSocket@@QAE@XZ PROC NEAR				; CUdpSocket::CUdpSocket, COMDAT
; _this$ = ecx

; 16   : {

  00000	56		 push	 esi

; 17   : 	m_lpLogBuf  = new char [sizeof(_UDPPACKET)+1] ;

  00001	68 25 04 00 00	 push	 1061			; 00000425H
  00006	8b f1		 mov	 esi, ecx
  00008	e8 00 00 00 00	 call	 ??_U@YAPAXI@Z		; operator new[]
  0000d	83 c4 04	 add	 esp, 4
  00010	89 46 2c	 mov	 DWORD PTR [esi+44], eax

; 18   : 
; 19   : 	InitializeCriticalSectionAndSpinCount(&m_LogLock, 4000);

  00013	68 a0 0f 00 00	 push	 4000			; 00000fa0H
  00018	8d 46 14	 lea	 eax, DWORD PTR [esi+20]
  0001b	50		 push	 eax
  0001c	ff 15 00 00 00
	00		 call	 DWORD PTR __imp__InitializeCriticalSectionAndSpinCount@8

; 20   : }

  00022	8b c6		 mov	 eax, esi
  00024	5e		 pop	 esi
  00025	c3		 ret	 0
??0CUdpSocket@@QAE@XZ ENDP				; CUdpSocket::CUdpSocket
_TEXT	ENDS
PUBLIC	?Initialize@CUdpSocket@@QAEHPADH@Z		; CUdpSocket::Initialize
EXTRN	__imp__WSASocketA@24:NEAR
EXTRN	__imp__htons@4:NEAR
EXTRN	__imp__inet_addr@4:NEAR
; Function compile flags: /Ogty
;	COMDAT ?Initialize@CUdpSocket@@QAEHPADH@Z
_TEXT	SEGMENT
_pIPAddr$ = 8						; size = 4
_pPort$ = 12						; size = 4
?Initialize@CUdpSocket@@QAEHPADH@Z PROC NEAR		; CUdpSocket::Initialize, COMDAT
; _this$ = ecx

; 35   : {

  00000	56		 push	 esi

; 36   : 
; 37   : 	m_SendSock = WSASocket(AF_INET, SOCK_DGRAM, IPPROTO_UDP, NULL, 0, 0);

  00001	6a 00		 push	 0
  00003	6a 00		 push	 0
  00005	6a 00		 push	 0
  00007	6a 11		 push	 17			; 00000011H
  00009	6a 02		 push	 2
  0000b	6a 02		 push	 2
  0000d	8b f1		 mov	 esi, ecx
  0000f	ff 15 00 00 00
	00		 call	 DWORD PTR __imp__WSASocketA@24

; 38   : 
; 39   : 	if(INVALID_SOCKET == m_SendSock )

  00015	83 f8 ff	 cmp	 eax, -1
  00018	89 06		 mov	 DWORD PTR [esi], eax
  0001a	75 06		 jne	 SHORT $L175223

; 40   : 	{
; 41   : 		return FALSE;

  0001c	33 c0		 xor	 eax, eax
  0001e	5e		 pop	 esi

; 49   : }

  0001f	c2 08 00	 ret	 8
$L175223:

; 42   : 	}
; 43   : 
; 44   : 	m_LogAddr.sin_family		= AF_INET;
; 45   : 	m_LogAddr.sin_port			= htons(pPort);

  00022	8b 44 24 0c	 mov	 eax, DWORD PTR _pPort$[esp]
  00026	50		 push	 eax
  00027	66 c7 46 04 02
	00		 mov	 WORD PTR [esi+4], 2
  0002d	ff 15 00 00 00
	00		 call	 DWORD PTR __imp__htons@4

; 46   : 	m_LogAddr.sin_addr.s_addr	= inet_addr(pIPAddr);

  00033	8b 4c 24 08	 mov	 ecx, DWORD PTR _pIPAddr$[esp]
  00037	51		 push	 ecx
  00038	66 89 46 06	 mov	 WORD PTR [esi+6], ax
  0003c	ff 15 00 00 00
	00		 call	 DWORD PTR __imp__inet_addr@4
  00042	89 46 08	 mov	 DWORD PTR [esi+8], eax

; 47   : 
; 48   : 	return TRUE;

  00045	b8 01 00 00 00	 mov	 eax, 1
  0004a	5e		 pop	 esi

; 49   : }

  0004b	c2 08 00	 ret	 8
?Initialize@CUdpSocket@@QAEHPADH@Z ENDP			; CUdpSocket::Initialize
_TEXT	ENDS
PUBLIC	?SendToLogPacket@CUdpSocket@@QAEXPAU_UDPPACKET@@@Z ; CUdpSocket::SendToLogPacket
EXTRN	??3@YAXPAX@Z:NEAR				; operator delete
EXTRN	__imp__EnterCriticalSection@4:NEAR
EXTRN	__imp__LeaveCriticalSection@4:NEAR
EXTRN	__imp__sendto@24:NEAR
; Function compile flags: /Ogty
;	COMDAT ?SendToLogPacket@CUdpSocket@@QAEXPAU_UDPPACKET@@@Z
_TEXT	SEGMENT
_pUdpPacket$ = 8					; size = 4
?SendToLogPacket@CUdpSocket@@QAEXPAU_UDPPACKET@@@Z PROC NEAR ; CUdpSocket::SendToLogPacket, COMDAT
; _this$ = ecx

; 56   : {

  00000	53		 push	 ebx
  00001	55		 push	 ebp
  00002	56		 push	 esi
  00003	8b d9		 mov	 ebx, ecx
  00005	57		 push	 edi

; 57   : 	EnterCriticalSection(&m_LogLock);

  00006	8d 6b 14	 lea	 ebp, DWORD PTR [ebx+20]
  00009	55		 push	 ebp
  0000a	ff 15 00 00 00
	00		 call	 DWORD PTR __imp__EnterCriticalSection@4

; 58   : 
; 59   : 		memcpy(m_lpLogBuf, pUdpPacket, sizeof(_UDPPACKET));

  00010	8b 44 24 14	 mov	 eax, DWORD PTR _pUdpPacket$[esp+12]
  00014	8b 7b 2c	 mov	 edi, DWORD PTR [ebx+44]
  00017	8b f0		 mov	 esi, eax

; 60   : 
; 61   : 		m_nSendByte = sendto(m_SendSock, m_lpLogBuf, pUdpPacket->dwSize, 0, (SOCKADDR *)&m_LogAddr, sizeof(m_LogAddr));

  00019	6a 10		 push	 16			; 00000010H
  0001b	b9 09 01 00 00	 mov	 ecx, 265		; 00000109H
  00020	f3 a5		 rep movsd
  00022	0f b7 10	 movzx	 edx, WORD PTR [eax]
  00025	8b 43 2c	 mov	 eax, DWORD PTR [ebx+44]
  00028	8d 4b 04	 lea	 ecx, DWORD PTR [ebx+4]
  0002b	51		 push	 ecx
  0002c	8b 0b		 mov	 ecx, DWORD PTR [ebx]
  0002e	6a 00		 push	 0
  00030	52		 push	 edx
  00031	50		 push	 eax
  00032	51		 push	 ecx
  00033	ff 15 00 00 00
	00		 call	 DWORD PTR __imp__sendto@24

; 62   : 
; 63   : 		if(SOCKET_ERROR == m_nSendByte) 
; 64   : 		{
; 65   : 			//
; 66   : 			//	Mr Park Add Log
; 67   : 			//
; 68   : 			//	LogEvent("(X) UDP sendto failed with error");
; 69   : 			//
; 70   : 		}
; 71   : 
; 72   : 	LeaveCriticalSection(&m_LogLock);

  00039	55		 push	 ebp
  0003a	89 43 30	 mov	 DWORD PTR [ebx+48], eax
  0003d	ff 15 00 00 00
	00		 call	 DWORD PTR __imp__LeaveCriticalSection@4

; 73   : 
; 74   : 	if(pUdpPacket) 
; 75   : 	{
; 76   : 		delete pUdpPacket;

  00043	8b 54 24 14	 mov	 edx, DWORD PTR _pUdpPacket$[esp+12]
  00047	52		 push	 edx
  00048	e8 00 00 00 00	 call	 ??3@YAXPAX@Z		; operator delete
  0004d	83 c4 04	 add	 esp, 4
  00050	5f		 pop	 edi
  00051	5e		 pop	 esi
  00052	5d		 pop	 ebp
  00053	5b		 pop	 ebx

; 77   : 		pUdpPacket	= 0x00;
; 78   : 	}
; 79   : }

  00054	c2 04 00	 ret	 4
?SendToLogPacket@CUdpSocket@@QAEXPAU_UDPPACKET@@@Z ENDP	; CUdpSocket::SendToLogPacket
_TEXT	ENDS
PUBLIC	?Log@CUdpSocket@@QAEXPAU_UDPPACKET@@@Z		; CUdpSocket::Log
; Function compile flags: /Ogty
;	COMDAT ?Log@CUdpSocket@@QAEXPAU_UDPPACKET@@@Z
_TEXT	SEGMENT
_pUDPPacket$ = 8					; size = 4
?Log@CUdpSocket@@QAEXPAU_UDPPACKET@@@Z PROC NEAR	; CUdpSocket::Log, COMDAT
; _this$ = ecx

; 86   :  	pUDPPacket->dwCommand	= LP_LOG;

  00000	8b 44 24 04	 mov	 eax, DWORD PTR _pUDPPacket$[esp-4]

; 87   : 
; 88   : 	int pLogSize = sizeof(_UDPPACKET) - sizeof(pUDPPacket->szPacket ) + sizeof(_LOG_DATA_) - sizeof(((_LPLOG_DATA_)pUDPPacket->szPacket)->szLog);
; 89   : 
; 90   : 	switch(	((_LPLOG_DATA_)pUDPPacket->szPacket)->dwFormat )

  00004	8b 90 14 02 00
	00		 mov	 edx, DWORD PTR [eax+532]
  0000a	4a		 dec	 edx
  0000b	83 fa 03	 cmp	 edx, 3
  0000e	66 c7 40 02 00
	00		 mov	 WORD PTR [eax+2], 0
  00014	77 4b		 ja	 SHORT $L175254
  00016	ff 24 95 00 00
	00 00		 jmp	 DWORD PTR $L177485[edx*4]
$L175246:

; 91   : 	{
; 92   : 	case 1:	pLogSize += sizeof(_LOG_CHARBASE_);		break;

  0001d	ba 44 02 00 00	 mov	 edx, 580		; 00000244H

; 102  : 		break;
; 103  : 	}
; 104  : 	pUDPPacket->dwSize	= pLogSize;

  00022	66 89 10	 mov	 WORD PTR [eax], dx

; 105  : 	
; 106  : 	SendToLogPacket(pUDPPacket);

  00025	89 44 24 04	 mov	 DWORD PTR _pUDPPacket$[esp-4], eax
  00029	e9 00 00 00 00	 jmp	 ?SendToLogPacket@CUdpSocket@@QAEXPAU_UDPPACKET@@@Z ; CUdpSocket::SendToLogPacket
$L175248:

; 93   : 
; 94   : 	case 2:	pLogSize += sizeof(_LOG_ITEM_);			break;

  0002e	ba 9c 02 00 00	 mov	 edx, 668		; 0000029cH

; 102  : 		break;
; 103  : 	}
; 104  : 	pUDPPacket->dwSize	= pLogSize;

  00033	66 89 10	 mov	 WORD PTR [eax], dx

; 105  : 	
; 106  : 	SendToLogPacket(pUDPPacket);

  00036	89 44 24 04	 mov	 DWORD PTR _pUDPPacket$[esp-4], eax
  0003a	e9 00 00 00 00	 jmp	 ?SendToLogPacket@CUdpSocket@@QAEXPAU_UDPPACKET@@@Z ; CUdpSocket::SendToLogPacket
$L175250:

; 95   : 
; 96   : 	case 3:	pLogSize += sizeof(_LOG_SKILL_);		break;

  0003f	ba 38 02 00 00	 mov	 edx, 568		; 00000238H

; 102  : 		break;
; 103  : 	}
; 104  : 	pUDPPacket->dwSize	= pLogSize;

  00044	66 89 10	 mov	 WORD PTR [eax], dx

; 105  : 	
; 106  : 	SendToLogPacket(pUDPPacket);

  00047	89 44 24 04	 mov	 DWORD PTR _pUDPPacket$[esp-4], eax
  0004b	e9 00 00 00 00	 jmp	 ?SendToLogPacket@CUdpSocket@@QAEXPAU_UDPPACKET@@@Z ; CUdpSocket::SendToLogPacket
$L175252:

; 97   : 
; 98   : 	case 4:	pLogSize += sizeof(_LOG_PET_);			break;

  00050	ba 54 02 00 00	 mov	 edx, 596		; 00000254H

; 102  : 		break;
; 103  : 	}
; 104  : 	pUDPPacket->dwSize	= pLogSize;

  00055	66 89 10	 mov	 WORD PTR [eax], dx

; 105  : 	
; 106  : 	SendToLogPacket(pUDPPacket);

  00058	89 44 24 04	 mov	 DWORD PTR _pUDPPacket$[esp-4], eax
  0005c	e9 00 00 00 00	 jmp	 ?SendToLogPacket@CUdpSocket@@QAEXPAU_UDPPACKET@@@Z ; CUdpSocket::SendToLogPacket
$L175254:

; 99   : 
; 100  : 	default:
; 101  : 		pLogSize += sizeof(((_LPLOG_DATA_)pUDPPacket->szPacket)->szLog);

  00061	ba 1c 04 00 00	 mov	 edx, 1052		; 0000041cH

; 102  : 		break;
; 103  : 	}
; 104  : 	pUDPPacket->dwSize	= pLogSize;

  00066	66 89 10	 mov	 WORD PTR [eax], dx

; 105  : 	
; 106  : 	SendToLogPacket(pUDPPacket);

  00069	89 44 24 04	 mov	 DWORD PTR _pUDPPacket$[esp-4], eax
  0006d	e9 00 00 00 00	 jmp	 ?SendToLogPacket@CUdpSocket@@QAEXPAU_UDPPACKET@@@Z ; CUdpSocket::SendToLogPacket
  00072	8b ff		 npad	 2
$L177485:

; 107  : }

  00074	00 00 00 00	 DD	 $L175246
  00078	00 00 00 00	 DD	 $L175248
  0007c	00 00 00 00	 DD	 $L175250
  00080	00 00 00 00	 DD	 $L175252
?Log@CUdpSocket@@QAEXPAU_UDPPACKET@@@Z ENDP		; CUdpSocket::Log
_TEXT	ENDS
PUBLIC	?InterlockedExchangePointer@@YGPAXPAPAXPAX@Z	; InterlockedExchangePointer
EXTRN	__imp__InterlockedExchange@8:NEAR
; Function compile flags: /Ogty
; File c:\program files (x86)\microsoft visual studio .net 2003\vc7\atlmfc\include\atlconv.h
;	COMDAT ?InterlockedExchangePointer@@YGPAXPAPAXPAX@Z
_TEXT	SEGMENT
_pp$ = 8						; size = 4
_pNew$ = 12						; size = 4
?InterlockedExchangePointer@@YGPAXPAPAXPAX@Z PROC NEAR	; InterlockedExchangePointer, COMDAT

; 92   : 	return( reinterpret_cast<void*>(static_cast<LONG_PTR>(::InterlockedExchange(reinterpret_cast<LONG*>(pp), static_cast<LONG>(reinterpret_cast<LONG_PTR>(pNew))))) );

  00000	ff 25 00 00 00
	00		 jmp	 DWORD PTR __imp__InterlockedExchange@8
?InterlockedExchangePointer@@YGPAXPAPAXPAX@Z ENDP	; InterlockedExchangePointer
_TEXT	ENDS
PUBLIC	?_AtlGetThreadACPFake@ATL@@YGIXZ		; ATL::_AtlGetThreadACPFake
EXTRN	__imp__GetACP@0:NEAR
EXTRN	___security_cookie:DWORD
EXTRN	@__security_check_cookie@4:NEAR
EXTRN	__imp__GetLocaleInfoA@16:NEAR
EXTRN	__imp__GetThreadLocale@0:NEAR
; Function compile flags: /Ogty
;	COMDAT ?_AtlGetThreadACPFake@ATL@@YGIXZ
_TEXT	SEGMENT
_szACP$ = -12						; size = 7
__$ArrayPad$ = -4					; size = 4
__$ReturnAddr$ = 4					; size = 4
?_AtlGetThreadACPFake@ATL@@YGIXZ PROC NEAR		; ATL::_AtlGetThreadACPFake, COMDAT

; 101  : {

  00000	83 ec 0c	 sub	 esp, 12			; 0000000cH
  00003	a1 00 00 00 00	 mov	 eax, DWORD PTR ___security_cookie
  00008	56		 push	 esi
  00009	89 44 24 0c	 mov	 DWORD PTR __$ArrayPad$[esp+16], eax

; 102  : 	UINT nACP = 0;

  0000d	33 f6		 xor	 esi, esi

; 103  : 
; 104  : 	LCID lcidThread = ::GetThreadLocale();

  0000f	ff 15 00 00 00
	00		 call	 DWORD PTR __imp__GetThreadLocale@0

; 105  : 
; 106  : 	char szACP[7];
; 107  : 	// GetLocaleInfoA will fail for a Unicode-only LCID, but those are only supported on 
; 108  : 	// Windows 2000.  Since Windows 2000 supports CP_THREAD_ACP, this code path is never
; 109  : 	// executed on Windows 2000.
; 110  : 	if (::GetLocaleInfoA(lcidThread, LOCALE_IDEFAULTANSICODEPAGE, szACP, 7) != 0)

  00015	6a 07		 push	 7
  00017	8d 4c 24 08	 lea	 ecx, DWORD PTR _szACP$[esp+20]
  0001b	51		 push	 ecx
  0001c	68 04 10 00 00	 push	 4100			; 00001004H
  00021	50		 push	 eax
  00022	ff 15 00 00 00
	00		 call	 DWORD PTR __imp__GetLocaleInfoA@16
  00028	85 c0		 test	 eax, eax
  0002a	74 21		 je	 SHORT $L177496

; 111  : 	{
; 112  : 		char* pch = szACP;
; 113  : 		while (*pch != '\0')

  0002c	8a 44 24 04	 mov	 al, BYTE PTR _szACP$[esp+16]
  00030	84 c0		 test	 al, al
  00032	8d 4c 24 04	 lea	 ecx, DWORD PTR _szACP$[esp+16]
  00036	74 15		 je	 SHORT $L177496
$L58550:

; 114  : 		{
; 115  : 			nACP *= 10;
; 116  : 			nACP += *pch++ - '0';

  00038	0f be c0	 movsx	 eax, al
  0003b	8d 14 b6	 lea	 edx, DWORD PTR [esi+esi*4]
  0003e	41		 inc	 ecx
  0003f	8d 74 50 d0	 lea	 esi, DWORD PTR [eax+edx*2-48]
  00043	8a 01		 mov	 al, BYTE PTR [ecx]
  00045	84 c0		 test	 al, al
  00047	75 ef		 jne	 SHORT $L58550

; 117  : 		}
; 118  : 	}
; 119  : 	// Use the Default ANSI Code Page if we were unable to get the thread ACP or if one does not exist.
; 120  : 	if (nACP == 0)

  00049	85 f6		 test	 esi, esi
  0004b	75 14		 jne	 SHORT $L177497
$L177496:

; 121  : 		nACP = ::GetACP();

  0004d	ff 15 00 00 00
	00		 call	 DWORD PTR __imp__GetACP@0
  00053	5e		 pop	 esi

; 122  : 
; 123  : 	return nACP;
; 124  : }

  00054	8b 4c 24 08	 mov	 ecx, DWORD PTR __$ArrayPad$[esp+12]
  00058	e8 00 00 00 00	 call	 @__security_check_cookie@4
  0005d	83 c4 0c	 add	 esp, 12			; 0000000cH
  00060	c3		 ret	 0
$L177497:
  00061	8b 4c 24 0c	 mov	 ecx, DWORD PTR __$ArrayPad$[esp+16]
  00065	8b c6		 mov	 eax, esi
  00067	5e		 pop	 esi
  00068	e8 00 00 00 00	 call	 @__security_check_cookie@4
  0006d	83 c4 0c	 add	 esp, 12			; 0000000cH
  00070	c3		 ret	 0
?_AtlGetThreadACPFake@ATL@@YGIXZ ENDP			; ATL::_AtlGetThreadACPFake
_TEXT	ENDS
PUBLIC	?_AtlGetThreadACPReal@ATL@@YGIXZ		; ATL::_AtlGetThreadACPReal
; Function compile flags: /Ogty
;	COMDAT ?_AtlGetThreadACPReal@ATL@@YGIXZ
_TEXT	SEGMENT
?_AtlGetThreadACPReal@ATL@@YGIXZ PROC NEAR		; ATL::_AtlGetThreadACPReal, COMDAT

; 128  : 	return( CP_THREAD_ACP );

  00000	b8 03 00 00 00	 mov	 eax, 3

; 129  : }

  00005	c3		 ret	 0
?_AtlGetThreadACPReal@ATL@@YGIXZ ENDP			; ATL::_AtlGetThreadACPReal
_TEXT	ENDS
EXTRN	__imp__GetVersionExA@4:NEAR
; Function compile flags: /Ogty
;	COMDAT ?_AtlGetThreadACPThunk@ATL@@YGIXZ
_TEXT	SEGMENT
_ver$ = -152						; size = 148
__$ArrayPad$ = -4					; size = 4
__$ReturnAddr$ = 4					; size = 4
?_AtlGetThreadACPThunk@ATL@@YGIXZ PROC NEAR		; ATL::_AtlGetThreadACPThunk, COMDAT

; 134  : {

  00000	81 ec 98 00 00
	00		 sub	 esp, 152		; 00000098H
  00006	a1 00 00 00 00	 mov	 eax, DWORD PTR ___security_cookie
  0000b	89 84 24 94 00
	00 00		 mov	 DWORD PTR __$ArrayPad$[esp+152], eax

; 135  : 	OSVERSIONINFO ver;
; 136  : 	ATLGETTHREADACP pfnGetThreadACP;
; 137  : 
; 138  : 	ver.dwOSVersionInfoSize = sizeof( ver );
; 139  : 	::GetVersionEx( &ver );

  00012	8d 04 24	 lea	 eax, DWORD PTR _ver$[esp+152]
  00015	50		 push	 eax
  00016	c7 44 24 04 94
	00 00 00	 mov	 DWORD PTR _ver$[esp+156], 148 ; 00000094H
  0001e	ff 15 00 00 00
	00		 call	 DWORD PTR __imp__GetVersionExA@4

; 140  : 	if( (ver.dwPlatformId == VER_PLATFORM_WIN32_NT) && (ver.dwMajorVersion >= 5) )

  00024	83 7c 24 10 02	 cmp	 DWORD PTR _ver$[esp+168], 2
  00029	75 0c		 jne	 SHORT $L58560
  0002b	83 7c 24 04 05	 cmp	 DWORD PTR _ver$[esp+156], 5

; 141  : 	{
; 142  : 		// On Win2K, CP_THREAD_ACP is supported
; 143  : 		pfnGetThreadACP = _AtlGetThreadACPReal;

  00030	b8 00 00 00 00	 mov	 eax, OFFSET FLAT:?_AtlGetThreadACPReal@ATL@@YGIXZ ; ATL::_AtlGetThreadACPReal
  00035	73 05		 jae	 SHORT $L58561
$L58560:

; 144  : 	}
; 145  : 	else
; 146  : 	{
; 147  : 		pfnGetThreadACP = _AtlGetThreadACPFake;

  00037	b8 00 00 00 00	 mov	 eax, OFFSET FLAT:?_AtlGetThreadACPFake@ATL@@YGIXZ ; ATL::_AtlGetThreadACPFake
$L58561:

; 148  : 	}
; 149  : 	InterlockedExchangePointer( reinterpret_cast< void** >(&g_pfnGetThreadACP), pfnGetThreadACP );

  0003c	50		 push	 eax
  0003d	68 00 00 00 00	 push	 OFFSET FLAT:?g_pfnGetThreadACP@ATL@@3P6GIXZA ; ATL::g_pfnGetThreadACP
  00042	ff 15 00 00 00
	00		 call	 DWORD PTR __imp__InterlockedExchange@8

; 150  : 
; 151  : 	return( g_pfnGetThreadACP() );

  00048	ff 15 00 00 00
	00		 call	 DWORD PTR ?g_pfnGetThreadACP@ATL@@3P6GIXZA ; ATL::g_pfnGetThreadACP

; 152  : }

  0004e	8b 8c 24 94 00
	00 00		 mov	 ecx, DWORD PTR __$ArrayPad$[esp+152]
  00055	e8 00 00 00 00	 call	 @__security_check_cookie@4
  0005a	81 c4 98 00 00
	00		 add	 esp, 152		; 00000098H
  00060	c3		 ret	 0
?_AtlGetThreadACPThunk@ATL@@YGIXZ ENDP			; ATL::_AtlGetThreadACPThunk
_TEXT	ENDS
PUBLIC	?_AtlGetConversionACP@ATL@@YGIXZ		; ATL::_AtlGetConversionACP
; Function compile flags: /Ogty
;	COMDAT ?_AtlGetConversionACP@ATL@@YGIXZ
_TEXT	SEGMENT
?_AtlGetConversionACP@ATL@@YGIXZ PROC NEAR		; ATL::_AtlGetConversionACP, COMDAT

; 158  : 	return( g_pfnGetThreadACP() );

  00000	ff 25 00 00 00
	00		 jmp	 DWORD PTR ?g_pfnGetThreadACP@ATL@@3P6GIXZA ; ATL::g_pfnGetThreadACP
?_AtlGetConversionACP@ATL@@YGIXZ ENDP			; ATL::_AtlGetConversionACP
_TEXT	ENDS
PUBLIC	??0CAtlException@ATL@@QAE@J@Z			; ATL::CAtlException::CAtlException
; Function compile flags: /Ogty
; File c:\program files (x86)\microsoft visual studio .net 2003\vc7\atlmfc\include\atlexcept.h
;	COMDAT ??0CAtlException@ATL@@QAE@J@Z
_TEXT	SEGMENT
_hr$ = 8						; size = 4
??0CAtlException@ATL@@QAE@J@Z PROC NEAR			; ATL::CAtlException::CAtlException, COMDAT
; _this$ = ecx

; 40   : 	{

  00000	8b c1		 mov	 eax, ecx
  00002	8b 4c 24 04	 mov	 ecx, DWORD PTR _hr$[esp-4]
  00006	89 08		 mov	 DWORD PTR [eax], ecx

; 41   : 	}

  00008	c2 04 00	 ret	 4
??0CAtlException@ATL@@QAE@J@Z ENDP			; ATL::CAtlException::CAtlException
_TEXT	ENDS
PUBLIC	?AtlThrow@ATL@@YGXJ@Z				; ATL::AtlThrow
PUBLIC	__TI1?AVCAtlException@ATL@@
PUBLIC	__CTA1?AVCAtlException@ATL@@
PUBLIC	??_R0?AVCAtlException@ATL@@@8			; ATL::CAtlException `RTTI Type Descriptor'
PUBLIC	__CT??_R0?AVCAtlException@ATL@@@84
EXTRN	__CxxThrowException@8:NEAR
EXTRN	??_7type_info@@6B@:DWORD			; type_info::`vftable'
;	COMDAT __TI1?AVCAtlException@ATL@@
xdata$x	SEGMENT
__TI1?AVCAtlException@ATL@@ DD 00H
	DD	00H
	DD	00H
	DD	FLAT:__CTA1?AVCAtlException@ATL@@
xdata$x	ENDS
;	COMDAT __CTA1?AVCAtlException@ATL@@
xdata$x	SEGMENT
__CTA1?AVCAtlException@ATL@@ DD 01H
	DD	FLAT:__CT??_R0?AVCAtlException@ATL@@@84
xdata$x	ENDS
;	COMDAT __CT??_R0?AVCAtlException@ATL@@@84
xdata$x	SEGMENT
__CT??_R0?AVCAtlException@ATL@@@84 DD 00H
	DD	FLAT:??_R0?AVCAtlException@ATL@@@8
	DD	00H
	DD	0ffffffffH
	ORG $+4
	DD	04H
	DD	00H
xdata$x	ENDS
;	COMDAT ??_R0?AVCAtlException@ATL@@@8
_DATA	SEGMENT
??_R0?AVCAtlException@ATL@@@8 DD FLAT:??_7type_info@@6B@ ; ATL::CAtlException `RTTI Type Descriptor'
	DD	00H
	DB	'.?AVCAtlException@ATL@@', 00H
; Function compile flags: /Ogty
_DATA	ENDS
;	COMDAT ?AtlThrow@ATL@@YGXJ@Z
_TEXT	SEGMENT
$T177522 = 8						; size = 4
_hr$ = 8						; size = 4
?AtlThrow@ATL@@YGXJ@Z PROC NEAR				; ATL::AtlThrow, COMDAT

; 62   : 	ATLTRACE(atlTraceException, 0, _T("AtlThrow: hr = 0x%x\n"), hr );
; 63   : #ifdef _AFX
; 64   : 	if( hr == E_OUTOFMEMORY )
; 65   : 	{
; 66   : 		AfxThrowMemoryException();
; 67   : 	}
; 68   : 	else
; 69   : 	{
; 70   : 		AfxThrowOleException( hr );
; 71   : 	}
; 72   : #else
; 73   : 	throw CAtlException( hr );

  00000	8b 44 24 04	 mov	 eax, DWORD PTR _hr$[esp-4]
  00004	68 00 00 00 00	 push	 OFFSET FLAT:__TI1?AVCAtlException@ATL@@
  00009	8d 4c 24 08	 lea	 ecx, DWORD PTR $T177522[esp]
  0000d	51		 push	 ecx
  0000e	89 44 24 0c	 mov	 DWORD PTR $T177522[esp+4], eax
  00012	e8 00 00 00 00	 call	 __CxxThrowException@8
$L177529:
$L177528:
  00017	cc		 int	 3
?AtlThrow@ATL@@YGXJ@Z ENDP				; ATL::AtlThrow
_TEXT	ENDS
PUBLIC	?_AtlGetStringResourceImage@ATL@@YAPBUATLSTRINGRESOURCEIMAGE@1@PAUHINSTANCE__@@PAUHRSRC__@@I@Z ; ATL::_AtlGetStringResourceImage
EXTRN	__imp__LockResource@4:NEAR
EXTRN	__imp__LoadResource@8:NEAR
EXTRN	__imp__SizeofResource@8:NEAR
; Function compile flags: /Ogty
; File c:\program files (x86)\microsoft visual studio .net 2003\vc7\atlmfc\include\atlcore.h
;	COMDAT ?_AtlGetStringResourceImage@ATL@@YAPBUATLSTRINGRESOURCEIMAGE@1@PAUHINSTANCE__@@PAUHRSRC__@@I@Z
_TEXT	SEGMENT
_hInstance$ = 8						; size = 4
_hResource$ = 12					; size = 4
_id$ = 16						; size = 4
?_AtlGetStringResourceImage@ATL@@YAPBUATLSTRINGRESOURCEIMAGE@1@PAUHINSTANCE__@@PAUHRSRC__@@I@Z PROC NEAR ; ATL::_AtlGetStringResourceImage, COMDAT

; 239  : {

  00000	53		 push	 ebx

; 240  : 	const ATLSTRINGRESOURCEIMAGE* pImage;
; 241  : 	const ATLSTRINGRESOURCEIMAGE* pImageEnd;
; 242  : 	ULONG nResourceSize;
; 243  : 	HGLOBAL hGlobal;
; 244  : 	UINT iIndex;
; 245  : 
; 246  : 	hGlobal = ::LoadResource( hInstance, hResource );

  00001	8b 5c 24 08	 mov	 ebx, DWORD PTR _hInstance$[esp]
  00005	57		 push	 edi
  00006	8b 7c 24 10	 mov	 edi, DWORD PTR _hResource$[esp+4]
  0000a	57		 push	 edi
  0000b	53		 push	 ebx
  0000c	ff 15 00 00 00
	00		 call	 DWORD PTR __imp__LoadResource@8

; 247  : 	if( hGlobal == NULL )

  00012	85 c0		 test	 eax, eax
  00014	75 03		 jne	 SHORT $L59408
  00016	5f		 pop	 edi
  00017	5b		 pop	 ebx

; 272  : 	{
; 273  : 		return( NULL );
; 274  : 	}
; 275  : 
; 276  : 	return( pImage );
; 277  : }

  00018	c3		 ret	 0
$L59408:
  00019	56		 push	 esi

; 248  : 	{
; 249  : 		return( NULL );
; 250  : 	}
; 251  : 
; 252  : 	pImage = (const ATLSTRINGRESOURCEIMAGE*)::LockResource( hGlobal );

  0001a	50		 push	 eax
  0001b	ff 15 00 00 00
	00		 call	 DWORD PTR __imp__LockResource@4
  00021	8b f0		 mov	 esi, eax

; 253  : 	if( pImage == NULL )

  00023	85 f6		 test	 esi, esi
  00025	75 06		 jne	 SHORT $L59410
$L177535:
  00027	5e		 pop	 esi
  00028	5f		 pop	 edi

; 254  : 	{
; 255  : 		return( NULL );

  00029	33 c0		 xor	 eax, eax
  0002b	5b		 pop	 ebx

; 272  : 	{
; 273  : 		return( NULL );
; 274  : 	}
; 275  : 
; 276  : 	return( pImage );
; 277  : }

  0002c	c3		 ret	 0
$L59410:

; 256  : 	}
; 257  : 
; 258  : 	nResourceSize = ::SizeofResource( hInstance, hResource );

  0002d	57		 push	 edi
  0002e	53		 push	 ebx
  0002f	ff 15 00 00 00
	00		 call	 DWORD PTR __imp__SizeofResource@8

; 259  : 	pImageEnd = (const ATLSTRINGRESOURCEIMAGE*)(LPBYTE( pImage )+nResourceSize);
; 260  : 	iIndex = id&0x000f;

  00035	8b 4c 24 18	 mov	 ecx, DWORD PTR _id$[esp+8]
  00039	03 c6		 add	 eax, esi
  0003b	83 e1 0f	 and	 ecx, 15			; 0000000fH

; 261  : 
; 262  : 	while( (iIndex > 0) && (pImage < pImageEnd) )

  0003e	76 0e		 jbe	 SHORT $L59414
$L59413:
  00040	3b f0		 cmp	 esi, eax
  00042	73 e3		 jae	 SHORT $L177535

; 263  : 	{
; 264  : 		pImage = (const ATLSTRINGRESOURCEIMAGE*)(LPBYTE( pImage )+(sizeof( ATLSTRINGRESOURCEIMAGE )+(pImage->nLength*sizeof( WCHAR ))));
; 265  : 		iIndex--;

  00044	49		 dec	 ecx
  00045	0f b7 16	 movzx	 edx, WORD PTR [esi]
  00048	8d 74 56 02	 lea	 esi, DWORD PTR [esi+edx*2+2]
  0004c	75 f2		 jne	 SHORT $L59413
$L59414:

; 266  : 	}
; 267  : 	if( pImage >= pImageEnd )

  0004e	3b f0		 cmp	 esi, eax

; 268  : 	{
; 269  : 		return( NULL );

  00050	73 d5		 jae	 SHORT $L177535

; 270  : 	}
; 271  : 	if( pImage->nLength == 0 )

  00052	66 8b 06	 mov	 ax, WORD PTR [esi]
  00055	66 f7 d8	 neg	 ax
  00058	1b c0		 sbb	 eax, eax
  0005a	23 c6		 and	 eax, esi
  0005c	5e		 pop	 esi
  0005d	5f		 pop	 edi
  0005e	5b		 pop	 ebx

; 272  : 	{
; 273  : 		return( NULL );
; 274  : 	}
; 275  : 
; 276  : 	return( pImage );
; 277  : }

  0005f	c3		 ret	 0
?_AtlGetStringResourceImage@ATL@@YAPBUATLSTRINGRESOURCEIMAGE@1@PAUHINSTANCE__@@PAUHRSRC__@@I@Z ENDP ; ATL::_AtlGetStringResourceImage
_TEXT	ENDS
PUBLIC	?AtlGetStringResourceImage@ATL@@YAPBUATLSTRINGRESOURCEIMAGE@1@PAUHINSTANCE__@@I@Z ; ATL::AtlGetStringResourceImage
EXTRN	__imp__FindResourceA@12:NEAR
; Function compile flags: /Ogty
;	COMDAT ?AtlGetStringResourceImage@ATL@@YAPBUATLSTRINGRESOURCEIMAGE@1@PAUHINSTANCE__@@I@Z
_TEXT	SEGMENT
_hInstance$ = 8						; size = 4
_id$ = 12						; size = 4
?AtlGetStringResourceImage@ATL@@YAPBUATLSTRINGRESOURCEIMAGE@1@PAUHINSTANCE__@@I@Z PROC NEAR ; ATL::AtlGetStringResourceImage, COMDAT

; 280  : {

  00000	56		 push	 esi

; 281  : 	HRSRC hResource;
; 282  : 
; 283  : 	hResource = ::FindResource( hInstance, MAKEINTRESOURCE( ((id>>4)+1) ), RT_STRING );

  00001	8b 74 24 0c	 mov	 esi, DWORD PTR _id$[esp]
  00005	8b c6		 mov	 eax, esi
  00007	c1 e8 04	 shr	 eax, 4
  0000a	57		 push	 edi
  0000b	8b 7c 24 0c	 mov	 edi, DWORD PTR _hInstance$[esp+4]
  0000f	40		 inc	 eax
  00010	0f b7 c8	 movzx	 ecx, ax
  00013	6a 06		 push	 6
  00015	51		 push	 ecx
  00016	57		 push	 edi
  00017	ff 15 00 00 00
	00		 call	 DWORD PTR __imp__FindResourceA@12

; 284  : 	if( hResource == NULL )

  0001d	85 c0		 test	 eax, eax
  0001f	75 03		 jne	 SHORT $L59431
  00021	5f		 pop	 edi
  00022	5e		 pop	 esi

; 290  : }

  00023	c3		 ret	 0
$L59431:

; 285  : 	{
; 286  : 		return( NULL );
; 287  : 	}
; 288  : 
; 289  : 	return _AtlGetStringResourceImage( hInstance, hResource, id );

  00024	56		 push	 esi
  00025	50		 push	 eax
  00026	57		 push	 edi
  00027	e8 00 00 00 00	 call	 ?_AtlGetStringResourceImage@ATL@@YAPBUATLSTRINGRESOURCEIMAGE@1@PAUHINSTANCE__@@PAUHRSRC__@@I@Z ; ATL::_AtlGetStringResourceImage
  0002c	83 c4 0c	 add	 esp, 12			; 0000000cH
  0002f	5f		 pop	 edi
  00030	5e		 pop	 esi

; 290  : }

  00031	c3		 ret	 0
?AtlGetStringResourceImage@ATL@@YAPBUATLSTRINGRESOURCEIMAGE@1@PAUHINSTANCE__@@I@Z ENDP ; ATL::AtlGetStringResourceImage
_TEXT	ENDS
PUBLIC	?AtlGetStringResourceImage@ATL@@YAPBUATLSTRINGRESOURCEIMAGE@1@PAUHINSTANCE__@@IG@Z ; ATL::AtlGetStringResourceImage
EXTRN	__imp__FindResourceExA@16:NEAR
; Function compile flags: /Ogty
;	COMDAT ?AtlGetStringResourceImage@ATL@@YAPBUATLSTRINGRESOURCEIMAGE@1@PAUHINSTANCE__@@IG@Z
_TEXT	SEGMENT
_hInstance$ = 8						; size = 4
_id$ = 12						; size = 4
_wLanguage$ = 16					; size = 2
?AtlGetStringResourceImage@ATL@@YAPBUATLSTRINGRESOURCEIMAGE@1@PAUHINSTANCE__@@IG@Z PROC NEAR ; ATL::AtlGetStringResourceImage, COMDAT

; 294  : 	HRSRC hResource;
; 295  : 
; 296  : 	hResource = ::FindResourceEx( hInstance, RT_STRING, MAKEINTRESOURCE( ((id>>4)+1) ), wLanguage );

  00000	8b 44 24 0c	 mov	 eax, DWORD PTR _wLanguage$[esp-4]
  00004	56		 push	 esi
  00005	8b 74 24 0c	 mov	 esi, DWORD PTR _id$[esp]
  00009	8b ce		 mov	 ecx, esi
  0000b	57		 push	 edi
  0000c	8b 7c 24 0c	 mov	 edi, DWORD PTR _hInstance$[esp+4]
  00010	c1 e9 04	 shr	 ecx, 4
  00013	41		 inc	 ecx
  00014	50		 push	 eax
  00015	0f b7 d1	 movzx	 edx, cx
  00018	52		 push	 edx
  00019	6a 06		 push	 6
  0001b	57		 push	 edi
  0001c	ff 15 00 00 00
	00		 call	 DWORD PTR __imp__FindResourceExA@16

; 297  : 	if( hResource == NULL )

  00022	85 c0		 test	 eax, eax
  00024	75 03		 jne	 SHORT $L59445
  00026	5f		 pop	 edi
  00027	5e		 pop	 esi

; 303  : }

  00028	c3		 ret	 0
$L59445:

; 298  : 	{
; 299  : 		return( NULL );
; 300  : 	}
; 301  : 
; 302  : 	return _AtlGetStringResourceImage( hInstance, hResource, id );

  00029	56		 push	 esi
  0002a	50		 push	 eax
  0002b	57		 push	 edi
  0002c	e8 00 00 00 00	 call	 ?_AtlGetStringResourceImage@ATL@@YAPBUATLSTRINGRESOURCEIMAGE@1@PAUHINSTANCE__@@PAUHRSRC__@@I@Z ; ATL::_AtlGetStringResourceImage
  00031	83 c4 0c	 add	 esp, 12			; 0000000cH
  00034	5f		 pop	 edi
  00035	5e		 pop	 esi

; 303  : }

  00036	c3		 ret	 0
?AtlGetStringResourceImage@ATL@@YAPBUATLSTRINGRESOURCEIMAGE@1@PAUHINSTANCE__@@IG@Z ENDP ; ATL::AtlGetStringResourceImage
_TEXT	ENDS
PUBLIC	?AtlFindStringResourceInstance@ATL@@YAPAUHINSTANCE__@@IG@Z ; ATL::AtlFindStringResourceInstance
EXTRN	?GetHInstanceAt@CAtlBaseModule@ATL@@QAEPAUHINSTANCE__@@H@Z:NEAR ; ATL::CAtlBaseModule::GetHInstanceAt
EXTRN	?_AtlBaseModule@ATL@@3VCAtlBaseModule@1@A:BYTE	; ATL::_AtlBaseModule
; Function compile flags: /Ogty
;	COMDAT ?AtlFindStringResourceInstance@ATL@@YAPAUHINSTANCE__@@IG@Z
_TEXT	SEGMENT
_nID$ = 8						; size = 4
_wLanguage$ = 12					; size = 2
?AtlFindStringResourceInstance@ATL@@YAPAUHINSTANCE__@@IG@Z PROC NEAR ; ATL::AtlFindStringResourceInstance, COMDAT

; 380  : {

  00000	53		 push	 ebx
  00001	55		 push	 ebp
  00002	56		 push	 esi
  00003	57		 push	 edi

; 381  : 	const ATLSTRINGRESOURCEIMAGE* p = NULL;

  00004	33 ff		 xor	 edi, edi

; 382  : 	HINSTANCE hInst = _AtlBaseModule.GetHInstanceAt(0);

  00006	57		 push	 edi
  00007	b9 00 00 00 00	 mov	 ecx, OFFSET FLAT:?_AtlBaseModule@ATL@@3VCAtlBaseModule@1@A
  0000c	e8 00 00 00 00	 call	 ?GetHInstanceAt@CAtlBaseModule@ATL@@QAEPAUHINSTANCE__@@H@Z ; ATL::CAtlBaseModule::GetHInstanceAt
  00011	8b f0		 mov	 esi, eax

; 383  : 
; 384  : 	for (int i = 1; hInst != NULL && p == NULL; hInst = _AtlBaseModule.GetHInstanceAt(i++))

  00013	85 f6		 test	 esi, esi
  00015	bd 01 00 00 00	 mov	 ebp, 1
  0001a	74 47		 je	 SHORT $L59538
  0001c	8b 5c 24 14	 mov	 ebx, DWORD PTR _nID$[esp+12]
$L59536:
  00020	85 ff		 test	 edi, edi
  00022	75 3f		 jne	 SHORT $L59538

; 385  : 	{
; 386  : 		p = AtlGetStringResourceImage(hInst, nID, wLanguage);

  00024	8b 44 24 18	 mov	 eax, DWORD PTR _wLanguage$[esp+12]
  00028	8b cb		 mov	 ecx, ebx
  0002a	c1 e9 04	 shr	 ecx, 4
  0002d	41		 inc	 ecx
  0002e	50		 push	 eax
  0002f	0f b7 d1	 movzx	 edx, cx
  00032	52		 push	 edx
  00033	6a 06		 push	 6
  00035	56		 push	 esi
  00036	ff 15 00 00 00
	00		 call	 DWORD PTR __imp__FindResourceExA@16
  0003c	85 c0		 test	 eax, eax
  0003e	74 11		 je	 SHORT $L177554
$L177549:
  00040	53		 push	 ebx
  00041	50		 push	 eax
  00042	56		 push	 esi
  00043	e8 00 00 00 00	 call	 ?_AtlGetStringResourceImage@ATL@@YAPBUATLSTRINGRESOURCEIMAGE@1@PAUHINSTANCE__@@PAUHRSRC__@@I@Z ; ATL::_AtlGetStringResourceImage
  00048	8b f8		 mov	 edi, eax
  0004a	83 c4 0c	 add	 esp, 12			; 0000000cH

; 387  : 		if (p != NULL)

  0004d	85 ff		 test	 edi, edi
  0004f	75 19		 jne	 SHORT $L177552
$L177554:

; 383  : 
; 384  : 	for (int i = 1; hInst != NULL && p == NULL; hInst = _AtlBaseModule.GetHInstanceAt(i++))

  00051	55		 push	 ebp
  00052	b9 00 00 00 00	 mov	 ecx, OFFSET FLAT:?_AtlBaseModule@ATL@@3VCAtlBaseModule@1@A
  00057	e8 00 00 00 00	 call	 ?GetHInstanceAt@CAtlBaseModule@ATL@@QAEPAUHINSTANCE__@@H@Z ; ATL::CAtlBaseModule::GetHInstanceAt
  0005c	8b f0		 mov	 esi, eax
  0005e	45		 inc	 ebp
  0005f	85 f6		 test	 esi, esi
  00061	75 bd		 jne	 SHORT $L59536
$L59538:
  00063	5f		 pop	 edi
  00064	5e		 pop	 esi
  00065	5d		 pop	 ebp

; 389  : 	}
; 390  : 
; 391  : 	return NULL;

  00066	33 c0		 xor	 eax, eax
  00068	5b		 pop	 ebx

; 392  : }

  00069	c3		 ret	 0
$L177552:
  0006a	5f		 pop	 edi

; 388  : 			return hInst;

  0006b	8b c6		 mov	 eax, esi
  0006d	5e		 pop	 esi
  0006e	5d		 pop	 ebp
  0006f	5b		 pop	 ebx

; 392  : }

  00070	c3		 ret	 0
?AtlFindStringResourceInstance@ATL@@YAPAUHINSTANCE__@@IG@Z ENDP ; ATL::AtlFindStringResourceInstance
_TEXT	ENDS
PUBLIC	??0const_iterator@?$_Tree@V?$_Tmap_traits@EPAUtagTMAGIC@@U?$less@E@std@@V?$allocator@U?$pair@$$CBEPAUtagTMAGIC@@@std@@@3@$0A@@std@@@std@@QAE@XZ ; std::_Tree<std::_Tmap_traits<unsigned char,tagTMAGIC *,std::less<unsigned char>,std::allocator<std::pair<unsigned char const ,tagTMAGIC *> >,0> >::const_iterator::const_iterator
; Function compile flags: /Ogty
; File c:\program files (x86)\microsoft visual studio .net 2003\vc7\include\xtree
;	COMDAT ??0const_iterator@?$_Tree@V?$_Tmap_traits@EPAUtagTMAGIC@@U?$less@E@std@@V?$allocator@U?$pair@$$CBEPAUtagTMAGIC@@@std@@@3@$0A@@std@@@std@@QAE@XZ
_TEXT	SEGMENT
??0const_iterator@?$_Tree@V?$_Tmap_traits@EPAUtagTMAGIC@@U?$less@E@std@@V?$allocator@U?$pair@$$CBEPAUtagTMAGIC@@@std@@@3@$0A@@std@@@std@@QAE@XZ PROC NEAR ; std::_Tree<std::_Tmap_traits<unsigned char,tagTMAGIC *,std::less<unsigned char>,std::allocator<std::pair<unsigned char const ,tagTMAGIC *> >,0> >::const_iterator::const_iterator, COMDAT
; _this$ = ecx

; 193  : 			{	// construct with null node pointer

  00000	8b c1		 mov	 eax, ecx
  00002	c7 00 00 00 00
	00		 mov	 DWORD PTR [eax], 0

; 194  : 			}

  00008	c3		 ret	 0
??0const_iterator@?$_Tree@V?$_Tmap_traits@EPAUtagTMAGIC@@U?$less@E@std@@V?$allocator@U?$pair@$$CBEPAUtagTMAGIC@@@std@@@3@$0A@@std@@@std@@QAE@XZ ENDP ; std::_Tree<std::_Tmap_traits<unsigned char,tagTMAGIC *,std::less<unsigned char>,std::allocator<std::pair<unsigned char const ,tagTMAGIC *> >,0> >::const_iterator::const_iterator
_TEXT	ENDS
PUBLIC	??8const_iterator@?$_Tree@V?$_Tmap_traits@EPAUtagTMAGIC@@U?$less@E@std@@V?$allocator@U?$pair@$$CBEPAUtagTMAGIC@@@std@@@3@$0A@@std@@@std@@QBE_NABV012@@Z ; std::_Tree<std::_Tmap_traits<unsigned char,tagTMAGIC *,std::less<unsigned char>,std::allocator<std::pair<unsigned char const ,tagTMAGIC *> >,0> >::const_iterator::operator==
; Function compile flags: /Ogty
;	COMDAT ??8const_iterator@?$_Tree@V?$_Tmap_traits@EPAUtagTMAGIC@@U?$less@E@std@@V?$allocator@U?$pair@$$CBEPAUtagTMAGIC@@@std@@@3@$0A@@std@@@std@@QBE_NABV012@@Z
_TEXT	SEGMENT
__Right$ = 8						; size = 4
??8const_iterator@?$_Tree@V?$_Tmap_traits@EPAUtagTMAGIC@@U?$less@E@std@@V?$allocator@U?$pair@$$CBEPAUtagTMAGIC@@@std@@@3@$0A@@std@@@std@@QBE_NABV012@@Z PROC NEAR ; std::_Tree<std::_Tmap_traits<unsigned char,tagTMAGIC *,std::less<unsigned char>,std::allocator<std::pair<unsigned char const ,tagTMAGIC *> >,0> >::const_iterator::operator==, COMDAT
; _this$ = ecx

; 241  : 			return (_Ptr == _Right._Ptr);

  00000	8b 01		 mov	 eax, DWORD PTR [ecx]
  00002	8b 4c 24 04	 mov	 ecx, DWORD PTR __Right$[esp-4]
  00006	2b 01		 sub	 eax, DWORD PTR [ecx]
  00008	f7 d8		 neg	 eax
  0000a	1b c0		 sbb	 eax, eax
  0000c	40		 inc	 eax

; 242  : 			}

  0000d	c2 04 00	 ret	 4
??8const_iterator@?$_Tree@V?$_Tmap_traits@EPAUtagTMAGIC@@U?$less@E@std@@V?$allocator@U?$pair@$$CBEPAUtagTMAGIC@@@std@@@3@$0A@@std@@@std@@QBE_NABV012@@Z ENDP ; std::_Tree<std::_Tmap_traits<unsigned char,tagTMAGIC *,std::less<unsigned char>,std::allocator<std::pair<unsigned char const ,tagTMAGIC *> >,0> >::const_iterator::operator==
_TEXT	ENDS
PUBLIC	?_Left@?$_Tree@V?$_Tmap_traits@EPAUtagTMAGIC@@U?$less@E@std@@V?$allocator@U?$pair@$$CBEPAUtagTMAGIC@@@std@@@3@$0A@@std@@@std@@KAAAPAU_Node@?$_Tree_nod@V?$_Tmap_traits@EPAUtagTMAGIC@@U?$less@E@std@@V?$allocator@U?$pair@$$CBEPAUtagTMAGIC@@@std@@@3@$0A@@std@@@2@PAU342@@Z ; std::_Tree<std::_Tmap_traits<unsigned char,tagTMAGIC *,std::less<unsigned char>,std::allocator<std::pair<unsigned char const ,tagTMAGIC *> >,0> >::_Left
; Function compile flags: /Ogty
;	COMDAT ?_Left@?$_Tree@V?$_Tmap_traits@EPAUtagTMAGIC@@U?$less@E@std@@V?$allocator@U?$pair@$$CBEPAUtagTMAGIC@@@std@@@3@$0A@@std@@@std@@KAAAPAU_Node@?$_Tree_nod@V?$_Tmap_traits@EPAUtagTMAGIC@@U?$less@E@std@@V?$allocator@U?$pair@$$CBEPAUtagTMAGIC@@@std@@@3@$0A@@std@@@2@PAU342@@Z
_TEXT	SEGMENT
__Pnode$ = 8						; size = 4
?_Left@?$_Tree@V?$_Tmap_traits@EPAUtagTMAGIC@@U?$less@E@std@@V?$allocator@U?$pair@$$CBEPAUtagTMAGIC@@@std@@@3@$0A@@std@@@std@@KAAAPAU_Node@?$_Tree_nod@V?$_Tmap_traits@EPAUtagTMAGIC@@U?$less@E@std@@V?$allocator@U?$pair@$$CBEPAUtagTMAGIC@@@std@@@3@$0A@@std@@@2@PAU342@@Z PROC NEAR ; std::_Tree<std::_Tmap_traits<unsigned char,tagTMAGIC *,std::less<unsigned char>,std::allocator<std::pair<unsigned char const ,tagTMAGIC *> >,0> >::_Left, COMDAT

; 147  : 		return ((_Nodepref)(*_Pnode)._Left);

  00000	8b 44 24 04	 mov	 eax, DWORD PTR __Pnode$[esp-4]

; 148  : 		}

  00004	c3		 ret	 0
?_Left@?$_Tree@V?$_Tmap_traits@EPAUtagTMAGIC@@U?$less@E@std@@V?$allocator@U?$pair@$$CBEPAUtagTMAGIC@@@std@@@3@$0A@@std@@@std@@KAAAPAU_Node@?$_Tree_nod@V?$_Tmap_traits@EPAUtagTMAGIC@@U?$less@E@std@@V?$allocator@U?$pair@$$CBEPAUtagTMAGIC@@@std@@@3@$0A@@std@@@2@PAU342@@Z ENDP ; std::_Tree<std::_Tmap_traits<unsigned char,tagTMAGIC *,std::less<unsigned char>,std::allocator<std::pair<unsigned char const ,tagTMAGIC *> >,0> >::_Left
_TEXT	ENDS
PUBLIC	?_Myval@?$_Tree@V?$_Tmap_traits@EPAUtagTMAGIC@@U?$less@E@std@@V?$allocator@U?$pair@$$CBEPAUtagTMAGIC@@@std@@@3@$0A@@std@@@std@@KAAAU?$pair@$$CBEPAUtagTMAGIC@@@2@PAU_Node@?$_Tree_nod@V?$_Tmap_traits@EPAUtagTMAGIC@@U?$less@E@std@@V?$allocator@U?$pair@$$CBEPAUtagTMAGIC@@@std@@@3@$0A@@std@@@2@@Z ; std::_Tree<std::_Tmap_traits<unsigned char,tagTMAGIC *,std::less<unsigned char>,std::allocator<std::pair<unsigned char const ,tagTMAGIC *> >,0> >::_Myval
; Function compile flags: /Ogty
;	COMDAT ?_Myval@?$_Tree@V?$_Tmap_traits@EPAUtagTMAGIC@@U?$less@E@std@@V?$allocator@U?$pair@$$CBEPAUtagTMAGIC@@@std@@@3@$0A@@std@@@std@@KAAAU?$pair@$$CBEPAUtagTMAGIC@@@2@PAU_Node@?$_Tree_nod@V?$_Tmap_traits@EPAUtagTMAGIC@@U?$less@E@std@@V?$allocator@U?$pair@$$CBEPAUtagTMAGIC@@@std@@@3@$0A@@std@@@2@@Z
_TEXT	SEGMENT
__Pnode$ = 8						; size = 4
?_Myval@?$_Tree@V?$_Tmap_traits@EPAUtagTMAGIC@@U?$less@E@std@@V?$allocator@U?$pair@$$CBEPAUtagTMAGIC@@@std@@@3@$0A@@std@@@std@@KAAAU?$pair@$$CBEPAUtagTMAGIC@@@2@PAU_Node@?$_Tree_nod@V?$_Tmap_traits@EPAUtagTMAGIC@@U?$less@E@std@@V?$allocator@U?$pair@$$CBEPAUtagTMAGIC@@@std@@@3@$0A@@std@@@2@@Z PROC NEAR ; std::_Tree<std::_Tmap_traits<unsigned char,tagTMAGIC *,std::less<unsigned char>,std::allocator<std::pair<unsigned char const ,tagTMAGIC *> >,0> >::_Myval, COMDAT

; 162  : 		return ((_Vref)(*_Pnode)._Myval);

  00000	8b 44 24 04	 mov	 eax, DWORD PTR __Pnode$[esp-4]
  00004	83 c0 0c	 add	 eax, 12			; 0000000cH

; 163  : 		}

  00007	c3		 ret	 0
?_Myval@?$_Tree@V?$_Tmap_traits@EPAUtagTMAGIC@@U?$less@E@std@@V?$allocator@U?$pair@$$CBEPAUtagTMAGIC@@@std@@@3@$0A@@std@@@std@@KAAAU?$pair@$$CBEPAUtagTMAGIC@@@2@PAU_Node@?$_Tree_nod@V?$_Tmap_traits@EPAUtagTMAGIC@@U?$less@E@std@@V?$allocator@U?$pair@$$CBEPAUtagTMAGIC@@@std@@@3@$0A@@std@@@2@@Z ENDP ; std::_Tree<std::_Tmap_traits<unsigned char,tagTMAGIC *,std::less<unsigned char>,std::allocator<std::pair<unsigned char const ,tagTMAGIC *> >,0> >::_Myval
_TEXT	ENDS
PUBLIC	??0const_iterator@?$_Tree@V?$_Tmap_traits@EPAUtagTMAGIC@@U?$less@E@std@@V?$allocator@U?$pair@$$CBEPAUtagTMAGIC@@@std@@@3@$0A@@std@@@std@@QAE@PAU_Node@?$_Tree_nod@V?$_Tmap_traits@EPAUtagTMAGIC@@U?$less@E@std@@V?$allocator@U?$pair@$$CBEPAUtagTMAGIC@@@std@@@3@$0A@@std@@@2@@Z ; std::_Tree<std::_Tmap_traits<unsigned char,tagTMAGIC *,std::less<unsigned char>,std::allocator<std::pair<unsigned char const ,tagTMAGIC *> >,0> >::const_iterator::const_iterator
; Function compile flags: /Ogty
;	COMDAT ??0const_iterator@?$_Tree@V?$_Tmap_traits@EPAUtagTMAGIC@@U?$less@E@std@@V?$allocator@U?$pair@$$CBEPAUtagTMAGIC@@@std@@@3@$0A@@std@@@std@@QAE@PAU_Node@?$_Tree_nod@V?$_Tmap_traits@EPAUtagTMAGIC@@U?$less@E@std@@V?$allocator@U?$pair@$$CBEPAUtagTMAGIC@@@std@@@3@$0A@@std@@@2@@Z
_TEXT	SEGMENT
__Pnode$ = 8						; size = 4
??0const_iterator@?$_Tree@V?$_Tmap_traits@EPAUtagTMAGIC@@U?$less@E@std@@V?$allocator@U?$pair@$$CBEPAUtagTMAGIC@@@std@@@3@$0A@@std@@@std@@QAE@PAU_Node@?$_Tree_nod@V?$_Tmap_traits@EPAUtagTMAGIC@@U?$less@E@std@@V?$allocator@U?$pair@$$CBEPAUtagTMAGIC@@@std@@@3@$0A@@std@@@2@@Z PROC NEAR ; std::_Tree<std::_Tmap_traits<unsigned char,tagTMAGIC *,std::less<unsigned char>,std::allocator<std::pair<unsigned char const ,tagTMAGIC *> >,0> >::const_iterator::const_iterator, COMDAT
; _this$ = ecx

; 200  : 			{	// construct with node pointer _Pnode

  00000	8b c1		 mov	 eax, ecx
  00002	8b 4c 24 04	 mov	 ecx, DWORD PTR __Pnode$[esp-4]
  00006	89 08		 mov	 DWORD PTR [eax], ecx

; 201  : 			}

  00008	c2 04 00	 ret	 4
??0const_iterator@?$_Tree@V?$_Tmap_traits@EPAUtagTMAGIC@@U?$less@E@std@@V?$allocator@U?$pair@$$CBEPAUtagTMAGIC@@@std@@@3@$0A@@std@@@std@@QAE@PAU_Node@?$_Tree_nod@V?$_Tmap_traits@EPAUtagTMAGIC@@U?$less@E@std@@V?$allocator@U?$pair@$$CBEPAUtagTMAGIC@@@std@@@3@$0A@@std@@@2@@Z ENDP ; std::_Tree<std::_Tmap_traits<unsigned char,tagTMAGIC *,std::less<unsigned char>,std::allocator<std::pair<unsigned char const ,tagTMAGIC *> >,0> >::const_iterator::const_iterator
_TEXT	ENDS
PUBLIC	?_Isnil@?$_Tree@V?$_Tmap_traits@EPAUtagTMAGIC@@U?$less@E@std@@V?$allocator@U?$pair@$$CBEPAUtagTMAGIC@@@std@@@3@$0A@@std@@@std@@KAAADPAU_Node@?$_Tree_nod@V?$_Tmap_traits@EPAUtagTMAGIC@@U?$less@E@std@@V?$allocator@U?$pair@$$CBEPAUtagTMAGIC@@@std@@@3@$0A@@std@@@2@@Z ; std::_Tree<std::_Tmap_traits<unsigned char,tagTMAGIC *,std::less<unsigned char>,std::allocator<std::pair<unsigned char const ,tagTMAGIC *> >,0> >::_Isnil
; Function compile flags: /Ogty
;	COMDAT ?_Isnil@?$_Tree@V?$_Tmap_traits@EPAUtagTMAGIC@@U?$less@E@std@@V?$allocator@U?$pair@$$CBEPAUtagTMAGIC@@@std@@@3@$0A@@std@@@std@@KAAADPAU_Node@?$_Tree_nod@V?$_Tmap_traits@EPAUtagTMAGIC@@U?$less@E@std@@V?$allocator@U?$pair@$$CBEPAUtagTMAGIC@@@std@@@3@$0A@@std@@@2@@Z
_TEXT	SEGMENT
__Pnode$ = 8						; size = 4
?_Isnil@?$_Tree@V?$_Tmap_traits@EPAUtagTMAGIC@@U?$less@E@std@@V?$allocator@U?$pair@$$CBEPAUtagTMAGIC@@@std@@@3@$0A@@std@@@std@@KAAADPAU_Node@?$_Tree_nod@V?$_Tmap_traits@EPAUtagTMAGIC@@U?$less@E@std@@V?$allocator@U?$pair@$$CBEPAUtagTMAGIC@@@std@@@3@$0A@@std@@@2@@Z PROC NEAR ; std::_Tree<std::_Tmap_traits<unsigned char,tagTMAGIC *,std::less<unsigned char>,std::allocator<std::pair<unsigned char const ,tagTMAGIC *> >,0> >::_Isnil, COMDAT

; 137  : 		return ((_Charref)(*_Pnode)._Isnil);

  00000	8b 44 24 04	 mov	 eax, DWORD PTR __Pnode$[esp-4]
  00004	83 c0 15	 add	 eax, 21			; 00000015H

; 138  : 		}

  00007	c3		 ret	 0
?_Isnil@?$_Tree@V?$_Tmap_traits@EPAUtagTMAGIC@@U?$less@E@std@@V?$allocator@U?$pair@$$CBEPAUtagTMAGIC@@@std@@@3@$0A@@std@@@std@@KAAADPAU_Node@?$_Tree_nod@V?$_Tmap_traits@EPAUtagTMAGIC@@U?$less@E@std@@V?$allocator@U?$pair@$$CBEPAUtagTMAGIC@@@std@@@3@$0A@@std@@@2@@Z ENDP ; std::_Tree<std::_Tmap_traits<unsigned char,tagTMAGIC *,std::less<unsigned char>,std::allocator<std::pair<unsigned char const ,tagTMAGIC *> >,0> >::_Isnil
_TEXT	ENDS
PUBLIC	?_Parent@?$_Tree@V?$_Tmap_traits@EPAUtagTMAGIC@@U?$less@E@std@@V?$allocator@U?$pair@$$CBEPAUtagTMAGIC@@@std@@@3@$0A@@std@@@std@@KAAAPAU_Node@?$_Tree_nod@V?$_Tmap_traits@EPAUtagTMAGIC@@U?$less@E@std@@V?$allocator@U?$pair@$$CBEPAUtagTMAGIC@@@std@@@3@$0A@@std@@@2@PAU342@@Z ; std::_Tree<std::_Tmap_traits<unsigned char,tagTMAGIC *,std::less<unsigned char>,std::allocator<std::pair<unsigned char const ,tagTMAGIC *> >,0> >::_Parent
; Function compile flags: /Ogty
;	COMDAT ?_Parent@?$_Tree@V?$_Tmap_traits@EPAUtagTMAGIC@@U?$less@E@std@@V?$allocator@U?$pair@$$CBEPAUtagTMAGIC@@@std@@@3@$0A@@std@@@std@@KAAAPAU_Node@?$_Tree_nod@V?$_Tmap_traits@EPAUtagTMAGIC@@U?$less@E@std@@V?$allocator@U?$pair@$$CBEPAUtagTMAGIC@@@std@@@3@$0A@@std@@@2@PAU342@@Z
_TEXT	SEGMENT
__Pnode$ = 8						; size = 4
?_Parent@?$_Tree@V?$_Tmap_traits@EPAUtagTMAGIC@@U?$less@E@std@@V?$allocator@U?$pair@$$CBEPAUtagTMAGIC@@@std@@@3@$0A@@std@@@std@@KAAAPAU_Node@?$_Tree_nod@V?$_Tmap_traits@EPAUtagTMAGIC@@U?$less@E@std@@V?$allocator@U?$pair@$$CBEPAUtagTMAGIC@@@std@@@3@$0A@@std@@@2@PAU342@@Z PROC NEAR ; std::_Tree<std::_Tmap_traits<unsigned char,tagTMAGIC *,std::less<unsigned char>,std::allocator<std::pair<unsigned char const ,tagTMAGIC *> >,0> >::_Parent, COMDAT

; 152  : 		return ((_Nodepref)(*_Pnode)._Parent);

  00000	8b 44 24 04	 mov	 eax, DWORD PTR __Pnode$[esp-4]
  00004	83 c0 04	 add	 eax, 4

; 153  : 		}

  00007	c3		 ret	 0
?_Parent@?$_Tree@V?$_Tmap_traits@EPAUtagTMAGIC@@U?$less@E@std@@V?$allocator@U?$pair@$$CBEPAUtagTMAGIC@@@std@@@3@$0A@@std@@@std@@KAAAPAU_Node@?$_Tree_nod@V?$_Tmap_traits@EPAUtagTMAGIC@@U?$less@E@std@@V?$allocator@U?$pair@$$CBEPAUtagTMAGIC@@@std@@@3@$0A@@std@@@2@PAU342@@Z ENDP ; std::_Tree<std::_Tmap_traits<unsigned char,tagTMAGIC *,std::less<unsigned char>,std::allocator<std::pair<unsigned char const ,tagTMAGIC *> >,0> >::_Parent
_TEXT	ENDS
PUBLIC	?_Right@?$_Tree@V?$_Tmap_traits@EPAUtagTMAGIC@@U?$less@E@std@@V?$allocator@U?$pair@$$CBEPAUtagTMAGIC@@@std@@@3@$0A@@std@@@std@@KAAAPAU_Node@?$_Tree_nod@V?$_Tmap_traits@EPAUtagTMAGIC@@U?$less@E@std@@V?$allocator@U?$pair@$$CBEPAUtagTMAGIC@@@std@@@3@$0A@@std@@@2@PAU342@@Z ; std::_Tree<std::_Tmap_traits<unsigned char,tagTMAGIC *,std::less<unsigned char>,std::allocator<std::pair<unsigned char const ,tagTMAGIC *> >,0> >::_Right
; Function compile flags: /Ogty
;	COMDAT ?_Right@?$_Tree@V?$_Tmap_traits@EPAUtagTMAGIC@@U?$less@E@std@@V?$allocator@U?$pair@$$CBEPAUtagTMAGIC@@@std@@@3@$0A@@std@@@std@@KAAAPAU_Node@?$_Tree_nod@V?$_Tmap_traits@EPAUtagTMAGIC@@U?$less@E@std@@V?$allocator@U?$pair@$$CBEPAUtagTMAGIC@@@std@@@3@$0A@@std@@@2@PAU342@@Z
_TEXT	SEGMENT
__Pnode$ = 8						; size = 4
?_Right@?$_Tree@V?$_Tmap_traits@EPAUtagTMAGIC@@U?$less@E@std@@V?$allocator@U?$pair@$$CBEPAUtagTMAGIC@@@std@@@3@$0A@@std@@@std@@KAAAPAU_Node@?$_Tree_nod@V?$_Tmap_traits@EPAUtagTMAGIC@@U?$less@E@std@@V?$allocator@U?$pair@$$CBEPAUtagTMAGIC@@@std@@@3@$0A@@std@@@2@PAU342@@Z PROC NEAR ; std::_Tree<std::_Tmap_traits<unsigned char,tagTMAGIC *,std::less<unsigned char>,std::allocator<std::pair<unsigned char const ,tagTMAGIC *> >,0> >::_Right, COMDAT

; 157  : 		return ((_Nodepref)(*_Pnode)._Right);

  00000	8b 44 24 04	 mov	 eax, DWORD PTR __Pnode$[esp-4]
  00004	83 c0 08	 add	 eax, 8

; 158  : 		}

  00007	c3		 ret	 0
?_Right@?$_Tree@V?$_Tmap_traits@EPAUtagTMAGIC@@U?$less@E@std@@V?$allocator@U?$pair@$$CBEPAUtagTMAGIC@@@std@@@3@$0A@@std@@@std@@KAAAPAU_Node@?$_Tree_nod@V?$_Tmap_traits@EPAUtagTMAGIC@@U?$less@E@std@@V?$allocator@U?$pair@$$CBEPAUtagTMAGIC@@@std@@@3@$0A@@std@@@2@PAU342@@Z ENDP ; std::_Tree<std::_Tmap_traits<unsigned char,tagTMAGIC *,std::less<unsigned char>,std::allocator<std::pair<unsigned char const ,tagTMAGIC *> >,0> >::_Right
_TEXT	ENDS
PUBLIC	?_Min@?$_Tree@V?$_Tmap_traits@EPAUtagTMAGIC@@U?$less@E@std@@V?$allocator@U?$pair@$$CBEPAUtagTMAGIC@@@std@@@3@$0A@@std@@@std@@KAPAU_Node@?$_Tree_nod@V?$_Tmap_traits@EPAUtagTMAGIC@@U?$less@E@std@@V?$allocator@U?$pair@$$CBEPAUtagTMAGIC@@@std@@@3@$0A@@std@@@2@PAU342@@Z ; std::_Tree<std::_Tmap_traits<unsigned char,tagTMAGIC *,std::less<unsigned char>,std::allocator<std::pair<unsigned char const ,tagTMAGIC *> >,0> >::_Min
; Function compile flags: /Ogty
;	COMDAT ?_Min@?$_Tree@V?$_Tmap_traits@EPAUtagTMAGIC@@U?$less@E@std@@V?$allocator@U?$pair@$$CBEPAUtagTMAGIC@@@std@@@3@$0A@@std@@@std@@KAPAU_Node@?$_Tree_nod@V?$_Tmap_traits@EPAUtagTMAGIC@@U?$less@E@std@@V?$allocator@U?$pair@$$CBEPAUtagTMAGIC@@@std@@@3@$0A@@std@@@2@PAU342@@Z
_TEXT	SEGMENT
__Pnode$ = 8						; size = 4
?_Min@?$_Tree@V?$_Tmap_traits@EPAUtagTMAGIC@@U?$less@E@std@@V?$allocator@U?$pair@$$CBEPAUtagTMAGIC@@@std@@@3@$0A@@std@@@std@@KAPAU_Node@?$_Tree_nod@V?$_Tmap_traits@EPAUtagTMAGIC@@U?$less@E@std@@V?$allocator@U?$pair@$$CBEPAUtagTMAGIC@@@std@@@3@$0A@@std@@@2@PAU342@@Z PROC NEAR ; std::_Tree<std::_Tmap_traits<unsigned char,tagTMAGIC *,std::less<unsigned char>,std::allocator<std::pair<unsigned char const ,tagTMAGIC *> >,0> >::_Min, COMDAT

; 1042 : 		while (!_Isnil(_Left(_Pnode)))

  00000	8b 44 24 04	 mov	 eax, DWORD PTR __Pnode$[esp-4]
  00004	8b 08		 mov	 ecx, DWORD PTR [eax]
  00006	8a 51 15	 mov	 dl, BYTE PTR [ecx+21]
  00009	84 d2		 test	 dl, dl
  0000b	75 0e		 jne	 SHORT $L176583
  0000d	8d 49 00	 npad	 3
$L176582:

; 1043 : 			_Pnode = _Left(_Pnode);

  00010	8b c1		 mov	 eax, ecx
  00012	8b 08		 mov	 ecx, DWORD PTR [eax]
  00014	8a 51 15	 mov	 dl, BYTE PTR [ecx+21]
  00017	84 d2		 test	 dl, dl
  00019	74 f5		 je	 SHORT $L176582
$L176583:

; 1044 : 		return (_Pnode);
; 1045 : 		}

  0001b	c3		 ret	 0
?_Min@?$_Tree@V?$_Tmap_traits@EPAUtagTMAGIC@@U?$less@E@std@@V?$allocator@U?$pair@$$CBEPAUtagTMAGIC@@@std@@@3@$0A@@std@@@std@@KAPAU_Node@?$_Tree_nod@V?$_Tmap_traits@EPAUtagTMAGIC@@U?$less@E@std@@V?$allocator@U?$pair@$$CBEPAUtagTMAGIC@@@std@@@3@$0A@@std@@@2@PAU342@@Z ENDP ; std::_Tree<std::_Tmap_traits<unsigned char,tagTMAGIC *,std::less<unsigned char>,std::allocator<std::pair<unsigned char const ,tagTMAGIC *> >,0> >::_Min
_TEXT	ENDS
PUBLIC	?data@CStringData@ATL@@QAEPAXXZ			; ATL::CStringData::data
; Function compile flags: /Ogty
; File c:\program files (x86)\microsoft visual studio .net 2003\vc7\atlmfc\include\atlsimpstr.h
;	COMDAT ?data@CStringData@ATL@@QAEPAXXZ
_TEXT	SEGMENT
?data@CStringData@ATL@@QAEPAXXZ PROC NEAR		; ATL::CStringData::data, COMDAT
; _this$ = ecx

; 66   : 		return (this+1);

  00000	8d 41 10	 lea	 eax, DWORD PTR [ecx+16]

; 67   : 	}

  00003	c3		 ret	 0
?data@CStringData@ATL@@QAEPAXXZ ENDP			; ATL::CStringData::data
_TEXT	ENDS
PUBLIC	?IsLocked@CStringData@ATL@@QBE_NXZ		; ATL::CStringData::IsLocked
; Function compile flags: /Ogty
;	COMDAT ?IsLocked@CStringData@ATL@@QBE_NXZ
_TEXT	SEGMENT
?IsLocked@CStringData@ATL@@QBE_NXZ PROC NEAR		; ATL::CStringData::IsLocked, COMDAT
; _this$ = ecx

; 76   : 		return nRefs < 0;

  00000	8b 51 0c	 mov	 edx, DWORD PTR [ecx+12]
  00003	33 c0		 xor	 eax, eax
  00005	85 d2		 test	 edx, edx
  00007	0f 9c c0	 setl	 al

; 77   : 	}

  0000a	c3		 ret	 0
?IsLocked@CStringData@ATL@@QBE_NXZ ENDP			; ATL::CStringData::IsLocked
_TEXT	ENDS
PUBLIC	?IsShared@CStringData@ATL@@QBE_NXZ		; ATL::CStringData::IsShared
; Function compile flags: /Ogty
;	COMDAT ?IsShared@CStringData@ATL@@QBE_NXZ
_TEXT	SEGMENT
?IsShared@CStringData@ATL@@QBE_NXZ PROC NEAR		; ATL::CStringData::IsShared, COMDAT
; _this$ = ecx

; 80   : 		return( nRefs > 1 ); 

  00000	8b 51 0c	 mov	 edx, DWORD PTR [ecx+12]
  00003	33 c0		 xor	 eax, eax
  00005	83 fa 01	 cmp	 edx, 1
  00008	0f 9f c0	 setg	 al

; 81   : 	}

  0000b	c3		 ret	 0
?IsShared@CStringData@ATL@@QBE_NXZ ENDP			; ATL::CStringData::IsShared
_TEXT	ENDS
PUBLIC	?Release@CStringData@ATL@@QAEXXZ		; ATL::CStringData::Release
; Function compile flags: /Ogty
;	COMDAT ?Release@CStringData@ATL@@QAEXXZ
_TEXT	SEGMENT
?Release@CStringData@ATL@@QAEXXZ PROC NEAR		; ATL::CStringData::Release, COMDAT
; _this$ = ecx

; 93   : 		ATLASSERT( nRefs != 0 );
; 94   : 
; 95   : 		if( _InterlockedDecrement( &nRefs ) <= 0 )

  00000	8d 41 0c	 lea	 eax, DWORD PTR [ecx+12]
  00003	83 ca ff	 or	 edx, -1
  00006	f0 0f c1 10	 lock	  xadd	 DWORD PTR [eax], edx
  0000a	4a		 dec	 edx
  0000b	85 d2		 test	 edx, edx
  0000d	7f 0a		 jg	 SHORT $L73499

; 96   : 		{
; 97   : 			pStringMgr->Free( this );

  0000f	8b 01		 mov	 eax, DWORD PTR [ecx]
  00011	8b 10		 mov	 edx, DWORD PTR [eax]
  00013	51		 push	 ecx
  00014	8b c8		 mov	 ecx, eax
  00016	ff 52 04	 call	 DWORD PTR [edx+4]
$L73499:

; 98   : 		}
; 99   : 	}

  00019	c3		 ret	 0
?Release@CStringData@ATL@@QAEXXZ ENDP			; ATL::CStringData::Release
_TEXT	ENDS
PUBLIC	??0CTime@ATL@@QAE@_J@Z				; ATL::CTime::CTime
; Function compile flags: /Ogty
; File c:\program files (x86)\microsoft visual studio .net 2003\vc7\atlmfc\include\atltime.inl
;	COMDAT ??0CTime@ATL@@QAE@_J@Z
_TEXT	SEGMENT
_time$ = 8						; size = 8
??0CTime@ATL@@QAE@_J@Z PROC NEAR			; ATL::CTime::CTime, COMDAT
; _this$ = ecx

; 149  : {

  00000	8b 54 24 08	 mov	 edx, DWORD PTR _time$[esp]
  00004	8b c1		 mov	 eax, ecx
  00006	8b 4c 24 04	 mov	 ecx, DWORD PTR _time$[esp-4]
  0000a	89 08		 mov	 DWORD PTR [eax], ecx
  0000c	89 50 04	 mov	 DWORD PTR [eax+4], edx

; 150  : }

  0000f	c2 08 00	 ret	 8
??0CTime@ATL@@QAE@_J@Z ENDP				; ATL::CTime::CTime
_TEXT	ENDS
PUBLIC	?GetLocalTm@CTime@ATL@@QBEPAUtm@@PAU3@@Z	; ATL::CTime::GetLocalTm
EXTRN	__localtime64:NEAR
; Function compile flags: /Ogty
;	COMDAT ?GetLocalTm@CTime@ATL@@QBEPAUtm@@PAU3@@Z
_TEXT	SEGMENT
_ptm$ = 8						; size = 4
?GetLocalTm@CTime@ATL@@QBEPAUtm@@PAU3@@Z PROC NEAR	; ATL::CTime::GetLocalTm, COMDAT
; _this$ = ecx

; 320  : {

  00000	53		 push	 ebx

; 321  : 	if (ptm != NULL)

  00001	8b 5c 24 08	 mov	 ebx, DWORD PTR _ptm$[esp]

; 322  : 	{
; 323  : 		struct tm* ptmTemp = _localtime64(&m_time);

  00005	51		 push	 ecx
  00006	e8 00 00 00 00	 call	 __localtime64
  0000b	83 c4 04	 add	 esp, 4
  0000e	85 db		 test	 ebx, ebx
  00010	74 19		 je	 SHORT $L77285

; 324  : 		if (ptmTemp == NULL)

  00012	85 c0		 test	 eax, eax
  00014	75 04		 jne	 SHORT $L77284
  00016	5b		 pop	 ebx

; 329  : 	}
; 330  : 	else
; 331  : 		return _localtime64(&m_time);
; 332  : }

  00017	c2 04 00	 ret	 4
$L77284:
  0001a	56		 push	 esi
  0001b	57		 push	 edi

; 325  : 			return NULL;    // indicates the m_time was not initialized!
; 326  : 
; 327  : 		*ptm = *ptmTemp;

  0001c	8b f0		 mov	 esi, eax
  0001e	b9 09 00 00 00	 mov	 ecx, 9
  00023	8b fb		 mov	 edi, ebx
  00025	f3 a5		 rep movsd
  00027	5f		 pop	 edi

; 328  : 		return ptm;

  00028	8b c3		 mov	 eax, ebx
  0002a	5e		 pop	 esi
$L77285:
  0002b	5b		 pop	 ebx

; 329  : 	}
; 330  : 	else
; 331  : 		return _localtime64(&m_time);
; 332  : }

  0002c	c2 04 00	 ret	 4
?GetLocalTm@CTime@ATL@@QBEPAUtm@@PAU3@@Z ENDP		; ATL::CTime::GetLocalTm
_TEXT	ENDS
PUBLIC	?GetYear@CTime@ATL@@QBEHXZ			; ATL::CTime::GetYear
; Function compile flags: /Ogty
;	COMDAT ?GetYear@CTime@ATL@@QBEHXZ
_TEXT	SEGMENT
?GetYear@CTime@ATL@@QBEHXZ PROC NEAR			; ATL::CTime::GetYear, COMDAT
; _this$ = ecx

; 359  : 	struct tm * ptm;
; 360  : 	ptm = GetLocalTm();

  00000	51		 push	 ecx
  00001	e8 00 00 00 00	 call	 __localtime64
  00006	83 c4 04	 add	 esp, 4

; 361  : 	return ptm ? (ptm->tm_year) + 1900 : 0 ; 

  00009	85 c0		 test	 eax, eax
  0000b	74 09		 je	 SHORT $L177615
  0000d	8b 40 14	 mov	 eax, DWORD PTR [eax+20]
  00010	05 6c 07 00 00	 add	 eax, 1900		; 0000076cH

; 362  : }

  00015	c3		 ret	 0
$L177615:

; 361  : 	return ptm ? (ptm->tm_year) + 1900 : 0 ; 

  00016	33 c0		 xor	 eax, eax

; 362  : }

  00018	c3		 ret	 0
?GetYear@CTime@ATL@@QBEHXZ ENDP				; ATL::CTime::GetYear
_TEXT	ENDS
PUBLIC	?GetMonth@CTime@ATL@@QBEHXZ			; ATL::CTime::GetMonth
; Function compile flags: /Ogty
;	COMDAT ?GetMonth@CTime@ATL@@QBEHXZ
_TEXT	SEGMENT
?GetMonth@CTime@ATL@@QBEHXZ PROC NEAR			; ATL::CTime::GetMonth, COMDAT
; _this$ = ecx

; 366  : 	struct tm * ptm;
; 367  : 	ptm = GetLocalTm();

  00000	51		 push	 ecx
  00001	e8 00 00 00 00	 call	 __localtime64
  00006	83 c4 04	 add	 esp, 4

; 368  : 	return ptm ? ptm->tm_mon + 1 : 0;

  00009	85 c0		 test	 eax, eax
  0000b	74 05		 je	 SHORT $L177628
  0000d	8b 40 10	 mov	 eax, DWORD PTR [eax+16]
  00010	40		 inc	 eax

; 369  : }

  00011	c3		 ret	 0
$L177628:

; 368  : 	return ptm ? ptm->tm_mon + 1 : 0;

  00012	33 c0		 xor	 eax, eax

; 369  : }

  00014	c3		 ret	 0
?GetMonth@CTime@ATL@@QBEHXZ ENDP			; ATL::CTime::GetMonth
_TEXT	ENDS
PUBLIC	?GetDay@CTime@ATL@@QBEHXZ			; ATL::CTime::GetDay
; Function compile flags: /Ogty
;	COMDAT ?GetDay@CTime@ATL@@QBEHXZ
_TEXT	SEGMENT
?GetDay@CTime@ATL@@QBEHXZ PROC NEAR			; ATL::CTime::GetDay, COMDAT
; _this$ = ecx

; 373  : 	struct tm * ptm;
; 374  : 	ptm = GetLocalTm();

  00000	51		 push	 ecx
  00001	e8 00 00 00 00	 call	 __localtime64
  00006	83 c4 04	 add	 esp, 4

; 375  : 	return ptm ? ptm->tm_mday : 0 ; 

  00009	85 c0		 test	 eax, eax
  0000b	74 04		 je	 SHORT $L177641
  0000d	8b 40 0c	 mov	 eax, DWORD PTR [eax+12]

; 376  : }

  00010	c3		 ret	 0
$L177641:

; 375  : 	return ptm ? ptm->tm_mday : 0 ; 

  00011	33 c0		 xor	 eax, eax

; 376  : }

  00013	c3		 ret	 0
?GetDay@CTime@ATL@@QBEHXZ ENDP				; ATL::CTime::GetDay
_TEXT	ENDS
PUBLIC	?GetHour@CTime@ATL@@QBEHXZ			; ATL::CTime::GetHour
; Function compile flags: /Ogty
;	COMDAT ?GetHour@CTime@ATL@@QBEHXZ
_TEXT	SEGMENT
?GetHour@CTime@ATL@@QBEHXZ PROC NEAR			; ATL::CTime::GetHour, COMDAT
; _this$ = ecx

; 380  : 	struct tm * ptm;
; 381  : 	ptm = GetLocalTm();

  00000	51		 push	 ecx
  00001	e8 00 00 00 00	 call	 __localtime64
  00006	83 c4 04	 add	 esp, 4

; 382  : 	return ptm ? ptm->tm_hour : -1 ; 

  00009	85 c0		 test	 eax, eax
  0000b	74 04		 je	 SHORT $L177654
  0000d	8b 40 08	 mov	 eax, DWORD PTR [eax+8]

; 383  : }

  00010	c3		 ret	 0
$L177654:

; 382  : 	return ptm ? ptm->tm_hour : -1 ; 

  00011	83 c8 ff	 or	 eax, -1

; 383  : }

  00014	c3		 ret	 0
?GetHour@CTime@ATL@@QBEHXZ ENDP				; ATL::CTime::GetHour
_TEXT	ENDS
PUBLIC	?GetMinute@CTime@ATL@@QBEHXZ			; ATL::CTime::GetMinute
; Function compile flags: /Ogty
;	COMDAT ?GetMinute@CTime@ATL@@QBEHXZ
_TEXT	SEGMENT
?GetMinute@CTime@ATL@@QBEHXZ PROC NEAR			; ATL::CTime::GetMinute, COMDAT
; _this$ = ecx

; 387  : 	struct tm * ptm;
; 388  : 	ptm = GetLocalTm();

  00000	51		 push	 ecx
  00001	e8 00 00 00 00	 call	 __localtime64
  00006	83 c4 04	 add	 esp, 4

; 389  : 	return ptm ? ptm->tm_min : -1 ; 

  00009	85 c0		 test	 eax, eax
  0000b	74 04		 je	 SHORT $L177667
  0000d	8b 40 04	 mov	 eax, DWORD PTR [eax+4]

; 390  : }

  00010	c3		 ret	 0
$L177667:

; 389  : 	return ptm ? ptm->tm_min : -1 ; 

  00011	83 c8 ff	 or	 eax, -1

; 390  : }

  00014	c3		 ret	 0
?GetMinute@CTime@ATL@@QBEHXZ ENDP			; ATL::CTime::GetMinute
_TEXT	ENDS
PUBLIC	?GetSecond@CTime@ATL@@QBEHXZ			; ATL::CTime::GetSecond
; Function compile flags: /Ogty
;	COMDAT ?GetSecond@CTime@ATL@@QBEHXZ
_TEXT	SEGMENT
?GetSecond@CTime@ATL@@QBEHXZ PROC NEAR			; ATL::CTime::GetSecond, COMDAT
; _this$ = ecx

; 394  : 	struct tm * ptm;
; 395  : 	ptm = GetLocalTm();

  00000	51		 push	 ecx
  00001	e8 00 00 00 00	 call	 __localtime64
  00006	83 c4 04	 add	 esp, 4

; 396  : 	return ptm ? ptm->tm_sec : -1 ;

  00009	85 c0		 test	 eax, eax
  0000b	74 03		 je	 SHORT $L177680
  0000d	8b 00		 mov	 eax, DWORD PTR [eax]

; 397  : }

  0000f	c3		 ret	 0
$L177680:

; 396  : 	return ptm ? ptm->tm_sec : -1 ;

  00010	83 c8 ff	 or	 eax, -1

; 397  : }

  00013	c3		 ret	 0
?GetSecond@CTime@ATL@@QBEHXZ ENDP			; ATL::CTime::GetSecond
_TEXT	ENDS
PUBLIC	?__TIMETODB@@YAX_JAAUtagTIMESTAMP_STRUCT@@@Z	; __TIMETODB
; Function compile flags: /Ogty
; File c:\users\pierr\desktop\4story - oldschool\sources\tserver\tnetlib\tnetdef.h
;	COMDAT ?__TIMETODB@@YAX_JAAUtagTIMESTAMP_STRUCT@@@Z
_TEXT	SEGMENT
_time$90369 = 8						; size = 8
_time_t$ = 8						; size = 8
_timestamp$ = 16					; size = 4
?__TIMETODB@@YAX_JAAUtagTIMESTAMP_STRUCT@@@Z PROC NEAR	; __TIMETODB, COMDAT

; 53   : 	if(!time_t)

  00000	8b 44 24 04	 mov	 eax, DWORD PTR _time_t$[esp-4]
  00004	8b 4c 24 08	 mov	 ecx, DWORD PTR _time_t$[esp]
  00008	8b d0		 mov	 edx, eax
  0000a	0b d1		 or	 edx, ecx
  0000c	57		 push	 edi
  0000d	75 29		 jne	 SHORT $L90367

; 54   : 	{
; 55   : 		timestamp.year = 1900;

  0000f	8b 44 24 10	 mov	 eax, DWORD PTR _timestamp$[esp]

; 56   : 		timestamp.month = 1;
; 57   : 		timestamp.day = 1;
; 58   : 		timestamp.hour = 0;

  00013	33 ff		 xor	 edi, edi
  00015	b9 01 00 00 00	 mov	 ecx, 1
  0001a	66 89 78 06	 mov	 WORD PTR [eax+6], di

; 59   : 		timestamp.minute = 0;

  0001e	66 89 78 08	 mov	 WORD PTR [eax+8], di

; 60   : 		timestamp.second = 0;

  00022	66 89 78 0a	 mov	 WORD PTR [eax+10], di

; 61   : 		timestamp.fraction = 0;

  00026	89 78 0c	 mov	 DWORD PTR [eax+12], edi
  00029	66 c7 00 6c 07	 mov	 WORD PTR [eax], 1900	; 0000076cH
  0002e	66 89 48 02	 mov	 WORD PTR [eax+2], cx
  00032	66 89 48 04	 mov	 WORD PTR [eax+4], cx
  00036	5f		 pop	 edi

; 74   : 	}
; 75   : };

  00037	c3		 ret	 0
$L90367:

; 62   : 	}
; 63   : 	else
; 64   : 	{
; 65   : 		CTime time(time_t);

  00038	89 44 24 08	 mov	 DWORD PTR _time$90369[esp], eax

; 66   : 
; 67   : 		timestamp.year = time.GetYear();

  0003c	8d 44 24 08	 lea	 eax, DWORD PTR _time$90369[esp]
  00040	50		 push	 eax
  00041	89 4c 24 10	 mov	 DWORD PTR _time$90369[esp+8], ecx
  00045	e8 00 00 00 00	 call	 __localtime64
  0004a	33 ff		 xor	 edi, edi
  0004c	83 c4 04	 add	 esp, 4
  0004f	3b c7		 cmp	 eax, edi
  00051	74 0a		 je	 SHORT $L177710
  00053	8b 40 14	 mov	 eax, DWORD PTR [eax+20]
  00056	05 6c 07 00 00	 add	 eax, 1900		; 0000076cH
  0005b	eb 02		 jmp	 SHORT $L177711
$L177710:
  0005d	33 c0		 xor	 eax, eax
$L177711:
  0005f	56		 push	 esi
  00060	8b 74 24 14	 mov	 esi, DWORD PTR _timestamp$[esp+4]

; 68   : 		timestamp.month = time.GetMonth();

  00064	8d 4c 24 0c	 lea	 ecx, DWORD PTR _time$90369[esp+4]
  00068	51		 push	 ecx
  00069	66 89 06	 mov	 WORD PTR [esi], ax
  0006c	e8 00 00 00 00	 call	 __localtime64
  00071	83 c4 04	 add	 esp, 4
  00074	3b c7		 cmp	 eax, edi
  00076	74 06		 je	 SHORT $L177732
  00078	8b 40 10	 mov	 eax, DWORD PTR [eax+16]
  0007b	40		 inc	 eax
  0007c	eb 02		 jmp	 SHORT $L177733
$L177732:
  0007e	33 c0		 xor	 eax, eax
$L177733:

; 69   : 		timestamp.day = time.GetDay();

  00080	8d 54 24 0c	 lea	 edx, DWORD PTR _time$90369[esp+4]
  00084	52		 push	 edx
  00085	66 89 46 02	 mov	 WORD PTR [esi+2], ax
  00089	e8 00 00 00 00	 call	 __localtime64
  0008e	83 c4 04	 add	 esp, 4
  00091	3b c7		 cmp	 eax, edi
  00093	74 05		 je	 SHORT $L177754
  00095	8b 40 0c	 mov	 eax, DWORD PTR [eax+12]
  00098	eb 02		 jmp	 SHORT $L177755
$L177754:
  0009a	33 c0		 xor	 eax, eax
$L177755:
  0009c	66 89 46 04	 mov	 WORD PTR [esi+4], ax

; 70   : 		timestamp.hour = time.GetHour();

  000a0	8d 44 24 0c	 lea	 eax, DWORD PTR _time$90369[esp+4]
  000a4	50		 push	 eax
  000a5	e8 00 00 00 00	 call	 __localtime64
  000aa	83 c4 04	 add	 esp, 4
  000ad	3b c7		 cmp	 eax, edi
  000af	74 05		 je	 SHORT $L177776
  000b1	8b 40 08	 mov	 eax, DWORD PTR [eax+8]
  000b4	eb 03		 jmp	 SHORT $L177777
$L177776:
  000b6	83 c8 ff	 or	 eax, -1
$L177777:

; 71   : 		timestamp.minute = time.GetMinute();

  000b9	8d 4c 24 0c	 lea	 ecx, DWORD PTR _time$90369[esp+4]
  000bd	51		 push	 ecx
  000be	66 89 46 06	 mov	 WORD PTR [esi+6], ax
  000c2	e8 00 00 00 00	 call	 __localtime64
  000c7	83 c4 04	 add	 esp, 4
  000ca	3b c7		 cmp	 eax, edi
  000cc	74 05		 je	 SHORT $L177798
  000ce	8b 40 04	 mov	 eax, DWORD PTR [eax+4]
  000d1	eb 03		 jmp	 SHORT $L177799
$L177798:
  000d3	83 c8 ff	 or	 eax, -1
$L177799:

; 72   : 		timestamp.second = time.GetSecond();

  000d6	8d 54 24 0c	 lea	 edx, DWORD PTR _time$90369[esp+4]
  000da	52		 push	 edx
  000db	66 89 46 08	 mov	 WORD PTR [esi+8], ax
  000df	e8 00 00 00 00	 call	 __localtime64
  000e4	83 c4 04	 add	 esp, 4
  000e7	3b c7		 cmp	 eax, edi
  000e9	74 0c		 je	 SHORT $L177820
  000eb	8b 00		 mov	 eax, DWORD PTR [eax]

; 73   : 		timestamp.fraction = 0;

  000ed	89 7e 0c	 mov	 DWORD PTR [esi+12], edi
  000f0	66 89 46 0a	 mov	 WORD PTR [esi+10], ax
  000f4	5e		 pop	 esi
  000f5	5f		 pop	 edi

; 74   : 	}
; 75   : };

  000f6	c3		 ret	 0

; 72   : 		timestamp.second = time.GetSecond();

$L177820:
  000f7	83 c8 ff	 or	 eax, -1

; 73   : 		timestamp.fraction = 0;

  000fa	89 7e 0c	 mov	 DWORD PTR [esi+12], edi
  000fd	66 89 46 0a	 mov	 WORD PTR [esi+10], ax
  00101	5e		 pop	 esi
  00102	5f		 pop	 edi

; 74   : 	}
; 75   : };

  00103	c3		 ret	 0
?__TIMETODB@@YAX_JAAUtagTIMESTAMP_STRUCT@@@Z ENDP	; __TIMETODB
_TEXT	ENDS
PUBLIC	?CLOSESOCKET@CUdpSocket@@AAEXAAI@Z		; CUdpSocket::CLOSESOCKET
EXTRN	__imp__closesocket@4:NEAR
; Function compile flags: /Ogty
; File c:\users\pierr\desktop\4story - oldschool\sources\tserver\tmapsvr\udpsocket.h
;	COMDAT ?CLOSESOCKET@CUdpSocket@@AAEXAAI@Z
_TEXT	SEGMENT
_x$ = 8							; size = 4
?CLOSESOCKET@CUdpSocket@@AAEXAAI@Z PROC NEAR		; CUdpSocket::CLOSESOCKET, COMDAT
; _this$ = ecx

; 30   : 	VOID CLOSESOCKET( SOCKET &x )	{	if(x != INVALID_SOCKET) closesocket(x), x = INVALID_SOCKET; }

  00000	56		 push	 esi
  00001	8b 74 24 08	 mov	 esi, DWORD PTR _x$[esp]
  00005	8b 06		 mov	 eax, DWORD PTR [esi]
  00007	83 f8 ff	 cmp	 eax, -1
  0000a	74 0d		 je	 SHORT $L146415
  0000c	50		 push	 eax
  0000d	ff 15 00 00 00
	00		 call	 DWORD PTR __imp__closesocket@4
  00013	c7 06 ff ff ff
	ff		 mov	 DWORD PTR [esi], -1
$L146415:
  00019	5e		 pop	 esi
  0001a	c2 04 00	 ret	 4
?CLOSESOCKET@CUdpSocket@@AAEXAAI@Z ENDP			; CUdpSocket::CLOSESOCKET
_TEXT	ENDS
PUBLIC	??B?$CSimpleStringT@D$0A@@ATL@@QBEPBDXZ		; ATL::CSimpleStringT<char,0>::operator char const *
; Function compile flags: /Ogty
; File c:\program files (x86)\microsoft visual studio .net 2003\vc7\atlmfc\include\atlsimpstr.h
;	COMDAT ??B?$CSimpleStringT@D$0A@@ATL@@QBEPBDXZ
_TEXT	SEGMENT
??B?$CSimpleStringT@D$0A@@ATL@@QBEPBDXZ PROC NEAR	; ATL::CSimpleStringT<char,0>::operator char const *, COMDAT
; _this$ = ecx

; 379  : 		return( m_pszData );

  00000	8b 01		 mov	 eax, DWORD PTR [ecx]

; 380  : 	}

  00002	c3		 ret	 0
??B?$CSimpleStringT@D$0A@@ATL@@QBEPBDXZ ENDP		; ATL::CSimpleStringT<char,0>::operator char const *
_TEXT	ENDS
PUBLIC	?GetData@?$CSimpleStringT@D$0A@@ATL@@ABEPAUCStringData@2@XZ ; ATL::CSimpleStringT<char,0>::GetData
; Function compile flags: /Ogty
;	COMDAT ?GetData@?$CSimpleStringT@D$0A@@ATL@@ABEPAUCStringData@2@XZ
_TEXT	SEGMENT
?GetData@?$CSimpleStringT@D$0A@@ATL@@ABEPAUCStringData@2@XZ PROC NEAR ; ATL::CSimpleStringT<char,0>::GetData, COMDAT
; _this$ = ecx

; 731  : 		return( reinterpret_cast< CStringData* >( m_pszData )-1 );

  00000	8b 01		 mov	 eax, DWORD PTR [ecx]
  00002	83 e8 10	 sub	 eax, 16			; 00000010H

; 732  : 	}

  00005	c3		 ret	 0
?GetData@?$CSimpleStringT@D$0A@@ATL@@ABEPAUCStringData@2@XZ ENDP ; ATL::CSimpleStringT<char,0>::GetData
_TEXT	ENDS
PUBLIC	?FindStringResourceInstance@?$StrTraitATL@DV?$ChTraitsCRT@D@ATL@@@ATL@@SAPAUHINSTANCE__@@I@Z ; ATL::StrTraitATL<char,ATL::ChTraitsCRT<char> >::FindStringResourceInstance
; Function compile flags: /Ogty
; File c:\program files (x86)\microsoft visual studio .net 2003\vc7\atlmfc\include\atlstr.h
;	COMDAT ?FindStringResourceInstance@?$StrTraitATL@DV?$ChTraitsCRT@D@ATL@@@ATL@@SAPAUHINSTANCE__@@I@Z
_TEXT	SEGMENT
_nID$ = 8						; size = 4
?FindStringResourceInstance@?$StrTraitATL@DV?$ChTraitsCRT@D@ATL@@@ATL@@SAPAUHINSTANCE__@@I@Z PROC NEAR ; ATL::StrTraitATL<char,ATL::ChTraitsCRT<char> >::FindStringResourceInstance, COMDAT

; 949  : 		return( AtlFindStringResourceInstance( nID ) );

  00000	8b 44 24 04	 mov	 eax, DWORD PTR _nID$[esp-4]
  00004	6a 00		 push	 0
  00006	50		 push	 eax
  00007	e8 00 00 00 00	 call	 ?AtlFindStringResourceInstance@ATL@@YAPAUHINSTANCE__@@IG@Z ; ATL::AtlFindStringResourceInstance
  0000c	83 c4 08	 add	 esp, 8

; 950  : 	}

  0000f	c3		 ret	 0
?FindStringResourceInstance@?$StrTraitATL@DV?$ChTraitsCRT@D@ATL@@@ATL@@SAPAUHINSTANCE__@@I@Z ENDP ; ATL::StrTraitATL<char,ATL::ChTraitsCRT<char> >::FindStringResourceInstance
_TEXT	ENDS
PUBLIC	?GetDefaultManager@?$StrTraitATL@DV?$ChTraitsCRT@D@ATL@@@ATL@@SAPAUIAtlStringMgr@2@XZ ; ATL::StrTraitATL<char,ATL::ChTraitsCRT<char> >::GetDefaultManager
EXTRN	?g_strmgr@ATL@@3VCAtlStringMgr@1@A:BYTE		; ATL::g_strmgr
; Function compile flags: /Ogty
;	COMDAT ?GetDefaultManager@?$StrTraitATL@DV?$ChTraitsCRT@D@ATL@@@ATL@@SAPAUIAtlStringMgr@2@XZ
_TEXT	SEGMENT
?GetDefaultManager@?$StrTraitATL@DV?$ChTraitsCRT@D@ATL@@@ATL@@SAPAUIAtlStringMgr@2@XZ PROC NEAR ; ATL::StrTraitATL<char,ATL::ChTraitsCRT<char> >::GetDefaultManager, COMDAT

; 954  : 		return( &g_strmgr );

  00000	b8 00 00 00 00	 mov	 eax, OFFSET FLAT:?g_strmgr@ATL@@3VCAtlStringMgr@1@A ; ATL::g_strmgr

; 955  : 	}

  00005	c3		 ret	 0
?GetDefaultManager@?$StrTraitATL@DV?$ChTraitsCRT@D@ATL@@@ATL@@SAPAUIAtlStringMgr@2@XZ ENDP ; ATL::StrTraitATL<char,ATL::ChTraitsCRT<char> >::GetDefaultManager
_TEXT	ENDS
PUBLIC	?GetString@?$CSimpleStringT@D$0A@@ATL@@QBEPBDXZ	; ATL::CSimpleStringT<char,0>::GetString
; Function compile flags: /Ogty
; File c:\program files (x86)\microsoft visual studio .net 2003\vc7\atlmfc\include\atlsimpstr.h
;	COMDAT ?GetString@?$CSimpleStringT@D$0A@@ATL@@QBEPBDXZ
_TEXT	SEGMENT
?GetString@?$CSimpleStringT@D$0A@@ATL@@QBEPBDXZ PROC NEAR ; ATL::CSimpleStringT<char,0>::GetString, COMDAT
; _this$ = ecx

; 510  : 		return( m_pszData );

  00000	8b 01		 mov	 eax, DWORD PTR [ecx]

; 511  : 	}

  00002	c3		 ret	 0
?GetString@?$CSimpleStringT@D$0A@@ATL@@QBEPBDXZ ENDP	; ATL::CSimpleStringT<char,0>::GetString
_TEXT	ENDS
PUBLIC	?Attach@?$CSimpleStringT@D$0A@@ATL@@AAEXPAUCStringData@2@@Z ; ATL::CSimpleStringT<char,0>::Attach
; Function compile flags: /Ogty
;	COMDAT ?Attach@?$CSimpleStringT@D$0A@@ATL@@AAEXPAUCStringData@2@@Z
_TEXT	SEGMENT
_pData$ = 8						; size = 4
?Attach@?$CSimpleStringT@D$0A@@ATL@@AAEXPAUCStringData@2@@Z PROC NEAR ; ATL::CSimpleStringT<char,0>::Attach, COMDAT
; _this$ = ecx

; 712  : 		m_pszData = static_cast< PXSTR >( pData->data() );

  00000	8b 44 24 04	 mov	 eax, DWORD PTR _pData$[esp-4]
  00004	83 c0 10	 add	 eax, 16			; 00000010H
  00007	89 01		 mov	 DWORD PTR [ecx], eax

; 713  : 	}

  00009	c2 04 00	 ret	 4
?Attach@?$CSimpleStringT@D$0A@@ATL@@AAEXPAUCStringData@2@@Z ENDP ; ATL::CSimpleStringT<char,0>::Attach
_TEXT	ENDS
PUBLIC	?GetBaseTypeLength@?$ChTraitsCRT@D@ATL@@SAHPBGH@Z ; ATL::ChTraitsCRT<char>::GetBaseTypeLength
EXTRN	__imp__WideCharToMultiByte@32:NEAR
; Function compile flags: /Ogty
; File c:\program files (x86)\microsoft visual studio .net 2003\vc7\atlmfc\include\cstringt.h
;	COMDAT ?GetBaseTypeLength@?$ChTraitsCRT@D@ATL@@SAHPBGH@Z
_TEXT	SEGMENT
_pszSource$ = 8						; size = 4
_nLength$ = 12						; size = 4
?GetBaseTypeLength@?$ChTraitsCRT@D@ATL@@SAHPBGH@Z PROC NEAR ; ATL::ChTraitsCRT<char>::GetBaseTypeLength, COMDAT

; 437  : 		// Returns required buffer length in XCHARs
; 438  : 		return ::WideCharToMultiByte( _AtlGetConversionACP(), 0, pszSource, nLength, NULL, 0, NULL, NULL );

  00000	8b 44 24 08	 mov	 eax, DWORD PTR _nLength$[esp-4]
  00004	8b 4c 24 04	 mov	 ecx, DWORD PTR _pszSource$[esp-4]
  00008	6a 00		 push	 0
  0000a	6a 00		 push	 0
  0000c	6a 00		 push	 0
  0000e	6a 00		 push	 0
  00010	50		 push	 eax
  00011	51		 push	 ecx
  00012	6a 00		 push	 0
  00014	ff 15 00 00 00
	00		 call	 DWORD PTR ?g_pfnGetThreadACP@ATL@@3P6GIXZA ; ATL::g_pfnGetThreadACP
  0001a	50		 push	 eax
  0001b	ff 15 00 00 00
	00		 call	 DWORD PTR __imp__WideCharToMultiByte@32

; 439  : 	}

  00021	c3		 ret	 0
?GetBaseTypeLength@?$ChTraitsCRT@D@ATL@@SAHPBGH@Z ENDP	; ATL::ChTraitsCRT<char>::GetBaseTypeLength
_TEXT	ENDS
PUBLIC	?ConvertToBaseType@?$ChTraitsCRT@D@ATL@@SAXPADHPBGH@Z ; ATL::ChTraitsCRT<char>::ConvertToBaseType
; Function compile flags: /Ogty
;	COMDAT ?ConvertToBaseType@?$ChTraitsCRT@D@ATL@@SAXPADHPBGH@Z
_TEXT	SEGMENT
_pszDest$ = 8						; size = 4
_nDestLength$ = 12					; size = 4
_pszSrc$ = 16						; size = 4
_nSrcLength$ = 20					; size = 4
?ConvertToBaseType@?$ChTraitsCRT@D@ATL@@SAXPADHPBGH@Z PROC NEAR ; ATL::ChTraitsCRT<char>::ConvertToBaseType, COMDAT

; 452  : 		// nLen is in XCHARs
; 453  : 		::WideCharToMultiByte( _AtlGetConversionACP(), 0, pszSrc, nSrcLength, pszDest, nDestLength, NULL, NULL );

  00000	8b 44 24 08	 mov	 eax, DWORD PTR _nDestLength$[esp-4]
  00004	8b 4c 24 04	 mov	 ecx, DWORD PTR _pszDest$[esp-4]
  00008	8b 54 24 10	 mov	 edx, DWORD PTR _nSrcLength$[esp-4]
  0000c	6a 00		 push	 0
  0000e	6a 00		 push	 0
  00010	50		 push	 eax
  00011	8b 44 24 18	 mov	 eax, DWORD PTR _pszSrc$[esp+8]
  00015	51		 push	 ecx
  00016	52		 push	 edx
  00017	50		 push	 eax
  00018	6a 00		 push	 0
  0001a	ff 15 00 00 00
	00		 call	 DWORD PTR ?g_pfnGetThreadACP@ATL@@3P6GIXZA ; ATL::g_pfnGetThreadACP
  00020	50		 push	 eax
  00021	ff 15 00 00 00
	00		 call	 DWORD PTR __imp__WideCharToMultiByte@32

; 454  : 	}

  00027	c3		 ret	 0
?ConvertToBaseType@?$ChTraitsCRT@D@ATL@@SAXPADHPBGH@Z ENDP ; ATL::ChTraitsCRT<char>::ConvertToBaseType
_TEXT	ENDS
PUBLIC	?CopyChars@?$CSimpleStringT@D$0A@@ATL@@SAXPADPBDH@Z ; ATL::CSimpleStringT<char,0>::CopyChars
; Function compile flags: /Ogty
; File c:\program files (x86)\microsoft visual studio .net 2003\vc7\atlmfc\include\atlsimpstr.h
;	COMDAT ?CopyChars@?$CSimpleStringT@D$0A@@ATL@@SAXPADPBDH@Z
_TEXT	SEGMENT
_pchDest$ = 8						; size = 4
_pchSrc$ = 12						; size = 4
_nChars$ = 16						; size = 4
?CopyChars@?$CSimpleStringT@D$0A@@ATL@@SAXPADPBDH@Z PROC NEAR ; ATL::CSimpleStringT<char,0>::CopyChars, COMDAT

; 653  : 		memcpy( pchDest, pchSrc, nChars*sizeof( XCHAR ) );

  00000	8b 4c 24 0c	 mov	 ecx, DWORD PTR _nChars$[esp-4]
  00004	56		 push	 esi
  00005	8b 74 24 0c	 mov	 esi, DWORD PTR _pchSrc$[esp]
  00009	8b c1		 mov	 eax, ecx
  0000b	57		 push	 edi
  0000c	8b 7c 24 0c	 mov	 edi, DWORD PTR _pchDest$[esp+4]
  00010	c1 e9 02	 shr	 ecx, 2
  00013	f3 a5		 rep movsd
  00015	8b c8		 mov	 ecx, eax
  00017	83 e1 03	 and	 ecx, 3
  0001a	f3 a4		 rep movsb
  0001c	5f		 pop	 edi
  0001d	5e		 pop	 esi

; 654  : 	}

  0001e	c3		 ret	 0
?CopyChars@?$CSimpleStringT@D$0A@@ATL@@SAXPADPBDH@Z ENDP ; ATL::CSimpleStringT<char,0>::CopyChars
_TEXT	ENDS
PUBLIC	?CopyCharsOverlapped@?$CSimpleStringT@D$0A@@ATL@@SAXPADPBDH@Z ; ATL::CSimpleStringT<char,0>::CopyCharsOverlapped
EXTRN	_memmove:NEAR
; Function compile flags: /Ogty
;	COMDAT ?CopyCharsOverlapped@?$CSimpleStringT@D$0A@@ATL@@SAXPADPBDH@Z
_TEXT	SEGMENT
_pchDest$ = 8						; size = 4
_pchSrc$ = 12						; size = 4
_nChars$ = 16						; size = 4
?CopyCharsOverlapped@?$CSimpleStringT@D$0A@@ATL@@SAXPADPBDH@Z PROC NEAR ; ATL::CSimpleStringT<char,0>::CopyCharsOverlapped, COMDAT

; 657  : 		memmove( pchDest, pchSrc, nChars*sizeof( XCHAR ) );

  00000	e9 00 00 00 00	 jmp	 _memmove
?CopyCharsOverlapped@?$CSimpleStringT@D$0A@@ATL@@SAXPADPBDH@Z ENDP ; ATL::CSimpleStringT<char,0>::CopyCharsOverlapped
_TEXT	ENDS
PUBLIC	?StringLength@?$CSimpleStringT@D$0A@@ATL@@SAHPBD@Z ; ATL::CSimpleStringT<char,0>::StringLength
; Function compile flags: /Ogty
;	COMDAT ?StringLength@?$CSimpleStringT@D$0A@@ATL@@SAHPBD@Z
_TEXT	SEGMENT
_psz$ = 8						; size = 4
?StringLength@?$CSimpleStringT@D$0A@@ATL@@SAHPBD@Z PROC NEAR ; ATL::CSimpleStringT<char,0>::StringLength, COMDAT

; 678  : 		if( psz == NULL )

  00000	8b 44 24 04	 mov	 eax, DWORD PTR _psz$[esp-4]
  00004	85 c0		 test	 eax, eax
  00006	75 01		 jne	 SHORT $L150470

; 683  : 	}

  00008	c3		 ret	 0
$L150470:

; 679  : 		{
; 680  : 			return( 0 );
; 681  : 		}
; 682  : 		return( int( strlen( psz ) ) );

  00009	8d 50 01	 lea	 edx, DWORD PTR [eax+1]
  0000c	8d 64 24 00	 npad	 4
$L177873:
  00010	8a 08		 mov	 cl, BYTE PTR [eax]
  00012	40		 inc	 eax
  00013	84 c9		 test	 cl, cl
  00015	75 f9		 jne	 SHORT $L177873
  00017	2b c2		 sub	 eax, edx

; 683  : 	}

  00019	c3		 ret	 0
?StringLength@?$CSimpleStringT@D$0A@@ATL@@SAHPBD@Z ENDP	; ATL::CSimpleStringT<char,0>::StringLength
_TEXT	ENDS
PUBLIC	?ThrowMemoryException@?$CSimpleStringT@D$0A@@ATL@@KAXXZ ; ATL::CSimpleStringT<char,0>::ThrowMemoryException
; Function compile flags: /Ogty
;	COMDAT ?ThrowMemoryException@?$CSimpleStringT@D$0A@@ATL@@KAXXZ
_TEXT	SEGMENT
?ThrowMemoryException@?$CSimpleStringT@D$0A@@ATL@@KAXXZ PROC NEAR ; ATL::CSimpleStringT<char,0>::ThrowMemoryException, COMDAT

; 705  : 		AtlThrow( E_OUTOFMEMORY );

  00000	68 0e 00 07 80	 push	 -2147024882		; 8007000eH
  00005	e8 00 00 00 00	 call	 ?AtlThrow@ATL@@YGXJ@Z	; ATL::AtlThrow
$L177878:
$L177877:
  0000a	cc		 int	 3
?ThrowMemoryException@?$CSimpleStringT@D$0A@@ATL@@KAXXZ ENDP ; ATL::CSimpleStringT<char,0>::ThrowMemoryException
_TEXT	ENDS
PUBLIC	?Fork@?$CSimpleStringT@D$0A@@ATL@@AAEXH@Z	; ATL::CSimpleStringT<char,0>::Fork
; Function compile flags: /Ogty
;	COMDAT ?Fork@?$CSimpleStringT@D$0A@@ATL@@AAEXH@Z
_TEXT	SEGMENT
_this$ = -4						; size = 4
tv181 = 8						; size = 4
_nLength$ = 8						; size = 4
?Fork@?$CSimpleStringT@D$0A@@ATL@@AAEXH@Z PROC NEAR	; ATL::CSimpleStringT<char,0>::Fork, COMDAT
; _this$ = ecx

; 715  : 	{

  00000	51		 push	 ecx
  00001	53		 push	 ebx

; 716  : 		CStringData* pOldData = GetData();

  00002	8b 19		 mov	 ebx, DWORD PTR [ecx]
  00004	83 eb 10	 sub	 ebx, 16			; 00000010H
  00007	55		 push	 ebp

; 717  : 		int nOldLength = pOldData->nDataLength;

  00008	8b 6b 04	 mov	 ebp, DWORD PTR [ebx+4]
  0000b	89 4c 24 08	 mov	 DWORD PTR _this$[esp+12], ecx

; 718  : 		CStringData* pNewData = pOldData->pStringMgr->Clone()->Allocate( nLength, sizeof( XCHAR ) );

  0000f	8b 0b		 mov	 ecx, DWORD PTR [ebx]
  00011	8b 01		 mov	 eax, DWORD PTR [ecx]
  00013	56		 push	 esi
  00014	ff 50 10	 call	 DWORD PTR [eax+16]
  00017	8b 74 24 14	 mov	 esi, DWORD PTR _nLength$[esp+12]
  0001b	8b 10		 mov	 edx, DWORD PTR [eax]
  0001d	6a 01		 push	 1
  0001f	56		 push	 esi
  00020	8b c8		 mov	 ecx, eax
  00022	ff 12		 call	 DWORD PTR [edx]

; 719  : 		if( pNewData == NULL )

  00024	85 c0		 test	 eax, eax
  00026	75 05		 jne	 SHORT $L150479

; 720  : 		{
; 721  : 			ThrowMemoryException();

  00028	e8 00 00 00 00	 call	 ?ThrowMemoryException@?$CSimpleStringT@D$0A@@ATL@@KAXXZ ; ATL::CSimpleStringT<char,0>::ThrowMemoryException
$L177909:
$L150479:

; 722  : 		}
; 723  : 		int nCharsToCopy = ((nOldLength < nLength) ? nOldLength : nLength)+1;  // Copy '\0'

  0002d	3b ee		 cmp	 ebp, esi
  0002f	7d 02		 jge	 SHORT $L177883
  00031	8b f5		 mov	 esi, ebp
$L177883:
  00033	8d 4e 01	 lea	 ecx, DWORD PTR [esi+1]

; 724  : 		CopyChars( PXSTR( pNewData->data() ), PCXSTR( pOldData->data() ), nCharsToCopy );

  00036	8b d1		 mov	 edx, ecx
  00038	57		 push	 edi
  00039	c1 e9 02	 shr	 ecx, 2
  0003c	8d 78 10	 lea	 edi, DWORD PTR [eax+16]
  0003f	89 7c 24 18	 mov	 DWORD PTR tv181[esp+16], edi
  00043	8d 73 10	 lea	 esi, DWORD PTR [ebx+16]
  00046	f3 a5		 rep movsd
  00048	8b ca		 mov	 ecx, edx
  0004a	83 e1 03	 and	 ecx, 3
  0004d	f3 a4		 rep movsb

; 725  : 		pNewData->nDataLength = nOldLength;

  0004f	89 68 04	 mov	 DWORD PTR [eax+4], ebp

; 726  : 		pOldData->Release();

  00052	8d 43 0c	 lea	 eax, DWORD PTR [ebx+12]
  00055	83 c9 ff	 or	 ecx, -1
  00058	f0 0f c1 08	 lock	  xadd	 DWORD PTR [eax], ecx
  0005c	49		 dec	 ecx
  0005d	85 c9		 test	 ecx, ecx
  0005f	5f		 pop	 edi
  00060	7f 08		 jg	 SHORT $L177899
  00062	8b 0b		 mov	 ecx, DWORD PTR [ebx]
  00064	8b 11		 mov	 edx, DWORD PTR [ecx]
  00066	53		 push	 ebx
  00067	ff 52 04	 call	 DWORD PTR [edx+4]
$L177899:

; 727  : 		Attach( pNewData );

  0006a	8b 44 24 14	 mov	 eax, DWORD PTR tv181[esp+12]
  0006e	8b 4c 24 0c	 mov	 ecx, DWORD PTR _this$[esp+16]
  00072	5e		 pop	 esi
  00073	5d		 pop	 ebp
  00074	89 01		 mov	 DWORD PTR [ecx], eax
  00076	5b		 pop	 ebx

; 728  : 	}

  00077	59		 pop	 ecx
  00078	c2 04 00	 ret	 4
$L177908:
?Fork@?$CSimpleStringT@D$0A@@ATL@@AAEXH@Z ENDP		; ATL::CSimpleStringT<char,0>::Fork
_TEXT	ENDS
PUBLIC	?Reallocate@?$CSimpleStringT@D$0A@@ATL@@AAEXH@Z	; ATL::CSimpleStringT<char,0>::Reallocate
; Function compile flags: /Ogty
;	COMDAT ?Reallocate@?$CSimpleStringT@D$0A@@ATL@@AAEXH@Z
_TEXT	SEGMENT
_nLength$ = 8						; size = 4
?Reallocate@?$CSimpleStringT@D$0A@@ATL@@AAEXH@Z PROC NEAR ; ATL::CSimpleStringT<char,0>::Reallocate, COMDAT
; _this$ = ecx

; 776  : 	{

  00000	56		 push	 esi
  00001	57		 push	 edi

; 777  : 		CStringData* pOldData = GetData();
; 778  : 		ATLASSERT( pOldData->nAllocLength < nLength );
; 779  : 		IAtlStringMgr* pStringMgr = pOldData->pStringMgr;
; 780  : 		CStringData* pNewData = pStringMgr->Reallocate( pOldData, nLength, sizeof( XCHAR ) );

  00002	8b 7c 24 0c	 mov	 edi, DWORD PTR _nLength$[esp+4]
  00006	8b f1		 mov	 esi, ecx
  00008	8b 06		 mov	 eax, DWORD PTR [esi]
  0000a	8b 48 f0	 mov	 ecx, DWORD PTR [eax-16]
  0000d	8b 11		 mov	 edx, DWORD PTR [ecx]
  0000f	83 e8 10	 sub	 eax, 16			; 00000010H
  00012	6a 01		 push	 1
  00014	57		 push	 edi
  00015	50		 push	 eax
  00016	ff 52 08	 call	 DWORD PTR [edx+8]

; 781  : 		if( pNewData == NULL )

  00019	85 c0		 test	 eax, eax
  0001b	75 05		 jne	 SHORT $L150488

; 782  : 		{
; 783  : 			ThrowMemoryException();

  0001d	e8 00 00 00 00	 call	 ?ThrowMemoryException@?$CSimpleStringT@D$0A@@ATL@@KAXXZ ; ATL::CSimpleStringT<char,0>::ThrowMemoryException
$L177925:
$L150488:

; 784  : 		}
; 785  : 		Attach( pNewData );

  00022	83 c0 10	 add	 eax, 16			; 00000010H
  00025	5f		 pop	 edi
  00026	89 06		 mov	 DWORD PTR [esi], eax
  00028	5e		 pop	 esi

; 786  : 	}

  00029	c2 04 00	 ret	 4
$L177924:
?Reallocate@?$CSimpleStringT@D$0A@@ATL@@AAEXH@Z ENDP	; ATL::CSimpleStringT<char,0>::Reallocate
_TEXT	ENDS
PUBLIC	?SetLength@?$CSimpleStringT@D$0A@@ATL@@AAEXH@Z	; ATL::CSimpleStringT<char,0>::SetLength
; Function compile flags: /Ogty
;	COMDAT ?SetLength@?$CSimpleStringT@D$0A@@ATL@@AAEXH@Z
_TEXT	SEGMENT
_nLength$ = 8						; size = 4
?SetLength@?$CSimpleStringT@D$0A@@ATL@@AAEXH@Z PROC NEAR ; ATL::CSimpleStringT<char,0>::SetLength, COMDAT
; _this$ = ecx

; 790  : 		ATLASSERT( nLength >= 0 );
; 791  : 		ATLASSERT( nLength <= GetData()->nAllocLength );
; 792  : 
; 793  : 		if( nLength < 0 || nLength > GetData()->nAllocLength)

  00000	8b 44 24 04	 mov	 eax, DWORD PTR _nLength$[esp-4]
  00004	85 c0		 test	 eax, eax
  00006	7c 13		 jl	 SHORT $L150494
  00008	8b 11		 mov	 edx, DWORD PTR [ecx]
  0000a	3b 42 f8	 cmp	 eax, DWORD PTR [edx-8]
  0000d	7f 0c		 jg	 SHORT $L150494

; 794  : 			AtlThrow(E_INVALIDARG);
; 795  : 			
; 796  : 		GetData()->nDataLength = nLength;

  0000f	89 42 f4	 mov	 DWORD PTR [edx-12], eax

; 797  : 		m_pszData[nLength] = 0;

  00012	8b 09		 mov	 ecx, DWORD PTR [ecx]
  00014	c6 04 08 00	 mov	 BYTE PTR [eax+ecx], 0

; 798  : 	}

  00018	c2 04 00	 ret	 4
$L150494:
  0001b	68 57 00 07 80	 push	 -2147024809		; 80070057H
  00020	e8 00 00 00 00	 call	 ?AtlThrow@ATL@@YGXJ@Z	; ATL::AtlThrow
$L177936:
$L177935:
  00025	cc		 int	 3
?SetLength@?$CSimpleStringT@D$0A@@ATL@@AAEXH@Z ENDP	; ATL::CSimpleStringT<char,0>::SetLength
_TEXT	ENDS
PUBLIC	??1CUdpSocket@@QAE@XZ				; CUdpSocket::~CUdpSocket
EXTRN	__imp__DeleteCriticalSection@4:NEAR
; Function compile flags: /Ogty
; File c:\users\pierr\desktop\4story - oldschool\sources\tserver\tmapsvr\udpsocket.cpp
;	COMDAT ??1CUdpSocket@@QAE@XZ
_TEXT	SEGMENT
??1CUdpSocket@@QAE@XZ PROC NEAR				; CUdpSocket::~CUdpSocket, COMDAT
; _this$ = ecx

; 23   : {

  00000	56		 push	 esi
  00001	8b f1		 mov	 esi, ecx

; 24   : 	CLOSESOCKET(m_SendSock);

  00003	8b 06		 mov	 eax, DWORD PTR [esi]
  00005	83 f8 ff	 cmp	 eax, -1
  00008	74 0d		 je	 SHORT $L177944
  0000a	50		 push	 eax
  0000b	ff 15 00 00 00
	00		 call	 DWORD PTR __imp__closesocket@4
  00011	c7 06 ff ff ff
	ff		 mov	 DWORD PTR [esi], -1
$L177944:

; 25   : 
; 26   : 	delete m_lpLogBuf;

  00017	8b 46 2c	 mov	 eax, DWORD PTR [esi+44]
  0001a	50		 push	 eax
  0001b	e8 00 00 00 00	 call	 ??3@YAXPAX@Z		; operator delete
  00020	83 c4 04	 add	 esp, 4

; 27   : 
; 28   : 	DeleteCriticalSection(&m_LogLock);

  00023	83 c6 14	 add	 esi, 20			; 00000014H
  00026	56		 push	 esi
  00027	ff 15 00 00 00
	00		 call	 DWORD PTR __imp__DeleteCriticalSection@4
  0002d	5e		 pop	 esi

; 29   : }

  0002e	c3		 ret	 0
??1CUdpSocket@@QAE@XZ ENDP				; CUdpSocket::~CUdpSocket
_TEXT	ENDS
PUBLIC	??0iterator@?$_Tree@V?$_Tmap_traits@EPAUtagTMAGIC@@U?$less@E@std@@V?$allocator@U?$pair@$$CBEPAUtagTMAGIC@@@std@@@3@$0A@@std@@@std@@QAE@XZ ; std::_Tree<std::_Tmap_traits<unsigned char,tagTMAGIC *,std::less<unsigned char>,std::allocator<std::pair<unsigned char const ,tagTMAGIC *> >,0> >::iterator::iterator
; Function compile flags: /Ogty
; File c:\program files (x86)\microsoft visual studio .net 2003\vc7\include\xtree
;	COMDAT ??0iterator@?$_Tree@V?$_Tmap_traits@EPAUtagTMAGIC@@U?$less@E@std@@V?$allocator@U?$pair@$$CBEPAUtagTMAGIC@@@std@@@3@$0A@@std@@@std@@QAE@XZ
_TEXT	SEGMENT
??0iterator@?$_Tree@V?$_Tmap_traits@EPAUtagTMAGIC@@U?$less@E@std@@V?$allocator@U?$pair@$$CBEPAUtagTMAGIC@@@std@@@3@$0A@@std@@@std@@QAE@XZ PROC NEAR ; std::_Tree<std::_Tmap_traits<unsigned char,tagTMAGIC *,std::less<unsigned char>,std::allocator<std::pair<unsigned char const ,tagTMAGIC *> >,0> >::iterator::iterator, COMDAT
; _this$ = ecx

; 304  : 		iterator()

  00000	8b c1		 mov	 eax, ecx
  00002	c7 00 00 00 00
	00		 mov	 DWORD PTR [eax], 0

; 305  : 			{	// construct with null node pointer
; 306  : 			}

  00008	c3		 ret	 0
??0iterator@?$_Tree@V?$_Tmap_traits@EPAUtagTMAGIC@@U?$less@E@std@@V?$allocator@U?$pair@$$CBEPAUtagTMAGIC@@@std@@@3@$0A@@std@@@std@@QAE@XZ ENDP ; std::_Tree<std::_Tmap_traits<unsigned char,tagTMAGIC *,std::less<unsigned char>,std::allocator<std::pair<unsigned char const ,tagTMAGIC *> >,0> >::iterator::iterator
_TEXT	ENDS
PUBLIC	??9const_iterator@?$_Tree@V?$_Tmap_traits@EPAUtagTMAGIC@@U?$less@E@std@@V?$allocator@U?$pair@$$CBEPAUtagTMAGIC@@@std@@@3@$0A@@std@@@std@@QBE_NABV012@@Z ; std::_Tree<std::_Tmap_traits<unsigned char,tagTMAGIC *,std::less<unsigned char>,std::allocator<std::pair<unsigned char const ,tagTMAGIC *> >,0> >::const_iterator::operator!=
; Function compile flags: /Ogty
;	COMDAT ??9const_iterator@?$_Tree@V?$_Tmap_traits@EPAUtagTMAGIC@@U?$less@E@std@@V?$allocator@U?$pair@$$CBEPAUtagTMAGIC@@@std@@@3@$0A@@std@@@std@@QBE_NABV012@@Z
_TEXT	SEGMENT
__Right$ = 8						; size = 4
??9const_iterator@?$_Tree@V?$_Tmap_traits@EPAUtagTMAGIC@@U?$less@E@std@@V?$allocator@U?$pair@$$CBEPAUtagTMAGIC@@@std@@@3@$0A@@std@@@std@@QBE_NABV012@@Z PROC NEAR ; std::_Tree<std::_Tmap_traits<unsigned char,tagTMAGIC *,std::less<unsigned char>,std::allocator<std::pair<unsigned char const ,tagTMAGIC *> >,0> >::const_iterator::operator!=, COMDAT
; _this$ = ecx

; 246  : 			return (!(*this == _Right));

  00000	8b 01		 mov	 eax, DWORD PTR [ecx]
  00002	8b 54 24 04	 mov	 edx, DWORD PTR __Right$[esp-4]
  00006	56		 push	 esi
  00007	8b 32		 mov	 esi, DWORD PTR [edx]
  00009	33 c9		 xor	 ecx, ecx
  0000b	3b c6		 cmp	 eax, esi
  0000d	0f 95 c1	 setne	 cl
  00010	8a c1		 mov	 al, cl
  00012	5e		 pop	 esi

; 247  : 			}

  00013	c2 04 00	 ret	 4
??9const_iterator@?$_Tree@V?$_Tmap_traits@EPAUtagTMAGIC@@U?$less@E@std@@V?$allocator@U?$pair@$$CBEPAUtagTMAGIC@@@std@@@3@$0A@@std@@@std@@QBE_NABV012@@Z ENDP ; std::_Tree<std::_Tmap_traits<unsigned char,tagTMAGIC *,std::less<unsigned char>,std::allocator<std::pair<unsigned char const ,tagTMAGIC *> >,0> >::const_iterator::operator!=
_TEXT	ENDS
PUBLIC	?_Lmost@?$_Tree@V?$_Tmap_traits@EPAUtagTMAGIC@@U?$less@E@std@@V?$allocator@U?$pair@$$CBEPAUtagTMAGIC@@@std@@@3@$0A@@std@@@std@@IAEAAPAU_Node@?$_Tree_nod@V?$_Tmap_traits@EPAUtagTMAGIC@@U?$less@E@std@@V?$allocator@U?$pair@$$CBEPAUtagTMAGIC@@@std@@@3@$0A@@std@@@2@XZ ; std::_Tree<std::_Tmap_traits<unsigned char,tagTMAGIC *,std::less<unsigned char>,std::allocator<std::pair<unsigned char const ,tagTMAGIC *> >,0> >::_Lmost
; Function compile flags: /Ogty
;	COMDAT ?_Lmost@?$_Tree@V?$_Tmap_traits@EPAUtagTMAGIC@@U?$less@E@std@@V?$allocator@U?$pair@$$CBEPAUtagTMAGIC@@@std@@@3@$0A@@std@@@std@@IAEAAPAU_Node@?$_Tree_nod@V?$_Tmap_traits@EPAUtagTMAGIC@@U?$less@E@std@@V?$allocator@U?$pair@$$CBEPAUtagTMAGIC@@@std@@@3@$0A@@std@@@2@XZ
_TEXT	SEGMENT
?_Lmost@?$_Tree@V?$_Tmap_traits@EPAUtagTMAGIC@@U?$less@E@std@@V?$allocator@U?$pair@$$CBEPAUtagTMAGIC@@@std@@@3@$0A@@std@@@std@@IAEAAPAU_Node@?$_Tree_nod@V?$_Tmap_traits@EPAUtagTMAGIC@@U?$less@E@std@@V?$allocator@U?$pair@$$CBEPAUtagTMAGIC@@@std@@@3@$0A@@std@@@2@XZ PROC NEAR ; std::_Tree<std::_Tmap_traits<unsigned char,tagTMAGIC *,std::less<unsigned char>,std::allocator<std::pair<unsigned char const ,tagTMAGIC *> >,0> >::_Lmost, COMDAT
; _this$ = ecx

; 1005 : 		return (_Left(_Myhead));

  00000	8b 41 04	 mov	 eax, DWORD PTR [ecx+4]

; 1006 : 		}

  00003	c3		 ret	 0
?_Lmost@?$_Tree@V?$_Tmap_traits@EPAUtagTMAGIC@@U?$less@E@std@@V?$allocator@U?$pair@$$CBEPAUtagTMAGIC@@@std@@@3@$0A@@std@@@std@@IAEAAPAU_Node@?$_Tree_nod@V?$_Tmap_traits@EPAUtagTMAGIC@@U?$less@E@std@@V?$allocator@U?$pair@$$CBEPAUtagTMAGIC@@@std@@@3@$0A@@std@@@2@XZ ENDP ; std::_Tree<std::_Tmap_traits<unsigned char,tagTMAGIC *,std::less<unsigned char>,std::allocator<std::pair<unsigned char const ,tagTMAGIC *> >,0> >::_Lmost
_TEXT	ENDS
PUBLIC	??0iterator@?$_Tree@V?$_Tmap_traits@EPAUtagTMAGIC@@U?$less@E@std@@V?$allocator@U?$pair@$$CBEPAUtagTMAGIC@@@std@@@3@$0A@@std@@@std@@QAE@PAU_Node@?$_Tree_nod@V?$_Tmap_traits@EPAUtagTMAGIC@@U?$less@E@std@@V?$allocator@U?$pair@$$CBEPAUtagTMAGIC@@@std@@@3@$0A@@std@@@2@@Z ; std::_Tree<std::_Tmap_traits<unsigned char,tagTMAGIC *,std::less<unsigned char>,std::allocator<std::pair<unsigned char const ,tagTMAGIC *> >,0> >::iterator::iterator
; Function compile flags: /Ogty
;	COMDAT ??0iterator@?$_Tree@V?$_Tmap_traits@EPAUtagTMAGIC@@U?$less@E@std@@V?$allocator@U?$pair@$$CBEPAUtagTMAGIC@@@std@@@3@$0A@@std@@@std@@QAE@PAU_Node@?$_Tree_nod@V?$_Tmap_traits@EPAUtagTMAGIC@@U?$less@E@std@@V?$allocator@U?$pair@$$CBEPAUtagTMAGIC@@@std@@@3@$0A@@std@@@2@@Z
_TEXT	SEGMENT
__Pnode$ = 8						; size = 4
??0iterator@?$_Tree@V?$_Tmap_traits@EPAUtagTMAGIC@@U?$less@E@std@@V?$allocator@U?$pair@$$CBEPAUtagTMAGIC@@@std@@@3@$0A@@std@@@std@@QAE@PAU_Node@?$_Tree_nod@V?$_Tmap_traits@EPAUtagTMAGIC@@U?$less@E@std@@V?$allocator@U?$pair@$$CBEPAUtagTMAGIC@@@std@@@3@$0A@@std@@@2@@Z PROC NEAR ; std::_Tree<std::_Tmap_traits<unsigned char,tagTMAGIC *,std::less<unsigned char>,std::allocator<std::pair<unsigned char const ,tagTMAGIC *> >,0> >::iterator::iterator, COMDAT
; _this$ = ecx

; 312  : 			{	// construct with node pointer _Pnode

  00000	8b c1		 mov	 eax, ecx
  00002	8b 4c 24 04	 mov	 ecx, DWORD PTR __Pnode$[esp-4]
  00006	89 08		 mov	 DWORD PTR [eax], ecx

; 313  : 			}

  00008	c2 04 00	 ret	 4
??0iterator@?$_Tree@V?$_Tmap_traits@EPAUtagTMAGIC@@U?$less@E@std@@V?$allocator@U?$pair@$$CBEPAUtagTMAGIC@@@std@@@3@$0A@@std@@@std@@QAE@PAU_Node@?$_Tree_nod@V?$_Tmap_traits@EPAUtagTMAGIC@@U?$less@E@std@@V?$allocator@U?$pair@$$CBEPAUtagTMAGIC@@@std@@@3@$0A@@std@@@2@@Z ENDP ; std::_Tree<std::_Tmap_traits<unsigned char,tagTMAGIC *,std::less<unsigned char>,std::allocator<std::pair<unsigned char const ,tagTMAGIC *> >,0> >::iterator::iterator
_TEXT	ENDS
PUBLIC	??Dconst_iterator@?$_Tree@V?$_Tmap_traits@EPAUtagTMAGIC@@U?$less@E@std@@V?$allocator@U?$pair@$$CBEPAUtagTMAGIC@@@std@@@3@$0A@@std@@@std@@QBEABU?$pair@$$CBEPAUtagTMAGIC@@@2@XZ ; std::_Tree<std::_Tmap_traits<unsigned char,tagTMAGIC *,std::less<unsigned char>,std::allocator<std::pair<unsigned char const ,tagTMAGIC *> >,0> >::const_iterator::operator*
; Function compile flags: /Ogty
;	COMDAT ??Dconst_iterator@?$_Tree@V?$_Tmap_traits@EPAUtagTMAGIC@@U?$less@E@std@@V?$allocator@U?$pair@$$CBEPAUtagTMAGIC@@@std@@@3@$0A@@std@@@std@@QBEABU?$pair@$$CBEPAUtagTMAGIC@@@2@XZ
_TEXT	SEGMENT
??Dconst_iterator@?$_Tree@V?$_Tmap_traits@EPAUtagTMAGIC@@U?$less@E@std@@V?$allocator@U?$pair@$$CBEPAUtagTMAGIC@@@std@@@3@$0A@@std@@@std@@QBEABU?$pair@$$CBEPAUtagTMAGIC@@@2@XZ PROC NEAR ; std::_Tree<std::_Tmap_traits<unsigned char,tagTMAGIC *,std::less<unsigned char>,std::allocator<std::pair<unsigned char const ,tagTMAGIC *> >,0> >::const_iterator::operator*, COMDAT
; _this$ = ecx

; 205  : 			return (_Myval(_Ptr));

  00000	8b 01		 mov	 eax, DWORD PTR [ecx]
  00002	83 c0 0c	 add	 eax, 12			; 0000000cH

; 206  : 			}

  00005	c3		 ret	 0
??Dconst_iterator@?$_Tree@V?$_Tmap_traits@EPAUtagTMAGIC@@U?$less@E@std@@V?$allocator@U?$pair@$$CBEPAUtagTMAGIC@@@std@@@3@$0A@@std@@@std@@QBEABU?$pair@$$CBEPAUtagTMAGIC@@@2@XZ ENDP ; std::_Tree<std::_Tmap_traits<unsigned char,tagTMAGIC *,std::less<unsigned char>,std::allocator<std::pair<unsigned char const ,tagTMAGIC *> >,0> >::const_iterator::operator*
_TEXT	ENDS
PUBLIC	?_Inc@const_iterator@?$_Tree@V?$_Tmap_traits@EPAUtagTMAGIC@@U?$less@E@std@@V?$allocator@U?$pair@$$CBEPAUtagTMAGIC@@@std@@@3@$0A@@std@@@std@@QAEXXZ ; std::_Tree<std::_Tmap_traits<unsigned char,tagTMAGIC *,std::less<unsigned char>,std::allocator<std::pair<unsigned char const ,tagTMAGIC *> >,0> >::const_iterator::_Inc
; Function compile flags: /Ogty
;	COMDAT ?_Inc@const_iterator@?$_Tree@V?$_Tmap_traits@EPAUtagTMAGIC@@U?$less@E@std@@V?$allocator@U?$pair@$$CBEPAUtagTMAGIC@@@std@@@3@$0A@@std@@@std@@QAEXXZ
_TEXT	SEGMENT
?_Inc@const_iterator@?$_Tree@V?$_Tmap_traits@EPAUtagTMAGIC@@U?$less@E@std@@V?$allocator@U?$pair@$$CBEPAUtagTMAGIC@@@std@@@3@$0A@@std@@@std@@QAEXXZ PROC NEAR ; std::_Tree<std::_Tmap_traits<unsigned char,tagTMAGIC *,std::less<unsigned char>,std::allocator<std::pair<unsigned char const ,tagTMAGIC *> >,0> >::const_iterator::_Inc, COMDAT
; _this$ = ecx

; 268  : 			if (_Isnil(_Ptr))

  00000	8b 01		 mov	 eax, DWORD PTR [ecx]
  00002	8a 50 15	 mov	 dl, BYTE PTR [eax+21]
  00005	84 d2		 test	 dl, dl
  00007	75 4d		 jne	 SHORT $L176569

; 269  : 				;	// end() shouldn't be incremented, don't move
; 270  : 			else if (!_Isnil(_Right(_Ptr)))

  00009	8b 50 08	 mov	 edx, DWORD PTR [eax+8]
  0000c	53		 push	 ebx
  0000d	8a 5a 15	 mov	 bl, BYTE PTR [edx+21]
  00010	84 db		 test	 bl, bl
  00012	75 1b		 jne	 SHORT $L178022

; 271  : 				_Ptr = _Min(_Right(_Ptr));	// ==> smallest of right subtree

  00014	8b 02		 mov	 eax, DWORD PTR [edx]
  00016	8a 58 15	 mov	 bl, BYTE PTR [eax+21]
  00019	84 db		 test	 bl, bl
  0001b	75 0e		 jne	 SHORT $L178003
  0001d	8d 49 00	 npad	 3
$L178002:
  00020	8b d0		 mov	 edx, eax
  00022	8b 02		 mov	 eax, DWORD PTR [edx]
  00024	8a 58 15	 mov	 bl, BYTE PTR [eax+21]
  00027	84 db		 test	 bl, bl
  00029	74 f5		 je	 SHORT $L178002
$L178003:
  0002b	89 11		 mov	 DWORD PTR [ecx], edx
  0002d	5b		 pop	 ebx

; 279  : 				}
; 280  : 			}

  0002e	c3		 ret	 0
$L178022:

; 272  : 			else
; 273  : 				{	// climb looking for right subtree
; 274  : 				_Nodeptr _Pnode;
; 275  : 				while (!_Isnil(_Pnode = _Parent(_Ptr))
; 276  : 					&& _Ptr == _Right(_Pnode))

  0002f	8b 40 04	 mov	 eax, DWORD PTR [eax+4]
  00032	8a 50 15	 mov	 dl, BYTE PTR [eax+21]
  00035	84 d2		 test	 dl, dl
  00037	75 1a		 jne	 SHORT $L176573
  00039	8d a4 24 00 00
	00 00		 npad	 7
$L176572:
  00040	8b 11		 mov	 edx, DWORD PTR [ecx]
  00042	3b 50 08	 cmp	 edx, DWORD PTR [eax+8]
  00045	75 0c		 jne	 SHORT $L176573

; 277  : 					_Ptr = _Pnode;	// ==> parent while right subtree

  00047	89 01		 mov	 DWORD PTR [ecx], eax
  00049	8b 40 04	 mov	 eax, DWORD PTR [eax+4]
  0004c	8a 50 15	 mov	 dl, BYTE PTR [eax+21]
  0004f	84 d2		 test	 dl, dl
  00051	74 ed		 je	 SHORT $L176572
$L176573:

; 278  : 				_Ptr = _Pnode;	// ==> parent (head if end())

  00053	89 01		 mov	 DWORD PTR [ecx], eax
  00055	5b		 pop	 ebx
$L176569:

; 279  : 				}
; 280  : 			}

  00056	c3		 ret	 0
?_Inc@const_iterator@?$_Tree@V?$_Tmap_traits@EPAUtagTMAGIC@@U?$less@E@std@@V?$allocator@U?$pair@$$CBEPAUtagTMAGIC@@@std@@@3@$0A@@std@@@std@@QAEXXZ ENDP ; std::_Tree<std::_Tmap_traits<unsigned char,tagTMAGIC *,std::less<unsigned char>,std::allocator<std::pair<unsigned char const ,tagTMAGIC *> >,0> >::const_iterator::_Inc
_TEXT	ENDS
PUBLIC	?GetTickCount@CTime@ATL@@SG?AV12@XZ		; ATL::CTime::GetTickCount
EXTRN	__time64:NEAR
; Function compile flags: /Ogty
; File c:\program files (x86)\microsoft visual studio .net 2003\vc7\atlmfc\include\atltime.inl
;	COMDAT ?GetTickCount@CTime@ATL@@SG?AV12@XZ
_TEXT	SEGMENT
___$ReturnUdt$ = 8					; size = 4
?GetTickCount@CTime@ATL@@SG?AV12@XZ PROC NEAR		; ATL::CTime::GetTickCount, COMDAT

; 139  : 	return( CTime( ::_time64( NULL ) ) );

  00000	6a 00		 push	 0
  00002	e8 00 00 00 00	 call	 __time64
  00007	8b 4c 24 08	 mov	 ecx, DWORD PTR ___$ReturnUdt$[esp]
  0000b	89 01		 mov	 DWORD PTR [ecx], eax
  0000d	83 c4 04	 add	 esp, 4
  00010	89 51 04	 mov	 DWORD PTR [ecx+4], edx
  00013	8b c1		 mov	 eax, ecx

; 140  : }

  00015	c2 04 00	 ret	 4
?GetTickCount@CTime@ATL@@SG?AV12@XZ ENDP		; ATL::CTime::GetTickCount
_TEXT	ENDS
PUBLIC	?GetLength@?$CSimpleStringT@D$0A@@ATL@@QBEHXZ	; ATL::CSimpleStringT<char,0>::GetLength
; Function compile flags: /Ogty
; File c:\program files (x86)\microsoft visual studio .net 2003\vc7\atlmfc\include\atlsimpstr.h
;	COMDAT ?GetLength@?$CSimpleStringT@D$0A@@ATL@@QBEHXZ
_TEXT	SEGMENT
?GetLength@?$CSimpleStringT@D$0A@@ATL@@QBEHXZ PROC NEAR	; ATL::CSimpleStringT<char,0>::GetLength, COMDAT
; _this$ = ecx

; 501  : 		return( GetData()->nDataLength );

  00000	8b 01		 mov	 eax, DWORD PTR [ecx]
  00002	8b 40 f4	 mov	 eax, DWORD PTR [eax-12]

; 502  : 	}

  00005	c3		 ret	 0
?GetLength@?$CSimpleStringT@D$0A@@ATL@@QBEHXZ ENDP	; ATL::CSimpleStringT<char,0>::GetLength
_TEXT	ENDS
PUBLIC	??0?$CSimpleStringT@D$0A@@ATL@@QAE@PAUIAtlStringMgr@1@@Z ; ATL::CSimpleStringT<char,0>::CSimpleStringT<char,0>
; Function compile flags: /Ogty
;	COMDAT ??0?$CSimpleStringT@D$0A@@ATL@@QAE@PAUIAtlStringMgr@1@@Z
_TEXT	SEGMENT
_pStringMgr$ = 8					; size = 4
??0?$CSimpleStringT@D$0A@@ATL@@QAE@PAUIAtlStringMgr@1@@Z PROC NEAR ; ATL::CSimpleStringT<char,0>::CSimpleStringT<char,0>, COMDAT
; _this$ = ecx

; 210  : 	explicit CSimpleStringT( IAtlStringMgr* pStringMgr ) throw()

  00000	56		 push	 esi
  00001	8b f1		 mov	 esi, ecx

; 211  : 	{
; 212  : 		ATLASSERT( pStringMgr != NULL );
; 213  : 		CStringData* pData = pStringMgr->GetNilString();

  00003	8b 4c 24 08	 mov	 ecx, DWORD PTR _pStringMgr$[esp]
  00007	8b 01		 mov	 eax, DWORD PTR [ecx]
  00009	ff 50 0c	 call	 DWORD PTR [eax+12]

; 214  : 		Attach( pData );

  0000c	83 c0 10	 add	 eax, 16			; 00000010H
  0000f	89 06		 mov	 DWORD PTR [esi], eax

; 215  : 	}

  00011	8b c6		 mov	 eax, esi
  00013	5e		 pop	 esi
  00014	c2 04 00	 ret	 4
??0?$CSimpleStringT@D$0A@@ATL@@QAE@PAUIAtlStringMgr@1@@Z ENDP ; ATL::CSimpleStringT<char,0>::CSimpleStringT<char,0>
_TEXT	ENDS
PUBLIC	??1?$CSimpleStringT@D$0A@@ATL@@QAE@XZ		; ATL::CSimpleStringT<char,0>::~CSimpleStringT<char,0>
; Function compile flags: /Ogty
;	COMDAT ??1?$CSimpleStringT@D$0A@@ATL@@QAE@XZ
_TEXT	SEGMENT
??1?$CSimpleStringT@D$0A@@ATL@@QAE@XZ PROC NEAR		; ATL::CSimpleStringT<char,0>::~CSimpleStringT<char,0>, COMDAT
; _this$ = ecx

; 263  : 		CStringData* pData = GetData();

  00000	8b 01		 mov	 eax, DWORD PTR [ecx]
  00002	83 e8 10	 sub	 eax, 16			; 00000010H

; 264  : 		pData->Release();

  00005	8d 48 0c	 lea	 ecx, DWORD PTR [eax+12]
  00008	83 ca ff	 or	 edx, -1
  0000b	f0 0f c1 11	 lock	  xadd	 DWORD PTR [ecx], edx
  0000f	4a		 dec	 edx
  00010	85 d2		 test	 edx, edx
  00012	7f 08		 jg	 SHORT $L178058
  00014	8b 08		 mov	 ecx, DWORD PTR [eax]
  00016	8b 11		 mov	 edx, DWORD PTR [ecx]
  00018	50		 push	 eax
  00019	ff 52 04	 call	 DWORD PTR [edx+4]
$L178058:

; 265  : 	}

  0001c	c3		 ret	 0
??1?$CSimpleStringT@D$0A@@ATL@@QAE@XZ ENDP		; ATL::CSimpleStringT<char,0>::~CSimpleStringT<char,0>
_TEXT	ENDS
PUBLIC	?ReleaseBufferSetLength@?$CSimpleStringT@D$0A@@ATL@@QAEXH@Z ; ATL::CSimpleStringT<char,0>::ReleaseBufferSetLength
; Function compile flags: /Ogty
;	COMDAT ?ReleaseBufferSetLength@?$CSimpleStringT@D$0A@@ATL@@QAEXH@Z
_TEXT	SEGMENT
_nNewLength$ = 8					; size = 4
?ReleaseBufferSetLength@?$CSimpleStringT@D$0A@@ATL@@QAEXH@Z PROC NEAR ; ATL::CSimpleStringT<char,0>::ReleaseBufferSetLength, COMDAT
; _this$ = ecx

; 547  : 		ATLASSERT( nNewLength >= 0 );
; 548  : 		SetLength( nNewLength );

  00000	8b 44 24 04	 mov	 eax, DWORD PTR _nNewLength$[esp-4]
  00004	85 c0		 test	 eax, eax
  00006	7c 13		 jl	 SHORT $L178077
  00008	8b 11		 mov	 edx, DWORD PTR [ecx]
  0000a	3b 42 f8	 cmp	 eax, DWORD PTR [edx-8]
  0000d	7f 0c		 jg	 SHORT $L178077
  0000f	89 42 f4	 mov	 DWORD PTR [edx-12], eax
  00012	8b 09		 mov	 ecx, DWORD PTR [ecx]
  00014	c6 04 08 00	 mov	 BYTE PTR [eax+ecx], 0

; 549  : 	}

  00018	c2 04 00	 ret	 4
$L178077:
  0001b	68 57 00 07 80	 push	 -2147024809		; 80070057H
  00020	e8 00 00 00 00	 call	 ?AtlThrow@ATL@@YGXJ@Z	; ATL::AtlThrow
$L178080:
$L178079:
  00025	cc		 int	 3
?ReleaseBufferSetLength@?$CSimpleStringT@D$0A@@ATL@@QAEXH@Z ENDP ; ATL::CSimpleStringT<char,0>::ReleaseBufferSetLength
_TEXT	ENDS
PUBLIC	?PrepareWrite2@?$CSimpleStringT@D$0A@@ATL@@AAEXH@Z ; ATL::CSimpleStringT<char,0>::PrepareWrite2
; Function compile flags: /Ogty
;	COMDAT ?PrepareWrite2@?$CSimpleStringT@D$0A@@ATL@@AAEXH@Z
_TEXT	SEGMENT
_nLength$ = 8						; size = 4
?PrepareWrite2@?$CSimpleStringT@D$0A@@ATL@@AAEXH@Z PROC NEAR ; ATL::CSimpleStringT<char,0>::PrepareWrite2, COMDAT
; _this$ = ecx

; 747  : 		CStringData* pOldData = GetData();

  00000	8b 01		 mov	 eax, DWORD PTR [ecx]

; 748  : 		if( pOldData->nDataLength > nLength )

  00002	8b 54 24 04	 mov	 edx, DWORD PTR _nLength$[esp-4]
  00006	83 e8 10	 sub	 eax, 16			; 00000010H
  00009	56		 push	 esi
  0000a	8b 70 04	 mov	 esi, DWORD PTR [eax+4]
  0000d	3b f2		 cmp	 esi, edx
  0000f	7e 02		 jle	 SHORT $L149740

; 749  : 		{
; 750  : 			nLength = pOldData->nDataLength;

  00011	8b d6		 mov	 edx, esi
$L149740:

; 751  : 		}
; 752  : 		if( pOldData->IsShared() )

  00013	83 78 0c 01	 cmp	 DWORD PTR [eax+12], 1
  00017	5e		 pop	 esi
  00018	7e 09		 jle	 SHORT $L149741

; 753  : 		{
; 754  : 			Fork( nLength );

  0001a	89 54 24 04	 mov	 DWORD PTR _nLength$[esp-4], edx
  0001e	e9 00 00 00 00	 jmp	 ?Fork@?$CSimpleStringT@D$0A@@ATL@@AAEXH@Z ; ATL::CSimpleStringT<char,0>::Fork
$L149741:

; 755  : 		}
; 756  : 		else if( pOldData->nAllocLength < nLength )

  00023	8b 40 08	 mov	 eax, DWORD PTR [eax+8]
  00026	3b c2		 cmp	 eax, edx
  00028	7d 1f		 jge	 SHORT $L149743

; 757  : 		{
; 758  : 			// Grow exponentially, until we hit 1K.
; 759  : 			int nNewLength = pOldData->nAllocLength;
; 760  : 			if( nNewLength > 1024 )

  0002a	3d 00 04 00 00	 cmp	 eax, 1024		; 00000400H
  0002f	7e 07		 jle	 SHORT $L149745

; 761  : 			{
; 762  : 				nNewLength += 1024;

  00031	05 00 04 00 00	 add	 eax, 1024		; 00000400H

; 763  : 			}
; 764  : 			else

  00036	eb 02		 jmp	 SHORT $L149746
$L149745:

; 765  : 			{
; 766  : 				nNewLength *= 2;

  00038	03 c0		 add	 eax, eax
$L149746:

; 767  : 			}
; 768  : 			if( nNewLength < nLength )

  0003a	3b c2		 cmp	 eax, edx
  0003c	7d 02		 jge	 SHORT $L149747

; 769  : 			{
; 770  : 				nNewLength = nLength;

  0003e	8b c2		 mov	 eax, edx
$L149747:

; 771  : 			}
; 772  : 			Reallocate( nNewLength );

  00040	89 44 24 04	 mov	 DWORD PTR _nLength$[esp-4], eax
  00044	e9 00 00 00 00	 jmp	 ?Reallocate@?$CSimpleStringT@D$0A@@ATL@@AAEXH@Z ; ATL::CSimpleStringT<char,0>::Reallocate
$L149743:

; 773  : 		}
; 774  : 	}

  00049	c2 04 00	 ret	 4
?PrepareWrite2@?$CSimpleStringT@D$0A@@ATL@@AAEXH@Z ENDP	; ATL::CSimpleStringT<char,0>::PrepareWrite2
_TEXT	ENDS
PUBLIC	?Empty@?$CSimpleStringT@D$0A@@ATL@@QAEXXZ	; ATL::CSimpleStringT<char,0>::Empty
; Function compile flags: /Ogty
;	COMDAT ?Empty@?$CSimpleStringT@D$0A@@ATL@@QAEXXZ
_TEXT	SEGMENT
?Empty@?$CSimpleStringT@D$0A@@ATL@@QAEXXZ PROC NEAR	; ATL::CSimpleStringT<char,0>::Empty, COMDAT
; _this$ = ecx

; 421  : 	{

  00000	56		 push	 esi
  00001	8b f1		 mov	 esi, ecx

; 422  : 		CStringData* pOldData = GetData();

  00003	8b 0e		 mov	 ecx, DWORD PTR [esi]

; 423  : 		IAtlStringMgr* pStringMgr = pOldData->pStringMgr;
; 424  : 		if( pOldData->nDataLength == 0 )

  00005	8b 51 f4	 mov	 edx, DWORD PTR [ecx-12]
  00008	85 d2		 test	 edx, edx
  0000a	8d 41 f0	 lea	 eax, DWORD PTR [ecx-16]
  0000d	57		 push	 edi
  0000e	8b 38		 mov	 edi, DWORD PTR [eax]
  00010	74 4c		 je	 SHORT $L178123
  00012	53		 push	 ebx

; 425  : 		{
; 426  : 			return;
; 427  : 		}
; 428  : 
; 429  : 		if( pOldData->IsLocked() )

  00013	8b 58 0c	 mov	 ebx, DWORD PTR [eax+12]
  00016	8d 50 0c	 lea	 edx, DWORD PTR [eax+12]
  00019	85 db		 test	 ebx, ebx
  0001b	5b		 pop	 ebx
  0001c	7d 20		 jge	 SHORT $L150462

; 430  : 		{
; 431  : 			// Don't reallocate a locked buffer that's shrinking
; 432  : 			SetLength( 0 );

  0001e	8b 41 f8	 mov	 eax, DWORD PTR [ecx-8]
  00021	85 c0		 test	 eax, eax
  00023	7d 0a		 jge	 SHORT $L178112
  00025	68 57 00 07 80	 push	 -2147024809		; 80070057H
  0002a	e8 00 00 00 00	 call	 ?AtlThrow@ATL@@YGXJ@Z	; ATL::AtlThrow
$L178128:
$L178112:
  0002f	c7 41 f4 00 00
	00 00		 mov	 DWORD PTR [ecx-12], 0
  00036	8b 06		 mov	 eax, DWORD PTR [esi]
  00038	5f		 pop	 edi
  00039	c6 00 00	 mov	 BYTE PTR [eax], 0
  0003c	5e		 pop	 esi

; 439  : 		}
; 440  : 	}

  0003d	c3		 ret	 0
$L150462:

; 433  : 		}
; 434  : 		else
; 435  : 		{
; 436  : 			pOldData->Release();

  0003e	83 c9 ff	 or	 ecx, -1
  00041	f0 0f c1 0a	 lock	  xadd	 DWORD PTR [edx], ecx
  00045	49		 dec	 ecx
  00046	85 c9		 test	 ecx, ecx
  00048	7f 08		 jg	 SHORT $L178117
  0004a	8b 08		 mov	 ecx, DWORD PTR [eax]
  0004c	8b 11		 mov	 edx, DWORD PTR [ecx]
  0004e	50		 push	 eax
  0004f	ff 52 04	 call	 DWORD PTR [edx+4]
$L178117:

; 437  : 			CStringData* pNewData = pStringMgr->GetNilString();

  00052	8b 07		 mov	 eax, DWORD PTR [edi]
  00054	8b cf		 mov	 ecx, edi
  00056	ff 50 0c	 call	 DWORD PTR [eax+12]

; 438  : 			Attach( pNewData );

  00059	83 c0 10	 add	 eax, 16			; 00000010H
  0005c	89 06		 mov	 DWORD PTR [esi], eax
$L178123:
  0005e	5f		 pop	 edi
  0005f	5e		 pop	 esi

; 439  : 		}
; 440  : 	}

  00060	c3		 ret	 0
$L178127:
?Empty@?$CSimpleStringT@D$0A@@ATL@@QAEXXZ ENDP		; ATL::CSimpleStringT<char,0>::Empty
_TEXT	ENDS
PUBLIC	?SendDMLog@CUdpSocket@@QAEXU_LOG_DATA_@@@Z	; CUdpSocket::SendDMLog
EXTRN	?_AtlModule@@3VCTMapSvrModule@@A:BYTE		; _AtlModule
EXTRN	?GetAsDBTIMESTAMP@CTime@ATL@@QBE_NAAUtagDBTIMESTAMP@@@Z:NEAR ; ATL::CTime::GetAsDBTIMESTAMP
EXTRN	?SendDM_UDPLOG_REQ@CTMapSvrModule@@QAEXU_LOG_DATA_@@@Z:NEAR ; CTMapSvrModule::SendDM_UDPLOG_REQ
; Function compile flags: /Ogty
; File c:\users\pierr\desktop\4story - oldschool\sources\tserver\tmapsvr\udpsocket.cpp
;	COMDAT ?SendDMLog@CUdpSocket@@QAEXU_LOG_DATA_@@@Z
_TEXT	SEGMENT
_tNowTime$ = -8						; size = 8
_pLogData$ = 8						; size = 1016
?SendDMLog@CUdpSocket@@QAEXU_LOG_DATA_@@@Z PROC NEAR	; CUdpSocket::SendDMLog, COMDAT
; _this$ = ecx

; 113  : {

  00000	83 ec 08	 sub	 esp, 8
  00003	56		 push	 esi
  00004	57		 push	 edi

; 114  : 	//	Set Current Time
; 115  : 	CTime tNowTime = CTime::GetCurrentTime();

  00005	6a 00		 push	 0
  00007	e8 00 00 00 00	 call	 __time64
  0000c	89 44 24 0c	 mov	 DWORD PTR _tNowTime$[esp+20], eax
  00010	83 c4 04	 add	 esp, 4

; 116  : 	tNowTime.GetAsDBTIMESTAMP( pLogData.tTimeStamp );

  00013	8d 44 24 14	 lea	 eax, DWORD PTR _pLogData$[esp+12]
  00017	50		 push	 eax
  00018	8d 4c 24 0c	 lea	 ecx, DWORD PTR _tNowTime$[esp+20]
  0001c	89 54 24 10	 mov	 DWORD PTR _tNowTime$[esp+24], edx
  00020	e8 00 00 00 00	 call	 ?GetAsDBTIMESTAMP@CTime@ATL@@QBE_NAAUtagDBTIMESTAMP@@@Z ; ATL::CTime::GetAsDBTIMESTAMP

; 117  : 
; 118  : 	//
; 119  : 	//	Send Batch Thead
; 120  : 	//
; 121  : 	_AtlModule.SendDM_UDPLOG_REQ(pLogData);

  00025	81 ec f8 03 00
	00		 sub	 esp, 1016		; 000003f8H
  0002b	8b fc		 mov	 edi, esp
  0002d	b9 fe 00 00 00	 mov	 ecx, 254		; 000000feH
  00032	8d b4 24 0c 04
	00 00		 lea	 esi, DWORD PTR _pLogData$[esp+1028]
  00039	f3 a5		 rep movsd
  0003b	b9 00 00 00 00	 mov	 ecx, OFFSET FLAT:?_AtlModule@@3VCTMapSvrModule@@A
  00040	e8 00 00 00 00	 call	 ?SendDM_UDPLOG_REQ@CTMapSvrModule@@QAEXU_LOG_DATA_@@@Z ; CTMapSvrModule::SendDM_UDPLOG_REQ

; 122  : }

  00045	5f		 pop	 edi
  00046	5e		 pop	 esi
  00047	83 c4 08	 add	 esp, 8
  0004a	c2 f8 03	 ret	 1016			; 000003f8H
?SendDMLog@CUdpSocket@@QAEXU_LOG_DATA_@@@Z ENDP		; CUdpSocket::SendDMLog
_TEXT	ENDS
PUBLIC	??_C@_0BF@LNLPBIJG@Now?5Money?5?3?5?$CFu?1?$CFu?1?$CFu?$AA@ ; `string'
PUBLIC	??_C@_02DPKJAMEF@?$CFd?$AA@			; `string'
PUBLIC	?LogMoney@CUdpSocket@@QAEXKPAVCTPlayer@@PAVCTMonster@@_JPAUtagQUESTTEMP@@E@Z ; CUdpSocket::LogMoney
EXTRN	__imp__lstrcpyA@8:NEAR
EXTRN	__imp__inet_ntoa@4:NEAR
EXTRN	__imp__wsprintfA:NEAR
EXTRN	__ftol2:NEAR
;	COMDAT ??_C@_0BF@LNLPBIJG@Now?5Money?5?3?5?$CFu?1?$CFu?1?$CFu?$AA@
; File c:\program files (x86)\microsoft visual studio .net 2003\vc7\atlmfc\include\atlsimpstr.h
CONST	SEGMENT
??_C@_0BF@LNLPBIJG@Now?5Money?5?3?5?$CFu?1?$CFu?1?$CFu?$AA@ DB 'Now Money'
	DB	' : %u/%u/%u', 00H				; `string'
CONST	ENDS
;	COMDAT ??_C@_02DPKJAMEF@?$CFd?$AA@
CONST	SEGMENT
??_C@_02DPKJAMEF@?$CFd?$AA@ DB '%d', 00H		; `string'
; Function compile flags: /Ogty
; File c:\users\pierr\desktop\4story - oldschool\sources\tserver\tmapsvr\udpsocket.cpp
CONST	ENDS
;	COMDAT ?LogMoney@CUdpSocket@@QAEXKPAVCTPlayer@@PAVCTMonster@@_JPAUtagQUESTTEMP@@E@Z
_TEXT	SEGMENT
_this$ = -1028						; size = 4
_LogData$ = -1024					; size = 1016
__$ArrayPad$ = -4					; size = 4
__$ReturnAddr$ = 4					; size = 4
_pAction$ = 8						; size = 4
_pPlayer$ = 12						; size = 4
_pMon$ = 16						; size = 4
_pMoney$ = 20						; size = 8
_pQUEST$ = 28						; size = 4
_bIsWorld$ = 32						; size = 1
?LogMoney@CUdpSocket@@QAEXKPAVCTPlayer@@PAVCTMonster@@_JPAUtagQUESTTEMP@@E@Z PROC NEAR ; CUdpSocket::LogMoney, COMDAT
; _this$ = ecx

; 128  : {

  00000	55		 push	 ebp
  00001	8b ec		 mov	 ebp, esp
  00003	83 e4 f8	 and	 esp, -8			; fffffff8H
  00006	81 ec 04 04 00
	00		 sub	 esp, 1028		; 00000404H
  0000c	a1 00 00 00 00	 mov	 eax, DWORD PTR ___security_cookie
  00011	53		 push	 ebx
  00012	56		 push	 esi

; 129  : 	if(!pPlayer) return;

  00013	8b 75 0c	 mov	 esi, DWORD PTR _pPlayer$[ebp]
  00016	33 db		 xor	 ebx, ebx
  00018	3b f3		 cmp	 esi, ebx
  0001a	89 84 24 08 04
	00 00		 mov	 DWORD PTR __$ArrayPad$[esp+1036], eax
  00021	57		 push	 edi
  00022	89 4c 24 0c	 mov	 DWORD PTR _this$[esp+1040], ecx
  00026	0f 84 86 01 00
	00		 je	 $L175270

; 130  : 
; 131  : 	_LOG_DATA_ LogData;
; 132  : 	memset( &LogData, 0x00, sizeof(_LOG_DATA_));
; 133  : 
; 134  : 	LogData.dwAction		=	pAction;
; 135  : 	LogData.dwServerID		=	_AtlModule.GetServerID();
; 136  : 
; 137  : 	lstrcpy( LogData.szClientIP, inet_ntoa(pPlayer->m_addr.sin_addr) );	

  0002c	8b 56 40	 mov	 edx, DWORD PTR [esi+64]
  0002f	33 c0		 xor	 eax, eax
  00031	b9 fe 00 00 00	 mov	 ecx, 254		; 000000feH
  00036	8d 7c 24 10	 lea	 edi, DWORD PTR _LogData$[esp+1040]
  0003a	f3 ab		 rep stosd
  0003c	0f b6 0d 82 9e
	00 00		 movzx	 ecx, BYTE PTR ?_AtlModule@@3VCTMapSvrModule@@A+40578
  00043	8b 45 08	 mov	 eax, DWORD PTR _pAction$[ebp]
  00046	52		 push	 edx
  00047	89 44 24 38	 mov	 DWORD PTR _LogData$[esp+1080], eax
  0004b	89 4c 24 24	 mov	 DWORD PTR _LogData$[esp+1060], ecx
  0004f	ff 15 00 00 00
	00		 call	 DWORD PTR __imp__inet_ntoa@4
  00055	8b 3d 00 00 00
	00		 mov	 edi, DWORD PTR __imp__lstrcpyA@8
  0005b	50		 push	 eax
  0005c	8d 44 24 28	 lea	 eax, DWORD PTR _LogData$[esp+1064]
  00060	50		 push	 eax
  00061	ff d7		 call	 edi

; 138  : 		
; 139  : 	LogData.wMapID			=	pPlayer->m_wMapID;				//	Map ID

  00063	66 8b 8e 90 01
	01 00		 mov	 cx, WORD PTR [esi+65936]

; 140  : 	LogData.nX				=	(int)pPlayer->m_fPosX;			//	X

  0006a	d9 86 7c 01 01
	00		 fld	 DWORD PTR [esi+65916]
  00070	66 89 4c 24 38	 mov	 WORD PTR _LogData$[esp+1080], cx
  00075	e8 00 00 00 00	 call	 __ftol2

; 141  : 	LogData.nY				=	(int)pPlayer->m_fPosY;			//	Y

  0007a	d9 86 80 01 01
	00		 fld	 DWORD PTR [esi+65920]
  00080	89 44 24 3c	 mov	 DWORD PTR _LogData$[esp+1084], eax
  00084	e8 00 00 00 00	 call	 __ftol2

; 142  : 	LogData.nZ				=	(int)pPlayer->m_fPosZ;			//	Z

  00089	d9 86 84 01 01
	00		 fld	 DWORD PTR [esi+65924]
  0008f	89 44 24 40	 mov	 DWORD PTR _LogData$[esp+1088], eax
  00093	e8 00 00 00 00	 call	 __ftol2

; 143  : 	
; 144  : 	LogData.dwKey[0]		=	pPlayer->m_dwUserID;			//	User ID

  00098	8b 96 ac 03 01
	00		 mov	 edx, DWORD PTR [esi+66476]

; 145  : 	LogData.dwKey[1]		=	pPlayer->m_dwID;				//	Character Seq
; 146  : 	lstrcpy(LogData.szKey[1],	pPlayer->m_strNAME	);			//	Character Name

  0009e	8b 8e a4 03 01
	00		 mov	 ecx, DWORD PTR [esi+66468]
  000a4	89 54 24 48	 mov	 DWORD PTR _LogData$[esp+1096], edx
  000a8	89 44 24 44	 mov	 DWORD PTR _LogData$[esp+1092], eax
  000ac	8b 86 44 01 01
	00		 mov	 eax, DWORD PTR [esi+65860]
  000b2	51		 push	 ecx
  000b3	8d 94 24 d6 00
	00 00		 lea	 edx, DWORD PTR _LogData$[esp+1238]
  000ba	52		 push	 edx
  000bb	89 5c 24 54	 mov	 DWORD PTR _LogData$[esp+1108], ebx
  000bf	89 44 24 58	 mov	 DWORD PTR _LogData$[esp+1112], eax
  000c3	89 5c 24 5c	 mov	 DWORD PTR _LogData$[esp+1116], ebx
  000c7	ff d7		 call	 edi

; 147  : 
; 148  : 	LogData.dwKey[9]		=	pPlayer->m_bCountry + (pPlayer->m_bAidCountry == TCONTRY_N ? 0 : (pPlayer->m_bAidCountry+1)*10);			//	Country

  000c9	8a 86 9e 01 01
	00		 mov	 al, BYTE PTR [esi+65950]
  000cf	3c 03		 cmp	 al, 3
  000d1	75 04		 jne	 SHORT $L178145
  000d3	33 c9		 xor	 ecx, ecx
  000d5	eb 09		 jmp	 SHORT $L178146
$L178145:
  000d7	0f b6 c0	 movzx	 eax, al
  000da	40		 inc	 eax
  000db	8d 0c 80	 lea	 ecx, DWORD PTR [eax+eax*4]
  000de	d1 e1		 shl	 ecx, 1
$L178146:
  000e0	0f b6 86 9d 01
	01 00		 movzx	 eax, BYTE PTR [esi+65949]
  000e7	03 c1		 add	 eax, ecx
  000e9	99		 cdq
  000ea	89 84 24 90 00
	00 00		 mov	 DWORD PTR _LogData$[esp+1168], eax

; 149  : 	LogData.dwKey[10]		=	pPlayer->m_bLevel;				//	Level

  000f1	0f b6 86 7b 01
	01 00		 movzx	 eax, BYTE PTR [esi+65915]
  000f8	89 94 24 94 00
	00 00		 mov	 DWORD PTR _LogData$[esp+1172], edx
  000ff	99		 cdq
  00100	89 84 24 98 00
	00 00		 mov	 DWORD PTR _LogData$[esp+1176], eax

; 150  : 
; 151  : 	if(pMon)

  00107	8b 45 10	 mov	 eax, DWORD PTR _pMon$[ebp]
  0010a	3b c3		 cmp	 eax, ebx
  0010c	89 94 24 9c 00
	00 00		 mov	 DWORD PTR _LogData$[esp+1180], edx
  00113	74 13		 je	 SHORT $L175277

; 152  : 	{	
; 153  : 		LogData.dwKey[2]	=	pMon->m_pMON->m_wID;			//	Monster	ID

  00115	8b 80 ec 00 00
	00		 mov	 eax, DWORD PTR [eax+236]
  0011b	0f b7 40 24	 movzx	 eax, WORD PTR [eax+36]
  0011f	99		 cdq
  00120	89 44 24 58	 mov	 DWORD PTR _LogData$[esp+1112], eax
  00124	89 54 24 5c	 mov	 DWORD PTR _LogData$[esp+1116], edx
$L175277:

; 154  : 	}
; 155  : 
; 156  : 	LogData.dwKey[5]		=	pMoney;							//	Get Money   
; 157  : 	wsprintf( LogData.szKey[5], "Now Money : %u/%u/%u",			//	Now Money
; 158  : 											pPlayer->m_dwGold,		
; 159  : 											pPlayer->m_dwSilver, 
; 160  : 											pPlayer->m_dwCooper );

  00128	8b 86 c8 03 01
	00		 mov	 eax, DWORD PTR [esi+66504]
  0012e	8b 4d 14	 mov	 ecx, DWORD PTR _pMoney$[ebp]
  00131	8b 55 18	 mov	 edx, DWORD PTR _pMoney$[ebp+4]
  00134	50		 push	 eax
  00135	89 4c 24 74	 mov	 DWORD PTR _LogData$[esp+1140], ecx
  00139	8b 8e cc 03 01
	00		 mov	 ecx, DWORD PTR [esi+66508]
  0013f	51		 push	 ecx
  00140	89 54 24 7c	 mov	 DWORD PTR _LogData$[esp+1148], edx
  00144	8b 96 d0 03 01
	00		 mov	 edx, DWORD PTR [esi+66512]
  0014a	8b 35 00 00 00
	00		 mov	 esi, DWORD PTR __imp__wsprintfA
  00150	52		 push	 edx
  00151	8d 84 24 a6 01
	00 00		 lea	 eax, DWORD PTR _LogData$[esp+1446]
  00158	68 00 00 00 00	 push	 OFFSET FLAT:??_C@_0BF@LNLPBIJG@Now?5Money?5?3?5?$CFu?1?$CFu?1?$CFu?$AA@
  0015d	50		 push	 eax
  0015e	ff d6		 call	 esi

; 161  : 
; 162  : 	if(pQUEST)

  00160	8b 45 1c	 mov	 eax, DWORD PTR _pQUEST$[ebp]
  00163	83 c4 14	 add	 esp, 20			; 00000014H
  00166	3b c3		 cmp	 eax, ebx
  00168	74 0b		 je	 SHORT $L175279

; 163  : 	{
; 164  : 		LogData.dwKey[6]	=	pQUEST->m_dwQuestID;			//	Quest

  0016a	8b 48 44	 mov	 ecx, DWORD PTR [eax+68]
  0016d	89 4c 24 78	 mov	 DWORD PTR _LogData$[esp+1144], ecx
  00171	89 5c 24 7c	 mov	 DWORD PTR _LogData$[esp+1148], ebx
$L175279:

; 165  : 	}
; 166  : 
; 167  : 	// Is World 	  
; 168  : 	LogData.dwFormat = LF_TEXT;
; 169  : 
; 170  : 	wsprintf(LogData.szLog, "%d", bIsWorld);

  00175	0f b6 55 20	 movzx	 edx, BYTE PTR _bIsWorld$[ebp]
  00179	52		 push	 edx
  0017a	8d 84 24 08 02
	00 00		 lea	 eax, DWORD PTR _LogData$[esp+1544]
  00181	68 00 00 00 00	 push	 OFFSET FLAT:??_C@_02DPKJAMEF@?$CFd?$AA@
  00186	50		 push	 eax
  00187	89 9c 24 0c 02
	00 00		 mov	 DWORD PTR _LogData$[esp+1548], ebx
  0018e	ff d6		 call	 esi

; 171  : 
; 172  : 	SendDMLog( LogData );

  00190	81 ec ec 03 00
	00		 sub	 esp, 1004		; 000003ecH
  00196	8b fc		 mov	 edi, esp
  00198	b9 fe 00 00 00	 mov	 ecx, 254		; 000000feH
  0019d	8d b4 24 08 04
	00 00		 lea	 esi, DWORD PTR _LogData$[esp+2056]
  001a4	f3 a5		 rep movsd
  001a6	8b 8c 24 04 04
	00 00		 mov	 ecx, DWORD PTR _this$[esp+2056]
  001ad	e8 00 00 00 00	 call	 ?SendDMLog@CUdpSocket@@QAEXU_LOG_DATA_@@@Z ; CUdpSocket::SendDMLog
$L175270:

; 173  : }

  001b2	8b 8c 24 0c 04
	00 00		 mov	 ecx, DWORD PTR __$ArrayPad$[esp+1040]
  001b9	e8 00 00 00 00	 call	 @__security_check_cookie@4
  001be	5f		 pop	 edi
  001bf	5e		 pop	 esi
  001c0	5b		 pop	 ebx
  001c1	8b e5		 mov	 esp, ebp
  001c3	5d		 pop	 ebp
  001c4	c2 1c 00	 ret	 28			; 0000001cH
?LogMoney@CUdpSocket@@QAEXKPAVCTPlayer@@PAVCTMonster@@_JPAUtagQUESTTEMP@@E@Z ENDP ; CUdpSocket::LogMoney
_TEXT	ENDS
PUBLIC	??_C@_0N@FCHLIMGO@Now?5Exp?5?3?5?$CFu?$AA@	; `string'
PUBLIC	?LogExpByMonster@CUdpSocket@@QAEXKPAVCTPlayer@@PAVCTMonster@@KE@Z ; CUdpSocket::LogExpByMonster
;	COMDAT ??_C@_0N@FCHLIMGO@Now?5Exp?5?3?5?$CFu?$AA@
; File c:\program files (x86)\microsoft visual studio .net 2003\vc7\atlmfc\include\atlsimpstr.h
CONST	SEGMENT
??_C@_0N@FCHLIMGO@Now?5Exp?5?3?5?$CFu?$AA@ DB 'Now Exp : %u', 00H ; `string'
; Function compile flags: /Ogty
; File c:\users\pierr\desktop\4story - oldschool\sources\tserver\tmapsvr\udpsocket.cpp
CONST	ENDS
;	COMDAT ?LogExpByMonster@CUdpSocket@@QAEXKPAVCTPlayer@@PAVCTMonster@@KE@Z
_TEXT	SEGMENT
_this$ = -1028						; size = 4
_LogData$ = -1024					; size = 1016
__$ArrayPad$ = -4					; size = 4
__$ReturnAddr$ = 4					; size = 4
_pAction$ = 8						; size = 4
_pPlayer$ = 12						; size = 4
_pMon$ = 16						; size = 4
_dwGain$ = 20						; size = 4
_bIsWorld$ = 24						; size = 1
?LogExpByMonster@CUdpSocket@@QAEXKPAVCTPlayer@@PAVCTMonster@@KE@Z PROC NEAR ; CUdpSocket::LogExpByMonster, COMDAT
; _this$ = ecx

; 883  : {

  00000	55		 push	 ebp
  00001	8b ec		 mov	 ebp, esp
  00003	83 e4 f8	 and	 esp, -8			; fffffff8H
  00006	81 ec 04 04 00
	00		 sub	 esp, 1028		; 00000404H
  0000c	a1 00 00 00 00	 mov	 eax, DWORD PTR ___security_cookie
  00011	53		 push	 ebx
  00012	56		 push	 esi

; 884  : 	if(!pPlayer || !pMon ) return;

  00013	8b 75 0c	 mov	 esi, DWORD PTR _pPlayer$[ebp]
  00016	33 db		 xor	 ebx, ebx
  00018	3b f3		 cmp	 esi, ebx
  0001a	89 84 24 08 04
	00 00		 mov	 DWORD PTR __$ArrayPad$[esp+1036], eax
  00021	57		 push	 edi
  00022	89 4c 24 0c	 mov	 DWORD PTR _this$[esp+1040], ecx
  00026	0f 84 6b 01 00
	00		 je	 $L175627
  0002c	39 5d 10	 cmp	 DWORD PTR _pMon$[ebp], ebx
  0002f	0f 84 62 01 00
	00		 je	 $L175627

; 885  : 
; 886  : 	_LOG_DATA_ LogData;
; 887  : 	memset( &LogData, 0x00, sizeof(_LOG_DATA_));
; 888  : 
; 889  : 	LogData.dwAction	=	pAction;
; 890  : 	LogData.dwServerID	=	_AtlModule.GetServerID();
; 891  : 
; 892  : 	lstrcpy( LogData.szClientIP, inet_ntoa(pPlayer->m_addr.sin_addr) );	

  00035	8b 56 40	 mov	 edx, DWORD PTR [esi+64]
  00038	33 c0		 xor	 eax, eax
  0003a	b9 fe 00 00 00	 mov	 ecx, 254		; 000000feH
  0003f	8d 7c 24 10	 lea	 edi, DWORD PTR _LogData$[esp+1040]
  00043	f3 ab		 rep stosd
  00045	0f b6 0d 82 9e
	00 00		 movzx	 ecx, BYTE PTR ?_AtlModule@@3VCTMapSvrModule@@A+40578
  0004c	8b 45 08	 mov	 eax, DWORD PTR _pAction$[ebp]
  0004f	52		 push	 edx
  00050	89 44 24 38	 mov	 DWORD PTR _LogData$[esp+1080], eax
  00054	89 4c 24 24	 mov	 DWORD PTR _LogData$[esp+1060], ecx
  00058	ff 15 00 00 00
	00		 call	 DWORD PTR __imp__inet_ntoa@4
  0005e	8b 3d 00 00 00
	00		 mov	 edi, DWORD PTR __imp__lstrcpyA@8
  00064	50		 push	 eax
  00065	8d 44 24 28	 lea	 eax, DWORD PTR _LogData$[esp+1064]
  00069	50		 push	 eax
  0006a	ff d7		 call	 edi

; 893  : 
; 894  : 
; 895  : 	LogData.wMapID			=	pPlayer->m_wMapID;				//	Map ID

  0006c	66 8b 8e 90 01
	01 00		 mov	 cx, WORD PTR [esi+65936]

; 896  : 	LogData.nX				=	(int)pPlayer->m_fPosX;			//	X

  00073	d9 86 7c 01 01
	00		 fld	 DWORD PTR [esi+65916]
  00079	66 89 4c 24 38	 mov	 WORD PTR _LogData$[esp+1080], cx
  0007e	e8 00 00 00 00	 call	 __ftol2

; 897  : 	LogData.nY				=	(int)pPlayer->m_fPosY;			//	Y

  00083	d9 86 80 01 01
	00		 fld	 DWORD PTR [esi+65920]
  00089	89 44 24 3c	 mov	 DWORD PTR _LogData$[esp+1084], eax
  0008d	e8 00 00 00 00	 call	 __ftol2

; 898  : 	LogData.nZ				=	(int)pPlayer->m_fPosZ;			//	Z

  00092	d9 86 84 01 01
	00		 fld	 DWORD PTR [esi+65924]
  00098	89 44 24 40	 mov	 DWORD PTR _LogData$[esp+1088], eax
  0009c	e8 00 00 00 00	 call	 __ftol2

; 899  : 
; 900  : 	LogData.dwKey[0]		=	pPlayer->m_dwUserID;			//	User ID

  000a1	8b 96 ac 03 01
	00		 mov	 edx, DWORD PTR [esi+66476]

; 901  : 	LogData.dwKey[1]		=	pPlayer->m_dwID;				//	Character Seq
; 902  : 	lstrcpy(LogData.szKey[1],	pPlayer->m_strNAME	);			//	Character Name

  000a7	8b 8e a4 03 01
	00		 mov	 ecx, DWORD PTR [esi+66468]
  000ad	89 54 24 48	 mov	 DWORD PTR _LogData$[esp+1096], edx
  000b1	89 44 24 44	 mov	 DWORD PTR _LogData$[esp+1092], eax
  000b5	8b 86 44 01 01
	00		 mov	 eax, DWORD PTR [esi+65860]
  000bb	51		 push	 ecx
  000bc	8d 94 24 d6 00
	00 00		 lea	 edx, DWORD PTR _LogData$[esp+1238]
  000c3	52		 push	 edx
  000c4	89 5c 24 54	 mov	 DWORD PTR _LogData$[esp+1108], ebx
  000c8	89 44 24 58	 mov	 DWORD PTR _LogData$[esp+1112], eax
  000cc	89 5c 24 5c	 mov	 DWORD PTR _LogData$[esp+1116], ebx
  000d0	ff d7		 call	 edi

; 903  : 
; 904  : 	LogData.dwKey[9]		=	pPlayer->m_bCountry + (pPlayer->m_bAidCountry == TCONTRY_N ? 0 : (pPlayer->m_bAidCountry+1)*10);			//	Country

  000d2	8a 86 9e 01 01
	00		 mov	 al, BYTE PTR [esi+65950]
  000d8	3c 03		 cmp	 al, 3
  000da	75 04		 jne	 SHORT $L178160
  000dc	33 c9		 xor	 ecx, ecx
  000de	eb 09		 jmp	 SHORT $L178161
$L178160:
  000e0	0f b6 c0	 movzx	 eax, al
  000e3	40		 inc	 eax
  000e4	8d 0c 80	 lea	 ecx, DWORD PTR [eax+eax*4]
  000e7	d1 e1		 shl	 ecx, 1
$L178161:
  000e9	0f b6 86 9d 01
	01 00		 movzx	 eax, BYTE PTR [esi+65949]
  000f0	03 c1		 add	 eax, ecx
  000f2	99		 cdq
  000f3	89 84 24 90 00
	00 00		 mov	 DWORD PTR _LogData$[esp+1168], eax

; 905  : 	LogData.dwKey[10]		=	pPlayer->m_bLevel;				//	Level

  000fa	0f b6 86 7b 01
	01 00		 movzx	 eax, BYTE PTR [esi+65915]
  00101	89 94 24 94 00
	00 00		 mov	 DWORD PTR _LogData$[esp+1172], edx
  00108	99		 cdq
  00109	89 84 24 98 00
	00 00		 mov	 DWORD PTR _LogData$[esp+1176], eax

; 906  : 
; 907  : 
; 908  : 
; 909  : 	if(pMon)
; 910  : 	{
; 911  : 		LogData.dwKey[2]	=	pMon->m_pMON->m_wID;			//	Npc ID

  00110	8b 45 10	 mov	 eax, DWORD PTR _pMon$[ebp]
  00113	8b 88 ec 00 00
	00		 mov	 ecx, DWORD PTR [eax+236]
  00119	89 94 24 9c 00
	00 00		 mov	 DWORD PTR _LogData$[esp+1180], edx
  00120	0f b7 41 24	 movzx	 eax, WORD PTR [ecx+36]
  00124	99		 cdq
  00125	89 44 24 58	 mov	 DWORD PTR _LogData$[esp+1112], eax

; 912  : 	}
; 913  : 
; 914  : 	LogData.dwKey[6]		=	dwGain;							// Exp
; 915  : 	wsprintf(LogData.szKey[6],"Now Exp : %u", pPlayer->m_dwEXP);// Now Exp

  00129	8b 86 d4 03 01
	00		 mov	 eax, DWORD PTR [esi+66516]
  0012f	8b 35 00 00 00
	00		 mov	 esi, DWORD PTR __imp__wsprintfA
  00135	50		 push	 eax
  00136	89 54 24 60	 mov	 DWORD PTR _LogData$[esp+1120], edx
  0013a	8b 55 14	 mov	 edx, DWORD PTR _dwGain$[ebp]
  0013d	8d 8c 24 d0 01
	00 00		 lea	 ecx, DWORD PTR _LogData$[esp+1488]
  00144	68 00 00 00 00	 push	 OFFSET FLAT:??_C@_0N@FCHLIMGO@Now?5Exp?5?3?5?$CFu?$AA@
  00149	51		 push	 ecx
  0014a	89 94 24 84 00
	00 00		 mov	 DWORD PTR _LogData$[esp+1156], edx
  00151	89 9c 24 88 00
	00 00		 mov	 DWORD PTR _LogData$[esp+1160], ebx
  00158	ff d6		 call	 esi

; 916  : 
; 917  : 	// Is World 	  
; 918  : 	LogData.dwFormat = LF_TEXT;
; 919  : 
; 920  : 	wsprintf((char*)LogData.szLog, "%d", bIsWorld);

  0015a	0f b6 55 18	 movzx	 edx, BYTE PTR _bIsWorld$[ebp]
  0015e	52		 push	 edx
  0015f	8d 84 24 14 02
	00 00		 lea	 eax, DWORD PTR _LogData$[esp+1556]
  00166	68 00 00 00 00	 push	 OFFSET FLAT:??_C@_02DPKJAMEF@?$CFd?$AA@
  0016b	50		 push	 eax
  0016c	89 9c 24 18 02
	00 00		 mov	 DWORD PTR _LogData$[esp+1560], ebx
  00173	ff d6		 call	 esi

; 921  : 
; 922  : 	SendDMLog( LogData );

  00175	81 ec e0 03 00
	00		 sub	 esp, 992		; 000003e0H
  0017b	8b fc		 mov	 edi, esp
  0017d	b9 fe 00 00 00	 mov	 ecx, 254		; 000000feH
  00182	8d b4 24 08 04
	00 00		 lea	 esi, DWORD PTR _LogData$[esp+2056]
  00189	f3 a5		 rep movsd
  0018b	8b 8c 24 04 04
	00 00		 mov	 ecx, DWORD PTR _this$[esp+2056]
  00192	e8 00 00 00 00	 call	 ?SendDMLog@CUdpSocket@@QAEXU_LOG_DATA_@@@Z ; CUdpSocket::SendDMLog
$L175627:

; 923  : }

  00197	8b 8c 24 0c 04
	00 00		 mov	 ecx, DWORD PTR __$ArrayPad$[esp+1040]
  0019e	e8 00 00 00 00	 call	 @__security_check_cookie@4
  001a3	5f		 pop	 edi
  001a4	5e		 pop	 esi
  001a5	5b		 pop	 ebx
  001a6	8b e5		 mov	 esp, ebp
  001a8	5d		 pop	 ebp
  001a9	c2 14 00	 ret	 20			; 00000014H
?LogExpByMonster@CUdpSocket@@QAEXKPAVCTPlayer@@PAVCTMonster@@KE@Z ENDP ; CUdpSocket::LogExpByMonster
_TEXT	ENDS
PUBLIC	?LogSkillAct@CUdpSocket@@QAEXKPAVCTPlayer@@PAVCTSkill@@_J@Z ; CUdpSocket::LogSkillAct
EXTRN	?GetID@CTSkill@@QAEGXZ:NEAR			; CTSkill::GetID
; Function compile flags: /Ogty
;	COMDAT ?LogSkillAct@CUdpSocket@@QAEXKPAVCTPlayer@@PAVCTSkill@@_J@Z
_TEXT	SEGMENT
_this$ = -1028						; size = 4
_LogData$ = -1024					; size = 1016
__$ArrayPad$ = -4					; size = 4
__$ReturnAddr$ = 4					; size = 4
_pAction$ = 8						; size = 4
_pPlayer$ = 12						; size = 4
_pSkill$ = 16						; size = 4
_pMoney$ = 20						; size = 8
?LogSkillAct@CUdpSocket@@QAEXKPAVCTPlayer@@PAVCTSkill@@_J@Z PROC NEAR ; CUdpSocket::LogSkillAct, COMDAT
; _this$ = ecx

; 929  : {

  00000	55		 push	 ebp
  00001	8b ec		 mov	 ebp, esp
  00003	83 e4 f8	 and	 esp, -8			; fffffff8H
  00006	81 ec 04 04 00
	00		 sub	 esp, 1028		; 00000404H
  0000c	a1 00 00 00 00	 mov	 eax, DWORD PTR ___security_cookie
  00011	53		 push	 ebx
  00012	56		 push	 esi

; 930  : 	if(!pPlayer || !pSkill) return;

  00013	8b 75 0c	 mov	 esi, DWORD PTR _pPlayer$[ebp]
  00016	85 f6		 test	 esi, esi
  00018	89 84 24 08 04
	00 00		 mov	 DWORD PTR __$ArrayPad$[esp+1036], eax
  0001f	57		 push	 edi
  00020	89 4c 24 0c	 mov	 DWORD PTR _this$[esp+1040], ecx
  00024	0f 84 ac 01 00
	00		 je	 $L175644
  0002a	8b 5d 10	 mov	 ebx, DWORD PTR _pSkill$[ebp]
  0002d	85 db		 test	 ebx, ebx
  0002f	0f 84 a1 01 00
	00		 je	 $L175644

; 931  : 
; 932  : 	_LOG_DATA_ LogData;
; 933  : 	memset( &LogData, 0x00, sizeof(_LOG_DATA_));
; 934  : 
; 935  : 	LogData.dwAction	=	pAction;
; 936  : 	LogData.dwServerID	=	_AtlModule.GetServerID();
; 937  : 
; 938  : 	lstrcpy( LogData.szClientIP, inet_ntoa(pPlayer->m_addr.sin_addr) );

  00035	8b 56 40	 mov	 edx, DWORD PTR [esi+64]
  00038	33 c0		 xor	 eax, eax
  0003a	b9 fe 00 00 00	 mov	 ecx, 254		; 000000feH
  0003f	8d 7c 24 10	 lea	 edi, DWORD PTR _LogData$[esp+1040]
  00043	f3 ab		 rep stosd
  00045	0f b6 0d 82 9e
	00 00		 movzx	 ecx, BYTE PTR ?_AtlModule@@3VCTMapSvrModule@@A+40578
  0004c	8b 45 08	 mov	 eax, DWORD PTR _pAction$[ebp]
  0004f	52		 push	 edx
  00050	89 44 24 38	 mov	 DWORD PTR _LogData$[esp+1080], eax
  00054	89 4c 24 24	 mov	 DWORD PTR _LogData$[esp+1060], ecx
  00058	ff 15 00 00 00
	00		 call	 DWORD PTR __imp__inet_ntoa@4
  0005e	8b 3d 00 00 00
	00		 mov	 edi, DWORD PTR __imp__lstrcpyA@8
  00064	50		 push	 eax
  00065	8d 44 24 28	 lea	 eax, DWORD PTR _LogData$[esp+1064]
  00069	50		 push	 eax
  0006a	ff d7		 call	 edi

; 939  : 		
; 940  : 	LogData.wMapID			=	pPlayer->m_wMapID;				//	Map ID

  0006c	66 8b 8e 90 01
	01 00		 mov	 cx, WORD PTR [esi+65936]

; 941  : 	LogData.nX				=	(int)pPlayer->m_fPosX;			//	X

  00073	d9 86 7c 01 01
	00		 fld	 DWORD PTR [esi+65916]
  00079	66 89 4c 24 38	 mov	 WORD PTR _LogData$[esp+1080], cx
  0007e	e8 00 00 00 00	 call	 __ftol2

; 942  : 	LogData.nY				=	(int)pPlayer->m_fPosY;			//	Y

  00083	d9 86 80 01 01
	00		 fld	 DWORD PTR [esi+65920]
  00089	89 44 24 3c	 mov	 DWORD PTR _LogData$[esp+1084], eax
  0008d	e8 00 00 00 00	 call	 __ftol2

; 943  : 	LogData.nZ				=	(int)pPlayer->m_fPosZ;			//	Z

  00092	d9 86 84 01 01
	00		 fld	 DWORD PTR [esi+65924]
  00098	89 44 24 40	 mov	 DWORD PTR _LogData$[esp+1088], eax
  0009c	e8 00 00 00 00	 call	 __ftol2

; 944  : 		
; 945  : 	LogData.dwKey[0]		=	pPlayer->m_dwUserID;			//	User ID

  000a1	8b 96 ac 03 01
	00		 mov	 edx, DWORD PTR [esi+66476]

; 946  : 	LogData.dwKey[1]		=	pPlayer->m_dwID;				//	Character Seq

  000a7	8b 8e 44 01 01
	00		 mov	 ecx, DWORD PTR [esi+65860]
  000ad	89 44 24 44	 mov	 DWORD PTR _LogData$[esp+1092], eax
  000b1	33 c0		 xor	 eax, eax
  000b3	89 54 24 48	 mov	 DWORD PTR _LogData$[esp+1096], edx

; 947  : 	lstrcpy(LogData.szKey[1],	pPlayer->m_strNAME	);			//	Character Name

  000b7	8b 96 a4 03 01
	00		 mov	 edx, DWORD PTR [esi+66468]
  000bd	89 44 24 4c	 mov	 DWORD PTR _LogData$[esp+1100], eax
  000c1	89 44 24 54	 mov	 DWORD PTR _LogData$[esp+1108], eax
  000c5	52		 push	 edx
  000c6	8d 84 24 d6 00
	00 00		 lea	 eax, DWORD PTR _LogData$[esp+1238]
  000cd	50		 push	 eax
  000ce	89 4c 24 58	 mov	 DWORD PTR _LogData$[esp+1112], ecx
  000d2	ff d7		 call	 edi

; 948  : 
; 949  : 	LogData.dwKey[9]		=	pPlayer->m_bCountry + (pPlayer->m_bAidCountry == TCONTRY_N ? 0 : (pPlayer->m_bAidCountry+1)*10);			//	Country

  000d4	8a 86 9e 01 01
	00		 mov	 al, BYTE PTR [esi+65950]
  000da	3c 03		 cmp	 al, 3
  000dc	75 04		 jne	 SHORT $L178174
  000de	33 c9		 xor	 ecx, ecx
  000e0	eb 09		 jmp	 SHORT $L178175
$L178174:
  000e2	0f b6 c0	 movzx	 eax, al
  000e5	40		 inc	 eax
  000e6	8d 0c 80	 lea	 ecx, DWORD PTR [eax+eax*4]
  000e9	d1 e1		 shl	 ecx, 1
$L178175:
  000eb	0f b6 86 9d 01
	01 00		 movzx	 eax, BYTE PTR [esi+65949]
  000f2	03 c1		 add	 eax, ecx
  000f4	99		 cdq
  000f5	89 84 24 90 00
	00 00		 mov	 DWORD PTR _LogData$[esp+1168], eax

; 950  : 	LogData.dwKey[10]		=	pPlayer->m_bLevel;				//	Level

  000fc	0f b6 86 7b 01
	01 00		 movzx	 eax, BYTE PTR [esi+65915]
  00103	89 94 24 94 00
	00 00		 mov	 DWORD PTR _LogData$[esp+1172], edx
  0010a	99		 cdq

; 951  : 
; 952  : 
; 953  : 	LogData.dwKey[3]		=	pSkill->GetID();				// Skill

  0010b	8b cb		 mov	 ecx, ebx
  0010d	89 84 24 98 00
	00 00		 mov	 DWORD PTR _LogData$[esp+1176], eax
  00114	89 94 24 9c 00
	00 00		 mov	 DWORD PTR _LogData$[esp+1180], edx
  0011b	e8 00 00 00 00	 call	 ?GetID@CTSkill@@QAEGXZ	; CTSkill::GetID

; 954  : 
; 955  : 	
; 956  : 	LogData.dwKey[5]		=	pMoney;							//	Out Money 

  00120	8b 4d 14	 mov	 ecx, DWORD PTR _pMoney$[ebp]
  00123	0f b7 c0	 movzx	 eax, ax
  00126	99		 cdq
  00127	89 44 24 60	 mov	 DWORD PTR _LogData$[esp+1120], eax

; 957  : 	wsprintf( LogData.szKey[5], "Now Money : %u/%u/%u",			//	Now Money
; 958  : 											pPlayer->m_dwGold,		
; 959  : 											pPlayer->m_dwSilver, 
; 960  : 											pPlayer->m_dwCooper );

  0012b	8b 86 c8 03 01
	00		 mov	 eax, DWORD PTR [esi+66504]
  00131	50		 push	 eax
  00132	89 54 24 68	 mov	 DWORD PTR _LogData$[esp+1128], edx
  00136	8b 55 18	 mov	 edx, DWORD PTR _pMoney$[ebp+4]
  00139	89 4c 24 74	 mov	 DWORD PTR _LogData$[esp+1140], ecx
  0013d	8b 8e cc 03 01
	00		 mov	 ecx, DWORD PTR [esi+66508]
  00143	51		 push	 ecx
  00144	89 54 24 7c	 mov	 DWORD PTR _LogData$[esp+1148], edx
  00148	8b 96 d0 03 01
	00		 mov	 edx, DWORD PTR [esi+66512]
  0014e	52		 push	 edx
  0014f	8d 84 24 a6 01
	00 00		 lea	 eax, DWORD PTR _LogData$[esp+1446]
  00156	68 00 00 00 00	 push	 OFFSET FLAT:??_C@_0BF@LNLPBIJG@Now?5Money?5?3?5?$CFu?1?$CFu?1?$CFu?$AA@
  0015b	50		 push	 eax
  0015c	ff 15 00 00 00
	00		 call	 DWORD PTR __imp__wsprintfA

; 961  : 
; 962  : 	LogData.dwKey[6]		=	pSkill->m_bLevel;				//	SkillLevel

  00162	0f b6 43 50	 movzx	 eax, BYTE PTR [ebx+80]

; 963  : 
; 964  : 	//
; 965  : 	//	SKILL INFO
; 966  : 	//
; 967  : 	LogData.dwFormat = LF_SKILL;
; 968  : 
; 969  : 	_LPLOG_SKILL_ pLogSkill = (_LPLOG_SKILL_)LogData.szLog;
; 970  : 
; 971  : 	
; 972  : 	pLogSkill->dwCharID		=	pPlayer->m_dwID;				//	Character ID

  00166	8b 8e 44 01 01
	00		 mov	 ecx, DWORD PTR [esi+65860]
  0016c	99		 cdq
  0016d	83 c4 14	 add	 esp, 20			; 00000014H
  00170	89 54 24 7c	 mov	 DWORD PTR _LogData$[esp+1148], edx

; 973  : 	lstrcpy(pLogSkill->szName,	pPlayer->m_strNAME	);			//	Character Name

  00174	8b 96 a4 03 01
	00		 mov	 edx, DWORD PTR [esi+66468]
  0017a	89 44 24 78	 mov	 DWORD PTR _LogData$[esp+1144], eax
  0017e	52		 push	 edx
  0017f	8d 84 24 0c 02
	00 00		 lea	 eax, DWORD PTR _LogData$[esp+1548]
  00186	50		 push	 eax
  00187	c7 84 24 08 02
	00 00 03 00 00
	00		 mov	 DWORD PTR _LogData$[esp+1544], 3
  00192	89 8c 24 0c 02
	00 00		 mov	 DWORD PTR _LogData$[esp+1548], ecx
  00199	ff d7		 call	 edi

; 974  : 	pLogSkill->wSkill		=	pSkill->GetID();				//	 ID

  0019b	8b cb		 mov	 ecx, ebx
  0019d	e8 00 00 00 00	 call	 ?GetID@CTSkill@@QAEGXZ	; CTSkill::GetID

; 975  : 	pLogSkill->bLevel		=	pSkill->m_bLevel;				//	 Level

  001a2	8a 4b 50	 mov	 cl, BYTE PTR [ebx+80]
  001a5	88 8c 24 1e 02
	00 00		 mov	 BYTE PTR _LogData$[esp+1566], cl

; 976  : 
; 977  : 	SendDMLog( LogData );

  001ac	81 ec f8 03 00
	00		 sub	 esp, 1016		; 000003f8H
  001b2	8b fc		 mov	 edi, esp
  001b4	66 89 84 24 14
	06 00 00	 mov	 WORD PTR _LogData$[esp+2580], ax
  001bc	b9 fe 00 00 00	 mov	 ecx, 254		; 000000feH
  001c1	8d b4 24 08 04
	00 00		 lea	 esi, DWORD PTR _LogData$[esp+2056]
  001c8	f3 a5		 rep movsd
  001ca	8b 8c 24 04 04
	00 00		 mov	 ecx, DWORD PTR _this$[esp+2056]
  001d1	e8 00 00 00 00	 call	 ?SendDMLog@CUdpSocket@@QAEXU_LOG_DATA_@@@Z ; CUdpSocket::SendDMLog
$L175644:

; 978  : }

  001d6	8b 8c 24 0c 04
	00 00		 mov	 ecx, DWORD PTR __$ArrayPad$[esp+1040]
  001dd	e8 00 00 00 00	 call	 @__security_check_cookie@4
  001e2	5f		 pop	 edi
  001e3	5e		 pop	 esi
  001e4	5b		 pop	 ebx
  001e5	8b e5		 mov	 esp, ebp
  001e7	5d		 pop	 ebp
  001e8	c2 14 00	 ret	 20			; 00000014H
?LogSkillAct@CUdpSocket@@QAEXKPAVCTPlayer@@PAVCTSkill@@_J@Z ENDP ; CUdpSocket::LogSkillAct
_TEXT	ENDS
PUBLIC	?LogLevelUp@CUdpSocket@@QAEXKPAVCTPlayer@@E@Z	; CUdpSocket::LogLevelUp
; Function compile flags: /Ogty
;	COMDAT ?LogLevelUp@CUdpSocket@@QAEXKPAVCTPlayer@@E@Z
_TEXT	SEGMENT
_this$ = -1028						; size = 4
_LogData$ = -1024					; size = 1016
__$ArrayPad$ = -4					; size = 4
__$ReturnAddr$ = 4					; size = 4
_pAction$ = 8						; size = 4
_pPlayer$ = 12						; size = 4
_m_bLevel$ = 16						; size = 1
?LogLevelUp@CUdpSocket@@QAEXKPAVCTPlayer@@E@Z PROC NEAR	; CUdpSocket::LogLevelUp, COMDAT
; _this$ = ecx

; 1042 : {

  00000	55		 push	 ebp
  00001	8b ec		 mov	 ebp, esp
  00003	83 e4 f8	 and	 esp, -8			; fffffff8H
  00006	81 ec 08 04 00
	00		 sub	 esp, 1032		; 00000408H
  0000c	a1 00 00 00 00	 mov	 eax, DWORD PTR ___security_cookie
  00011	56		 push	 esi

; 1043 : 	if(!pPlayer) return;

  00012	8b 75 0c	 mov	 esi, DWORD PTR _pPlayer$[ebp]
  00015	85 f6		 test	 esi, esi
  00017	89 84 24 08 04
	00 00		 mov	 DWORD PTR __$ArrayPad$[esp+1036], eax
  0001e	57		 push	 edi
  0001f	89 4c 24 0c	 mov	 DWORD PTR _this$[esp+1040], ecx
  00023	0f 84 1f 01 00
	00		 je	 $L175675

; 1044 : 
; 1045 : 	_LOG_DATA_ LogData;
; 1046 : 	memset( &LogData, 0x00, sizeof(_LOG_DATA_));
; 1047 : 
; 1048 : 	LogData.dwAction	=	pAction;
; 1049 : 	LogData.dwServerID	=	_AtlModule.GetServerID();
; 1050 : 
; 1051 : 	lstrcpy( LogData.szClientIP, inet_ntoa(pPlayer->m_addr.sin_addr) );

  00029	8b 56 40	 mov	 edx, DWORD PTR [esi+64]
  0002c	33 c0		 xor	 eax, eax
  0002e	b9 fe 00 00 00	 mov	 ecx, 254		; 000000feH
  00033	8d 7c 24 10	 lea	 edi, DWORD PTR _LogData$[esp+1040]
  00037	f3 ab		 rep stosd
  00039	0f b6 0d 82 9e
	00 00		 movzx	 ecx, BYTE PTR ?_AtlModule@@3VCTMapSvrModule@@A+40578
  00040	8b 45 08	 mov	 eax, DWORD PTR _pAction$[ebp]
  00043	52		 push	 edx
  00044	89 44 24 38	 mov	 DWORD PTR _LogData$[esp+1080], eax
  00048	89 4c 24 24	 mov	 DWORD PTR _LogData$[esp+1060], ecx
  0004c	ff 15 00 00 00
	00		 call	 DWORD PTR __imp__inet_ntoa@4
  00052	8b 3d 00 00 00
	00		 mov	 edi, DWORD PTR __imp__lstrcpyA@8
  00058	50		 push	 eax
  00059	8d 44 24 28	 lea	 eax, DWORD PTR _LogData$[esp+1064]
  0005d	50		 push	 eax
  0005e	ff d7		 call	 edi

; 1052 : 		
; 1053 : 	LogData.wMapID			=	pPlayer->m_wMapID;				//	Map ID

  00060	66 8b 8e 90 01
	01 00		 mov	 cx, WORD PTR [esi+65936]

; 1054 : 	LogData.nX				=	(int)pPlayer->m_fPosX;			//	X

  00067	d9 86 7c 01 01
	00		 fld	 DWORD PTR [esi+65916]
  0006d	66 89 4c 24 38	 mov	 WORD PTR _LogData$[esp+1080], cx
  00072	e8 00 00 00 00	 call	 __ftol2

; 1055 : 	LogData.nY				=	(int)pPlayer->m_fPosY;			//	Y

  00077	d9 86 80 01 01
	00		 fld	 DWORD PTR [esi+65920]
  0007d	89 44 24 3c	 mov	 DWORD PTR _LogData$[esp+1084], eax
  00081	e8 00 00 00 00	 call	 __ftol2

; 1056 : 	LogData.nZ				=	(int)pPlayer->m_fPosZ;			//	Z

  00086	d9 86 84 01 01
	00		 fld	 DWORD PTR [esi+65924]
  0008c	89 44 24 40	 mov	 DWORD PTR _LogData$[esp+1088], eax
  00090	e8 00 00 00 00	 call	 __ftol2

; 1057 : 	
; 1058 : 	LogData.dwKey[0]		=	pPlayer->m_dwUserID;			//	User ID

  00095	8b 96 ac 03 01
	00		 mov	 edx, DWORD PTR [esi+66476]

; 1059 : 	LogData.dwKey[1]		=	pPlayer->m_dwID;				//	Character Seq
; 1060 : 	lstrcpy(LogData.szKey[1],	pPlayer->m_strNAME	);			//	Character Name

  0009b	8b 8e a4 03 01
	00		 mov	 ecx, DWORD PTR [esi+66468]
  000a1	89 54 24 48	 mov	 DWORD PTR _LogData$[esp+1096], edx
  000a5	89 44 24 44	 mov	 DWORD PTR _LogData$[esp+1092], eax
  000a9	8b 86 44 01 01
	00		 mov	 eax, DWORD PTR [esi+65860]
  000af	51		 push	 ecx
  000b0	8d 94 24 d6 00
	00 00		 lea	 edx, DWORD PTR _LogData$[esp+1238]
  000b7	52		 push	 edx
  000b8	c7 44 24 54 00
	00 00 00	 mov	 DWORD PTR _LogData$[esp+1108], 0
  000c0	89 44 24 58	 mov	 DWORD PTR _LogData$[esp+1112], eax
  000c4	c7 44 24 5c 00
	00 00 00	 mov	 DWORD PTR _LogData$[esp+1116], 0
  000cc	ff d7		 call	 edi

; 1061 : 
; 1062 : 	LogData.dwKey[9]		=	pPlayer->m_bCountry + (pPlayer->m_bAidCountry == TCONTRY_N ? 0 : (pPlayer->m_bAidCountry+1)*10);			//	Country

  000ce	8a 86 9e 01 01
	00		 mov	 al, BYTE PTR [esi+65950]
  000d4	3c 03		 cmp	 al, 3
  000d6	75 04		 jne	 SHORT $L178192
  000d8	33 c9		 xor	 ecx, ecx
  000da	eb 09		 jmp	 SHORT $L178193
$L178192:
  000dc	0f b6 c0	 movzx	 eax, al
  000df	40		 inc	 eax
  000e0	8d 0c 80	 lea	 ecx, DWORD PTR [eax+eax*4]
  000e3	d1 e1		 shl	 ecx, 1
$L178193:
  000e5	0f b6 86 9d 01
	01 00		 movzx	 eax, BYTE PTR [esi+65949]
  000ec	03 c1		 add	 eax, ecx
  000ee	99		 cdq
  000ef	89 84 24 90 00
	00 00		 mov	 DWORD PTR _LogData$[esp+1168], eax

; 1063 : 	LogData.dwKey[10]		=	pPlayer->m_bLevel;				//	Level

  000f6	0f b6 86 7b 01
	01 00		 movzx	 eax, BYTE PTR [esi+65915]
  000fd	89 94 24 94 00
	00 00		 mov	 DWORD PTR _LogData$[esp+1172], edx
  00104	99		 cdq
  00105	89 84 24 98 00
	00 00		 mov	 DWORD PTR _LogData$[esp+1176], eax

; 1064 : 
; 1065 : 	LogData.dwKey[6]		=	m_bLevel;						//	SkillLevel

  0010c	0f b6 45 10	 movzx	 eax, BYTE PTR _m_bLevel$[ebp]
  00110	89 94 24 9c 00
	00 00		 mov	 DWORD PTR _LogData$[esp+1180], edx
  00117	99		 cdq

; 1066 : 	
; 1067 : 	SendDMLog( LogData );

  00118	81 ec f8 03 00
	00		 sub	 esp, 1016		; 000003f8H
  0011e	8b fc		 mov	 edi, esp
  00120	89 84 24 70 04
	00 00		 mov	 DWORD PTR _LogData$[esp+2160], eax
  00127	89 94 24 74 04
	00 00		 mov	 DWORD PTR _LogData$[esp+2164], edx
  0012e	b9 fe 00 00 00	 mov	 ecx, 254		; 000000feH
  00133	8d b4 24 08 04
	00 00		 lea	 esi, DWORD PTR _LogData$[esp+2056]
  0013a	f3 a5		 rep movsd
  0013c	8b 8c 24 04 04
	00 00		 mov	 ecx, DWORD PTR _this$[esp+2056]
  00143	e8 00 00 00 00	 call	 ?SendDMLog@CUdpSocket@@QAEXU_LOG_DATA_@@@Z ; CUdpSocket::SendDMLog
$L175675:

; 1068 : }

  00148	8b 8c 24 0c 04
	00 00		 mov	 ecx, DWORD PTR __$ArrayPad$[esp+1040]
  0014f	e8 00 00 00 00	 call	 @__security_check_cookie@4
  00154	5f		 pop	 edi
  00155	5e		 pop	 esi
  00156	8b e5		 mov	 esp, ebp
  00158	5d		 pop	 ebp
  00159	c2 0c 00	 ret	 12			; 0000000cH
?LogLevelUp@CUdpSocket@@QAEXKPAVCTPlayer@@E@Z ENDP	; CUdpSocket::LogLevelUp
_TEXT	ENDS
PUBLIC	?LogMonster@CUdpSocket@@QAEXKPAVCTPlayer@@PAVCTMonster@@@Z ; CUdpSocket::LogMonster
; Function compile flags: /Ogty
;	COMDAT ?LogMonster@CUdpSocket@@QAEXKPAVCTPlayer@@PAVCTMonster@@@Z
_TEXT	SEGMENT
_this$ = -1028						; size = 4
_LogData$ = -1024					; size = 1016
__$ArrayPad$ = -4					; size = 4
__$ReturnAddr$ = 4					; size = 4
_pAction$ = 8						; size = 4
_pPlayer$ = 12						; size = 4
_pMon$ = 16						; size = 4
?LogMonster@CUdpSocket@@QAEXKPAVCTPlayer@@PAVCTMonster@@@Z PROC NEAR ; CUdpSocket::LogMonster, COMDAT
; _this$ = ecx

; 1074 : {

  00000	55		 push	 ebp
  00001	8b ec		 mov	 ebp, esp
  00003	83 e4 f8	 and	 esp, -8			; fffffff8H
  00006	81 ec 04 04 00
	00		 sub	 esp, 1028		; 00000404H
  0000c	a1 00 00 00 00	 mov	 eax, DWORD PTR ___security_cookie
  00011	53		 push	 ebx

; 1075 : 	if(!pMon) return;

  00012	8b 5d 10	 mov	 ebx, DWORD PTR _pMon$[ebp]
  00015	85 db		 test	 ebx, ebx
  00017	56		 push	 esi
  00018	89 84 24 08 04
	00 00		 mov	 DWORD PTR __$ArrayPad$[esp+1036], eax
  0001f	57		 push	 edi
  00020	89 4c 24 0c	 mov	 DWORD PTR _this$[esp+1040], ecx
  00024	0f 84 27 01 00
	00		 je	 $L175687

; 1076 : 
; 1077 : 	_LOG_DATA_ LogData;
; 1078 : 	memset( &LogData, 0x00, sizeof(_LOG_DATA_));
; 1079 : 
; 1080 : 	LogData.dwAction	=	pAction;
; 1081 : 	LogData.dwServerID	=	_AtlModule.GetServerID();	
; 1082 : 
; 1083 : 	//
; 1084 : 	//	Player
; 1085 : 	//
; 1086 : 	if(pPlayer)

  0002a	8b 75 0c	 mov	 esi, DWORD PTR _pPlayer$[ebp]
  0002d	33 c0		 xor	 eax, eax
  0002f	85 f6		 test	 esi, esi
  00031	b9 fe 00 00 00	 mov	 ecx, 254		; 000000feH
  00036	8d 7c 24 10	 lea	 edi, DWORD PTR _LogData$[esp+1040]
  0003a	f3 ab		 rep stosd
  0003c	0f b6 0d 82 9e
	00 00		 movzx	 ecx, BYTE PTR ?_AtlModule@@3VCTMapSvrModule@@A+40578
  00043	8b 45 08	 mov	 eax, DWORD PTR _pAction$[ebp]
  00046	89 44 24 34	 mov	 DWORD PTR _LogData$[esp+1076], eax
  0004a	89 4c 24 20	 mov	 DWORD PTR _LogData$[esp+1056], ecx
  0004e	0f 84 8c 00 00
	00		 je	 $L175691

; 1087 : 	{
; 1088 : 		lstrcpy( LogData.szClientIP, inet_ntoa(pPlayer->m_addr.sin_addr) );	//	Connect IP Address

  00054	8b 56 40	 mov	 edx, DWORD PTR [esi+64]
  00057	52		 push	 edx
  00058	ff 15 00 00 00
	00		 call	 DWORD PTR __imp__inet_ntoa@4
  0005e	8b 3d 00 00 00
	00		 mov	 edi, DWORD PTR __imp__lstrcpyA@8
  00064	50		 push	 eax
  00065	8d 44 24 28	 lea	 eax, DWORD PTR _LogData$[esp+1064]
  00069	50		 push	 eax
  0006a	ff d7		 call	 edi

; 1089 : 
; 1090 : 		LogData.dwKey[0]		=	pPlayer->m_dwUserID;					//	User ID

  0006c	8b 8e ac 03 01
	00		 mov	 ecx, DWORD PTR [esi+66476]

; 1091 : 
; 1092 : 		LogData.dwKey[1]		=	pPlayer->m_dwID;						//	Character Seq

  00072	8b 96 44 01 01
	00		 mov	 edx, DWORD PTR [esi+65860]
  00078	33 c0		 xor	 eax, eax
  0007a	89 44 24 4c	 mov	 DWORD PTR _LogData$[esp+1100], eax
  0007e	89 44 24 54	 mov	 DWORD PTR _LogData$[esp+1108], eax

; 1093 : 		lstrcpy(LogData.szKey[1],	pPlayer->m_strNAME			);			//	Character Name

  00082	8b 86 a4 03 01
	00		 mov	 eax, DWORD PTR [esi+66468]
  00088	89 4c 24 48	 mov	 DWORD PTR _LogData$[esp+1096], ecx
  0008c	50		 push	 eax
  0008d	8d 8c 24 d6 00
	00 00		 lea	 ecx, DWORD PTR _LogData$[esp+1238]
  00094	51		 push	 ecx
  00095	89 54 24 58	 mov	 DWORD PTR _LogData$[esp+1112], edx
  00099	ff d7		 call	 edi

; 1094 : 
; 1095 : 		LogData.dwKey[9]		=	pPlayer->m_bCountry + (pPlayer->m_bAidCountry == TCONTRY_N ? 0 : (pPlayer->m_bAidCountry+1)*10);					//	Country

  0009b	8a 86 9e 01 01
	00		 mov	 al, BYTE PTR [esi+65950]
  000a1	3c 03		 cmp	 al, 3
  000a3	75 04		 jne	 SHORT $L178206
  000a5	33 c9		 xor	 ecx, ecx
  000a7	eb 09		 jmp	 SHORT $L178207
$L178206:
  000a9	0f b6 c0	 movzx	 eax, al
  000ac	40		 inc	 eax
  000ad	8d 0c 80	 lea	 ecx, DWORD PTR [eax+eax*4]
  000b0	d1 e1		 shl	 ecx, 1
$L178207:
  000b2	0f b6 86 9d 01
	01 00		 movzx	 eax, BYTE PTR [esi+65949]
  000b9	03 c1		 add	 eax, ecx
  000bb	99		 cdq
  000bc	89 84 24 90 00
	00 00		 mov	 DWORD PTR _LogData$[esp+1168], eax

; 1096 : 		LogData.dwKey[10]		=	pPlayer->m_bLevel;						//	Level

  000c3	0f b6 86 7b 01
	01 00		 movzx	 eax, BYTE PTR [esi+65915]
  000ca	89 94 24 94 00
	00 00		 mov	 DWORD PTR _LogData$[esp+1172], edx
  000d1	99		 cdq
  000d2	89 84 24 98 00
	00 00		 mov	 DWORD PTR _LogData$[esp+1176], eax
  000d9	89 94 24 9c 00
	00 00		 mov	 DWORD PTR _LogData$[esp+1180], edx
$L175691:

; 1097 : 	}
; 1098 : 
; 1099 : 	//
; 1100 : 	//	Monster
; 1101 : 	//
; 1102 : 	if( pMon )
; 1103 : 	{
; 1104 : 		LogData.wMapID			=	pMon->m_wMapID;					// Map ID

  000e0	66 8b 93 90 00
	00 00		 mov	 dx, WORD PTR [ebx+144]

; 1105 : 		LogData.nX				=	(int)pMon->m_fPosX;				//		X

  000e7	d9 43 7c	 fld	 DWORD PTR [ebx+124]
  000ea	66 89 54 24 38	 mov	 WORD PTR _LogData$[esp+1080], dx
  000ef	e8 00 00 00 00	 call	 __ftol2

; 1106 : 		LogData.nY				=	(int)pMon->m_fPosY;				//		Y

  000f4	d9 83 80 00 00
	00		 fld	 DWORD PTR [ebx+128]
  000fa	89 44 24 3c	 mov	 DWORD PTR _LogData$[esp+1084], eax
  000fe	e8 00 00 00 00	 call	 __ftol2

; 1107 : 		LogData.nZ				=	(int)pMon->m_fPosZ;				//		Z

  00103	d9 83 84 00 00
	00		 fld	 DWORD PTR [ebx+132]
  00109	89 44 24 40	 mov	 DWORD PTR _LogData$[esp+1088], eax
  0010d	e8 00 00 00 00	 call	 __ftol2
  00112	89 44 24 44	 mov	 DWORD PTR _LogData$[esp+1092], eax

; 1108 : 
; 1109 : 		LogData.dwKey[2]		=	pMon->m_pMON->m_wID;			// Mon ID

  00116	8b 83 ec 00 00
	00		 mov	 eax, DWORD PTR [ebx+236]
  0011c	0f b7 40 24	 movzx	 eax, WORD PTR [eax+36]
  00120	99		 cdq

; 1110 : 	}
; 1111 : 
; 1112 : 	SendDMLog( LogData );

  00121	81 ec f8 03 00
	00		 sub	 esp, 1016		; 000003f8H
  00127	8b fc		 mov	 edi, esp
  00129	89 84 24 50 04
	00 00		 mov	 DWORD PTR _LogData$[esp+2128], eax
  00130	89 94 24 54 04
	00 00		 mov	 DWORD PTR _LogData$[esp+2132], edx
  00137	b9 fe 00 00 00	 mov	 ecx, 254		; 000000feH
  0013c	8d b4 24 08 04
	00 00		 lea	 esi, DWORD PTR _LogData$[esp+2056]
  00143	f3 a5		 rep movsd
  00145	8b 8c 24 04 04
	00 00		 mov	 ecx, DWORD PTR _this$[esp+2056]
  0014c	e8 00 00 00 00	 call	 ?SendDMLog@CUdpSocket@@QAEXU_LOG_DATA_@@@Z ; CUdpSocket::SendDMLog
$L175687:

; 1113 : }

  00151	8b 8c 24 0c 04
	00 00		 mov	 ecx, DWORD PTR __$ArrayPad$[esp+1040]
  00158	e8 00 00 00 00	 call	 @__security_check_cookie@4
  0015d	5f		 pop	 edi
  0015e	5e		 pop	 esi
  0015f	5b		 pop	 ebx
  00160	8b e5		 mov	 esp, ebp
  00162	5d		 pop	 ebp
  00163	c2 0c 00	 ret	 12			; 0000000cH
?LogMonster@CUdpSocket@@QAEXKPAVCTPlayer@@PAVCTMonster@@@Z ENDP ; CUdpSocket::LogMonster
_TEXT	ENDS
PUBLIC	?LogUserDie@CUdpSocket@@QAEXKPAVCTPlayer@@E@Z	; CUdpSocket::LogUserDie
; Function compile flags: /Ogty
;	COMDAT ?LogUserDie@CUdpSocket@@QAEXKPAVCTPlayer@@E@Z
_TEXT	SEGMENT
_this$ = -1028						; size = 4
_LogData$ = -1024					; size = 1016
__$ArrayPad$ = -4					; size = 4
__$ReturnAddr$ = 4					; size = 4
_pAction$ = 8						; size = 4
_pPlayer$ = 12						; size = 4
_m_bType$ = 16						; size = 1
?LogUserDie@CUdpSocket@@QAEXKPAVCTPlayer@@E@Z PROC NEAR	; CUdpSocket::LogUserDie, COMDAT
; _this$ = ecx

; 1120 : {

  00000	55		 push	 ebp
  00001	8b ec		 mov	 ebp, esp
  00003	83 e4 f8	 and	 esp, -8			; fffffff8H
  00006	81 ec 08 04 00
	00		 sub	 esp, 1032		; 00000408H
  0000c	a1 00 00 00 00	 mov	 eax, DWORD PTR ___security_cookie
  00011	56		 push	 esi

; 1121 : 	if(!pPlayer) return;

  00012	8b 75 0c	 mov	 esi, DWORD PTR _pPlayer$[ebp]
  00015	85 f6		 test	 esi, esi
  00017	89 84 24 08 04
	00 00		 mov	 DWORD PTR __$ArrayPad$[esp+1036], eax
  0001e	57		 push	 edi
  0001f	89 4c 24 0c	 mov	 DWORD PTR _this$[esp+1040], ecx
  00023	0f 84 1f 01 00
	00		 je	 $L175701

; 1122 : 
; 1123 : 	_LOG_DATA_ LogData;
; 1124 : 	memset( &LogData, 0x00, sizeof(_LOG_DATA_));
; 1125 : 
; 1126 : 	LogData.dwAction		=	pAction;
; 1127 : 	LogData.dwServerID		=	_AtlModule.GetServerID();
; 1128 : 
; 1129 : 	lstrcpy( LogData.szClientIP, inet_ntoa(pPlayer->m_addr.sin_addr) );

  00029	8b 56 40	 mov	 edx, DWORD PTR [esi+64]
  0002c	33 c0		 xor	 eax, eax
  0002e	b9 fe 00 00 00	 mov	 ecx, 254		; 000000feH
  00033	8d 7c 24 10	 lea	 edi, DWORD PTR _LogData$[esp+1040]
  00037	f3 ab		 rep stosd
  00039	0f b6 0d 82 9e
	00 00		 movzx	 ecx, BYTE PTR ?_AtlModule@@3VCTMapSvrModule@@A+40578
  00040	8b 45 08	 mov	 eax, DWORD PTR _pAction$[ebp]
  00043	52		 push	 edx
  00044	89 44 24 38	 mov	 DWORD PTR _LogData$[esp+1080], eax
  00048	89 4c 24 24	 mov	 DWORD PTR _LogData$[esp+1060], ecx
  0004c	ff 15 00 00 00
	00		 call	 DWORD PTR __imp__inet_ntoa@4
  00052	8b 3d 00 00 00
	00		 mov	 edi, DWORD PTR __imp__lstrcpyA@8
  00058	50		 push	 eax
  00059	8d 44 24 28	 lea	 eax, DWORD PTR _LogData$[esp+1064]
  0005d	50		 push	 eax
  0005e	ff d7		 call	 edi

; 1130 : 		
; 1131 : 	LogData.wMapID			=	pPlayer->m_wMapID;				//	Map ID

  00060	66 8b 8e 90 01
	01 00		 mov	 cx, WORD PTR [esi+65936]

; 1132 : 	LogData.nX				=	(int)pPlayer->m_fPosX;			//	X

  00067	d9 86 7c 01 01
	00		 fld	 DWORD PTR [esi+65916]
  0006d	66 89 4c 24 38	 mov	 WORD PTR _LogData$[esp+1080], cx
  00072	e8 00 00 00 00	 call	 __ftol2

; 1133 : 	LogData.nY				=	(int)pPlayer->m_fPosY;			//	Y

  00077	d9 86 80 01 01
	00		 fld	 DWORD PTR [esi+65920]
  0007d	89 44 24 3c	 mov	 DWORD PTR _LogData$[esp+1084], eax
  00081	e8 00 00 00 00	 call	 __ftol2

; 1134 : 	LogData.nZ				=	(int)pPlayer->m_fPosZ;			//	Z

  00086	d9 86 84 01 01
	00		 fld	 DWORD PTR [esi+65924]
  0008c	89 44 24 40	 mov	 DWORD PTR _LogData$[esp+1088], eax
  00090	e8 00 00 00 00	 call	 __ftol2

; 1135 : 	
; 1136 : 	LogData.dwKey[0]		=	pPlayer->m_dwUserID;			//	User ID

  00095	8b 96 ac 03 01
	00		 mov	 edx, DWORD PTR [esi+66476]

; 1137 : 	LogData.dwKey[1]		=	pPlayer->m_dwID;				//	Character Seq
; 1138 : 	lstrcpy(LogData.szKey[1],	pPlayer->m_strNAME	);			//	Character Name

  0009b	8b 8e a4 03 01
	00		 mov	 ecx, DWORD PTR [esi+66468]
  000a1	89 54 24 48	 mov	 DWORD PTR _LogData$[esp+1096], edx
  000a5	89 44 24 44	 mov	 DWORD PTR _LogData$[esp+1092], eax
  000a9	8b 86 44 01 01
	00		 mov	 eax, DWORD PTR [esi+65860]
  000af	51		 push	 ecx
  000b0	8d 94 24 d6 00
	00 00		 lea	 edx, DWORD PTR _LogData$[esp+1238]
  000b7	52		 push	 edx
  000b8	c7 44 24 54 00
	00 00 00	 mov	 DWORD PTR _LogData$[esp+1108], 0
  000c0	89 44 24 58	 mov	 DWORD PTR _LogData$[esp+1112], eax
  000c4	c7 44 24 5c 00
	00 00 00	 mov	 DWORD PTR _LogData$[esp+1116], 0
  000cc	ff d7		 call	 edi

; 1139 : 
; 1140 : 	LogData.dwKey[9]		=	pPlayer->m_bCountry + (pPlayer->m_bAidCountry == TCONTRY_N ? 0 : (pPlayer->m_bAidCountry+1)*10);			//	Country

  000ce	8a 86 9e 01 01
	00		 mov	 al, BYTE PTR [esi+65950]
  000d4	3c 03		 cmp	 al, 3
  000d6	75 04		 jne	 SHORT $L178220
  000d8	33 c9		 xor	 ecx, ecx
  000da	eb 09		 jmp	 SHORT $L178221
$L178220:
  000dc	0f b6 c0	 movzx	 eax, al
  000df	40		 inc	 eax
  000e0	8d 0c 80	 lea	 ecx, DWORD PTR [eax+eax*4]
  000e3	d1 e1		 shl	 ecx, 1
$L178221:
  000e5	0f b6 86 9d 01
	01 00		 movzx	 eax, BYTE PTR [esi+65949]
  000ec	03 c1		 add	 eax, ecx
  000ee	99		 cdq
  000ef	89 84 24 90 00
	00 00		 mov	 DWORD PTR _LogData$[esp+1168], eax

; 1141 : 	LogData.dwKey[10]		=	pPlayer->m_bLevel;				//	Level

  000f6	0f b6 86 7b 01
	01 00		 movzx	 eax, BYTE PTR [esi+65915]
  000fd	89 94 24 94 00
	00 00		 mov	 DWORD PTR _LogData$[esp+1172], edx
  00104	99		 cdq
  00105	89 84 24 98 00
	00 00		 mov	 DWORD PTR _LogData$[esp+1176], eax

; 1142 : 
; 1143 : 
; 1144 : 	LogData.dwKey[6]		=	m_bType;						//	Die Type

  0010c	0f b6 45 10	 movzx	 eax, BYTE PTR _m_bType$[ebp]
  00110	89 94 24 9c 00
	00 00		 mov	 DWORD PTR _LogData$[esp+1180], edx
  00117	99		 cdq

; 1145 : 
; 1146 : 	SendDMLog( LogData );

  00118	81 ec f8 03 00
	00		 sub	 esp, 1016		; 000003f8H
  0011e	8b fc		 mov	 edi, esp
  00120	89 84 24 70 04
	00 00		 mov	 DWORD PTR _LogData$[esp+2160], eax
  00127	89 94 24 74 04
	00 00		 mov	 DWORD PTR _LogData$[esp+2164], edx
  0012e	b9 fe 00 00 00	 mov	 ecx, 254		; 000000feH
  00133	8d b4 24 08 04
	00 00		 lea	 esi, DWORD PTR _LogData$[esp+2056]
  0013a	f3 a5		 rep movsd
  0013c	8b 8c 24 04 04
	00 00		 mov	 ecx, DWORD PTR _this$[esp+2056]
  00143	e8 00 00 00 00	 call	 ?SendDMLog@CUdpSocket@@QAEXU_LOG_DATA_@@@Z ; CUdpSocket::SendDMLog
$L175701:

; 1147 : }

  00148	8b 8c 24 0c 04
	00 00		 mov	 ecx, DWORD PTR __$ArrayPad$[esp+1040]
  0014f	e8 00 00 00 00	 call	 @__security_check_cookie@4
  00154	5f		 pop	 edi
  00155	5e		 pop	 esi
  00156	8b e5		 mov	 esp, ebp
  00158	5d		 pop	 ebp
  00159	c2 0c 00	 ret	 12			; 0000000cH
?LogUserDie@CUdpSocket@@QAEXKPAVCTPlayer@@E@Z ENDP	; CUdpSocket::LogUserDie
_TEXT	ENDS
PUBLIC	?LogQuest@CUdpSocket@@QAEXKPAVCTPlayer@@KK@Z	; CUdpSocket::LogQuest
; Function compile flags: /Ogty
;	COMDAT ?LogQuest@CUdpSocket@@QAEXKPAVCTPlayer@@KK@Z
_TEXT	SEGMENT
_this$ = -1028						; size = 4
_LogData$ = -1024					; size = 1016
__$ArrayPad$ = -4					; size = 4
__$ReturnAddr$ = 4					; size = 4
_pAction$ = 8						; size = 4
_pPlayer$ = 12						; size = 4
_dwQuestID$ = 16					; size = 4
_dwGain$ = 20						; size = 4
?LogQuest@CUdpSocket@@QAEXKPAVCTPlayer@@KK@Z PROC NEAR	; CUdpSocket::LogQuest, COMDAT
; _this$ = ecx

; 1153 : {

  00000	55		 push	 ebp
  00001	8b ec		 mov	 ebp, esp
  00003	83 e4 f8	 and	 esp, -8			; fffffff8H
  00006	81 ec 04 04 00
	00		 sub	 esp, 1028		; 00000404H
  0000c	a1 00 00 00 00	 mov	 eax, DWORD PTR ___security_cookie
  00011	53		 push	 ebx
  00012	56		 push	 esi

; 1154 : 	if(!pPlayer) return;

  00013	8b 75 0c	 mov	 esi, DWORD PTR _pPlayer$[ebp]
  00016	33 db		 xor	 ebx, ebx
  00018	3b f3		 cmp	 esi, ebx
  0001a	89 84 24 08 04
	00 00		 mov	 DWORD PTR __$ArrayPad$[esp+1036], eax
  00021	57		 push	 edi
  00022	89 4c 24 0c	 mov	 DWORD PTR _this$[esp+1040], ecx
  00026	0f 84 3d 01 00
	00		 je	 $L175714

; 1155 : 
; 1156 : 	_LOG_DATA_ LogData;
; 1157 : 	memset( &LogData, 0x00, sizeof(_LOG_DATA_));
; 1158 : 
; 1159 : 	LogData.dwAction	=	pAction;
; 1160 : 	LogData.dwServerID	=	_AtlModule.GetServerID();
; 1161 : 
; 1162 : 	lstrcpy( LogData.szClientIP, inet_ntoa(pPlayer->m_addr.sin_addr) );

  0002c	8b 56 40	 mov	 edx, DWORD PTR [esi+64]
  0002f	33 c0		 xor	 eax, eax
  00031	b9 fe 00 00 00	 mov	 ecx, 254		; 000000feH
  00036	8d 7c 24 10	 lea	 edi, DWORD PTR _LogData$[esp+1040]
  0003a	f3 ab		 rep stosd
  0003c	0f b6 0d 82 9e
	00 00		 movzx	 ecx, BYTE PTR ?_AtlModule@@3VCTMapSvrModule@@A+40578
  00043	8b 45 08	 mov	 eax, DWORD PTR _pAction$[ebp]
  00046	52		 push	 edx
  00047	89 44 24 38	 mov	 DWORD PTR _LogData$[esp+1080], eax
  0004b	89 4c 24 24	 mov	 DWORD PTR _LogData$[esp+1060], ecx
  0004f	ff 15 00 00 00
	00		 call	 DWORD PTR __imp__inet_ntoa@4
  00055	8b 3d 00 00 00
	00		 mov	 edi, DWORD PTR __imp__lstrcpyA@8
  0005b	50		 push	 eax
  0005c	8d 44 24 28	 lea	 eax, DWORD PTR _LogData$[esp+1064]
  00060	50		 push	 eax
  00061	ff d7		 call	 edi

; 1163 : 		
; 1164 : 	LogData.wMapID			=	pPlayer->m_wMapID;					//	Map ID

  00063	66 8b 8e 90 01
	01 00		 mov	 cx, WORD PTR [esi+65936]

; 1165 : 	LogData.nX				=	(int)pPlayer->m_fPosX;				//	X

  0006a	d9 86 7c 01 01
	00		 fld	 DWORD PTR [esi+65916]
  00070	66 89 4c 24 38	 mov	 WORD PTR _LogData$[esp+1080], cx
  00075	e8 00 00 00 00	 call	 __ftol2

; 1166 : 	LogData.nY				=	(int)pPlayer->m_fPosY;				//	Y

  0007a	d9 86 80 01 01
	00		 fld	 DWORD PTR [esi+65920]
  00080	89 44 24 3c	 mov	 DWORD PTR _LogData$[esp+1084], eax
  00084	e8 00 00 00 00	 call	 __ftol2

; 1167 : 	LogData.nZ				=	(int)pPlayer->m_fPosZ;				//	Z

  00089	d9 86 84 01 01
	00		 fld	 DWORD PTR [esi+65924]
  0008f	89 44 24 40	 mov	 DWORD PTR _LogData$[esp+1088], eax
  00093	e8 00 00 00 00	 call	 __ftol2

; 1168 : 	
; 1169 : 	LogData.dwKey[0]		=	pPlayer->m_dwUserID;				//	User ID

  00098	8b 96 ac 03 01
	00		 mov	 edx, DWORD PTR [esi+66476]

; 1170 : 	LogData.dwKey[1]		=	pPlayer->m_dwID;					//	Character Seq
; 1171 : 	lstrcpy(LogData.szKey[1],	pPlayer->m_strNAME	);				//	Character Name

  0009e	8b 8e a4 03 01
	00		 mov	 ecx, DWORD PTR [esi+66468]
  000a4	89 54 24 48	 mov	 DWORD PTR _LogData$[esp+1096], edx
  000a8	89 44 24 44	 mov	 DWORD PTR _LogData$[esp+1092], eax
  000ac	8b 86 44 01 01
	00		 mov	 eax, DWORD PTR [esi+65860]
  000b2	51		 push	 ecx
  000b3	8d 94 24 d6 00
	00 00		 lea	 edx, DWORD PTR _LogData$[esp+1238]
  000ba	52		 push	 edx
  000bb	89 5c 24 54	 mov	 DWORD PTR _LogData$[esp+1108], ebx
  000bf	89 44 24 58	 mov	 DWORD PTR _LogData$[esp+1112], eax
  000c3	89 5c 24 5c	 mov	 DWORD PTR _LogData$[esp+1116], ebx
  000c7	ff d7		 call	 edi

; 1172 : 	LogData.dwKey[9]		=	pPlayer->m_bCountry + (pPlayer->m_bAidCountry == TCONTRY_N ? 0 : (pPlayer->m_bAidCountry+1)*10);				//	Country

  000c9	8a 86 9e 01 01
	00		 mov	 al, BYTE PTR [esi+65950]
  000cf	3c 03		 cmp	 al, 3
  000d1	75 04		 jne	 SHORT $L178234
  000d3	33 c9		 xor	 ecx, ecx
  000d5	eb 09		 jmp	 SHORT $L178235
$L178234:
  000d7	0f b6 c0	 movzx	 eax, al
  000da	40		 inc	 eax
  000db	8d 0c 80	 lea	 ecx, DWORD PTR [eax+eax*4]
  000de	d1 e1		 shl	 ecx, 1
$L178235:
  000e0	0f b6 86 9d 01
	01 00		 movzx	 eax, BYTE PTR [esi+65949]
  000e7	03 c1		 add	 eax, ecx

; 1173 : 	LogData.dwKey[10]		=	pPlayer->m_bLevel;					//	Level
; 1174 : 
; 1175 : 
; 1176 : 
; 1177 : 	LogData.dwKey[5]		=	dwGain;								//	Exp
; 1178 : 	wsprintf( LogData.szKey[5], "Now Exp : %u", pPlayer->m_dwEXP);	//	Now Exp

  000e9	8b 8e d4 03 01
	00		 mov	 ecx, DWORD PTR [esi+66516]
  000ef	99		 cdq
  000f0	89 84 24 90 00
	00 00		 mov	 DWORD PTR _LogData$[esp+1168], eax
  000f7	0f b6 86 7b 01
	01 00		 movzx	 eax, BYTE PTR [esi+65915]
  000fe	89 94 24 94 00
	00 00		 mov	 DWORD PTR _LogData$[esp+1172], edx
  00105	99		 cdq
  00106	51		 push	 ecx
  00107	89 94 24 a0 00
	00 00		 mov	 DWORD PTR _LogData$[esp+1184], edx
  0010e	89 84 24 9c 00
	00 00		 mov	 DWORD PTR _LogData$[esp+1180], eax
  00115	8b 45 14	 mov	 eax, DWORD PTR _dwGain$[ebp]
  00118	8d 94 24 9e 01
	00 00		 lea	 edx, DWORD PTR _LogData$[esp+1438]
  0011f	68 00 00 00 00	 push	 OFFSET FLAT:??_C@_0N@FCHLIMGO@Now?5Exp?5?3?5?$CFu?$AA@
  00124	52		 push	 edx
  00125	89 44 24 7c	 mov	 DWORD PTR _LogData$[esp+1148], eax
  00129	89 9c 24 80 00
	00 00		 mov	 DWORD PTR _LogData$[esp+1152], ebx
  00130	ff 15 00 00 00
	00		 call	 DWORD PTR __imp__wsprintfA

; 1179 : 
; 1180 : 	LogData.dwKey[6]		=	dwQuestID;							//	Quest

  00136	8b 45 10	 mov	 eax, DWORD PTR _dwQuestID$[ebp]

; 1181 : 
; 1182 : 	SendDMLog( LogData );

  00139	81 ec ec 03 00
	00		 sub	 esp, 1004		; 000003ecH
  0013f	8b fc		 mov	 edi, esp
  00141	89 84 24 70 04
	00 00		 mov	 DWORD PTR _LogData$[esp+2160], eax
  00148	89 9c 24 74 04
	00 00		 mov	 DWORD PTR _LogData$[esp+2164], ebx
  0014f	b9 fe 00 00 00	 mov	 ecx, 254		; 000000feH
  00154	8d b4 24 08 04
	00 00		 lea	 esi, DWORD PTR _LogData$[esp+2056]
  0015b	f3 a5		 rep movsd
  0015d	8b 8c 24 04 04
	00 00		 mov	 ecx, DWORD PTR _this$[esp+2056]
  00164	e8 00 00 00 00	 call	 ?SendDMLog@CUdpSocket@@QAEXU_LOG_DATA_@@@Z ; CUdpSocket::SendDMLog
$L175714:

; 1183 : }

  00169	8b 8c 24 0c 04
	00 00		 mov	 ecx, DWORD PTR __$ArrayPad$[esp+1040]
  00170	e8 00 00 00 00	 call	 @__security_check_cookie@4
  00175	5f		 pop	 edi
  00176	5e		 pop	 esi
  00177	5b		 pop	 ebx
  00178	8b e5		 mov	 esp, ebp
  0017a	5d		 pop	 ebp
  0017b	c2 10 00	 ret	 16			; 00000010H
?LogQuest@CUdpSocket@@QAEXKPAVCTPlayer@@KK@Z ENDP	; CUdpSocket::LogQuest
_TEXT	ENDS
PUBLIC	?LogEnterMap@CUdpSocket@@QAEXKPAVCTPlayer@@@Z	; CUdpSocket::LogEnterMap
; Function compile flags: /Ogty
;	COMDAT ?LogEnterMap@CUdpSocket@@QAEXKPAVCTPlayer@@@Z
_TEXT	SEGMENT
_this$ = -1028						; size = 4
_LogData$ = -1024					; size = 1016
__$ArrayPad$ = -4					; size = 4
__$ReturnAddr$ = 4					; size = 4
_pAction$ = 8						; size = 4
_pPlayer$ = 12						; size = 4
?LogEnterMap@CUdpSocket@@QAEXKPAVCTPlayer@@@Z PROC NEAR	; CUdpSocket::LogEnterMap, COMDAT
; _this$ = ecx

; 1190 : {

  00000	55		 push	 ebp
  00001	8b ec		 mov	 ebp, esp
  00003	83 e4 f8	 and	 esp, -8			; fffffff8H
  00006	81 ec 04 04 00
	00		 sub	 esp, 1028		; 00000404H
  0000c	a1 00 00 00 00	 mov	 eax, DWORD PTR ___security_cookie
  00011	53		 push	 ebx
  00012	56		 push	 esi

; 1191 : 	if(!pPlayer) return;

  00013	8b 75 0c	 mov	 esi, DWORD PTR _pPlayer$[ebp]
  00016	33 db		 xor	 ebx, ebx
  00018	3b f3		 cmp	 esi, ebx
  0001a	89 84 24 08 04
	00 00		 mov	 DWORD PTR __$ArrayPad$[esp+1036], eax
  00021	57		 push	 edi
  00022	89 4c 24 0c	 mov	 DWORD PTR _this$[esp+1040], ecx
  00026	0f 84 27 02 00
	00		 je	 $L175725

; 1192 : 
; 1193 : 	_LOG_DATA_ LogData;
; 1194 : 	memset( &LogData, 0x00, sizeof(_LOG_DATA_));
; 1195 : 
; 1196 : 	LogData.dwAction	=	pAction;
; 1197 : 	LogData.dwServerID	=	_AtlModule.GetServerID();
; 1198 : 
; 1199 : 	lstrcpy( LogData.szClientIP, inet_ntoa(pPlayer->m_addr.sin_addr) );

  0002c	8b 56 40	 mov	 edx, DWORD PTR [esi+64]
  0002f	33 c0		 xor	 eax, eax
  00031	b9 fe 00 00 00	 mov	 ecx, 254		; 000000feH
  00036	8d 7c 24 10	 lea	 edi, DWORD PTR _LogData$[esp+1040]
  0003a	f3 ab		 rep stosd
  0003c	0f b6 0d 82 9e
	00 00		 movzx	 ecx, BYTE PTR ?_AtlModule@@3VCTMapSvrModule@@A+40578
  00043	8b 45 08	 mov	 eax, DWORD PTR _pAction$[ebp]
  00046	52		 push	 edx
  00047	89 44 24 38	 mov	 DWORD PTR _LogData$[esp+1080], eax
  0004b	89 4c 24 24	 mov	 DWORD PTR _LogData$[esp+1060], ecx
  0004f	ff 15 00 00 00
	00		 call	 DWORD PTR __imp__inet_ntoa@4
  00055	8b 3d 00 00 00
	00		 mov	 edi, DWORD PTR __imp__lstrcpyA@8
  0005b	50		 push	 eax
  0005c	8d 44 24 28	 lea	 eax, DWORD PTR _LogData$[esp+1064]
  00060	50		 push	 eax
  00061	ff d7		 call	 edi

; 1200 : 		
; 1201 : 	LogData.wMapID			=	pPlayer->m_wMapID;				//	Map ID

  00063	66 8b 8e 90 01
	01 00		 mov	 cx, WORD PTR [esi+65936]

; 1202 : 	LogData.nX				=	(int)pPlayer->m_fPosX;			//	X

  0006a	d9 86 7c 01 01
	00		 fld	 DWORD PTR [esi+65916]
  00070	66 89 4c 24 38	 mov	 WORD PTR _LogData$[esp+1080], cx
  00075	e8 00 00 00 00	 call	 __ftol2

; 1203 : 	LogData.nY				=	(int)pPlayer->m_fPosY;			//	Y

  0007a	d9 86 80 01 01
	00		 fld	 DWORD PTR [esi+65920]
  00080	89 44 24 3c	 mov	 DWORD PTR _LogData$[esp+1084], eax
  00084	e8 00 00 00 00	 call	 __ftol2

; 1204 : 	LogData.nZ				=	(int)pPlayer->m_fPosZ;			//	Z

  00089	d9 86 84 01 01
	00		 fld	 DWORD PTR [esi+65924]
  0008f	89 44 24 40	 mov	 DWORD PTR _LogData$[esp+1088], eax
  00093	e8 00 00 00 00	 call	 __ftol2

; 1205 : 	
; 1206 : 	LogData.dwKey[0]		=	pPlayer->m_dwUserID;			//	User ID

  00098	8b 96 ac 03 01
	00		 mov	 edx, DWORD PTR [esi+66476]

; 1207 : 	LogData.dwKey[1]		=	pPlayer->m_dwID;				//	Character Seq
; 1208 : 	lstrcpy(LogData.szKey[1],	pPlayer->m_strNAME	);			//	Character Name

  0009e	8b 8e a4 03 01
	00		 mov	 ecx, DWORD PTR [esi+66468]
  000a4	89 54 24 48	 mov	 DWORD PTR _LogData$[esp+1096], edx
  000a8	89 44 24 44	 mov	 DWORD PTR _LogData$[esp+1092], eax
  000ac	8b 86 44 01 01
	00		 mov	 eax, DWORD PTR [esi+65860]
  000b2	51		 push	 ecx
  000b3	8d 94 24 d6 00
	00 00		 lea	 edx, DWORD PTR _LogData$[esp+1238]
  000ba	52		 push	 edx
  000bb	89 5c 24 54	 mov	 DWORD PTR _LogData$[esp+1108], ebx
  000bf	89 44 24 58	 mov	 DWORD PTR _LogData$[esp+1112], eax
  000c3	89 5c 24 5c	 mov	 DWORD PTR _LogData$[esp+1116], ebx
  000c7	ff d7		 call	 edi

; 1209 : 
; 1210 : 	LogData.dwKey[3]		=	pPlayer->m_bRace;

  000c9	0f b6 86 ba 03
	01 00		 movzx	 eax, BYTE PTR [esi+66490]
  000d0	99		 cdq
  000d1	89 44 24 60	 mov	 DWORD PTR _LogData$[esp+1120], eax

; 1211 : 	LogData.dwKey[5]		=	pPlayer->m_bClass;

  000d5	0f b6 86 b8 03
	01 00		 movzx	 eax, BYTE PTR [esi+66488]
  000dc	89 54 24 64	 mov	 DWORD PTR _LogData$[esp+1124], edx
  000e0	99		 cdq
  000e1	89 44 24 70	 mov	 DWORD PTR _LogData$[esp+1136], eax

; 1212 : 
; 1213 : 	LogData.dwKey[9]		=	pPlayer->m_bCountry + (pPlayer->m_bAidCountry == TCONTRY_N ? 0 : (pPlayer->m_bAidCountry+1)*10);			//	Country

  000e5	8a 86 9e 01 01
	00		 mov	 al, BYTE PTR [esi+65950]
  000eb	3c 03		 cmp	 al, 3
  000ed	89 54 24 74	 mov	 DWORD PTR _LogData$[esp+1140], edx
  000f1	75 04		 jne	 SHORT $L178248
  000f3	33 c9		 xor	 ecx, ecx
  000f5	eb 09		 jmp	 SHORT $L178249
$L178248:
  000f7	0f b6 c0	 movzx	 eax, al
  000fa	40		 inc	 eax
  000fb	8d 0c 80	 lea	 ecx, DWORD PTR [eax+eax*4]
  000fe	d1 e1		 shl	 ecx, 1
$L178249:
  00100	0f b6 86 9d 01
	01 00		 movzx	 eax, BYTE PTR [esi+65949]

; 1214 : 	LogData.dwKey[10]		=	pPlayer->m_bLevel;				//	Level
; 1215 : 
; 1216 : 
; 1217 : 
; 1218 : 	//
; 1219 : 	wsprintf( LogData.szKey[5], "Now Money : %u/%u/%u",			//	Now Money
; 1220 : 											pPlayer->m_dwGold,		
; 1221 : 											pPlayer->m_dwSilver, 
; 1222 : 											pPlayer->m_dwCooper );	

  00107	8b 1d 00 00 00
	00		 mov	 ebx, DWORD PTR __imp__wsprintfA
  0010d	03 c1		 add	 eax, ecx
  0010f	8b 8e cc 03 01
	00		 mov	 ecx, DWORD PTR [esi+66508]
  00115	99		 cdq
  00116	89 84 24 90 00
	00 00		 mov	 DWORD PTR _LogData$[esp+1168], eax
  0011d	0f b6 86 7b 01
	01 00		 movzx	 eax, BYTE PTR [esi+65915]
  00124	89 94 24 94 00
	00 00		 mov	 DWORD PTR _LogData$[esp+1172], edx
  0012b	99		 cdq
  0012c	89 84 24 98 00
	00 00		 mov	 DWORD PTR _LogData$[esp+1176], eax
  00133	8b 86 c8 03 01
	00		 mov	 eax, DWORD PTR [esi+66504]
  00139	50		 push	 eax
  0013a	51		 push	 ecx
  0013b	89 94 24 a4 00
	00 00		 mov	 DWORD PTR _LogData$[esp+1188], edx
  00142	8b 96 d0 03 01
	00		 mov	 edx, DWORD PTR [esi+66512]
  00148	52		 push	 edx
  00149	8d 84 24 a6 01
	00 00		 lea	 eax, DWORD PTR _LogData$[esp+1446]
  00150	68 00 00 00 00	 push	 OFFSET FLAT:??_C@_0BF@LNLPBIJG@Now?5Money?5?3?5?$CFu?1?$CFu?1?$CFu?$AA@
  00155	50		 push	 eax
  00156	ff d3		 call	 ebx

; 1223 : 
; 1224 : 	
; 1225 : 	wsprintf( LogData.szKey[6], "Now Exp : %u", pPlayer->m_dwEXP);	// Now Exp

  00158	8b 8e d4 03 01
	00		 mov	 ecx, DWORD PTR [esi+66516]
  0015e	51		 push	 ecx
  0015f	8d 94 24 e4 01
	00 00		 lea	 edx, DWORD PTR _LogData$[esp+1508]
  00166	68 00 00 00 00	 push	 OFFSET FLAT:??_C@_0N@FCHLIMGO@Now?5Exp?5?3?5?$CFu?$AA@
  0016b	52		 push	 edx
  0016c	ff d3		 call	 ebx

; 1226 : 
; 1227 : 	//
; 1228 : 	//	Char Base
; 1229 : 	//
; 1230 : 	LogData.dwFormat = LF_CHARBASE;
; 1231 : 
; 1232 : 	_LPLOG_CHARBASE_ pCharBase = (_LPLOG_CHARBASE_)LogData.szLog;
; 1233 : 	
; 1234 : 	pCharBase->dwCharID = pPlayer->m_dwID;
; 1235 : 	lstrcpy( pCharBase->szName, pPlayer->m_strNAME);

  0016e	8b 8e a4 03 01
	00		 mov	 ecx, DWORD PTR [esi+66468]
  00174	8b 86 44 01 01
	00		 mov	 eax, DWORD PTR [esi+65860]
  0017a	83 c4 20	 add	 esp, 32			; 00000020H
  0017d	51		 push	 ecx
  0017e	8d 94 24 0c 02
	00 00		 lea	 edx, DWORD PTR _LogData$[esp+1548]
  00185	52		 push	 edx
  00186	c7 84 24 08 02
	00 00 01 00 00
	00		 mov	 DWORD PTR _LogData$[esp+1544], 1
  00191	89 84 24 0c 02
	00 00		 mov	 DWORD PTR _LogData$[esp+1548], eax
  00198	ff d7		 call	 edi

; 1236 : 	pCharBase->bSlot	= 0;
; 1237 : 	pCharBase->bLevel	= pPlayer->m_bLevel;
; 1238 : 	pCharBase->bClass	= pPlayer->m_bClass;

  0019a	8a 8e b8 03 01
	00		 mov	 cl, BYTE PTR [esi+66488]
  001a0	8a 86 7b 01 01
	00		 mov	 al, BYTE PTR [esi+65915]

; 1239 : 	pCharBase->bRace	= pPlayer->m_bRace;

  001a6	8a 96 ba 03 01
	00		 mov	 dl, BYTE PTR [esi+66490]
  001ac	88 8c 24 1e 02
	00 00		 mov	 BYTE PTR _LogData$[esp+1566], cl

; 1240 : 	pCharBase->bCountry	= pPlayer->m_bCountry;
; 1241 : 	pCharBase->bSex		= pPlayer->m_bSex;

  001b3	8a 8e c0 03 01
	00		 mov	 cl, BYTE PTR [esi+66496]
  001b9	88 84 24 1d 02
	00 00		 mov	 BYTE PTR _LogData$[esp+1565], al
  001c0	8a 86 9d 01 01
	00		 mov	 al, BYTE PTR [esi+65949]
  001c6	88 8c 24 21 02
	00 00		 mov	 BYTE PTR _LogData$[esp+1569], cl

; 1242 : 	pCharBase->bHair	= pPlayer->m_bHair;
; 1243 : 	pCharBase->bFace	= pPlayer->m_bFace;
; 1244 : 	pCharBase->bBody	= pPlayer->m_bBody;

  001cd	8a 8e bd 03 01
	00		 mov	 cl, BYTE PTR [esi+66493]
  001d3	88 94 24 1f 02
	00 00		 mov	 BYTE PTR _LogData$[esp+1567], dl
  001da	8a 96 bb 03 01
	00		 mov	 dl, BYTE PTR [esi+66491]
  001e0	88 84 24 20 02
	00 00		 mov	 BYTE PTR _LogData$[esp+1568], al
  001e7	8a 86 bc 03 01
	00		 mov	 al, BYTE PTR [esi+66492]
  001ed	88 8c 24 24 02
	00 00		 mov	 BYTE PTR _LogData$[esp+1572], cl

; 1245 : 	pCharBase->bPants	= pPlayer->m_bPants;
; 1246 : 	pCharBase->bHand	= pPlayer->m_bHand;
; 1247 : 	pCharBase->bFoot	= pPlayer->m_bFoot;

  001f4	8a 8e bf 03 01
	00		 mov	 cl, BYTE PTR [esi+66495]
  001fa	88 94 24 22 02
	00 00		 mov	 BYTE PTR _LogData$[esp+1570], dl
  00201	8a 96 b9 03 01
	00		 mov	 dl, BYTE PTR [esi+66489]
  00207	88 84 24 23 02
	00 00		 mov	 BYTE PTR _LogData$[esp+1571], al
  0020e	8a 86 be 03 01
	00		 mov	 al, BYTE PTR [esi+66494]
  00214	88 8c 24 27 02
	00 00		 mov	 BYTE PTR _LogData$[esp+1575], cl

; 1248 : 
; 1249 : 	SendDMLog( LogData );	

  0021b	81 ec f8 03 00
	00		 sub	 esp, 1016		; 000003f8H
  00221	8b fc		 mov	 edi, esp
  00223	c6 84 24 14 06
	00 00 00	 mov	 BYTE PTR _LogData$[esp+2580], 0
  0022b	88 94 24 1d 06
	00 00		 mov	 BYTE PTR _LogData$[esp+2589], dl
  00232	88 84 24 1e 06
	00 00		 mov	 BYTE PTR _LogData$[esp+2590], al
  00239	b9 fe 00 00 00	 mov	 ecx, 254		; 000000feH
  0023e	8d b4 24 08 04
	00 00		 lea	 esi, DWORD PTR _LogData$[esp+2056]
  00245	f3 a5		 rep movsd
  00247	8b 8c 24 04 04
	00 00		 mov	 ecx, DWORD PTR _this$[esp+2056]
  0024e	e8 00 00 00 00	 call	 ?SendDMLog@CUdpSocket@@QAEXU_LOG_DATA_@@@Z ; CUdpSocket::SendDMLog
$L175725:

; 1250 : }

  00253	8b 8c 24 0c 04
	00 00		 mov	 ecx, DWORD PTR __$ArrayPad$[esp+1040]
  0025a	e8 00 00 00 00	 call	 @__security_check_cookie@4
  0025f	5f		 pop	 edi
  00260	5e		 pop	 esi
  00261	5b		 pop	 ebx
  00262	8b e5		 mov	 esp, ebp
  00264	5d		 pop	 ebp
  00265	c2 08 00	 ret	 8
?LogEnterMap@CUdpSocket@@QAEXKPAVCTPlayer@@@Z ENDP	; CUdpSocket::LogEnterMap
_TEXT	ENDS
PUBLIC	?LogLocalOccupy@CUdpSocket@@QAEXKEGEK@Z		; CUdpSocket::LogLocalOccupy
; Function compile flags: /Ogty
;	COMDAT ?LogLocalOccupy@CUdpSocket@@QAEXKEGEK@Z
_TEXT	SEGMENT
_tNowTime$178286 = -2048				; size = 8
$T178287 = -2040					; size = 1016
_LogData$ = -1024					; size = 1016
__$ArrayPad$ = -4					; size = 4
__$ReturnAddr$ = 4					; size = 4
_pAction$ = 8						; size = 4
_bType$ = 12						; size = 1
_wLocalID$ = 16						; size = 2
_bCountry$ = 20						; size = 1
_dwGuildID$ = 24					; size = 4
?LogLocalOccupy@CUdpSocket@@QAEXKEGEK@Z PROC NEAR	; CUdpSocket::LogLocalOccupy, COMDAT
; _this$ = ecx

; 1256 : {

  00000	55		 push	 ebp
  00001	8b ec		 mov	 ebp, esp
  00003	83 e4 f8	 and	 esp, -8			; fffffff8H
  00006	81 ec 00 08 00
	00		 sub	 esp, 2048		; 00000800H
  0000c	a1 00 00 00 00	 mov	 eax, DWORD PTR ___security_cookie
  00011	89 84 24 fc 07
	00 00		 mov	 DWORD PTR __$ArrayPad$[esp+2048], eax

; 1257 : 	_LOG_DATA_ LogData;
; 1258 : 
; 1259 : 	memset( &LogData, 0x00, sizeof(_LOG_DATA_));

  00018	33 c0		 xor	 eax, eax
  0001a	56		 push	 esi
  0001b	57		 push	 edi
  0001c	b9 fe 00 00 00	 mov	 ecx, 254		; 000000feH
  00021	8d bc 24 08 04
	00 00		 lea	 edi, DWORD PTR _LogData$[esp+2056]
  00028	f3 ab		 rep stosd

; 1260 : 
; 1261 : 	LogData.dwAction	=	pAction;

  0002a	8b 45 08	 mov	 eax, DWORD PTR _pAction$[ebp]

; 1262 : 	LogData.dwServerID	=	_AtlModule.GetServerID();

  0002d	0f b6 0d 82 9e
	00 00		 movzx	 ecx, BYTE PTR ?_AtlModule@@3VCTMapSvrModule@@A+40578
  00034	89 84 24 2c 04
	00 00		 mov	 DWORD PTR _LogData$[esp+2092], eax

; 1263 : 
; 1264 : 	LogData.dwKey[0]	=	wLocalID;

  0003b	0f b7 45 10	 movzx	 eax, WORD PTR _wLocalID$[ebp]
  0003f	99		 cdq
  00040	89 84 24 40 04
	00 00		 mov	 DWORD PTR _LogData$[esp+2112], eax

; 1265 : 
; 1266 : 	LogData.dwKey[2]	=	bCountry;

  00047	0f b6 45 14	 movzx	 eax, BYTE PTR _bCountry$[ebp]
  0004b	89 94 24 44 04
	00 00		 mov	 DWORD PTR _LogData$[esp+2116], edx
  00052	99		 cdq
  00053	89 84 24 50 04
	00 00		 mov	 DWORD PTR _LogData$[esp+2128], eax

; 1267 : 
; 1268 : 	LogData.dwKey[3]	=	dwGuildID;
; 1269 : 
; 1270 : 	LogData.dwKey[6]	=	bType;

  0005a	0f b6 45 0c	 movzx	 eax, BYTE PTR _bType$[ebp]
  0005e	89 94 24 54 04
	00 00		 mov	 DWORD PTR _LogData$[esp+2132], edx
  00065	8b 55 18	 mov	 edx, DWORD PTR _dwGuildID$[ebp]
  00068	89 94 24 58 04
	00 00		 mov	 DWORD PTR _LogData$[esp+2136], edx
  0006f	99		 cdq
  00070	89 8c 24 18 04
	00 00		 mov	 DWORD PTR _LogData$[esp+2072], ecx
  00077	89 84 24 70 04
	00 00		 mov	 DWORD PTR _LogData$[esp+2160], eax
  0007e	89 94 24 74 04
	00 00		 mov	 DWORD PTR _LogData$[esp+2164], edx

; 1271 : 
; 1272 : 	SendDMLog( LogData );	

  00085	b9 fe 00 00 00	 mov	 ecx, 254		; 000000feH
  0008a	8d b4 24 08 04
	00 00		 lea	 esi, DWORD PTR _LogData$[esp+2056]
  00091	8d 7c 24 10	 lea	 edi, DWORD PTR $T178287[esp+2056]
  00095	c7 84 24 5c 04
	00 00 00 00 00
	00		 mov	 DWORD PTR _LogData$[esp+2140], 0
  000a0	6a 00		 push	 0
  000a2	f3 a5		 rep movsd
  000a4	e8 00 00 00 00	 call	 __time64
  000a9	89 44 24 0c	 mov	 DWORD PTR _tNowTime$178286[esp+2060], eax
  000ad	83 c4 04	 add	 esp, 4
  000b0	8d 44 24 10	 lea	 eax, DWORD PTR $T178287[esp+2056]
  000b4	50		 push	 eax
  000b5	8d 4c 24 0c	 lea	 ecx, DWORD PTR _tNowTime$178286[esp+2060]
  000b9	89 54 24 10	 mov	 DWORD PTR _tNowTime$178286[esp+2064], edx
  000bd	e8 00 00 00 00	 call	 ?GetAsDBTIMESTAMP@CTime@ATL@@QBE_NAAUtagDBTIMESTAMP@@@Z ; ATL::CTime::GetAsDBTIMESTAMP
  000c2	81 ec f8 03 00
	00		 sub	 esp, 1016		; 000003f8H
  000c8	8b fc		 mov	 edi, esp
  000ca	b9 fe 00 00 00	 mov	 ecx, 254		; 000000feH
  000cf	8d b4 24 08 04
	00 00		 lea	 esi, DWORD PTR $T178287[esp+3072]
  000d6	f3 a5		 rep movsd
  000d8	b9 00 00 00 00	 mov	 ecx, OFFSET FLAT:?_AtlModule@@3VCTMapSvrModule@@A
  000dd	e8 00 00 00 00	 call	 ?SendDM_UDPLOG_REQ@CTMapSvrModule@@QAEXU_LOG_DATA_@@@Z ; CTMapSvrModule::SendDM_UDPLOG_REQ

; 1273 : }

  000e2	8b 8c 24 04 08
	00 00		 mov	 ecx, DWORD PTR __$ArrayPad$[esp+2056]
  000e9	e8 00 00 00 00	 call	 @__security_check_cookie@4
  000ee	5f		 pop	 edi
  000ef	5e		 pop	 esi
  000f0	8b e5		 mov	 esp, ebp
  000f2	5d		 pop	 ebp
  000f3	c2 14 00	 ret	 20			; 00000014H
?LogLocalOccupy@CUdpSocket@@QAEXKEGEK@Z ENDP		; CUdpSocket::LogLocalOccupy
_TEXT	ENDS
PUBLIC	?LogLocalEnable@CUdpSocket@@QAEXKGE@Z		; CUdpSocket::LogLocalEnable
; Function compile flags: /Ogty
;	COMDAT ?LogLocalEnable@CUdpSocket@@QAEXKGE@Z
_TEXT	SEGMENT
_tNowTime$178312 = -2048				; size = 8
$T178313 = -2040					; size = 1016
_LogData$ = -1024					; size = 1016
__$ArrayPad$ = -4					; size = 4
__$ReturnAddr$ = 4					; size = 4
_pAction$ = 8						; size = 4
_wLocalID$ = 12						; size = 2
_bStatus$ = 16						; size = 1
?LogLocalEnable@CUdpSocket@@QAEXKGE@Z PROC NEAR		; CUdpSocket::LogLocalEnable, COMDAT
; _this$ = ecx

; 1279 : {

  00000	55		 push	 ebp
  00001	8b ec		 mov	 ebp, esp
  00003	83 e4 f8	 and	 esp, -8			; fffffff8H
  00006	81 ec 00 08 00
	00		 sub	 esp, 2048		; 00000800H
  0000c	a1 00 00 00 00	 mov	 eax, DWORD PTR ___security_cookie
  00011	89 84 24 fc 07
	00 00		 mov	 DWORD PTR __$ArrayPad$[esp+2048], eax
  00018	56		 push	 esi

; 1280 : 	_LOG_DATA_ LogData;
; 1281 : 	memset( &LogData, 0x00, sizeof(_LOG_DATA_));

  00019	33 c0		 xor	 eax, eax
  0001b	57		 push	 edi
  0001c	b9 fe 00 00 00	 mov	 ecx, 254		; 000000feH
  00021	8d bc 24 08 04
	00 00		 lea	 edi, DWORD PTR _LogData$[esp+2056]
  00028	f3 ab		 rep stosd

; 1282 : 
; 1283 : 	LogData.dwAction	=	pAction;

  0002a	8b 45 08	 mov	 eax, DWORD PTR _pAction$[ebp]

; 1284 : 	LogData.dwServerID	=	_AtlModule.GetServerID();

  0002d	0f b6 0d 82 9e
	00 00		 movzx	 ecx, BYTE PTR ?_AtlModule@@3VCTMapSvrModule@@A+40578
  00034	89 84 24 2c 04
	00 00		 mov	 DWORD PTR _LogData$[esp+2092], eax

; 1285 : 
; 1286 : 	LogData.dwKey[0]	=	wLocalID;

  0003b	0f b7 45 0c	 movzx	 eax, WORD PTR _wLocalID$[ebp]
  0003f	99		 cdq
  00040	89 84 24 40 04
	00 00		 mov	 DWORD PTR _LogData$[esp+2112], eax

; 1287 : 
; 1288 : 	LogData.dwKey[6]	=	bStatus;

  00047	0f b6 45 10	 movzx	 eax, BYTE PTR _bStatus$[ebp]
  0004b	89 94 24 44 04
	00 00		 mov	 DWORD PTR _LogData$[esp+2116], edx
  00052	99		 cdq
  00053	89 8c 24 18 04
	00 00		 mov	 DWORD PTR _LogData$[esp+2072], ecx
  0005a	89 84 24 70 04
	00 00		 mov	 DWORD PTR _LogData$[esp+2160], eax
  00061	89 94 24 74 04
	00 00		 mov	 DWORD PTR _LogData$[esp+2164], edx

; 1289 : 
; 1290 : 	SendDMLog( LogData );

  00068	b9 fe 00 00 00	 mov	 ecx, 254		; 000000feH
  0006d	8d b4 24 08 04
	00 00		 lea	 esi, DWORD PTR _LogData$[esp+2056]
  00074	8d 7c 24 10	 lea	 edi, DWORD PTR $T178313[esp+2056]
  00078	6a 00		 push	 0
  0007a	f3 a5		 rep movsd
  0007c	e8 00 00 00 00	 call	 __time64
  00081	89 54 24 10	 mov	 DWORD PTR _tNowTime$178312[esp+2064], edx
  00085	83 c4 04	 add	 esp, 4
  00088	8d 54 24 10	 lea	 edx, DWORD PTR $T178313[esp+2056]
  0008c	52		 push	 edx
  0008d	8d 4c 24 0c	 lea	 ecx, DWORD PTR _tNowTime$178312[esp+2060]
  00091	89 44 24 0c	 mov	 DWORD PTR _tNowTime$178312[esp+2060], eax
  00095	e8 00 00 00 00	 call	 ?GetAsDBTIMESTAMP@CTime@ATL@@QBE_NAAUtagDBTIMESTAMP@@@Z ; ATL::CTime::GetAsDBTIMESTAMP
  0009a	81 ec f8 03 00
	00		 sub	 esp, 1016		; 000003f8H
  000a0	8b fc		 mov	 edi, esp
  000a2	b9 fe 00 00 00	 mov	 ecx, 254		; 000000feH
  000a7	8d b4 24 08 04
	00 00		 lea	 esi, DWORD PTR $T178313[esp+3072]
  000ae	f3 a5		 rep movsd
  000b0	b9 00 00 00 00	 mov	 ecx, OFFSET FLAT:?_AtlModule@@3VCTMapSvrModule@@A
  000b5	e8 00 00 00 00	 call	 ?SendDM_UDPLOG_REQ@CTMapSvrModule@@QAEXU_LOG_DATA_@@@Z ; CTMapSvrModule::SendDM_UDPLOG_REQ

; 1291 : }

  000ba	8b 8c 24 04 08
	00 00		 mov	 ecx, DWORD PTR __$ArrayPad$[esp+2056]
  000c1	e8 00 00 00 00	 call	 @__security_check_cookie@4
  000c6	5f		 pop	 edi
  000c7	5e		 pop	 esi
  000c8	8b e5		 mov	 esp, ebp
  000ca	5d		 pop	 ebp
  000cb	c2 0c 00	 ret	 12			; 0000000cH
?LogLocalEnable@CUdpSocket@@QAEXKGE@Z ENDP		; CUdpSocket::LogLocalEnable
_TEXT	ENDS
PUBLIC	??_C@_06IKLLLDHL@normal?$AA@			; `string'
PUBLIC	??_C@_05KAEIDCAL@apply?$AA@			; `string'
PUBLIC	?LogGuildDisorganization@CUdpSocket@@QAEXKPAVCTPlayer@@E@Z ; CUdpSocket::LogGuildDisorganization
;	COMDAT ??_C@_05KAEIDCAL@apply?$AA@
; File c:\program files (x86)\microsoft visual studio .net 2003\vc7\atlmfc\include\atlsimpstr.h
CONST	SEGMENT
??_C@_05KAEIDCAL@apply?$AA@ DB 'apply', 00H		; `string'
CONST	ENDS
;	COMDAT ??_C@_06IKLLLDHL@normal?$AA@
CONST	SEGMENT
??_C@_06IKLLLDHL@normal?$AA@ DB 'normal', 00H		; `string'
; Function compile flags: /Ogty
; File c:\users\pierr\desktop\4story - oldschool\sources\tserver\tmapsvr\udpsocket.cpp
CONST	ENDS
;	COMDAT ?LogGuildDisorganization@CUdpSocket@@QAEXKPAVCTPlayer@@E@Z
_TEXT	SEGMENT
_this$ = -1028						; size = 4
_LogData$ = -1024					; size = 1016
__$ArrayPad$ = -4					; size = 4
__$ReturnAddr$ = 4					; size = 4
_pAction$ = 8						; size = 4
_pPlayer$ = 12						; size = 4
_pDisorg$ = 16						; size = 1
?LogGuildDisorganization@CUdpSocket@@QAEXKPAVCTPlayer@@E@Z PROC NEAR ; CUdpSocket::LogGuildDisorganization, COMDAT
; _this$ = ecx

; 1610 : {

  00000	55		 push	 ebp
  00001	8b ec		 mov	 ebp, esp
  00003	83 e4 f8	 and	 esp, -8			; fffffff8H
  00006	81 ec 04 04 00
	00		 sub	 esp, 1028		; 00000404H
  0000c	a1 00 00 00 00	 mov	 eax, DWORD PTR ___security_cookie
  00011	53		 push	 ebx
  00012	56		 push	 esi

; 1611 : 	if(!pPlayer) return;

  00013	8b 75 0c	 mov	 esi, DWORD PTR _pPlayer$[ebp]
  00016	33 db		 xor	 ebx, ebx
  00018	3b f3		 cmp	 esi, ebx
  0001a	89 84 24 08 04
	00 00		 mov	 DWORD PTR __$ArrayPad$[esp+1036], eax
  00021	57		 push	 edi
  00022	89 4c 24 0c	 mov	 DWORD PTR _this$[esp+1040], ecx
  00026	0f 84 53 01 00
	00		 je	 $L175931

; 1612 : 
; 1613 : 	_LOG_DATA_ LogData;
; 1614 : 	memset( &LogData, 0x00, sizeof(_LOG_DATA_));
; 1615 : 
; 1616 : 	LogData.dwAction	=	pAction;
; 1617 : 	LogData.dwServerID	=	_AtlModule.GetServerID();
; 1618 : 
; 1619 : 	lstrcpy( LogData.szClientIP, inet_ntoa(pPlayer->m_addr.sin_addr) );

  0002c	8b 56 40	 mov	 edx, DWORD PTR [esi+64]
  0002f	33 c0		 xor	 eax, eax
  00031	b9 fe 00 00 00	 mov	 ecx, 254		; 000000feH
  00036	8d 7c 24 10	 lea	 edi, DWORD PTR _LogData$[esp+1040]
  0003a	f3 ab		 rep stosd
  0003c	0f b6 0d 82 9e
	00 00		 movzx	 ecx, BYTE PTR ?_AtlModule@@3VCTMapSvrModule@@A+40578
  00043	8b 45 08	 mov	 eax, DWORD PTR _pAction$[ebp]
  00046	52		 push	 edx
  00047	89 44 24 38	 mov	 DWORD PTR _LogData$[esp+1080], eax
  0004b	89 4c 24 24	 mov	 DWORD PTR _LogData$[esp+1060], ecx
  0004f	ff 15 00 00 00
	00		 call	 DWORD PTR __imp__inet_ntoa@4
  00055	8b 3d 00 00 00
	00		 mov	 edi, DWORD PTR __imp__lstrcpyA@8
  0005b	50		 push	 eax
  0005c	8d 44 24 28	 lea	 eax, DWORD PTR _LogData$[esp+1064]
  00060	50		 push	 eax
  00061	ff d7		 call	 edi

; 1620 : 
; 1621 : 	LogData.wMapID			=	pPlayer->m_wMapID;				//	Map ID

  00063	66 8b 8e 90 01
	01 00		 mov	 cx, WORD PTR [esi+65936]

; 1622 : 	LogData.nX				=	(int)pPlayer->m_fPosX;			//	X

  0006a	d9 86 7c 01 01
	00		 fld	 DWORD PTR [esi+65916]
  00070	66 89 4c 24 38	 mov	 WORD PTR _LogData$[esp+1080], cx
  00075	e8 00 00 00 00	 call	 __ftol2

; 1623 : 	LogData.nY				=	(int)pPlayer->m_fPosY;			//	Y

  0007a	d9 86 80 01 01
	00		 fld	 DWORD PTR [esi+65920]
  00080	89 44 24 3c	 mov	 DWORD PTR _LogData$[esp+1084], eax
  00084	e8 00 00 00 00	 call	 __ftol2

; 1624 : 	LogData.nZ				=	(int)pPlayer->m_fPosZ;			//	Z

  00089	d9 86 84 01 01
	00		 fld	 DWORD PTR [esi+65924]
  0008f	89 44 24 40	 mov	 DWORD PTR _LogData$[esp+1088], eax
  00093	e8 00 00 00 00	 call	 __ftol2

; 1625 : 
; 1626 : 	LogData.dwKey[0]		=	pPlayer->m_dwUserID;			// User ID

  00098	8b 96 ac 03 01
	00		 mov	 edx, DWORD PTR [esi+66476]

; 1627 : 	LogData.dwKey[1]		=	pPlayer->m_dwID;				//	Character Seq
; 1628 : 	lstrcpy(LogData.szKey[1],	pPlayer->m_strNAME	);			//	Character Name

  0009e	8b 8e a4 03 01
	00		 mov	 ecx, DWORD PTR [esi+66468]
  000a4	89 54 24 48	 mov	 DWORD PTR _LogData$[esp+1096], edx
  000a8	89 44 24 44	 mov	 DWORD PTR _LogData$[esp+1092], eax
  000ac	8b 86 44 01 01
	00		 mov	 eax, DWORD PTR [esi+65860]
  000b2	51		 push	 ecx
  000b3	8d 94 24 d6 00
	00 00		 lea	 edx, DWORD PTR _LogData$[esp+1238]
  000ba	52		 push	 edx
  000bb	89 5c 24 54	 mov	 DWORD PTR _LogData$[esp+1108], ebx
  000bf	89 44 24 58	 mov	 DWORD PTR _LogData$[esp+1112], eax
  000c3	89 5c 24 5c	 mov	 DWORD PTR _LogData$[esp+1116], ebx
  000c7	ff d7		 call	 edi

; 1629 : 	LogData.dwKey[9]		=	pPlayer->m_bCountry + (pPlayer->m_bAidCountry == TCONTRY_N ? 0 : (pPlayer->m_bAidCountry+1)*10);			//	Country

  000c9	8a 86 9e 01 01
	00		 mov	 al, BYTE PTR [esi+65950]
  000cf	3c 03		 cmp	 al, 3
  000d1	75 04		 jne	 SHORT $L178318
  000d3	33 c9		 xor	 ecx, ecx
  000d5	eb 09		 jmp	 SHORT $L178319
$L178318:
  000d7	0f b6 c0	 movzx	 eax, al
  000da	40		 inc	 eax
  000db	8d 0c 80	 lea	 ecx, DWORD PTR [eax+eax*4]
  000de	d1 e1		 shl	 ecx, 1
$L178319:
  000e0	0f b6 86 9d 01
	01 00		 movzx	 eax, BYTE PTR [esi+65949]
  000e7	03 c1		 add	 eax, ecx

; 1630 : 	LogData.dwKey[10]		=	pPlayer->m_bLevel;				//	Level
; 1631 : 
; 1632 : 
; 1633 : 
; 1634 : 
; 1635 : 	//	4: Guild
; 1636 : 	LogData.dwKey[4]		=	pPlayer->m_dwGuildID;
; 1637 : 	lstrcpy(LogData.szKey[4],	pPlayer->m_strGuildName	);

  000e9	8b 8e b4 01 01
	00		 mov	 ecx, DWORD PTR [esi+65972]
  000ef	99		 cdq
  000f0	89 84 24 90 00
	00 00		 mov	 DWORD PTR _LogData$[esp+1168], eax
  000f7	0f b6 86 7b 01
	01 00		 movzx	 eax, BYTE PTR [esi+65915]
  000fe	89 94 24 94 00
	00 00		 mov	 DWORD PTR _LogData$[esp+1172], edx
  00105	99		 cdq
  00106	89 94 24 9c 00
	00 00		 mov	 DWORD PTR _LogData$[esp+1180], edx
  0010d	89 84 24 98 00
	00 00		 mov	 DWORD PTR _LogData$[esp+1176], eax
  00114	8b 86 b0 01 01
	00		 mov	 eax, DWORD PTR [esi+65968]
  0011a	51		 push	 ecx
  0011b	8d 94 24 6c 01
	00 00		 lea	 edx, DWORD PTR _LogData$[esp+1388]
  00122	52		 push	 edx
  00123	89 44 24 70	 mov	 DWORD PTR _LogData$[esp+1136], eax
  00127	89 5c 24 74	 mov	 DWORD PTR _LogData$[esp+1140], ebx
  0012b	ff d7		 call	 edi

; 1638 : 
; 1639 : 	//	5
; 1640 : 	switch(pDisorg)

  0012d	0f b6 45 10	 movzx	 eax, BYTE PTR _pDisorg$[ebp]
  00131	2b c3		 sub	 eax, ebx
  00133	74 12		 je	 SHORT $L175942
  00135	48		 dec	 eax
  00136	75 1e		 jne	 SHORT $L175939

; 1643 : 	case 1	:	lstrcpy(LogData.szKey[5],	"apply"		);	break;

  00138	68 00 00 00 00	 push	 OFFSET FLAT:??_C@_05KAEIDCAL@apply?$AA@
  0013d	8d 84 24 9e 01
	00 00		 lea	 eax, DWORD PTR _LogData$[esp+1438]
  00144	50		 push	 eax
  00145	eb 0d		 jmp	 SHORT $L178333
$L175942:

; 1641 : 	{
; 1642 : 	case 0	:	lstrcpy(LogData.szKey[5],	"normal"	);	break;

  00147	68 00 00 00 00	 push	 OFFSET FLAT:??_C@_06IKLLLDHL@normal?$AA@
  0014c	8d 8c 24 9e 01
	00 00		 lea	 ecx, DWORD PTR _LogData$[esp+1438]
  00153	51		 push	 ecx
$L178333:
  00154	ff d7		 call	 edi
$L175939:

; 1644 : 	}
; 1645 : 
; 1646 : 	LogData.dwFormat = LF_TEXT;
; 1647 : 
; 1648 : 	SendDMLog( LogData );

  00156	81 ec f8 03 00
	00		 sub	 esp, 1016		; 000003f8H
  0015c	8b fc		 mov	 edi, esp
  0015e	89 9c 24 f8 05
	00 00		 mov	 DWORD PTR _LogData$[esp+2552], ebx
  00165	b9 fe 00 00 00	 mov	 ecx, 254		; 000000feH
  0016a	8d b4 24 08 04
	00 00		 lea	 esi, DWORD PTR _LogData$[esp+2056]
  00171	f3 a5		 rep movsd
  00173	8b 8c 24 04 04
	00 00		 mov	 ecx, DWORD PTR _this$[esp+2056]
  0017a	e8 00 00 00 00	 call	 ?SendDMLog@CUdpSocket@@QAEXU_LOG_DATA_@@@Z ; CUdpSocket::SendDMLog
$L175931:

; 1649 : }

  0017f	8b 8c 24 0c 04
	00 00		 mov	 ecx, DWORD PTR __$ArrayPad$[esp+1040]
  00186	e8 00 00 00 00	 call	 @__security_check_cookie@4
  0018b	5f		 pop	 edi
  0018c	5e		 pop	 esi
  0018d	5b		 pop	 ebx
  0018e	8b e5		 mov	 esp, ebp
  00190	5d		 pop	 ebp
  00191	c2 0c 00	 ret	 12			; 0000000cH
?LogGuildDisorganization@CUdpSocket@@QAEXKPAVCTPlayer@@E@Z ENDP ; CUdpSocket::LogGuildDisorganization
_TEXT	ENDS
PUBLIC	??_C@_07PFKAHOIJ@SUCCESS?$AA@			; `string'
PUBLIC	??_C@_0BB@ICBAIEAK@ALREADYGUILDNAME?$AA@	; `string'
PUBLIC	??_C@_08PPKAPFHE@NOTCHIEF?$AA@			; `string'
PUBLIC	??_C@_0O@PBOOMHM@ALREADYMEMBER?$AA@		; `string'
PUBLIC	??_C@_09FJKKGCKF@NOTMEMBER?$AA@			; `string'
PUBLIC	??_C@_09DEKMPEHL@HAVEGUILD?$AA@			; `string'
PUBLIC	??_C@_08DJOBNNJD@NOTFOUND?$AA@			; `string'
PUBLIC	??_C@_0O@ODJEFDDJ@ESTABLISH_ERR?$AA@		; `string'
PUBLIC	??_C@_0BE@FBCEBNHN@DISORGANIZATION_ERR?$AA@	; `string'
PUBLIC	??_C@_0L@INCIIFBF@LEAVE_SELF?$AA@		; `string'
PUBLIC	??_C@_0L@CJJMNPJO@LEAVE_KICK?$AA@		; `string'
PUBLIC	??_C@_0BG@MENJOLMJ@LEAVE_DISORGANIZATION?$AA@	; `string'
PUBLIC	??_C@_0N@NKEOKGLA@JOIN_SUCCESS?$AA@		; `string'
PUBLIC	??_C@_09FLDMLBKH@JOIN_DENY?$AA@			; `string'
PUBLIC	??_C@_06NJMFPHHE@NODUTY?$AA@			; `string'
PUBLIC	?LogGuildExpMoeny@CUdpSocket@@QAEXKPAVCTPlayer@@HHHHHE@Z ; CUdpSocket::LogGuildExpMoeny
;	COMDAT ??_C@_07PFKAHOIJ@SUCCESS?$AA@
; File c:\program files (x86)\microsoft visual studio .net 2003\vc7\atlmfc\include\atlsimpstr.h
CONST	SEGMENT
??_C@_07PFKAHOIJ@SUCCESS?$AA@ DB 'SUCCESS', 00H		; `string'
CONST	ENDS
;	COMDAT ??_C@_0BB@ICBAIEAK@ALREADYGUILDNAME?$AA@
CONST	SEGMENT
??_C@_0BB@ICBAIEAK@ALREADYGUILDNAME?$AA@ DB 'ALREADYGUILDNAME', 00H ; `string'
CONST	ENDS
;	COMDAT ??_C@_08PPKAPFHE@NOTCHIEF?$AA@
CONST	SEGMENT
??_C@_08PPKAPFHE@NOTCHIEF?$AA@ DB 'NOTCHIEF', 00H	; `string'
CONST	ENDS
;	COMDAT ??_C@_0O@PBOOMHM@ALREADYMEMBER?$AA@
CONST	SEGMENT
??_C@_0O@PBOOMHM@ALREADYMEMBER?$AA@ DB 'ALREADYMEMBER', 00H ; `string'
CONST	ENDS
;	COMDAT ??_C@_09FJKKGCKF@NOTMEMBER?$AA@
CONST	SEGMENT
??_C@_09FJKKGCKF@NOTMEMBER?$AA@ DB 'NOTMEMBER', 00H	; `string'
CONST	ENDS
;	COMDAT ??_C@_09DEKMPEHL@HAVEGUILD?$AA@
CONST	SEGMENT
??_C@_09DEKMPEHL@HAVEGUILD?$AA@ DB 'HAVEGUILD', 00H	; `string'
CONST	ENDS
;	COMDAT ??_C@_08DJOBNNJD@NOTFOUND?$AA@
CONST	SEGMENT
??_C@_08DJOBNNJD@NOTFOUND?$AA@ DB 'NOTFOUND', 00H	; `string'
CONST	ENDS
;	COMDAT ??_C@_0O@ODJEFDDJ@ESTABLISH_ERR?$AA@
CONST	SEGMENT
??_C@_0O@ODJEFDDJ@ESTABLISH_ERR?$AA@ DB 'ESTABLISH_ERR', 00H ; `string'
CONST	ENDS
;	COMDAT ??_C@_0BE@FBCEBNHN@DISORGANIZATION_ERR?$AA@
CONST	SEGMENT
??_C@_0BE@FBCEBNHN@DISORGANIZATION_ERR?$AA@ DB 'DISORGANIZATION_ERR', 00H ; `string'
CONST	ENDS
;	COMDAT ??_C@_0L@INCIIFBF@LEAVE_SELF?$AA@
CONST	SEGMENT
??_C@_0L@INCIIFBF@LEAVE_SELF?$AA@ DB 'LEAVE_SELF', 00H	; `string'
CONST	ENDS
;	COMDAT ??_C@_0L@CJJMNPJO@LEAVE_KICK?$AA@
CONST	SEGMENT
??_C@_0L@CJJMNPJO@LEAVE_KICK?$AA@ DB 'LEAVE_KICK', 00H	; `string'
CONST	ENDS
;	COMDAT ??_C@_0BG@MENJOLMJ@LEAVE_DISORGANIZATION?$AA@
CONST	SEGMENT
??_C@_0BG@MENJOLMJ@LEAVE_DISORGANIZATION?$AA@ DB 'LEAVE_DISORGANIZATION', 00H ; `string'
CONST	ENDS
;	COMDAT ??_C@_0N@NKEOKGLA@JOIN_SUCCESS?$AA@
CONST	SEGMENT
??_C@_0N@NKEOKGLA@JOIN_SUCCESS?$AA@ DB 'JOIN_SUCCESS', 00H ; `string'
CONST	ENDS
;	COMDAT ??_C@_09FLDMLBKH@JOIN_DENY?$AA@
CONST	SEGMENT
??_C@_09FLDMLBKH@JOIN_DENY?$AA@ DB 'JOIN_DENY', 00H	; `string'
CONST	ENDS
;	COMDAT ??_C@_06NJMFPHHE@NODUTY?$AA@
CONST	SEGMENT
??_C@_06NJMFPHHE@NODUTY?$AA@ DB 'NODUTY', 00H		; `string'
; Function compile flags: /Ogty
; File c:\users\pierr\desktop\4story - oldschool\sources\tserver\tmapsvr\udpsocket.cpp
CONST	ENDS
;	COMDAT ?LogGuildExpMoeny@CUdpSocket@@QAEXKPAVCTPlayer@@HHHHHE@Z
_TEXT	SEGMENT
_this$ = -1028						; size = 4
_LogData$ = -1024					; size = 1016
__$ArrayPad$ = -4					; size = 4
__$ReturnAddr$ = 4					; size = 4
_pAction$ = 8						; size = 4
_pPlayer$ = 12						; size = 4
_pExp$ = 16						; size = 4
_pGold$ = 20						; size = 4
_pSilver$ = 24						; size = 4
_pCooper$ = 28						; size = 4
_pPvPoint$ = 32						; size = 4
_bRet$ = 36						; size = 1
?LogGuildExpMoeny@CUdpSocket@@QAEXKPAVCTPlayer@@HHHHHE@Z PROC NEAR ; CUdpSocket::LogGuildExpMoeny, COMDAT
; _this$ = ecx

; 1655 : {

  00000	55		 push	 ebp
  00001	8b ec		 mov	 ebp, esp
  00003	83 e4 f8	 and	 esp, -8			; fffffff8H
  00006	81 ec 04 04 00
	00		 sub	 esp, 1028		; 00000404H
  0000c	a1 00 00 00 00	 mov	 eax, DWORD PTR ___security_cookie
  00011	53		 push	 ebx
  00012	56		 push	 esi

; 1656 : 	if(!pPlayer) return;

  00013	8b 75 0c	 mov	 esi, DWORD PTR _pPlayer$[ebp]
  00016	33 db		 xor	 ebx, ebx
  00018	3b f3		 cmp	 esi, ebx
  0001a	89 84 24 08 04
	00 00		 mov	 DWORD PTR __$ArrayPad$[esp+1036], eax
  00021	57		 push	 edi
  00022	89 4c 24 0c	 mov	 DWORD PTR _this$[esp+1040], ecx
  00026	0f 84 4b 02 00
	00		 je	 $L175956

; 1657 : 
; 1658 : 	_LOG_DATA_ LogData;
; 1659 : 
; 1660 : 	memset( &LogData, 0x00, sizeof(_LOG_DATA_));
; 1661 : 
; 1662 : 	LogData.dwAction	=	pAction;
; 1663 : 	LogData.dwServerID	=	_AtlModule.GetServerID();
; 1664 : 
; 1665 : 	lstrcpy( LogData.szClientIP, inet_ntoa(pPlayer->m_addr.sin_addr) );	

  0002c	8b 56 40	 mov	 edx, DWORD PTR [esi+64]
  0002f	33 c0		 xor	 eax, eax
  00031	b9 fe 00 00 00	 mov	 ecx, 254		; 000000feH
  00036	8d 7c 24 10	 lea	 edi, DWORD PTR _LogData$[esp+1040]
  0003a	f3 ab		 rep stosd
  0003c	0f b6 0d 82 9e
	00 00		 movzx	 ecx, BYTE PTR ?_AtlModule@@3VCTMapSvrModule@@A+40578
  00043	8b 45 08	 mov	 eax, DWORD PTR _pAction$[ebp]
  00046	52		 push	 edx
  00047	89 44 24 38	 mov	 DWORD PTR _LogData$[esp+1080], eax
  0004b	89 4c 24 24	 mov	 DWORD PTR _LogData$[esp+1060], ecx
  0004f	ff 15 00 00 00
	00		 call	 DWORD PTR __imp__inet_ntoa@4
  00055	8b 3d 00 00 00
	00		 mov	 edi, DWORD PTR __imp__lstrcpyA@8
  0005b	50		 push	 eax
  0005c	8d 44 24 28	 lea	 eax, DWORD PTR _LogData$[esp+1064]
  00060	50		 push	 eax
  00061	ff d7		 call	 edi

; 1666 : 
; 1667 : 
; 1668 : 	LogData.wMapID			=	pPlayer->m_wMapID;				//	Map ID

  00063	66 8b 8e 90 01
	01 00		 mov	 cx, WORD PTR [esi+65936]

; 1669 : 	LogData.nX				=	(int)pPlayer->m_fPosX;			//	X

  0006a	d9 86 7c 01 01
	00		 fld	 DWORD PTR [esi+65916]
  00070	66 89 4c 24 38	 mov	 WORD PTR _LogData$[esp+1080], cx
  00075	e8 00 00 00 00	 call	 __ftol2

; 1670 : 	LogData.nY				=	(int)pPlayer->m_fPosY;			//	Y

  0007a	d9 86 80 01 01
	00		 fld	 DWORD PTR [esi+65920]
  00080	89 44 24 3c	 mov	 DWORD PTR _LogData$[esp+1084], eax
  00084	e8 00 00 00 00	 call	 __ftol2

; 1671 : 	LogData.nZ				=	(int)pPlayer->m_fPosZ;			//	Z

  00089	d9 86 84 01 01
	00		 fld	 DWORD PTR [esi+65924]
  0008f	89 44 24 40	 mov	 DWORD PTR _LogData$[esp+1088], eax
  00093	e8 00 00 00 00	 call	 __ftol2

; 1672 : 
; 1673 : 	LogData.dwKey[0]		=	pPlayer->m_dwUserID;			//	User ID

  00098	8b 96 ac 03 01
	00		 mov	 edx, DWORD PTR [esi+66476]

; 1674 : 	LogData.dwKey[1]		=	pPlayer->m_dwID;				//	Character Seq
; 1675 : 	lstrcpy(LogData.szKey[1],	pPlayer->m_strNAME	);			//	Character Name

  0009e	8b 8e a4 03 01
	00		 mov	 ecx, DWORD PTR [esi+66468]
  000a4	89 54 24 48	 mov	 DWORD PTR _LogData$[esp+1096], edx
  000a8	89 44 24 44	 mov	 DWORD PTR _LogData$[esp+1092], eax
  000ac	8b 86 44 01 01
	00		 mov	 eax, DWORD PTR [esi+65860]
  000b2	51		 push	 ecx
  000b3	8d 94 24 d6 00
	00 00		 lea	 edx, DWORD PTR _LogData$[esp+1238]
  000ba	52		 push	 edx
  000bb	89 5c 24 54	 mov	 DWORD PTR _LogData$[esp+1108], ebx
  000bf	89 44 24 58	 mov	 DWORD PTR _LogData$[esp+1112], eax
  000c3	89 5c 24 5c	 mov	 DWORD PTR _LogData$[esp+1116], ebx
  000c7	ff d7		 call	 edi

; 1676 : 	LogData.dwKey[9]		=	pPlayer->m_bCountry + (pPlayer->m_bAidCountry == TCONTRY_N ? 0 : (pPlayer->m_bAidCountry+1)*10);			//	Country

  000c9	8a 86 9e 01 01
	00		 mov	 al, BYTE PTR [esi+65950]
  000cf	3c 03		 cmp	 al, 3
  000d1	75 04		 jne	 SHORT $L178337
  000d3	33 c9		 xor	 ecx, ecx
  000d5	eb 09		 jmp	 SHORT $L178338
$L178337:
  000d7	0f b6 c0	 movzx	 eax, al
  000da	40		 inc	 eax
  000db	8d 0c 80	 lea	 ecx, DWORD PTR [eax+eax*4]
  000de	d1 e1		 shl	 ecx, 1
$L178338:
  000e0	0f b6 86 9d 01
	01 00		 movzx	 eax, BYTE PTR [esi+65949]
  000e7	03 c1		 add	 eax, ecx

; 1677 : 	LogData.dwKey[10]		=	pPlayer->m_bLevel;				//	Level
; 1678 : 
; 1679 : 
; 1680 : 	//	4: Guild
; 1681 : 	LogData.dwKey[4]		=	pPlayer->m_dwGuildID;
; 1682 : 	lstrcpy(LogData.szKey[4],	pPlayer->m_strGuildName	);

  000e9	8b 8e b4 01 01
	00		 mov	 ecx, DWORD PTR [esi+65972]
  000ef	99		 cdq
  000f0	89 84 24 90 00
	00 00		 mov	 DWORD PTR _LogData$[esp+1168], eax
  000f7	0f b6 86 7b 01
	01 00		 movzx	 eax, BYTE PTR [esi+65915]
  000fe	89 94 24 94 00
	00 00		 mov	 DWORD PTR _LogData$[esp+1172], edx
  00105	99		 cdq
  00106	89 94 24 9c 00
	00 00		 mov	 DWORD PTR _LogData$[esp+1180], edx
  0010d	89 84 24 98 00
	00 00		 mov	 DWORD PTR _LogData$[esp+1176], eax
  00114	8b 86 b0 01 01
	00		 mov	 eax, DWORD PTR [esi+65968]
  0011a	51		 push	 ecx
  0011b	8d 94 24 6c 01
	00 00		 lea	 edx, DWORD PTR _LogData$[esp+1388]
  00122	52		 push	 edx
  00123	89 44 24 70	 mov	 DWORD PTR _LogData$[esp+1136], eax
  00127	89 5c 24 74	 mov	 DWORD PTR _LogData$[esp+1140], ebx
  0012b	ff d7		 call	 edi

; 1683 : 
; 1684 : 	//	5:	Moeny
; 1685 : 	LogData.dwKey[5]	=	pGold*1000000 +	pSilver * 1000 +	pCooper;

  0012d	8b 45 14	 mov	 eax, DWORD PTR _pGold$[ebp]
  00130	8b 75 18	 mov	 esi, DWORD PTR _pSilver$[ebp]
  00133	69 c0 e8 03 00
	00		 imul	 eax, 1000		; 000003e8H
  00139	8b 55 1c	 mov	 edx, DWORD PTR _pCooper$[ebp]
  0013c	03 c6		 add	 eax, esi
  0013e	69 c0 e8 03 00
	00		 imul	 eax, 1000		; 000003e8H
  00144	03 c2		 add	 eax, edx
  00146	99		 cdq
  00147	89 44 24 70	 mov	 DWORD PTR _LogData$[esp+1136], eax

; 1686 : 
; 1687 : 	//	6: Exp
; 1688 : 	LogData.dwKey[6]	=	pExp;

  0014b	8b 45 10	 mov	 eax, DWORD PTR _pExp$[ebp]
  0014e	89 54 24 74	 mov	 DWORD PTR _LogData$[esp+1140], edx
  00152	99		 cdq
  00153	89 44 24 78	 mov	 DWORD PTR _LogData$[esp+1144], eax

; 1689 : 
; 1690 : 	//	7: PvPoint
; 1691 : 	LogData.dwKey[7]	=	pPvPoint;

  00157	8b 45 20	 mov	 eax, DWORD PTR _pPvPoint$[ebp]
  0015a	89 54 24 7c	 mov	 DWORD PTR _LogData$[esp+1148], edx
  0015e	99		 cdq
  0015f	89 84 24 80 00
	00 00		 mov	 DWORD PTR _LogData$[esp+1152], eax

; 1692 : 
; 1693 : 	//	Return Value
; 1694 : 	switch( bRet )

  00166	0f b6 45 24	 movzx	 eax, BYTE PTR _bRet$[ebp]
  0016a	83 f8 10	 cmp	 eax, 16			; 00000010H
  0016d	89 94 24 84 00
	00 00		 mov	 DWORD PTR _LogData$[esp+1156], edx
  00174	0f 87 d4 00 00
	00		 ja	 $L175982
  0017a	ff 24 85 00 00
	00 00		 jmp	 DWORD PTR $L178354[eax*4]
$L175967:

; 1695 : 	{
; 1696 : 	case GUILD_SUCCESS				: lstrcpy(LogData.szLog,	"SUCCESS"	);				break;        

  00181	68 00 00 00 00	 push	 OFFSET FLAT:??_C@_07PFKAHOIJ@SUCCESS?$AA@
  00186	8d 84 24 08 02
	00 00		 lea	 eax, DWORD PTR _LogData$[esp+1544]
  0018d	50		 push	 eax
  0018e	e9 b9 00 00 00	 jmp	 $L178352
$L175968:

; 1697 : 	case GUILD_ALREADYGUILDNAME		: lstrcpy(LogData.szLog,	"ALREADYGUILDNAME"	);		break;

  00193	68 00 00 00 00	 push	 OFFSET FLAT:??_C@_0BB@ICBAIEAK@ALREADYGUILDNAME?$AA@
  00198	8d 8c 24 08 02
	00 00		 lea	 ecx, DWORD PTR _LogData$[esp+1544]
  0019f	51		 push	 ecx
  001a0	e9 a7 00 00 00	 jmp	 $L178352
$L175969:

; 1698 : 	case GUILD_NOTCHIEF				: lstrcpy(LogData.szLog,	"NOTCHIEF"	);				break;

  001a5	68 00 00 00 00	 push	 OFFSET FLAT:??_C@_08PPKAPFHE@NOTCHIEF?$AA@
  001aa	e9 95 00 00 00	 jmp	 $L178353
$L175970:

; 1699 : 	case GUILD_ALREADYMEMBER		: lstrcpy(LogData.szLog,	"ALREADYMEMBER"	);			break;

  001af	68 00 00 00 00	 push	 OFFSET FLAT:??_C@_0O@PBOOMHM@ALREADYMEMBER?$AA@
  001b4	8d 84 24 08 02
	00 00		 lea	 eax, DWORD PTR _LogData$[esp+1544]
  001bb	50		 push	 eax
  001bc	e9 8b 00 00 00	 jmp	 $L178352
$L175971:

; 1700 : 	case GUILD_NOTMEMBER			: lstrcpy(LogData.szLog,	"NOTMEMBER"	);				break;

  001c1	68 00 00 00 00	 push	 OFFSET FLAT:??_C@_09FJKKGCKF@NOTMEMBER?$AA@
  001c6	8d 8c 24 08 02
	00 00		 lea	 ecx, DWORD PTR _LogData$[esp+1544]
  001cd	51		 push	 ecx
  001ce	eb 7c		 jmp	 SHORT $L178352
$L175972:

; 1701 : 	case GUILD_HAVEGUILD			: lstrcpy(LogData.szLog,	"HAVEGUILD"	);				break;

  001d0	68 00 00 00 00	 push	 OFFSET FLAT:??_C@_09DEKMPEHL@HAVEGUILD?$AA@
  001d5	eb 6d		 jmp	 SHORT $L178353
$L175973:

; 1702 : 	case GUILD_NOTFOUND				: lstrcpy(LogData.szLog,	"NOTFOUND"	);				break;

  001d7	68 00 00 00 00	 push	 OFFSET FLAT:??_C@_08DJOBNNJD@NOTFOUND?$AA@
  001dc	8d 84 24 08 02
	00 00		 lea	 eax, DWORD PTR _LogData$[esp+1544]
  001e3	50		 push	 eax
  001e4	eb 66		 jmp	 SHORT $L178352
$L175974:

; 1703 : 	case GUILD_ESTABLISH_ERR		: lstrcpy(LogData.szLog,	"ESTABLISH_ERR"	);			break;

  001e6	68 00 00 00 00	 push	 OFFSET FLAT:??_C@_0O@ODJEFDDJ@ESTABLISH_ERR?$AA@
  001eb	8d 8c 24 08 02
	00 00		 lea	 ecx, DWORD PTR _LogData$[esp+1544]
  001f2	51		 push	 ecx
  001f3	eb 57		 jmp	 SHORT $L178352
$L175975:

; 1704 : 	case GUILD_DISORGANIZATION_ERR	: lstrcpy(LogData.szLog,	"DISORGANIZATION_ERR");		break;

  001f5	68 00 00 00 00	 push	 OFFSET FLAT:??_C@_0BE@FBCEBNHN@DISORGANIZATION_ERR?$AA@
  001fa	eb 48		 jmp	 SHORT $L178353
$L175976:

; 1705 : 	case GUILD_LEAVE_SELF			: lstrcpy(LogData.szLog,	"LEAVE_SELF");				break;

  001fc	68 00 00 00 00	 push	 OFFSET FLAT:??_C@_0L@INCIIFBF@LEAVE_SELF?$AA@
  00201	8d 84 24 08 02
	00 00		 lea	 eax, DWORD PTR _LogData$[esp+1544]
  00208	50		 push	 eax
  00209	eb 41		 jmp	 SHORT $L178352
$L175977:

; 1706 : 	case GUILD_LEAVE_KICK			: lstrcpy(LogData.szLog,	"LEAVE_KICK");				break;

  0020b	68 00 00 00 00	 push	 OFFSET FLAT:??_C@_0L@CJJMNPJO@LEAVE_KICK?$AA@
  00210	8d 8c 24 08 02
	00 00		 lea	 ecx, DWORD PTR _LogData$[esp+1544]
  00217	51		 push	 ecx
  00218	eb 32		 jmp	 SHORT $L178352
$L175978:

; 1707 : 	case GUILD_LEAVE_DISORGANIZATION: lstrcpy(LogData.szLog,	"LEAVE_DISORGANIZATION");	break;

  0021a	68 00 00 00 00	 push	 OFFSET FLAT:??_C@_0BG@MENJOLMJ@LEAVE_DISORGANIZATION?$AA@
  0021f	eb 23		 jmp	 SHORT $L178353
$L175979:

; 1708 : 	case GUILD_JOIN_SUCCESS			: lstrcpy(LogData.szLog,	"JOIN_SUCCESS");			break;

  00221	68 00 00 00 00	 push	 OFFSET FLAT:??_C@_0N@NKEOKGLA@JOIN_SUCCESS?$AA@
  00226	8d 84 24 08 02
	00 00		 lea	 eax, DWORD PTR _LogData$[esp+1544]
  0022d	50		 push	 eax
  0022e	eb 1c		 jmp	 SHORT $L178352
$L175980:

; 1709 : 	case GUILD_JOIN_DENY			: lstrcpy(LogData.szLog,	"JOIN_DENY");				break;

  00230	68 00 00 00 00	 push	 OFFSET FLAT:??_C@_09FLDMLBKH@JOIN_DENY?$AA@
  00235	8d 8c 24 08 02
	00 00		 lea	 ecx, DWORD PTR _LogData$[esp+1544]
  0023c	51		 push	 ecx
  0023d	eb 0d		 jmp	 SHORT $L178352
$L175981:

; 1710 : 	case GUILD_NODUTY				: lstrcpy(LogData.szLog,	"NODUTY");					break;

  0023f	68 00 00 00 00	 push	 OFFSET FLAT:??_C@_06NJMFPHHE@NODUTY?$AA@
$L178353:
  00244	8d 94 24 08 02
	00 00		 lea	 edx, DWORD PTR _LogData$[esp+1544]
  0024b	52		 push	 edx
$L178352:
  0024c	ff d7		 call	 edi
$L175982:

; 1711 : 	default : break;
; 1712 : 	}
; 1713 : 
; 1714 : 	LogData.dwFormat = LF_TEXT;
; 1715 : 
; 1716 : 	SendDMLog( LogData );

  0024e	81 ec f8 03 00
	00		 sub	 esp, 1016		; 000003f8H
  00254	8b fc		 mov	 edi, esp
  00256	89 9c 24 f8 05
	00 00		 mov	 DWORD PTR _LogData$[esp+2552], ebx
  0025d	b9 fe 00 00 00	 mov	 ecx, 254		; 000000feH
  00262	8d b4 24 08 04
	00 00		 lea	 esi, DWORD PTR _LogData$[esp+2056]
  00269	f3 a5		 rep movsd
  0026b	8b 8c 24 04 04
	00 00		 mov	 ecx, DWORD PTR _this$[esp+2056]
  00272	e8 00 00 00 00	 call	 ?SendDMLog@CUdpSocket@@QAEXU_LOG_DATA_@@@Z ; CUdpSocket::SendDMLog
$L175956:

; 1717 : }

  00277	8b 8c 24 0c 04
	00 00		 mov	 ecx, DWORD PTR __$ArrayPad$[esp+1040]
  0027e	e8 00 00 00 00	 call	 @__security_check_cookie@4
  00283	5f		 pop	 edi
  00284	5e		 pop	 esi
  00285	5b		 pop	 ebx
  00286	8b e5		 mov	 esp, ebp
  00288	5d		 pop	 ebp
  00289	c2 20 00	 ret	 32			; 00000020H
$L178354:
  0028c	00 00 00 00	 DD	 $L175967
  00290	00 00 00 00	 DD	 $L175980
  00294	00 00 00 00	 DD	 $L175982
  00298	00 00 00 00	 DD	 $L175982
  0029c	00 00 00 00	 DD	 $L175968
  002a0	00 00 00 00	 DD	 $L175969
  002a4	00 00 00 00	 DD	 $L175970
  002a8	00 00 00 00	 DD	 $L175971
  002ac	00 00 00 00	 DD	 $L175972
  002b0	00 00 00 00	 DD	 $L175973
  002b4	00 00 00 00	 DD	 $L175974
  002b8	00 00 00 00	 DD	 $L175975
  002bc	00 00 00 00	 DD	 $L175976
  002c0	00 00 00 00	 DD	 $L175977
  002c4	00 00 00 00	 DD	 $L175978
  002c8	00 00 00 00	 DD	 $L175979
  002cc	00 00 00 00	 DD	 $L175981
?LogGuildExpMoeny@CUdpSocket@@QAEXKPAVCTPlayer@@HHHHHE@Z ENDP ; CUdpSocket::LogGuildExpMoeny
_TEXT	ENDS
PUBLIC	?LogCashCabinetBuy@CUdpSocket@@QAEXKPAVCTPlayer@@H_JHHH@Z ; CUdpSocket::LogCashCabinetBuy
PUBLIC	??_C@_0BB@KOJLFALB@Cash?$DN?$CFu?5Bonus?$DN?$CFu?$AA@ ; `string'
PUBLIC	??_C@_0P@MCDGMPHH@?$CF04d?9?$CF02d?9?$CF02d?$AA@ ; `string'
;	COMDAT ??_C@_0P@MCDGMPHH@?$CF04d?9?$CF02d?9?$CF02d?$AA@
; File c:\program files (x86)\microsoft visual studio .net 2003\vc7\atlmfc\include\atlsimpstr.h
CONST	SEGMENT
??_C@_0P@MCDGMPHH@?$CF04d?9?$CF02d?9?$CF02d?$AA@ DB '%04d-%02d-%02d', 00H ; `string'
CONST	ENDS
;	COMDAT ??_C@_0BB@KOJLFALB@Cash?$DN?$CFu?5Bonus?$DN?$CFu?$AA@
CONST	SEGMENT
??_C@_0BB@KOJLFALB@Cash?$DN?$CFu?5Bonus?$DN?$CFu?$AA@ DB 'Cash=%u Bonus=%'
	DB	'u', 00H					; `string'
; Function compile flags: /Ogty
; File c:\users\pierr\desktop\4story - oldschool\sources\tserver\tmapsvr\udpsocket.cpp
CONST	ENDS
;	COMDAT ?LogCashCabinetBuy@CUdpSocket@@QAEXKPAVCTPlayer@@H_JHHH@Z
_TEXT	SEGMENT
_this$ = -1044						; size = 4
_TempDate$ = -1040					; size = 16
_LogData$ = -1024					; size = 1016
__$ArrayPad$ = -4					; size = 4
__$ReturnAddr$ = 4					; size = 4
_pAction$ = 8						; size = 4
_pPlayer$ = 12						; size = 4
_pCashID$ = 16						; size = 4
_pDate$ = 20						; size = 8
_pCash$ = 28						; size = 4
_pBonus$ = 32						; size = 4
_pResult$ = 36						; size = 4
?LogCashCabinetBuy@CUdpSocket@@QAEXKPAVCTPlayer@@H_JHHH@Z PROC NEAR ; CUdpSocket::LogCashCabinetBuy, COMDAT
; _this$ = ecx

; 1943 : {

  00000	55		 push	 ebp
  00001	8b ec		 mov	 ebp, esp
  00003	83 e4 f8	 and	 esp, -8			; fffffff8H
  00006	81 ec 18 04 00
	00		 sub	 esp, 1048		; 00000418H
  0000c	a1 00 00 00 00	 mov	 eax, DWORD PTR ___security_cookie
  00011	56		 push	 esi

; 1944 : 	if(!pPlayer) return;

  00012	8b 75 0c	 mov	 esi, DWORD PTR _pPlayer$[ebp]
  00015	85 f6		 test	 esi, esi
  00017	89 84 24 18 04
	00 00		 mov	 DWORD PTR __$ArrayPad$[esp+1052], eax
  0001e	57		 push	 edi
  0001f	89 4c 24 0c	 mov	 DWORD PTR _this$[esp+1056], ecx
  00023	0f 84 9e 01 00
	00		 je	 $L176073

; 1945 : 
; 1946 : 	_LOG_DATA_ LogData;
; 1947 : 	memset( &LogData, 0x00, sizeof(_LOG_DATA_));
; 1948 : 
; 1949 : 	LogData.dwAction	=	pAction;
; 1950 : 	LogData.dwServerID	=	_AtlModule.GetServerID();
; 1951 : 
; 1952 : 	lstrcpy( LogData.szClientIP, inet_ntoa(pPlayer->m_addr.sin_addr) );

  00029	8b 56 40	 mov	 edx, DWORD PTR [esi+64]
  0002c	33 c0		 xor	 eax, eax
  0002e	b9 fe 00 00 00	 mov	 ecx, 254		; 000000feH
  00033	8d 7c 24 20	 lea	 edi, DWORD PTR _LogData$[esp+1056]
  00037	f3 ab		 rep stosd
  00039	0f b6 0d 82 9e
	00 00		 movzx	 ecx, BYTE PTR ?_AtlModule@@3VCTMapSvrModule@@A+40578
  00040	8b 45 08	 mov	 eax, DWORD PTR _pAction$[ebp]
  00043	52		 push	 edx
  00044	89 44 24 48	 mov	 DWORD PTR _LogData$[esp+1096], eax
  00048	89 4c 24 34	 mov	 DWORD PTR _LogData$[esp+1076], ecx
  0004c	ff 15 00 00 00
	00		 call	 DWORD PTR __imp__inet_ntoa@4
  00052	8b 3d 00 00 00
	00		 mov	 edi, DWORD PTR __imp__lstrcpyA@8
  00058	50		 push	 eax
  00059	8d 44 24 38	 lea	 eax, DWORD PTR _LogData$[esp+1080]
  0005d	50		 push	 eax
  0005e	ff d7		 call	 edi

; 1953 : 		
; 1954 : 	LogData.wMapID			=	pPlayer->m_wMapID;				//	Map ID

  00060	66 8b 8e 90 01
	01 00		 mov	 cx, WORD PTR [esi+65936]

; 1955 : 	LogData.nX				=	(int)pPlayer->m_fPosX;			//	X

  00067	d9 86 7c 01 01
	00		 fld	 DWORD PTR [esi+65916]
  0006d	66 89 4c 24 48	 mov	 WORD PTR _LogData$[esp+1096], cx
  00072	e8 00 00 00 00	 call	 __ftol2

; 1956 : 	LogData.nY				=	(int)pPlayer->m_fPosY;			//	Y

  00077	d9 86 80 01 01
	00		 fld	 DWORD PTR [esi+65920]
  0007d	89 44 24 4c	 mov	 DWORD PTR _LogData$[esp+1100], eax
  00081	e8 00 00 00 00	 call	 __ftol2

; 1957 : 	LogData.nZ				=	(int)pPlayer->m_fPosZ;			//	Z

  00086	d9 86 84 01 01
	00		 fld	 DWORD PTR [esi+65924]
  0008c	89 44 24 50	 mov	 DWORD PTR _LogData$[esp+1104], eax
  00090	e8 00 00 00 00	 call	 __ftol2

; 1958 : 	
; 1959 : 	LogData.dwKey[0]		=	pPlayer->m_dwUserID;			//	User ID

  00095	8b 96 ac 03 01
	00		 mov	 edx, DWORD PTR [esi+66476]

; 1960 : 	LogData.dwKey[1]		=	pPlayer->m_dwID;				//	Character Seq
; 1961 : 	lstrcpy(LogData.szKey[1],	pPlayer->m_strNAME	);			//	Character Name

  0009b	8b 8e a4 03 01
	00		 mov	 ecx, DWORD PTR [esi+66468]
  000a1	89 54 24 58	 mov	 DWORD PTR _LogData$[esp+1112], edx
  000a5	89 44 24 54	 mov	 DWORD PTR _LogData$[esp+1108], eax
  000a9	8b 86 44 01 01
	00		 mov	 eax, DWORD PTR [esi+65860]
  000af	51		 push	 ecx
  000b0	8d 94 24 e6 00
	00 00		 lea	 edx, DWORD PTR _LogData$[esp+1254]
  000b7	52		 push	 edx
  000b8	c7 44 24 64 00
	00 00 00	 mov	 DWORD PTR _LogData$[esp+1124], 0
  000c0	89 44 24 68	 mov	 DWORD PTR _LogData$[esp+1128], eax
  000c4	c7 44 24 6c 00
	00 00 00	 mov	 DWORD PTR _LogData$[esp+1132], 0
  000cc	ff d7		 call	 edi

; 1962 : 	LogData.dwKey[9]		=	pPlayer->m_bCountry + (pPlayer->m_bAidCountry == TCONTRY_N ? 0 : (pPlayer->m_bAidCountry+1)*10);			//	Country

  000ce	8a 86 9e 01 01
	00		 mov	 al, BYTE PTR [esi+65950]
  000d4	3c 03		 cmp	 al, 3
  000d6	75 04		 jne	 SHORT $L178358
  000d8	33 c9		 xor	 ecx, ecx
  000da	eb 09		 jmp	 SHORT $L178359
$L178358:
  000dc	0f b6 c0	 movzx	 eax, al
  000df	40		 inc	 eax
  000e0	8d 0c 80	 lea	 ecx, DWORD PTR [eax+eax*4]
  000e3	d1 e1		 shl	 ecx, 1
$L178359:
  000e5	0f b6 86 9d 01
	01 00		 movzx	 eax, BYTE PTR [esi+65949]
  000ec	03 c1		 add	 eax, ecx

; 1963 : 	LogData.dwKey[10]		=	pPlayer->m_bLevel;				//	Level
; 1964 : 
; 1965 : 
; 1966 : 	TIMESTAMP_STRUCT	TempDate;
; 1967 : 	__TIMETODB(pDate, TempDate);

  000ee	8b 4d 18	 mov	 ecx, DWORD PTR _pDate$[ebp+4]
  000f1	99		 cdq
  000f2	89 84 24 a0 00
	00 00		 mov	 DWORD PTR _LogData$[esp+1184], eax
  000f9	0f b6 86 7b 01
	01 00		 movzx	 eax, BYTE PTR [esi+65915]
  00100	89 94 24 a4 00
	00 00		 mov	 DWORD PTR _LogData$[esp+1188], edx
  00107	99		 cdq
  00108	89 84 24 a8 00
	00 00		 mov	 DWORD PTR _LogData$[esp+1192], eax
  0010f	8d 44 24 10	 lea	 eax, DWORD PTR _TempDate$[esp+1056]
  00113	50		 push	 eax
  00114	89 94 24 b0 00
	00 00		 mov	 DWORD PTR _LogData$[esp+1200], edx
  0011b	8b 55 14	 mov	 edx, DWORD PTR _pDate$[ebp]
  0011e	51		 push	 ecx
  0011f	52		 push	 edx
  00120	e8 00 00 00 00	 call	 ?__TIMETODB@@YAX_JAAUtagTIMESTAMP_STRUCT@@@Z ; __TIMETODB

; 1968 : 	wsprintf( LogData.szKey[4], "%04d-%02d-%02d", TempDate.year, TempDate.month, TempDate.day);	//	Date

  00125	0f b7 44 24 20	 movzx	 eax, WORD PTR _TempDate$[esp+1072]
  0012a	0f b7 4c 24 1e	 movzx	 ecx, WORD PTR _TempDate$[esp+1070]
  0012f	0f bf 54 24 1c	 movsx	 edx, WORD PTR _TempDate$[esp+1068]
  00134	8b 35 00 00 00
	00		 mov	 esi, DWORD PTR __imp__wsprintfA
  0013a	50		 push	 eax
  0013b	51		 push	 ecx
  0013c	52		 push	 edx
  0013d	8d 84 24 90 01
	00 00		 lea	 eax, DWORD PTR _LogData$[esp+1424]
  00144	68 00 00 00 00	 push	 OFFSET FLAT:??_C@_0P@MCDGMPHH@?$CF04d?9?$CF02d?9?$CF02d?$AA@
  00149	50		 push	 eax
  0014a	ff d6		 call	 esi

; 1969 : 	
; 1970 : 	LogData.dwKey[5]		=	pCash + pBonus;					//	Cash

  0014c	8b 7d 20	 mov	 edi, DWORD PTR _pBonus$[ebp]
  0014f	8b 4d 1c	 mov	 ecx, DWORD PTR _pCash$[ebp]

; 1971 : 	wsprintf( LogData.szKey[5],"Cash=%u Bonus=%u",pCash,pBonus);//	Cash

  00152	57		 push	 edi
  00153	51		 push	 ecx
  00154	8d 04 39	 lea	 eax, DWORD PTR [ecx+edi]
  00157	99		 cdq
  00158	8d 8c 24 d2 01
	00 00		 lea	 ecx, DWORD PTR _LogData$[esp+1490]
  0015f	68 00 00 00 00	 push	 OFFSET FLAT:??_C@_0BB@KOJLFALB@Cash?$DN?$CFu?5Bonus?$DN?$CFu?$AA@
  00164	51		 push	 ecx
  00165	89 84 24 b0 00
	00 00		 mov	 DWORD PTR _LogData$[esp+1200], eax
  0016c	89 94 24 b4 00
	00 00		 mov	 DWORD PTR _LogData$[esp+1204], edx
  00173	ff d6		 call	 esi

; 1972 : 	LogData.dwKey[6]		=	pCashID;						//	Cash ID

  00175	8b 45 10	 mov	 eax, DWORD PTR _pCashID$[ebp]
  00178	99		 cdq
  00179	89 94 24 bc 00
	00 00		 mov	 DWORD PTR _LogData$[esp+1212], edx

; 1973 :     
; 1974 : 	LogData.dwFormat = LF_TEXT;
; 1975 : 
; 1976 : 	wsprintf( LogData.szLog,"%d", pResult );

  00180	8b 55 24	 mov	 edx, DWORD PTR _pResult$[ebp]
  00183	52		 push	 edx
  00184	89 84 24 bc 00
	00 00		 mov	 DWORD PTR _LogData$[esp+1212], eax
  0018b	8d 84 24 48 02
	00 00		 lea	 eax, DWORD PTR _LogData$[esp+1608]
  00192	68 00 00 00 00	 push	 OFFSET FLAT:??_C@_02DPKJAMEF@?$CFd?$AA@
  00197	50		 push	 eax
  00198	c7 84 24 4c 02
	00 00 00 00 00
	00		 mov	 DWORD PTR _LogData$[esp+1612], 0
  001a3	ff d6		 call	 esi

; 1977 : 
; 1978 : 	SendDMLog( LogData );

  001a5	81 ec bc 03 00
	00		 sub	 esp, 956		; 000003bcH
  001ab	8b fc		 mov	 edi, esp
  001ad	b9 fe 00 00 00	 mov	 ecx, 254		; 000000feH
  001b2	8d b4 24 18 04
	00 00		 lea	 esi, DWORD PTR _LogData$[esp+2072]
  001b9	f3 a5		 rep movsd
  001bb	8b 8c 24 04 04
	00 00		 mov	 ecx, DWORD PTR _this$[esp+2072]
  001c2	e8 00 00 00 00	 call	 ?SendDMLog@CUdpSocket@@QAEXU_LOG_DATA_@@@Z ; CUdpSocket::SendDMLog
$L176073:

; 1979 : }

  001c7	8b 8c 24 1c 04
	00 00		 mov	 ecx, DWORD PTR __$ArrayPad$[esp+1056]
  001ce	e8 00 00 00 00	 call	 @__security_check_cookie@4
  001d3	5f		 pop	 edi
  001d4	5e		 pop	 esi
  001d5	8b e5		 mov	 esp, ebp
  001d7	5d		 pop	 ebp
  001d8	c2 20 00	 ret	 32			; 00000020H
?LogCashCabinetBuy@CUdpSocket@@QAEXKPAVCTPlayer@@H_JHHH@Z ENDP ; CUdpSocket::LogCashCabinetBuy
_TEXT	ENDS
PUBLIC	?LogTeleport@CUdpSocket@@QAEXKPAVCTPlayer@@PAVCTNpc@@HH@Z ; CUdpSocket::LogTeleport
; Function compile flags: /Ogty
;	COMDAT ?LogTeleport@CUdpSocket@@QAEXKPAVCTPlayer@@PAVCTNpc@@HH@Z
_TEXT	SEGMENT
_this$ = -1028						; size = 4
_LogData$ = -1024					; size = 1016
__$ArrayPad$ = -4					; size = 4
__$ReturnAddr$ = 4					; size = 4
_pAction$ = 8						; size = 4
_pPlayer$ = 12						; size = 4
_pNpc$ = 16						; size = 4
_pPrice$ = 20						; size = 4
_pPortalID$ = 24					; size = 4
?LogTeleport@CUdpSocket@@QAEXKPAVCTPlayer@@PAVCTNpc@@HH@Z PROC NEAR ; CUdpSocket::LogTeleport, COMDAT
; _this$ = ecx

; 1986 : {

  00000	55		 push	 ebp
  00001	8b ec		 mov	 ebp, esp
  00003	83 e4 f8	 and	 esp, -8			; fffffff8H
  00006	81 ec 08 04 00
	00		 sub	 esp, 1032		; 00000408H
  0000c	a1 00 00 00 00	 mov	 eax, DWORD PTR ___security_cookie
  00011	56		 push	 esi

; 1987 : 	if(!pPlayer ) return;

  00012	8b 75 0c	 mov	 esi, DWORD PTR _pPlayer$[ebp]
  00015	85 f6		 test	 esi, esi
  00017	89 84 24 08 04
	00 00		 mov	 DWORD PTR __$ArrayPad$[esp+1036], eax
  0001e	57		 push	 edi
  0001f	89 4c 24 0c	 mov	 DWORD PTR _this$[esp+1040], ecx
  00023	0f 84 6a 01 00
	00		 je	 $L176089

; 1988 : 
; 1989 : 	_LOG_DATA_ LogData;
; 1990 : 	memset( &LogData, 0x00, sizeof(_LOG_DATA_));
; 1991 : 
; 1992 : 	LogData.dwAction		=	pAction;
; 1993 : 	LogData.dwServerID		=	_AtlModule.GetServerID();
; 1994 : 
; 1995 : 	lstrcpy( LogData.szClientIP, inet_ntoa(pPlayer->m_addr.sin_addr) );	

  00029	8b 56 40	 mov	 edx, DWORD PTR [esi+64]
  0002c	33 c0		 xor	 eax, eax
  0002e	b9 fe 00 00 00	 mov	 ecx, 254		; 000000feH
  00033	8d 7c 24 10	 lea	 edi, DWORD PTR _LogData$[esp+1040]
  00037	f3 ab		 rep stosd
  00039	0f b6 0d 82 9e
	00 00		 movzx	 ecx, BYTE PTR ?_AtlModule@@3VCTMapSvrModule@@A+40578
  00040	8b 45 08	 mov	 eax, DWORD PTR _pAction$[ebp]
  00043	52		 push	 edx
  00044	89 44 24 38	 mov	 DWORD PTR _LogData$[esp+1080], eax
  00048	89 4c 24 24	 mov	 DWORD PTR _LogData$[esp+1060], ecx
  0004c	ff 15 00 00 00
	00		 call	 DWORD PTR __imp__inet_ntoa@4
  00052	8b 3d 00 00 00
	00		 mov	 edi, DWORD PTR __imp__lstrcpyA@8
  00058	50		 push	 eax
  00059	8d 44 24 28	 lea	 eax, DWORD PTR _LogData$[esp+1064]
  0005d	50		 push	 eax
  0005e	ff d7		 call	 edi

; 1996 : 
; 1997 : 	LogData.wMapID			=	pPlayer->m_wMapID;				//	Map ID

  00060	66 8b 8e 90 01
	01 00		 mov	 cx, WORD PTR [esi+65936]

; 1998 : 	LogData.nX				=	(int)pPlayer->m_fPosX;			//	X

  00067	d9 86 7c 01 01
	00		 fld	 DWORD PTR [esi+65916]
  0006d	66 89 4c 24 38	 mov	 WORD PTR _LogData$[esp+1080], cx
  00072	e8 00 00 00 00	 call	 __ftol2

; 1999 : 	LogData.nY				=	(int)pPlayer->m_fPosY;			//	Y

  00077	d9 86 80 01 01
	00		 fld	 DWORD PTR [esi+65920]
  0007d	89 44 24 3c	 mov	 DWORD PTR _LogData$[esp+1084], eax
  00081	e8 00 00 00 00	 call	 __ftol2

; 2000 : 	LogData.nZ				=	(int)pPlayer->m_fPosZ;			//	Z

  00086	d9 86 84 01 01
	00		 fld	 DWORD PTR [esi+65924]
  0008c	89 44 24 40	 mov	 DWORD PTR _LogData$[esp+1088], eax
  00090	e8 00 00 00 00	 call	 __ftol2

; 2001 : 
; 2002 : 	LogData.dwKey[0]		=	pPlayer->m_dwUserID;			//	User ID

  00095	8b 96 ac 03 01
	00		 mov	 edx, DWORD PTR [esi+66476]

; 2003 : 	LogData.dwKey[1]		=	pPlayer->m_dwID;				//	Character Seq
; 2004 : 	lstrcpy(LogData.szKey[1],	pPlayer->m_strNAME);			//	Character Name

  0009b	8b 8e a4 03 01
	00		 mov	 ecx, DWORD PTR [esi+66468]
  000a1	89 54 24 48	 mov	 DWORD PTR _LogData$[esp+1096], edx
  000a5	89 44 24 44	 mov	 DWORD PTR _LogData$[esp+1092], eax
  000a9	8b 86 44 01 01
	00		 mov	 eax, DWORD PTR [esi+65860]
  000af	51		 push	 ecx
  000b0	8d 94 24 d6 00
	00 00		 lea	 edx, DWORD PTR _LogData$[esp+1238]
  000b7	52		 push	 edx
  000b8	c7 44 24 54 00
	00 00 00	 mov	 DWORD PTR _LogData$[esp+1108], 0
  000c0	89 44 24 58	 mov	 DWORD PTR _LogData$[esp+1112], eax
  000c4	c7 44 24 5c 00
	00 00 00	 mov	 DWORD PTR _LogData$[esp+1116], 0
  000cc	ff d7		 call	 edi

; 2005 : 
; 2006 : 	LogData.dwKey[9]		=	pPlayer->m_bCountry + (pPlayer->m_bAidCountry == TCONTRY_N ? 0 : (pPlayer->m_bAidCountry+1)*10);			//	Country

  000ce	8a 86 9e 01 01
	00		 mov	 al, BYTE PTR [esi+65950]
  000d4	3c 03		 cmp	 al, 3
  000d6	75 04		 jne	 SHORT $L178372
  000d8	33 c9		 xor	 ecx, ecx
  000da	eb 09		 jmp	 SHORT $L178373
$L178372:
  000dc	0f b6 c0	 movzx	 eax, al
  000df	40		 inc	 eax
  000e0	8d 0c 80	 lea	 ecx, DWORD PTR [eax+eax*4]
  000e3	d1 e1		 shl	 ecx, 1
$L178373:
  000e5	0f b6 86 9d 01
	01 00		 movzx	 eax, BYTE PTR [esi+65949]
  000ec	03 c1		 add	 eax, ecx
  000ee	99		 cdq
  000ef	89 84 24 90 00
	00 00		 mov	 DWORD PTR _LogData$[esp+1168], eax

; 2007 : 	LogData.dwKey[10]		=	pPlayer->m_bLevel;				//	Level

  000f6	0f b6 86 7b 01
	01 00		 movzx	 eax, BYTE PTR [esi+65915]
  000fd	89 94 24 94 00
	00 00		 mov	 DWORD PTR _LogData$[esp+1172], edx
  00104	99		 cdq
  00105	89 84 24 98 00
	00 00		 mov	 DWORD PTR _LogData$[esp+1176], eax

; 2008 : 
; 2009 : 
; 2010 : 	if(pNpc)

  0010c	8b 45 10	 mov	 eax, DWORD PTR _pNpc$[ebp]
  0010f	85 c0		 test	 eax, eax
  00111	89 94 24 9c 00
	00 00		 mov	 DWORD PTR _LogData$[esp+1180], edx
  00118	74 0c		 je	 SHORT $L176096

; 2011 : 	{
; 2012 : 		LogData.dwKey[2]	=	pNpc->m_wID;					//	Npc ID

  0011a	0f b7 00	 movzx	 eax, WORD PTR [eax]
  0011d	99		 cdq
  0011e	89 44 24 58	 mov	 DWORD PTR _LogData$[esp+1112], eax
  00122	89 54 24 5c	 mov	 DWORD PTR _LogData$[esp+1116], edx
$L176096:

; 2013 : 	}
; 2014 : 
; 2015 : 	LogData.dwKey[4]		=	pPortalID;						//	Portal ID

  00126	8b 45 18	 mov	 eax, DWORD PTR _pPortalID$[ebp]

; 2016 : 
; 2017 : 	LogData.dwKey[5]		=	pPrice;							//	Get Money   
; 2018 : 
; 2019 : 	wsprintf( LogData.szKey[5], "Now Money : %u/%u/%u",			//	Price
; 2020 : 											pPlayer->m_dwGold,		
; 2021 : 											pPlayer->m_dwSilver, 
; 2022 : 											pPlayer->m_dwCooper );

  00129	8b 8e cc 03 01
	00		 mov	 ecx, DWORD PTR [esi+66508]
  0012f	99		 cdq
  00130	89 44 24 68	 mov	 DWORD PTR _LogData$[esp+1128], eax
  00134	8b 45 14	 mov	 eax, DWORD PTR _pPrice$[ebp]
  00137	89 54 24 6c	 mov	 DWORD PTR _LogData$[esp+1132], edx
  0013b	99		 cdq
  0013c	89 44 24 70	 mov	 DWORD PTR _LogData$[esp+1136], eax
  00140	8b 86 c8 03 01
	00		 mov	 eax, DWORD PTR [esi+66504]
  00146	50		 push	 eax
  00147	51		 push	 ecx
  00148	89 54 24 7c	 mov	 DWORD PTR _LogData$[esp+1148], edx
  0014c	8b 96 d0 03 01
	00		 mov	 edx, DWORD PTR [esi+66512]
  00152	52		 push	 edx
  00153	8d 84 24 a6 01
	00 00		 lea	 eax, DWORD PTR _LogData$[esp+1446]
  0015a	68 00 00 00 00	 push	 OFFSET FLAT:??_C@_0BF@LNLPBIJG@Now?5Money?5?3?5?$CFu?1?$CFu?1?$CFu?$AA@
  0015f	50		 push	 eax
  00160	ff 15 00 00 00
	00		 call	 DWORD PTR __imp__wsprintfA

; 2023 : 
; 2024 : 	LogData.dwFormat = LF_TEXT;
; 2025 : 
; 2026 : 	SendDMLog( LogData );

  00166	81 ec e4 03 00
	00		 sub	 esp, 996		; 000003e4H
  0016c	8b fc		 mov	 edi, esp
  0016e	c7 84 24 f8 05
	00 00 00 00 00
	00		 mov	 DWORD PTR _LogData$[esp+2552], 0
  00179	b9 fe 00 00 00	 mov	 ecx, 254		; 000000feH
  0017e	8d b4 24 08 04
	00 00		 lea	 esi, DWORD PTR _LogData$[esp+2056]
  00185	f3 a5		 rep movsd
  00187	8b 8c 24 04 04
	00 00		 mov	 ecx, DWORD PTR _this$[esp+2056]
  0018e	e8 00 00 00 00	 call	 ?SendDMLog@CUdpSocket@@QAEXU_LOG_DATA_@@@Z ; CUdpSocket::SendDMLog
$L176089:

; 2027 : }

  00193	8b 8c 24 0c 04
	00 00		 mov	 ecx, DWORD PTR __$ArrayPad$[esp+1040]
  0019a	e8 00 00 00 00	 call	 @__security_check_cookie@4
  0019f	5f		 pop	 edi
  001a0	5e		 pop	 esi
  001a1	8b e5		 mov	 esp, ebp
  001a3	5d		 pop	 ebp
  001a4	c2 14 00	 ret	 20			; 00000014H
?LogTeleport@CUdpSocket@@QAEXKPAVCTPlayer@@PAVCTNpc@@HH@Z ENDP ; CUdpSocket::LogTeleport
_TEXT	ENDS
PUBLIC	?LogPvPointGuild@CUdpSocket@@QAEXKKGEKEE@Z	; CUdpSocket::LogPvPointGuild
; Function compile flags: /Ogty
;	COMDAT ?LogPvPointGuild@CUdpSocket@@QAEXKKGEKEE@Z
_TEXT	SEGMENT
_tNowTime$178401 = -2048				; size = 8
$T178407 = -2040					; size = 1016
_LogData$ = -1024					; size = 1016
__$ArrayPad$ = -4					; size = 4
__$ReturnAddr$ = 4					; size = 4
_pAction$ = 8						; size = 4
_dwPoint$ = 12						; size = 4
_wLocalID$ = 16						; size = 2
_bCountry$ = 20						; size = 1
_dwGuildID$ = 24					; size = 4
_bEventType$ = 28					; size = 1
_bPointType$ = 32					; size = 1
?LogPvPointGuild@CUdpSocket@@QAEXKKGEKEE@Z PROC NEAR	; CUdpSocket::LogPvPointGuild, COMDAT
; _this$ = ecx

; 2072 : {

  00000	55		 push	 ebp
  00001	8b ec		 mov	 ebp, esp
  00003	83 e4 f8	 and	 esp, -8			; fffffff8H
  00006	81 ec 04 08 00
	00		 sub	 esp, 2052		; 00000804H
  0000c	a1 00 00 00 00	 mov	 eax, DWORD PTR ___security_cookie
  00011	53		 push	 ebx
  00012	89 84 24 04 08
	00 00		 mov	 DWORD PTR __$ArrayPad$[esp+2056], eax

; 2073 : 	_LOG_DATA_ LogData;
; 2074 : 	memset( &LogData, 0x00, sizeof(_LOG_DATA_));

  00019	33 c0		 xor	 eax, eax
  0001b	56		 push	 esi
  0001c	57		 push	 edi
  0001d	b9 fe 00 00 00	 mov	 ecx, 254		; 000000feH
  00022	8d bc 24 10 04
	00 00		 lea	 edi, DWORD PTR _LogData$[esp+2064]
  00029	f3 ab		 rep stosd

; 2075 : 
; 2076 : 	LogData.dwAction		=	pAction;

  0002b	8b 45 08	 mov	 eax, DWORD PTR _pAction$[ebp]

; 2077 : 	LogData.dwServerID		=	_AtlModule.GetServerID();

  0002e	0f b6 0d 82 9e
	00 00		 movzx	 ecx, BYTE PTR ?_AtlModule@@3VCTMapSvrModule@@A+40578
  00035	89 84 24 34 04
	00 00		 mov	 DWORD PTR _LogData$[esp+2100], eax

; 2078 : 
; 2079 : 	LogData.dwKey[2]		= TOWNER_GUILD;
; 2080 : 	LogData.dwKey[3]		= bEventType;	

  0003c	0f b6 45 1c	 movzx	 eax, BYTE PTR _bEventType$[ebp]
  00040	99		 cdq
  00041	89 84 24 60 04
	00 00		 mov	 DWORD PTR _LogData$[esp+2144], eax

; 2081 : 
; 2082 : 	if(bPointType & PVP_TOTAL)

  00048	8a 45 20	 mov	 al, BYTE PTR _bPointType$[ebp]
  0004b	33 db		 xor	 ebx, ebx
  0004d	a8 01		 test	 al, 1
  0004f	89 8c 24 20 04
	00 00		 mov	 DWORD PTR _LogData$[esp+2080], ecx
  00056	8b 4d 0c	 mov	 ecx, DWORD PTR _dwPoint$[ebp]
  00059	c7 84 24 58 04
	00 00 01 00 00
	00		 mov	 DWORD PTR _LogData$[esp+2136], 1
  00064	89 9c 24 5c 04
	00 00		 mov	 DWORD PTR _LogData$[esp+2140], ebx
  0006b	89 94 24 64 04
	00 00		 mov	 DWORD PTR _LogData$[esp+2148], edx
  00072	74 0e		 je	 SHORT $L176126

; 2083 :         LogData.dwKey[4]		=	dwPoint;

  00074	89 8c 24 68 04
	00 00		 mov	 DWORD PTR _LogData$[esp+2152], ecx
  0007b	89 9c 24 6c 04
	00 00		 mov	 DWORD PTR _LogData$[esp+2156], ebx
$L176126:

; 2084 : 	if(bPointType & PVP_USEABLE)

  00082	a8 02		 test	 al, 2
  00084	74 0e		 je	 SHORT $L176127

; 2085 : 		LogData.dwKey[5]		=	dwPoint;

  00086	89 8c 24 70 04
	00 00		 mov	 DWORD PTR _LogData$[esp+2160], ecx
  0008d	89 9c 24 74 04
	00 00		 mov	 DWORD PTR _LogData$[esp+2164], ebx
$L176127:

; 2086 : 
; 2087 : 	LogData.dwKey[8]		= dwGuildID;

  00094	8b 55 18	 mov	 edx, DWORD PTR _dwGuildID$[ebp]

; 2088 : 	LogData.dwKey[9]		= bCountry;

  00097	0f b6 45 14	 movzx	 eax, BYTE PTR _bCountry$[ebp]
  0009b	89 94 24 88 04
	00 00		 mov	 DWORD PTR _LogData$[esp+2184], edx
  000a2	99		 cdq
  000a3	89 84 24 90 04
	00 00		 mov	 DWORD PTR _LogData$[esp+2192], eax

; 2089 : 	LogData.dwKey[10]		= wLocalID;

  000aa	0f b7 45 10	 movzx	 eax, WORD PTR _wLocalID$[ebp]
  000ae	89 94 24 94 04
	00 00		 mov	 DWORD PTR _LogData$[esp+2196], edx
  000b5	99		 cdq
  000b6	89 84 24 98 04
	00 00		 mov	 DWORD PTR _LogData$[esp+2200], eax
  000bd	89 94 24 9c 04
	00 00		 mov	 DWORD PTR _LogData$[esp+2204], edx

; 2090 : 
; 2091 : 
; 2092 : 	SendDMLog( LogData );

  000c4	b9 fe 00 00 00	 mov	 ecx, 254		; 000000feH
  000c9	8d b4 24 10 04
	00 00		 lea	 esi, DWORD PTR _LogData$[esp+2064]
  000d0	8d 7c 24 18	 lea	 edi, DWORD PTR $T178407[esp+2064]
  000d4	89 9c 24 8c 04
	00 00		 mov	 DWORD PTR _LogData$[esp+2188], ebx
  000db	53		 push	 ebx
  000dc	f3 a5		 rep movsd
  000de	e8 00 00 00 00	 call	 __time64
  000e3	89 44 24 14	 mov	 DWORD PTR _tNowTime$178401[esp+2068], eax
  000e7	83 c4 04	 add	 esp, 4
  000ea	8d 44 24 18	 lea	 eax, DWORD PTR $T178407[esp+2064]
  000ee	50		 push	 eax
  000ef	8d 4c 24 14	 lea	 ecx, DWORD PTR _tNowTime$178401[esp+2068]
  000f3	89 54 24 18	 mov	 DWORD PTR _tNowTime$178401[esp+2072], edx
  000f7	e8 00 00 00 00	 call	 ?GetAsDBTIMESTAMP@CTime@ATL@@QBE_NAAUtagDBTIMESTAMP@@@Z ; ATL::CTime::GetAsDBTIMESTAMP
  000fc	81 ec f8 03 00
	00		 sub	 esp, 1016		; 000003f8H
  00102	8b fc		 mov	 edi, esp
  00104	b9 fe 00 00 00	 mov	 ecx, 254		; 000000feH
  00109	8d b4 24 10 04
	00 00		 lea	 esi, DWORD PTR $T178407[esp+3080]
  00110	f3 a5		 rep movsd
  00112	b9 00 00 00 00	 mov	 ecx, OFFSET FLAT:?_AtlModule@@3VCTMapSvrModule@@A
  00117	e8 00 00 00 00	 call	 ?SendDM_UDPLOG_REQ@CTMapSvrModule@@QAEXU_LOG_DATA_@@@Z ; CTMapSvrModule::SendDM_UDPLOG_REQ

; 2093 : }

  0011c	8b 8c 24 0c 08
	00 00		 mov	 ecx, DWORD PTR __$ArrayPad$[esp+2064]
  00123	e8 00 00 00 00	 call	 @__security_check_cookie@4
  00128	5f		 pop	 edi
  00129	5e		 pop	 esi
  0012a	5b		 pop	 ebx
  0012b	8b e5		 mov	 esp, ebp
  0012d	5d		 pop	 ebp
  0012e	c2 1c 00	 ret	 28			; 0000001cH
?LogPvPointGuild@CUdpSocket@@QAEXKKGEKEE@Z ENDP		; CUdpSocket::LogPvPointGuild
_TEXT	ENDS
PUBLIC	?LogRPSGame@CUdpSocket@@QAEXKPAVCTPlayer@@EEK@Z	; CUdpSocket::LogRPSGame
; Function compile flags: /Ogty
;	COMDAT ?LogRPSGame@CUdpSocket@@QAEXKPAVCTPlayer@@EEK@Z
_TEXT	SEGMENT
_this$ = -1028						; size = 4
_LogData$ = -1024					; size = 1016
__$ArrayPad$ = -4					; size = 4
__$ReturnAddr$ = 4					; size = 4
_pAction$ = 8						; size = 4
_pPlayer$ = 12						; size = 4
_bType$ = 16						; size = 1
_bWin$ = 20						; size = 1
_dwMoney$ = 24						; size = 4
?LogRPSGame@CUdpSocket@@QAEXKPAVCTPlayer@@EEK@Z PROC NEAR ; CUdpSocket::LogRPSGame, COMDAT
; _this$ = ecx

; 2429 : {

  00000	55		 push	 ebp
  00001	8b ec		 mov	 ebp, esp
  00003	83 e4 f8	 and	 esp, -8			; fffffff8H
  00006	81 ec 04 04 00
	00		 sub	 esp, 1028		; 00000404H
  0000c	a1 00 00 00 00	 mov	 eax, DWORD PTR ___security_cookie
  00011	53		 push	 ebx
  00012	56		 push	 esi

; 2430 : 	if(!pPlayer) return;

  00013	8b 75 0c	 mov	 esi, DWORD PTR _pPlayer$[ebp]
  00016	33 db		 xor	 ebx, ebx
  00018	3b f3		 cmp	 esi, ebx
  0001a	89 84 24 08 04
	00 00		 mov	 DWORD PTR __$ArrayPad$[esp+1036], eax
  00021	57		 push	 edi
  00022	89 4c 24 0c	 mov	 DWORD PTR _this$[esp+1040], ecx
  00026	0f 84 26 01 00
	00		 je	 $L176278

; 2431 : 
; 2432 : 	_LOG_DATA_ LogData;
; 2433 : 	memset( &LogData, 0x00, sizeof(_LOG_DATA_));
; 2434 : 
; 2435 : 	
; 2436 : 	LogData.dwAction	=	pAction;
; 2437 : 	LogData.dwServerID	=	_AtlModule.GetServerID();
; 2438 : 
; 2439 : 	lstrcpy( LogData.szClientIP, inet_ntoa(pPlayer->m_addr.sin_addr) );	

  0002c	8b 56 40	 mov	 edx, DWORD PTR [esi+64]
  0002f	33 c0		 xor	 eax, eax
  00031	b9 fe 00 00 00	 mov	 ecx, 254		; 000000feH
  00036	8d 7c 24 10	 lea	 edi, DWORD PTR _LogData$[esp+1040]
  0003a	f3 ab		 rep stosd
  0003c	0f b6 0d 82 9e
	00 00		 movzx	 ecx, BYTE PTR ?_AtlModule@@3VCTMapSvrModule@@A+40578
  00043	8b 45 08	 mov	 eax, DWORD PTR _pAction$[ebp]
  00046	52		 push	 edx
  00047	89 44 24 38	 mov	 DWORD PTR _LogData$[esp+1080], eax
  0004b	89 4c 24 24	 mov	 DWORD PTR _LogData$[esp+1060], ecx
  0004f	ff 15 00 00 00
	00		 call	 DWORD PTR __imp__inet_ntoa@4
  00055	8b 3d 00 00 00
	00		 mov	 edi, DWORD PTR __imp__lstrcpyA@8
  0005b	50		 push	 eax
  0005c	8d 44 24 28	 lea	 eax, DWORD PTR _LogData$[esp+1064]
  00060	50		 push	 eax
  00061	ff d7		 call	 edi

; 2440 : 
; 2441 : 	LogData.wMapID			=	pPlayer->m_wMapID;						//	Map ID

  00063	66 8b 8e 90 01
	01 00		 mov	 cx, WORD PTR [esi+65936]

; 2442 : 	LogData.nX				=	(int)pPlayer->m_fPosX;					//	X

  0006a	d9 86 7c 01 01
	00		 fld	 DWORD PTR [esi+65916]
  00070	66 89 4c 24 38	 mov	 WORD PTR _LogData$[esp+1080], cx
  00075	e8 00 00 00 00	 call	 __ftol2

; 2443 : 	LogData.nY				=	(int)pPlayer->m_fPosY;					//	Y

  0007a	d9 86 80 01 01
	00		 fld	 DWORD PTR [esi+65920]
  00080	89 44 24 3c	 mov	 DWORD PTR _LogData$[esp+1084], eax
  00084	e8 00 00 00 00	 call	 __ftol2

; 2444 : 	LogData.nZ				=	(int)pPlayer->m_fPosZ;					//	Z

  00089	d9 86 84 01 01
	00		 fld	 DWORD PTR [esi+65924]
  0008f	89 44 24 40	 mov	 DWORD PTR _LogData$[esp+1088], eax
  00093	e8 00 00 00 00	 call	 __ftol2

; 2445 : 
; 2446 : 	LogData.dwKey[0]		=	pPlayer->m_dwUserID;					// User ID

  00098	8b 96 ac 03 01
	00		 mov	 edx, DWORD PTR [esi+66476]

; 2447 : 	LogData.dwKey[1]		=	pPlayer->m_dwID;						//	Character Seq	
; 2448 : 	LogData.dwKey[2]		=	pPlayer->m_bCountry;					//	Country
; 2449 : 	lstrcpy(LogData.szKey[1],	pPlayer->m_strNAME	);					//	Character Name

  0009e	8b 8e a4 03 01
	00		 mov	 ecx, DWORD PTR [esi+66468]
  000a4	89 44 24 44	 mov	 DWORD PTR _LogData$[esp+1092], eax
  000a8	8b 86 44 01 01
	00		 mov	 eax, DWORD PTR [esi+65860]
  000ae	89 44 24 50	 mov	 DWORD PTR _LogData$[esp+1104], eax
  000b2	0f b6 86 9d 01
	01 00		 movzx	 eax, BYTE PTR [esi+65949]
  000b9	89 54 24 48	 mov	 DWORD PTR _LogData$[esp+1096], edx
  000bd	99		 cdq
  000be	89 54 24 5c	 mov	 DWORD PTR _LogData$[esp+1116], edx
  000c2	51		 push	 ecx
  000c3	8d 94 24 d6 00
	00 00		 lea	 edx, DWORD PTR _LogData$[esp+1238]
  000ca	52		 push	 edx
  000cb	89 5c 24 54	 mov	 DWORD PTR _LogData$[esp+1108], ebx
  000cf	89 5c 24 5c	 mov	 DWORD PTR _LogData$[esp+1116], ebx
  000d3	89 44 24 60	 mov	 DWORD PTR _LogData$[esp+1120], eax
  000d7	ff d7		 call	 edi

; 2450 : 	
; 2451 : 	LogData.dwKey[3]		=	bType;

  000d9	0f b6 45 10	 movzx	 eax, BYTE PTR _bType$[ebp]

; 2452 : 	LogData.dwKey[4]		=	bWin;
; 2453 : 	LogData.dwKey[5]		=	dwMoney;
; 2454 : 
; 2455 : 	wsprintf( LogData.szKey[5], "Now Money : %u/%u/%u",			//	Price
; 2456 : 											pPlayer->m_dwGold,		
; 2457 : 											pPlayer->m_dwSilver, 
; 2458 : 											pPlayer->m_dwCooper );

  000dd	8b 8e c8 03 01
	00		 mov	 ecx, DWORD PTR [esi+66504]
  000e3	99		 cdq
  000e4	89 44 24 60	 mov	 DWORD PTR _LogData$[esp+1120], eax
  000e8	0f b6 45 14	 movzx	 eax, BYTE PTR _bWin$[ebp]
  000ec	89 54 24 64	 mov	 DWORD PTR _LogData$[esp+1124], edx
  000f0	99		 cdq
  000f1	51		 push	 ecx
  000f2	89 44 24 6c	 mov	 DWORD PTR _LogData$[esp+1132], eax
  000f6	8b 45 18	 mov	 eax, DWORD PTR _dwMoney$[ebp]
  000f9	89 54 24 70	 mov	 DWORD PTR _LogData$[esp+1136], edx
  000fd	8b 96 cc 03 01
	00		 mov	 edx, DWORD PTR [esi+66508]
  00103	52		 push	 edx
  00104	89 44 24 78	 mov	 DWORD PTR _LogData$[esp+1144], eax
  00108	8b 86 d0 03 01
	00		 mov	 eax, DWORD PTR [esi+66512]
  0010e	50		 push	 eax
  0010f	8d 8c 24 a6 01
	00 00		 lea	 ecx, DWORD PTR _LogData$[esp+1446]
  00116	68 00 00 00 00	 push	 OFFSET FLAT:??_C@_0BF@LNLPBIJG@Now?5Money?5?3?5?$CFu?1?$CFu?1?$CFu?$AA@
  0011b	51		 push	 ecx
  0011c	89 9c 24 88 00
	00 00		 mov	 DWORD PTR _LogData$[esp+1160], ebx
  00123	ff 15 00 00 00
	00		 call	 DWORD PTR __imp__wsprintfA

; 2459 : 
; 2460 : 	LogData.dwFormat = LF_TEXT;
; 2461 : 
; 2462 : 	SendDMLog( LogData );

  00129	81 ec e4 03 00
	00		 sub	 esp, 996		; 000003e4H
  0012f	8b fc		 mov	 edi, esp
  00131	89 9c 24 f8 05
	00 00		 mov	 DWORD PTR _LogData$[esp+2552], ebx
  00138	b9 fe 00 00 00	 mov	 ecx, 254		; 000000feH
  0013d	8d b4 24 08 04
	00 00		 lea	 esi, DWORD PTR _LogData$[esp+2056]
  00144	f3 a5		 rep movsd
  00146	8b 8c 24 04 04
	00 00		 mov	 ecx, DWORD PTR _this$[esp+2056]
  0014d	e8 00 00 00 00	 call	 ?SendDMLog@CUdpSocket@@QAEXU_LOG_DATA_@@@Z ; CUdpSocket::SendDMLog
$L176278:

; 2463 : }

  00152	8b 8c 24 0c 04
	00 00		 mov	 ecx, DWORD PTR __$ArrayPad$[esp+1040]
  00159	e8 00 00 00 00	 call	 @__security_check_cookie@4
  0015e	5f		 pop	 edi
  0015f	5e		 pop	 esi
  00160	5b		 pop	 ebx
  00161	8b e5		 mov	 esp, ebp
  00163	5d		 pop	 ebp
  00164	c2 14 00	 ret	 20			; 00000014H
?LogRPSGame@CUdpSocket@@QAEXKPAVCTPlayer@@EEK@Z ENDP	; CUdpSocket::LogRPSGame
_TEXT	ENDS
PUBLIC	?LogAidCountry@CUdpSocket@@QAEXKPAVCTPlayer@@EE@Z ; CUdpSocket::LogAidCountry
; Function compile flags: /Ogty
;	COMDAT ?LogAidCountry@CUdpSocket@@QAEXKPAVCTPlayer@@EE@Z
_TEXT	SEGMENT
_LogData$ = -1024					; size = 1016
__$ArrayPad$ = -4					; size = 4
__$ReturnAddr$ = 4					; size = 4
_pAction$ = 8						; size = 4
_pPlayer$ = 12						; size = 4
_bNowAid$ = 16						; size = 1
_bPrevAid$ = 20						; size = 1
?LogAidCountry@CUdpSocket@@QAEXKPAVCTPlayer@@EE@Z PROC NEAR ; CUdpSocket::LogAidCountry, COMDAT
; _this$ = ecx

; 2497 : {

  00000	55		 push	 ebp
  00001	8b ec		 mov	 ebp, esp
  00003	83 e4 f8	 and	 esp, -8			; fffffff8H
  00006	81 ec 04 04 00
	00		 sub	 esp, 1028		; 00000404H
  0000c	a1 00 00 00 00	 mov	 eax, DWORD PTR ___security_cookie
  00011	53		 push	 ebx
  00012	56		 push	 esi

; 2498 : 	if(!pPlayer) return;

  00013	8b 75 0c	 mov	 esi, DWORD PTR _pPlayer$[ebp]
  00016	85 f6		 test	 esi, esi
  00018	89 84 24 08 04
	00 00		 mov	 DWORD PTR __$ArrayPad$[esp+1036], eax
  0001f	57		 push	 edi
  00020	8b d9		 mov	 ebx, ecx
  00022	0f 84 f7 00 00
	00		 je	 $L176304

; 2499 : 
; 2500 : 	_LOG_DATA_ LogData;
; 2501 : 	memset( &LogData, 0x00, sizeof(_LOG_DATA_));
; 2502 : 
; 2503 : 	
; 2504 : 	LogData.dwAction	=	pAction;
; 2505 : 	LogData.dwServerID	=	_AtlModule.GetServerID();
; 2506 : 
; 2507 : 	lstrcpy( LogData.szClientIP, inet_ntoa(pPlayer->m_addr.sin_addr) );	

  00028	8b 56 40	 mov	 edx, DWORD PTR [esi+64]
  0002b	33 c0		 xor	 eax, eax
  0002d	b9 fe 00 00 00	 mov	 ecx, 254		; 000000feH
  00032	8d 7c 24 10	 lea	 edi, DWORD PTR _LogData$[esp+1040]
  00036	f3 ab		 rep stosd
  00038	0f b6 0d 82 9e
	00 00		 movzx	 ecx, BYTE PTR ?_AtlModule@@3VCTMapSvrModule@@A+40578
  0003f	8b 45 08	 mov	 eax, DWORD PTR _pAction$[ebp]
  00042	52		 push	 edx
  00043	89 44 24 38	 mov	 DWORD PTR _LogData$[esp+1080], eax
  00047	89 4c 24 24	 mov	 DWORD PTR _LogData$[esp+1060], ecx
  0004b	ff 15 00 00 00
	00		 call	 DWORD PTR __imp__inet_ntoa@4
  00051	8b 3d 00 00 00
	00		 mov	 edi, DWORD PTR __imp__lstrcpyA@8
  00057	50		 push	 eax
  00058	8d 44 24 28	 lea	 eax, DWORD PTR _LogData$[esp+1064]
  0005c	50		 push	 eax
  0005d	ff d7		 call	 edi

; 2508 : 
; 2509 : 	LogData.wMapID			=	pPlayer->m_wMapID;						//	Map ID

  0005f	66 8b 8e 90 01
	01 00		 mov	 cx, WORD PTR [esi+65936]

; 2510 : 	LogData.nX				=	(int)pPlayer->m_fPosX;					//	X

  00066	d9 86 7c 01 01
	00		 fld	 DWORD PTR [esi+65916]
  0006c	66 89 4c 24 38	 mov	 WORD PTR _LogData$[esp+1080], cx
  00071	e8 00 00 00 00	 call	 __ftol2

; 2511 : 	LogData.nY				=	(int)pPlayer->m_fPosY;					//	Y

  00076	d9 86 80 01 01
	00		 fld	 DWORD PTR [esi+65920]
  0007c	89 44 24 3c	 mov	 DWORD PTR _LogData$[esp+1084], eax
  00080	e8 00 00 00 00	 call	 __ftol2

; 2512 : 	LogData.nZ				=	(int)pPlayer->m_fPosZ;					//	Z

  00085	d9 86 84 01 01
	00		 fld	 DWORD PTR [esi+65924]
  0008b	89 44 24 40	 mov	 DWORD PTR _LogData$[esp+1088], eax
  0008f	e8 00 00 00 00	 call	 __ftol2

; 2513 : 
; 2514 : 	LogData.dwKey[0]		=	pPlayer->m_dwUserID;					// User ID

  00094	8b 96 ac 03 01
	00		 mov	 edx, DWORD PTR [esi+66476]

; 2515 : 	LogData.dwKey[1]		=	pPlayer->m_dwID;						//	Character Seq	

  0009a	8b 8e 44 01 01
	00		 mov	 ecx, DWORD PTR [esi+65860]
  000a0	89 44 24 44	 mov	 DWORD PTR _LogData$[esp+1092], eax
  000a4	33 c0		 xor	 eax, eax
  000a6	89 44 24 4c	 mov	 DWORD PTR _LogData$[esp+1100], eax
  000aa	89 44 24 54	 mov	 DWORD PTR _LogData$[esp+1108], eax

; 2516 : 	LogData.dwKey[2]		=	pPlayer->m_bCountry;					//	Country

  000ae	0f b6 86 9d 01
	01 00		 movzx	 eax, BYTE PTR [esi+65949]
  000b5	89 54 24 48	 mov	 DWORD PTR _LogData$[esp+1096], edx
  000b9	99		 cdq
  000ba	89 54 24 5c	 mov	 DWORD PTR _LogData$[esp+1116], edx

; 2517 : 	lstrcpy(LogData.szKey[1],	pPlayer->m_strNAME	);					//	Character Name

  000be	8b 96 a4 03 01
	00		 mov	 edx, DWORD PTR [esi+66468]
  000c4	89 44 24 58	 mov	 DWORD PTR _LogData$[esp+1112], eax
  000c8	52		 push	 edx
  000c9	8d 84 24 d6 00
	00 00		 lea	 eax, DWORD PTR _LogData$[esp+1238]
  000d0	50		 push	 eax
  000d1	89 4c 24 58	 mov	 DWORD PTR _LogData$[esp+1112], ecx
  000d5	ff d7		 call	 edi

; 2518 : 	
; 2519 : 	LogData.dwKey[3]		=	bNowAid;

  000d7	0f b6 45 10	 movzx	 eax, BYTE PTR _bNowAid$[ebp]
  000db	99		 cdq
  000dc	89 44 24 60	 mov	 DWORD PTR _LogData$[esp+1120], eax

; 2520 : 	LogData.dwKey[4]		=	bPrevAid;

  000e0	0f b6 45 14	 movzx	 eax, BYTE PTR _bPrevAid$[ebp]
  000e4	89 54 24 64	 mov	 DWORD PTR _LogData$[esp+1124], edx
  000e8	99		 cdq

; 2521 : 
; 2522 : 	LogData.dwFormat = LF_TEXT;
; 2523 : 
; 2524 : 	SendDMLog( LogData );

  000e9	81 ec f8 03 00
	00		 sub	 esp, 1016		; 000003f8H
  000ef	8b fc		 mov	 edi, esp
  000f1	89 84 24 60 04
	00 00		 mov	 DWORD PTR _LogData$[esp+2144], eax
  000f8	89 94 24 64 04
	00 00		 mov	 DWORD PTR _LogData$[esp+2148], edx
  000ff	c7 84 24 f8 05
	00 00 00 00 00
	00		 mov	 DWORD PTR _LogData$[esp+2552], 0
  0010a	b9 fe 00 00 00	 mov	 ecx, 254		; 000000feH
  0010f	8d b4 24 08 04
	00 00		 lea	 esi, DWORD PTR _LogData$[esp+2056]
  00116	f3 a5		 rep movsd
  00118	8b cb		 mov	 ecx, ebx
  0011a	e8 00 00 00 00	 call	 ?SendDMLog@CUdpSocket@@QAEXU_LOG_DATA_@@@Z ; CUdpSocket::SendDMLog
$L176304:

; 2525 : }

  0011f	8b 8c 24 0c 04
	00 00		 mov	 ecx, DWORD PTR __$ArrayPad$[esp+1040]
  00126	e8 00 00 00 00	 call	 @__security_check_cookie@4
  0012b	5f		 pop	 edi
  0012c	5e		 pop	 esi
  0012d	5b		 pop	 ebx
  0012e	8b e5		 mov	 esp, ebp
  00130	5d		 pop	 ebp
  00131	c2 10 00	 ret	 16			; 00000010H
?LogAidCountry@CUdpSocket@@QAEXKPAVCTPlayer@@EE@Z ENDP	; CUdpSocket::LogAidCountry
_TEXT	ENDS
PUBLIC	?LogCountry@CUdpSocket@@QAEXKPAVCTPlayer@@EE@Z	; CUdpSocket::LogCountry
; Function compile flags: /Ogty
;	COMDAT ?LogCountry@CUdpSocket@@QAEXKPAVCTPlayer@@EE@Z
_TEXT	SEGMENT
_LogData$ = -1024					; size = 1016
__$ArrayPad$ = -4					; size = 4
__$ReturnAddr$ = 4					; size = 4
_pAction$ = 8						; size = 4
_pPlayer$ = 12						; size = 4
_bNowCountry$ = 16					; size = 1
_bPrevCountry$ = 20					; size = 1
?LogCountry@CUdpSocket@@QAEXKPAVCTPlayer@@EE@Z PROC NEAR ; CUdpSocket::LogCountry, COMDAT
; _this$ = ecx

; 2528 : {

  00000	55		 push	 ebp
  00001	8b ec		 mov	 ebp, esp
  00003	83 e4 f8	 and	 esp, -8			; fffffff8H
  00006	81 ec 04 04 00
	00		 sub	 esp, 1028		; 00000404H
  0000c	a1 00 00 00 00	 mov	 eax, DWORD PTR ___security_cookie
  00011	53		 push	 ebx
  00012	56		 push	 esi

; 2529 : 	if(!pPlayer) return;

  00013	8b 75 0c	 mov	 esi, DWORD PTR _pPlayer$[ebp]
  00016	85 f6		 test	 esi, esi
  00018	89 84 24 08 04
	00 00		 mov	 DWORD PTR __$ArrayPad$[esp+1036], eax
  0001f	57		 push	 edi
  00020	8b d9		 mov	 ebx, ecx
  00022	0f 84 f7 00 00
	00		 je	 $L176317

; 2530 : 
; 2531 : 	_LOG_DATA_ LogData;
; 2532 : 	memset( &LogData, 0x00, sizeof(_LOG_DATA_));
; 2533 : 
; 2534 : 	
; 2535 : 	LogData.dwAction	=	pAction;
; 2536 : 	LogData.dwServerID	=	_AtlModule.GetServerID();
; 2537 : 
; 2538 : 	lstrcpy( LogData.szClientIP, inet_ntoa(pPlayer->m_addr.sin_addr) );	

  00028	8b 56 40	 mov	 edx, DWORD PTR [esi+64]
  0002b	33 c0		 xor	 eax, eax
  0002d	b9 fe 00 00 00	 mov	 ecx, 254		; 000000feH
  00032	8d 7c 24 10	 lea	 edi, DWORD PTR _LogData$[esp+1040]
  00036	f3 ab		 rep stosd
  00038	0f b6 0d 82 9e
	00 00		 movzx	 ecx, BYTE PTR ?_AtlModule@@3VCTMapSvrModule@@A+40578
  0003f	8b 45 08	 mov	 eax, DWORD PTR _pAction$[ebp]
  00042	52		 push	 edx
  00043	89 44 24 38	 mov	 DWORD PTR _LogData$[esp+1080], eax
  00047	89 4c 24 24	 mov	 DWORD PTR _LogData$[esp+1060], ecx
  0004b	ff 15 00 00 00
	00		 call	 DWORD PTR __imp__inet_ntoa@4
  00051	8b 3d 00 00 00
	00		 mov	 edi, DWORD PTR __imp__lstrcpyA@8
  00057	50		 push	 eax
  00058	8d 44 24 28	 lea	 eax, DWORD PTR _LogData$[esp+1064]
  0005c	50		 push	 eax
  0005d	ff d7		 call	 edi

; 2539 : 
; 2540 : 	LogData.wMapID			=	pPlayer->m_wMapID;						//	Map ID

  0005f	66 8b 8e 90 01
	01 00		 mov	 cx, WORD PTR [esi+65936]

; 2541 : 	LogData.nX				=	(int)pPlayer->m_fPosX;					//	X

  00066	d9 86 7c 01 01
	00		 fld	 DWORD PTR [esi+65916]
  0006c	66 89 4c 24 38	 mov	 WORD PTR _LogData$[esp+1080], cx
  00071	e8 00 00 00 00	 call	 __ftol2

; 2542 : 	LogData.nY				=	(int)pPlayer->m_fPosY;					//	Y

  00076	d9 86 80 01 01
	00		 fld	 DWORD PTR [esi+65920]
  0007c	89 44 24 3c	 mov	 DWORD PTR _LogData$[esp+1084], eax
  00080	e8 00 00 00 00	 call	 __ftol2

; 2543 : 	LogData.nZ				=	(int)pPlayer->m_fPosZ;					//	Z

  00085	d9 86 84 01 01
	00		 fld	 DWORD PTR [esi+65924]
  0008b	89 44 24 40	 mov	 DWORD PTR _LogData$[esp+1088], eax
  0008f	e8 00 00 00 00	 call	 __ftol2

; 2544 : 
; 2545 : 	LogData.dwKey[0]		=	pPlayer->m_dwUserID;					// User ID

  00094	8b 96 ac 03 01
	00		 mov	 edx, DWORD PTR [esi+66476]

; 2546 : 	LogData.dwKey[1]		=	pPlayer->m_dwID;						//	Character Seq	

  0009a	8b 8e 44 01 01
	00		 mov	 ecx, DWORD PTR [esi+65860]
  000a0	89 44 24 44	 mov	 DWORD PTR _LogData$[esp+1092], eax
  000a4	33 c0		 xor	 eax, eax
  000a6	89 44 24 4c	 mov	 DWORD PTR _LogData$[esp+1100], eax
  000aa	89 44 24 54	 mov	 DWORD PTR _LogData$[esp+1108], eax

; 2547 : 	LogData.dwKey[2]		=	pPlayer->m_bCountry;					//	Country

  000ae	0f b6 86 9d 01
	01 00		 movzx	 eax, BYTE PTR [esi+65949]
  000b5	89 54 24 48	 mov	 DWORD PTR _LogData$[esp+1096], edx
  000b9	99		 cdq
  000ba	89 54 24 5c	 mov	 DWORD PTR _LogData$[esp+1116], edx

; 2548 : 	lstrcpy(LogData.szKey[1],	pPlayer->m_strNAME	);					//	Character Name

  000be	8b 96 a4 03 01
	00		 mov	 edx, DWORD PTR [esi+66468]
  000c4	89 44 24 58	 mov	 DWORD PTR _LogData$[esp+1112], eax
  000c8	52		 push	 edx
  000c9	8d 84 24 d6 00
	00 00		 lea	 eax, DWORD PTR _LogData$[esp+1238]
  000d0	50		 push	 eax
  000d1	89 4c 24 58	 mov	 DWORD PTR _LogData$[esp+1112], ecx
  000d5	ff d7		 call	 edi

; 2549 : 	
; 2550 : 	LogData.dwKey[3]		=	bNowCountry;

  000d7	0f b6 45 10	 movzx	 eax, BYTE PTR _bNowCountry$[ebp]
  000db	99		 cdq
  000dc	89 44 24 60	 mov	 DWORD PTR _LogData$[esp+1120], eax

; 2551 : 	LogData.dwKey[4]		=	bPrevCountry;

  000e0	0f b6 45 14	 movzx	 eax, BYTE PTR _bPrevCountry$[ebp]
  000e4	89 54 24 64	 mov	 DWORD PTR _LogData$[esp+1124], edx
  000e8	99		 cdq

; 2552 : 
; 2553 : 	LogData.dwFormat = LF_TEXT;
; 2554 : 
; 2555 : 	SendDMLog( LogData );

  000e9	81 ec f8 03 00
	00		 sub	 esp, 1016		; 000003f8H
  000ef	8b fc		 mov	 edi, esp
  000f1	89 84 24 60 04
	00 00		 mov	 DWORD PTR _LogData$[esp+2144], eax
  000f8	89 94 24 64 04
	00 00		 mov	 DWORD PTR _LogData$[esp+2148], edx
  000ff	c7 84 24 f8 05
	00 00 00 00 00
	00		 mov	 DWORD PTR _LogData$[esp+2552], 0
  0010a	b9 fe 00 00 00	 mov	 ecx, 254		; 000000feH
  0010f	8d b4 24 08 04
	00 00		 lea	 esi, DWORD PTR _LogData$[esp+2056]
  00116	f3 a5		 rep movsd
  00118	8b cb		 mov	 ecx, ebx
  0011a	e8 00 00 00 00	 call	 ?SendDMLog@CUdpSocket@@QAEXU_LOG_DATA_@@@Z ; CUdpSocket::SendDMLog
$L176317:

; 2556 : }

  0011f	8b 8c 24 0c 04
	00 00		 mov	 ecx, DWORD PTR __$ArrayPad$[esp+1040]
  00126	e8 00 00 00 00	 call	 @__security_check_cookie@4
  0012b	5f		 pop	 edi
  0012c	5e		 pop	 esi
  0012d	5b		 pop	 ebx
  0012e	8b e5		 mov	 esp, ebp
  00130	5d		 pop	 ebp
  00131	c2 10 00	 ret	 16			; 00000010H
?LogCountry@CUdpSocket@@QAEXKPAVCTPlayer@@EE@Z ENDP	; CUdpSocket::LogCountry
_TEXT	ENDS
PUBLIC	?LogKickOut@CUdpSocket@@QAEXKPAVCTPlayer@@E@Z	; CUdpSocket::LogKickOut
; Function compile flags: /Ogty
;	COMDAT ?LogKickOut@CUdpSocket@@QAEXKPAVCTPlayer@@E@Z
_TEXT	SEGMENT
_LogData$ = -1024					; size = 1016
__$ArrayPad$ = -4					; size = 4
__$ReturnAddr$ = 4					; size = 4
_pAction$ = 8						; size = 4
_pPlayer$ = 12						; size = 4
_bType$ = 16						; size = 1
?LogKickOut@CUdpSocket@@QAEXKPAVCTPlayer@@E@Z PROC NEAR	; CUdpSocket::LogKickOut, COMDAT
; _this$ = ecx

; 2560 : {

  00000	55		 push	 ebp
  00001	8b ec		 mov	 ebp, esp
  00003	83 e4 f8	 and	 esp, -8			; fffffff8H
  00006	81 ec 04 04 00
	00		 sub	 esp, 1028		; 00000404H
  0000c	a1 00 00 00 00	 mov	 eax, DWORD PTR ___security_cookie
  00011	53		 push	 ebx
  00012	56		 push	 esi

; 2561 : 	if(!pPlayer) return;

  00013	8b 75 0c	 mov	 esi, DWORD PTR _pPlayer$[ebp]
  00016	85 f6		 test	 esi, esi
  00018	89 84 24 08 04
	00 00		 mov	 DWORD PTR __$ArrayPad$[esp+1036], eax
  0001f	57		 push	 edi
  00020	8b d9		 mov	 ebx, ecx
  00022	0f 84 ea 00 00
	00		 je	 $L176329

; 2562 : 
; 2563 : 	_LOG_DATA_ LogData;
; 2564 : 	memset( &LogData, 0x00, sizeof(_LOG_DATA_));
; 2565 : 	
; 2566 : 	LogData.dwAction	=	pAction;
; 2567 : 	LogData.dwServerID	=	_AtlModule.GetServerID();
; 2568 : 
; 2569 : 	lstrcpy( LogData.szClientIP, inet_ntoa(pPlayer->m_addr.sin_addr) );	

  00028	8b 56 40	 mov	 edx, DWORD PTR [esi+64]
  0002b	33 c0		 xor	 eax, eax
  0002d	b9 fe 00 00 00	 mov	 ecx, 254		; 000000feH
  00032	8d 7c 24 10	 lea	 edi, DWORD PTR _LogData$[esp+1040]
  00036	f3 ab		 rep stosd
  00038	0f b6 0d 82 9e
	00 00		 movzx	 ecx, BYTE PTR ?_AtlModule@@3VCTMapSvrModule@@A+40578
  0003f	8b 45 08	 mov	 eax, DWORD PTR _pAction$[ebp]
  00042	52		 push	 edx
  00043	89 44 24 38	 mov	 DWORD PTR _LogData$[esp+1080], eax
  00047	89 4c 24 24	 mov	 DWORD PTR _LogData$[esp+1060], ecx
  0004b	ff 15 00 00 00
	00		 call	 DWORD PTR __imp__inet_ntoa@4
  00051	8b 3d 00 00 00
	00		 mov	 edi, DWORD PTR __imp__lstrcpyA@8
  00057	50		 push	 eax
  00058	8d 44 24 28	 lea	 eax, DWORD PTR _LogData$[esp+1064]
  0005c	50		 push	 eax
  0005d	ff d7		 call	 edi

; 2570 : 
; 2571 : 	LogData.wMapID			=	pPlayer->m_wMapID;						//	Map ID

  0005f	66 8b 8e 90 01
	01 00		 mov	 cx, WORD PTR [esi+65936]

; 2572 : 	LogData.nX				=	(int)pPlayer->m_fPosX;					//	X

  00066	d9 86 7c 01 01
	00		 fld	 DWORD PTR [esi+65916]
  0006c	66 89 4c 24 38	 mov	 WORD PTR _LogData$[esp+1080], cx
  00071	e8 00 00 00 00	 call	 __ftol2

; 2573 : 	LogData.nY				=	(int)pPlayer->m_fPosY;					//	Y

  00076	d9 86 80 01 01
	00		 fld	 DWORD PTR [esi+65920]
  0007c	89 44 24 3c	 mov	 DWORD PTR _LogData$[esp+1084], eax
  00080	e8 00 00 00 00	 call	 __ftol2

; 2574 : 	LogData.nZ				=	(int)pPlayer->m_fPosZ;					//	Z

  00085	d9 86 84 01 01
	00		 fld	 DWORD PTR [esi+65924]
  0008b	89 44 24 40	 mov	 DWORD PTR _LogData$[esp+1088], eax
  0008f	e8 00 00 00 00	 call	 __ftol2

; 2575 : 
; 2576 : 	LogData.dwKey[0]		=	pPlayer->m_dwUserID;					// User ID

  00094	8b 96 ac 03 01
	00		 mov	 edx, DWORD PTR [esi+66476]

; 2577 : 	LogData.dwKey[1]		=	pPlayer->m_dwID;						//	Character Seq	

  0009a	8b 8e 44 01 01
	00		 mov	 ecx, DWORD PTR [esi+65860]
  000a0	89 44 24 44	 mov	 DWORD PTR _LogData$[esp+1092], eax
  000a4	33 c0		 xor	 eax, eax
  000a6	89 44 24 4c	 mov	 DWORD PTR _LogData$[esp+1100], eax
  000aa	89 44 24 54	 mov	 DWORD PTR _LogData$[esp+1108], eax

; 2578 : 	LogData.dwKey[2]		=	pPlayer->m_bCountry;					//	Country

  000ae	0f b6 86 9d 01
	01 00		 movzx	 eax, BYTE PTR [esi+65949]
  000b5	89 54 24 48	 mov	 DWORD PTR _LogData$[esp+1096], edx
  000b9	99		 cdq
  000ba	89 54 24 5c	 mov	 DWORD PTR _LogData$[esp+1116], edx

; 2579 : 	lstrcpy(LogData.szKey[1],	pPlayer->m_strNAME	);					//	Character Name

  000be	8b 96 a4 03 01
	00		 mov	 edx, DWORD PTR [esi+66468]
  000c4	89 44 24 58	 mov	 DWORD PTR _LogData$[esp+1112], eax
  000c8	52		 push	 edx
  000c9	8d 84 24 d6 00
	00 00		 lea	 eax, DWORD PTR _LogData$[esp+1238]
  000d0	50		 push	 eax
  000d1	89 4c 24 58	 mov	 DWORD PTR _LogData$[esp+1112], ecx
  000d5	ff d7		 call	 edi

; 2580 : 	
; 2581 : 	LogData.dwKey[3]		=	bType;

  000d7	0f b6 45 10	 movzx	 eax, BYTE PTR _bType$[ebp]
  000db	99		 cdq

; 2582 : 
; 2583 : 	LogData.dwFormat = LF_TEXT;
; 2584 : 
; 2585 : 	SendDMLog( LogData );

  000dc	81 ec f8 03 00
	00		 sub	 esp, 1016		; 000003f8H
  000e2	8b fc		 mov	 edi, esp
  000e4	89 84 24 58 04
	00 00		 mov	 DWORD PTR _LogData$[esp+2136], eax
  000eb	89 94 24 5c 04
	00 00		 mov	 DWORD PTR _LogData$[esp+2140], edx
  000f2	c7 84 24 f8 05
	00 00 00 00 00
	00		 mov	 DWORD PTR _LogData$[esp+2552], 0
  000fd	b9 fe 00 00 00	 mov	 ecx, 254		; 000000feH
  00102	8d b4 24 08 04
	00 00		 lea	 esi, DWORD PTR _LogData$[esp+2056]
  00109	f3 a5		 rep movsd
  0010b	8b cb		 mov	 ecx, ebx
  0010d	e8 00 00 00 00	 call	 ?SendDMLog@CUdpSocket@@QAEXU_LOG_DATA_@@@Z ; CUdpSocket::SendDMLog
$L176329:

; 2586 : }

  00112	8b 8c 24 0c 04
	00 00		 mov	 ecx, DWORD PTR __$ArrayPad$[esp+1040]
  00119	e8 00 00 00 00	 call	 @__security_check_cookie@4
  0011e	5f		 pop	 edi
  0011f	5e		 pop	 esi
  00120	5b		 pop	 ebx
  00121	8b e5		 mov	 esp, ebp
  00123	5d		 pop	 ebp
  00124	c2 0c 00	 ret	 12			; 0000000cH
?LogKickOut@CUdpSocket@@QAEXKPAVCTPlayer@@E@Z ENDP	; CUdpSocket::LogKickOut
_TEXT	ENDS
PUBLIC	?LogCMGift@CUdpSocket@@QAEXKPAVCTPlayer@@GKEKE@Z ; CUdpSocket::LogCMGift
; Function compile flags: /Ogty
;	COMDAT ?LogCMGift@CUdpSocket@@QAEXKPAVCTPlayer@@GKEKE@Z
_TEXT	SEGMENT
_this$ = -1028						; size = 4
_LogData$ = -1024					; size = 1016
__$ArrayPad$ = -4					; size = 4
__$ReturnAddr$ = 4					; size = 4
_pAction$ = 8						; size = 4
_pPlayer$ = 12						; size = 4
_wGiftID$ = 16						; size = 2
_dwGMID$ = 20						; size = 4
_bType$ = 24						; size = 1
_dwValue$ = 28						; size = 4
_bCount$ = 32						; size = 1
?LogCMGift@CUdpSocket@@QAEXKPAVCTPlayer@@GKEKE@Z PROC NEAR ; CUdpSocket::LogCMGift, COMDAT
; _this$ = ecx

; 2590 : {

  00000	55		 push	 ebp
  00001	8b ec		 mov	 ebp, esp
  00003	83 e4 f8	 and	 esp, -8			; fffffff8H
  00006	81 ec 04 04 00
	00		 sub	 esp, 1028		; 00000404H
  0000c	a1 00 00 00 00	 mov	 eax, DWORD PTR ___security_cookie
  00011	53		 push	 ebx
  00012	56		 push	 esi

; 2591 : 	if(!pPlayer) return;

  00013	8b 75 0c	 mov	 esi, DWORD PTR _pPlayer$[ebp]
  00016	33 db		 xor	 ebx, ebx
  00018	3b f3		 cmp	 esi, ebx
  0001a	89 84 24 08 04
	00 00		 mov	 DWORD PTR __$ArrayPad$[esp+1036], eax
  00021	57		 push	 edi
  00022	89 4c 24 0c	 mov	 DWORD PTR _this$[esp+1040], ecx
  00026	0f 84 1f 01 00
	00		 je	 $L176345

; 2592 : 
; 2593 : 	_LOG_DATA_ LogData;
; 2594 : 	memset( &LogData, 0x00, sizeof(_LOG_DATA_));
; 2595 : 	
; 2596 : 	LogData.dwAction	=	pAction;
; 2597 : 	LogData.dwServerID	=	_AtlModule.GetServerID();
; 2598 : 
; 2599 : 	lstrcpy( LogData.szClientIP, inet_ntoa(pPlayer->m_addr.sin_addr) );	

  0002c	8b 56 40	 mov	 edx, DWORD PTR [esi+64]
  0002f	33 c0		 xor	 eax, eax
  00031	b9 fe 00 00 00	 mov	 ecx, 254		; 000000feH
  00036	8d 7c 24 10	 lea	 edi, DWORD PTR _LogData$[esp+1040]
  0003a	f3 ab		 rep stosd
  0003c	0f b6 0d 82 9e
	00 00		 movzx	 ecx, BYTE PTR ?_AtlModule@@3VCTMapSvrModule@@A+40578
  00043	8b 45 08	 mov	 eax, DWORD PTR _pAction$[ebp]
  00046	52		 push	 edx
  00047	89 44 24 38	 mov	 DWORD PTR _LogData$[esp+1080], eax
  0004b	89 4c 24 24	 mov	 DWORD PTR _LogData$[esp+1060], ecx
  0004f	ff 15 00 00 00
	00		 call	 DWORD PTR __imp__inet_ntoa@4
  00055	8b 3d 00 00 00
	00		 mov	 edi, DWORD PTR __imp__lstrcpyA@8
  0005b	50		 push	 eax
  0005c	8d 44 24 28	 lea	 eax, DWORD PTR _LogData$[esp+1064]
  00060	50		 push	 eax
  00061	ff d7		 call	 edi

; 2600 : 
; 2601 : 	LogData.wMapID			=	pPlayer->m_wMapID;						//	Map ID

  00063	66 8b 8e 90 01
	01 00		 mov	 cx, WORD PTR [esi+65936]

; 2602 : 	LogData.nX				=	(int)pPlayer->m_fPosX;					//	X

  0006a	d9 86 7c 01 01
	00		 fld	 DWORD PTR [esi+65916]
  00070	66 89 4c 24 38	 mov	 WORD PTR _LogData$[esp+1080], cx
  00075	e8 00 00 00 00	 call	 __ftol2

; 2603 : 	LogData.nY				=	(int)pPlayer->m_fPosY;					//	Y

  0007a	d9 86 80 01 01
	00		 fld	 DWORD PTR [esi+65920]
  00080	89 44 24 3c	 mov	 DWORD PTR _LogData$[esp+1084], eax
  00084	e8 00 00 00 00	 call	 __ftol2

; 2604 : 	LogData.nZ				=	(int)pPlayer->m_fPosZ;					//	Z

  00089	d9 86 84 01 01
	00		 fld	 DWORD PTR [esi+65924]
  0008f	89 44 24 40	 mov	 DWORD PTR _LogData$[esp+1088], eax
  00093	e8 00 00 00 00	 call	 __ftol2

; 2605 : 
; 2606 : 	LogData.dwKey[0]		=	pPlayer->m_dwUserID;					// User ID

  00098	8b 96 ac 03 01
	00		 mov	 edx, DWORD PTR [esi+66476]

; 2607 : 	LogData.dwKey[1]		=	pPlayer->m_dwID;						//	Character Seq	
; 2608 : 	LogData.dwKey[2]		=	pPlayer->m_bCountry;					//	Country
; 2609 : 	lstrcpy(LogData.szKey[1],	pPlayer->m_strNAME	);					//	Character Name

  0009e	8b 8e a4 03 01
	00		 mov	 ecx, DWORD PTR [esi+66468]
  000a4	89 44 24 44	 mov	 DWORD PTR _LogData$[esp+1092], eax
  000a8	8b 86 44 01 01
	00		 mov	 eax, DWORD PTR [esi+65860]
  000ae	89 44 24 50	 mov	 DWORD PTR _LogData$[esp+1104], eax
  000b2	0f b6 86 9d 01
	01 00		 movzx	 eax, BYTE PTR [esi+65949]
  000b9	89 54 24 48	 mov	 DWORD PTR _LogData$[esp+1096], edx
  000bd	99		 cdq
  000be	89 54 24 5c	 mov	 DWORD PTR _LogData$[esp+1116], edx
  000c2	51		 push	 ecx
  000c3	8d 94 24 d6 00
	00 00		 lea	 edx, DWORD PTR _LogData$[esp+1238]
  000ca	52		 push	 edx
  000cb	89 5c 24 54	 mov	 DWORD PTR _LogData$[esp+1108], ebx
  000cf	89 5c 24 5c	 mov	 DWORD PTR _LogData$[esp+1116], ebx
  000d3	89 44 24 60	 mov	 DWORD PTR _LogData$[esp+1120], eax
  000d7	ff d7		 call	 edi

; 2610 : 	
; 2611 : 	LogData.dwKey[3]		=	wGiftID;								//	Gift Chart ID

  000d9	0f b7 45 10	 movzx	 eax, WORD PTR _wGiftID$[ebp]

; 2612 : 	LogData.dwKey[4]		=	dwGMID;
; 2613 : 	LogData.dwKey[5]		=	bType;									//	Gift Type  (typedef enum CMGIFT_TYPE)
; 2614 : 	LogData.dwKey[6]		=	dwValue;								//	Item ID or Money, merit Value

  000dd	8b 4d 1c	 mov	 ecx, DWORD PTR _dwValue$[ebp]
  000e0	99		 cdq
  000e1	89 44 24 60	 mov	 DWORD PTR _LogData$[esp+1120], eax
  000e5	8b 45 14	 mov	 eax, DWORD PTR _dwGMID$[ebp]
  000e8	89 44 24 68	 mov	 DWORD PTR _LogData$[esp+1128], eax
  000ec	0f b6 45 18	 movzx	 eax, BYTE PTR _bType$[ebp]
  000f0	89 54 24 64	 mov	 DWORD PTR _LogData$[esp+1124], edx
  000f4	99		 cdq
  000f5	89 44 24 70	 mov	 DWORD PTR _LogData$[esp+1136], eax

; 2615 : 	LogData.dwKey[7]		=	bCount;									//	Item Count

  000f9	0f b6 45 20	 movzx	 eax, BYTE PTR _bCount$[ebp]
  000fd	89 54 24 74	 mov	 DWORD PTR _LogData$[esp+1140], edx
  00101	89 4c 24 78	 mov	 DWORD PTR _LogData$[esp+1144], ecx
  00105	99		 cdq

; 2616 : 
; 2617 : 	LogData.dwFormat = LF_TEXT;
; 2618 : 
; 2619 : 	SendDMLog( LogData );

  00106	81 ec f8 03 00
	00		 sub	 esp, 1016		; 000003f8H
  0010c	8b fc		 mov	 edi, esp
  0010e	89 9c 24 64 04
	00 00		 mov	 DWORD PTR _LogData$[esp+2148], ebx
  00115	89 9c 24 74 04
	00 00		 mov	 DWORD PTR _LogData$[esp+2164], ebx
  0011c	89 84 24 78 04
	00 00		 mov	 DWORD PTR _LogData$[esp+2168], eax
  00123	89 94 24 7c 04
	00 00		 mov	 DWORD PTR _LogData$[esp+2172], edx
  0012a	89 9c 24 f8 05
	00 00		 mov	 DWORD PTR _LogData$[esp+2552], ebx
  00131	b9 fe 00 00 00	 mov	 ecx, 254		; 000000feH
  00136	8d b4 24 08 04
	00 00		 lea	 esi, DWORD PTR _LogData$[esp+2056]
  0013d	f3 a5		 rep movsd
  0013f	8b 8c 24 04 04
	00 00		 mov	 ecx, DWORD PTR _this$[esp+2056]
  00146	e8 00 00 00 00	 call	 ?SendDMLog@CUdpSocket@@QAEXU_LOG_DATA_@@@Z ; CUdpSocket::SendDMLog
$L176345:

; 2620 : }

  0014b	8b 8c 24 0c 04
	00 00		 mov	 ecx, DWORD PTR __$ArrayPad$[esp+1040]
  00152	e8 00 00 00 00	 call	 @__security_check_cookie@4
  00157	5f		 pop	 edi
  00158	5e		 pop	 esi
  00159	5b		 pop	 ebx
  0015a	8b e5		 mov	 esp, ebp
  0015c	5d		 pop	 ebp
  0015d	c2 1c 00	 ret	 28			; 0000001cH
?LogCMGift@CUdpSocket@@QAEXKPAVCTPlayer@@GKEKE@Z ENDP	; CUdpSocket::LogCMGift
_TEXT	ENDS
PUBLIC	?begin@?$_Tree@V?$_Tmap_traits@EPAUtagTMAGIC@@U?$less@E@std@@V?$allocator@U?$pair@$$CBEPAUtagTMAGIC@@@std@@@3@$0A@@std@@@std@@QAE?AViterator@12@XZ ; std::_Tree<std::_Tmap_traits<unsigned char,tagTMAGIC *,std::less<unsigned char>,std::allocator<std::pair<unsigned char const ,tagTMAGIC *> >,0> >::begin
; Function compile flags: /Ogty
; File c:\program files (x86)\microsoft visual studio .net 2003\vc7\include\xtree
;	COMDAT ?begin@?$_Tree@V?$_Tmap_traits@EPAUtagTMAGIC@@U?$less@E@std@@V?$allocator@U?$pair@$$CBEPAUtagTMAGIC@@@std@@@3@$0A@@std@@@std@@QAE?AViterator@12@XZ
_TEXT	SEGMENT
___$ReturnUdt$ = 8					; size = 4
?begin@?$_Tree@V?$_Tmap_traits@EPAUtagTMAGIC@@U?$less@E@std@@V?$allocator@U?$pair@$$CBEPAUtagTMAGIC@@@std@@@3@$0A@@std@@@std@@QAE?AViterator@12@XZ PROC NEAR ; std::_Tree<std::_Tmap_traits<unsigned char,tagTMAGIC *,std::less<unsigned char>,std::allocator<std::pair<unsigned char const ,tagTMAGIC *> >,0> >::begin, COMDAT
; _this$ = ecx

; 408  : 		return (_TREE_ITERATOR(_Lmost()));

  00000	8b 41 04	 mov	 eax, DWORD PTR [ecx+4]
  00003	8b 08		 mov	 ecx, DWORD PTR [eax]
  00005	8b 44 24 04	 mov	 eax, DWORD PTR ___$ReturnUdt$[esp-4]
  00009	89 08		 mov	 DWORD PTR [eax], ecx

; 409  : 		}

  0000b	c2 04 00	 ret	 4
?begin@?$_Tree@V?$_Tmap_traits@EPAUtagTMAGIC@@U?$less@E@std@@V?$allocator@U?$pair@$$CBEPAUtagTMAGIC@@@std@@@3@$0A@@std@@@std@@QAE?AViterator@12@XZ ENDP ; std::_Tree<std::_Tmap_traits<unsigned char,tagTMAGIC *,std::less<unsigned char>,std::allocator<std::pair<unsigned char const ,tagTMAGIC *> >,0> >::begin
_TEXT	ENDS
PUBLIC	?end@?$_Tree@V?$_Tmap_traits@EPAUtagTMAGIC@@U?$less@E@std@@V?$allocator@U?$pair@$$CBEPAUtagTMAGIC@@@std@@@3@$0A@@std@@@std@@QAE?AViterator@12@XZ ; std::_Tree<std::_Tmap_traits<unsigned char,tagTMAGIC *,std::less<unsigned char>,std::allocator<std::pair<unsigned char const ,tagTMAGIC *> >,0> >::end
; Function compile flags: /Ogty
;	COMDAT ?end@?$_Tree@V?$_Tmap_traits@EPAUtagTMAGIC@@U?$less@E@std@@V?$allocator@U?$pair@$$CBEPAUtagTMAGIC@@@std@@@3@$0A@@std@@@std@@QAE?AViterator@12@XZ
_TEXT	SEGMENT
___$ReturnUdt$ = 8					; size = 4
?end@?$_Tree@V?$_Tmap_traits@EPAUtagTMAGIC@@U?$less@E@std@@V?$allocator@U?$pair@$$CBEPAUtagTMAGIC@@@std@@@3@$0A@@std@@@std@@QAE?AViterator@12@XZ PROC NEAR ; std::_Tree<std::_Tmap_traits<unsigned char,tagTMAGIC *,std::less<unsigned char>,std::allocator<std::pair<unsigned char const ,tagTMAGIC *> >,0> >::end, COMDAT
; _this$ = ecx

; 418  : 		return (_TREE_ITERATOR(_Myhead));

  00000	8b 49 04	 mov	 ecx, DWORD PTR [ecx+4]
  00003	8b 44 24 04	 mov	 eax, DWORD PTR ___$ReturnUdt$[esp-4]
  00007	89 08		 mov	 DWORD PTR [eax], ecx

; 419  : 		}

  00009	c2 04 00	 ret	 4
?end@?$_Tree@V?$_Tmap_traits@EPAUtagTMAGIC@@U?$less@E@std@@V?$allocator@U?$pair@$$CBEPAUtagTMAGIC@@@std@@@3@$0A@@std@@@std@@QAE?AViterator@12@XZ ENDP ; std::_Tree<std::_Tmap_traits<unsigned char,tagTMAGIC *,std::less<unsigned char>,std::allocator<std::pair<unsigned char const ,tagTMAGIC *> >,0> >::end
_TEXT	ENDS
PUBLIC	??Diterator@?$_Tree@V?$_Tmap_traits@EPAUtagTMAGIC@@U?$less@E@std@@V?$allocator@U?$pair@$$CBEPAUtagTMAGIC@@@std@@@3@$0A@@std@@@std@@QBEAAU?$pair@$$CBEPAUtagTMAGIC@@@2@XZ ; std::_Tree<std::_Tmap_traits<unsigned char,tagTMAGIC *,std::less<unsigned char>,std::allocator<std::pair<unsigned char const ,tagTMAGIC *> >,0> >::iterator::operator*
; Function compile flags: /Ogty
;	COMDAT ??Diterator@?$_Tree@V?$_Tmap_traits@EPAUtagTMAGIC@@U?$less@E@std@@V?$allocator@U?$pair@$$CBEPAUtagTMAGIC@@@std@@@3@$0A@@std@@@std@@QBEAAU?$pair@$$CBEPAUtagTMAGIC@@@2@XZ
_TEXT	SEGMENT
??Diterator@?$_Tree@V?$_Tmap_traits@EPAUtagTMAGIC@@U?$less@E@std@@V?$allocator@U?$pair@$$CBEPAUtagTMAGIC@@@std@@@3@$0A@@std@@@std@@QBEAAU?$pair@$$CBEPAUtagTMAGIC@@@2@XZ PROC NEAR ; std::_Tree<std::_Tmap_traits<unsigned char,tagTMAGIC *,std::less<unsigned char>,std::allocator<std::pair<unsigned char const ,tagTMAGIC *> >,0> >::iterator::operator*, COMDAT
; _this$ = ecx

; 317  : 			return ((reference)**(const_iterator *)this);

  00000	8b 01		 mov	 eax, DWORD PTR [ecx]
  00002	83 c0 0c	 add	 eax, 12			; 0000000cH

; 318  : 			}

  00005	c3		 ret	 0
??Diterator@?$_Tree@V?$_Tmap_traits@EPAUtagTMAGIC@@U?$less@E@std@@V?$allocator@U?$pair@$$CBEPAUtagTMAGIC@@@std@@@3@$0A@@std@@@std@@QBEAAU?$pair@$$CBEPAUtagTMAGIC@@@2@XZ ENDP ; std::_Tree<std::_Tmap_traits<unsigned char,tagTMAGIC *,std::less<unsigned char>,std::allocator<std::pair<unsigned char const ,tagTMAGIC *> >,0> >::iterator::operator*
_TEXT	ENDS
PUBLIC	??Econst_iterator@?$_Tree@V?$_Tmap_traits@EPAUtagTMAGIC@@U?$less@E@std@@V?$allocator@U?$pair@$$CBEPAUtagTMAGIC@@@std@@@3@$0A@@std@@@std@@QAEAAV012@XZ ; std::_Tree<std::_Tmap_traits<unsigned char,tagTMAGIC *,std::less<unsigned char>,std::allocator<std::pair<unsigned char const ,tagTMAGIC *> >,0> >::const_iterator::operator++
; Function compile flags: /Ogty
;	COMDAT ??Econst_iterator@?$_Tree@V?$_Tmap_traits@EPAUtagTMAGIC@@U?$less@E@std@@V?$allocator@U?$pair@$$CBEPAUtagTMAGIC@@@std@@@3@$0A@@std@@@std@@QAEAAV012@XZ
_TEXT	SEGMENT
??Econst_iterator@?$_Tree@V?$_Tmap_traits@EPAUtagTMAGIC@@U?$less@E@std@@V?$allocator@U?$pair@$$CBEPAUtagTMAGIC@@@std@@@3@$0A@@std@@@std@@QAEAAV012@XZ PROC NEAR ; std::_Tree<std::_Tmap_traits<unsigned char,tagTMAGIC *,std::less<unsigned char>,std::allocator<std::pair<unsigned char const ,tagTMAGIC *> >,0> >::const_iterator::operator++, COMDAT
; _this$ = ecx

; 214  : 			{	// preincrement

  00000	56		 push	 esi
  00001	8b f1		 mov	 esi, ecx

; 215  : 			_Inc();

  00003	e8 00 00 00 00	 call	 ?_Inc@const_iterator@?$_Tree@V?$_Tmap_traits@EPAUtagTMAGIC@@U?$less@E@std@@V?$allocator@U?$pair@$$CBEPAUtagTMAGIC@@@std@@@3@$0A@@std@@@std@@QAEXXZ ; std::_Tree<std::_Tmap_traits<unsigned char,tagTMAGIC *,std::less<unsigned char>,std::allocator<std::pair<unsigned char const ,tagTMAGIC *> >,0> >::const_iterator::_Inc

; 216  : 			return (*this);

  00008	8b c6		 mov	 eax, esi
  0000a	5e		 pop	 esi

; 217  : 			}

  0000b	c3		 ret	 0
??Econst_iterator@?$_Tree@V?$_Tmap_traits@EPAUtagTMAGIC@@U?$less@E@std@@V?$allocator@U?$pair@$$CBEPAUtagTMAGIC@@@std@@@3@$0A@@std@@@std@@QAEAAV012@XZ ENDP ; std::_Tree<std::_Tmap_traits<unsigned char,tagTMAGIC *,std::less<unsigned char>,std::allocator<std::pair<unsigned char const ,tagTMAGIC *> >,0> >::const_iterator::operator++
_TEXT	ENDS
PUBLIC	??1?$CStringT@DV?$StrTraitATL@DV?$ChTraitsCRT@D@ATL@@@ATL@@@ATL@@QAE@XZ ; ATL::CStringT<char,ATL::StrTraitATL<char,ATL::ChTraitsCRT<char> > >::~CStringT<char,ATL::StrTraitATL<char,ATL::ChTraitsCRT<char> > >
; Function compile flags: /Ogty
; File c:\program files (x86)\microsoft visual studio .net 2003\vc7\atlmfc\include\cstringt.h
;	COMDAT ??1?$CStringT@DV?$StrTraitATL@DV?$ChTraitsCRT@D@ATL@@@ATL@@@ATL@@QAE@XZ
_TEXT	SEGMENT
??1?$CStringT@DV?$StrTraitATL@DV?$ChTraitsCRT@D@ATL@@@ATL@@@ATL@@QAE@XZ PROC NEAR ; ATL::CStringT<char,ATL::StrTraitATL<char,ATL::ChTraitsCRT<char> > >::~CStringT<char,ATL::StrTraitATL<char,ATL::ChTraitsCRT<char> > >, COMDAT
; _this$ = ecx

; 963  : 	}

  00000	8b 01		 mov	 eax, DWORD PTR [ecx]
  00002	83 e8 10	 sub	 eax, 16			; 00000010H
  00005	8d 48 0c	 lea	 ecx, DWORD PTR [eax+12]
  00008	83 ca ff	 or	 edx, -1
  0000b	f0 0f c1 11	 lock	  xadd	 DWORD PTR [ecx], edx
  0000f	4a		 dec	 edx
  00010	85 d2		 test	 edx, edx
  00012	7f 08		 jg	 SHORT $L178533
  00014	8b 08		 mov	 ecx, DWORD PTR [eax]
  00016	8b 11		 mov	 edx, DWORD PTR [ecx]
  00018	50		 push	 eax
  00019	ff 52 04	 call	 DWORD PTR [edx+4]
$L178533:
  0001c	c3		 ret	 0
??1?$CStringT@DV?$StrTraitATL@DV?$ChTraitsCRT@D@ATL@@@ATL@@@ATL@@QAE@XZ ENDP ; ATL::CStringT<char,ATL::StrTraitATL<char,ATL::ChTraitsCRT<char> > >::~CStringT<char,ATL::StrTraitATL<char,ATL::ChTraitsCRT<char> > >
_TEXT	ENDS
PUBLIC	?PrepareWrite@?$CSimpleStringT@D$0A@@ATL@@AAEPADH@Z ; ATL::CSimpleStringT<char,0>::PrepareWrite
; Function compile flags: /Ogty
; File c:\program files (x86)\microsoft visual studio .net 2003\vc7\atlmfc\include\atlsimpstr.h
;	COMDAT ?PrepareWrite@?$CSimpleStringT@D$0A@@ATL@@AAEPADH@Z
_TEXT	SEGMENT
_nLength$ = 8						; size = 4
?PrepareWrite@?$CSimpleStringT@D$0A@@ATL@@AAEPADH@Z PROC NEAR ; ATL::CSimpleStringT<char,0>::PrepareWrite, COMDAT
; _this$ = ecx

; 734  : 	{

  00000	56		 push	 esi
  00001	8b f1		 mov	 esi, ecx

; 735  : 		CStringData* pOldData = GetData();

  00003	8b 06		 mov	 eax, DWORD PTR [esi]

; 736  : 		int nShared = 1-pOldData->nRefs;  // nShared < 0 means true, >= 0 means false

  00005	8b 50 fc	 mov	 edx, DWORD PTR [eax-4]
  00008	83 e8 10	 sub	 eax, 16			; 00000010H
  0000b	b9 01 00 00 00	 mov	 ecx, 1
  00010	2b ca		 sub	 ecx, edx

; 737  : 		int nTooShort = pOldData->nAllocLength-nLength;  // nTooShort < 0 means true, >= 0 means false

  00012	8b 50 08	 mov	 edx, DWORD PTR [eax+8]
  00015	8b 44 24 08	 mov	 eax, DWORD PTR _nLength$[esp]
  00019	2b d0		 sub	 edx, eax

; 738  : 		if( (nShared|nTooShort) < 0 )  // If either sign bit is set (i.e. either is less than zero), we need to copy data

  0001b	0b ca		 or	 ecx, edx
  0001d	7d 08		 jge	 SHORT $L178540

; 739  : 		{
; 740  : 			PrepareWrite2( nLength );

  0001f	50		 push	 eax
  00020	8b ce		 mov	 ecx, esi
  00022	e8 00 00 00 00	 call	 ?PrepareWrite2@?$CSimpleStringT@D$0A@@ATL@@AAEXH@Z ; ATL::CSimpleStringT<char,0>::PrepareWrite2
$L178540:

; 741  : 		}
; 742  : 
; 743  : 		return( m_pszData );

  00027	8b 06		 mov	 eax, DWORD PTR [esi]
  00029	5e		 pop	 esi

; 744  : 	}

  0002a	c2 04 00	 ret	 4
?PrepareWrite@?$CSimpleStringT@D$0A@@ATL@@AAEPADH@Z ENDP ; ATL::CSimpleStringT<char,0>::PrepareWrite
_TEXT	ENDS
PUBLIC	?GetBuffer@?$CSimpleStringT@D$0A@@ATL@@QAEPADH@Z ; ATL::CSimpleStringT<char,0>::GetBuffer
; Function compile flags: /Ogty
;	COMDAT ?GetBuffer@?$CSimpleStringT@D$0A@@ATL@@QAEPADH@Z
_TEXT	SEGMENT
_nMinBufferLength$ = 8					; size = 4
?GetBuffer@?$CSimpleStringT@D$0A@@ATL@@QAEPADH@Z PROC NEAR ; ATL::CSimpleStringT<char,0>::GetBuffer, COMDAT
; _this$ = ecx

; 489  : 	{

  00000	56		 push	 esi
  00001	8b f1		 mov	 esi, ecx

; 490  : 		return( PrepareWrite( nMinBufferLength ) );

  00003	8b 06		 mov	 eax, DWORD PTR [esi]
  00005	8b 50 fc	 mov	 edx, DWORD PTR [eax-4]
  00008	83 e8 10	 sub	 eax, 16			; 00000010H
  0000b	b9 01 00 00 00	 mov	 ecx, 1
  00010	2b ca		 sub	 ecx, edx
  00012	8b 50 08	 mov	 edx, DWORD PTR [eax+8]
  00015	8b 44 24 08	 mov	 eax, DWORD PTR _nMinBufferLength$[esp]
  00019	2b d0		 sub	 edx, eax
  0001b	0b ca		 or	 ecx, edx
  0001d	7d 08		 jge	 SHORT $L178557
  0001f	50		 push	 eax
  00020	8b ce		 mov	 ecx, esi
  00022	e8 00 00 00 00	 call	 ?PrepareWrite2@?$CSimpleStringT@D$0A@@ATL@@AAEXH@Z ; ATL::CSimpleStringT<char,0>::PrepareWrite2
$L178557:
  00027	8b 06		 mov	 eax, DWORD PTR [esi]
  00029	5e		 pop	 esi

; 491  : 	}

  0002a	c2 04 00	 ret	 4
?GetBuffer@?$CSimpleStringT@D$0A@@ATL@@QAEPADH@Z ENDP	; ATL::CSimpleStringT<char,0>::GetBuffer
_TEXT	ENDS
PUBLIC	?SetString@?$CSimpleStringT@D$0A@@ATL@@QAEXPBDH@Z ; ATL::CSimpleStringT<char,0>::SetString
; Function compile flags: /Ogty
;	COMDAT ?SetString@?$CSimpleStringT@D$0A@@ATL@@QAEXPBDH@Z
_TEXT	SEGMENT
_pszSrc$ = 8						; size = 4
_nLength$ = 12						; size = 4
?SetString@?$CSimpleStringT@D$0A@@ATL@@QAEXPBDH@Z PROC NEAR ; ATL::CSimpleStringT<char,0>::SetString, COMDAT
; _this$ = ecx

; 583  : 	{

  00000	53		 push	 ebx

; 584  : 		if( nLength == 0 )

  00001	8b 5c 24 0c	 mov	 ebx, DWORD PTR _nLength$[esp]
  00005	85 db		 test	 ebx, ebx
  00007	55		 push	 ebp
  00008	8b e9		 mov	 ebp, ecx
  0000a	75 0a		 jne	 SHORT $L149725

; 585  : 		{
; 586  : 			Empty();

  0000c	e8 00 00 00 00	 call	 ?Empty@?$CSimpleStringT@D$0A@@ATL@@QAEXXZ ; ATL::CSimpleStringT<char,0>::Empty
  00011	5d		 pop	 ebp
  00012	5b		 pop	 ebx

; 614  : 		}
; 615  : 	}

  00013	c2 08 00	 ret	 8
$L149725:

; 587  : 		}
; 588  : 		else
; 589  : 		{
; 590  : 			// It is possible that pszSrc points to a location inside of our 
; 591  : 			// buffer.  GetBuffer() might change m_pszData if (1) the buffer 
; 592  : 			// is shared or (2) the buffer is too small to hold the new 
; 593  : 			// string.  We detect this aliasing, and modify pszSrc to point
; 594  : 			// into the newly allocated buffer instead.
; 595  : 			
; 596  : 			if(pszSrc == NULL)

  00016	8b 54 24 0c	 mov	 edx, DWORD PTR _pszSrc$[esp+4]
  0001a	85 d2		 test	 edx, edx
  0001c	75 0a		 jne	 SHORT $L149727

; 612  : 			}
; 613  : 			ReleaseBufferSetLength( nLength );

$L178630:
  0001e	68 57 00 07 80	 push	 -2147024809		; 80070057H
  00023	e8 00 00 00 00	 call	 ?AtlThrow@ATL@@YGXJ@Z	; ATL::AtlThrow
$L178633:
$L149727:

; 597  : 				AtlThrow(E_INVALIDARG);			
; 598  : 				
; 599  : 			UINT nOldLength = GetLength();

  00028	8b 45 00	 mov	 eax, DWORD PTR [ebp]
  0002b	56		 push	 esi

; 600  : 			UINT_PTR nOffset = pszSrc-GetString();

  0002c	8b f2		 mov	 esi, edx
  0002e	2b f0		 sub	 esi, eax

; 601  : 			// If 0 <= nOffset <= nOldLength, then pszSrc points into our 
; 602  : 			// buffer
; 603  : 
; 604  : 			PXSTR pszBuffer = GetBuffer( nLength );

  00030	b9 01 00 00 00	 mov	 ecx, 1
  00035	2b 48 fc	 sub	 ecx, DWORD PTR [eax-4]
  00038	57		 push	 edi
  00039	8b 78 f4	 mov	 edi, DWORD PTR [eax-12]
  0003c	8b 40 f8	 mov	 eax, DWORD PTR [eax-8]
  0003f	2b c3		 sub	 eax, ebx
  00041	0b c8		 or	 ecx, eax
  00043	7d 0c		 jge	 SHORT $L178594
  00045	53		 push	 ebx
  00046	8b cd		 mov	 ecx, ebp
  00048	e8 00 00 00 00	 call	 ?PrepareWrite2@?$CSimpleStringT@D$0A@@ATL@@AAEXH@Z ; ATL::CSimpleStringT<char,0>::PrepareWrite2
  0004d	8b 54 24 14	 mov	 edx, DWORD PTR _pszSrc$[esp+12]
$L178594:

; 605  : 			if( nOffset <= nOldLength )

  00051	3b f7		 cmp	 esi, edi
  00053	8b 45 00	 mov	 eax, DWORD PTR [ebp]
  00056	77 10		 ja	 SHORT $L149732

; 606  : 			{
; 607  : 				CopyCharsOverlapped( pszBuffer, pszBuffer+nOffset, nLength );

  00058	53		 push	 ebx
  00059	8d 0c 30	 lea	 ecx, DWORD PTR [eax+esi]
  0005c	51		 push	 ecx
  0005d	50		 push	 eax
  0005e	e8 00 00 00 00	 call	 _memmove
  00063	83 c4 0c	 add	 esp, 12			; 0000000cH

; 608  : 			}
; 609  : 			else

  00066	eb 14		 jmp	 SHORT $L178603
$L149732:

; 610  : 			{
; 611  : 				CopyChars( pszBuffer, pszSrc, nLength );

  00068	8b cb		 mov	 ecx, ebx
  0006a	8b f2		 mov	 esi, edx
  0006c	8b d1		 mov	 edx, ecx
  0006e	c1 e9 02	 shr	 ecx, 2
  00071	8b f8		 mov	 edi, eax
  00073	f3 a5		 rep movsd
  00075	8b ca		 mov	 ecx, edx
  00077	83 e1 03	 and	 ecx, 3
  0007a	f3 a4		 rep movsb
$L178603:

; 612  : 			}
; 613  : 			ReleaseBufferSetLength( nLength );

  0007c	85 db		 test	 ebx, ebx
  0007e	5f		 pop	 edi
  0007f	5e		 pop	 esi
  00080	7c 9c		 jl	 SHORT $L178630
  00082	8b 45 00	 mov	 eax, DWORD PTR [ebp]
  00085	3b 58 f8	 cmp	 ebx, DWORD PTR [eax-8]
  00088	7f 94		 jg	 SHORT $L178630
  0008a	89 58 f4	 mov	 DWORD PTR [eax-12], ebx
  0008d	8b 45 00	 mov	 eax, DWORD PTR [ebp]
  00090	5d		 pop	 ebp
  00091	c6 04 03 00	 mov	 BYTE PTR [ebx+eax], 0
  00095	5b		 pop	 ebx

; 614  : 		}
; 615  : 	}

  00096	c2 08 00	 ret	 8
$L178632:
?SetString@?$CSimpleStringT@D$0A@@ATL@@QAEXPBDH@Z ENDP	; ATL::CSimpleStringT<char,0>::SetString
_TEXT	ENDS
PUBLIC	?LogMoneyTrade@CUdpSocket@@QAEXKPAVCTPlayer@@V?$CStringT@DV?$StrTraitATL@DV?$ChTraitsCRT@D@ATL@@@ATL@@@ATL@@_JH@Z ; CUdpSocket::LogMoneyTrade
EXTRN	__except_list:DWORD
EXTRN	___CxxFrameHandler:NEAR
;	COMDAT xdata$x
xdata$x	SEGMENT
$T178733 DD	0ffffffffH
	DD	FLAT:$L178640
$T178727 DD	019930520H
	DD	01H
	DD	FLAT:$T178733
	DD	2 DUP(00H)
	DD	2 DUP(00H)
; Function compile flags: /Ogty
; File c:\users\pierr\desktop\4story - oldschool\sources\tserver\tmapsvr\udpsocket.cpp
xdata$x	ENDS
;	COMDAT ?LogMoneyTrade@CUdpSocket@@QAEXKPAVCTPlayer@@V?$CStringT@DV?$StrTraitATL@DV?$ChTraitsCRT@D@ATL@@@ATL@@@ATL@@_JH@Z
_TEXT	SEGMENT
_this$ = -1036						; size = 4
_LogData$ = -1032					; size = 1016
__$ArrayPad$ = -16					; size = 4
__$EHRec$ = -12						; size = 12
__$ReturnAddr$ = 4					; size = 4
_pAction$ = 8						; size = 4
_pPlayer$ = 12						; size = 4
_pTargetName$ = 16					; size = 4
_pMoney$ = 20						; size = 8
_pCost$ = 28						; size = 4
?LogMoneyTrade@CUdpSocket@@QAEXKPAVCTPlayer@@V?$CStringT@DV?$StrTraitATL@DV?$ChTraitsCRT@D@ATL@@@ATL@@@ATL@@_JH@Z PROC NEAR ; CUdpSocket::LogMoneyTrade, COMDAT
; _this$ = ecx

; 722  : {

  00000	6a ff		 push	 -1
  00002	68 00 00 00 00	 push	 __ehhandler$?LogMoneyTrade@CUdpSocket@@QAEXKPAVCTPlayer@@V?$CStringT@DV?$StrTraitATL@DV?$ChTraitsCRT@D@ATL@@@ATL@@@ATL@@_JH@Z
  00007	64 a1 00 00 00
	00		 mov	 eax, DWORD PTR fs:__except_list
  0000d	50		 push	 eax
  0000e	64 89 25 00 00
	00 00		 mov	 DWORD PTR fs:__except_list, esp
  00015	81 ec 00 04 00
	00		 sub	 esp, 1024		; 00000400H
  0001b	a1 00 00 00 00	 mov	 eax, DWORD PTR ___security_cookie
  00020	53		 push	 ebx
  00021	55		 push	 ebp
  00022	56		 push	 esi
  00023	89 84 24 08 04
	00 00		 mov	 DWORD PTR __$ArrayPad$[esp+1048], eax
  0002a	57		 push	 edi
  0002b	89 4c 24 10	 mov	 DWORD PTR _this$[esp+1052], ecx

; 723  : 	if(!pPlayer) return;

  0002f	8b b4 24 24 04
	00 00		 mov	 esi, DWORD PTR _pPlayer$[esp+1048]
  00036	33 ed		 xor	 ebp, ebp
  00038	3b f5		 cmp	 esi, ebp
  0003a	89 ac 24 18 04
	00 00		 mov	 DWORD PTR __$EHRec$[esp+1060], ebp
  00041	75 0f		 jne	 SHORT $L175573
  00043	8b 84 24 28 04
	00 00		 mov	 eax, DWORD PTR _pTargetName$[esp+1048]
  0004a	83 c0 f0	 add	 eax, -16		; fffffff0H
  0004d	e9 87 01 00 00	 jmp	 $L178732
$L175573:

; 724  : 
; 725  : 	_LOG_DATA_ LogData;
; 726  : 	memset( &LogData, 0x00, sizeof(_LOG_DATA_));
; 727  : 
; 728  : 	LogData.dwAction	=	pAction;
; 729  : 	LogData.dwServerID	=	_AtlModule.GetServerID();
; 730  : 
; 731  : 	lstrcpy( LogData.szClientIP, inet_ntoa(pPlayer->m_addr.sin_addr) );

  00052	8b 56 40	 mov	 edx, DWORD PTR [esi+64]
  00055	33 c0		 xor	 eax, eax
  00057	b9 fe 00 00 00	 mov	 ecx, 254		; 000000feH
  0005c	8d 7c 24 14	 lea	 edi, DWORD PTR _LogData$[esp+1052]
  00060	f3 ab		 rep stosd
  00062	0f b6 0d 82 9e
	00 00		 movzx	 ecx, BYTE PTR ?_AtlModule@@3VCTMapSvrModule@@A+40578
  00069	8b 84 24 20 04
	00 00		 mov	 eax, DWORD PTR _pAction$[esp+1048]
  00070	52		 push	 edx
  00071	89 44 24 3c	 mov	 DWORD PTR _LogData$[esp+1092], eax
  00075	89 4c 24 28	 mov	 DWORD PTR _LogData$[esp+1072], ecx
  00079	ff 15 00 00 00
	00		 call	 DWORD PTR __imp__inet_ntoa@4
  0007f	8b 3d 00 00 00
	00		 mov	 edi, DWORD PTR __imp__lstrcpyA@8
  00085	50		 push	 eax
  00086	8d 44 24 2c	 lea	 eax, DWORD PTR _LogData$[esp+1076]
  0008a	50		 push	 eax
  0008b	ff d7		 call	 edi

; 732  : 		
; 733  : 	LogData.wMapID			=	pPlayer->m_wMapID;				//	Map ID

  0008d	66 8b 8e 90 01
	01 00		 mov	 cx, WORD PTR [esi+65936]

; 734  : 	LogData.nX				=	(int)pPlayer->m_fPosX;			//	X

  00094	d9 86 7c 01 01
	00		 fld	 DWORD PTR [esi+65916]
  0009a	66 89 4c 24 3c	 mov	 WORD PTR _LogData$[esp+1092], cx
  0009f	e8 00 00 00 00	 call	 __ftol2

; 735  : 	LogData.nY				=	(int)pPlayer->m_fPosY;			//	Y

  000a4	d9 86 80 01 01
	00		 fld	 DWORD PTR [esi+65920]
  000aa	89 44 24 40	 mov	 DWORD PTR _LogData$[esp+1096], eax
  000ae	e8 00 00 00 00	 call	 __ftol2

; 736  : 	LogData.nZ				=	(int)pPlayer->m_fPosZ;			//	Z

  000b3	d9 86 84 01 01
	00		 fld	 DWORD PTR [esi+65924]
  000b9	89 44 24 44	 mov	 DWORD PTR _LogData$[esp+1100], eax
  000bd	e8 00 00 00 00	 call	 __ftol2

; 737  : 	
; 738  : 	LogData.dwKey[0]		=	pPlayer->m_dwUserID;			//	User ID

  000c2	8b 96 ac 03 01
	00		 mov	 edx, DWORD PTR [esi+66476]
  000c8	89 44 24 48	 mov	 DWORD PTR _LogData$[esp+1104], eax

; 739  : 	LogData.dwKey[1]		=	pPlayer->m_dwID;				//	Character Seq

  000cc	8b 86 44 01 01
	00		 mov	 eax, DWORD PTR [esi+65860]
  000d2	89 44 24 54	 mov	 DWORD PTR _LogData$[esp+1116], eax

; 740  : 	lstrcpy(LogData.szKey[1],	pPlayer->m_strNAME	);			//	Character Name

  000d6	8b 86 a4 03 01
	00		 mov	 eax, DWORD PTR [esi+66468]
  000dc	50		 push	 eax
  000dd	8d 8c 24 da 00
	00 00		 lea	 ecx, DWORD PTR _LogData$[esp+1250]
  000e4	51		 push	 ecx
  000e5	89 54 24 54	 mov	 DWORD PTR _LogData$[esp+1116], edx
  000e9	89 6c 24 58	 mov	 DWORD PTR _LogData$[esp+1120], ebp
  000ed	89 6c 24 60	 mov	 DWORD PTR _LogData$[esp+1128], ebp
  000f1	ff d7		 call	 edi

; 741  : 
; 742  : 	LogData.dwKey[9]		=	pPlayer->m_bCountry + (pPlayer->m_bAidCountry == TCONTRY_N ? 0 : (pPlayer->m_bAidCountry+1)*10);			//	Country

  000f3	8a 86 9e 01 01
	00		 mov	 al, BYTE PTR [esi+65950]
  000f9	3c 03		 cmp	 al, 3
  000fb	75 04		 jne	 SHORT $L178638
  000fd	33 c9		 xor	 ecx, ecx
  000ff	eb 09		 jmp	 SHORT $L178639
$L178638:
  00101	0f b6 c0	 movzx	 eax, al
  00104	40		 inc	 eax
  00105	8d 0c 80	 lea	 ecx, DWORD PTR [eax+eax*4]
  00108	d1 e1		 shl	 ecx, 1
$L178639:
  0010a	0f b6 86 9d 01
	01 00		 movzx	 eax, BYTE PTR [esi+65949]

; 743  : 	LogData.dwKey[10]		=	pPlayer->m_bLevel;				//	Level
; 744  : 
; 745  : 
; 746  : 	//	Target Name
; 747  : 	if( pTargetName.GetLength() && pTargetName.GetLength() < sizeof(LogData.szKey[1]) )

  00111	8b 9c 24 28 04
	00 00		 mov	 ebx, DWORD PTR _pTargetName$[esp+1048]
  00118	03 c1		 add	 eax, ecx
  0011a	99		 cdq
  0011b	89 84 24 94 00
	00 00		 mov	 DWORD PTR _LogData$[esp+1180], eax
  00122	0f b6 86 7b 01
	01 00		 movzx	 eax, BYTE PTR [esi+65915]
  00129	89 94 24 98 00
	00 00		 mov	 DWORD PTR _LogData$[esp+1184], edx
  00130	99		 cdq
  00131	89 84 24 9c 00
	00 00		 mov	 DWORD PTR _LogData$[esp+1188], eax
  00138	89 94 24 a0 00
	00 00		 mov	 DWORD PTR _LogData$[esp+1192], edx
  0013f	8b 43 f4	 mov	 eax, DWORD PTR [ebx-12]
  00142	3b c5		 cmp	 eax, ebp
  00144	74 10		 je	 SHORT $L175579
  00146	83 f8 32	 cmp	 eax, 50			; 00000032H
  00149	73 0b		 jae	 SHORT $L175579

; 748  : 	{
; 749  : 		lstrcpy(LogData.szKey[2], pTargetName);

  0014b	53		 push	 ebx
  0014c	8d 94 24 0c 01
	00 00		 lea	 edx, DWORD PTR _LogData$[esp+1300]
  00153	52		 push	 edx
  00154	ff d7		 call	 edi
$L175579:

; 750  : 	}
; 751  : 
; 752  : 	LogData.dwKey[5]		=	pMoney;							//	Get Money   

  00156	8b 84 24 2c 04
	00 00		 mov	 eax, DWORD PTR _pMoney$[esp+1048]

; 753  : 	wsprintf( LogData.szKey[5], "Now Money : %u/%u/%u",			//	Now Money
; 754  : 											pPlayer->m_dwGold,		
; 755  : 											pPlayer->m_dwSilver, 
; 756  : 											pPlayer->m_dwCooper );	

  0015d	8b 96 c8 03 01
	00		 mov	 edx, DWORD PTR [esi+66504]
  00163	8b 8c 24 30 04
	00 00		 mov	 ecx, DWORD PTR _pMoney$[esp+1052]
  0016a	52		 push	 edx
  0016b	89 44 24 78	 mov	 DWORD PTR _LogData$[esp+1152], eax
  0016f	8b 86 cc 03 01
	00		 mov	 eax, DWORD PTR [esi+66508]
  00175	50		 push	 eax
  00176	89 8c 24 80 00
	00 00		 mov	 DWORD PTR _LogData$[esp+1160], ecx
  0017d	8b 8e d0 03 01
	00		 mov	 ecx, DWORD PTR [esi+66512]
  00183	51		 push	 ecx
  00184	8d 94 24 aa 01
	00 00		 lea	 edx, DWORD PTR _LogData$[esp+1458]
  0018b	68 00 00 00 00	 push	 OFFSET FLAT:??_C@_0BF@LNLPBIJG@Now?5Money?5?3?5?$CFu?1?$CFu?1?$CFu?$AA@
  00190	52		 push	 edx
  00191	ff 15 00 00 00
	00		 call	 DWORD PTR __imp__wsprintfA

; 757  :     
; 758  : 	LogData.dwKey[6]		=	pCost;

  00197	8b 84 24 48 04
	00 00		 mov	 eax, DWORD PTR _pCost$[esp+1068]
  0019e	99		 cdq

; 759  : 
; 760  : 
; 761  : 	LogData.dwFormat = LF_TEXT;
; 762  : 
; 763  : 	SendDMLog( LogData );

  0019f	81 ec e4 03 00
	00		 sub	 esp, 996		; 000003e4H
  001a5	8b fc		 mov	 edi, esp
  001a7	89 84 24 74 04
	00 00		 mov	 DWORD PTR _LogData$[esp+2172], eax
  001ae	89 94 24 78 04
	00 00		 mov	 DWORD PTR _LogData$[esp+2176], edx
  001b5	89 ac 24 fc 05
	00 00		 mov	 DWORD PTR _LogData$[esp+2564], ebp
  001bc	b9 fe 00 00 00	 mov	 ecx, 254		; 000000feH
  001c1	8d b4 24 0c 04
	00 00		 lea	 esi, DWORD PTR _LogData$[esp+2068]
  001c8	f3 a5		 rep movsd
  001ca	8b 8c 24 08 04
	00 00		 mov	 ecx, DWORD PTR _this$[esp+2068]
  001d1	e8 00 00 00 00	 call	 ?SendDMLog@CUdpSocket@@QAEXU_LOG_DATA_@@@Z ; CUdpSocket::SendDMLog

; 764  : }

  001d6	8d 43 f0	 lea	 eax, DWORD PTR [ebx-16]
$L178732:
  001d9	c7 84 24 18 04
	00 00 ff ff ff
	ff		 mov	 DWORD PTR __$EHRec$[esp+1060], -1
  001e4	8d 48 0c	 lea	 ecx, DWORD PTR [eax+12]
  001e7	83 ca ff	 or	 edx, -1
  001ea	f0 0f c1 11	 lock	  xadd	 DWORD PTR [ecx], edx
  001ee	4a		 dec	 edx
  001ef	85 d2		 test	 edx, edx
  001f1	7f 08		 jg	 SHORT $L178723
  001f3	8b 08		 mov	 ecx, DWORD PTR [eax]
  001f5	8b 11		 mov	 edx, DWORD PTR [ecx]
  001f7	50		 push	 eax
  001f8	ff 52 04	 call	 DWORD PTR [edx+4]
$L178723:
  001fb	8b 8c 24 10 04
	00 00		 mov	 ecx, DWORD PTR __$EHRec$[esp+1052]
  00202	64 89 0d 00 00
	00 00		 mov	 DWORD PTR fs:__except_list, ecx
  00209	8b 8c 24 0c 04
	00 00		 mov	 ecx, DWORD PTR __$ArrayPad$[esp+1052]
  00210	e8 00 00 00 00	 call	 @__security_check_cookie@4
  00215	5f		 pop	 edi
  00216	5e		 pop	 esi
  00217	5d		 pop	 ebp
  00218	5b		 pop	 ebx
  00219	81 c4 0c 04 00
	00		 add	 esp, 1036		; 0000040cH
  0021f	c2 18 00	 ret	 24			; 00000018H
_TEXT	ENDS
;	COMDAT text$x
text$x	SEGMENT
$L178640:
  00000	8d 4d 0c	 lea	 ecx, DWORD PTR _pTargetName$[ebp-4]
  00003	e9 00 00 00 00	 jmp	 ??1?$CStringT@DV?$StrTraitATL@DV?$ChTraitsCRT@D@ATL@@@ATL@@@ATL@@QAE@XZ ; ATL::CStringT<char,ATL::StrTraitATL<char,ATL::ChTraitsCRT<char> > >::~CStringT<char,ATL::StrTraitATL<char,ATL::ChTraitsCRT<char> > >
__ehhandler$?LogMoneyTrade@CUdpSocket@@QAEXKPAVCTPlayer@@V?$CStringT@DV?$StrTraitATL@DV?$ChTraitsCRT@D@ATL@@@ATL@@@ATL@@_JH@Z:
  00008	b8 00 00 00 00	 mov	 eax, OFFSET FLAT:$T178727
  0000d	e9 00 00 00 00	 jmp	 ___CxxFrameHandler
text$x	ENDS
?LogMoneyTrade@CUdpSocket@@QAEXKPAVCTPlayer@@V?$CStringT@DV?$StrTraitATL@DV?$ChTraitsCRT@D@ATL@@@ATL@@@ATL@@_JH@Z ENDP ; CUdpSocket::LogMoneyTrade
PUBLIC	?LogPet@CUdpSocket@@QAEXKPAVCTPlayer@@GV?$CStringT@DV?$StrTraitATL@DV?$ChTraitsCRT@D@ATL@@@ATL@@@ATL@@_J@Z ; CUdpSocket::LogPet
;	COMDAT xdata$x
; File c:\program files (x86)\microsoft visual studio .net 2003\vc7\atlmfc\include\atlsimpstr.h
xdata$x	SEGMENT
$T178828 DD	0ffffffffH
	DD	FLAT:$L178743
$T178823 DD	019930520H
	DD	01H
	DD	FLAT:$T178828
	DD	2 DUP(00H)
	DD	2 DUP(00H)
; Function compile flags: /Ogty
; File c:\users\pierr\desktop\4story - oldschool\sources\tserver\tmapsvr\udpsocket.cpp
xdata$x	ENDS
;	COMDAT ?LogPet@CUdpSocket@@QAEXKPAVCTPlayer@@GV?$CStringT@DV?$StrTraitATL@DV?$ChTraitsCRT@D@ATL@@@ATL@@@ATL@@_J@Z
_TEXT	SEGMENT
_this$ = -1036						; size = 4
_LogData$ = -1032					; size = 1016
__$ArrayPad$ = -16					; size = 4
__$EHRec$ = -12						; size = 12
__$ReturnAddr$ = 4					; size = 4
_pAction$ = 8						; size = 4
_pPlayer$ = 12						; size = 4
_wPeID$ = 16						; size = 2
_strName$ = 20						; size = 4
_dwTime$ = 24						; size = 8
?LogPet@CUdpSocket@@QAEXKPAVCTPlayer@@GV?$CStringT@DV?$StrTraitATL@DV?$ChTraitsCRT@D@ATL@@@ATL@@@ATL@@_J@Z PROC NEAR ; CUdpSocket::LogPet, COMDAT
; _this$ = ecx

; 984  : {

  00000	6a ff		 push	 -1
  00002	68 00 00 00 00	 push	 __ehhandler$?LogPet@CUdpSocket@@QAEXKPAVCTPlayer@@GV?$CStringT@DV?$StrTraitATL@DV?$ChTraitsCRT@D@ATL@@@ATL@@@ATL@@_J@Z
  00007	64 a1 00 00 00
	00		 mov	 eax, DWORD PTR fs:__except_list
  0000d	50		 push	 eax
  0000e	64 89 25 00 00
	00 00		 mov	 DWORD PTR fs:__except_list, esp
  00015	81 ec 00 04 00
	00		 sub	 esp, 1024		; 00000400H
  0001b	a1 00 00 00 00	 mov	 eax, DWORD PTR ___security_cookie
  00020	53		 push	 ebx
  00021	55		 push	 ebp
  00022	56		 push	 esi
  00023	89 84 24 08 04
	00 00		 mov	 DWORD PTR __$ArrayPad$[esp+1048], eax
  0002a	57		 push	 edi
  0002b	89 4c 24 10	 mov	 DWORD PTR _this$[esp+1052], ecx

; 985  : 	if(!pPlayer) return;

  0002f	8b b4 24 24 04
	00 00		 mov	 esi, DWORD PTR _pPlayer$[esp+1048]
  00036	33 db		 xor	 ebx, ebx
  00038	3b f3		 cmp	 esi, ebx
  0003a	89 9c 24 18 04
	00 00		 mov	 DWORD PTR __$EHRec$[esp+1060], ebx
  00041	75 0f		 jne	 SHORT $L175660
  00043	8b 84 24 2c 04
	00 00		 mov	 eax, DWORD PTR _strName$[esp+1048]
  0004a	83 c0 f0	 add	 eax, -16		; fffffff0H
  0004d	e9 a8 01 00 00	 jmp	 $L178827
$L175660:

; 986  : 
; 987  : 	_LOG_DATA_ LogData;
; 988  : 	memset( &LogData, 0x00, sizeof(_LOG_DATA_));
; 989  : 
; 990  : 	LogData.dwAction	=	pAction;
; 991  : 	LogData.dwServerID	=	_AtlModule.GetServerID();
; 992  : 
; 993  : 	lstrcpy( LogData.szClientIP, inet_ntoa(pPlayer->m_addr.sin_addr) );

  00052	8b 56 40	 mov	 edx, DWORD PTR [esi+64]
  00055	33 c0		 xor	 eax, eax
  00057	b9 fe 00 00 00	 mov	 ecx, 254		; 000000feH
  0005c	8d 7c 24 14	 lea	 edi, DWORD PTR _LogData$[esp+1052]
  00060	f3 ab		 rep stosd
  00062	0f b6 0d 82 9e
	00 00		 movzx	 ecx, BYTE PTR ?_AtlModule@@3VCTMapSvrModule@@A+40578
  00069	8b 84 24 20 04
	00 00		 mov	 eax, DWORD PTR _pAction$[esp+1048]
  00070	52		 push	 edx
  00071	89 44 24 3c	 mov	 DWORD PTR _LogData$[esp+1092], eax
  00075	89 4c 24 28	 mov	 DWORD PTR _LogData$[esp+1072], ecx
  00079	ff 15 00 00 00
	00		 call	 DWORD PTR __imp__inet_ntoa@4
  0007f	8b 3d 00 00 00
	00		 mov	 edi, DWORD PTR __imp__lstrcpyA@8
  00085	50		 push	 eax
  00086	8d 44 24 2c	 lea	 eax, DWORD PTR _LogData$[esp+1076]
  0008a	50		 push	 eax
  0008b	ff d7		 call	 edi

; 994  : 		
; 995  : 	LogData.wMapID			=	pPlayer->m_wMapID;				//	Map ID

  0008d	66 8b 8e 90 01
	01 00		 mov	 cx, WORD PTR [esi+65936]

; 996  : 	LogData.nX				=	(int)pPlayer->m_fPosX;			//	X

  00094	d9 86 7c 01 01
	00		 fld	 DWORD PTR [esi+65916]
  0009a	66 89 4c 24 3c	 mov	 WORD PTR _LogData$[esp+1092], cx
  0009f	e8 00 00 00 00	 call	 __ftol2

; 997  : 	LogData.nY				=	(int)pPlayer->m_fPosY;			//	Y

  000a4	d9 86 80 01 01
	00		 fld	 DWORD PTR [esi+65920]
  000aa	89 44 24 40	 mov	 DWORD PTR _LogData$[esp+1096], eax
  000ae	e8 00 00 00 00	 call	 __ftol2

; 998  : 	LogData.nZ				=	(int)pPlayer->m_fPosZ;			//	Z

  000b3	d9 86 84 01 01
	00		 fld	 DWORD PTR [esi+65924]
  000b9	89 44 24 44	 mov	 DWORD PTR _LogData$[esp+1100], eax
  000bd	e8 00 00 00 00	 call	 __ftol2

; 999  : 	
; 1000 : 	LogData.dwKey[0]		=	pPlayer->m_dwUserID;			//	User ID

  000c2	8b 96 ac 03 01
	00		 mov	 edx, DWORD PTR [esi+66476]
  000c8	89 44 24 48	 mov	 DWORD PTR _LogData$[esp+1104], eax

; 1001 : 	LogData.dwKey[1]		=	pPlayer->m_dwID;				//	Character Seq

  000cc	8b 86 44 01 01
	00		 mov	 eax, DWORD PTR [esi+65860]
  000d2	89 44 24 54	 mov	 DWORD PTR _LogData$[esp+1116], eax

; 1002 : 	lstrcpy(LogData.szKey[1],	pPlayer->m_strNAME	);			//	Character Name

  000d6	8b 86 a4 03 01
	00		 mov	 eax, DWORD PTR [esi+66468]
  000dc	50		 push	 eax
  000dd	8d 8c 24 da 00
	00 00		 lea	 ecx, DWORD PTR _LogData$[esp+1250]
  000e4	51		 push	 ecx
  000e5	89 54 24 54	 mov	 DWORD PTR _LogData$[esp+1116], edx
  000e9	89 5c 24 58	 mov	 DWORD PTR _LogData$[esp+1120], ebx
  000ed	89 5c 24 60	 mov	 DWORD PTR _LogData$[esp+1128], ebx
  000f1	ff d7		 call	 edi

; 1003 : 
; 1004 : 	LogData.dwKey[9]		=	pPlayer->m_bCountry + (pPlayer->m_bAidCountry == TCONTRY_N ? 0 : (pPlayer->m_bAidCountry+1)*10);			//	Country

  000f3	8a 86 9e 01 01
	00		 mov	 al, BYTE PTR [esi+65950]
  000f9	3c 03		 cmp	 al, 3
  000fb	75 04		 jne	 SHORT $L178741
  000fd	33 c9		 xor	 ecx, ecx
  000ff	eb 09		 jmp	 SHORT $L178742
$L178741:
  00101	0f b6 c0	 movzx	 eax, al
  00104	40		 inc	 eax
  00105	8d 0c 80	 lea	 ecx, DWORD PTR [eax+eax*4]
  00108	d1 e1		 shl	 ecx, 1
$L178742:
  0010a	0f b6 86 9d 01
	01 00		 movzx	 eax, BYTE PTR [esi+65949]

; 1005 : 	LogData.dwKey[10]		=	pPlayer->m_bLevel;				//	Level
; 1006 : 
; 1007 : 
; 1008 : 	LogData.dwKey[3]		=	wPeID;							// Pet

  00111	0f b7 ac 24 28
	04 00 00	 movzx	 ebp, WORD PTR _wPeID$[esp+1048]

; 1009 : 	if(strName)

  00119	8b 9c 24 2c 04
	00 00		 mov	 ebx, DWORD PTR _strName$[esp+1048]
  00120	03 c1		 add	 eax, ecx
  00122	85 db		 test	 ebx, ebx
  00124	99		 cdq
  00125	89 84 24 94 00
	00 00		 mov	 DWORD PTR _LogData$[esp+1180], eax
  0012c	0f b6 86 7b 01
	01 00		 movzx	 eax, BYTE PTR [esi+65915]
  00133	89 94 24 98 00
	00 00		 mov	 DWORD PTR _LogData$[esp+1184], edx
  0013a	99		 cdq
  0013b	89 84 24 9c 00
	00 00		 mov	 DWORD PTR _LogData$[esp+1188], eax
  00142	8b c5		 mov	 eax, ebp
  00144	89 94 24 a0 00
	00 00		 mov	 DWORD PTR _LogData$[esp+1192], edx
  0014b	99		 cdq
  0014c	89 44 24 64	 mov	 DWORD PTR _LogData$[esp+1132], eax
  00150	89 54 24 68	 mov	 DWORD PTR _LogData$[esp+1136], edx
  00154	74 0b		 je	 SHORT $L175666

; 1010 : 	{
; 1011 : 		lstrcpy( LogData.szKey[3], strName );					//	Pet Name

  00156	53		 push	 ebx
  00157	8d 94 24 3e 01
	00 00		 lea	 edx, DWORD PTR _LogData$[esp+1350]
  0015e	52		 push	 edx
  0015f	ff d7		 call	 edi
$L175666:

; 1012 : 	}
; 1013 : 
; 1014 : 	LogData.dwKey[6]		=	dwTime;							// Time
; 1015 : 
; 1016 : 	//
; 1017 : 	//	ITEM INFO
; 1018 : 	//
; 1019 : 	LogData.dwFormat = LF_PET;
; 1020 : 
; 1021 : 
; 1022 : 	_LPLOG_PET_ pLogPet = (_LPLOG_PET_)LogData.szLog;
; 1023 : 
; 1024 : 	
; 1025 : 	pLogPet->dwCharID		=	pPlayer->m_dwID;				//	Character ID

  00161	8b 96 44 01 01
	00		 mov	 edx, DWORD PTR [esi+65860]
  00167	8b 84 24 30 04
	00 00		 mov	 eax, DWORD PTR _dwTime$[esp+1048]

; 1026 : 	lstrcpy(pLogPet->szName,	pPlayer->m_strNAME	);			//	Character Name

  0016e	8b b6 a4 03 01
	00		 mov	 esi, DWORD PTR [esi+66468]
  00174	8b 8c 24 34 04
	00 00		 mov	 ecx, DWORD PTR _dwTime$[esp+1052]
  0017b	89 44 24 7c	 mov	 DWORD PTR _LogData$[esp+1156], eax
  0017f	56		 push	 esi
  00180	8d 84 24 10 02
	00 00		 lea	 eax, DWORD PTR _LogData$[esp+1560]
  00187	50		 push	 eax
  00188	89 8c 24 88 00
	00 00		 mov	 DWORD PTR _LogData$[esp+1168], ecx
  0018f	c7 84 24 0c 02
	00 00 04 00 00
	00		 mov	 DWORD PTR _LogData$[esp+1556], 4
  0019a	89 94 24 10 02
	00 00		 mov	 DWORD PTR _LogData$[esp+1560], edx
  001a1	ff d7		 call	 edi

; 1027 : 	pLogPet->m_wPetID		=	wPeID;							//  Pet ID
; 1028 : 	if(strName)

  001a3	85 db		 test	 ebx, ebx
  001a5	89 ac 24 20 02
	00 00		 mov	 DWORD PTR _LogData$[esp+1576], ebp
  001ac	74 0b		 je	 SHORT $L175669

; 1029 : 	{
; 1030 :         lstrcpy(pLogPet->szPetName, strName				);		//  Pet Name

  001ae	53		 push	 ebx
  001af	8d 8c 24 28 02
	00 00		 lea	 ecx, DWORD PTR _LogData$[esp+1584]
  001b6	51		 push	 ecx
  001b7	ff d7		 call	 edi
$L175669:

; 1031 : 	}
; 1032 : 	pLogPet->m_ldwTime		=	dwTime;							//	Pet Tiem	

  001b9	8b 94 24 30 04
	00 00		 mov	 edx, DWORD PTR _dwTime$[esp+1048]
  001c0	8b 84 24 34 04
	00 00		 mov	 eax, DWORD PTR _dwTime$[esp+1052]

; 1033 : 
; 1034 : 	SendDMLog( LogData );

  001c7	81 ec f8 03 00
	00		 sub	 esp, 1016		; 000003f8H
  001cd	8b fc		 mov	 edi, esp
  001cf	89 94 24 30 06
	00 00		 mov	 DWORD PTR _LogData$[esp+2616], edx
  001d6	89 84 24 34 06
	00 00		 mov	 DWORD PTR _LogData$[esp+2620], eax
  001dd	b9 fe 00 00 00	 mov	 ecx, 254		; 000000feH
  001e2	8d b4 24 0c 04
	00 00		 lea	 esi, DWORD PTR _LogData$[esp+2068]
  001e9	f3 a5		 rep movsd
  001eb	8b 8c 24 08 04
	00 00		 mov	 ecx, DWORD PTR _this$[esp+2068]
  001f2	e8 00 00 00 00	 call	 ?SendDMLog@CUdpSocket@@QAEXU_LOG_DATA_@@@Z ; CUdpSocket::SendDMLog

; 1035 : }

  001f7	8d 43 f0	 lea	 eax, DWORD PTR [ebx-16]
$L178827:
  001fa	c7 84 24 18 04
	00 00 ff ff ff
	ff		 mov	 DWORD PTR __$EHRec$[esp+1060], -1
  00205	8d 48 0c	 lea	 ecx, DWORD PTR [eax+12]
  00208	83 ca ff	 or	 edx, -1
  0020b	f0 0f c1 11	 lock	  xadd	 DWORD PTR [ecx], edx
  0020f	4a		 dec	 edx
  00210	85 d2		 test	 edx, edx
  00212	7f 08		 jg	 SHORT $L178821
  00214	8b 08		 mov	 ecx, DWORD PTR [eax]
  00216	8b 11		 mov	 edx, DWORD PTR [ecx]
  00218	50		 push	 eax
  00219	ff 52 04	 call	 DWORD PTR [edx+4]
$L178821:
  0021c	8b 8c 24 10 04
	00 00		 mov	 ecx, DWORD PTR __$EHRec$[esp+1052]
  00223	64 89 0d 00 00
	00 00		 mov	 DWORD PTR fs:__except_list, ecx
  0022a	8b 8c 24 0c 04
	00 00		 mov	 ecx, DWORD PTR __$ArrayPad$[esp+1052]
  00231	e8 00 00 00 00	 call	 @__security_check_cookie@4
  00236	5f		 pop	 edi
  00237	5e		 pop	 esi
  00238	5d		 pop	 ebp
  00239	5b		 pop	 ebx
  0023a	81 c4 0c 04 00
	00		 add	 esp, 1036		; 0000040cH
  00240	c2 18 00	 ret	 24			; 00000018H
_TEXT	ENDS
;	COMDAT text$x
text$x	SEGMENT
$L178743:
  00000	8d 4d 10	 lea	 ecx, DWORD PTR _strName$[ebp-4]
  00003	e9 00 00 00 00	 jmp	 ??1?$CStringT@DV?$StrTraitATL@DV?$ChTraitsCRT@D@ATL@@@ATL@@@ATL@@QAE@XZ ; ATL::CStringT<char,ATL::StrTraitATL<char,ATL::ChTraitsCRT<char> > >::~CStringT<char,ATL::StrTraitATL<char,ATL::ChTraitsCRT<char> > >
__ehhandler$?LogPet@CUdpSocket@@QAEXKPAVCTPlayer@@GV?$CStringT@DV?$StrTraitATL@DV?$ChTraitsCRT@D@ATL@@@ATL@@@ATL@@_J@Z:
  00008	b8 00 00 00 00	 mov	 eax, OFFSET FLAT:$T178823
  0000d	e9 00 00 00 00	 jmp	 ___CxxFrameHandler
text$x	ENDS
?LogPet@CUdpSocket@@QAEXKPAVCTPlayer@@GV?$CStringT@DV?$StrTraitATL@DV?$ChTraitsCRT@D@ATL@@@ATL@@@ATL@@_J@Z ENDP ; CUdpSocket::LogPet
PUBLIC	?LogChat@CUdpSocket@@QAEXKPAVCTPlayer@@V?$CStringT@DV?$StrTraitATL@DV?$ChTraitsCRT@D@ATL@@@ATL@@@ATL@@1@Z ; CUdpSocket::LogChat
;	COMDAT xdata$x
; File c:\program files (x86)\microsoft visual studio .net 2003\vc7\atlmfc\include\atlsimpstr.h
xdata$x	SEGMENT
$T178977 DD	0ffffffffH
	DD	FLAT:$L178837
	DD	00H
	DD	FLAT:$L178838
$T178971 DD	019930520H
	DD	02H
	DD	FLAT:$T178977
	DD	2 DUP(00H)
	DD	2 DUP(00H)
; Function compile flags: /Ogty
; File c:\users\pierr\desktop\4story - oldschool\sources\tserver\tmapsvr\udpsocket.cpp
xdata$x	ENDS
;	COMDAT ?LogChat@CUdpSocket@@QAEXKPAVCTPlayer@@V?$CStringT@DV?$StrTraitATL@DV?$ChTraitsCRT@D@ATL@@@ATL@@@ATL@@1@Z
_TEXT	SEGMENT
_this$ = -1036						; size = 4
_LogData$ = -1032					; size = 1016
__$ArrayPad$ = -16					; size = 4
__$EHRec$ = -12						; size = 12
__$ReturnAddr$ = 4					; size = 4
_pAction$ = 8						; size = 4
_pPlayer$ = 12						; size = 4
_strName$ = 16						; size = 4
_strTalk$ = 20						; size = 4
?LogChat@CUdpSocket@@QAEXKPAVCTPlayer@@V?$CStringT@DV?$StrTraitATL@DV?$ChTraitsCRT@D@ATL@@@ATL@@@ATL@@1@Z PROC NEAR ; CUdpSocket::LogChat, COMDAT
; _this$ = ecx

; 1407 : {

  00000	6a ff		 push	 -1
  00002	68 00 00 00 00	 push	 __ehhandler$?LogChat@CUdpSocket@@QAEXKPAVCTPlayer@@V?$CStringT@DV?$StrTraitATL@DV?$ChTraitsCRT@D@ATL@@@ATL@@@ATL@@1@Z
  00007	64 a1 00 00 00
	00		 mov	 eax, DWORD PTR fs:__except_list
  0000d	50		 push	 eax
  0000e	64 89 25 00 00
	00 00		 mov	 DWORD PTR fs:__except_list, esp
  00015	81 ec 00 04 00
	00		 sub	 esp, 1024		; 00000400H
  0001b	a1 00 00 00 00	 mov	 eax, DWORD PTR ___security_cookie
  00020	53		 push	 ebx
  00021	55		 push	 ebp
  00022	56		 push	 esi
  00023	89 84 24 08 04
	00 00		 mov	 DWORD PTR __$ArrayPad$[esp+1048], eax
  0002a	57		 push	 edi
  0002b	89 4c 24 10	 mov	 DWORD PTR _this$[esp+1052], ecx

; 1408 : 	if(!pPlayer) return;

  0002f	8b b4 24 24 04
	00 00		 mov	 esi, DWORD PTR _pPlayer$[esp+1048]
  00036	33 db		 xor	 ebx, ebx
  00038	3b f3		 cmp	 esi, ebx
  0003a	c7 84 24 18 04
	00 00 01 00 00
	00		 mov	 DWORD PTR __$EHRec$[esp+1060], 1
  00045	75 37		 jne	 SHORT $L175797
  00047	8b 84 24 28 04
	00 00		 mov	 eax, DWORD PTR _strName$[esp+1048]
  0004e	83 c0 f0	 add	 eax, -16		; fffffff0H
  00051	88 9c 24 18 04
	00 00		 mov	 BYTE PTR __$EHRec$[esp+1060], bl
  00058	8d 48 0c	 lea	 ecx, DWORD PTR [eax+12]
  0005b	83 ca ff	 or	 edx, -1
  0005e	f0 0f c1 11	 lock	  xadd	 DWORD PTR [ecx], edx
  00062	4a		 dec	 edx
  00063	85 d2		 test	 edx, edx
  00065	7f 08		 jg	 SHORT $L178865
  00067	8b 08		 mov	 ecx, DWORD PTR [eax]
  00069	8b 11		 mov	 edx, DWORD PTR [ecx]
  0006b	50		 push	 eax
  0006c	ff 52 04	 call	 DWORD PTR [edx+4]
$L178865:
  0006f	8b 84 24 2c 04
	00 00		 mov	 eax, DWORD PTR _strTalk$[esp+1048]
  00076	83 c0 f0	 add	 eax, -16		; fffffff0H
  00079	e9 77 01 00 00	 jmp	 $L178976
$L175797:

; 1409 : 
; 1410 : 	_LOG_DATA_ LogData;
; 1411 : 	memset( &LogData, 0x00, sizeof(_LOG_DATA_));
; 1412 : 
; 1413 : 	LogData.dwAction	=	pAction;

  0007e	8b ac 24 20 04
	00 00		 mov	 ebp, DWORD PTR _pAction$[esp+1048]
  00085	33 c0		 xor	 eax, eax
  00087	b9 fe 00 00 00	 mov	 ecx, 254		; 000000feH
  0008c	8d 7c 24 14	 lea	 edi, DWORD PTR _LogData$[esp+1052]
  00090	f3 ab		 rep stosd

; 1414 : 	LogData.dwServerID	=	_AtlModule.GetServerID();

  00092	0f b6 05 82 9e
	00 00		 movzx	 eax, BYTE PTR ?_AtlModule@@3VCTMapSvrModule@@A+40578

; 1415 : 
; 1416 : 	lstrcpy( LogData.szClientIP, inet_ntoa(pPlayer->m_addr.sin_addr) );	

  00099	8b 4e 40	 mov	 ecx, DWORD PTR [esi+64]
  0009c	51		 push	 ecx
  0009d	89 6c 24 3c	 mov	 DWORD PTR _LogData$[esp+1092], ebp
  000a1	89 44 24 28	 mov	 DWORD PTR _LogData$[esp+1072], eax
  000a5	ff 15 00 00 00
	00		 call	 DWORD PTR __imp__inet_ntoa@4
  000ab	8b 3d 00 00 00
	00		 mov	 edi, DWORD PTR __imp__lstrcpyA@8
  000b1	50		 push	 eax
  000b2	8d 54 24 2c	 lea	 edx, DWORD PTR _LogData$[esp+1076]
  000b6	52		 push	 edx
  000b7	ff d7		 call	 edi

; 1417 : 
; 1418 : 
; 1419 : 	LogData.wMapID			=	pPlayer->m_wMapID;				//	Map ID

  000b9	66 8b 86 90 01
	01 00		 mov	 ax, WORD PTR [esi+65936]

; 1420 : 	LogData.nX				=	(int)pPlayer->m_fPosX;			//	X

  000c0	d9 86 7c 01 01
	00		 fld	 DWORD PTR [esi+65916]
  000c6	66 89 44 24 3c	 mov	 WORD PTR _LogData$[esp+1092], ax
  000cb	e8 00 00 00 00	 call	 __ftol2

; 1421 : 	LogData.nY				=	(int)pPlayer->m_fPosY;			//	Y

  000d0	d9 86 80 01 01
	00		 fld	 DWORD PTR [esi+65920]
  000d6	89 44 24 40	 mov	 DWORD PTR _LogData$[esp+1096], eax
  000da	e8 00 00 00 00	 call	 __ftol2

; 1422 : 	LogData.nZ				=	(int)pPlayer->m_fPosZ;			//	Z

  000df	d9 86 84 01 01
	00		 fld	 DWORD PTR [esi+65924]
  000e5	89 44 24 44	 mov	 DWORD PTR _LogData$[esp+1100], eax
  000e9	e8 00 00 00 00	 call	 __ftol2

; 1423 : 
; 1424 : 	LogData.dwKey[0]		=	pPlayer->m_dwUserID;			//	User ID

  000ee	8b 8e ac 03 01
	00		 mov	 ecx, DWORD PTR [esi+66476]

; 1425 : 	LogData.dwKey[1]		=	pPlayer->m_dwID;				//	Character Seq

  000f4	8b 96 44 01 01
	00		 mov	 edx, DWORD PTR [esi+65860]
  000fa	89 44 24 48	 mov	 DWORD PTR _LogData$[esp+1104], eax

; 1426 : 	lstrcpy(LogData.szKey[1],	pPlayer->m_strNAME	);			//	Character Name

  000fe	8b 86 a4 03 01
	00		 mov	 eax, DWORD PTR [esi+66468]
  00104	50		 push	 eax
  00105	8d 84 24 da 00
	00 00		 lea	 eax, DWORD PTR _LogData$[esp+1250]
  0010c	50		 push	 eax
  0010d	89 4c 24 54	 mov	 DWORD PTR _LogData$[esp+1116], ecx
  00111	89 5c 24 58	 mov	 DWORD PTR _LogData$[esp+1120], ebx
  00115	89 54 24 5c	 mov	 DWORD PTR _LogData$[esp+1124], edx
  00119	89 5c 24 60	 mov	 DWORD PTR _LogData$[esp+1128], ebx
  0011d	ff d7		 call	 edi

; 1427 : 
; 1428 : 	LogData.dwKey[9]		=	pPlayer->m_bCountry + (pPlayer->m_bAidCountry == TCONTRY_N ? 0 : (pPlayer->m_bAidCountry+1)*10);			//	Country

  0011f	8a 86 9e 01 01
	00		 mov	 al, BYTE PTR [esi+65950]
  00125	3c 03		 cmp	 al, 3
  00127	75 04		 jne	 SHORT $L178835
  00129	33 c9		 xor	 ecx, ecx
  0012b	eb 09		 jmp	 SHORT $L178836
$L178835:
  0012d	0f b6 c0	 movzx	 eax, al
  00130	40		 inc	 eax
  00131	8d 0c 80	 lea	 ecx, DWORD PTR [eax+eax*4]
  00134	d1 e1		 shl	 ecx, 1
$L178836:
  00136	0f b6 86 9d 01
	01 00		 movzx	 eax, BYTE PTR [esi+65949]
  0013d	03 c1		 add	 eax, ecx

; 1429 : 	LogData.dwKey[10]		=	pPlayer->m_bLevel;				//	Level
; 1430 : 
; 1431 : 
; 1432 : 	if(pAction == LOGMAP_CHATWISPER || pAction == LOGMAP_CHATGUILD)

  0013f	81 fd 20 11 00
	00		 cmp	 ebp, 4384		; 00001120H
  00145	99		 cdq
  00146	89 84 24 94 00
	00 00		 mov	 DWORD PTR _LogData$[esp+1180], eax
  0014d	0f b6 86 7b 01
	01 00		 movzx	 eax, BYTE PTR [esi+65915]
  00154	89 94 24 98 00
	00 00		 mov	 DWORD PTR _LogData$[esp+1184], edx
  0015b	99		 cdq
  0015c	89 84 24 9c 00
	00 00		 mov	 DWORD PTR _LogData$[esp+1188], eax
  00163	89 94 24 a0 00
	00 00		 mov	 DWORD PTR _LogData$[esp+1192], edx
  0016a	74 08		 je	 SHORT $L175804
  0016c	81 fd 25 11 00
	00		 cmp	 ebp, 4389		; 00001125H
  00172	75 12		 jne	 SHORT $L178972
$L175804:

; 1433 : 	{
; 1434 : 		lstrcpy(LogData.szKey[2],	strName			);					//	Target Name

  00174	8b 8c 24 28 04
	00 00		 mov	 ecx, DWORD PTR _strName$[esp+1048]
  0017b	51		 push	 ecx
  0017c	8d 94 24 0c 01
	00 00		 lea	 edx, DWORD PTR _LogData$[esp+1300]
  00183	52		 push	 edx
  00184	ff d7		 call	 edi
$L178972:

; 1435 : 	}
; 1436 : 
; 1437 : 	LogData.dwFormat = LF_TEXT;
; 1438 : 
; 1439 : 
; 1440 : 	if(strTalk.GetLength() < sizeof(LogData.szLog))

  00186	8b ac 24 2c 04
	00 00		 mov	 ebp, DWORD PTR _strTalk$[esp+1048]
  0018d	89 9c 24 04 02
	00 00		 mov	 DWORD PTR _LogData$[esp+1548], ebx
  00194	81 7d f4 00 02
	00 00		 cmp	 DWORD PTR [ebp-12], 512	; 00000200H
  0019b	73 0b		 jae	 SHORT $L175805

; 1441 : 	{
; 1442 : 		lstrcpy(LogData.szLog, strTalk);

  0019d	55		 push	 ebp
  0019e	8d 84 24 0c 02
	00 00		 lea	 eax, DWORD PTR _LogData$[esp+1556]
  001a5	50		 push	 eax
  001a6	ff d7		 call	 edi
$L175805:

; 1443 : 	}
; 1444 : 
; 1445 : 	SendDMLog( LogData );

  001a8	81 ec f8 03 00
	00		 sub	 esp, 1016		; 000003f8H
  001ae	8b fc		 mov	 edi, esp
  001b0	b9 fe 00 00 00	 mov	 ecx, 254		; 000000feH
  001b5	8d b4 24 0c 04
	00 00		 lea	 esi, DWORD PTR _LogData$[esp+2068]
  001bc	f3 a5		 rep movsd
  001be	8b 8c 24 08 04
	00 00		 mov	 ecx, DWORD PTR _this$[esp+2068]
  001c5	e8 00 00 00 00	 call	 ?SendDMLog@CUdpSocket@@QAEXU_LOG_DATA_@@@Z ; CUdpSocket::SendDMLog

; 1446 : }

  001ca	8b 84 24 28 04
	00 00		 mov	 eax, DWORD PTR _strName$[esp+1048]
  001d1	83 c0 f0	 add	 eax, -16		; fffffff0H
  001d4	88 9c 24 18 04
	00 00		 mov	 BYTE PTR __$EHRec$[esp+1060], bl
  001db	8d 48 0c	 lea	 ecx, DWORD PTR [eax+12]
  001de	83 ca ff	 or	 edx, -1
  001e1	f0 0f c1 11	 lock	  xadd	 DWORD PTR [ecx], edx
  001e5	4a		 dec	 edx
  001e6	85 d2		 test	 edx, edx
  001e8	7f 08		 jg	 SHORT $L178942
  001ea	8b 08		 mov	 ecx, DWORD PTR [eax]
  001ec	8b 11		 mov	 edx, DWORD PTR [ecx]
  001ee	50		 push	 eax
  001ef	ff 52 04	 call	 DWORD PTR [edx+4]
$L178942:
  001f2	8d 45 f0	 lea	 eax, DWORD PTR [ebp-16]
$L178976:
  001f5	c7 84 24 18 04
	00 00 ff ff ff
	ff		 mov	 DWORD PTR __$EHRec$[esp+1060], -1
  00200	8d 48 0c	 lea	 ecx, DWORD PTR [eax+12]
  00203	83 ca ff	 or	 edx, -1
  00206	f0 0f c1 11	 lock	  xadd	 DWORD PTR [ecx], edx
  0020a	4a		 dec	 edx
  0020b	85 d2		 test	 edx, edx
  0020d	7f 08		 jg	 SHORT $L178969
  0020f	8b 08		 mov	 ecx, DWORD PTR [eax]
  00211	8b 11		 mov	 edx, DWORD PTR [ecx]
  00213	50		 push	 eax
  00214	ff 52 04	 call	 DWORD PTR [edx+4]
$L178969:
  00217	8b 8c 24 10 04
	00 00		 mov	 ecx, DWORD PTR __$EHRec$[esp+1052]
  0021e	64 89 0d 00 00
	00 00		 mov	 DWORD PTR fs:__except_list, ecx
  00225	8b 8c 24 0c 04
	00 00		 mov	 ecx, DWORD PTR __$ArrayPad$[esp+1052]
  0022c	e8 00 00 00 00	 call	 @__security_check_cookie@4
  00231	5f		 pop	 edi
  00232	5e		 pop	 esi
  00233	5d		 pop	 ebp
  00234	5b		 pop	 ebx
  00235	81 c4 0c 04 00
	00		 add	 esp, 1036		; 0000040cH
  0023b	c2 10 00	 ret	 16			; 00000010H
_TEXT	ENDS
;	COMDAT text$x
text$x	SEGMENT
$L178837:
  00000	8d 4d 10	 lea	 ecx, DWORD PTR _strTalk$[ebp-4]
  00003	e9 00 00 00 00	 jmp	 ??1?$CStringT@DV?$StrTraitATL@DV?$ChTraitsCRT@D@ATL@@@ATL@@@ATL@@QAE@XZ ; ATL::CStringT<char,ATL::StrTraitATL<char,ATL::ChTraitsCRT<char> > >::~CStringT<char,ATL::StrTraitATL<char,ATL::ChTraitsCRT<char> > >
$L178838:
  00008	8d 4d 0c	 lea	 ecx, DWORD PTR _strName$[ebp-4]
  0000b	e9 00 00 00 00	 jmp	 ??1?$CStringT@DV?$StrTraitATL@DV?$ChTraitsCRT@D@ATL@@@ATL@@@ATL@@QAE@XZ ; ATL::CStringT<char,ATL::StrTraitATL<char,ATL::ChTraitsCRT<char> > >::~CStringT<char,ATL::StrTraitATL<char,ATL::ChTraitsCRT<char> > >
__ehhandler$?LogChat@CUdpSocket@@QAEXKPAVCTPlayer@@V?$CStringT@DV?$StrTraitATL@DV?$ChTraitsCRT@D@ATL@@@ATL@@@ATL@@1@Z:
  00010	b8 00 00 00 00	 mov	 eax, OFFSET FLAT:$T178971
  00015	e9 00 00 00 00	 jmp	 ___CxxFrameHandler
text$x	ENDS
?LogChat@CUdpSocket@@QAEXKPAVCTPlayer@@V?$CStringT@DV?$StrTraitATL@DV?$ChTraitsCRT@D@ATL@@@ATL@@@ATL@@1@Z ENDP ; CUdpSocket::LogChat
PUBLIC	?LogGuild@CUdpSocket@@QAEXKPAVCTPlayer@@KV?$CStringT@DV?$StrTraitATL@DV?$ChTraitsCRT@D@ATL@@@ATL@@@ATL@@K1E@Z ; CUdpSocket::LogGuild
;	COMDAT xdata$x
; File c:\program files (x86)\microsoft visual studio .net 2003\vc7\atlmfc\include\atlsimpstr.h
xdata$x	SEGMENT
$T179121 DD	0ffffffffH
	DD	FLAT:$L178986
	DD	00H
	DD	FLAT:$L178987
$T179111 DD	019930520H
	DD	02H
	DD	FLAT:$T179121
	DD	2 DUP(00H)
	DD	2 DUP(00H)
; Function compile flags: /Ogty
; File c:\users\pierr\desktop\4story - oldschool\sources\tserver\tmapsvr\udpsocket.cpp
xdata$x	ENDS
;	COMDAT ?LogGuild@CUdpSocket@@QAEXKPAVCTPlayer@@KV?$CStringT@DV?$StrTraitATL@DV?$ChTraitsCRT@D@ATL@@@ATL@@@ATL@@K1E@Z
_TEXT	SEGMENT
_this$ = -1036						; size = 4
_LogData$ = -1032					; size = 1016
__$ArrayPad$ = -16					; size = 4
__$EHRec$ = -12						; size = 12
__$ReturnAddr$ = 4					; size = 4
_pAction$ = 8						; size = 4
_pPlayer$ = 12						; size = 4
_pTargetID$ = 16					; size = 4
_pTargetName$ = 20					; size = 4
_pGuildID$ = 24						; size = 4
_strGuildName$ = 28					; size = 4
_bRet$ = 32						; size = 1
?LogGuild@CUdpSocket@@QAEXKPAVCTPlayer@@KV?$CStringT@DV?$StrTraitATL@DV?$ChTraitsCRT@D@ATL@@@ATL@@@ATL@@K1E@Z PROC NEAR ; CUdpSocket::LogGuild, COMDAT
; _this$ = ecx

; 1452 : {

  00000	6a ff		 push	 -1
  00002	68 00 00 00 00	 push	 __ehhandler$?LogGuild@CUdpSocket@@QAEXKPAVCTPlayer@@KV?$CStringT@DV?$StrTraitATL@DV?$ChTraitsCRT@D@ATL@@@ATL@@@ATL@@K1E@Z
  00007	64 a1 00 00 00
	00		 mov	 eax, DWORD PTR fs:__except_list
  0000d	50		 push	 eax
  0000e	64 89 25 00 00
	00 00		 mov	 DWORD PTR fs:__except_list, esp
  00015	81 ec 00 04 00
	00		 sub	 esp, 1024		; 00000400H
  0001b	a1 00 00 00 00	 mov	 eax, DWORD PTR ___security_cookie
  00020	53		 push	 ebx
  00021	55		 push	 ebp
  00022	56		 push	 esi
  00023	89 84 24 08 04
	00 00		 mov	 DWORD PTR __$ArrayPad$[esp+1048], eax
  0002a	57		 push	 edi
  0002b	89 4c 24 10	 mov	 DWORD PTR _this$[esp+1052], ecx

; 1453 : 	if(!pPlayer) return;

  0002f	8b b4 24 24 04
	00 00		 mov	 esi, DWORD PTR _pPlayer$[esp+1048]
  00036	33 db		 xor	 ebx, ebx
  00038	3b f3		 cmp	 esi, ebx
  0003a	c7 84 24 18 04
	00 00 01 00 00
	00		 mov	 DWORD PTR __$EHRec$[esp+1060], 1
  00045	75 0f		 jne	 SHORT $L175816
  00047	8b 84 24 2c 04
	00 00		 mov	 eax, DWORD PTR _pTargetName$[esp+1048]
  0004e	83 c0 f0	 add	 eax, -16		; fffffff0H
  00051	e9 39 02 00 00	 jmp	 $L179117
$L175816:

; 1454 : 
; 1455 : 	_LOG_DATA_ LogData;
; 1456 : 	memset( &LogData, 0x00, sizeof(_LOG_DATA_));
; 1457 : 
; 1458 : 	LogData.dwAction	=	pAction;
; 1459 : 	LogData.dwServerID	=	_AtlModule.GetServerID();
; 1460 : 
; 1461 : 	lstrcpy( LogData.szClientIP, inet_ntoa(pPlayer->m_addr.sin_addr) );	

  00056	8b 56 40	 mov	 edx, DWORD PTR [esi+64]
  00059	33 c0		 xor	 eax, eax
  0005b	b9 fe 00 00 00	 mov	 ecx, 254		; 000000feH
  00060	8d 7c 24 14	 lea	 edi, DWORD PTR _LogData$[esp+1052]
  00064	f3 ab		 rep stosd
  00066	0f b6 0d 82 9e
	00 00		 movzx	 ecx, BYTE PTR ?_AtlModule@@3VCTMapSvrModule@@A+40578
  0006d	8b 84 24 20 04
	00 00		 mov	 eax, DWORD PTR _pAction$[esp+1048]
  00074	52		 push	 edx
  00075	89 44 24 3c	 mov	 DWORD PTR _LogData$[esp+1092], eax
  00079	89 4c 24 28	 mov	 DWORD PTR _LogData$[esp+1072], ecx
  0007d	ff 15 00 00 00
	00		 call	 DWORD PTR __imp__inet_ntoa@4
  00083	8b 3d 00 00 00
	00		 mov	 edi, DWORD PTR __imp__lstrcpyA@8
  00089	50		 push	 eax
  0008a	8d 44 24 2c	 lea	 eax, DWORD PTR _LogData$[esp+1076]
  0008e	50		 push	 eax
  0008f	ff d7		 call	 edi

; 1462 : 
; 1463 : 
; 1464 : 	LogData.wMapID			=	pPlayer->m_wMapID;						//	Map ID

  00091	66 8b 8e 90 01
	01 00		 mov	 cx, WORD PTR [esi+65936]

; 1465 : 	LogData.nX				=	(int)pPlayer->m_fPosX;					//	X

  00098	d9 86 7c 01 01
	00		 fld	 DWORD PTR [esi+65916]
  0009e	66 89 4c 24 3c	 mov	 WORD PTR _LogData$[esp+1092], cx
  000a3	e8 00 00 00 00	 call	 __ftol2

; 1466 : 	LogData.nY				=	(int)pPlayer->m_fPosY;					//	Y

  000a8	d9 86 80 01 01
	00		 fld	 DWORD PTR [esi+65920]
  000ae	89 44 24 40	 mov	 DWORD PTR _LogData$[esp+1096], eax
  000b2	e8 00 00 00 00	 call	 __ftol2

; 1467 : 	LogData.nZ				=	(int)pPlayer->m_fPosZ;					//	Z

  000b7	d9 86 84 01 01
	00		 fld	 DWORD PTR [esi+65924]
  000bd	89 44 24 44	 mov	 DWORD PTR _LogData$[esp+1100], eax
  000c1	e8 00 00 00 00	 call	 __ftol2

; 1468 : 
; 1469 : 	LogData.dwKey[0]		=	pPlayer->m_dwUserID;					// User ID

  000c6	8b 96 ac 03 01
	00		 mov	 edx, DWORD PTR [esi+66476]
  000cc	89 44 24 48	 mov	 DWORD PTR _LogData$[esp+1104], eax

; 1470 : 	LogData.dwKey[1]		=	pPlayer->m_dwID;						//	Character Seq

  000d0	8b 86 44 01 01
	00		 mov	 eax, DWORD PTR [esi+65860]
  000d6	89 44 24 54	 mov	 DWORD PTR _LogData$[esp+1116], eax

; 1471 : 	lstrcpy(LogData.szKey[1],	pPlayer->m_strNAME			);			//	Character Name

  000da	8b 86 a4 03 01
	00		 mov	 eax, DWORD PTR [esi+66468]
  000e0	50		 push	 eax
  000e1	8d 8c 24 da 00
	00 00		 lea	 ecx, DWORD PTR _LogData$[esp+1250]
  000e8	51		 push	 ecx
  000e9	89 54 24 54	 mov	 DWORD PTR _LogData$[esp+1116], edx
  000ed	89 5c 24 58	 mov	 DWORD PTR _LogData$[esp+1120], ebx
  000f1	89 5c 24 60	 mov	 DWORD PTR _LogData$[esp+1128], ebx
  000f5	ff d7		 call	 edi

; 1472 : 
; 1473 : 	LogData.dwKey[9]		=	pPlayer->m_bCountry + (pPlayer->m_bAidCountry == TCONTRY_N ? 0 : (pPlayer->m_bAidCountry+1)*10);			//	Country

  000f7	8a 86 9e 01 01
	00		 mov	 al, BYTE PTR [esi+65950]
  000fd	3c 03		 cmp	 al, 3
  000ff	75 04		 jne	 SHORT $L178984
  00101	33 c9		 xor	 ecx, ecx
  00103	eb 09		 jmp	 SHORT $L178985
$L178984:
  00105	0f b6 c0	 movzx	 eax, al
  00108	40		 inc	 eax
  00109	8d 0c 80	 lea	 ecx, DWORD PTR [eax+eax*4]
  0010c	d1 e1		 shl	 ecx, 1
$L178985:
  0010e	0f b6 86 9d 01
	01 00		 movzx	 eax, BYTE PTR [esi+65949]

; 1474 : 	LogData.dwKey[10]		=	pPlayer->m_bLevel;				//	Level
; 1475 : 
; 1476 : 
; 1477 : 	//	Target
; 1478 : 	LogData.dwKey[2]		=	pTargetID;								//	Character Seq
; 1479 : 	lstrcpy(LogData.szKey[2],	pTargetName		);						//	Character Name

  00115	8b ac 24 2c 04
	00 00		 mov	 ebp, DWORD PTR _pTargetName$[esp+1048]
  0011c	03 c1		 add	 eax, ecx
  0011e	99		 cdq
  0011f	89 84 24 94 00
	00 00		 mov	 DWORD PTR _LogData$[esp+1180], eax
  00126	0f b6 86 7b 01
	01 00		 movzx	 eax, BYTE PTR [esi+65915]
  0012d	89 94 24 98 00
	00 00		 mov	 DWORD PTR _LogData$[esp+1184], edx
  00134	99		 cdq
  00135	89 84 24 9c 00
	00 00		 mov	 DWORD PTR _LogData$[esp+1188], eax
  0013c	89 94 24 a0 00
	00 00		 mov	 DWORD PTR _LogData$[esp+1192], edx
  00143	8b 94 24 28 04
	00 00		 mov	 edx, DWORD PTR _pTargetID$[esp+1048]
  0014a	55		 push	 ebp
  0014b	8d 84 24 0c 01
	00 00		 lea	 eax, DWORD PTR _LogData$[esp+1300]
  00152	50		 push	 eax
  00153	89 54 24 64	 mov	 DWORD PTR _LogData$[esp+1132], edx
  00157	89 5c 24 68	 mov	 DWORD PTR _LogData$[esp+1136], ebx
  0015b	ff d7		 call	 edi

; 1480 : 
; 1481 : 	//	4: Guild
; 1482 : 	LogData.dwKey[4]		=	pGuildID;
; 1483 : 	lstrcpy(LogData.szKey[4],	strGuildName	);

  0015d	8b 94 24 34 04
	00 00		 mov	 edx, DWORD PTR _strGuildName$[esp+1048]
  00164	8b 8c 24 30 04
	00 00		 mov	 ecx, DWORD PTR _pGuildID$[esp+1048]
  0016b	52		 push	 edx
  0016c	8d 84 24 70 01
	00 00		 lea	 eax, DWORD PTR _LogData$[esp+1400]
  00173	50		 push	 eax
  00174	89 4c 24 74	 mov	 DWORD PTR _LogData$[esp+1148], ecx
  00178	89 5c 24 78	 mov	 DWORD PTR _LogData$[esp+1152], ebx
  0017c	ff d7		 call	 edi

; 1484 : 
; 1485 : 	//	Return Value
; 1486 : 	switch( bRet )

  0017e	0f b6 84 24 38
	04 00 00	 movzx	 eax, BYTE PTR _bRet$[esp+1048]
  00186	83 f8 10	 cmp	 eax, 16			; 00000010H
  00189	0f 87 d4 00 00
	00		 ja	 $L175856
  0018f	ff 24 85 00 00
	00 00		 jmp	 DWORD PTR $L179120[eax*4]
$L175826:

; 1487 : 	{
; 1488 : 	case GUILD_SUCCESS				: lstrcpy(LogData.szLog,	"SUCCESS"	);				break;        

  00196	68 00 00 00 00	 push	 OFFSET FLAT:??_C@_07PFKAHOIJ@SUCCESS?$AA@
  0019b	8d 8c 24 0c 02
	00 00		 lea	 ecx, DWORD PTR _LogData$[esp+1556]
  001a2	51		 push	 ecx
  001a3	e9 b9 00 00 00	 jmp	 $L179118
$L175828:

; 1489 : 	case GUILD_ALREADYGUILDNAME		: lstrcpy(LogData.szLog,	"ALREADYGUILDNAME"	);		break;

  001a8	68 00 00 00 00	 push	 OFFSET FLAT:??_C@_0BB@ICBAIEAK@ALREADYGUILDNAME?$AA@
  001ad	8d 94 24 0c 02
	00 00		 lea	 edx, DWORD PTR _LogData$[esp+1556]
  001b4	52		 push	 edx
  001b5	e9 a7 00 00 00	 jmp	 $L179118
$L175830:

; 1490 : 	case GUILD_NOTCHIEF				: lstrcpy(LogData.szLog,	"NOTCHIEF"	);				break;

  001ba	68 00 00 00 00	 push	 OFFSET FLAT:??_C@_08PPKAPFHE@NOTCHIEF?$AA@
  001bf	e9 95 00 00 00	 jmp	 $L179119
$L175832:

; 1491 : 	case GUILD_ALREADYMEMBER		: lstrcpy(LogData.szLog,	"ALREADYMEMBER"	);			break;

  001c4	68 00 00 00 00	 push	 OFFSET FLAT:??_C@_0O@PBOOMHM@ALREADYMEMBER?$AA@
  001c9	8d 8c 24 0c 02
	00 00		 lea	 ecx, DWORD PTR _LogData$[esp+1556]
  001d0	51		 push	 ecx
  001d1	e9 8b 00 00 00	 jmp	 $L179118
$L175834:

; 1492 : 	case GUILD_NOTMEMBER			: lstrcpy(LogData.szLog,	"NOTMEMBER"	);				break;

  001d6	68 00 00 00 00	 push	 OFFSET FLAT:??_C@_09FJKKGCKF@NOTMEMBER?$AA@
  001db	8d 94 24 0c 02
	00 00		 lea	 edx, DWORD PTR _LogData$[esp+1556]
  001e2	52		 push	 edx
  001e3	eb 7c		 jmp	 SHORT $L179118
$L175836:

; 1493 : 	case GUILD_HAVEGUILD			: lstrcpy(LogData.szLog,	"HAVEGUILD"	);				break;

  001e5	68 00 00 00 00	 push	 OFFSET FLAT:??_C@_09DEKMPEHL@HAVEGUILD?$AA@
  001ea	eb 6d		 jmp	 SHORT $L179119
$L175838:

; 1494 : 	case GUILD_NOTFOUND				: lstrcpy(LogData.szLog,	"NOTFOUND"	);				break;

  001ec	68 00 00 00 00	 push	 OFFSET FLAT:??_C@_08DJOBNNJD@NOTFOUND?$AA@
  001f1	8d 8c 24 0c 02
	00 00		 lea	 ecx, DWORD PTR _LogData$[esp+1556]
  001f8	51		 push	 ecx
  001f9	eb 66		 jmp	 SHORT $L179118
$L175840:

; 1495 : 	case GUILD_ESTABLISH_ERR		: lstrcpy(LogData.szLog,	"ESTABLISH_ERR"	);			break;

  001fb	68 00 00 00 00	 push	 OFFSET FLAT:??_C@_0O@ODJEFDDJ@ESTABLISH_ERR?$AA@
  00200	8d 94 24 0c 02
	00 00		 lea	 edx, DWORD PTR _LogData$[esp+1556]
  00207	52		 push	 edx
  00208	eb 57		 jmp	 SHORT $L179118
$L175842:

; 1496 : 	case GUILD_DISORGANIZATION_ERR	: lstrcpy(LogData.szLog,	"DISORGANIZATION_ERR");		break;

  0020a	68 00 00 00 00	 push	 OFFSET FLAT:??_C@_0BE@FBCEBNHN@DISORGANIZATION_ERR?$AA@
  0020f	eb 48		 jmp	 SHORT $L179119
$L175844:

; 1497 : 	case GUILD_LEAVE_SELF			: lstrcpy(LogData.szLog,	"LEAVE_SELF");				break;

  00211	68 00 00 00 00	 push	 OFFSET FLAT:??_C@_0L@INCIIFBF@LEAVE_SELF?$AA@
  00216	8d 8c 24 0c 02
	00 00		 lea	 ecx, DWORD PTR _LogData$[esp+1556]
  0021d	51		 push	 ecx
  0021e	eb 41		 jmp	 SHORT $L179118
$L175846:

; 1498 : 	case GUILD_LEAVE_KICK			: lstrcpy(LogData.szLog,	"LEAVE_KICK");				break;

  00220	68 00 00 00 00	 push	 OFFSET FLAT:??_C@_0L@CJJMNPJO@LEAVE_KICK?$AA@
  00225	8d 94 24 0c 02
	00 00		 lea	 edx, DWORD PTR _LogData$[esp+1556]
  0022c	52		 push	 edx
  0022d	eb 32		 jmp	 SHORT $L179118
$L175848:

; 1499 : 	case GUILD_LEAVE_DISORGANIZATION: lstrcpy(LogData.szLog,	"LEAVE_DISORGANIZATION");	break;

  0022f	68 00 00 00 00	 push	 OFFSET FLAT:??_C@_0BG@MENJOLMJ@LEAVE_DISORGANIZATION?$AA@
  00234	eb 23		 jmp	 SHORT $L179119
$L175850:

; 1500 : 	case GUILD_JOIN_SUCCESS			: lstrcpy(LogData.szLog,	"JOIN_SUCCESS");			break;

  00236	68 00 00 00 00	 push	 OFFSET FLAT:??_C@_0N@NKEOKGLA@JOIN_SUCCESS?$AA@
  0023b	8d 8c 24 0c 02
	00 00		 lea	 ecx, DWORD PTR _LogData$[esp+1556]
  00242	51		 push	 ecx
  00243	eb 1c		 jmp	 SHORT $L179118
$L175852:

; 1501 : 	case GUILD_JOIN_DENY			: lstrcpy(LogData.szLog,	"JOIN_DENY");				break;

  00245	68 00 00 00 00	 push	 OFFSET FLAT:??_C@_09FLDMLBKH@JOIN_DENY?$AA@
  0024a	8d 94 24 0c 02
	00 00		 lea	 edx, DWORD PTR _LogData$[esp+1556]
  00251	52		 push	 edx
  00252	eb 0d		 jmp	 SHORT $L179118
$L175854:

; 1502 : 	case GUILD_NODUTY				: lstrcpy(LogData.szLog,	"NODUTY");					break;

  00254	68 00 00 00 00	 push	 OFFSET FLAT:??_C@_06NJMFPHHE@NODUTY?$AA@
$L179119:
  00259	8d 84 24 0c 02
	00 00		 lea	 eax, DWORD PTR _LogData$[esp+1556]
  00260	50		 push	 eax
$L179118:
  00261	ff d7		 call	 edi
$L175856:

; 1503 : 	default : break;
; 1504 : 	}
; 1505 : 
; 1506 : 	LogData.dwFormat = LF_TEXT;
; 1507 : 
; 1508 : 	SendDMLog( LogData );

  00263	81 ec f8 03 00
	00		 sub	 esp, 1016		; 000003f8H
  00269	8b fc		 mov	 edi, esp
  0026b	89 9c 24 fc 05
	00 00		 mov	 DWORD PTR _LogData$[esp+2564], ebx
  00272	b9 fe 00 00 00	 mov	 ecx, 254		; 000000feH
  00277	8d b4 24 0c 04
	00 00		 lea	 esi, DWORD PTR _LogData$[esp+2068]
  0027e	f3 a5		 rep movsd
  00280	8b 8c 24 08 04
	00 00		 mov	 ecx, DWORD PTR _this$[esp+2068]
  00287	e8 00 00 00 00	 call	 ?SendDMLog@CUdpSocket@@QAEXU_LOG_DATA_@@@Z ; CUdpSocket::SendDMLog

; 1509 : }

  0028c	8d 45 f0	 lea	 eax, DWORD PTR [ebp-16]
$L179117:
  0028f	88 9c 24 18 04
	00 00		 mov	 BYTE PTR __$EHRec$[esp+1060], bl
  00296	8d 48 0c	 lea	 ecx, DWORD PTR [eax+12]
  00299	83 ca ff	 or	 edx, -1
  0029c	f0 0f c1 11	 lock	  xadd	 DWORD PTR [ecx], edx
  002a0	4a		 dec	 edx
  002a1	85 d2		 test	 edx, edx
  002a3	7f 08		 jg	 SHORT $L179081
  002a5	8b 08		 mov	 ecx, DWORD PTR [eax]
  002a7	8b 11		 mov	 edx, DWORD PTR [ecx]
  002a9	50		 push	 eax
  002aa	ff 52 04	 call	 DWORD PTR [edx+4]
$L179081:
  002ad	8b 84 24 34 04
	00 00		 mov	 eax, DWORD PTR _strGuildName$[esp+1048]
  002b4	83 c0 f0	 add	 eax, -16		; fffffff0H
  002b7	c7 84 24 18 04
	00 00 ff ff ff
	ff		 mov	 DWORD PTR __$EHRec$[esp+1060], -1
  002c2	8d 48 0c	 lea	 ecx, DWORD PTR [eax+12]
  002c5	83 ca ff	 or	 edx, -1
  002c8	f0 0f c1 11	 lock	  xadd	 DWORD PTR [ecx], edx
  002cc	4a		 dec	 edx
  002cd	85 d2		 test	 edx, edx
  002cf	7f 08		 jg	 SHORT $L179108
  002d1	8b 08		 mov	 ecx, DWORD PTR [eax]
  002d3	8b 11		 mov	 edx, DWORD PTR [ecx]
  002d5	50		 push	 eax
  002d6	ff 52 04	 call	 DWORD PTR [edx+4]
$L179108:
  002d9	8b 8c 24 10 04
	00 00		 mov	 ecx, DWORD PTR __$EHRec$[esp+1052]
  002e0	64 89 0d 00 00
	00 00		 mov	 DWORD PTR fs:__except_list, ecx
  002e7	8b 8c 24 0c 04
	00 00		 mov	 ecx, DWORD PTR __$ArrayPad$[esp+1052]
  002ee	e8 00 00 00 00	 call	 @__security_check_cookie@4
  002f3	5f		 pop	 edi
  002f4	5e		 pop	 esi
  002f5	5d		 pop	 ebp
  002f6	5b		 pop	 ebx
  002f7	81 c4 0c 04 00
	00		 add	 esp, 1036		; 0000040cH
  002fd	c2 1c 00	 ret	 28			; 0000001cH
$L179120:
  00300	00 00 00 00	 DD	 $L175826
  00304	00 00 00 00	 DD	 $L175852
  00308	00 00 00 00	 DD	 $L175856
  0030c	00 00 00 00	 DD	 $L175856
  00310	00 00 00 00	 DD	 $L175828
  00314	00 00 00 00	 DD	 $L175830
  00318	00 00 00 00	 DD	 $L175832
  0031c	00 00 00 00	 DD	 $L175834
  00320	00 00 00 00	 DD	 $L175836
  00324	00 00 00 00	 DD	 $L175838
  00328	00 00 00 00	 DD	 $L175840
  0032c	00 00 00 00	 DD	 $L175842
  00330	00 00 00 00	 DD	 $L175844
  00334	00 00 00 00	 DD	 $L175846
  00338	00 00 00 00	 DD	 $L175848
  0033c	00 00 00 00	 DD	 $L175850
  00340	00 00 00 00	 DD	 $L175854
_TEXT	ENDS
;	COMDAT text$x
text$x	SEGMENT
$L178986:
  00000	8d 4d 18	 lea	 ecx, DWORD PTR _strGuildName$[ebp-4]
  00003	e9 00 00 00 00	 jmp	 ??1?$CStringT@DV?$StrTraitATL@DV?$ChTraitsCRT@D@ATL@@@ATL@@@ATL@@QAE@XZ ; ATL::CStringT<char,ATL::StrTraitATL<char,ATL::ChTraitsCRT<char> > >::~CStringT<char,ATL::StrTraitATL<char,ATL::ChTraitsCRT<char> > >
$L178987:
  00008	8d 4d 10	 lea	 ecx, DWORD PTR _pTargetName$[ebp-4]
  0000b	e9 00 00 00 00	 jmp	 ??1?$CStringT@DV?$StrTraitATL@DV?$ChTraitsCRT@D@ATL@@@ATL@@@ATL@@QAE@XZ ; ATL::CStringT<char,ATL::StrTraitATL<char,ATL::ChTraitsCRT<char> > >::~CStringT<char,ATL::StrTraitATL<char,ATL::ChTraitsCRT<char> > >
__ehhandler$?LogGuild@CUdpSocket@@QAEXKPAVCTPlayer@@KV?$CStringT@DV?$StrTraitATL@DV?$ChTraitsCRT@D@ATL@@@ATL@@@ATL@@K1E@Z:
  00010	b8 00 00 00 00	 mov	 eax, OFFSET FLAT:$T179111
  00015	e9 00 00 00 00	 jmp	 ___CxxFrameHandler
text$x	ENDS
?LogGuild@CUdpSocket@@QAEXKPAVCTPlayer@@KV?$CStringT@DV?$StrTraitATL@DV?$ChTraitsCRT@D@ATL@@@ATL@@@ATL@@K1E@Z ENDP ; CUdpSocket::LogGuild
PUBLIC	??_C@_01JOAMLHOP@?9?$AA@			; `string'
PUBLIC	??_C@_09IJOCPMLD@SubMaster?$AA@			; `string'
PUBLIC	??_C@_06INNNFHKM@Master?$AA@			; `string'
PUBLIC	??_C@_04CKKCHGKD@?$LD?$LC?$MA?$NL?$AA@		; `string'
PUBLIC	??_C@_04GKECDDFA@?$MA?Z?$MA?$NL?$AA@		; `string'
PUBLIC	??_C@_04HMBOOGKB@?$LJ?i?$MA?$NL?$AA@		; `string'
PUBLIC	??_C@_04OKPEFIDN@?H?D?$MA?$NL?$AA@		; `string'
PUBLIC	??_C@_04JJKLLECK@?$LA?x?$MA?$NL?$AA@		; `string'
PUBLIC	?LogGuildDutyPeer@CUdpSocket@@QAEXKPAVCTPlayer@@KV?$CStringT@DV?$StrTraitATL@DV?$ChTraitsCRT@D@ATL@@@ATL@@@ATL@@K1HE@Z ; CUdpSocket::LogGuildDutyPeer
;	COMDAT xdata$x
; File c:\program files (x86)\microsoft visual studio .net 2003\vc7\atlmfc\include\atlsimpstr.h
xdata$x	SEGMENT
$T179268 DD	0ffffffffH
	DD	FLAT:$L179130
	DD	00H
	DD	FLAT:$L179131
$T179255 DD	019930520H
	DD	02H
	DD	FLAT:$T179268
	DD	2 DUP(00H)
	DD	2 DUP(00H)
xdata$x	ENDS
;	COMDAT ??_C@_01JOAMLHOP@?9?$AA@
CONST	SEGMENT
??_C@_01JOAMLHOP@?9?$AA@ DB '-', 00H			; `string'
CONST	ENDS
;	COMDAT ??_C@_04CKKCHGKD@?$LD?$LC?$MA?$NL?$AA@
CONST	SEGMENT
??_C@_04CKKCHGKD@?$LD?$LC?$MA?$NL?$AA@ DB 0b3H, 0b2H, 0c0H, 0dbH, 00H ; `string'
CONST	ENDS
;	COMDAT ??_C@_04GKECDDFA@?$MA?Z?$MA?$NL?$AA@
CONST	SEGMENT
??_C@_04GKECDDFA@?$MA?Z?$MA?$NL?$AA@ DB 0c0H, 0daH, 0c0H, 0dbH, 00H ; `string'
CONST	ENDS
;	COMDAT ??_C@_04HMBOOGKB@?$LJ?i?$MA?$NL?$AA@
CONST	SEGMENT
??_C@_04HMBOOGKB@?$LJ?i?$MA?$NL?$AA@ DB 0b9H, 0e9H, 0c0H, 0dbH, 00H ; `string'
CONST	ENDS
;	COMDAT ??_C@_04OKPEFIDN@?H?D?$MA?$NL?$AA@
CONST	SEGMENT
??_C@_04OKPEFIDN@?H?D?$MA?$NL?$AA@ DB 0c8H, 0c4H, 0c0H, 0dbH, 00H ; `string'
CONST	ENDS
;	COMDAT ??_C@_04JJKLLECK@?$LA?x?$MA?$NL?$AA@
CONST	SEGMENT
??_C@_04JJKLLECK@?$LA?x?$MA?$NL?$AA@ DB 0b0H, 0f8H, 0c0H, 0dbH, 00H ; `string'
CONST	ENDS
;	COMDAT ??_C@_06INNNFHKM@Master?$AA@
CONST	SEGMENT
??_C@_06INNNFHKM@Master?$AA@ DB 'Master', 00H		; `string'
CONST	ENDS
;	COMDAT ??_C@_09IJOCPMLD@SubMaster?$AA@
CONST	SEGMENT
??_C@_09IJOCPMLD@SubMaster?$AA@ DB 'SubMaster', 00H	; `string'
; Function compile flags: /Ogty
; File c:\users\pierr\desktop\4story - oldschool\sources\tserver\tmapsvr\udpsocket.cpp
CONST	ENDS
;	COMDAT ?LogGuildDutyPeer@CUdpSocket@@QAEXKPAVCTPlayer@@KV?$CStringT@DV?$StrTraitATL@DV?$ChTraitsCRT@D@ATL@@@ATL@@@ATL@@K1HE@Z
_TEXT	SEGMENT
_this$ = -1036						; size = 4
_LogData$ = -1032					; size = 1016
__$ArrayPad$ = -16					; size = 4
__$EHRec$ = -12						; size = 12
__$ReturnAddr$ = 4					; size = 4
_pAction$ = 8						; size = 4
_pPlayer$ = 12						; size = 4
_pTargetID$ = 16					; size = 4
_pTargetName$ = 20					; size = 4
_pGuildID$ = 24						; size = 4
_strGuildName$ = 28					; size = 4
_pData$ = 32						; size = 4
_bRet$ = 36						; size = 1
?LogGuildDutyPeer@CUdpSocket@@QAEXKPAVCTPlayer@@KV?$CStringT@DV?$StrTraitATL@DV?$ChTraitsCRT@D@ATL@@@ATL@@@ATL@@K1HE@Z PROC NEAR ; CUdpSocket::LogGuildDutyPeer, COMDAT
; _this$ = ecx

; 1515 : {

  00000	6a ff		 push	 -1
  00002	68 00 00 00 00	 push	 __ehhandler$?LogGuildDutyPeer@CUdpSocket@@QAEXKPAVCTPlayer@@KV?$CStringT@DV?$StrTraitATL@DV?$ChTraitsCRT@D@ATL@@@ATL@@@ATL@@K1HE@Z
  00007	64 a1 00 00 00
	00		 mov	 eax, DWORD PTR fs:__except_list
  0000d	50		 push	 eax
  0000e	64 89 25 00 00
	00 00		 mov	 DWORD PTR fs:__except_list, esp
  00015	81 ec 00 04 00
	00		 sub	 esp, 1024		; 00000400H
  0001b	a1 00 00 00 00	 mov	 eax, DWORD PTR ___security_cookie
  00020	53		 push	 ebx
  00021	55		 push	 ebp
  00022	56		 push	 esi
  00023	89 84 24 08 04
	00 00		 mov	 DWORD PTR __$ArrayPad$[esp+1048], eax
  0002a	57		 push	 edi
  0002b	89 4c 24 10	 mov	 DWORD PTR _this$[esp+1052], ecx

; 1516 : 	if(!pPlayer) return;

  0002f	8b b4 24 24 04
	00 00		 mov	 esi, DWORD PTR _pPlayer$[esp+1048]
  00036	33 db		 xor	 ebx, ebx
  00038	3b f3		 cmp	 esi, ebx
  0003a	c7 84 24 18 04
	00 00 01 00 00
	00		 mov	 DWORD PTR __$EHRec$[esp+1060], 1
  00045	0f 84 e9 02 00
	00		 je	 $L179261

; 1517 : 
; 1518 : 	_LOG_DATA_ LogData;
; 1519 : 	memset( &LogData, 0x00, sizeof(_LOG_DATA_));
; 1520 : 
; 1521 : 	LogData.dwAction	=	pAction;

  0004b	8b ac 24 20 04
	00 00		 mov	 ebp, DWORD PTR _pAction$[esp+1048]
  00052	33 c0		 xor	 eax, eax
  00054	b9 fe 00 00 00	 mov	 ecx, 254		; 000000feH
  00059	8d 7c 24 14	 lea	 edi, DWORD PTR _LogData$[esp+1052]
  0005d	f3 ab		 rep stosd

; 1522 : 	LogData.dwServerID	=	_AtlModule.GetServerID();

  0005f	0f b6 05 82 9e
	00 00		 movzx	 eax, BYTE PTR ?_AtlModule@@3VCTMapSvrModule@@A+40578

; 1523 : 
; 1524 : 	lstrcpy( LogData.szClientIP, inet_ntoa(pPlayer->m_addr.sin_addr) );	

  00066	8b 4e 40	 mov	 ecx, DWORD PTR [esi+64]
  00069	51		 push	 ecx
  0006a	89 6c 24 3c	 mov	 DWORD PTR _LogData$[esp+1092], ebp
  0006e	89 44 24 28	 mov	 DWORD PTR _LogData$[esp+1072], eax
  00072	ff 15 00 00 00
	00		 call	 DWORD PTR __imp__inet_ntoa@4
  00078	8b 3d 00 00 00
	00		 mov	 edi, DWORD PTR __imp__lstrcpyA@8
  0007e	50		 push	 eax
  0007f	8d 54 24 2c	 lea	 edx, DWORD PTR _LogData$[esp+1076]
  00083	52		 push	 edx
  00084	ff d7		 call	 edi

; 1525 : 
; 1526 : 	LogData.wMapID			=	pPlayer->m_wMapID;				//	Map ID

  00086	66 8b 86 90 01
	01 00		 mov	 ax, WORD PTR [esi+65936]

; 1527 : 	LogData.nX				=	(int)pPlayer->m_fPosX;			//	X

  0008d	d9 86 7c 01 01
	00		 fld	 DWORD PTR [esi+65916]
  00093	66 89 44 24 3c	 mov	 WORD PTR _LogData$[esp+1092], ax
  00098	e8 00 00 00 00	 call	 __ftol2

; 1528 : 	LogData.nY				=	(int)pPlayer->m_fPosY;			//	Y

  0009d	d9 86 80 01 01
	00		 fld	 DWORD PTR [esi+65920]
  000a3	89 44 24 40	 mov	 DWORD PTR _LogData$[esp+1096], eax
  000a7	e8 00 00 00 00	 call	 __ftol2

; 1529 : 	LogData.nZ				=	(int)pPlayer->m_fPosZ;			//	Z

  000ac	d9 86 84 01 01
	00		 fld	 DWORD PTR [esi+65924]
  000b2	89 44 24 44	 mov	 DWORD PTR _LogData$[esp+1100], eax
  000b6	e8 00 00 00 00	 call	 __ftol2

; 1530 : 
; 1531 : 	LogData.dwKey[0]		=	pPlayer->m_dwUserID;			//	User ID

  000bb	8b 8e ac 03 01
	00		 mov	 ecx, DWORD PTR [esi+66476]

; 1532 : 	LogData.dwKey[1]		=	pPlayer->m_dwID;				//	Character Seq

  000c1	8b 96 44 01 01
	00		 mov	 edx, DWORD PTR [esi+65860]
  000c7	89 44 24 48	 mov	 DWORD PTR _LogData$[esp+1104], eax

; 1533 : 	lstrcpy(LogData.szKey[1],	pPlayer->m_strNAME	);			//	Character Name

  000cb	8b 86 a4 03 01
	00		 mov	 eax, DWORD PTR [esi+66468]
  000d1	50		 push	 eax
  000d2	8d 84 24 da 00
	00 00		 lea	 eax, DWORD PTR _LogData$[esp+1250]
  000d9	50		 push	 eax
  000da	89 4c 24 54	 mov	 DWORD PTR _LogData$[esp+1116], ecx
  000de	89 5c 24 58	 mov	 DWORD PTR _LogData$[esp+1120], ebx
  000e2	89 54 24 5c	 mov	 DWORD PTR _LogData$[esp+1124], edx
  000e6	89 5c 24 60	 mov	 DWORD PTR _LogData$[esp+1128], ebx
  000ea	ff d7		 call	 edi

; 1534 : 
; 1535 : 	LogData.dwKey[9]		=	pPlayer->m_bCountry + (pPlayer->m_bAidCountry == TCONTRY_N ? 0 : (pPlayer->m_bAidCountry+1)*10);			//	Country

  000ec	8a 86 9e 01 01
	00		 mov	 al, BYTE PTR [esi+65950]
  000f2	3c 03		 cmp	 al, 3
  000f4	75 04		 jne	 SHORT $L179128
  000f6	33 c9		 xor	 ecx, ecx
  000f8	eb 09		 jmp	 SHORT $L179129
$L179128:
  000fa	0f b6 c0	 movzx	 eax, al
  000fd	40		 inc	 eax
  000fe	8d 0c 80	 lea	 ecx, DWORD PTR [eax+eax*4]
  00101	d1 e1		 shl	 ecx, 1
$L179129:
  00103	0f b6 86 9d 01
	01 00		 movzx	 eax, BYTE PTR [esi+65949]
  0010a	03 c1		 add	 eax, ecx

; 1536 : 	LogData.dwKey[10]		=	pPlayer->m_bLevel;				//	Level
; 1537 : 
; 1538 : 
; 1539 : 	//	Target
; 1540 : 	LogData.dwKey[2]		=	pTargetID;						//	Target Seq

  0010c	8b 8c 24 28 04
	00 00		 mov	 ecx, DWORD PTR _pTargetID$[esp+1048]
  00113	99		 cdq
  00114	89 84 24 94 00
	00 00		 mov	 DWORD PTR _LogData$[esp+1180], eax
  0011b	0f b6 86 7b 01
	01 00		 movzx	 eax, BYTE PTR [esi+65915]
  00122	89 94 24 98 00
	00 00		 mov	 DWORD PTR _LogData$[esp+1184], edx
  00129	99		 cdq
  0012a	89 94 24 a0 00
	00 00		 mov	 DWORD PTR _LogData$[esp+1192], edx

; 1541 : 	lstrcpy(LogData.szKey[2],	pTargetName		);				//	Target Name

  00131	8b 94 24 2c 04
	00 00		 mov	 edx, DWORD PTR _pTargetName$[esp+1048]
  00138	89 84 24 9c 00
	00 00		 mov	 DWORD PTR _LogData$[esp+1188], eax
  0013f	52		 push	 edx
  00140	8d 84 24 0c 01
	00 00		 lea	 eax, DWORD PTR _LogData$[esp+1300]
  00147	50		 push	 eax
  00148	89 4c 24 64	 mov	 DWORD PTR _LogData$[esp+1132], ecx
  0014c	89 5c 24 68	 mov	 DWORD PTR _LogData$[esp+1136], ebx
  00150	ff d7		 call	 edi

; 1542 : 
; 1543 : 	//	4: Guild
; 1544 : 	LogData.dwKey[4]		=	pGuildID;
; 1545 : 	lstrcpy(LogData.szKey[4],	strGuildName	);

  00152	8b 94 24 34 04
	00 00		 mov	 edx, DWORD PTR _strGuildName$[esp+1048]
  00159	8b 8c 24 30 04
	00 00		 mov	 ecx, DWORD PTR _pGuildID$[esp+1048]
  00160	52		 push	 edx
  00161	8d 84 24 70 01
	00 00		 lea	 eax, DWORD PTR _LogData$[esp+1400]
  00168	50		 push	 eax
  00169	89 4c 24 74	 mov	 DWORD PTR _LogData$[esp+1148], ecx
  0016d	89 5c 24 78	 mov	 DWORD PTR _LogData$[esp+1152], ebx
  00171	ff d7		 call	 edi

; 1546 : 
; 1547 : 	//	5:	Key
; 1548 : 	LogData.dwKey[5]	=	pData;

  00173	8b 8c 24 38 04
	00 00		 mov	 ecx, DWORD PTR _pData$[esp+1048]
  0017a	8b c1		 mov	 eax, ecx
  0017c	99		 cdq
  0017d	89 44 24 74	 mov	 DWORD PTR _LogData$[esp+1148], eax

; 1549 : 
; 1550 : 	switch( pAction )

  00181	8b c5		 mov	 eax, ebp
  00183	2d 07 12 00 00	 sub	 eax, 4615		; 00001207H
  00188	89 54 24 78	 mov	 DWORD PTR _LogData$[esp+1152], edx
  0018c	74 61		 je	 SHORT $L175878
  0018e	48		 dec	 eax
  0018f	0f 85 91 00 00
	00		 jne	 $L175880

; 1559 : 			}
; 1560 : 		}		
; 1561 : 		break;
; 1562 : 
; 1563 : 	case	LOGMAP_GUILDPEER	:	
; 1564 : 		{
; 1565 : 			switch(pData)

  00195	83 f9 05	 cmp	 ecx, 5
  00198	0f 87 88 00 00
	00		 ja	 $L175880
  0019e	ff 24 8d 00 00
	00 00		 jmp	 DWORD PTR $L179266[ecx*4]
$L175894:

; 1566 : 			{
; 1567 : 			case 0	:	lstrcpy(LogData.szKey[5],	"-"			);	break;

  001a5	68 00 00 00 00	 push	 OFFSET FLAT:??_C@_01JOAMLHOP@?9?$AA@
  001aa	8d 8c 24 a2 01
	00 00		 lea	 ecx, DWORD PTR _LogData$[esp+1450]
  001b1	51		 push	 ecx
  001b2	eb 70		 jmp	 SHORT $L179262
$L175895:

; 1568 : 			case 1	:	lstrcpy(LogData.szKey[5],	""		);	break;

  001b4	68 00 00 00 00	 push	 OFFSET FLAT:??_C@_04CKKCHGKD@?$LD?$LC?$MA?$NL?$AA@
  001b9	8d 94 24 a2 01
	00 00		 lea	 edx, DWORD PTR _LogData$[esp+1450]
  001c0	52		 push	 edx
  001c1	eb 61		 jmp	 SHORT $L179262
$L175897:

; 1569 : 			case 2	:	lstrcpy(LogData.szKey[5],	""		);	break;

  001c3	68 00 00 00 00	 push	 OFFSET FLAT:??_C@_04GKECDDFA@?$MA?Z?$MA?$NL?$AA@
  001c8	eb 52		 jmp	 SHORT $L179263
$L175899:

; 1570 : 			case 3	:	lstrcpy(LogData.szKey[5],	""		);	break;

  001ca	68 00 00 00 00	 push	 OFFSET FLAT:??_C@_04HMBOOGKB@?$LJ?i?$MA?$NL?$AA@
  001cf	8d 8c 24 a2 01
	00 00		 lea	 ecx, DWORD PTR _LogData$[esp+1450]
  001d6	51		 push	 ecx
  001d7	eb 4b		 jmp	 SHORT $L179262
$L175901:

; 1571 : 			case 4	:	lstrcpy(LogData.szKey[5],	""		);	break;

  001d9	68 00 00 00 00	 push	 OFFSET FLAT:??_C@_04OKPEFIDN@?H?D?$MA?$NL?$AA@
  001de	8d 94 24 a2 01
	00 00		 lea	 edx, DWORD PTR _LogData$[esp+1450]
  001e5	52		 push	 edx
  001e6	eb 3c		 jmp	 SHORT $L179262
$L175903:

; 1572 : 			case 5	:	lstrcpy(LogData.szKey[5],	""		);	break;

  001e8	68 00 00 00 00	 push	 OFFSET FLAT:??_C@_04JJKLLECK@?$LA?x?$MA?$NL?$AA@

; 1573 : 			}
; 1574 : 		}
; 1575 : 		break;

  001ed	eb 2d		 jmp	 SHORT $L179263
$L175878:

; 1551 : 	{
; 1552 : 	case	LOGMAP_GUILDDUTY	:	
; 1553 : 		{			
; 1554 : 			switch(pData)

  001ef	2b cb		 sub	 ecx, ebx
  001f1	74 24		 je	 SHORT $L175883
  001f3	49		 dec	 ecx
  001f4	74 12		 je	 SHORT $L175885
  001f6	49		 dec	 ecx
  001f7	75 2d		 jne	 SHORT $L175880

; 1558 : 			case 2	:	lstrcpy(LogData.szKey[5], "Master"		);	break;

  001f9	68 00 00 00 00	 push	 OFFSET FLAT:??_C@_06INNNFHKM@Master?$AA@
  001fe	8d 8c 24 a2 01
	00 00		 lea	 ecx, DWORD PTR _LogData$[esp+1450]
  00205	51		 push	 ecx
  00206	eb 1c		 jmp	 SHORT $L179262
$L175885:

; 1557 : 			case 1	:	lstrcpy(LogData.szKey[5], "SubMaster"	);	break;

  00208	68 00 00 00 00	 push	 OFFSET FLAT:??_C@_09IJOCPMLD@SubMaster?$AA@
  0020d	8d 94 24 a2 01
	00 00		 lea	 edx, DWORD PTR _LogData$[esp+1450]
  00214	52		 push	 edx
  00215	eb 0d		 jmp	 SHORT $L179262
$L175883:

; 1555 : 			{
; 1556 : 			case 0	:	lstrcpy(LogData.szKey[5], "-"			);	break;

  00217	68 00 00 00 00	 push	 OFFSET FLAT:??_C@_01JOAMLHOP@?9?$AA@
$L179263:
  0021c	8d 84 24 a2 01
	00 00		 lea	 eax, DWORD PTR _LogData$[esp+1450]
  00223	50		 push	 eax
$L179262:
  00224	ff d7		 call	 edi
$L175880:

; 1576 : 
; 1577 : 	default : break;
; 1578 : 	}
; 1579 : 
; 1580 : 	//	Return Value
; 1581 : 	switch( bRet )

  00226	0f b6 84 24 3c
	04 00 00	 movzx	 eax, BYTE PTR _bRet$[esp+1048]
  0022e	83 f8 10	 cmp	 eax, 16			; 00000010H
  00231	0f 87 d4 00 00
	00		 ja	 $L175925
  00237	ff 24 85 00 00
	00 00		 jmp	 DWORD PTR $L179267[eax*4]
$L175910:

; 1582 : 	{
; 1583 : 	case GUILD_SUCCESS				: lstrcpy(LogData.szLog,	"SUCCESS"	);				break;        

  0023e	68 00 00 00 00	 push	 OFFSET FLAT:??_C@_07PFKAHOIJ@SUCCESS?$AA@
  00243	8d 8c 24 0c 02
	00 00		 lea	 ecx, DWORD PTR _LogData$[esp+1556]
  0024a	51		 push	 ecx
  0024b	e9 b9 00 00 00	 jmp	 $L179264
$L175911:

; 1584 : 	case GUILD_ALREADYGUILDNAME		: lstrcpy(LogData.szLog,	"ALREADYGUILDNAME"	);		break;

  00250	68 00 00 00 00	 push	 OFFSET FLAT:??_C@_0BB@ICBAIEAK@ALREADYGUILDNAME?$AA@
  00255	8d 94 24 0c 02
	00 00		 lea	 edx, DWORD PTR _LogData$[esp+1556]
  0025c	52		 push	 edx
  0025d	e9 a7 00 00 00	 jmp	 $L179264
$L175912:

; 1585 : 	case GUILD_NOTCHIEF				: lstrcpy(LogData.szLog,	"NOTCHIEF"	);				break;

  00262	68 00 00 00 00	 push	 OFFSET FLAT:??_C@_08PPKAPFHE@NOTCHIEF?$AA@
  00267	e9 95 00 00 00	 jmp	 $L179265
$L175913:

; 1586 : 	case GUILD_ALREADYMEMBER		: lstrcpy(LogData.szLog,	"ALREADYMEMBER"	);			break;

  0026c	68 00 00 00 00	 push	 OFFSET FLAT:??_C@_0O@PBOOMHM@ALREADYMEMBER?$AA@
  00271	8d 8c 24 0c 02
	00 00		 lea	 ecx, DWORD PTR _LogData$[esp+1556]
  00278	51		 push	 ecx
  00279	e9 8b 00 00 00	 jmp	 $L179264
$L175914:

; 1587 : 	case GUILD_NOTMEMBER			: lstrcpy(LogData.szLog,	"NOTMEMBER"	);				break;

  0027e	68 00 00 00 00	 push	 OFFSET FLAT:??_C@_09FJKKGCKF@NOTMEMBER?$AA@
  00283	8d 94 24 0c 02
	00 00		 lea	 edx, DWORD PTR _LogData$[esp+1556]
  0028a	52		 push	 edx
  0028b	eb 7c		 jmp	 SHORT $L179264
$L175915:

; 1588 : 	case GUILD_HAVEGUILD			: lstrcpy(LogData.szLog,	"HAVEGUILD"	);				break;

  0028d	68 00 00 00 00	 push	 OFFSET FLAT:??_C@_09DEKMPEHL@HAVEGUILD?$AA@
  00292	eb 6d		 jmp	 SHORT $L179265
$L175916:

; 1589 : 	case GUILD_NOTFOUND				: lstrcpy(LogData.szLog,	"NOTFOUND"	);				break;

  00294	68 00 00 00 00	 push	 OFFSET FLAT:??_C@_08DJOBNNJD@NOTFOUND?$AA@
  00299	8d 8c 24 0c 02
	00 00		 lea	 ecx, DWORD PTR _LogData$[esp+1556]
  002a0	51		 push	 ecx
  002a1	eb 66		 jmp	 SHORT $L179264
$L175917:

; 1590 : 	case GUILD_ESTABLISH_ERR		: lstrcpy(LogData.szLog,	"ESTABLISH_ERR"	);			break;

  002a3	68 00 00 00 00	 push	 OFFSET FLAT:??_C@_0O@ODJEFDDJ@ESTABLISH_ERR?$AA@
  002a8	8d 94 24 0c 02
	00 00		 lea	 edx, DWORD PTR _LogData$[esp+1556]
  002af	52		 push	 edx
  002b0	eb 57		 jmp	 SHORT $L179264
$L175918:

; 1591 : 	case GUILD_DISORGANIZATION_ERR	: lstrcpy(LogData.szLog,	"DISORGANIZATION_ERR");		break;

  002b2	68 00 00 00 00	 push	 OFFSET FLAT:??_C@_0BE@FBCEBNHN@DISORGANIZATION_ERR?$AA@
  002b7	eb 48		 jmp	 SHORT $L179265
$L175919:

; 1592 : 	case GUILD_LEAVE_SELF			: lstrcpy(LogData.szLog,	"LEAVE_SELF");				break;

  002b9	68 00 00 00 00	 push	 OFFSET FLAT:??_C@_0L@INCIIFBF@LEAVE_SELF?$AA@
  002be	8d 8c 24 0c 02
	00 00		 lea	 ecx, DWORD PTR _LogData$[esp+1556]
  002c5	51		 push	 ecx
  002c6	eb 41		 jmp	 SHORT $L179264
$L175920:

; 1593 : 	case GUILD_LEAVE_KICK			: lstrcpy(LogData.szLog,	"LEAVE_KICK");				break;

  002c8	68 00 00 00 00	 push	 OFFSET FLAT:??_C@_0L@CJJMNPJO@LEAVE_KICK?$AA@
  002cd	8d 94 24 0c 02
	00 00		 lea	 edx, DWORD PTR _LogData$[esp+1556]
  002d4	52		 push	 edx
  002d5	eb 32		 jmp	 SHORT $L179264
$L175921:

; 1594 : 	case GUILD_LEAVE_DISORGANIZATION: lstrcpy(LogData.szLog,	"LEAVE_DISORGANIZATION");	break;

  002d7	68 00 00 00 00	 push	 OFFSET FLAT:??_C@_0BG@MENJOLMJ@LEAVE_DISORGANIZATION?$AA@
  002dc	eb 23		 jmp	 SHORT $L179265
$L175922:

; 1595 : 	case GUILD_JOIN_SUCCESS			: lstrcpy(LogData.szLog,	"JOIN_SUCCESS");			break;

  002de	68 00 00 00 00	 push	 OFFSET FLAT:??_C@_0N@NKEOKGLA@JOIN_SUCCESS?$AA@
  002e3	8d 8c 24 0c 02
	00 00		 lea	 ecx, DWORD PTR _LogData$[esp+1556]
  002ea	51		 push	 ecx
  002eb	eb 1c		 jmp	 SHORT $L179264
$L175923:

; 1596 : 	case GUILD_JOIN_DENY			: lstrcpy(LogData.szLog,	"JOIN_DENY");				break;

  002ed	68 00 00 00 00	 push	 OFFSET FLAT:??_C@_09FLDMLBKH@JOIN_DENY?$AA@
  002f2	8d 94 24 0c 02
	00 00		 lea	 edx, DWORD PTR _LogData$[esp+1556]
  002f9	52		 push	 edx
  002fa	eb 0d		 jmp	 SHORT $L179264
$L175924:

; 1597 : 	case GUILD_NODUTY				: lstrcpy(LogData.szLog,	"NODUTY");					break;

  002fc	68 00 00 00 00	 push	 OFFSET FLAT:??_C@_06NJMFPHHE@NODUTY?$AA@
$L179265:
  00301	8d 84 24 0c 02
	00 00		 lea	 eax, DWORD PTR _LogData$[esp+1556]
  00308	50		 push	 eax
$L179264:
  00309	ff d7		 call	 edi
$L175925:

; 1598 : 	default : break;
; 1599 : 	}
; 1600 : 
; 1601 : 	LogData.dwFormat = LF_TEXT;
; 1602 : 
; 1603 : 	SendDMLog( LogData );

  0030b	81 ec f8 03 00
	00		 sub	 esp, 1016		; 000003f8H
  00311	8b fc		 mov	 edi, esp
  00313	89 9c 24 fc 05
	00 00		 mov	 DWORD PTR _LogData$[esp+2564], ebx
  0031a	b9 fe 00 00 00	 mov	 ecx, 254		; 000000feH
  0031f	8d b4 24 0c 04
	00 00		 lea	 esi, DWORD PTR _LogData$[esp+2068]
  00326	f3 a5		 rep movsd
  00328	8b 8c 24 08 04
	00 00		 mov	 ecx, DWORD PTR _this$[esp+2068]
  0032f	e8 00 00 00 00	 call	 ?SendDMLog@CUdpSocket@@QAEXU_LOG_DATA_@@@Z ; CUdpSocket::SendDMLog
$L179261:

; 1604 : }

  00334	8b 84 24 2c 04
	00 00		 mov	 eax, DWORD PTR _pTargetName$[esp+1048]
  0033b	83 c0 f0	 add	 eax, -16		; fffffff0H
  0033e	88 9c 24 18 04
	00 00		 mov	 BYTE PTR __$EHRec$[esp+1060], bl
  00345	8d 48 0c	 lea	 ecx, DWORD PTR [eax+12]
  00348	83 ca ff	 or	 edx, -1
  0034b	f0 0f c1 11	 lock	  xadd	 DWORD PTR [ecx], edx
  0034f	4a		 dec	 edx
  00350	85 d2		 test	 edx, edx
  00352	7f 08		 jg	 SHORT $L179223
  00354	8b 08		 mov	 ecx, DWORD PTR [eax]
  00356	8b 11		 mov	 edx, DWORD PTR [ecx]
  00358	50		 push	 eax
  00359	ff 52 04	 call	 DWORD PTR [edx+4]
$L179223:
  0035c	8b 84 24 34 04
	00 00		 mov	 eax, DWORD PTR _strGuildName$[esp+1048]
  00363	83 c0 f0	 add	 eax, -16		; fffffff0H
  00366	c7 84 24 18 04
	00 00 ff ff ff
	ff		 mov	 DWORD PTR __$EHRec$[esp+1060], -1
  00371	8d 48 0c	 lea	 ecx, DWORD PTR [eax+12]
  00374	83 ca ff	 or	 edx, -1
  00377	f0 0f c1 11	 lock	  xadd	 DWORD PTR [ecx], edx
  0037b	4a		 dec	 edx
  0037c	85 d2		 test	 edx, edx
  0037e	7f 08		 jg	 SHORT $L179250
  00380	8b 08		 mov	 ecx, DWORD PTR [eax]
  00382	8b 11		 mov	 edx, DWORD PTR [ecx]
  00384	50		 push	 eax
  00385	ff 52 04	 call	 DWORD PTR [edx+4]
$L179250:
  00388	8b 8c 24 10 04
	00 00		 mov	 ecx, DWORD PTR __$EHRec$[esp+1052]
  0038f	64 89 0d 00 00
	00 00		 mov	 DWORD PTR fs:__except_list, ecx
  00396	8b 8c 24 0c 04
	00 00		 mov	 ecx, DWORD PTR __$ArrayPad$[esp+1052]
  0039d	e8 00 00 00 00	 call	 @__security_check_cookie@4
  003a2	5f		 pop	 edi
  003a3	5e		 pop	 esi
  003a4	5d		 pop	 ebp
  003a5	5b		 pop	 ebx
  003a6	81 c4 0c 04 00
	00		 add	 esp, 1036		; 0000040cH
  003ac	c2 20 00	 ret	 32			; 00000020H
  003af	90		 npad	 1
$L179266:
  003b0	00 00 00 00	 DD	 $L175894
  003b4	00 00 00 00	 DD	 $L175895
  003b8	00 00 00 00	 DD	 $L175897
  003bc	00 00 00 00	 DD	 $L175899
  003c0	00 00 00 00	 DD	 $L175901
  003c4	00 00 00 00	 DD	 $L175903
$L179267:
  003c8	00 00 00 00	 DD	 $L175910
  003cc	00 00 00 00	 DD	 $L175923
  003d0	00 00 00 00	 DD	 $L175925
  003d4	00 00 00 00	 DD	 $L175925
  003d8	00 00 00 00	 DD	 $L175911
  003dc	00 00 00 00	 DD	 $L175912
  003e0	00 00 00 00	 DD	 $L175913
  003e4	00 00 00 00	 DD	 $L175914
  003e8	00 00 00 00	 DD	 $L175915
  003ec	00 00 00 00	 DD	 $L175916
  003f0	00 00 00 00	 DD	 $L175917
  003f4	00 00 00 00	 DD	 $L175918
  003f8	00 00 00 00	 DD	 $L175919
  003fc	00 00 00 00	 DD	 $L175920
  00400	00 00 00 00	 DD	 $L175921
  00404	00 00 00 00	 DD	 $L175922
  00408	00 00 00 00	 DD	 $L175924
_TEXT	ENDS
;	COMDAT text$x
text$x	SEGMENT
$L179130:
  00000	8d 4d 18	 lea	 ecx, DWORD PTR _strGuildName$[ebp-4]
  00003	e9 00 00 00 00	 jmp	 ??1?$CStringT@DV?$StrTraitATL@DV?$ChTraitsCRT@D@ATL@@@ATL@@@ATL@@QAE@XZ ; ATL::CStringT<char,ATL::StrTraitATL<char,ATL::ChTraitsCRT<char> > >::~CStringT<char,ATL::StrTraitATL<char,ATL::ChTraitsCRT<char> > >
$L179131:
  00008	8d 4d 10	 lea	 ecx, DWORD PTR _pTargetName$[ebp-4]
  0000b	e9 00 00 00 00	 jmp	 ??1?$CStringT@DV?$StrTraitATL@DV?$ChTraitsCRT@D@ATL@@@ATL@@@ATL@@QAE@XZ ; ATL::CStringT<char,ATL::StrTraitATL<char,ATL::ChTraitsCRT<char> > >::~CStringT<char,ATL::StrTraitATL<char,ATL::ChTraitsCRT<char> > >
__ehhandler$?LogGuildDutyPeer@CUdpSocket@@QAEXKPAVCTPlayer@@KV?$CStringT@DV?$StrTraitATL@DV?$ChTraitsCRT@D@ATL@@@ATL@@@ATL@@K1HE@Z:
  00010	b8 00 00 00 00	 mov	 eax, OFFSET FLAT:$T179255
  00015	e9 00 00 00 00	 jmp	 ___CxxFrameHandler
text$x	ENDS
?LogGuildDutyPeer@CUdpSocket@@QAEXKPAVCTPlayer@@KV?$CStringT@DV?$StrTraitATL@DV?$ChTraitsCRT@D@ATL@@@ATL@@@ATL@@K1HE@Z ENDP ; CUdpSocket::LogGuildDutyPeer
PUBLIC	?LogPvPointChar@CUdpSocket@@QAEXKPAVCTPlayer@@KEEV?$CStringT@DV?$StrTraitATL@DV?$ChTraitsCRT@D@ATL@@@ATL@@@ATL@@@Z ; CUdpSocket::LogPvPointChar
;	COMDAT xdata$x
; File c:\program files (x86)\microsoft visual studio .net 2003\vc7\atlmfc\include\atlsimpstr.h
xdata$x	SEGMENT
$T179348 DD	0ffffffffH
	DD	FLAT:$L179277
$T179344 DD	019930520H
	DD	01H
	DD	FLAT:$T179348
	DD	2 DUP(00H)
	DD	2 DUP(00H)
; Function compile flags: /Ogty
; File c:\users\pierr\desktop\4story - oldschool\sources\tserver\tmapsvr\udpsocket.cpp
xdata$x	ENDS
;	COMDAT ?LogPvPointChar@CUdpSocket@@QAEXKPAVCTPlayer@@KEEV?$CStringT@DV?$StrTraitATL@DV?$ChTraitsCRT@D@ATL@@@ATL@@@ATL@@@Z
_TEXT	SEGMENT
_this$ = -1036						; size = 4
_LogData$ = -1032					; size = 1016
__$ArrayPad$ = -16					; size = 4
__$EHRec$ = -12						; size = 12
__$ReturnAddr$ = 4					; size = 4
_pAction$ = 8						; size = 4
_pPlayer$ = 12						; size = 4
_dwPoint$ = 16						; size = 4
_bEventType$ = 20					; size = 1
_bPointType$ = 24					; size = 1
_pTargetName$ = 28					; size = 4
?LogPvPointChar@CUdpSocket@@QAEXKPAVCTPlayer@@KEEV?$CStringT@DV?$StrTraitATL@DV?$ChTraitsCRT@D@ATL@@@ATL@@@ATL@@@Z PROC NEAR ; CUdpSocket::LogPvPointChar, COMDAT
; _this$ = ecx

; 2030 : {

  00000	6a ff		 push	 -1
  00002	68 00 00 00 00	 push	 __ehhandler$?LogPvPointChar@CUdpSocket@@QAEXKPAVCTPlayer@@KEEV?$CStringT@DV?$StrTraitATL@DV?$ChTraitsCRT@D@ATL@@@ATL@@@ATL@@@Z
  00007	64 a1 00 00 00
	00		 mov	 eax, DWORD PTR fs:__except_list
  0000d	50		 push	 eax
  0000e	64 89 25 00 00
	00 00		 mov	 DWORD PTR fs:__except_list, esp
  00015	81 ec 00 04 00
	00		 sub	 esp, 1024		; 00000400H
  0001b	a1 00 00 00 00	 mov	 eax, DWORD PTR ___security_cookie
  00020	53		 push	 ebx
  00021	55		 push	 ebp
  00022	56		 push	 esi
  00023	89 84 24 08 04
	00 00		 mov	 DWORD PTR __$ArrayPad$[esp+1048], eax
  0002a	57		 push	 edi
  0002b	89 4c 24 10	 mov	 DWORD PTR _this$[esp+1052], ecx

; 2031 : 	if(!pPlayer ) return;

  0002f	8b b4 24 24 04
	00 00		 mov	 esi, DWORD PTR _pPlayer$[esp+1048]
  00036	33 db		 xor	 ebx, ebx
  00038	3b f3		 cmp	 esi, ebx
  0003a	89 9c 24 18 04
	00 00		 mov	 DWORD PTR __$EHRec$[esp+1060], ebx
  00041	75 27		 jne	 SHORT $L176106
  00043	8b 84 24 34 04
	00 00		 mov	 eax, DWORD PTR _pTargetName$[esp+1048]
  0004a	83 c0 f0	 add	 eax, -16		; fffffff0H
  0004d	c7 84 24 18 04
	00 00 ff ff ff
	ff		 mov	 DWORD PTR __$EHRec$[esp+1060], -1
  00058	8d 48 0c	 lea	 ecx, DWORD PTR [eax+12]
  0005b	83 ca ff	 or	 edx, -1
  0005e	f0 0f c1 11	 lock	  xadd	 DWORD PTR [ecx], edx
  00062	4a		 dec	 edx
  00063	85 d2		 test	 edx, edx
  00065	e9 9c 01 00 00	 jmp	 $L179347
$L176106:

; 2032 : 
; 2033 : 	_LOG_DATA_ LogData;
; 2034 : 	memset( &LogData, 0x00, sizeof(_LOG_DATA_));
; 2035 : 
; 2036 : 	LogData.dwAction		=	pAction;
; 2037 : 	LogData.dwServerID		=	_AtlModule.GetServerID();
; 2038 : 
; 2039 : 	lstrcpy( LogData.szClientIP, inet_ntoa(pPlayer->m_addr.sin_addr) );	

  0006a	8b 56 40	 mov	 edx, DWORD PTR [esi+64]
  0006d	33 c0		 xor	 eax, eax
  0006f	b9 fe 00 00 00	 mov	 ecx, 254		; 000000feH
  00074	8d 7c 24 14	 lea	 edi, DWORD PTR _LogData$[esp+1052]
  00078	f3 ab		 rep stosd
  0007a	0f b6 0d 82 9e
	00 00		 movzx	 ecx, BYTE PTR ?_AtlModule@@3VCTMapSvrModule@@A+40578
  00081	8b 84 24 20 04
	00 00		 mov	 eax, DWORD PTR _pAction$[esp+1048]
  00088	52		 push	 edx
  00089	89 44 24 3c	 mov	 DWORD PTR _LogData$[esp+1092], eax
  0008d	89 4c 24 28	 mov	 DWORD PTR _LogData$[esp+1072], ecx
  00091	ff 15 00 00 00
	00		 call	 DWORD PTR __imp__inet_ntoa@4
  00097	8b 3d 00 00 00
	00		 mov	 edi, DWORD PTR __imp__lstrcpyA@8
  0009d	50		 push	 eax
  0009e	8d 44 24 2c	 lea	 eax, DWORD PTR _LogData$[esp+1076]
  000a2	50		 push	 eax
  000a3	ff d7		 call	 edi

; 2040 : 
; 2041 : 	LogData.wMapID			=	pPlayer->m_wMapID;				//	Map ID

  000a5	66 8b 8e 90 01
	01 00		 mov	 cx, WORD PTR [esi+65936]

; 2042 : 	LogData.nX				=	(int)pPlayer->m_fPosX;			//	X

  000ac	d9 86 7c 01 01
	00		 fld	 DWORD PTR [esi+65916]
  000b2	66 89 4c 24 3c	 mov	 WORD PTR _LogData$[esp+1092], cx
  000b7	e8 00 00 00 00	 call	 __ftol2

; 2043 : 	LogData.nY				=	(int)pPlayer->m_fPosY;			//	Y

  000bc	d9 86 80 01 01
	00		 fld	 DWORD PTR [esi+65920]
  000c2	89 44 24 40	 mov	 DWORD PTR _LogData$[esp+1096], eax
  000c6	e8 00 00 00 00	 call	 __ftol2

; 2044 : 	LogData.nZ				=	(int)pPlayer->m_fPosZ;			//	Z

  000cb	d9 86 84 01 01
	00		 fld	 DWORD PTR [esi+65924]
  000d1	89 44 24 44	 mov	 DWORD PTR _LogData$[esp+1100], eax
  000d5	e8 00 00 00 00	 call	 __ftol2

; 2045 : 
; 2046 : 	LogData.dwKey[0]		=	pPlayer->m_dwUserID;			//	User ID

  000da	8b 96 ac 03 01
	00		 mov	 edx, DWORD PTR [esi+66476]
  000e0	89 44 24 48	 mov	 DWORD PTR _LogData$[esp+1104], eax

; 2047 : 	LogData.dwKey[1]		=	pPlayer->m_dwID;				//	Character Seq

  000e4	8b 86 44 01 01
	00		 mov	 eax, DWORD PTR [esi+65860]
  000ea	89 44 24 54	 mov	 DWORD PTR _LogData$[esp+1116], eax

; 2048 : 	lstrcpy(LogData.szKey[1],	pPlayer->m_strNAME);			//	Character Name

  000ee	8b 86 a4 03 01
	00		 mov	 eax, DWORD PTR [esi+66468]
  000f4	50		 push	 eax
  000f5	8d 8c 24 da 00
	00 00		 lea	 ecx, DWORD PTR _LogData$[esp+1250]
  000fc	51		 push	 ecx
  000fd	89 54 24 54	 mov	 DWORD PTR _LogData$[esp+1116], edx
  00101	89 5c 24 58	 mov	 DWORD PTR _LogData$[esp+1120], ebx
  00105	89 5c 24 60	 mov	 DWORD PTR _LogData$[esp+1128], ebx
  00109	ff d7		 call	 edi

; 2049 : 
; 2050 : 	LogData.dwKey[9]		=	pPlayer->m_bCountry + (pPlayer->m_bAidCountry == TCONTRY_N ? 0 : (pPlayer->m_bAidCountry+1)*10);			//	Country

  0010b	8a 86 9e 01 01
	00		 mov	 al, BYTE PTR [esi+65950]
  00111	3c 03		 cmp	 al, 3
  00113	75 04		 jne	 SHORT $L179275
  00115	33 c9		 xor	 ecx, ecx
  00117	eb 09		 jmp	 SHORT $L179276
$L179275:
  00119	0f b6 c0	 movzx	 eax, al
  0011c	40		 inc	 eax
  0011d	8d 0c 80	 lea	 ecx, DWORD PTR [eax+eax*4]
  00120	d1 e1		 shl	 ecx, 1
$L179276:
  00122	0f b6 86 9d 01
	01 00		 movzx	 eax, BYTE PTR [esi+65949]

; 2051 : 	LogData.dwKey[10]		=	pPlayer->m_bLevel;				//	Level
; 2052 : 
; 2053 : 
; 2054 : 	//PvP Point
; 2055 : 	LogData.dwKey[2]		=	TOWNER_CHAR;					//	Char or Guild
; 2056 : 	LogData.dwKey[3]		=	bEventType;						//	PVP_EVENT	
; 2057 : 	lstrcpy(LogData.szKey[2],	pTargetName);

  00129	8b ac 24 34 04
	00 00		 mov	 ebp, DWORD PTR _pTargetName$[esp+1048]
  00130	03 c1		 add	 eax, ecx
  00132	99		 cdq
  00133	89 84 24 94 00
	00 00		 mov	 DWORD PTR _LogData$[esp+1180], eax
  0013a	0f b6 86 7b 01
	01 00		 movzx	 eax, BYTE PTR [esi+65915]
  00141	89 94 24 98 00
	00 00		 mov	 DWORD PTR _LogData$[esp+1184], edx
  00148	99		 cdq
  00149	89 84 24 9c 00
	00 00		 mov	 DWORD PTR _LogData$[esp+1188], eax
  00150	0f b6 84 24 2c
	04 00 00	 movzx	 eax, BYTE PTR _bEventType$[esp+1048]
  00158	89 94 24 a0 00
	00 00		 mov	 DWORD PTR _LogData$[esp+1192], edx
  0015f	99		 cdq
  00160	89 54 24 68	 mov	 DWORD PTR _LogData$[esp+1136], edx
  00164	55		 push	 ebp
  00165	8d 94 24 0c 01
	00 00		 lea	 edx, DWORD PTR _LogData$[esp+1300]
  0016c	52		 push	 edx
  0016d	89 5c 24 64	 mov	 DWORD PTR _LogData$[esp+1132], ebx
  00171	89 5c 24 68	 mov	 DWORD PTR _LogData$[esp+1136], ebx
  00175	89 44 24 6c	 mov	 DWORD PTR _LogData$[esp+1140], eax
  00179	ff d7		 call	 edi

; 2058 : 
; 2059 : 	if(bPointType & PVP_TOTAL)

  0017b	8a 84 24 30 04
	00 00		 mov	 al, BYTE PTR _bPointType$[esp+1048]
  00182	a8 01		 test	 al, 1
  00184	8b 8c 24 28 04
	00 00		 mov	 ecx, DWORD PTR _dwPoint$[esp+1048]
  0018b	74 08		 je	 SHORT $L176112

; 2060 :         LogData.dwKey[4]		=	dwPoint;

  0018d	89 4c 24 6c	 mov	 DWORD PTR _LogData$[esp+1140], ecx
  00191	89 5c 24 70	 mov	 DWORD PTR _LogData$[esp+1144], ebx
$L176112:

; 2061 : 	if(bPointType & PVP_USEABLE)

  00195	a8 02		 test	 al, 2
  00197	74 08		 je	 SHORT $L176113

; 2062 : 		LogData.dwKey[5]		=	dwPoint;	

  00199	89 4c 24 74	 mov	 DWORD PTR _LogData$[esp+1148], ecx
  0019d	89 5c 24 78	 mov	 DWORD PTR _LogData$[esp+1152], ebx
$L176113:

; 2063 : 
; 2064 : 	LogData.dwKey[6]		=	pPlayer->m_dwPvPTotalPoint;
; 2065 : 	LogData.dwKey[7]		=	pPlayer->m_dwPvPUseablePoint;

  001a1	8b 8e d8 03 01
	00		 mov	 ecx, DWORD PTR [esi+66520]
  001a7	8b 86 dc 03 01
	00		 mov	 eax, DWORD PTR [esi+66524]
  001ad	89 8c 24 84 00
	00 00		 mov	 DWORD PTR _LogData$[esp+1164], ecx

; 2066 : 	
; 2067 : 	
; 2068 : 	SendDMLog( LogData );

  001b4	81 ec f8 03 00
	00		 sub	 esp, 1016		; 000003f8H
  001ba	8b fc		 mov	 edi, esp
  001bc	89 84 24 74 04
	00 00		 mov	 DWORD PTR _LogData$[esp+2172], eax
  001c3	89 9c 24 78 04
	00 00		 mov	 DWORD PTR _LogData$[esp+2176], ebx
  001ca	89 9c 24 80 04
	00 00		 mov	 DWORD PTR _LogData$[esp+2184], ebx
  001d1	b9 fe 00 00 00	 mov	 ecx, 254		; 000000feH
  001d6	8d b4 24 0c 04
	00 00		 lea	 esi, DWORD PTR _LogData$[esp+2068]
  001dd	f3 a5		 rep movsd
  001df	8b 8c 24 08 04
	00 00		 mov	 ecx, DWORD PTR _this$[esp+2068]
  001e6	e8 00 00 00 00	 call	 ?SendDMLog@CUdpSocket@@QAEXU_LOG_DATA_@@@Z ; CUdpSocket::SendDMLog

; 2069 : }

  001eb	8d 45 f0	 lea	 eax, DWORD PTR [ebp-16]
  001ee	c7 84 24 18 04
	00 00 ff ff ff
	ff		 mov	 DWORD PTR __$EHRec$[esp+1060], -1
  001f9	8d 50 0c	 lea	 edx, DWORD PTR [eax+12]
  001fc	83 c9 ff	 or	 ecx, -1
  001ff	f0 0f c1 0a	 lock	  xadd	 DWORD PTR [edx], ecx
  00203	49		 dec	 ecx
  00204	85 c9		 test	 ecx, ecx
$L179347:
  00206	7f 08		 jg	 SHORT $L179339
  00208	8b 08		 mov	 ecx, DWORD PTR [eax]
  0020a	8b 11		 mov	 edx, DWORD PTR [ecx]
  0020c	50		 push	 eax
  0020d	ff 52 04	 call	 DWORD PTR [edx+4]
$L179339:
  00210	8b 8c 24 10 04
	00 00		 mov	 ecx, DWORD PTR __$EHRec$[esp+1052]
  00217	64 89 0d 00 00
	00 00		 mov	 DWORD PTR fs:__except_list, ecx
  0021e	8b 8c 24 0c 04
	00 00		 mov	 ecx, DWORD PTR __$ArrayPad$[esp+1052]
  00225	e8 00 00 00 00	 call	 @__security_check_cookie@4
  0022a	5f		 pop	 edi
  0022b	5e		 pop	 esi
  0022c	5d		 pop	 ebp
  0022d	5b		 pop	 ebx
  0022e	81 c4 0c 04 00
	00		 add	 esp, 1036		; 0000040cH
  00234	c2 18 00	 ret	 24			; 00000018H
_TEXT	ENDS
;	COMDAT text$x
text$x	SEGMENT
$L179277:
  00000	8d 4d 18	 lea	 ecx, DWORD PTR _pTargetName$[ebp-4]
  00003	e9 00 00 00 00	 jmp	 ??1?$CStringT@DV?$StrTraitATL@DV?$ChTraitsCRT@D@ATL@@@ATL@@@ATL@@QAE@XZ ; ATL::CStringT<char,ATL::StrTraitATL<char,ATL::ChTraitsCRT<char> > >::~CStringT<char,ATL::StrTraitATL<char,ATL::ChTraitsCRT<char> > >
__ehhandler$?LogPvPointChar@CUdpSocket@@QAEXKPAVCTPlayer@@KEEV?$CStringT@DV?$StrTraitATL@DV?$ChTraitsCRT@D@ATL@@@ATL@@@ATL@@@Z:
  00008	b8 00 00 00 00	 mov	 eax, OFFSET FLAT:$T179344
  0000d	e9 00 00 00 00	 jmp	 ___CxxFrameHandler
text$x	ENDS
?LogPvPointChar@CUdpSocket@@QAEXKPAVCTPlayer@@KEEV?$CStringT@DV?$StrTraitATL@DV?$ChTraitsCRT@D@ATL@@@ATL@@@ATL@@@Z ENDP ; CUdpSocket::LogPvPointChar
PUBLIC	??_C@_05IKNCGCHC@Party?$AA@			; `string'
PUBLIC	??_C@_06IGOBCGAJ@Single?$AA@			; `string'
PUBLIC	??_C@_0BB@PHMNFLFF@Tournament?5Apply?$AA@	; `string'
PUBLIC	?LogTournamentApply@CUdpSocket@@QAEXKPAVCTPlayer@@V?$CStringT@DV?$StrTraitATL@DV?$ChTraitsCRT@D@ATL@@@ATL@@@ATL@@E1@Z ; CUdpSocket::LogTournamentApply
;	COMDAT xdata$x
; File c:\program files (x86)\microsoft visual studio .net 2003\vc7\atlmfc\include\atlsimpstr.h
xdata$x	SEGMENT
$T179487 DD	0ffffffffH
	DD	FLAT:$L179355
	DD	00H
	DD	FLAT:$L179356
$T179480 DD	019930520H
	DD	02H
	DD	FLAT:$T179487
	DD	2 DUP(00H)
	DD	2 DUP(00H)
xdata$x	ENDS
;	COMDAT ??_C@_05IKNCGCHC@Party?$AA@
CONST	SEGMENT
??_C@_05IKNCGCHC@Party?$AA@ DB 'Party', 00H		; `string'
CONST	ENDS
;	COMDAT ??_C@_06IGOBCGAJ@Single?$AA@
CONST	SEGMENT
??_C@_06IGOBCGAJ@Single?$AA@ DB 'Single', 00H		; `string'
CONST	ENDS
;	COMDAT ??_C@_0BB@PHMNFLFF@Tournament?5Apply?$AA@
CONST	SEGMENT
??_C@_0BB@PHMNFLFF@Tournament?5Apply?$AA@ DB 'Tournament Apply', 00H ; `string'
; Function compile flags: /Ogty
; File c:\users\pierr\desktop\4story - oldschool\sources\tserver\tmapsvr\udpsocket.cpp
CONST	ENDS
;	COMDAT ?LogTournamentApply@CUdpSocket@@QAEXKPAVCTPlayer@@V?$CStringT@DV?$StrTraitATL@DV?$ChTraitsCRT@D@ATL@@@ATL@@@ATL@@E1@Z
_TEXT	SEGMENT
_this$ = -1036						; size = 4
_LogData$ = -1032					; size = 1016
__$ArrayPad$ = -16					; size = 4
__$EHRec$ = -12						; size = 12
__$ReturnAddr$ = 4					; size = 4
_pAction$ = 8						; size = 4
_pPlayer$ = 12						; size = 4
_pEventName$ = 16					; size = 4
_bParty$ = 20						; size = 1
_strTarget$ = 24					; size = 4
?LogTournamentApply@CUdpSocket@@QAEXKPAVCTPlayer@@V?$CStringT@DV?$StrTraitATL@DV?$ChTraitsCRT@D@ATL@@@ATL@@@ATL@@E1@Z PROC NEAR ; CUdpSocket::LogTournamentApply, COMDAT
; _this$ = ecx

; 2304 : {

  00000	6a ff		 push	 -1
  00002	68 00 00 00 00	 push	 __ehhandler$?LogTournamentApply@CUdpSocket@@QAEXKPAVCTPlayer@@V?$CStringT@DV?$StrTraitATL@DV?$ChTraitsCRT@D@ATL@@@ATL@@@ATL@@E1@Z
  00007	64 a1 00 00 00
	00		 mov	 eax, DWORD PTR fs:__except_list
  0000d	50		 push	 eax
  0000e	64 89 25 00 00
	00 00		 mov	 DWORD PTR fs:__except_list, esp
  00015	81 ec 00 04 00
	00		 sub	 esp, 1024		; 00000400H
  0001b	a1 00 00 00 00	 mov	 eax, DWORD PTR ___security_cookie
  00020	53		 push	 ebx
  00021	55		 push	 ebp
  00022	56		 push	 esi
  00023	89 84 24 08 04
	00 00		 mov	 DWORD PTR __$ArrayPad$[esp+1048], eax
  0002a	57		 push	 edi
  0002b	89 4c 24 10	 mov	 DWORD PTR _this$[esp+1052], ecx

; 2305 : 	if(!pPlayer) return;

  0002f	8b b4 24 24 04
	00 00		 mov	 esi, DWORD PTR _pPlayer$[esp+1048]
  00036	33 db		 xor	 ebx, ebx
  00038	3b f3		 cmp	 esi, ebx
  0003a	c7 84 24 18 04
	00 00 01 00 00
	00		 mov	 DWORD PTR __$EHRec$[esp+1060], 1
  00045	75 23		 jne	 SHORT $L176216
  00047	8b 84 24 28 04
	00 00		 mov	 eax, DWORD PTR _pEventName$[esp+1048]
  0004e	83 c0 f0	 add	 eax, -16		; fffffff0H
  00051	88 9c 24 18 04
	00 00		 mov	 BYTE PTR __$EHRec$[esp+1060], bl
  00058	8d 48 0c	 lea	 ecx, DWORD PTR [eax+12]
  0005b	83 ca ff	 or	 edx, -1
  0005e	f0 0f c1 11	 lock	  xadd	 DWORD PTR [ecx], edx
  00062	4a		 dec	 edx
  00063	85 d2		 test	 edx, edx
  00065	e9 6c 01 00 00	 jmp	 $L179485
$L176216:

; 2306 : 
; 2307 : 	_LOG_DATA_ LogData;
; 2308 : 	memset( &LogData, 0x00, sizeof(_LOG_DATA_));
; 2309 : 
; 2310 : 	LogData.dwAction	=	pAction;
; 2311 : 	LogData.dwServerID	=	_AtlModule.GetServerID();
; 2312 : 
; 2313 : 	lstrcpy( LogData.szClientIP, inet_ntoa(pPlayer->m_addr.sin_addr) );	

  0006a	8b 56 40	 mov	 edx, DWORD PTR [esi+64]
  0006d	33 c0		 xor	 eax, eax
  0006f	b9 fe 00 00 00	 mov	 ecx, 254		; 000000feH
  00074	8d 7c 24 14	 lea	 edi, DWORD PTR _LogData$[esp+1052]
  00078	f3 ab		 rep stosd
  0007a	0f b6 0d 82 9e
	00 00		 movzx	 ecx, BYTE PTR ?_AtlModule@@3VCTMapSvrModule@@A+40578
  00081	8b 84 24 20 04
	00 00		 mov	 eax, DWORD PTR _pAction$[esp+1048]
  00088	52		 push	 edx
  00089	89 44 24 3c	 mov	 DWORD PTR _LogData$[esp+1092], eax
  0008d	89 4c 24 28	 mov	 DWORD PTR _LogData$[esp+1072], ecx
  00091	ff 15 00 00 00
	00		 call	 DWORD PTR __imp__inet_ntoa@4
  00097	8b 3d 00 00 00
	00		 mov	 edi, DWORD PTR __imp__lstrcpyA@8
  0009d	50		 push	 eax
  0009e	8d 44 24 2c	 lea	 eax, DWORD PTR _LogData$[esp+1076]
  000a2	50		 push	 eax
  000a3	ff d7		 call	 edi

; 2314 : 
; 2315 : 	LogData.wMapID			=	pPlayer->m_wMapID;						//	Map ID

  000a5	66 8b 8e 90 01
	01 00		 mov	 cx, WORD PTR [esi+65936]

; 2316 : 	LogData.nX				=	(int)pPlayer->m_fPosX;					//	X

  000ac	d9 86 7c 01 01
	00		 fld	 DWORD PTR [esi+65916]
  000b2	66 89 4c 24 3c	 mov	 WORD PTR _LogData$[esp+1092], cx
  000b7	e8 00 00 00 00	 call	 __ftol2

; 2317 : 	LogData.nY				=	(int)pPlayer->m_fPosY;					//	Y

  000bc	d9 86 80 01 01
	00		 fld	 DWORD PTR [esi+65920]
  000c2	89 44 24 40	 mov	 DWORD PTR _LogData$[esp+1096], eax
  000c6	e8 00 00 00 00	 call	 __ftol2

; 2318 : 	LogData.nZ				=	(int)pPlayer->m_fPosZ;					//	Z

  000cb	d9 86 84 01 01
	00		 fld	 DWORD PTR [esi+65924]
  000d1	89 44 24 44	 mov	 DWORD PTR _LogData$[esp+1100], eax
  000d5	e8 00 00 00 00	 call	 __ftol2

; 2319 : 
; 2320 : 	LogData.dwKey[0]		=	pPlayer->m_dwUserID;					// User ID

  000da	8b 96 ac 03 01
	00		 mov	 edx, DWORD PTR [esi+66476]
  000e0	89 44 24 48	 mov	 DWORD PTR _LogData$[esp+1104], eax

; 2321 : 	LogData.dwKey[1]		=	pPlayer->m_dwID;						//	Character Seq	

  000e4	8b 86 44 01 01
	00		 mov	 eax, DWORD PTR [esi+65860]
  000ea	89 44 24 54	 mov	 DWORD PTR _LogData$[esp+1116], eax

; 2322 : 	LogData.dwKey[2]		=	pPlayer->m_bCountry;					//	Country

  000ee	0f b6 86 9d 01
	01 00		 movzx	 eax, BYTE PTR [esi+65949]
  000f5	89 54 24 4c	 mov	 DWORD PTR _LogData$[esp+1108], edx
  000f9	99		 cdq
  000fa	89 44 24 5c	 mov	 DWORD PTR _LogData$[esp+1124], eax

; 2323 : 	lstrcpy(LogData.szKey[1],	pPlayer->m_strNAME	);					//	Character Name

  000fe	8b 86 a4 03 01
	00		 mov	 eax, DWORD PTR [esi+66468]
  00104	50		 push	 eax
  00105	8d 8c 24 da 00
	00 00		 lea	 ecx, DWORD PTR _LogData$[esp+1250]
  0010c	51		 push	 ecx
  0010d	89 5c 24 58	 mov	 DWORD PTR _LogData$[esp+1120], ebx
  00111	89 5c 24 60	 mov	 DWORD PTR _LogData$[esp+1128], ebx
  00115	89 54 24 68	 mov	 DWORD PTR _LogData$[esp+1136], edx
  00119	ff d7		 call	 edi

; 2324 : 
; 2325 : 	LogData.dwKey[3]		=	pPlayer->m_bLevel;						//	Level

  0011b	0f b6 86 7b 01
	01 00		 movzx	 eax, BYTE PTR [esi+65915]
  00122	99		 cdq
  00123	89 44 24 64	 mov	 DWORD PTR _LogData$[esp+1132], eax

; 2326 : 	LogData.dwKey[4]		=	pPlayer->m_bClass;						//	Class

  00127	0f b6 86 b8 03
	01 00		 movzx	 eax, BYTE PTR [esi+66488]
  0012e	89 54 24 68	 mov	 DWORD PTR _LogData$[esp+1136], edx
  00132	99		 cdq
  00133	89 54 24 70	 mov	 DWORD PTR _LogData$[esp+1144], edx

; 2327 : 	
; 2328 : 	lstrcpy(LogData.szKey[2],	strTarget);								//	Target Name

  00137	8b 94 24 30 04
	00 00		 mov	 edx, DWORD PTR _strTarget$[esp+1048]
  0013e	89 44 24 6c	 mov	 DWORD PTR _LogData$[esp+1140], eax
  00142	52		 push	 edx
  00143	8d 84 24 0c 01
	00 00		 lea	 eax, DWORD PTR _LogData$[esp+1300]
  0014a	50		 push	 eax
  0014b	ff d7		 call	 edi

; 2329 : 
; 2330 : 	lstrcpy(LogData.szKey[4],	pEventName	);							//	Event Name

  0014d	8b ac 24 28 04
	00 00		 mov	 ebp, DWORD PTR _pEventName$[esp+1048]
  00154	55		 push	 ebp
  00155	8d 8c 24 70 01
	00 00		 lea	 ecx, DWORD PTR _LogData$[esp+1400]
  0015c	51		 push	 ecx
  0015d	ff d7		 call	 edi

; 2331 : 	if(bParty == 1)

  0015f	80 bc 24 2c 04
	00 00 01	 cmp	 BYTE PTR _bParty$[esp+1048], 1
  00167	75 0f		 jne	 SHORT $L176222

; 2332 : 		lstrcpy(LogData.szKey[5],	"Party"	);							//	Party

  00169	68 00 00 00 00	 push	 OFFSET FLAT:??_C@_05IKNCGCHC@Party?$AA@
  0016e	8d 94 24 a2 01
	00 00		 lea	 edx, DWORD PTR _LogData$[esp+1450]
  00175	52		 push	 edx

; 2333 : 	else lstrcpy(LogData.szKey[5],	"Single");							

  00176	eb 0d		 jmp	 SHORT $L179486
$L176222:
  00178	68 00 00 00 00	 push	 OFFSET FLAT:??_C@_06IGOBCGAJ@Single?$AA@
  0017d	8d 84 24 a2 01
	00 00		 lea	 eax, DWORD PTR _LogData$[esp+1450]
  00184	50		 push	 eax
$L179486:
  00185	ff d7		 call	 edi

; 2334 : 	
; 2335 : 	lstrcpy(LogData.szLog,	"Tournament Apply"	);

  00187	68 00 00 00 00	 push	 OFFSET FLAT:??_C@_0BB@PHMNFLFF@Tournament?5Apply?$AA@
  0018c	8d 8c 24 0c 02
	00 00		 lea	 ecx, DWORD PTR _LogData$[esp+1556]
  00193	51		 push	 ecx
  00194	ff d7		 call	 edi

; 2336 : 
; 2337 : 	LogData.dwFormat = LF_TEXT;
; 2338 : 
; 2339 : 	SendDMLog( LogData );

  00196	81 ec f8 03 00
	00		 sub	 esp, 1016		; 000003f8H
  0019c	8b fc		 mov	 edi, esp
  0019e	89 9c 24 fc 05
	00 00		 mov	 DWORD PTR _LogData$[esp+2564], ebx
  001a5	b9 fe 00 00 00	 mov	 ecx, 254		; 000000feH
  001aa	8d b4 24 0c 04
	00 00		 lea	 esi, DWORD PTR _LogData$[esp+2068]
  001b1	f3 a5		 rep movsd
  001b3	8b 8c 24 08 04
	00 00		 mov	 ecx, DWORD PTR _this$[esp+2068]
  001ba	e8 00 00 00 00	 call	 ?SendDMLog@CUdpSocket@@QAEXU_LOG_DATA_@@@Z ; CUdpSocket::SendDMLog

; 2340 : }

  001bf	8d 45 f0	 lea	 eax, DWORD PTR [ebp-16]
  001c2	88 9c 24 18 04
	00 00		 mov	 BYTE PTR __$EHRec$[esp+1060], bl
  001c9	8d 50 0c	 lea	 edx, DWORD PTR [eax+12]
  001cc	83 c9 ff	 or	 ecx, -1
  001cf	f0 0f c1 0a	 lock	  xadd	 DWORD PTR [edx], ecx
  001d3	49		 dec	 ecx
  001d4	85 c9		 test	 ecx, ecx
$L179485:
  001d6	7f 08		 jg	 SHORT $L179448
  001d8	8b 08		 mov	 ecx, DWORD PTR [eax]
  001da	8b 11		 mov	 edx, DWORD PTR [ecx]
  001dc	50		 push	 eax
  001dd	ff 52 04	 call	 DWORD PTR [edx+4]
$L179448:
  001e0	8b 84 24 30 04
	00 00		 mov	 eax, DWORD PTR _strTarget$[esp+1048]
  001e7	83 c0 f0	 add	 eax, -16		; fffffff0H
  001ea	c7 84 24 18 04
	00 00 ff ff ff
	ff		 mov	 DWORD PTR __$EHRec$[esp+1060], -1
  001f5	8d 48 0c	 lea	 ecx, DWORD PTR [eax+12]
  001f8	83 ca ff	 or	 edx, -1
  001fb	f0 0f c1 11	 lock	  xadd	 DWORD PTR [ecx], edx
  001ff	4a		 dec	 edx
  00200	85 d2		 test	 edx, edx
  00202	7f 08		 jg	 SHORT $L179475
  00204	8b 08		 mov	 ecx, DWORD PTR [eax]
  00206	8b 11		 mov	 edx, DWORD PTR [ecx]
  00208	50		 push	 eax
  00209	ff 52 04	 call	 DWORD PTR [edx+4]
$L179475:
  0020c	8b 8c 24 10 04
	00 00		 mov	 ecx, DWORD PTR __$EHRec$[esp+1052]
  00213	64 89 0d 00 00
	00 00		 mov	 DWORD PTR fs:__except_list, ecx
  0021a	8b 8c 24 0c 04
	00 00		 mov	 ecx, DWORD PTR __$ArrayPad$[esp+1052]
  00221	e8 00 00 00 00	 call	 @__security_check_cookie@4
  00226	5f		 pop	 edi
  00227	5e		 pop	 esi
  00228	5d		 pop	 ebp
  00229	5b		 pop	 ebx
  0022a	81 c4 0c 04 00
	00		 add	 esp, 1036		; 0000040cH
  00230	c2 14 00	 ret	 20			; 00000014H
_TEXT	ENDS
;	COMDAT text$x
text$x	SEGMENT
$L179355:
  00000	8d 4d 14	 lea	 ecx, DWORD PTR _strTarget$[ebp-4]
  00003	e9 00 00 00 00	 jmp	 ??1?$CStringT@DV?$StrTraitATL@DV?$ChTraitsCRT@D@ATL@@@ATL@@@ATL@@QAE@XZ ; ATL::CStringT<char,ATL::StrTraitATL<char,ATL::ChTraitsCRT<char> > >::~CStringT<char,ATL::StrTraitATL<char,ATL::ChTraitsCRT<char> > >
$L179356:
  00008	8d 4d 0c	 lea	 ecx, DWORD PTR _pEventName$[ebp-4]
  0000b	e9 00 00 00 00	 jmp	 ??1?$CStringT@DV?$StrTraitATL@DV?$ChTraitsCRT@D@ATL@@@ATL@@@ATL@@QAE@XZ ; ATL::CStringT<char,ATL::StrTraitATL<char,ATL::ChTraitsCRT<char> > >::~CStringT<char,ATL::StrTraitATL<char,ATL::ChTraitsCRT<char> > >
__ehhandler$?LogTournamentApply@CUdpSocket@@QAEXKPAVCTPlayer@@V?$CStringT@DV?$StrTraitATL@DV?$ChTraitsCRT@D@ATL@@@ATL@@@ATL@@E1@Z:
  00010	b8 00 00 00 00	 mov	 eax, OFFSET FLAT:$T179480
  00015	e9 00 00 00 00	 jmp	 ___CxxFrameHandler
text$x	ENDS
?LogTournamentApply@CUdpSocket@@QAEXKPAVCTPlayer@@V?$CStringT@DV?$StrTraitATL@DV?$ChTraitsCRT@D@ATL@@@ATL@@@ATL@@E1@Z ENDP ; CUdpSocket::LogTournamentApply
PUBLIC	??_C@_0BD@IHLOJELJ@Tournament?5Batting?$AA@	; `string'
PUBLIC	?LogTournamentEvent@CUdpSocket@@QAEXKPAVCTPlayer@@KV?$CStringT@DV?$StrTraitATL@DV?$ChTraitsCRT@D@ATL@@@ATL@@@ATL@@E@Z ; CUdpSocket::LogTournamentEvent
;	COMDAT xdata$x
; File c:\program files (x86)\microsoft visual studio .net 2003\vc7\atlmfc\include\atlsimpstr.h
xdata$x	SEGMENT
$T179567 DD	0ffffffffH
	DD	FLAT:$L179494
$T179561 DD	019930520H
	DD	01H
	DD	FLAT:$T179567
	DD	2 DUP(00H)
	DD	2 DUP(00H)
xdata$x	ENDS
;	COMDAT ??_C@_0BD@IHLOJELJ@Tournament?5Batting?$AA@
CONST	SEGMENT
??_C@_0BD@IHLOJELJ@Tournament?5Batting?$AA@ DB 'Tournament Batting', 00H ; `string'
; Function compile flags: /Ogty
; File c:\users\pierr\desktop\4story - oldschool\sources\tserver\tmapsvr\udpsocket.cpp
CONST	ENDS
;	COMDAT ?LogTournamentEvent@CUdpSocket@@QAEXKPAVCTPlayer@@KV?$CStringT@DV?$StrTraitATL@DV?$ChTraitsCRT@D@ATL@@@ATL@@@ATL@@E@Z
_TEXT	SEGMENT
_this$ = -1036						; size = 4
_LogData$ = -1032					; size = 1016
__$ArrayPad$ = -16					; size = 4
__$EHRec$ = -12						; size = 12
__$ReturnAddr$ = 4					; size = 4
_pAction$ = 8						; size = 4
_pPlayer$ = 12						; size = 4
_dwTargetID$ = 16					; size = 4
_pTitle$ = 20						; size = 4
_bType$ = 24						; size = 1
?LogTournamentEvent@CUdpSocket@@QAEXKPAVCTPlayer@@KV?$CStringT@DV?$StrTraitATL@DV?$ChTraitsCRT@D@ATL@@@ATL@@@ATL@@E@Z PROC NEAR ; CUdpSocket::LogTournamentEvent, COMDAT
; _this$ = ecx

; 2390 : {

  00000	6a ff		 push	 -1
  00002	68 00 00 00 00	 push	 __ehhandler$?LogTournamentEvent@CUdpSocket@@QAEXKPAVCTPlayer@@KV?$CStringT@DV?$StrTraitATL@DV?$ChTraitsCRT@D@ATL@@@ATL@@@ATL@@E@Z
  00007	64 a1 00 00 00
	00		 mov	 eax, DWORD PTR fs:__except_list
  0000d	50		 push	 eax
  0000e	64 89 25 00 00
	00 00		 mov	 DWORD PTR fs:__except_list, esp
  00015	81 ec 00 04 00
	00		 sub	 esp, 1024		; 00000400H
  0001b	a1 00 00 00 00	 mov	 eax, DWORD PTR ___security_cookie
  00020	53		 push	 ebx
  00021	55		 push	 ebp
  00022	56		 push	 esi
  00023	89 84 24 08 04
	00 00		 mov	 DWORD PTR __$ArrayPad$[esp+1048], eax
  0002a	57		 push	 edi
  0002b	89 4c 24 10	 mov	 DWORD PTR _this$[esp+1052], ecx

; 2391 : 	if(!pPlayer) return;

  0002f	8b b4 24 24 04
	00 00		 mov	 esi, DWORD PTR _pPlayer$[esp+1048]
  00036	33 db		 xor	 ebx, ebx
  00038	3b f3		 cmp	 esi, ebx
  0003a	89 9c 24 18 04
	00 00		 mov	 DWORD PTR __$EHRec$[esp+1060], ebx
  00041	75 0f		 jne	 SHORT $L176262
  00043	8b 84 24 2c 04
	00 00		 mov	 eax, DWORD PTR _pTitle$[esp+1048]
  0004a	83 c0 f0	 add	 eax, -16		; fffffff0H
  0004d	e9 3b 01 00 00	 jmp	 $L179565
$L176262:

; 2392 : 
; 2393 : 	_LOG_DATA_ LogData;
; 2394 : 	memset( &LogData, 0x00, sizeof(_LOG_DATA_));
; 2395 : 
; 2396 : 	
; 2397 : 	LogData.dwAction	=	pAction;
; 2398 : 	LogData.dwServerID	=	_AtlModule.GetServerID();
; 2399 : 
; 2400 : 	lstrcpy( LogData.szClientIP, inet_ntoa(pPlayer->m_addr.sin_addr) );	

  00052	8b 56 40	 mov	 edx, DWORD PTR [esi+64]
  00055	33 c0		 xor	 eax, eax
  00057	b9 fe 00 00 00	 mov	 ecx, 254		; 000000feH
  0005c	8d 7c 24 14	 lea	 edi, DWORD PTR _LogData$[esp+1052]
  00060	f3 ab		 rep stosd
  00062	0f b6 0d 82 9e
	00 00		 movzx	 ecx, BYTE PTR ?_AtlModule@@3VCTMapSvrModule@@A+40578
  00069	8b 84 24 20 04
	00 00		 mov	 eax, DWORD PTR _pAction$[esp+1048]
  00070	52		 push	 edx
  00071	89 44 24 3c	 mov	 DWORD PTR _LogData$[esp+1092], eax
  00075	89 4c 24 28	 mov	 DWORD PTR _LogData$[esp+1072], ecx
  00079	ff 15 00 00 00
	00		 call	 DWORD PTR __imp__inet_ntoa@4
  0007f	8b 3d 00 00 00
	00		 mov	 edi, DWORD PTR __imp__lstrcpyA@8
  00085	50		 push	 eax
  00086	8d 44 24 2c	 lea	 eax, DWORD PTR _LogData$[esp+1076]
  0008a	50		 push	 eax
  0008b	ff d7		 call	 edi

; 2401 : 
; 2402 : 	LogData.wMapID			=	pPlayer->m_wMapID;						//	Map ID

  0008d	66 8b 8e 90 01
	01 00		 mov	 cx, WORD PTR [esi+65936]

; 2403 : 	LogData.nX				=	(int)pPlayer->m_fPosX;					//	X

  00094	d9 86 7c 01 01
	00		 fld	 DWORD PTR [esi+65916]
  0009a	66 89 4c 24 3c	 mov	 WORD PTR _LogData$[esp+1092], cx
  0009f	e8 00 00 00 00	 call	 __ftol2

; 2404 : 	LogData.nY				=	(int)pPlayer->m_fPosY;					//	Y

  000a4	d9 86 80 01 01
	00		 fld	 DWORD PTR [esi+65920]
  000aa	89 44 24 40	 mov	 DWORD PTR _LogData$[esp+1096], eax
  000ae	e8 00 00 00 00	 call	 __ftol2

; 2405 : 	LogData.nZ				=	(int)pPlayer->m_fPosZ;					//	Z

  000b3	d9 86 84 01 01
	00		 fld	 DWORD PTR [esi+65924]
  000b9	89 44 24 44	 mov	 DWORD PTR _LogData$[esp+1100], eax
  000bd	e8 00 00 00 00	 call	 __ftol2

; 2406 : 
; 2407 : 	LogData.dwKey[0]		=	pPlayer->m_dwUserID;					// User ID

  000c2	8b 96 ac 03 01
	00		 mov	 edx, DWORD PTR [esi+66476]
  000c8	89 44 24 48	 mov	 DWORD PTR _LogData$[esp+1104], eax

; 2408 : 	LogData.dwKey[1]		=	pPlayer->m_dwID;						//	Character Seq	

  000cc	8b 86 44 01 01
	00		 mov	 eax, DWORD PTR [esi+65860]
  000d2	89 44 24 54	 mov	 DWORD PTR _LogData$[esp+1116], eax

; 2409 : 	LogData.dwKey[2]		=	pPlayer->m_bCountry;					//	Country

  000d6	0f b6 86 9d 01
	01 00		 movzx	 eax, BYTE PTR [esi+65949]

; 2410 : 	lstrcpy(LogData.szKey[1],	pPlayer->m_strNAME	);					//	Character Name

  000dd	8b b6 a4 03 01
	00		 mov	 esi, DWORD PTR [esi+66468]
  000e3	89 54 24 4c	 mov	 DWORD PTR _LogData$[esp+1108], edx
  000e7	99		 cdq
  000e8	56		 push	 esi
  000e9	8d 8c 24 da 00
	00 00		 lea	 ecx, DWORD PTR _LogData$[esp+1250]
  000f0	51		 push	 ecx
  000f1	89 5c 24 58	 mov	 DWORD PTR _LogData$[esp+1120], ebx
  000f5	89 5c 24 60	 mov	 DWORD PTR _LogData$[esp+1128], ebx
  000f9	89 44 24 64	 mov	 DWORD PTR _LogData$[esp+1132], eax
  000fd	89 54 24 68	 mov	 DWORD PTR _LogData$[esp+1136], edx
  00101	ff d7		 call	 edi

; 2411 : 	
; 2412 : 	lstrcpy(LogData.szKey[4],	pTitle	);								//	Event Entry Title

  00103	8b ac 24 2c 04
	00 00		 mov	 ebp, DWORD PTR _pTitle$[esp+1048]
  0010a	55		 push	 ebp
  0010b	8d 94 24 70 01
	00 00		 lea	 edx, DWORD PTR _LogData$[esp+1400]
  00112	52		 push	 edx
  00113	ff d7		 call	 edi

; 2413 : 	if(bType == 1)

  00115	80 bc 24 30 04
	00 00 01	 cmp	 BYTE PTR _bType$[esp+1048], 1
  0011d	75 0f		 jne	 SHORT $L176268

; 2414 : 		lstrcpy(LogData.szKey[5],	"Party"	);							//	Party

  0011f	68 00 00 00 00	 push	 OFFSET FLAT:??_C@_05IKNCGCHC@Party?$AA@
  00124	8d 84 24 a2 01
	00 00		 lea	 eax, DWORD PTR _LogData$[esp+1450]
  0012b	50		 push	 eax

; 2415 : 	else lstrcpy(LogData.szKey[5],	"Single");							

  0012c	eb 0d		 jmp	 SHORT $L179566
$L176268:
  0012e	68 00 00 00 00	 push	 OFFSET FLAT:??_C@_06IGOBCGAJ@Single?$AA@
  00133	8d 8c 24 a2 01
	00 00		 lea	 ecx, DWORD PTR _LogData$[esp+1450]
  0013a	51		 push	 ecx
$L179566:
  0013b	ff d7		 call	 edi

; 2416 : 
; 2417 : 	//	Target
; 2418 : 	LogData.dwKey[6]		=	dwTargetID;								//	Character Seq

  0013d	8b 94 24 28 04
	00 00		 mov	 edx, DWORD PTR _dwTargetID$[esp+1048]

; 2419 : 
; 2420 : 	lstrcpy(LogData.szLog,	"Tournament Batting"	);

  00144	68 00 00 00 00	 push	 OFFSET FLAT:??_C@_0BD@IHLOJELJ@Tournament?5Batting?$AA@
  00149	8d 84 24 0c 02
	00 00		 lea	 eax, DWORD PTR _LogData$[esp+1556]
  00150	50		 push	 eax
  00151	89 94 24 84 00
	00 00		 mov	 DWORD PTR _LogData$[esp+1164], edx
  00158	89 9c 24 88 00
	00 00		 mov	 DWORD PTR _LogData$[esp+1168], ebx
  0015f	ff d7		 call	 edi

; 2421 : 
; 2422 : 	LogData.dwFormat = LF_TEXT;
; 2423 : 
; 2424 : 	SendDMLog( LogData );

  00161	81 ec f8 03 00
	00		 sub	 esp, 1016		; 000003f8H
  00167	8b fc		 mov	 edi, esp
  00169	89 9c 24 fc 05
	00 00		 mov	 DWORD PTR _LogData$[esp+2564], ebx
  00170	b9 fe 00 00 00	 mov	 ecx, 254		; 000000feH
  00175	8d b4 24 0c 04
	00 00		 lea	 esi, DWORD PTR _LogData$[esp+2068]
  0017c	f3 a5		 rep movsd
  0017e	8b 8c 24 08 04
	00 00		 mov	 ecx, DWORD PTR _this$[esp+2068]
  00185	e8 00 00 00 00	 call	 ?SendDMLog@CUdpSocket@@QAEXU_LOG_DATA_@@@Z ; CUdpSocket::SendDMLog

; 2425 : 
; 2426 : }

  0018a	8d 45 f0	 lea	 eax, DWORD PTR [ebp-16]
$L179565:
  0018d	c7 84 24 18 04
	00 00 ff ff ff
	ff		 mov	 DWORD PTR __$EHRec$[esp+1060], -1
  00198	8d 48 0c	 lea	 ecx, DWORD PTR [eax+12]
  0019b	83 ca ff	 or	 edx, -1
  0019e	f0 0f c1 11	 lock	  xadd	 DWORD PTR [ecx], edx
  001a2	4a		 dec	 edx
  001a3	85 d2		 test	 edx, edx
  001a5	7f 08		 jg	 SHORT $L179559
  001a7	8b 08		 mov	 ecx, DWORD PTR [eax]
  001a9	8b 11		 mov	 edx, DWORD PTR [ecx]
  001ab	50		 push	 eax
  001ac	ff 52 04	 call	 DWORD PTR [edx+4]
$L179559:
  001af	8b 8c 24 10 04
	00 00		 mov	 ecx, DWORD PTR __$EHRec$[esp+1052]
  001b6	64 89 0d 00 00
	00 00		 mov	 DWORD PTR fs:__except_list, ecx
  001bd	8b 8c 24 0c 04
	00 00		 mov	 ecx, DWORD PTR __$ArrayPad$[esp+1052]
  001c4	e8 00 00 00 00	 call	 @__security_check_cookie@4
  001c9	5f		 pop	 edi
  001ca	5e		 pop	 esi
  001cb	5d		 pop	 ebp
  001cc	5b		 pop	 ebx
  001cd	81 c4 0c 04 00
	00		 add	 esp, 1036		; 0000040cH
  001d3	c2 14 00	 ret	 20			; 00000014H
_TEXT	ENDS
;	COMDAT text$x
text$x	SEGMENT
$L179494:
  00000	8d 4d 10	 lea	 ecx, DWORD PTR _pTitle$[ebp-4]
  00003	e9 00 00 00 00	 jmp	 ??1?$CStringT@DV?$StrTraitATL@DV?$ChTraitsCRT@D@ATL@@@ATL@@@ATL@@QAE@XZ ; ATL::CStringT<char,ATL::StrTraitATL<char,ATL::ChTraitsCRT<char> > >::~CStringT<char,ATL::StrTraitATL<char,ATL::ChTraitsCRT<char> > >
__ehhandler$?LogTournamentEvent@CUdpSocket@@QAEXKPAVCTPlayer@@KV?$CStringT@DV?$StrTraitATL@DV?$ChTraitsCRT@D@ATL@@@ATL@@@ATL@@E@Z:
  00008	b8 00 00 00 00	 mov	 eax, OFFSET FLAT:$T179561
  0000d	e9 00 00 00 00	 jmp	 ___CxxFrameHandler
text$x	ENDS
?LogTournamentEvent@CUdpSocket@@QAEXKPAVCTPlayer@@KV?$CStringT@DV?$StrTraitATL@DV?$ChTraitsCRT@D@ATL@@@ATL@@@ATL@@E@Z ENDP ; CUdpSocket::LogTournamentEvent
PUBLIC	?LogTactics@CUdpSocket@@QAEXKPAVCTPlayer@@KV?$CStringT@DV?$StrTraitATL@DV?$ChTraitsCRT@D@ATL@@@ATL@@@ATL@@@Z ; CUdpSocket::LogTactics
;	COMDAT xdata$x
; File c:\program files (x86)\microsoft visual studio .net 2003\vc7\atlmfc\include\atlsimpstr.h
xdata$x	SEGMENT
$T179646 DD	0ffffffffH
	DD	FLAT:$L179574
$T179641 DD	019930520H
	DD	01H
	DD	FLAT:$T179646
	DD	2 DUP(00H)
	DD	2 DUP(00H)
; Function compile flags: /Ogty
; File c:\users\pierr\desktop\4story - oldschool\sources\tserver\tmapsvr\udpsocket.cpp
xdata$x	ENDS
;	COMDAT ?LogTactics@CUdpSocket@@QAEXKPAVCTPlayer@@KV?$CStringT@DV?$StrTraitATL@DV?$ChTraitsCRT@D@ATL@@@ATL@@@ATL@@@Z
_TEXT	SEGMENT
_this$ = -1036						; size = 4
_LogData$ = -1032					; size = 1016
__$ArrayPad$ = -16					; size = 4
__$EHRec$ = -12						; size = 12
__$ReturnAddr$ = 4					; size = 4
_pAction$ = 8						; size = 4
_pPlayer$ = 12						; size = 4
_dwGuild$ = 16						; size = 4
_strName$ = 20						; size = 4
?LogTactics@CUdpSocket@@QAEXKPAVCTPlayer@@KV?$CStringT@DV?$StrTraitATL@DV?$ChTraitsCRT@D@ATL@@@ATL@@@ATL@@@Z PROC NEAR ; CUdpSocket::LogTactics, COMDAT
; _this$ = ecx

; 2466 : {

  00000	6a ff		 push	 -1
  00002	68 00 00 00 00	 push	 __ehhandler$?LogTactics@CUdpSocket@@QAEXKPAVCTPlayer@@KV?$CStringT@DV?$StrTraitATL@DV?$ChTraitsCRT@D@ATL@@@ATL@@@ATL@@@Z
  00007	64 a1 00 00 00
	00		 mov	 eax, DWORD PTR fs:__except_list
  0000d	50		 push	 eax
  0000e	64 89 25 00 00
	00 00		 mov	 DWORD PTR fs:__except_list, esp
  00015	81 ec 00 04 00
	00		 sub	 esp, 1024		; 00000400H
  0001b	a1 00 00 00 00	 mov	 eax, DWORD PTR ___security_cookie
  00020	53		 push	 ebx
  00021	55		 push	 ebp
  00022	56		 push	 esi
  00023	89 84 24 08 04
	00 00		 mov	 DWORD PTR __$ArrayPad$[esp+1048], eax
  0002a	57		 push	 edi
  0002b	89 4c 24 10	 mov	 DWORD PTR _this$[esp+1052], ecx

; 2467 : 	if(!pPlayer) return;

  0002f	8b b4 24 24 04
	00 00		 mov	 esi, DWORD PTR _pPlayer$[esp+1048]
  00036	33 db		 xor	 ebx, ebx
  00038	3b f3		 cmp	 esi, ebx
  0003a	89 9c 24 18 04
	00 00		 mov	 DWORD PTR __$EHRec$[esp+1060], ebx
  00041	75 0f		 jne	 SHORT $L176292
  00043	8b 84 24 2c 04
	00 00		 mov	 eax, DWORD PTR _strName$[esp+1048]
  0004a	83 c0 f0	 add	 eax, -16		; fffffff0H
  0004d	e9 fe 00 00 00	 jmp	 $L179645
$L176292:

; 2468 : 
; 2469 : 	_LOG_DATA_ LogData;
; 2470 : 	memset( &LogData, 0x00, sizeof(_LOG_DATA_));
; 2471 : 
; 2472 : 	
; 2473 : 	LogData.dwAction	=	pAction;
; 2474 : 	LogData.dwServerID	=	_AtlModule.GetServerID();
; 2475 : 
; 2476 : 	lstrcpy( LogData.szClientIP, inet_ntoa(pPlayer->m_addr.sin_addr) );	

  00052	8b 56 40	 mov	 edx, DWORD PTR [esi+64]
  00055	33 c0		 xor	 eax, eax
  00057	b9 fe 00 00 00	 mov	 ecx, 254		; 000000feH
  0005c	8d 7c 24 14	 lea	 edi, DWORD PTR _LogData$[esp+1052]
  00060	f3 ab		 rep stosd
  00062	0f b6 0d 82 9e
	00 00		 movzx	 ecx, BYTE PTR ?_AtlModule@@3VCTMapSvrModule@@A+40578
  00069	8b 84 24 20 04
	00 00		 mov	 eax, DWORD PTR _pAction$[esp+1048]
  00070	52		 push	 edx
  00071	89 44 24 3c	 mov	 DWORD PTR _LogData$[esp+1092], eax
  00075	89 4c 24 28	 mov	 DWORD PTR _LogData$[esp+1072], ecx
  00079	ff 15 00 00 00
	00		 call	 DWORD PTR __imp__inet_ntoa@4
  0007f	8b 3d 00 00 00
	00		 mov	 edi, DWORD PTR __imp__lstrcpyA@8
  00085	50		 push	 eax
  00086	8d 44 24 2c	 lea	 eax, DWORD PTR _LogData$[esp+1076]
  0008a	50		 push	 eax
  0008b	ff d7		 call	 edi

; 2477 : 
; 2478 : 	LogData.wMapID			=	pPlayer->m_wMapID;						//	Map ID

  0008d	66 8b 8e 90 01
	01 00		 mov	 cx, WORD PTR [esi+65936]

; 2479 : 	LogData.nX				=	(int)pPlayer->m_fPosX;					//	X

  00094	d9 86 7c 01 01
	00		 fld	 DWORD PTR [esi+65916]
  0009a	66 89 4c 24 3c	 mov	 WORD PTR _LogData$[esp+1092], cx
  0009f	e8 00 00 00 00	 call	 __ftol2

; 2480 : 	LogData.nY				=	(int)pPlayer->m_fPosY;					//	Y

  000a4	d9 86 80 01 01
	00		 fld	 DWORD PTR [esi+65920]
  000aa	89 44 24 40	 mov	 DWORD PTR _LogData$[esp+1096], eax
  000ae	e8 00 00 00 00	 call	 __ftol2

; 2481 : 	LogData.nZ				=	(int)pPlayer->m_fPosZ;					//	Z

  000b3	d9 86 84 01 01
	00		 fld	 DWORD PTR [esi+65924]
  000b9	89 44 24 44	 mov	 DWORD PTR _LogData$[esp+1100], eax
  000bd	e8 00 00 00 00	 call	 __ftol2

; 2482 : 
; 2483 : 	LogData.dwKey[0]		=	pPlayer->m_dwUserID;					// User ID

  000c2	8b 96 ac 03 01
	00		 mov	 edx, DWORD PTR [esi+66476]
  000c8	89 44 24 48	 mov	 DWORD PTR _LogData$[esp+1104], eax

; 2484 : 	LogData.dwKey[1]		=	pPlayer->m_dwID;						//	Character Seq	

  000cc	8b 86 44 01 01
	00		 mov	 eax, DWORD PTR [esi+65860]
  000d2	89 44 24 54	 mov	 DWORD PTR _LogData$[esp+1116], eax

; 2485 : 	LogData.dwKey[2]		=	pPlayer->m_bCountry;					//	Country

  000d6	0f b6 86 9d 01
	01 00		 movzx	 eax, BYTE PTR [esi+65949]

; 2486 : 	lstrcpy(LogData.szKey[1],	pPlayer->m_strNAME	);					//	Character Name

  000dd	8b b6 a4 03 01
	00		 mov	 esi, DWORD PTR [esi+66468]
  000e3	89 54 24 4c	 mov	 DWORD PTR _LogData$[esp+1108], edx
  000e7	99		 cdq
  000e8	56		 push	 esi
  000e9	8d 8c 24 da 00
	00 00		 lea	 ecx, DWORD PTR _LogData$[esp+1250]
  000f0	51		 push	 ecx
  000f1	89 5c 24 58	 mov	 DWORD PTR _LogData$[esp+1120], ebx
  000f5	89 5c 24 60	 mov	 DWORD PTR _LogData$[esp+1128], ebx
  000f9	89 44 24 64	 mov	 DWORD PTR _LogData$[esp+1132], eax
  000fd	89 54 24 68	 mov	 DWORD PTR _LogData$[esp+1136], edx
  00101	ff d7		 call	 edi

; 2487 : 	
; 2488 : 	LogData.dwKey[3]		=	dwGuild;
; 2489 : 	lstrcpy(LogData.szKey[3],	strName);

  00103	8b ac 24 2c 04
	00 00		 mov	 ebp, DWORD PTR _strName$[esp+1048]
  0010a	8b 94 24 28 04
	00 00		 mov	 edx, DWORD PTR _dwGuild$[esp+1048]
  00111	55		 push	 ebp
  00112	8d 84 24 3e 01
	00 00		 lea	 eax, DWORD PTR _LogData$[esp+1350]
  00119	50		 push	 eax
  0011a	89 54 24 6c	 mov	 DWORD PTR _LogData$[esp+1140], edx
  0011e	89 5c 24 70	 mov	 DWORD PTR _LogData$[esp+1144], ebx
  00122	ff d7		 call	 edi

; 2490 : 
; 2491 : 	LogData.dwFormat = LF_TEXT;
; 2492 : 
; 2493 : 	SendDMLog( LogData );

  00124	81 ec f8 03 00
	00		 sub	 esp, 1016		; 000003f8H
  0012a	8b fc		 mov	 edi, esp
  0012c	89 9c 24 fc 05
	00 00		 mov	 DWORD PTR _LogData$[esp+2564], ebx
  00133	b9 fe 00 00 00	 mov	 ecx, 254		; 000000feH
  00138	8d b4 24 0c 04
	00 00		 lea	 esi, DWORD PTR _LogData$[esp+2068]
  0013f	f3 a5		 rep movsd
  00141	8b 8c 24 08 04
	00 00		 mov	 ecx, DWORD PTR _this$[esp+2068]
  00148	e8 00 00 00 00	 call	 ?SendDMLog@CUdpSocket@@QAEXU_LOG_DATA_@@@Z ; CUdpSocket::SendDMLog

; 2494 : }

  0014d	8d 45 f0	 lea	 eax, DWORD PTR [ebp-16]
$L179645:
  00150	c7 84 24 18 04
	00 00 ff ff ff
	ff		 mov	 DWORD PTR __$EHRec$[esp+1060], -1
  0015b	8d 48 0c	 lea	 ecx, DWORD PTR [eax+12]
  0015e	83 ca ff	 or	 edx, -1
  00161	f0 0f c1 11	 lock	  xadd	 DWORD PTR [ecx], edx
  00165	4a		 dec	 edx
  00166	85 d2		 test	 edx, edx
  00168	7f 08		 jg	 SHORT $L179639
  0016a	8b 08		 mov	 ecx, DWORD PTR [eax]
  0016c	8b 11		 mov	 edx, DWORD PTR [ecx]
  0016e	50		 push	 eax
  0016f	ff 52 04	 call	 DWORD PTR [edx+4]
$L179639:
  00172	8b 8c 24 10 04
	00 00		 mov	 ecx, DWORD PTR __$EHRec$[esp+1052]
  00179	64 89 0d 00 00
	00 00		 mov	 DWORD PTR fs:__except_list, ecx
  00180	8b 8c 24 0c 04
	00 00		 mov	 ecx, DWORD PTR __$ArrayPad$[esp+1052]
  00187	e8 00 00 00 00	 call	 @__security_check_cookie@4
  0018c	5f		 pop	 edi
  0018d	5e		 pop	 esi
  0018e	5d		 pop	 ebp
  0018f	5b		 pop	 ebx
  00190	81 c4 0c 04 00
	00		 add	 esp, 1036		; 0000040cH
  00196	c2 10 00	 ret	 16			; 00000010H
_TEXT	ENDS
;	COMDAT text$x
text$x	SEGMENT
$L179574:
  00000	8d 4d 10	 lea	 ecx, DWORD PTR _strName$[ebp-4]
  00003	e9 00 00 00 00	 jmp	 ??1?$CStringT@DV?$StrTraitATL@DV?$ChTraitsCRT@D@ATL@@@ATL@@@ATL@@QAE@XZ ; ATL::CStringT<char,ATL::StrTraitATL<char,ATL::ChTraitsCRT<char> > >::~CStringT<char,ATL::StrTraitATL<char,ATL::ChTraitsCRT<char> > >
__ehhandler$?LogTactics@CUdpSocket@@QAEXKPAVCTPlayer@@KV?$CStringT@DV?$StrTraitATL@DV?$ChTraitsCRT@D@ATL@@@ATL@@@ATL@@@Z:
  00008	b8 00 00 00 00	 mov	 eax, OFFSET FLAT:$T179641
  0000d	e9 00 00 00 00	 jmp	 ___CxxFrameHandler
text$x	ENDS
?LogTactics@CUdpSocket@@QAEXKPAVCTPlayer@@KV?$CStringT@DV?$StrTraitATL@DV?$ChTraitsCRT@D@ATL@@@ATL@@@ATL@@@Z ENDP ; CUdpSocket::LogTactics
PUBLIC	??Eiterator@?$_Tree@V?$_Tmap_traits@EPAUtagTMAGIC@@U?$less@E@std@@V?$allocator@U?$pair@$$CBEPAUtagTMAGIC@@@std@@@3@$0A@@std@@@std@@QAEAAV012@XZ ; std::_Tree<std::_Tmap_traits<unsigned char,tagTMAGIC *,std::less<unsigned char>,std::allocator<std::pair<unsigned char const ,tagTMAGIC *> >,0> >::iterator::operator++
; Function compile flags: /Ogty
; File c:\program files (x86)\microsoft visual studio .net 2003\vc7\include\xtree
;	COMDAT ??Eiterator@?$_Tree@V?$_Tmap_traits@EPAUtagTMAGIC@@U?$less@E@std@@V?$allocator@U?$pair@$$CBEPAUtagTMAGIC@@@std@@@3@$0A@@std@@@std@@QAEAAV012@XZ
_TEXT	SEGMENT
??Eiterator@?$_Tree@V?$_Tmap_traits@EPAUtagTMAGIC@@U?$less@E@std@@V?$allocator@U?$pair@$$CBEPAUtagTMAGIC@@@std@@@3@$0A@@std@@@std@@QAEAAV012@XZ PROC NEAR ; std::_Tree<std::_Tmap_traits<unsigned char,tagTMAGIC *,std::less<unsigned char>,std::allocator<std::pair<unsigned char const ,tagTMAGIC *> >,0> >::iterator::operator++, COMDAT
; _this$ = ecx

; 326  : 			{	// preincrement

  00000	56		 push	 esi
  00001	8b f1		 mov	 esi, ecx

; 327  : 			++(*(const_iterator *)this);

  00003	e8 00 00 00 00	 call	 ?_Inc@const_iterator@?$_Tree@V?$_Tmap_traits@EPAUtagTMAGIC@@U?$less@E@std@@V?$allocator@U?$pair@$$CBEPAUtagTMAGIC@@@std@@@3@$0A@@std@@@std@@QAEXXZ ; std::_Tree<std::_Tmap_traits<unsigned char,tagTMAGIC *,std::less<unsigned char>,std::allocator<std::pair<unsigned char const ,tagTMAGIC *> >,0> >::const_iterator::_Inc

; 328  : 			return (*this);

  00008	8b c6		 mov	 eax, esi
  0000a	5e		 pop	 esi

; 329  : 			}

  0000b	c3		 ret	 0
??Eiterator@?$_Tree@V?$_Tmap_traits@EPAUtagTMAGIC@@U?$less@E@std@@V?$allocator@U?$pair@$$CBEPAUtagTMAGIC@@@std@@@3@$0A@@std@@@std@@QAEAAV012@XZ ENDP ; std::_Tree<std::_Tmap_traits<unsigned char,tagTMAGIC *,std::less<unsigned char>,std::allocator<std::pair<unsigned char const ,tagTMAGIC *> >,0> >::iterator::operator++
_TEXT	ENDS
PUBLIC	?Append@?$CSimpleStringT@D$0A@@ATL@@QAEXPBDH@Z	; ATL::CSimpleStringT<char,0>::Append
; Function compile flags: /Ogty
; File c:\program files (x86)\microsoft visual studio .net 2003\vc7\atlmfc\include\atlsimpstr.h
;	COMDAT ?Append@?$CSimpleStringT@D$0A@@ATL@@QAEXPBDH@Z
_TEXT	SEGMENT
_nOldLength$ = -4					; size = 4
_pszSrc$ = 8						; size = 4
_nLength$ = 12						; size = 4
?Append@?$CSimpleStringT@D$0A@@ATL@@QAEXPBDH@Z PROC NEAR ; ATL::CSimpleStringT<char,0>::Append, COMDAT
; _this$ = ecx

; 387  : 	{

  00000	51		 push	 ecx
  00001	53		 push	 ebx
  00002	55		 push	 ebp
  00003	8b e9		 mov	 ebp, ecx

; 388  : 		// See comment in SetString() about why we do this
; 389  : 		UINT_PTR nOffset = pszSrc-GetString();

  00005	8b 45 00	 mov	 eax, DWORD PTR [ebp]

; 390  : 
; 391  : 		UINT nOldLength = GetLength();
; 392  : 		int nNewLength = nOldLength+nLength;

  00008	8b 4c 24 14	 mov	 ecx, DWORD PTR _nLength$[esp+8]
  0000c	56		 push	 esi
  0000d	8b 70 f4	 mov	 esi, DWORD PTR [eax-12]
  00010	57		 push	 edi
  00011	8b 7c 24 18	 mov	 edi, DWORD PTR _pszSrc$[esp+16]
  00015	2b f8		 sub	 edi, eax
  00017	8d 1c 0e	 lea	 ebx, DWORD PTR [esi+ecx]

; 393  : 		PXSTR pszBuffer = GetBuffer( nNewLength );

  0001a	8b 48 fc	 mov	 ecx, DWORD PTR [eax-4]
  0001d	8b 40 f8	 mov	 eax, DWORD PTR [eax-8]
  00020	ba 01 00 00 00	 mov	 edx, 1
  00025	2b d1		 sub	 edx, ecx
  00027	2b c3		 sub	 eax, ebx
  00029	0b d0		 or	 edx, eax
  0002b	89 74 24 10	 mov	 DWORD PTR _nOldLength$[esp+20], esi
  0002f	7d 08		 jge	 SHORT $L179691
  00031	53		 push	 ebx
  00032	8b cd		 mov	 ecx, ebp
  00034	e8 00 00 00 00	 call	 ?PrepareWrite2@?$CSimpleStringT@D$0A@@ATL@@AAEXH@Z ; ATL::CSimpleStringT<char,0>::PrepareWrite2
$L179691:

; 394  : 		if( nOffset <= nOldLength )

  00039	3b fe		 cmp	 edi, esi
  0003b	8b 45 00	 mov	 eax, DWORD PTR [ebp]
  0003e	77 07		 ja	 SHORT $L176563

; 395  : 		{
; 396  : 			pszSrc = pszBuffer+nOffset;

  00040	8d 0c 38	 lea	 ecx, DWORD PTR [eax+edi]
  00043	89 4c 24 18	 mov	 DWORD PTR _pszSrc$[esp+16], ecx
$L176563:

; 397  : 			// No need to call CopyCharsOverlapped, since the destination is
; 398  : 			// beyond the end of the original buffer
; 399  : 		}
; 400  : 		CopyChars( pszBuffer+nOldLength, pszSrc, nLength );

  00047	8b 54 24 10	 mov	 edx, DWORD PTR _nOldLength$[esp+20]
  0004b	8b 4c 24 1c	 mov	 ecx, DWORD PTR _nLength$[esp+16]
  0004f	8b 74 24 18	 mov	 esi, DWORD PTR _pszSrc$[esp+16]
  00053	8d 3c 10	 lea	 edi, DWORD PTR [eax+edx]
  00056	8b c1		 mov	 eax, ecx
  00058	c1 e9 02	 shr	 ecx, 2
  0005b	f3 a5		 rep movsd
  0005d	8b c8		 mov	 ecx, eax
  0005f	83 e1 03	 and	 ecx, 3

; 401  : 		ReleaseBufferSetLength( nNewLength );

  00062	85 db		 test	 ebx, ebx
  00064	f3 a4		 rep movsb
  00066	7c 1a		 jl	 SHORT $L179724
  00068	8b 45 00	 mov	 eax, DWORD PTR [ebp]
  0006b	3b 58 f8	 cmp	 ebx, DWORD PTR [eax-8]
  0006e	7f 12		 jg	 SHORT $L179724
  00070	5f		 pop	 edi
  00071	89 58 f4	 mov	 DWORD PTR [eax-12], ebx
  00074	8b 4d 00	 mov	 ecx, DWORD PTR [ebp]
  00077	5e		 pop	 esi
  00078	5d		 pop	 ebp
  00079	c6 04 0b 00	 mov	 BYTE PTR [ebx+ecx], 0
  0007d	5b		 pop	 ebx

; 402  : 	}

  0007e	59		 pop	 ecx
  0007f	c2 08 00	 ret	 8

; 401  : 		ReleaseBufferSetLength( nNewLength );

$L179724:
  00082	68 57 00 07 80	 push	 -2147024809		; 80070057H
  00087	e8 00 00 00 00	 call	 ?AtlThrow@ATL@@YGXJ@Z	; ATL::AtlThrow
$L179727:
$L179726:
  0008c	cc		 int	 3
?Append@?$CSimpleStringT@D$0A@@ATL@@QAEXPBDH@Z ENDP	; ATL::CSimpleStringT<char,0>::Append
_TEXT	ENDS
PUBLIC	?LoadStringA@?$CStringT@DV?$StrTraitATL@DV?$ChTraitsCRT@D@ATL@@@ATL@@@ATL@@QAEHPAUHINSTANCE__@@I@Z ; ATL::CStringT<char,ATL::StrTraitATL<char,ATL::ChTraitsCRT<char> > >::LoadStringA
; Function compile flags: /Ogty
; File c:\program files (x86)\microsoft visual studio .net 2003\vc7\atlmfc\include\cstringt.h
;	COMDAT ?LoadStringA@?$CStringT@DV?$StrTraitATL@DV?$ChTraitsCRT@D@ATL@@@ATL@@@ATL@@QAEHPAUHINSTANCE__@@I@Z
_TEXT	SEGMENT
_hInstance$ = 8						; size = 4
_nID$ = 12						; size = 4
?LoadStringA@?$CStringT@DV?$StrTraitATL@DV?$ChTraitsCRT@D@ATL@@@ATL@@@ATL@@QAEHPAUHINSTANCE__@@I@Z PROC NEAR ; ATL::CStringT<char,ATL::StrTraitATL<char,ATL::ChTraitsCRT<char> > >::LoadStringA, COMDAT
; _this$ = ecx

; 1981 : 	{

  00000	53		 push	 ebx
  00001	56		 push	 esi

; 1982 : 		const ATLSTRINGRESOURCEIMAGE* pImage = AtlGetStringResourceImage( hInstance, nID );

  00002	8b 74 24 10	 mov	 esi, DWORD PTR _nID$[esp+4]
  00006	8b c6		 mov	 eax, esi
  00008	c1 e8 04	 shr	 eax, 4
  0000b	57		 push	 edi
  0000c	8b 7c 24 10	 mov	 edi, DWORD PTR _hInstance$[esp+8]
  00010	40		 inc	 eax
  00011	8b d9		 mov	 ebx, ecx
  00013	0f b7 c8	 movzx	 ecx, ax
  00016	6a 06		 push	 6
  00018	51		 push	 ecx
  00019	57		 push	 edi
  0001a	ff 15 00 00 00
	00		 call	 DWORD PTR __imp__FindResourceA@12
  00020	85 c0		 test	 eax, eax
  00022	74 11		 je	 SHORT $L179806
  00024	56		 push	 esi
  00025	50		 push	 eax
  00026	57		 push	 edi
  00027	e8 00 00 00 00	 call	 ?_AtlGetStringResourceImage@ATL@@YAPBUATLSTRINGRESOURCEIMAGE@1@PAUHINSTANCE__@@PAUHRSRC__@@I@Z ; ATL::_AtlGetStringResourceImage
  0002c	8b f8		 mov	 edi, eax
  0002e	83 c4 0c	 add	 esp, 12			; 0000000cH

; 1983 : 		if( pImage == NULL )

  00031	85 ff		 test	 edi, edi
  00033	75 08		 jne	 SHORT $L148787
$L179806:
  00035	5f		 pop	 edi
  00036	5e		 pop	 esi

; 1984 : 		{
; 1985 : 			return( FALSE );

  00037	33 c0		 xor	 eax, eax
  00039	5b		 pop	 ebx

; 1994 : 	}

  0003a	c2 08 00	 ret	 8
$L148787:

; 1986 : 		}
; 1987 : 
; 1988 : 		int nLength = StringTraits::GetBaseTypeLength( pImage->achString, pImage->nLength );

  0003d	0f b7 07	 movzx	 eax, WORD PTR [edi]
  00040	55		 push	 ebp
  00041	6a 00		 push	 0
  00043	6a 00		 push	 0
  00045	6a 00		 push	 0
  00047	6a 00		 push	 0
  00049	50		 push	 eax
  0004a	8d 6f 02	 lea	 ebp, DWORD PTR [edi+2]
  0004d	55		 push	 ebp
  0004e	6a 00		 push	 0
  00050	ff 15 00 00 00
	00		 call	 DWORD PTR ?g_pfnGetThreadACP@ATL@@3P6GIXZA ; ATL::g_pfnGetThreadACP
  00056	50		 push	 eax
  00057	ff 15 00 00 00
	00		 call	 DWORD PTR __imp__WideCharToMultiByte@32
  0005d	8b f0		 mov	 esi, eax

; 1989 : 		PXSTR pszBuffer = GetBuffer( nLength );

  0005f	8b 03		 mov	 eax, DWORD PTR [ebx]
  00061	8b 48 fc	 mov	 ecx, DWORD PTR [eax-4]
  00064	83 e8 10	 sub	 eax, 16			; 00000010H
  00067	8b 40 08	 mov	 eax, DWORD PTR [eax+8]
  0006a	ba 01 00 00 00	 mov	 edx, 1
  0006f	2b d1		 sub	 edx, ecx
  00071	2b c6		 sub	 eax, esi
  00073	0b d0		 or	 edx, eax
  00075	7d 08		 jge	 SHORT $L179765
  00077	56		 push	 esi
  00078	8b cb		 mov	 ecx, ebx
  0007a	e8 00 00 00 00	 call	 ?PrepareWrite2@?$CSimpleStringT@D$0A@@ATL@@AAEXH@Z ; ATL::CSimpleStringT<char,0>::PrepareWrite2
$L179765:
  0007f	8b 03		 mov	 eax, DWORD PTR [ebx]

; 1990 : 		StringTraits::ConvertToBaseType( pszBuffer, nLength, pImage->achString, pImage->nLength );

  00081	0f b7 0f	 movzx	 ecx, WORD PTR [edi]
  00084	6a 00		 push	 0
  00086	6a 00		 push	 0
  00088	56		 push	 esi
  00089	50		 push	 eax
  0008a	51		 push	 ecx
  0008b	55		 push	 ebp
  0008c	6a 00		 push	 0
  0008e	ff 15 00 00 00
	00		 call	 DWORD PTR ?g_pfnGetThreadACP@ATL@@3P6GIXZA ; ATL::g_pfnGetThreadACP
  00094	50		 push	 eax
  00095	ff 15 00 00 00
	00		 call	 DWORD PTR __imp__WideCharToMultiByte@32

; 1991 : 		ReleaseBufferSetLength( nLength );

  0009b	85 f6		 test	 esi, esi
  0009d	5d		 pop	 ebp
  0009e	7c 1b		 jl	 SHORT $L179804
  000a0	8b 03		 mov	 eax, DWORD PTR [ebx]
  000a2	3b 70 f8	 cmp	 esi, DWORD PTR [eax-8]
  000a5	7f 14		 jg	 SHORT $L179804
  000a7	89 70 f4	 mov	 DWORD PTR [eax-12], esi
  000aa	8b 0b		 mov	 ecx, DWORD PTR [ebx]
  000ac	5f		 pop	 edi
  000ad	c6 04 0e 00	 mov	 BYTE PTR [esi+ecx], 0
  000b1	5e		 pop	 esi

; 1992 : 
; 1993 : 		return( TRUE );

  000b2	b8 01 00 00 00	 mov	 eax, 1
  000b7	5b		 pop	 ebx

; 1994 : 	}

  000b8	c2 08 00	 ret	 8
$L179804:
  000bb	68 57 00 07 80	 push	 -2147024809		; 80070057H
  000c0	e8 00 00 00 00	 call	 ?AtlThrow@ATL@@YGXJ@Z	; ATL::AtlThrow
$L179808:
$L179807:
  000c5	cc		 int	 3
?LoadStringA@?$CStringT@DV?$StrTraitATL@DV?$ChTraitsCRT@D@ATL@@@ATL@@@ATL@@QAEHPAUHINSTANCE__@@I@Z ENDP ; ATL::CStringT<char,ATL::StrTraitATL<char,ATL::ChTraitsCRT<char> > >::LoadStringA
_TEXT	ENDS
PUBLIC	?SetString@?$CSimpleStringT@D$0A@@ATL@@QAEXPBD@Z ; ATL::CSimpleStringT<char,0>::SetString
; Function compile flags: /Ogty
; File c:\program files (x86)\microsoft visual studio .net 2003\vc7\atlmfc\include\atlsimpstr.h
;	COMDAT ?SetString@?$CSimpleStringT@D$0A@@ATL@@QAEXPBD@Z
_TEXT	SEGMENT
_pszSrc$ = 8						; size = 4
?SetString@?$CSimpleStringT@D$0A@@ATL@@QAEXPBD@Z PROC NEAR ; ATL::CSimpleStringT<char,0>::SetString, COMDAT
; _this$ = ecx

; 579  : 	{

  00000	56		 push	 esi

; 580  : 		SetString( pszSrc, StringLength( pszSrc ) );

  00001	8b 74 24 08	 mov	 esi, DWORD PTR _pszSrc$[esp]
  00005	85 f6		 test	 esi, esi
  00007	75 0d		 jne	 SHORT $L179815
  00009	33 c0		 xor	 eax, eax
  0000b	50		 push	 eax
  0000c	56		 push	 esi
  0000d	e8 00 00 00 00	 call	 ?SetString@?$CSimpleStringT@D$0A@@ATL@@QAEXPBDH@Z ; ATL::CSimpleStringT<char,0>::SetString
  00012	5e		 pop	 esi

; 581  : 	}

  00013	c2 04 00	 ret	 4

; 580  : 		SetString( pszSrc, StringLength( pszSrc ) );

$L179815:
  00016	8b c6		 mov	 eax, esi
  00018	57		 push	 edi
  00019	8d 78 01	 lea	 edi, DWORD PTR [eax+1]
  0001c	8d 64 24 00	 npad	 4
$L179817:
  00020	8a 10		 mov	 dl, BYTE PTR [eax]
  00022	40		 inc	 eax
  00023	84 d2		 test	 dl, dl
  00025	75 f9		 jne	 SHORT $L179817
  00027	2b c7		 sub	 eax, edi
  00029	5f		 pop	 edi
  0002a	50		 push	 eax
  0002b	56		 push	 esi
  0002c	e8 00 00 00 00	 call	 ?SetString@?$CSimpleStringT@D$0A@@ATL@@QAEXPBDH@Z ; ATL::CSimpleStringT<char,0>::SetString
  00031	5e		 pop	 esi

; 581  : 	}

  00032	c2 04 00	 ret	 4
?SetString@?$CSimpleStringT@D$0A@@ATL@@QAEXPBD@Z ENDP	; ATL::CSimpleStringT<char,0>::SetString
_TEXT	ENDS
PUBLIC	??Eiterator@?$_Tree@V?$_Tmap_traits@EPAUtagTMAGIC@@U?$less@E@std@@V?$allocator@U?$pair@$$CBEPAUtagTMAGIC@@@std@@@3@$0A@@std@@@std@@QAE?AV012@H@Z ; std::_Tree<std::_Tmap_traits<unsigned char,tagTMAGIC *,std::less<unsigned char>,std::allocator<std::pair<unsigned char const ,tagTMAGIC *> >,0> >::iterator::operator++
; Function compile flags: /Ogty
; File c:\program files (x86)\microsoft visual studio .net 2003\vc7\include\xtree
;	COMDAT ??Eiterator@?$_Tree@V?$_Tmap_traits@EPAUtagTMAGIC@@U?$less@E@std@@V?$allocator@U?$pair@$$CBEPAUtagTMAGIC@@@std@@@3@$0A@@std@@@std@@QAE?AV012@H@Z
_TEXT	SEGMENT
___$ReturnUdt$ = 8					; size = 4
___formal$ = 12						; size = 4
??Eiterator@?$_Tree@V?$_Tmap_traits@EPAUtagTMAGIC@@U?$less@E@std@@V?$allocator@U?$pair@$$CBEPAUtagTMAGIC@@@std@@@3@$0A@@std@@@std@@QAE?AV012@H@Z PROC NEAR ; std::_Tree<std::_Tmap_traits<unsigned char,tagTMAGIC *,std::less<unsigned char>,std::allocator<std::pair<unsigned char const ,tagTMAGIC *> >,0> >::iterator::operator++, COMDAT
; _this$ = ecx

; 332  : 			{	// postincrement

  00000	56		 push	 esi

; 333  : 			iterator _Tmp = *this;

  00001	8b 31		 mov	 esi, DWORD PTR [ecx]

; 334  : 			++*this;

  00003	e8 00 00 00 00	 call	 ?_Inc@const_iterator@?$_Tree@V?$_Tmap_traits@EPAUtagTMAGIC@@U?$less@E@std@@V?$allocator@U?$pair@$$CBEPAUtagTMAGIC@@@std@@@3@$0A@@std@@@std@@QAEXXZ ; std::_Tree<std::_Tmap_traits<unsigned char,tagTMAGIC *,std::less<unsigned char>,std::allocator<std::pair<unsigned char const ,tagTMAGIC *> >,0> >::const_iterator::_Inc

; 335  : 			return (_Tmp);

  00008	8b 44 24 08	 mov	 eax, DWORD PTR ___$ReturnUdt$[esp]
  0000c	89 30		 mov	 DWORD PTR [eax], esi
  0000e	5e		 pop	 esi

; 336  : 			}

  0000f	c2 08 00	 ret	 8
??Eiterator@?$_Tree@V?$_Tmap_traits@EPAUtagTMAGIC@@U?$less@E@std@@V?$allocator@U?$pair@$$CBEPAUtagTMAGIC@@@std@@@3@$0A@@std@@@std@@QAE?AV012@H@Z ENDP ; std::_Tree<std::_Tmap_traits<unsigned char,tagTMAGIC *,std::less<unsigned char>,std::allocator<std::pair<unsigned char const ,tagTMAGIC *> >,0> >::iterator::operator++
_TEXT	ENDS
PUBLIC	?Append@?$CSimpleStringT@D$0A@@ATL@@QAEXPBD@Z	; ATL::CSimpleStringT<char,0>::Append
; Function compile flags: /Ogty
; File c:\program files (x86)\microsoft visual studio .net 2003\vc7\atlmfc\include\atlsimpstr.h
;	COMDAT ?Append@?$CSimpleStringT@D$0A@@ATL@@QAEXPBD@Z
_TEXT	SEGMENT
_pszSrc$ = 8						; size = 4
?Append@?$CSimpleStringT@D$0A@@ATL@@QAEXPBD@Z PROC NEAR	; ATL::CSimpleStringT<char,0>::Append, COMDAT
; _this$ = ecx

; 383  : 	{

  00000	56		 push	 esi

; 384  : 		Append( pszSrc, StringLength( pszSrc ) );

  00001	8b 74 24 08	 mov	 esi, DWORD PTR _pszSrc$[esp]
  00005	85 f6		 test	 esi, esi
  00007	75 0d		 jne	 SHORT $L179835
  00009	33 c0		 xor	 eax, eax
  0000b	50		 push	 eax
  0000c	56		 push	 esi
  0000d	e8 00 00 00 00	 call	 ?Append@?$CSimpleStringT@D$0A@@ATL@@QAEXPBDH@Z ; ATL::CSimpleStringT<char,0>::Append
  00012	5e		 pop	 esi

; 385  : 	}

  00013	c2 04 00	 ret	 4

; 384  : 		Append( pszSrc, StringLength( pszSrc ) );

$L179835:
  00016	8b c6		 mov	 eax, esi
  00018	57		 push	 edi
  00019	8d 78 01	 lea	 edi, DWORD PTR [eax+1]
  0001c	8d 64 24 00	 npad	 4
$L179837:
  00020	8a 10		 mov	 dl, BYTE PTR [eax]
  00022	40		 inc	 eax
  00023	84 d2		 test	 dl, dl
  00025	75 f9		 jne	 SHORT $L179837
  00027	2b c7		 sub	 eax, edi
  00029	5f		 pop	 edi
  0002a	50		 push	 eax
  0002b	56		 push	 esi
  0002c	e8 00 00 00 00	 call	 ?Append@?$CSimpleStringT@D$0A@@ATL@@QAEXPBDH@Z ; ATL::CSimpleStringT<char,0>::Append
  00031	5e		 pop	 esi

; 385  : 	}

  00032	c2 04 00	 ret	 4
?Append@?$CSimpleStringT@D$0A@@ATL@@QAEXPBD@Z ENDP	; ATL::CSimpleStringT<char,0>::Append
_TEXT	ENDS
PUBLIC	?LoadStringA@?$CStringT@DV?$StrTraitATL@DV?$ChTraitsCRT@D@ATL@@@ATL@@@ATL@@QAEHI@Z ; ATL::CStringT<char,ATL::StrTraitATL<char,ATL::ChTraitsCRT<char> > >::LoadStringA
; Function compile flags: /Ogty
; File c:\program files (x86)\microsoft visual studio .net 2003\vc7\atlmfc\include\cstringt.h
;	COMDAT ?LoadStringA@?$CStringT@DV?$StrTraitATL@DV?$ChTraitsCRT@D@ATL@@@ATL@@@ATL@@QAEHI@Z
_TEXT	SEGMENT
_nID$ = 8						; size = 4
?LoadStringA@?$CStringT@DV?$StrTraitATL@DV?$ChTraitsCRT@D@ATL@@@ATL@@@ATL@@QAEHI@Z PROC NEAR ; ATL::CStringT<char,ATL::StrTraitATL<char,ATL::ChTraitsCRT<char> > >::LoadStringA, COMDAT
; _this$ = ecx

; 1969 : 	{

  00000	56		 push	 esi
  00001	57		 push	 edi

; 1970 : 		HINSTANCE hInst = StringTraits::FindStringResourceInstance( nID );

  00002	8b 7c 24 0c	 mov	 edi, DWORD PTR _nID$[esp+4]
  00006	6a 00		 push	 0
  00008	57		 push	 edi
  00009	8b f1		 mov	 esi, ecx
  0000b	e8 00 00 00 00	 call	 ?AtlFindStringResourceInstance@ATL@@YAPAUHINSTANCE__@@IG@Z ; ATL::AtlFindStringResourceInstance
  00010	83 c4 08	 add	 esp, 8

; 1971 : 		if( hInst == NULL )

  00013	85 c0		 test	 eax, eax
  00015	75 05		 jne	 SHORT $L146732
  00017	5f		 pop	 edi
  00018	5e		 pop	 esi

; 1977 : 	}

  00019	c2 04 00	 ret	 4
$L146732:

; 1972 : 		{
; 1973 : 			return( FALSE );
; 1974 : 		}
; 1975 : 
; 1976 : 		return( LoadString( hInst, nID ) );		

  0001c	57		 push	 edi
  0001d	50		 push	 eax
  0001e	8b ce		 mov	 ecx, esi
  00020	e8 00 00 00 00	 call	 ?LoadStringA@?$CStringT@DV?$StrTraitATL@DV?$ChTraitsCRT@D@ATL@@@ATL@@@ATL@@QAEHPAUHINSTANCE__@@I@Z ; ATL::CStringT<char,ATL::StrTraitATL<char,ATL::ChTraitsCRT<char> > >::LoadStringA
  00025	5f		 pop	 edi
  00026	5e		 pop	 esi

; 1977 : 	}

  00027	c2 04 00	 ret	 4
?LoadStringA@?$CStringT@DV?$StrTraitATL@DV?$ChTraitsCRT@D@ATL@@@ATL@@@ATL@@QAEHI@Z ENDP ; ATL::CStringT<char,ATL::StrTraitATL<char,ATL::ChTraitsCRT<char> > >::LoadStringA
_TEXT	ENDS
PUBLIC	?CheckImplicitLoad@?$CStringT@DV?$StrTraitATL@DV?$ChTraitsCRT@D@ATL@@@ATL@@@ATL@@AAE_NPBX@Z ; ATL::CStringT<char,ATL::StrTraitATL<char,ATL::ChTraitsCRT<char> > >::CheckImplicitLoad
; Function compile flags: /Ogty
;	COMDAT ?CheckImplicitLoad@?$CStringT@DV?$StrTraitATL@DV?$ChTraitsCRT@D@ATL@@@ATL@@@ATL@@AAE_NPBX@Z
_TEXT	SEGMENT
_pv$ = 8						; size = 4
?CheckImplicitLoad@?$CStringT@DV?$StrTraitATL@DV?$ChTraitsCRT@D@ATL@@@ATL@@@ATL@@AAE_NPBX@Z PROC NEAR ; ATL::CStringT<char,ATL::StrTraitATL<char,ATL::ChTraitsCRT<char> > >::CheckImplicitLoad, COMDAT
; _this$ = ecx

; 2229 : 	{

  00000	57		 push	 edi
  00001	8b f9		 mov	 edi, ecx

; 2230 : 		bool bRet = false;
; 2231 : 
; 2232 : 		if( (pv != NULL) && IS_INTRESOURCE( pv ) )

  00003	8b 4c 24 08	 mov	 ecx, DWORD PTR _pv$[esp]
  00007	32 c0		 xor	 al, al
  00009	85 c9		 test	 ecx, ecx
  0000b	74 27		 je	 SHORT $L148794
  0000d	f7 c1 00 00 ff
	ff		 test	 ecx, -65536		; ffff0000H
  00013	75 1f		 jne	 SHORT $L148794
  00015	56		 push	 esi

; 2233 : 		{
; 2234 : 			UINT nID = LOWORD( reinterpret_cast< DWORD_PTR >( pv ) );

  00016	0f b7 f1	 movzx	 esi, cx

; 2235 : 			if( !LoadString( nID ) )

  00019	6a 00		 push	 0
  0001b	56		 push	 esi
  0001c	e8 00 00 00 00	 call	 ?AtlFindStringResourceInstance@ATL@@YAPAUHINSTANCE__@@IG@Z ; ATL::AtlFindStringResourceInstance
  00021	83 c4 08	 add	 esp, 8
  00024	85 c0		 test	 eax, eax
  00026	74 09		 je	 SHORT $L179851
  00028	56		 push	 esi
  00029	50		 push	 eax
  0002a	8b cf		 mov	 ecx, edi
  0002c	e8 00 00 00 00	 call	 ?LoadStringA@?$CStringT@DV?$StrTraitATL@DV?$ChTraitsCRT@D@ATL@@@ATL@@@ATL@@QAEHPAUHINSTANCE__@@I@Z ; ATL::CStringT<char,ATL::StrTraitATL<char,ATL::ChTraitsCRT<char> > >::LoadStringA
$L179851:

; 2236 : 			{
; 2237 : 				ATLTRACE( atlTraceString, 2, _T( "Warning: implicit LoadString(%u) failed\n" ), nID );
; 2238 : 			}
; 2239 : 			bRet = true;

  00031	b0 01		 mov	 al, 1
  00033	5e		 pop	 esi
$L148794:
  00034	5f		 pop	 edi

; 2240 : 		}
; 2241 : 
; 2242 : 		return( bRet );
; 2243 : 	}

  00035	c2 04 00	 ret	 4
?CheckImplicitLoad@?$CStringT@DV?$StrTraitATL@DV?$ChTraitsCRT@D@ATL@@@ATL@@@ATL@@AAE_NPBX@Z ENDP ; ATL::CStringT<char,ATL::StrTraitATL<char,ATL::ChTraitsCRT<char> > >::CheckImplicitLoad
_TEXT	ENDS
PUBLIC	??4?$CSimpleStringT@D$0A@@ATL@@QAEAAV01@PBD@Z	; ATL::CSimpleStringT<char,0>::operator=
; Function compile flags: /Ogty
; File c:\program files (x86)\microsoft visual studio .net 2003\vc7\atlmfc\include\atlsimpstr.h
;	COMDAT ??4?$CSimpleStringT@D$0A@@ATL@@QAEAAV01@PBD@Z
_TEXT	SEGMENT
_pszSrc$ = 8						; size = 4
??4?$CSimpleStringT@D$0A@@ATL@@QAEAAV01@PBD@Z PROC NEAR	; ATL::CSimpleStringT<char,0>::operator=, COMDAT
; _this$ = ecx

; 316  : 		SetString( pszSrc );

  00000	8b 54 24 04	 mov	 edx, DWORD PTR _pszSrc$[esp-4]
  00004	85 d2		 test	 edx, edx
  00006	57		 push	 edi
  00007	8b f9		 mov	 edi, ecx
  00009	75 0f		 jne	 SHORT $L179873
  0000b	33 c0		 xor	 eax, eax
  0000d	50		 push	 eax
  0000e	52		 push	 edx
  0000f	e8 00 00 00 00	 call	 ?SetString@?$CSimpleStringT@D$0A@@ATL@@QAEXPBDH@Z ; ATL::CSimpleStringT<char,0>::SetString

; 317  : 
; 318  : 		return( *this );

  00014	8b c7		 mov	 eax, edi
  00016	5f		 pop	 edi

; 319  : 	}

  00017	c2 04 00	 ret	 4

; 316  : 		SetString( pszSrc );

$L179873:
  0001a	8b c2		 mov	 eax, edx
  0001c	56		 push	 esi
  0001d	8d 70 01	 lea	 esi, DWORD PTR [eax+1]
$L179874:
  00020	8a 08		 mov	 cl, BYTE PTR [eax]
  00022	40		 inc	 eax
  00023	84 c9		 test	 cl, cl
  00025	75 f9		 jne	 SHORT $L179874
  00027	2b c6		 sub	 eax, esi
  00029	5e		 pop	 esi
  0002a	50		 push	 eax
  0002b	52		 push	 edx
  0002c	8b cf		 mov	 ecx, edi
  0002e	e8 00 00 00 00	 call	 ?SetString@?$CSimpleStringT@D$0A@@ATL@@QAEXPBDH@Z ; ATL::CSimpleStringT<char,0>::SetString

; 317  : 
; 318  : 		return( *this );

  00033	8b c7		 mov	 eax, edi
  00035	5f		 pop	 edi

; 319  : 	}

  00036	c2 04 00	 ret	 4
??4?$CSimpleStringT@D$0A@@ATL@@QAEAAV01@PBD@Z ENDP	; ATL::CSimpleStringT<char,0>::operator=
_TEXT	ENDS
PUBLIC	?LogItemByNPC@CUdpSocket@@QAEXKPAVCTPlayer@@PAVCTNpc@@PAVCTItem@@HPAUtagQUESTTEMP@@@Z ; CUdpSocket::LogItemByNPC
; Function compile flags: /Ogty
; File c:\users\pierr\desktop\4story - oldschool\sources\tserver\tmapsvr\udpsocket.cpp
;	COMDAT ?LogItemByNPC@CUdpSocket@@QAEXKPAVCTPlayer@@PAVCTNpc@@PAVCTItem@@HPAUtagQUESTTEMP@@@Z
_TEXT	SEGMENT
_itTMAGIC$175379 = -2052				; size = 4
tv659 = -2048						; size = 4
_tNowTime$180010 = -2048				; size = 8
$T180016 = -2040					; size = 1016
_LogData$ = -1024					; size = 1016
__$ArrayPad$ = -4					; size = 4
__$ReturnAddr$ = 4					; size = 4
_pAction$ = 8						; size = 4
_pPlayer$ = 12						; size = 4
_pNpc$ = 16						; size = 4
_pItem$ = 20						; size = 4
_pMoney$ = 24						; size = 4
_pQUEST$ = 28						; size = 4
?LogItemByNPC@CUdpSocket@@QAEXKPAVCTPlayer@@PAVCTNpc@@PAVCTItem@@HPAUtagQUESTTEMP@@@Z PROC NEAR ; CUdpSocket::LogItemByNPC, COMDAT
; _this$ = ecx

; 179  : {

  00000	55		 push	 ebp
  00001	8b ec		 mov	 ebp, esp
  00003	83 e4 f8	 and	 esp, -8			; fffffff8H
  00006	81 ec 04 08 00
	00		 sub	 esp, 2052		; 00000804H
  0000c	a1 00 00 00 00	 mov	 eax, DWORD PTR ___security_cookie
  00011	53		 push	 ebx
  00012	56		 push	 esi

; 180  : 	if(!pPlayer ) return;

  00013	8b 75 0c	 mov	 esi, DWORD PTR _pPlayer$[ebp]
  00016	33 db		 xor	 ebx, ebx
  00018	3b f3		 cmp	 esi, ebx
  0001a	89 84 24 08 08
	00 00		 mov	 DWORD PTR __$ArrayPad$[esp+2060], eax
  00021	57		 push	 edi
  00022	0f 84 35 03 00
	00		 je	 $L180009

; 181  : 
; 182  : 	_LOG_DATA_ LogData;
; 183  : 	memset( &LogData, 0x00, sizeof(_LOG_DATA_));
; 184  : 
; 185  : 	LogData.dwAction		=	pAction;
; 186  : 	LogData.dwServerID		=	_AtlModule.GetServerID();
; 187  : 
; 188  : 	lstrcpy( LogData.szClientIP, inet_ntoa(pPlayer->m_addr.sin_addr) );	

  00028	8b 56 40	 mov	 edx, DWORD PTR [esi+64]
  0002b	33 c0		 xor	 eax, eax
  0002d	b9 fe 00 00 00	 mov	 ecx, 254		; 000000feH
  00032	8d bc 24 10 04
	00 00		 lea	 edi, DWORD PTR _LogData$[esp+2064]
  00039	f3 ab		 rep stosd
  0003b	0f b6 0d 82 9e
	00 00		 movzx	 ecx, BYTE PTR ?_AtlModule@@3VCTMapSvrModule@@A+40578
  00042	8b 45 08	 mov	 eax, DWORD PTR _pAction$[ebp]
  00045	52		 push	 edx
  00046	89 84 24 38 04
	00 00		 mov	 DWORD PTR _LogData$[esp+2104], eax
  0004d	89 8c 24 24 04
	00 00		 mov	 DWORD PTR _LogData$[esp+2084], ecx
  00054	ff 15 00 00 00
	00		 call	 DWORD PTR __imp__inet_ntoa@4
  0005a	8b 3d 00 00 00
	00		 mov	 edi, DWORD PTR __imp__lstrcpyA@8
  00060	50		 push	 eax
  00061	8d 84 24 28 04
	00 00		 lea	 eax, DWORD PTR _LogData$[esp+2088]
  00068	50		 push	 eax
  00069	ff d7		 call	 edi

; 189  : 
; 190  : 	LogData.wMapID			=	pPlayer->m_wMapID;				//	Map ID

  0006b	66 8b 8e 90 01
	01 00		 mov	 cx, WORD PTR [esi+65936]

; 191  : 	LogData.nX				=	(int)pPlayer->m_fPosX;			//	X

  00072	d9 86 7c 01 01
	00		 fld	 DWORD PTR [esi+65916]
  00078	66 89 8c 24 38
	04 00 00	 mov	 WORD PTR _LogData$[esp+2104], cx
  00080	e8 00 00 00 00	 call	 __ftol2

; 192  : 	LogData.nY				=	(int)pPlayer->m_fPosY;			//	Y

  00085	d9 86 80 01 01
	00		 fld	 DWORD PTR [esi+65920]
  0008b	89 84 24 3c 04
	00 00		 mov	 DWORD PTR _LogData$[esp+2108], eax
  00092	e8 00 00 00 00	 call	 __ftol2

; 193  : 	LogData.nZ				=	(int)pPlayer->m_fPosZ;			//	Z

  00097	d9 86 84 01 01
	00		 fld	 DWORD PTR [esi+65924]
  0009d	89 84 24 40 04
	00 00		 mov	 DWORD PTR _LogData$[esp+2112], eax
  000a4	e8 00 00 00 00	 call	 __ftol2

; 194  : 
; 195  : 	LogData.dwKey[0]		=	pPlayer->m_dwUserID;			//	User ID

  000a9	8b 96 ac 03 01
	00		 mov	 edx, DWORD PTR [esi+66476]

; 196  : 	LogData.dwKey[1]		=	pPlayer->m_dwID;				//	Character Seq
; 197  : 	lstrcpy(LogData.szKey[1],	pPlayer->m_strNAME);			//	Character Name

  000af	8b 8e a4 03 01
	00		 mov	 ecx, DWORD PTR [esi+66468]
  000b5	89 94 24 48 04
	00 00		 mov	 DWORD PTR _LogData$[esp+2120], edx
  000bc	89 84 24 44 04
	00 00		 mov	 DWORD PTR _LogData$[esp+2116], eax
  000c3	8b 86 44 01 01
	00		 mov	 eax, DWORD PTR [esi+65860]
  000c9	51		 push	 ecx
  000ca	8d 94 24 d6 04
	00 00		 lea	 edx, DWORD PTR _LogData$[esp+2262]
  000d1	52		 push	 edx
  000d2	89 9c 24 54 04
	00 00		 mov	 DWORD PTR _LogData$[esp+2132], ebx
  000d9	89 84 24 58 04
	00 00		 mov	 DWORD PTR _LogData$[esp+2136], eax
  000e0	89 9c 24 5c 04
	00 00		 mov	 DWORD PTR _LogData$[esp+2140], ebx
  000e7	ff d7		 call	 edi

; 198  : 
; 199  : 	LogData.dwKey[9]		=	pPlayer->m_bCountry + (pPlayer->m_bAidCountry == TCONTRY_N ? 0 : (pPlayer->m_bAidCountry+1)*10);			//	Country

  000e9	8a 86 9e 01 01
	00		 mov	 al, BYTE PTR [esi+65950]
  000ef	3c 03		 cmp	 al, 3
  000f1	75 04		 jne	 SHORT $L179879
  000f3	33 c9		 xor	 ecx, ecx
  000f5	eb 09		 jmp	 SHORT $L179880
$L179879:
  000f7	0f b6 c0	 movzx	 eax, al
  000fa	40		 inc	 eax
  000fb	8d 0c 80	 lea	 ecx, DWORD PTR [eax+eax*4]
  000fe	d1 e1		 shl	 ecx, 1
$L179880:
  00100	0f b6 86 9d 01
	01 00		 movzx	 eax, BYTE PTR [esi+65949]
  00107	03 c1		 add	 eax, ecx
  00109	99		 cdq
  0010a	89 84 24 90 04
	00 00		 mov	 DWORD PTR _LogData$[esp+2192], eax

; 200  : 	LogData.dwKey[10]		=	pPlayer->m_bLevel;				//	Level

  00111	0f b6 86 7b 01
	01 00		 movzx	 eax, BYTE PTR [esi+65915]
  00118	89 94 24 94 04
	00 00		 mov	 DWORD PTR _LogData$[esp+2196], edx
  0011f	99		 cdq
  00120	89 84 24 98 04
	00 00		 mov	 DWORD PTR _LogData$[esp+2200], eax

; 201  : 
; 202  : 
; 203  : 	if(pNpc)

  00127	8b 45 10	 mov	 eax, DWORD PTR _pNpc$[ebp]
  0012a	3b c3		 cmp	 eax, ebx
  0012c	89 94 24 9c 04
	00 00		 mov	 DWORD PTR _LogData$[esp+2204], edx
  00133	74 12		 je	 SHORT $L175296

; 204  : 	{
; 205  : 		LogData.dwKey[2]	=	pNpc->m_wID;					//	Npc ID

  00135	0f b7 00	 movzx	 eax, WORD PTR [eax]
  00138	99		 cdq
  00139	89 84 24 58 04
	00 00		 mov	 DWORD PTR _LogData$[esp+2136], eax
  00140	89 94 24 5c 04
	00 00		 mov	 DWORD PTR _LogData$[esp+2140], edx
$L175296:

; 206  : 	}
; 207  : 	
; 208  : 	LogData.dwKey[5]		=	pMoney;							//	Get Money   

  00147	8b 45 18	 mov	 eax, DWORD PTR _pMoney$[ebp]

; 209  : 
; 210  : 	wsprintf( LogData.szKey[5], "Now Money : %u/%u/%u",			//	Now Money
; 211  : 											pPlayer->m_dwGold,		
; 212  : 											pPlayer->m_dwSilver, 
; 213  : 											pPlayer->m_dwCooper );

  0014a	8b 8e cc 03 01
	00		 mov	 ecx, DWORD PTR [esi+66508]
  00150	99		 cdq
  00151	89 84 24 70 04
	00 00		 mov	 DWORD PTR _LogData$[esp+2160], eax
  00158	8b 86 c8 03 01
	00		 mov	 eax, DWORD PTR [esi+66504]
  0015e	50		 push	 eax
  0015f	51		 push	 ecx
  00160	89 94 24 7c 04
	00 00		 mov	 DWORD PTR _LogData$[esp+2172], edx
  00167	8b 96 d0 03 01
	00		 mov	 edx, DWORD PTR [esi+66512]
  0016d	52		 push	 edx
  0016e	8d 84 24 a6 05
	00 00		 lea	 eax, DWORD PTR _LogData$[esp+2470]
  00175	68 00 00 00 00	 push	 OFFSET FLAT:??_C@_0BF@LNLPBIJG@Now?5Money?5?3?5?$CFu?1?$CFu?1?$CFu?$AA@
  0017a	50		 push	 eax
  0017b	ff 15 00 00 00
	00		 call	 DWORD PTR __imp__wsprintfA

; 214  : 
; 215  : 	if(pQUEST)

  00181	8b 45 1c	 mov	 eax, DWORD PTR _pQUEST$[ebp]
  00184	83 c4 14	 add	 esp, 20			; 00000014H
  00187	3b c3		 cmp	 eax, ebx
  00189	74 11		 je	 SHORT $L175297

; 216  : 	{
; 217  : 		LogData.dwKey[6]	=	pQUEST->m_dwQuestID;			//	Quest ID

  0018b	8b 48 44	 mov	 ecx, DWORD PTR [eax+68]
  0018e	89 8c 24 78 04
	00 00		 mov	 DWORD PTR _LogData$[esp+2168], ecx
  00195	89 9c 24 7c 04
	00 00		 mov	 DWORD PTR _LogData$[esp+2172], ebx
$L175297:

; 218  : 	}
; 219  : 
; 220  : 	//
; 221  : 	//	ITEM INFO
; 222  : 	//
; 223  : 	if(pItem)

  0019c	8b 75 14	 mov	 esi, DWORD PTR _pItem$[ebp]
  0019f	3b f3		 cmp	 esi, ebx
  001a1	0f 84 65 01 00
	00		 je	 $L175298

; 224  : 	{
; 225  : 		LogData.dwKey[3]		=	pItem->m_wItemID;			//	Item ID

  001a7	66 8b 4e 30	 mov	 cx, WORD PTR [esi+48]

; 226  : 		LogData.dwKey[7]		=	pItem->m_bCount;			//	Item Count

  001ab	8a 5e 32	 mov	 bl, BYTE PTR [esi+50]

; 227  : 		LogData.dwKey[8]		=	pItem->m_dlID;				//	Unique Key
; 228  : 
; 229  : 		LogData.dwFormat = LF_ITEM;
; 230  : 
; 231  : 		_LPLOG_ITEM_ pLogItem = (_LPLOG_ITEM_)LogData.szLog;
; 232  : 	
; 233  : 		pLogItem->dlID			=	pItem->m_dlID;				//	Unique Number
; 234  : 		pLogItem->bInven		=	pItem->m_bInven;			//	 
; 235  : 		pLogItem->bItemID		=	pItem->m_bItemID;			//	 
; 236  : 
; 237  : 		pLogItem->wItemID		=	pItem->m_wItemID;			//	Item Index
; 238  : 
; 239  : 		//
; 240  : 		//	Game Part   
; 241  : 		//	lstrcpy( pLogItem->szItemName, pItem->m_pTITEM-> )	//	 
; 242  : 
; 243  : 		pLogItem->bLevel		=	pItem->m_bLevel;			//	 
; 244  : 		pLogItem->bCount		=	pItem->m_bCount;				
; 245  : 
; 246  : 		pLogItem->bGLevel		=	pItem->m_bGLevel;			//	  
; 247  : 		pLogItem->dwDuraMax		=	pItem->m_dwDuraMax;			//	 
; 248  : 		pLogItem->dwDuraCur		=	pItem->m_dwDuraCur;			//	 	
; 249  : 		pLogItem->bRefineCur	=	pItem->m_bRefineCur;		//	 
; 250  : 
; 251  : 		pLogItem->bGradeEffect	=	pItem->m_bGradeEffect;		//	  
; 252  : 
; 253  : 		int	nOrder = 0;
; 254  : 		MAPTMAGIC::iterator itTMAGIC;
; 255  : 		for( itTMAGIC = pItem->m_mapTMAGIC.begin(); itTMAGIC != pItem->m_mapTMAGIC.end(); itTMAGIC++)

  001ae	8b 7e 0c	 mov	 edi, DWORD PTR [esi+12]
  001b1	0f b7 c1	 movzx	 eax, cx
  001b4	99		 cdq
  001b5	89 84 24 60 04
	00 00		 mov	 DWORD PTR _LogData$[esp+2144], eax
  001bc	89 94 24 64 04
	00 00		 mov	 DWORD PTR _LogData$[esp+2148], edx
  001c3	0f b6 c3	 movzx	 eax, bl
  001c6	99		 cdq
  001c7	89 84 24 80 04
	00 00		 mov	 DWORD PTR _LogData$[esp+2176], eax
  001ce	8b 46 20	 mov	 eax, DWORD PTR [esi+32]
  001d1	89 94 24 84 04
	00 00		 mov	 DWORD PTR _LogData$[esp+2180], edx
  001d8	8b 56 24	 mov	 edx, DWORD PTR [esi+36]
  001db	89 84 24 88 04
	00 00		 mov	 DWORD PTR _LogData$[esp+2184], eax
  001e2	89 94 24 8c 04
	00 00		 mov	 DWORD PTR _LogData$[esp+2188], edx
  001e9	89 84 24 04 06
	00 00		 mov	 DWORD PTR _LogData$[esp+2564], eax
  001f0	8a 46 28	 mov	 al, BYTE PTR [esi+40]
  001f3	89 94 24 08 06
	00 00		 mov	 DWORD PTR _LogData$[esp+2568], edx
  001fa	8a 56 2a	 mov	 dl, BYTE PTR [esi+42]
  001fd	66 89 8c 24 0e
	06 00 00	 mov	 WORD PTR _LogData$[esp+2574], cx
  00205	8a 4e 29	 mov	 cl, BYTE PTR [esi+41]
  00208	88 94 24 0c 06
	00 00		 mov	 BYTE PTR _LogData$[esp+2572], dl
  0020f	8b 56 34	 mov	 edx, DWORD PTR [esi+52]
  00212	88 84 24 0d 06
	00 00		 mov	 BYTE PTR _LogData$[esp+2573], al
  00219	8a 46 33	 mov	 al, BYTE PTR [esi+51]
  0021c	88 8c 24 42 06
	00 00		 mov	 BYTE PTR _LogData$[esp+2626], cl
  00223	8a 4e 3c	 mov	 cl, BYTE PTR [esi+60]
  00226	88 84 24 44 06
	00 00		 mov	 BYTE PTR _LogData$[esp+2628], al
  0022d	8b 46 38	 mov	 eax, DWORD PTR [esi+56]
  00230	89 94 24 48 06
	00 00		 mov	 DWORD PTR _LogData$[esp+2632], edx
  00237	8a 56 68	 mov	 dl, BYTE PTR [esi+104]
  0023a	88 9c 24 43 06
	00 00		 mov	 BYTE PTR _LogData$[esp+2627], bl
  00241	88 8c 24 50 06
	00 00		 mov	 BYTE PTR _LogData$[esp+2640], cl
  00248	c7 84 24 00 06
	00 00 02 00 00
	00		 mov	 DWORD PTR _LogData$[esp+2560], 2
  00253	89 84 24 4c 06
	00 00		 mov	 DWORD PTR _LogData$[esp+2636], eax
  0025a	88 94 24 51 06
	00 00		 mov	 BYTE PTR _LogData$[esp+2641], dl
  00261	8b 07		 mov	 eax, DWORD PTR [edi]
  00263	33 c9		 xor	 ecx, ecx
  00265	33 db		 xor	 ebx, ebx
  00267	3b c7		 cmp	 eax, edi
  00269	89 44 24 0c	 mov	 DWORD PTR _itTMAGIC$175379[esp+2064], eax
  0026d	74 3f		 je	 SHORT $L175385

; 224  : 	{
; 225  : 		LogData.dwKey[3]		=	pItem->m_wItemID;			//	Item ID

  0026f	8d 8c 24 58 06
	00 00		 lea	 ecx, DWORD PTR _LogData$[esp+2648]
  00276	eb 08		 jmp	 SHORT $L179938
$L180020:
  00278	8b 4c 24 10	 mov	 ecx, DWORD PTR tv659[esp+2064]
  0027c	8d 64 24 00	 npad	 4

; 227  : 		LogData.dwKey[8]		=	pItem->m_dlID;				//	Unique Key
; 228  : 
; 229  : 		LogData.dwFormat = LF_ITEM;
; 230  : 
; 231  : 		_LPLOG_ITEM_ pLogItem = (_LPLOG_ITEM_)LogData.szLog;
; 232  : 	
; 233  : 		pLogItem->dlID			=	pItem->m_dlID;				//	Unique Number
; 234  : 		pLogItem->bInven		=	pItem->m_bInven;			//	 
; 235  : 		pLogItem->bItemID		=	pItem->m_bItemID;			//	 
; 236  : 
; 237  : 		pLogItem->wItemID		=	pItem->m_wItemID;			//	Item Index
; 238  : 
; 239  : 		//
; 240  : 		//	Game Part   
; 241  : 		//	lstrcpy( pLogItem->szItemName, pItem->m_pTITEM-> )	//	 
; 242  : 
; 243  : 		pLogItem->bLevel		=	pItem->m_bLevel;			//	 
; 244  : 		pLogItem->bCount		=	pItem->m_bCount;				
; 245  : 
; 246  : 		pLogItem->bGLevel		=	pItem->m_bGLevel;			//	  
; 247  : 		pLogItem->dwDuraMax		=	pItem->m_dwDuraMax;			//	 
; 248  : 		pLogItem->dwDuraCur		=	pItem->m_dwDuraCur;			//	 	
; 249  : 		pLogItem->bRefineCur	=	pItem->m_bRefineCur;		//	 
; 250  : 
; 251  : 		pLogItem->bGradeEffect	=	pItem->m_bGradeEffect;		//	  
; 252  : 
; 253  : 		int	nOrder = 0;
; 254  : 		MAPTMAGIC::iterator itTMAGIC;
; 255  : 		for( itTMAGIC = pItem->m_mapTMAGIC.begin(); itTMAGIC != pItem->m_mapTMAGIC.end(); itTMAGIC++)

$L179938:

; 256  : 		{
; 257  : 			pLogItem->bMagic[nOrder] =	(*itTMAGIC).first; 

  00280	8a 50 0c	 mov	 dl, BYTE PTR [eax+12]
  00283	88 94 1c 52 06
	00 00		 mov	 BYTE PTR _LogData$[esp+ebx+2642], dl

; 258  : 			pLogItem->wValue[nOrder] =	(*itTMAGIC).second->m_wValue;

  0028a	8b 40 10	 mov	 eax, DWORD PTR [eax+16]
  0028d	66 8b 10	 mov	 dx, WORD PTR [eax]
  00290	66 89 11	 mov	 WORD PTR [ecx], dx

; 259  : 
; 260  : 			nOrder ++;

  00293	83 c1 02	 add	 ecx, 2
  00296	89 4c 24 10	 mov	 DWORD PTR tv659[esp+2064], ecx
  0029a	8d 4c 24 0c	 lea	 ecx, DWORD PTR _itTMAGIC$175379[esp+2064]
  0029e	43		 inc	 ebx
  0029f	e8 00 00 00 00	 call	 ?_Inc@const_iterator@?$_Tree@V?$_Tmap_traits@EPAUtagTMAGIC@@U?$less@E@std@@V?$allocator@U?$pair@$$CBEPAUtagTMAGIC@@@std@@@3@$0A@@std@@@std@@QAEXXZ ; std::_Tree<std::_Tmap_traits<unsigned char,tagTMAGIC *,std::less<unsigned char>,std::allocator<std::pair<unsigned char const ,tagTMAGIC *> >,0> >::const_iterator::_Inc
  002a4	8b 44 24 0c	 mov	 eax, DWORD PTR _itTMAGIC$175379[esp+2064]
  002a8	3b c7		 cmp	 eax, edi
  002aa	75 cc		 jne	 SHORT $L180020

; 227  : 		LogData.dwKey[8]		=	pItem->m_dlID;				//	Unique Key
; 228  : 
; 229  : 		LogData.dwFormat = LF_ITEM;
; 230  : 
; 231  : 		_LPLOG_ITEM_ pLogItem = (_LPLOG_ITEM_)LogData.szLog;
; 232  : 	
; 233  : 		pLogItem->dlID			=	pItem->m_dlID;				//	Unique Number
; 234  : 		pLogItem->bInven		=	pItem->m_bInven;			//	 
; 235  : 		pLogItem->bItemID		=	pItem->m_bItemID;			//	 
; 236  : 
; 237  : 		pLogItem->wItemID		=	pItem->m_wItemID;			//	Item Index
; 238  : 
; 239  : 		//
; 240  : 		//	Game Part   
; 241  : 		//	lstrcpy( pLogItem->szItemName, pItem->m_pTITEM-> )	//	 
; 242  : 
; 243  : 		pLogItem->bLevel		=	pItem->m_bLevel;			//	 
; 244  : 		pLogItem->bCount		=	pItem->m_bCount;				
; 245  : 
; 246  : 		pLogItem->bGLevel		=	pItem->m_bGLevel;			//	  
; 247  : 		pLogItem->dwDuraMax		=	pItem->m_dwDuraMax;			//	 
; 248  : 		pLogItem->dwDuraCur		=	pItem->m_dwDuraCur;			//	 	
; 249  : 		pLogItem->bRefineCur	=	pItem->m_bRefineCur;		//	 
; 250  : 
; 251  : 		pLogItem->bGradeEffect	=	pItem->m_bGradeEffect;		//	  
; 252  : 
; 253  : 		int	nOrder = 0;
; 254  : 		MAPTMAGIC::iterator itTMAGIC;
; 255  : 		for( itTMAGIC = pItem->m_mapTMAGIC.begin(); itTMAGIC != pItem->m_mapTMAGIC.end(); itTMAGIC++)

  002ac	33 c9		 xor	 ecx, ecx
$L175385:

; 261  : 		}
; 262  : 		
; 263  : 		//	Item Type
; 264  : 		if( pItem->m_bGLevel )

  002ae	8a 46 33	 mov	 al, BYTE PTR [esi+51]
  002b1	84 c0		 test	 al, al
  002b3	74 0d		 je	 SHORT $L175404

; 265  : 		{
; 266  : 			LogData.dwKey[4] = 3;						//	Seal Item

  002b5	c7 84 24 68 04
	00 00 03 00 00
	00		 mov	 DWORD PTR _LogData$[esp+2152], 3

; 267  : 		}
; 268  : 		else

  002c0	eb 2d		 jmp	 SHORT $L180022
$L175404:

; 269  : 		{
; 270  : 			switch(nOrder)

  002c2	83 fb 03	 cmp	 ebx, 3
  002c5	77 2f		 ja	 SHORT $L175407
  002c7	ff 24 9d 00 00
	00 00		 jmp	 DWORD PTR $L180023[ebx*4]
$L175410:

; 271  : 			{
; 272  : 			case 0 :	LogData.dwKey[4] = 0;	break;	//	Normal Item

  002ce	89 8c 24 68 04
	00 00		 mov	 DWORD PTR _LogData$[esp+2152], ecx
  002d5	eb 18		 jmp	 SHORT $L180022
$L175411:

; 273  : 
; 274  : 			case 1 : 
; 275  : 			case 2 :	LogData.dwKey[4] = 1;	break;	//	Magic Item

  002d7	c7 84 24 68 04
	00 00 01 00 00
	00		 mov	 DWORD PTR _LogData$[esp+2152], 1
  002e2	eb 0b		 jmp	 SHORT $L180022
$L175412:

; 276  : 
; 277  : 			case 3 :	LogData.dwKey[4] = 2;	break;	//	Rare Item

  002e4	c7 84 24 68 04
	00 00 02 00 00
	00		 mov	 DWORD PTR _LogData$[esp+2152], 2
$L180022:
  002ef	89 8c 24 6c 04
	00 00		 mov	 DWORD PTR _LogData$[esp+2156], ecx
$L175407:

; 278  : 
; 279  : 			case 4 :	break;
; 280  : 
; 281  : 			case 5 :	break;
; 282  : 			}
; 283  : 		}
; 284  : 
; 285  : 		pLogItem->dEndTime	=	pItem->m_dEndTime;

  002f6	8b 46 40	 mov	 eax, DWORD PTR [esi+64]
  002f9	8b 4e 44	 mov	 ecx, DWORD PTR [esi+68]
  002fc	89 84 24 7c 06
	00 00		 mov	 DWORD PTR _LogData$[esp+2684], eax
  00303	89 8c 24 80 06
	00 00		 mov	 DWORD PTR _LogData$[esp+2688], ecx
  0030a	33 db		 xor	 ebx, ebx
$L175298:

; 286  : 	}
; 287  : 
; 288  : 	SendDMLog( LogData );

  0030c	b9 fe 00 00 00	 mov	 ecx, 254		; 000000feH
  00311	8d b4 24 10 04
	00 00		 lea	 esi, DWORD PTR _LogData$[esp+2064]
  00318	8d 7c 24 18	 lea	 edi, DWORD PTR $T180016[esp+2064]
  0031c	53		 push	 ebx
  0031d	f3 a5		 rep movsd
  0031f	e8 00 00 00 00	 call	 __time64
  00324	89 54 24 18	 mov	 DWORD PTR _tNowTime$180010[esp+2072], edx
  00328	83 c4 04	 add	 esp, 4
  0032b	8d 54 24 18	 lea	 edx, DWORD PTR $T180016[esp+2064]
  0032f	52		 push	 edx
  00330	8d 4c 24 14	 lea	 ecx, DWORD PTR _tNowTime$180010[esp+2068]
  00334	89 44 24 14	 mov	 DWORD PTR _tNowTime$180010[esp+2068], eax
  00338	e8 00 00 00 00	 call	 ?GetAsDBTIMESTAMP@CTime@ATL@@QBE_NAAUtagDBTIMESTAMP@@@Z ; ATL::CTime::GetAsDBTIMESTAMP
  0033d	81 ec f8 03 00
	00		 sub	 esp, 1016		; 000003f8H
  00343	8b fc		 mov	 edi, esp
  00345	b9 fe 00 00 00	 mov	 ecx, 254		; 000000feH
  0034a	8d b4 24 10 04
	00 00		 lea	 esi, DWORD PTR $T180016[esp+3080]
  00351	f3 a5		 rep movsd
  00353	b9 00 00 00 00	 mov	 ecx, OFFSET FLAT:?_AtlModule@@3VCTMapSvrModule@@A
  00358	e8 00 00 00 00	 call	 ?SendDM_UDPLOG_REQ@CTMapSvrModule@@QAEXU_LOG_DATA_@@@Z ; CTMapSvrModule::SendDM_UDPLOG_REQ
$L180009:

; 289  : }

  0035d	8b 8c 24 0c 08
	00 00		 mov	 ecx, DWORD PTR __$ArrayPad$[esp+2064]
  00364	e8 00 00 00 00	 call	 @__security_check_cookie@4
  00369	5f		 pop	 edi
  0036a	5e		 pop	 esi
  0036b	5b		 pop	 ebx
  0036c	8b e5		 mov	 esp, ebp
  0036e	5d		 pop	 ebp
  0036f	c2 18 00	 ret	 24			; 00000018H
  00372	8b ff		 npad	 2
$L180023:
  00374	00 00 00 00	 DD	 $L175410
  00378	00 00 00 00	 DD	 $L175411
  0037c	00 00 00 00	 DD	 $L175411
  00380	00 00 00 00	 DD	 $L175412
?LogItemByNPC@CUdpSocket@@QAEXKPAVCTPlayer@@PAVCTNpc@@PAVCTItem@@HPAUtagQUESTTEMP@@@Z ENDP ; CUdpSocket::LogItemByNPC
_TEXT	ENDS
PUBLIC	?LogItemByMonster@CUdpSocket@@QAEXKPAVCTPlayer@@PAVCTMonster@@PAVCTItem@@_J@Z ; CUdpSocket::LogItemByMonster
; Function compile flags: /Ogty
;	COMDAT ?LogItemByMonster@CUdpSocket@@QAEXKPAVCTPlayer@@PAVCTMonster@@PAVCTItem@@_J@Z
_TEXT	SEGMENT
_itTMAGIC$175436 = -1036				; size = 4
tv623 = -1032						; size = 4
_this$ = -1028						; size = 4
_LogData$ = -1024					; size = 1016
__$ArrayPad$ = -4					; size = 4
__$ReturnAddr$ = 4					; size = 4
_pAction$ = 8						; size = 4
_pPlayer$ = 12						; size = 4
_pMon$ = 16						; size = 4
_pItem$ = 20						; size = 4
_pMoney$ = 24						; size = 8
?LogItemByMonster@CUdpSocket@@QAEXKPAVCTPlayer@@PAVCTMonster@@PAVCTItem@@_J@Z PROC NEAR ; CUdpSocket::LogItemByMonster, COMDAT
; _this$ = ecx

; 296  : {

  00000	55		 push	 ebp
  00001	8b ec		 mov	 ebp, esp
  00003	83 e4 f8	 and	 esp, -8			; fffffff8H
  00006	81 ec 0c 04 00
	00		 sub	 esp, 1036		; 0000040cH
  0000c	a1 00 00 00 00	 mov	 eax, DWORD PTR ___security_cookie
  00011	53		 push	 ebx

; 297  : 	if(!pPlayer || !pItem ) return;

  00012	8b 5d 0c	 mov	 ebx, DWORD PTR _pPlayer$[ebp]
  00015	85 db		 test	 ebx, ebx
  00017	56		 push	 esi
  00018	89 84 24 10 04
	00 00		 mov	 DWORD PTR __$ArrayPad$[esp+1044], eax
  0001f	57		 push	 edi
  00020	89 4c 24 14	 mov	 DWORD PTR _this$[esp+1048], ecx
  00024	0f 84 bd 02 00
	00		 je	 $L175424
  0002a	8b 75 14	 mov	 esi, DWORD PTR _pItem$[ebp]
  0002d	85 f6		 test	 esi, esi
  0002f	0f 84 b2 02 00
	00		 je	 $L175424

; 298  : 
; 299  : 	_LOG_DATA_ LogData;
; 300  : 	memset( &LogData, 0x00, sizeof(_LOG_DATA_));
; 301  : 
; 302  : 	LogData.dwAction	=	pAction;
; 303  : 	LogData.dwServerID	=	_AtlModule.GetServerID();
; 304  : 
; 305  : 	lstrcpy( LogData.szClientIP, inet_ntoa(pPlayer->m_addr.sin_addr) );	

  00035	8b 53 40	 mov	 edx, DWORD PTR [ebx+64]
  00038	33 c0		 xor	 eax, eax
  0003a	b9 fe 00 00 00	 mov	 ecx, 254		; 000000feH
  0003f	8d 7c 24 18	 lea	 edi, DWORD PTR _LogData$[esp+1048]
  00043	f3 ab		 rep stosd
  00045	0f b6 0d 82 9e
	00 00		 movzx	 ecx, BYTE PTR ?_AtlModule@@3VCTMapSvrModule@@A+40578
  0004c	8b 45 08	 mov	 eax, DWORD PTR _pAction$[ebp]
  0004f	52		 push	 edx
  00050	89 44 24 40	 mov	 DWORD PTR _LogData$[esp+1088], eax
  00054	89 4c 24 2c	 mov	 DWORD PTR _LogData$[esp+1068], ecx
  00058	ff 15 00 00 00
	00		 call	 DWORD PTR __imp__inet_ntoa@4
  0005e	8b 3d 00 00 00
	00		 mov	 edi, DWORD PTR __imp__lstrcpyA@8
  00064	50		 push	 eax
  00065	8d 44 24 30	 lea	 eax, DWORD PTR _LogData$[esp+1072]
  00069	50		 push	 eax
  0006a	ff d7		 call	 edi

; 306  : 
; 307  : 	LogData.wMapID			=	pPlayer->m_wMapID;				//	Map ID

  0006c	66 8b 8b 90 01
	01 00		 mov	 cx, WORD PTR [ebx+65936]

; 308  : 	LogData.nX				=	(int)pPlayer->m_fPosX;			//	X

  00073	d9 83 7c 01 01
	00		 fld	 DWORD PTR [ebx+65916]
  00079	66 89 4c 24 40	 mov	 WORD PTR _LogData$[esp+1088], cx
  0007e	e8 00 00 00 00	 call	 __ftol2

; 309  : 	LogData.nY				=	(int)pPlayer->m_fPosY;			//	Y

  00083	d9 83 80 01 01
	00		 fld	 DWORD PTR [ebx+65920]
  00089	89 44 24 44	 mov	 DWORD PTR _LogData$[esp+1092], eax
  0008d	e8 00 00 00 00	 call	 __ftol2

; 310  : 	LogData.nZ				=	(int)pPlayer->m_fPosZ;			//	Z

  00092	d9 83 84 01 01
	00		 fld	 DWORD PTR [ebx+65924]
  00098	89 44 24 48	 mov	 DWORD PTR _LogData$[esp+1096], eax
  0009c	e8 00 00 00 00	 call	 __ftol2

; 311  : 
; 312  : 	LogData.dwKey[0]		=	pPlayer->m_dwUserID;			//	User ID

  000a1	8b 93 ac 03 01
	00		 mov	 edx, DWORD PTR [ebx+66476]

; 313  : 	LogData.dwKey[1]		=	pPlayer->m_dwID;				//	Character Seq

  000a7	8b 8b 44 01 01
	00		 mov	 ecx, DWORD PTR [ebx+65860]
  000ad	89 44 24 4c	 mov	 DWORD PTR _LogData$[esp+1100], eax
  000b1	33 c0		 xor	 eax, eax
  000b3	89 54 24 50	 mov	 DWORD PTR _LogData$[esp+1104], edx

; 314  : 	lstrcpy(LogData.szKey[1],	pPlayer->m_strNAME	);			//	Character Name

  000b7	8b 93 a4 03 01
	00		 mov	 edx, DWORD PTR [ebx+66468]
  000bd	89 44 24 54	 mov	 DWORD PTR _LogData$[esp+1108], eax
  000c1	89 44 24 5c	 mov	 DWORD PTR _LogData$[esp+1116], eax
  000c5	52		 push	 edx
  000c6	8d 84 24 de 00
	00 00		 lea	 eax, DWORD PTR _LogData$[esp+1246]
  000cd	50		 push	 eax
  000ce	89 4c 24 60	 mov	 DWORD PTR _LogData$[esp+1120], ecx
  000d2	ff d7		 call	 edi

; 315  : 
; 316  : 	LogData.dwKey[9]		=	pPlayer->m_bCountry + (pPlayer->m_bAidCountry == TCONTRY_N ? 0 : (pPlayer->m_bAidCountry+1)*10);			//	Country

  000d4	8a 83 9e 01 01
	00		 mov	 al, BYTE PTR [ebx+65950]
  000da	3c 03		 cmp	 al, 3
  000dc	75 04		 jne	 SHORT $L180027
  000de	33 c9		 xor	 ecx, ecx
  000e0	eb 09		 jmp	 SHORT $L180028
$L180027:
  000e2	0f b6 c0	 movzx	 eax, al
  000e5	40		 inc	 eax
  000e6	8d 0c 80	 lea	 ecx, DWORD PTR [eax+eax*4]
  000e9	d1 e1		 shl	 ecx, 1
$L180028:
  000eb	0f b6 83 9d 01
	01 00		 movzx	 eax, BYTE PTR [ebx+65949]
  000f2	03 c1		 add	 eax, ecx
  000f4	99		 cdq
  000f5	89 84 24 98 00
	00 00		 mov	 DWORD PTR _LogData$[esp+1176], eax

; 317  : 	LogData.dwKey[10]		=	pPlayer->m_bLevel;				//	Level

  000fc	0f b6 83 7b 01
	01 00		 movzx	 eax, BYTE PTR [ebx+65915]
  00103	89 94 24 9c 00
	00 00		 mov	 DWORD PTR _LogData$[esp+1180], edx
  0010a	99		 cdq
  0010b	89 84 24 a0 00
	00 00		 mov	 DWORD PTR _LogData$[esp+1184], eax

; 318  : 
; 319  : 	if(pMon)

  00112	8b 45 10	 mov	 eax, DWORD PTR _pMon$[ebp]
  00115	85 c0		 test	 eax, eax
  00117	89 94 24 a4 00
	00 00		 mov	 DWORD PTR _LogData$[esp+1188], edx
  0011e	74 13		 je	 SHORT $L175430

; 320  : 	{
; 321  : 		LogData.dwKey[2]	=	pMon->m_pMON->m_wID;			//	NPC ID

  00120	8b 88 ec 00 00
	00		 mov	 ecx, DWORD PTR [eax+236]
  00126	0f b7 41 24	 movzx	 eax, WORD PTR [ecx+36]
  0012a	99		 cdq
  0012b	89 44 24 60	 mov	 DWORD PTR _LogData$[esp+1120], eax
  0012f	89 54 24 64	 mov	 DWORD PTR _LogData$[esp+1124], edx
$L175430:

; 322  : 	}
; 323  : 
; 324  : 	if(pMoney)

  00133	8b 45 18	 mov	 eax, DWORD PTR _pMoney$[ebp]
  00136	8b 4d 1c	 mov	 ecx, DWORD PTR _pMoney$[ebp+4]
  00139	8b d0		 mov	 edx, eax
  0013b	0b d1		 or	 edx, ecx
  0013d	74 36		 je	 SHORT $L175431

; 325  : 	{
; 326  : 		LogData.dwKey[5]		=	pMoney;						//	Get Money   
; 327  : 		wsprintf( LogData.szKey[5], "Now Money : %u/%u/%u",		//	Now Money
; 328  : 												pPlayer->m_dwGold,		
; 329  : 												pPlayer->m_dwSilver, 
; 330  : 												pPlayer->m_dwCooper );	

  0013f	8b 93 d0 03 01
	00		 mov	 edx, DWORD PTR [ebx+66512]
  00145	89 44 24 78	 mov	 DWORD PTR _LogData$[esp+1144], eax
  00149	8b 83 c8 03 01
	00		 mov	 eax, DWORD PTR [ebx+66504]
  0014f	50		 push	 eax
  00150	89 8c 24 80 00
	00 00		 mov	 DWORD PTR _LogData$[esp+1152], ecx
  00157	8b 8b cc 03 01
	00		 mov	 ecx, DWORD PTR [ebx+66508]
  0015d	51		 push	 ecx
  0015e	52		 push	 edx
  0015f	8d 84 24 ae 01
	00 00		 lea	 eax, DWORD PTR _LogData$[esp+1454]
  00166	68 00 00 00 00	 push	 OFFSET FLAT:??_C@_0BF@LNLPBIJG@Now?5Money?5?3?5?$CFu?1?$CFu?1?$CFu?$AA@
  0016b	50		 push	 eax
  0016c	ff 15 00 00 00
	00		 call	 DWORD PTR __imp__wsprintfA
  00172	83 c4 14	 add	 esp, 20			; 00000014H
$L175431:

; 331  : 	}
; 332  : 	
; 333  : 	//
; 334  : 	//	ITEM INFO
; 335  : 	//
; 336  : 	if(pItem)
; 337  : 	{
; 338  : 		LogData.dwKey[3]		=	pItem->m_wItemID;			//	Item Template ID

  00175	66 8b 4e 30	 mov	 cx, WORD PTR [esi+48]

; 339  : 		LogData.dwKey[7]		=	pItem->m_bCount;			//	Item Count

  00179	8a 5e 32	 mov	 bl, BYTE PTR [esi+50]

; 340  : 		LogData.dwKey[8]		=	pItem->m_dlID;				//	Unique Key
; 341  : 
; 342  : 		LogData.dwFormat = LF_ITEM;
; 343  : 
; 344  : 		_LPLOG_ITEM_ pLogItem = (_LPLOG_ITEM_)LogData.szLog;
; 345  : 		
; 346  : 		pLogItem->dlID			=	pItem->m_dlID;				//	Unique Number
; 347  : 		pLogItem->bInven		=	pItem->m_bInven;			//	 
; 348  : 		pLogItem->bItemID		=	pItem->m_bItemID;			//	 
; 349  : 
; 350  : 		pLogItem->wItemID		=	pItem->m_wItemID;			//	 INDEX
; 351  : 
; 352  : 		//
; 353  : 		//	Game Part   
; 354  : 		//	lstrcpy( pLogItem->szItemName, pItem->m_pTITEM-> )	//	 
; 355  : 
; 356  : 		pLogItem->bLevel		=	pItem->m_bLevel;			//	 
; 357  : 		pLogItem->bCount		=	pItem->m_bCount;				
; 358  : 
; 359  : 		pLogItem->bGLevel		=	pItem->m_bGLevel;			//	  
; 360  : 		pLogItem->dwDuraMax		=	pItem->m_dwDuraMax;			//	 
; 361  : 		pLogItem->dwDuraCur		=	pItem->m_dwDuraCur;			//	 	
; 362  : 		pLogItem->bRefineCur	=	pItem->m_bRefineCur;		//	 
; 363  : 
; 364  : 		pLogItem->bGradeEffect	=	pItem->m_bGradeEffect;		//	  	    
; 365  : 
; 366  : 		int	nOrder = 0;
; 367  : 
; 368  : 		MAPTMAGIC::iterator itTMAGIC;
; 369  : 		for( itTMAGIC = pItem->m_mapTMAGIC.begin(); itTMAGIC != pItem->m_mapTMAGIC.end(); itTMAGIC++)

  0017c	8b 7e 0c	 mov	 edi, DWORD PTR [esi+12]
  0017f	0f b7 c1	 movzx	 eax, cx
  00182	99		 cdq
  00183	89 44 24 68	 mov	 DWORD PTR _LogData$[esp+1128], eax
  00187	89 54 24 6c	 mov	 DWORD PTR _LogData$[esp+1132], edx
  0018b	0f b6 c3	 movzx	 eax, bl
  0018e	99		 cdq
  0018f	89 84 24 88 00
	00 00		 mov	 DWORD PTR _LogData$[esp+1160], eax
  00196	8b 46 20	 mov	 eax, DWORD PTR [esi+32]
  00199	89 94 24 8c 00
	00 00		 mov	 DWORD PTR _LogData$[esp+1164], edx
  001a0	8b 56 24	 mov	 edx, DWORD PTR [esi+36]
  001a3	89 84 24 90 00
	00 00		 mov	 DWORD PTR _LogData$[esp+1168], eax
  001aa	89 94 24 94 00
	00 00		 mov	 DWORD PTR _LogData$[esp+1172], edx
  001b1	89 84 24 0c 02
	00 00		 mov	 DWORD PTR _LogData$[esp+1548], eax
  001b8	8a 46 28	 mov	 al, BYTE PTR [esi+40]
  001bb	89 94 24 10 02
	00 00		 mov	 DWORD PTR _LogData$[esp+1552], edx
  001c2	8a 56 2a	 mov	 dl, BYTE PTR [esi+42]
  001c5	88 94 24 14 02
	00 00		 mov	 BYTE PTR _LogData$[esp+1556], dl
  001cc	8b 56 34	 mov	 edx, DWORD PTR [esi+52]
  001cf	88 84 24 15 02
	00 00		 mov	 BYTE PTR _LogData$[esp+1557], al
  001d6	8a 46 33	 mov	 al, BYTE PTR [esi+51]
  001d9	66 89 8c 24 16
	02 00 00	 mov	 WORD PTR _LogData$[esp+1558], cx
  001e1	8a 4e 29	 mov	 cl, BYTE PTR [esi+41]
  001e4	88 8c 24 4a 02
	00 00		 mov	 BYTE PTR _LogData$[esp+1610], cl
  001eb	8a 4e 3c	 mov	 cl, BYTE PTR [esi+60]
  001ee	88 84 24 4c 02
	00 00		 mov	 BYTE PTR _LogData$[esp+1612], al
  001f5	8b 46 38	 mov	 eax, DWORD PTR [esi+56]
  001f8	89 94 24 50 02
	00 00		 mov	 DWORD PTR _LogData$[esp+1616], edx
  001ff	8a 56 68	 mov	 dl, BYTE PTR [esi+104]
  00202	88 9c 24 4b 02
	00 00		 mov	 BYTE PTR _LogData$[esp+1611], bl
  00209	c7 84 24 08 02
	00 00 02 00 00
	00		 mov	 DWORD PTR _LogData$[esp+1544], 2
  00214	89 84 24 54 02
	00 00		 mov	 DWORD PTR _LogData$[esp+1620], eax
  0021b	88 8c 24 58 02
	00 00		 mov	 BYTE PTR _LogData$[esp+1624], cl
  00222	88 94 24 59 02
	00 00		 mov	 BYTE PTR _LogData$[esp+1625], dl
  00229	8b 07		 mov	 eax, DWORD PTR [edi]
  0022b	33 db		 xor	 ebx, ebx
  0022d	3b c7		 cmp	 eax, edi
  0022f	89 44 24 0c	 mov	 DWORD PTR _itTMAGIC$175436[esp+1048], eax
  00233	74 39		 je	 SHORT $L175442

; 331  : 	}
; 332  : 	
; 333  : 	//
; 334  : 	//	ITEM INFO
; 335  : 	//
; 336  : 	if(pItem)
; 337  : 	{
; 338  : 		LogData.dwKey[3]		=	pItem->m_wItemID;			//	Item Template ID

  00235	8d 8c 24 60 02
	00 00		 lea	 ecx, DWORD PTR _LogData$[esp+1632]
  0023c	eb 04		 jmp	 SHORT $L180086
$L180150:
  0023e	8b 4c 24 10	 mov	 ecx, DWORD PTR tv623[esp+1048]

; 340  : 		LogData.dwKey[8]		=	pItem->m_dlID;				//	Unique Key
; 341  : 
; 342  : 		LogData.dwFormat = LF_ITEM;
; 343  : 
; 344  : 		_LPLOG_ITEM_ pLogItem = (_LPLOG_ITEM_)LogData.szLog;
; 345  : 		
; 346  : 		pLogItem->dlID			=	pItem->m_dlID;				//	Unique Number
; 347  : 		pLogItem->bInven		=	pItem->m_bInven;			//	 
; 348  : 		pLogItem->bItemID		=	pItem->m_bItemID;			//	 
; 349  : 
; 350  : 		pLogItem->wItemID		=	pItem->m_wItemID;			//	 INDEX
; 351  : 
; 352  : 		//
; 353  : 		//	Game Part   
; 354  : 		//	lstrcpy( pLogItem->szItemName, pItem->m_pTITEM-> )	//	 
; 355  : 
; 356  : 		pLogItem->bLevel		=	pItem->m_bLevel;			//	 
; 357  : 		pLogItem->bCount		=	pItem->m_bCount;				
; 358  : 
; 359  : 		pLogItem->bGLevel		=	pItem->m_bGLevel;			//	  
; 360  : 		pLogItem->dwDuraMax		=	pItem->m_dwDuraMax;			//	 
; 361  : 		pLogItem->dwDuraCur		=	pItem->m_dwDuraCur;			//	 	
; 362  : 		pLogItem->bRefineCur	=	pItem->m_bRefineCur;		//	 
; 363  : 
; 364  : 		pLogItem->bGradeEffect	=	pItem->m_bGradeEffect;		//	  	    
; 365  : 
; 366  : 		int	nOrder = 0;
; 367  : 
; 368  : 		MAPTMAGIC::iterator itTMAGIC;
; 369  : 		for( itTMAGIC = pItem->m_mapTMAGIC.begin(); itTMAGIC != pItem->m_mapTMAGIC.end(); itTMAGIC++)

$L180086:

; 370  : 		{
; 371  : 			pLogItem->bMagic[nOrder] =	(*itTMAGIC).first; 

  00242	8a 50 0c	 mov	 dl, BYTE PTR [eax+12]
  00245	88 94 1c 5a 02
	00 00		 mov	 BYTE PTR _LogData$[esp+ebx+1626], dl

; 372  : 			pLogItem->wValue[nOrder] =	(*itTMAGIC).second->m_wValue;

  0024c	8b 40 10	 mov	 eax, DWORD PTR [eax+16]
  0024f	66 8b 10	 mov	 dx, WORD PTR [eax]
  00252	66 89 11	 mov	 WORD PTR [ecx], dx

; 373  : 
; 374  : 			nOrder ++;

  00255	83 c1 02	 add	 ecx, 2
  00258	89 4c 24 10	 mov	 DWORD PTR tv623[esp+1048], ecx
  0025c	8d 4c 24 0c	 lea	 ecx, DWORD PTR _itTMAGIC$175436[esp+1048]
  00260	43		 inc	 ebx
  00261	e8 00 00 00 00	 call	 ?_Inc@const_iterator@?$_Tree@V?$_Tmap_traits@EPAUtagTMAGIC@@U?$less@E@std@@V?$allocator@U?$pair@$$CBEPAUtagTMAGIC@@@std@@@3@$0A@@std@@@std@@QAEXXZ ; std::_Tree<std::_Tmap_traits<unsigned char,tagTMAGIC *,std::less<unsigned char>,std::allocator<std::pair<unsigned char const ,tagTMAGIC *> >,0> >::const_iterator::_Inc
  00266	8b 44 24 0c	 mov	 eax, DWORD PTR _itTMAGIC$175436[esp+1048]
  0026a	3b c7		 cmp	 eax, edi
  0026c	75 d0		 jne	 SHORT $L180150
$L175442:

; 375  : 		}
; 376  : 
; 377  : 		//	Item Type
; 378  : 		if( pItem->m_bGLevel )

  0026e	8a 46 33	 mov	 al, BYTE PTR [esi+51]
  00271	84 c0		 test	 al, al
  00273	74 0a		 je	 SHORT $L175443

; 379  : 		{
; 380  : 			LogData.dwKey[4] = 3;								//	Seal Item

  00275	c7 44 24 70 03
	00 00 00	 mov	 DWORD PTR _LogData$[esp+1136], 3

; 381  : 		}
; 382  : 		else

  0027d	eb 2a		 jmp	 SHORT $L180152
$L175443:

; 383  : 		{
; 384  : 			switch(nOrder)

  0027f	83 fb 03	 cmp	 ebx, 3
  00282	77 2d		 ja	 SHORT $L175446
  00284	ff 24 9d 00 00
	00 00		 jmp	 DWORD PTR $L180153[ebx*4]
$L175449:

; 385  : 			{
; 386  : 			case 0 :	LogData.dwKey[4] = 0;	break;			//	Normal Item

  0028b	33 c0		 xor	 eax, eax
  0028d	89 44 24 70	 mov	 DWORD PTR _LogData$[esp+1136], eax
  00291	89 44 24 74	 mov	 DWORD PTR _LogData$[esp+1140], eax
  00295	eb 1a		 jmp	 SHORT $L175446
$L175450:

; 387  : 
; 388  : 			case 1 : 
; 389  : 			case 2 :	LogData.dwKey[4] = 1;	break;			//	Magic Item

  00297	c7 44 24 70 01
	00 00 00	 mov	 DWORD PTR _LogData$[esp+1136], 1
  0029f	eb 08		 jmp	 SHORT $L180152
$L175451:

; 390  : 
; 391  : 			case 3 :	LogData.dwKey[4] = 2;	break;			//	Rare Item

  002a1	c7 44 24 70 02
	00 00 00	 mov	 DWORD PTR _LogData$[esp+1136], 2
$L180152:
  002a9	c7 44 24 74 00
	00 00 00	 mov	 DWORD PTR _LogData$[esp+1140], 0
$L175446:

; 392  : 
; 393  : 			case 4 :	break;
; 394  : 
; 395  : 			case 5 :	break;
; 396  : 			}
; 397  : 		}
; 398  : 
; 399  : 		pLogItem->dEndTime	=	pItem->m_dEndTime;

  002b1	8b 4e 44	 mov	 ecx, DWORD PTR [esi+68]
  002b4	8b 46 40	 mov	 eax, DWORD PTR [esi+64]
  002b7	89 8c 24 88 02
	00 00		 mov	 DWORD PTR _LogData$[esp+1672], ecx

; 400  : 	}
; 401  : 
; 402  : 	SendDMLog( LogData );

  002be	81 ec f8 03 00
	00		 sub	 esp, 1016		; 000003f8H
  002c4	8b fc		 mov	 edi, esp
  002c6	89 84 24 7c 06
	00 00		 mov	 DWORD PTR _LogData$[esp+2684], eax
  002cd	b9 fe 00 00 00	 mov	 ecx, 254		; 000000feH
  002d2	8d b4 24 10 04
	00 00		 lea	 esi, DWORD PTR _LogData$[esp+2064]
  002d9	f3 a5		 rep movsd
  002db	8b 8c 24 0c 04
	00 00		 mov	 ecx, DWORD PTR _this$[esp+2064]
  002e2	e8 00 00 00 00	 call	 ?SendDMLog@CUdpSocket@@QAEXU_LOG_DATA_@@@Z ; CUdpSocket::SendDMLog
$L175424:

; 403  : }

  002e7	8b 8c 24 14 04
	00 00		 mov	 ecx, DWORD PTR __$ArrayPad$[esp+1048]
  002ee	e8 00 00 00 00	 call	 @__security_check_cookie@4
  002f3	5f		 pop	 edi
  002f4	5e		 pop	 esi
  002f5	5b		 pop	 ebx
  002f6	8b e5		 mov	 esp, ebp
  002f8	5d		 pop	 ebp
  002f9	c2 18 00	 ret	 24			; 00000018H
$L180153:
  002fc	00 00 00 00	 DD	 $L175449
  00300	00 00 00 00	 DD	 $L175450
  00304	00 00 00 00	 DD	 $L175450
  00308	00 00 00 00	 DD	 $L175451
?LogItemByMonster@CUdpSocket@@QAEXKPAVCTPlayer@@PAVCTMonster@@PAVCTItem@@_J@Z ENDP ; CUdpSocket::LogItemByMonster
_TEXT	ENDS
PUBLIC	?LogItemByMonster@CUdpSocket@@QAEXKPAVCTPlayer@@HPAVCTItem@@@Z ; CUdpSocket::LogItemByMonster
; Function compile flags: /Ogty
;	COMDAT ?LogItemByMonster@CUdpSocket@@QAEXKPAVCTPlayer@@HPAVCTItem@@@Z
_TEXT	SEGMENT
_itTMAGIC$175472 = -1036				; size = 4
tv602 = -1032						; size = 4
_this$ = -1028						; size = 4
_LogData$ = -1024					; size = 1016
__$ArrayPad$ = -4					; size = 4
__$ReturnAddr$ = 4					; size = 4
_pAction$ = 8						; size = 4
_pPlayer$ = 12						; size = 4
_pMonTempID$ = 16					; size = 4
_pItem$ = 20						; size = 4
?LogItemByMonster@CUdpSocket@@QAEXKPAVCTPlayer@@HPAVCTItem@@@Z PROC NEAR ; CUdpSocket::LogItemByMonster, COMDAT
; _this$ = ecx

; 410  : {

  00000	55		 push	 ebp
  00001	8b ec		 mov	 ebp, esp
  00003	83 e4 f8	 and	 esp, -8			; fffffff8H
  00006	81 ec 0c 04 00
	00		 sub	 esp, 1036		; 0000040cH
  0000c	a1 00 00 00 00	 mov	 eax, DWORD PTR ___security_cookie
  00011	53		 push	 ebx

; 411  : 	if(!pPlayer || !pItem ) return;

  00012	8b 5d 0c	 mov	 ebx, DWORD PTR _pPlayer$[ebp]
  00015	85 db		 test	 ebx, ebx
  00017	56		 push	 esi
  00018	89 84 24 10 04
	00 00		 mov	 DWORD PTR __$ArrayPad$[esp+1044], eax
  0001f	57		 push	 edi
  00020	89 4c 24 14	 mov	 DWORD PTR _this$[esp+1048], ecx
  00024	0f 84 6d 02 00
	00		 je	 $L175462
  0002a	8b 75 14	 mov	 esi, DWORD PTR _pItem$[ebp]
  0002d	85 f6		 test	 esi, esi
  0002f	0f 84 62 02 00
	00		 je	 $L175462

; 412  : 
; 413  : 	_LOG_DATA_ LogData;
; 414  : 	memset( &LogData, 0x00, sizeof(_LOG_DATA_));
; 415  : 
; 416  : 	LogData.dwAction	=	pAction;
; 417  : 	LogData.dwServerID	=	_AtlModule.GetServerID();
; 418  : 
; 419  : 	lstrcpy( LogData.szClientIP, inet_ntoa(pPlayer->m_addr.sin_addr) );	

  00035	8b 53 40	 mov	 edx, DWORD PTR [ebx+64]
  00038	33 c0		 xor	 eax, eax
  0003a	b9 fe 00 00 00	 mov	 ecx, 254		; 000000feH
  0003f	8d 7c 24 18	 lea	 edi, DWORD PTR _LogData$[esp+1048]
  00043	f3 ab		 rep stosd
  00045	0f b6 0d 82 9e
	00 00		 movzx	 ecx, BYTE PTR ?_AtlModule@@3VCTMapSvrModule@@A+40578
  0004c	8b 45 08	 mov	 eax, DWORD PTR _pAction$[ebp]
  0004f	52		 push	 edx
  00050	89 44 24 40	 mov	 DWORD PTR _LogData$[esp+1088], eax
  00054	89 4c 24 2c	 mov	 DWORD PTR _LogData$[esp+1068], ecx
  00058	ff 15 00 00 00
	00		 call	 DWORD PTR __imp__inet_ntoa@4
  0005e	8b 3d 00 00 00
	00		 mov	 edi, DWORD PTR __imp__lstrcpyA@8
  00064	50		 push	 eax
  00065	8d 44 24 30	 lea	 eax, DWORD PTR _LogData$[esp+1072]
  00069	50		 push	 eax
  0006a	ff d7		 call	 edi

; 420  : 
; 421  : 
; 422  : 	LogData.wMapID			=	pPlayer->m_wMapID;				//	Map ID

  0006c	66 8b 8b 90 01
	01 00		 mov	 cx, WORD PTR [ebx+65936]

; 423  : 	LogData.nX				=	(int)pPlayer->m_fPosX;			//	X

  00073	d9 83 7c 01 01
	00		 fld	 DWORD PTR [ebx+65916]
  00079	66 89 4c 24 40	 mov	 WORD PTR _LogData$[esp+1088], cx
  0007e	e8 00 00 00 00	 call	 __ftol2

; 424  : 	LogData.nY				=	(int)pPlayer->m_fPosY;			//	Y

  00083	d9 83 80 01 01
	00		 fld	 DWORD PTR [ebx+65920]
  00089	89 44 24 44	 mov	 DWORD PTR _LogData$[esp+1092], eax
  0008d	e8 00 00 00 00	 call	 __ftol2

; 425  : 	LogData.nZ				=	(int)pPlayer->m_fPosZ;			//	Z

  00092	d9 83 84 01 01
	00		 fld	 DWORD PTR [ebx+65924]
  00098	89 44 24 48	 mov	 DWORD PTR _LogData$[esp+1096], eax
  0009c	e8 00 00 00 00	 call	 __ftol2

; 426  : 
; 427  : 	LogData.dwKey[0]		=	pPlayer->m_dwUserID;			//	User ID

  000a1	8b 93 ac 03 01
	00		 mov	 edx, DWORD PTR [ebx+66476]

; 428  : 	LogData.dwKey[1]		=	pPlayer->m_dwID;				//	Character Seq

  000a7	8b 8b 44 01 01
	00		 mov	 ecx, DWORD PTR [ebx+65860]
  000ad	89 44 24 4c	 mov	 DWORD PTR _LogData$[esp+1100], eax
  000b1	33 c0		 xor	 eax, eax
  000b3	89 54 24 50	 mov	 DWORD PTR _LogData$[esp+1104], edx

; 429  : 	lstrcpy(LogData.szKey[1],	pPlayer->m_strNAME );			//	Character Name

  000b7	8b 93 a4 03 01
	00		 mov	 edx, DWORD PTR [ebx+66468]
  000bd	89 44 24 54	 mov	 DWORD PTR _LogData$[esp+1108], eax
  000c1	89 44 24 5c	 mov	 DWORD PTR _LogData$[esp+1116], eax
  000c5	52		 push	 edx
  000c6	8d 84 24 de 00
	00 00		 lea	 eax, DWORD PTR _LogData$[esp+1246]
  000cd	50		 push	 eax
  000ce	89 4c 24 60	 mov	 DWORD PTR _LogData$[esp+1120], ecx
  000d2	ff d7		 call	 edi

; 430  : 
; 431  : 	LogData.dwKey[9]		=	pPlayer->m_bCountry + (pPlayer->m_bAidCountry == TCONTRY_N ? 0 : (pPlayer->m_bAidCountry+1)*10);			//	Country

  000d4	8a 83 9e 01 01
	00		 mov	 al, BYTE PTR [ebx+65950]
  000da	3c 03		 cmp	 al, 3
  000dc	75 04		 jne	 SHORT $L180157
  000de	33 c9		 xor	 ecx, ecx
  000e0	eb 09		 jmp	 SHORT $L180158
$L180157:
  000e2	0f b6 c0	 movzx	 eax, al
  000e5	40		 inc	 eax
  000e6	8d 0c 80	 lea	 ecx, DWORD PTR [eax+eax*4]
  000e9	d1 e1		 shl	 ecx, 1
$L180158:
  000eb	0f b6 83 9d 01
	01 00		 movzx	 eax, BYTE PTR [ebx+65949]
  000f2	03 c1		 add	 eax, ecx

; 432  : 	LogData.dwKey[10]		=	pPlayer->m_bLevel;				//	Level
; 433  : 
; 434  : 
; 435  : 	LogData.dwKey[2]		=	pMonTempID;						//	Monster
; 436  : 																		
; 437  : 	//
; 438  : 	//	ITEM INFO
; 439  : 	//
; 440  : 	if(pItem)
; 441  : 	{
; 442  : 		LogData.dwKey[3]		=	pItem->m_wItemID;			//	Item Template ID	

  000f4	66 8b 4e 30	 mov	 cx, WORD PTR [esi+48]
  000f8	99		 cdq
  000f9	89 84 24 98 00
	00 00		 mov	 DWORD PTR _LogData$[esp+1176], eax
  00100	0f b6 83 7b 01
	01 00		 movzx	 eax, BYTE PTR [ebx+65915]

; 443  : 		LogData.dwKey[7]		=	pItem->m_bCount;			//	Item Count

  00107	8a 5e 32	 mov	 bl, BYTE PTR [esi+50]
  0010a	89 94 24 9c 00
	00 00		 mov	 DWORD PTR _LogData$[esp+1180], edx
  00111	99		 cdq
  00112	89 84 24 a0 00
	00 00		 mov	 DWORD PTR _LogData$[esp+1184], eax
  00119	8b 45 10	 mov	 eax, DWORD PTR _pMonTempID$[ebp]
  0011c	89 94 24 a4 00
	00 00		 mov	 DWORD PTR _LogData$[esp+1188], edx
  00123	99		 cdq
  00124	89 44 24 60	 mov	 DWORD PTR _LogData$[esp+1120], eax

; 444  : 		LogData.dwKey[8]		=	pItem->m_dlID;				//	Unique Key
; 445  : 
; 446  : 		LogData.dwFormat		=	LF_ITEM;
; 447  : 
; 448  : 		_LPLOG_ITEM_ pLogItem = (_LPLOG_ITEM_)LogData.szLog;
; 449  : 		
; 450  : 		pLogItem->dlID			=	pItem->m_dlID;				//	Unique Number
; 451  : 		pLogItem->bInven		=	pItem->m_bInven;			//	 
; 452  : 		pLogItem->bItemID		=	pItem->m_bItemID;			//	 
; 453  : 
; 454  : 		pLogItem->wItemID		=	pItem->m_wItemID;			//	 INDEX
; 455  : 
; 456  : 		//
; 457  : 		//	Game Part   
; 458  : 		//	lstrcpy( pLogItem->szItemName, pItem->m_pTITEM-> )	//	 
; 459  : 
; 460  : 		pLogItem->bLevel		=	pItem->m_bLevel;			//	 
; 461  : 		pLogItem->bCount		=	pItem->m_bCount;
; 462  : 		pLogItem->bGLevel		=	pItem->m_bGLevel;			//	  
; 463  : 		pLogItem->dwDuraMax		=	pItem->m_dwDuraMax;			//	 
; 464  : 		pLogItem->dwDuraCur		=	pItem->m_dwDuraCur;			//	 	
; 465  : 		pLogItem->bRefineCur	=	pItem->m_bRefineCur;		//	 
; 466  : 
; 467  : 		pLogItem->bGradeEffect	=	pItem->m_bGradeEffect;		//	  	    
; 468  : 
; 469  : 		int	nOrder = 0;
; 470  : 		MAPTMAGIC::iterator itTMAGIC;
; 471  : 		for( itTMAGIC = pItem->m_mapTMAGIC.begin(); itTMAGIC != pItem->m_mapTMAGIC.end(); itTMAGIC++)

  00128	8b 7e 0c	 mov	 edi, DWORD PTR [esi+12]
  0012b	89 54 24 64	 mov	 DWORD PTR _LogData$[esp+1124], edx
  0012f	0f b7 c1	 movzx	 eax, cx
  00132	99		 cdq
  00133	89 44 24 68	 mov	 DWORD PTR _LogData$[esp+1128], eax
  00137	89 54 24 6c	 mov	 DWORD PTR _LogData$[esp+1132], edx
  0013b	0f b6 c3	 movzx	 eax, bl
  0013e	99		 cdq
  0013f	89 84 24 88 00
	00 00		 mov	 DWORD PTR _LogData$[esp+1160], eax
  00146	8b 46 20	 mov	 eax, DWORD PTR [esi+32]
  00149	89 94 24 8c 00
	00 00		 mov	 DWORD PTR _LogData$[esp+1164], edx
  00150	8b 56 24	 mov	 edx, DWORD PTR [esi+36]
  00153	89 84 24 90 00
	00 00		 mov	 DWORD PTR _LogData$[esp+1168], eax
  0015a	89 94 24 94 00
	00 00		 mov	 DWORD PTR _LogData$[esp+1172], edx
  00161	89 84 24 0c 02
	00 00		 mov	 DWORD PTR _LogData$[esp+1548], eax
  00168	8a 46 28	 mov	 al, BYTE PTR [esi+40]
  0016b	89 94 24 10 02
	00 00		 mov	 DWORD PTR _LogData$[esp+1552], edx
  00172	8a 56 2a	 mov	 dl, BYTE PTR [esi+42]
  00175	88 94 24 14 02
	00 00		 mov	 BYTE PTR _LogData$[esp+1556], dl
  0017c	8b 56 34	 mov	 edx, DWORD PTR [esi+52]
  0017f	88 84 24 15 02
	00 00		 mov	 BYTE PTR _LogData$[esp+1557], al
  00186	8a 46 33	 mov	 al, BYTE PTR [esi+51]
  00189	66 89 8c 24 16
	02 00 00	 mov	 WORD PTR _LogData$[esp+1558], cx
  00191	8a 4e 29	 mov	 cl, BYTE PTR [esi+41]
  00194	88 8c 24 4a 02
	00 00		 mov	 BYTE PTR _LogData$[esp+1610], cl
  0019b	8a 4e 3c	 mov	 cl, BYTE PTR [esi+60]
  0019e	88 84 24 4c 02
	00 00		 mov	 BYTE PTR _LogData$[esp+1612], al
  001a5	8b 46 38	 mov	 eax, DWORD PTR [esi+56]
  001a8	89 94 24 50 02
	00 00		 mov	 DWORD PTR _LogData$[esp+1616], edx
  001af	8a 56 68	 mov	 dl, BYTE PTR [esi+104]
  001b2	88 9c 24 4b 02
	00 00		 mov	 BYTE PTR _LogData$[esp+1611], bl
  001b9	c7 84 24 08 02
	00 00 02 00 00
	00		 mov	 DWORD PTR _LogData$[esp+1544], 2
  001c4	89 84 24 54 02
	00 00		 mov	 DWORD PTR _LogData$[esp+1620], eax
  001cb	88 8c 24 58 02
	00 00		 mov	 BYTE PTR _LogData$[esp+1624], cl
  001d2	88 94 24 59 02
	00 00		 mov	 BYTE PTR _LogData$[esp+1625], dl
  001d9	8b 07		 mov	 eax, DWORD PTR [edi]
  001db	33 db		 xor	 ebx, ebx
  001dd	3b c7		 cmp	 eax, edi
  001df	89 44 24 0c	 mov	 DWORD PTR _itTMAGIC$175472[esp+1048], eax
  001e3	74 39		 je	 SHORT $L175478

; 430  : 
; 431  : 	LogData.dwKey[9]		=	pPlayer->m_bCountry + (pPlayer->m_bAidCountry == TCONTRY_N ? 0 : (pPlayer->m_bAidCountry+1)*10);			//	Country

  001e5	8d 8c 24 60 02
	00 00		 lea	 ecx, DWORD PTR _LogData$[esp+1632]
  001ec	eb 04		 jmp	 SHORT $L180216
$L180280:
  001ee	8b 4c 24 10	 mov	 ecx, DWORD PTR tv602[esp+1048]

; 444  : 		LogData.dwKey[8]		=	pItem->m_dlID;				//	Unique Key
; 445  : 
; 446  : 		LogData.dwFormat		=	LF_ITEM;
; 447  : 
; 448  : 		_LPLOG_ITEM_ pLogItem = (_LPLOG_ITEM_)LogData.szLog;
; 449  : 		
; 450  : 		pLogItem->dlID			=	pItem->m_dlID;				//	Unique Number
; 451  : 		pLogItem->bInven		=	pItem->m_bInven;			//	 
; 452  : 		pLogItem->bItemID		=	pItem->m_bItemID;			//	 
; 453  : 
; 454  : 		pLogItem->wItemID		=	pItem->m_wItemID;			//	 INDEX
; 455  : 
; 456  : 		//
; 457  : 		//	Game Part   
; 458  : 		//	lstrcpy( pLogItem->szItemName, pItem->m_pTITEM-> )	//	 
; 459  : 
; 460  : 		pLogItem->bLevel		=	pItem->m_bLevel;			//	 
; 461  : 		pLogItem->bCount		=	pItem->m_bCount;
; 462  : 		pLogItem->bGLevel		=	pItem->m_bGLevel;			//	  
; 463  : 		pLogItem->dwDuraMax		=	pItem->m_dwDuraMax;			//	 
; 464  : 		pLogItem->dwDuraCur		=	pItem->m_dwDuraCur;			//	 	
; 465  : 		pLogItem->bRefineCur	=	pItem->m_bRefineCur;		//	 
; 466  : 
; 467  : 		pLogItem->bGradeEffect	=	pItem->m_bGradeEffect;		//	  	    
; 468  : 
; 469  : 		int	nOrder = 0;
; 470  : 		MAPTMAGIC::iterator itTMAGIC;
; 471  : 		for( itTMAGIC = pItem->m_mapTMAGIC.begin(); itTMAGIC != pItem->m_mapTMAGIC.end(); itTMAGIC++)

$L180216:

; 472  : 		{
; 473  : 			pLogItem->bMagic[nOrder] =	(*itTMAGIC).first; 

  001f2	8a 50 0c	 mov	 dl, BYTE PTR [eax+12]
  001f5	88 94 1c 5a 02
	00 00		 mov	 BYTE PTR _LogData$[esp+ebx+1626], dl

; 474  : 			pLogItem->wValue[nOrder] =	(*itTMAGIC).second->m_wValue;

  001fc	8b 40 10	 mov	 eax, DWORD PTR [eax+16]
  001ff	66 8b 10	 mov	 dx, WORD PTR [eax]
  00202	66 89 11	 mov	 WORD PTR [ecx], dx

; 475  : 
; 476  : 			nOrder ++;

  00205	83 c1 02	 add	 ecx, 2
  00208	89 4c 24 10	 mov	 DWORD PTR tv602[esp+1048], ecx
  0020c	8d 4c 24 0c	 lea	 ecx, DWORD PTR _itTMAGIC$175472[esp+1048]
  00210	43		 inc	 ebx
  00211	e8 00 00 00 00	 call	 ?_Inc@const_iterator@?$_Tree@V?$_Tmap_traits@EPAUtagTMAGIC@@U?$less@E@std@@V?$allocator@U?$pair@$$CBEPAUtagTMAGIC@@@std@@@3@$0A@@std@@@std@@QAEXXZ ; std::_Tree<std::_Tmap_traits<unsigned char,tagTMAGIC *,std::less<unsigned char>,std::allocator<std::pair<unsigned char const ,tagTMAGIC *> >,0> >::const_iterator::_Inc
  00216	8b 44 24 0c	 mov	 eax, DWORD PTR _itTMAGIC$175472[esp+1048]
  0021a	3b c7		 cmp	 eax, edi
  0021c	75 d0		 jne	 SHORT $L180280
$L175478:

; 477  : 		}
; 478  : 
; 479  : 		//	Item Type
; 480  : 		if( pItem->m_bGLevel )

  0021e	8a 46 33	 mov	 al, BYTE PTR [esi+51]
  00221	84 c0		 test	 al, al
  00223	74 0a		 je	 SHORT $L175479

; 481  : 		{
; 482  : 			LogData.dwKey[4] = 3;							//	Seal Item

  00225	c7 44 24 70 03
	00 00 00	 mov	 DWORD PTR _LogData$[esp+1136], 3

; 483  : 		}
; 484  : 		else

  0022d	eb 2a		 jmp	 SHORT $L180282
$L175479:

; 485  : 		{
; 486  : 			switch(nOrder)

  0022f	83 fb 03	 cmp	 ebx, 3
  00232	77 2d		 ja	 SHORT $L175482
  00234	ff 24 9d 00 00
	00 00		 jmp	 DWORD PTR $L180283[ebx*4]
$L175485:

; 487  : 			{
; 488  : 			case 0 :	LogData.dwKey[4] = 0;	break;		//	Normal Item

  0023b	33 c0		 xor	 eax, eax
  0023d	89 44 24 70	 mov	 DWORD PTR _LogData$[esp+1136], eax
  00241	89 44 24 74	 mov	 DWORD PTR _LogData$[esp+1140], eax
  00245	eb 1a		 jmp	 SHORT $L175482
$L175486:

; 489  : 
; 490  : 			case 1 : 
; 491  : 			case 2 :	LogData.dwKey[4] = 1;	break;		//	Magic Item

  00247	c7 44 24 70 01
	00 00 00	 mov	 DWORD PTR _LogData$[esp+1136], 1
  0024f	eb 08		 jmp	 SHORT $L180282
$L175487:

; 492  : 
; 493  : 			case 3 :	LogData.dwKey[4] = 2;	break;		//	Rare Item

  00251	c7 44 24 70 02
	00 00 00	 mov	 DWORD PTR _LogData$[esp+1136], 2
$L180282:
  00259	c7 44 24 74 00
	00 00 00	 mov	 DWORD PTR _LogData$[esp+1140], 0
$L175482:

; 494  : 
; 495  : 			case 4 :	break;
; 496  : 
; 497  : 			case 5 :	break;
; 498  : 			}
; 499  : 		}
; 500  : 
; 501  : 		pLogItem->dEndTime	=	pItem->m_dEndTime;

  00261	8b 4e 44	 mov	 ecx, DWORD PTR [esi+68]
  00264	8b 46 40	 mov	 eax, DWORD PTR [esi+64]
  00267	89 8c 24 88 02
	00 00		 mov	 DWORD PTR _LogData$[esp+1672], ecx

; 502  : 	}
; 503  : 
; 504  : 	SendDMLog( LogData );

  0026e	81 ec f8 03 00
	00		 sub	 esp, 1016		; 000003f8H
  00274	8b fc		 mov	 edi, esp
  00276	89 84 24 7c 06
	00 00		 mov	 DWORD PTR _LogData$[esp+2684], eax
  0027d	b9 fe 00 00 00	 mov	 ecx, 254		; 000000feH
  00282	8d b4 24 10 04
	00 00		 lea	 esi, DWORD PTR _LogData$[esp+2064]
  00289	f3 a5		 rep movsd
  0028b	8b 8c 24 0c 04
	00 00		 mov	 ecx, DWORD PTR _this$[esp+2064]
  00292	e8 00 00 00 00	 call	 ?SendDMLog@CUdpSocket@@QAEXU_LOG_DATA_@@@Z ; CUdpSocket::SendDMLog
$L175462:

; 505  : }

  00297	8b 8c 24 14 04
	00 00		 mov	 ecx, DWORD PTR __$ArrayPad$[esp+1048]
  0029e	e8 00 00 00 00	 call	 @__security_check_cookie@4
  002a3	5f		 pop	 edi
  002a4	5e		 pop	 esi
  002a5	5b		 pop	 ebx
  002a6	8b e5		 mov	 esp, ebp
  002a8	5d		 pop	 ebp
  002a9	c2 10 00	 ret	 16			; 00000010H
$L180283:
  002ac	00 00 00 00	 DD	 $L175485
  002b0	00 00 00 00	 DD	 $L175486
  002b4	00 00 00 00	 DD	 $L175486
  002b8	00 00 00 00	 DD	 $L175487
?LogItemByMonster@CUdpSocket@@QAEXKPAVCTPlayer@@HPAVCTItem@@@Z ENDP ; CUdpSocket::LogItemByMonster
_TEXT	ENDS
PUBLIC	??_C@_08HAIKCOPJ@?$CFd?5?9?$DO?5?$CFd?$AA@	; `string'
PUBLIC	?LogItemUpgrade@CUdpSocket@@QAEXKPAVCTPlayer@@PAVCTItem@@H@Z ; CUdpSocket::LogItemUpgrade
;	COMDAT ??_C@_08HAIKCOPJ@?$CFd?5?9?$DO?5?$CFd?$AA@
; File c:\program files (x86)\microsoft visual studio .net 2003\vc7\include\xtree
CONST	SEGMENT
??_C@_08HAIKCOPJ@?$CFd?5?9?$DO?5?$CFd?$AA@ DB '%d -> %d', 00H ; `string'
; Function compile flags: /Ogty
; File c:\users\pierr\desktop\4story - oldschool\sources\tserver\tmapsvr\udpsocket.cpp
CONST	ENDS
;	COMDAT ?LogItemUpgrade@CUdpSocket@@QAEXKPAVCTPlayer@@PAVCTItem@@H@Z
_TEXT	SEGMENT
_itTMAGIC$175510 = -1036				; size = 4
tv608 = -1032						; size = 4
_this$ = -1028						; size = 4
_LogData$ = -1024					; size = 1016
__$ArrayPad$ = -4					; size = 4
__$ReturnAddr$ = 4					; size = 4
_pAction$ = 8						; size = 4
_pPlayer$ = 12						; size = 4
_pItem$ = 16						; size = 4
_pUpLevel$ = 20						; size = 4
?LogItemUpgrade@CUdpSocket@@QAEXKPAVCTPlayer@@PAVCTItem@@H@Z PROC NEAR ; CUdpSocket::LogItemUpgrade, COMDAT
; _this$ = ecx

; 511  : {

  00000	55		 push	 ebp
  00001	8b ec		 mov	 ebp, esp
  00003	83 e4 f8	 and	 esp, -8			; fffffff8H
  00006	81 ec 0c 04 00
	00		 sub	 esp, 1036		; 0000040cH
  0000c	a1 00 00 00 00	 mov	 eax, DWORD PTR ___security_cookie
  00011	53		 push	 ebx

; 512  : 	if(!pPlayer || !pItem ) return;

  00012	8b 5d 0c	 mov	 ebx, DWORD PTR _pPlayer$[ebp]
  00015	85 db		 test	 ebx, ebx
  00017	56		 push	 esi
  00018	89 84 24 10 04
	00 00		 mov	 DWORD PTR __$ArrayPad$[esp+1044], eax
  0001f	57		 push	 edi
  00020	89 4c 24 14	 mov	 DWORD PTR _this$[esp+1048], ecx
  00024	0f 84 ab 02 00
	00		 je	 $L175498
  0002a	8b 75 10	 mov	 esi, DWORD PTR _pItem$[ebp]
  0002d	85 f6		 test	 esi, esi
  0002f	0f 84 a0 02 00
	00		 je	 $L175498

; 513  : 
; 514  : 	_LOG_DATA_ LogData;
; 515  : 	memset( &LogData, 0x00, sizeof(_LOG_DATA_));
; 516  : 
; 517  : 	LogData.dwAction	=	pAction;
; 518  : 	LogData.dwServerID	=	_AtlModule.GetServerID();
; 519  : 
; 520  : 	lstrcpy( LogData.szClientIP, inet_ntoa(pPlayer->m_addr.sin_addr) );

  00035	8b 53 40	 mov	 edx, DWORD PTR [ebx+64]
  00038	33 c0		 xor	 eax, eax
  0003a	b9 fe 00 00 00	 mov	 ecx, 254		; 000000feH
  0003f	8d 7c 24 18	 lea	 edi, DWORD PTR _LogData$[esp+1048]
  00043	f3 ab		 rep stosd
  00045	0f b6 0d 82 9e
	00 00		 movzx	 ecx, BYTE PTR ?_AtlModule@@3VCTMapSvrModule@@A+40578
  0004c	8b 45 08	 mov	 eax, DWORD PTR _pAction$[ebp]
  0004f	52		 push	 edx
  00050	89 44 24 40	 mov	 DWORD PTR _LogData$[esp+1088], eax
  00054	89 4c 24 2c	 mov	 DWORD PTR _LogData$[esp+1068], ecx
  00058	ff 15 00 00 00
	00		 call	 DWORD PTR __imp__inet_ntoa@4
  0005e	8b 3d 00 00 00
	00		 mov	 edi, DWORD PTR __imp__lstrcpyA@8
  00064	50		 push	 eax
  00065	8d 44 24 30	 lea	 eax, DWORD PTR _LogData$[esp+1072]
  00069	50		 push	 eax
  0006a	ff d7		 call	 edi

; 521  : 
; 522  : 	LogData.wMapID			=	pPlayer->m_wMapID;				//	Map ID

  0006c	66 8b 8b 90 01
	01 00		 mov	 cx, WORD PTR [ebx+65936]

; 523  : 	LogData.nX				=	(int)pPlayer->m_fPosX;			//	X

  00073	d9 83 7c 01 01
	00		 fld	 DWORD PTR [ebx+65916]
  00079	66 89 4c 24 40	 mov	 WORD PTR _LogData$[esp+1088], cx
  0007e	e8 00 00 00 00	 call	 __ftol2

; 524  : 	LogData.nY				=	(int)pPlayer->m_fPosY;			//	Y

  00083	d9 83 80 01 01
	00		 fld	 DWORD PTR [ebx+65920]
  00089	89 44 24 44	 mov	 DWORD PTR _LogData$[esp+1092], eax
  0008d	e8 00 00 00 00	 call	 __ftol2

; 525  : 	LogData.nZ				=	(int)pPlayer->m_fPosZ;			//	Z

  00092	d9 83 84 01 01
	00		 fld	 DWORD PTR [ebx+65924]
  00098	89 44 24 48	 mov	 DWORD PTR _LogData$[esp+1096], eax
  0009c	e8 00 00 00 00	 call	 __ftol2

; 526  : 
; 527  : 	LogData.dwKey[0]		=	pPlayer->m_dwUserID;			//	User ID

  000a1	8b 93 ac 03 01
	00		 mov	 edx, DWORD PTR [ebx+66476]

; 528  : 	LogData.dwKey[1]		=	pPlayer->m_dwID;				//	Character Seq

  000a7	8b 8b 44 01 01
	00		 mov	 ecx, DWORD PTR [ebx+65860]
  000ad	89 44 24 4c	 mov	 DWORD PTR _LogData$[esp+1100], eax
  000b1	33 c0		 xor	 eax, eax
  000b3	89 54 24 50	 mov	 DWORD PTR _LogData$[esp+1104], edx

; 529  : 	lstrcpy(LogData.szKey[1],	pPlayer->m_strNAME	);			//	Character Name

  000b7	8b 93 a4 03 01
	00		 mov	 edx, DWORD PTR [ebx+66468]
  000bd	89 44 24 54	 mov	 DWORD PTR _LogData$[esp+1108], eax
  000c1	89 44 24 5c	 mov	 DWORD PTR _LogData$[esp+1116], eax
  000c5	52		 push	 edx
  000c6	8d 84 24 de 00
	00 00		 lea	 eax, DWORD PTR _LogData$[esp+1246]
  000cd	50		 push	 eax
  000ce	89 4c 24 60	 mov	 DWORD PTR _LogData$[esp+1120], ecx
  000d2	ff d7		 call	 edi

; 530  : 
; 531  : 	LogData.dwKey[9]		=	pPlayer->m_bCountry + (pPlayer->m_bAidCountry == TCONTRY_N ? 0 : (pPlayer->m_bAidCountry+1)*10);			//	Country

  000d4	8a 83 9e 01 01
	00		 mov	 al, BYTE PTR [ebx+65950]
  000da	3c 03		 cmp	 al, 3
  000dc	75 04		 jne	 SHORT $L180287
  000de	33 c9		 xor	 ecx, ecx
  000e0	eb 09		 jmp	 SHORT $L180288
$L180287:
  000e2	0f b6 c0	 movzx	 eax, al
  000e5	40		 inc	 eax
  000e6	8d 0c 80	 lea	 ecx, DWORD PTR [eax+eax*4]
  000e9	d1 e1		 shl	 ecx, 1
$L180288:
  000eb	0f b6 83 9d 01
	01 00		 movzx	 eax, BYTE PTR [ebx+65949]
  000f2	03 c1		 add	 eax, ecx

; 532  : 	LogData.dwKey[10]		=	pPlayer->m_bLevel;				//	Level
; 533  : 
; 534  : 	//
; 535  : 	//	ITEM INFO
; 536  : 	//
; 537  : 	if(pItem)
; 538  : 	{
; 539  : 		LogData.dwKey[3]		=	pItem->m_wItemID;			//	Item Template
; 540  : 		LogData.dwKey[7]		=	pItem->m_bCount;			//	Item Count
; 541  : 		LogData.dwKey[8]		=	pItem->m_dlID;				//	Unique Key

  000f4	8b 4e 20	 mov	 ecx, DWORD PTR [esi+32]
  000f7	99		 cdq
  000f8	89 84 24 98 00
	00 00		 mov	 DWORD PTR _LogData$[esp+1176], eax
  000ff	0f b6 83 7b 01
	01 00		 movzx	 eax, BYTE PTR [ebx+65915]
  00106	89 94 24 9c 00
	00 00		 mov	 DWORD PTR _LogData$[esp+1180], edx
  0010d	99		 cdq
  0010e	89 84 24 a0 00
	00 00		 mov	 DWORD PTR _LogData$[esp+1184], eax
  00115	0f b7 46 30	 movzx	 eax, WORD PTR [esi+48]
  00119	89 94 24 a4 00
	00 00		 mov	 DWORD PTR _LogData$[esp+1188], edx
  00120	99		 cdq
  00121	89 44 24 68	 mov	 DWORD PTR _LogData$[esp+1128], eax
  00125	0f b6 46 32	 movzx	 eax, BYTE PTR [esi+50]
  00129	89 54 24 6c	 mov	 DWORD PTR _LogData$[esp+1132], edx
  0012d	99		 cdq
  0012e	89 8c 24 90 00
	00 00		 mov	 DWORD PTR _LogData$[esp+1168], ecx

; 542  : 
; 543  : 		//	Upgrade Level
; 544  : 		if(pUpLevel)

  00135	8b 4d 14	 mov	 ecx, DWORD PTR _pUpLevel$[ebp]
  00138	85 c9		 test	 ecx, ecx
  0013a	89 94 24 8c 00
	00 00		 mov	 DWORD PTR _LogData$[esp+1164], edx
  00141	8b 56 24	 mov	 edx, DWORD PTR [esi+36]
  00144	89 84 24 88 00
	00 00		 mov	 DWORD PTR _LogData$[esp+1160], eax
  0014b	89 94 24 94 00
	00 00		 mov	 DWORD PTR _LogData$[esp+1172], edx
  00152	74 2f		 je	 SHORT $L175505

; 545  : 		{
; 546  : 			LogData.dwKey[6]	=	pUpLevel;

  00154	8b c1		 mov	 eax, ecx
  00156	99		 cdq
  00157	89 84 24 80 00
	00 00		 mov	 DWORD PTR _LogData$[esp+1152], eax

; 547  : 			wsprintf( LogData.szKey[6], "%d -> %d", pItem->m_bLevel - pUpLevel, pItem->m_bLevel );

  0015e	0f b6 46 29	 movzx	 eax, BYTE PTR [esi+41]
  00162	50		 push	 eax
  00163	2b c1		 sub	 eax, ecx
  00165	50		 push	 eax
  00166	8d 84 24 dc 01
	00 00		 lea	 eax, DWORD PTR _LogData$[esp+1500]
  0016d	68 00 00 00 00	 push	 OFFSET FLAT:??_C@_08HAIKCOPJ@?$CFd?5?9?$DO?5?$CFd?$AA@
  00172	50		 push	 eax
  00173	89 94 24 94 00
	00 00		 mov	 DWORD PTR _LogData$[esp+1172], edx
  0017a	ff 15 00 00 00
	00		 call	 DWORD PTR __imp__wsprintfA
  00180	83 c4 10	 add	 esp, 16			; 00000010H
$L175505:

; 551  : 
; 552  : 		_LPLOG_ITEM_ pLogItem = (_LPLOG_ITEM_)LogData.szLog;
; 553  : 
; 554  : 		pLogItem->dlID			=	pItem->m_dlID;				//	Unique Number

  00183	8b 56 24	 mov	 edx, DWORD PTR [esi+36]

; 555  : 		pLogItem->bInven		=	pItem->m_bInven;			//	 

  00186	8a 46 2a	 mov	 al, BYTE PTR [esi+42]
  00189	8b 4e 20	 mov	 ecx, DWORD PTR [esi+32]

; 556  : 		pLogItem->bItemID		=	pItem->m_bItemID;			//	 
; 557  : 		pLogItem->wItemID		=	pItem->m_wItemID;			//	Item Index
; 558  : 
; 559  : 		//
; 560  : 		//	Game Part   
; 561  : 		//	lstrcpy( pLogItem->szItemName, pItem->m_pTITEM-> )	//	 
; 562  : 
; 563  : 		pLogItem->bLevel		=	pItem->m_bLevel;			//	 
; 564  : 		pLogItem->bCount		=	pItem->m_bCount;				
; 565  : 
; 566  : 		pLogItem->bGLevel		=	pItem->m_bGLevel;			//	  
; 567  : 		pLogItem->dwDuraMax		=	pItem->m_dwDuraMax;			//	 
; 568  : 		pLogItem->dwDuraCur		=	pItem->m_dwDuraCur;			//	 	
; 569  : 		pLogItem->bRefineCur	=	pItem->m_bRefineCur;		//	 
; 570  : 
; 571  : 		pLogItem->bGradeEffect	=	pItem->m_bGradeEffect;		//	  
; 572  : 
; 573  : 		int	nOrder = 0;
; 574  : 
; 575  : 		MAPTMAGIC::iterator itTMAGIC;
; 576  : 		for( itTMAGIC = pItem->m_mapTMAGIC.begin(); itTMAGIC != pItem->m_mapTMAGIC.end(); itTMAGIC++)

  0018c	8b 7e 0c	 mov	 edi, DWORD PTR [esi+12]
  0018f	89 8c 24 0c 02
	00 00		 mov	 DWORD PTR _LogData$[esp+1548], ecx
  00196	8a 4e 28	 mov	 cl, BYTE PTR [esi+40]
  00199	89 94 24 10 02
	00 00		 mov	 DWORD PTR _LogData$[esp+1552], edx
  001a0	66 8b 56 30	 mov	 dx, WORD PTR [esi+48]
  001a4	88 84 24 14 02
	00 00		 mov	 BYTE PTR _LogData$[esp+1556], al
  001ab	8a 46 29	 mov	 al, BYTE PTR [esi+41]
  001ae	88 8c 24 15 02
	00 00		 mov	 BYTE PTR _LogData$[esp+1557], cl
  001b5	8a 4e 32	 mov	 cl, BYTE PTR [esi+50]
  001b8	66 89 94 24 16
	02 00 00	 mov	 WORD PTR _LogData$[esp+1558], dx
  001c0	8b 56 34	 mov	 edx, DWORD PTR [esi+52]
  001c3	88 84 24 4a 02
	00 00		 mov	 BYTE PTR _LogData$[esp+1610], al
  001ca	8a 46 33	 mov	 al, BYTE PTR [esi+51]
  001cd	88 8c 24 4b 02
	00 00		 mov	 BYTE PTR _LogData$[esp+1611], cl
  001d4	8a 4e 3c	 mov	 cl, BYTE PTR [esi+60]
  001d7	88 84 24 4c 02
	00 00		 mov	 BYTE PTR _LogData$[esp+1612], al
  001de	8b 46 38	 mov	 eax, DWORD PTR [esi+56]
  001e1	89 94 24 50 02
	00 00		 mov	 DWORD PTR _LogData$[esp+1616], edx
  001e8	8a 56 68	 mov	 dl, BYTE PTR [esi+104]
  001eb	c7 84 24 08 02
	00 00 02 00 00
	00		 mov	 DWORD PTR _LogData$[esp+1544], 2
  001f6	89 84 24 54 02
	00 00		 mov	 DWORD PTR _LogData$[esp+1620], eax
  001fd	88 8c 24 58 02
	00 00		 mov	 BYTE PTR _LogData$[esp+1624], cl
  00204	88 94 24 59 02
	00 00		 mov	 BYTE PTR _LogData$[esp+1625], dl
  0020b	8b 07		 mov	 eax, DWORD PTR [edi]
  0020d	33 db		 xor	 ebx, ebx
  0020f	3b c7		 cmp	 eax, edi
  00211	89 44 24 0c	 mov	 DWORD PTR _itTMAGIC$175510[esp+1048], eax
  00215	74 45		 je	 SHORT $L175516

; 548  : 		}
; 549  : 
; 550  : 		LogData.dwFormat = LF_ITEM;

  00217	8d 8c 24 60 02
	00 00		 lea	 ecx, DWORD PTR _LogData$[esp+1632]
  0021e	eb 10		 jmp	 SHORT $L180351
$L180410:
  00220	8b 4c 24 10	 mov	 ecx, DWORD PTR tv608[esp+1048]
  00224	eb 0a 8d a4 24
	00 00 00 00 8d
	49 00		 npad	 12

; 556  : 		pLogItem->bItemID		=	pItem->m_bItemID;			//	 
; 557  : 		pLogItem->wItemID		=	pItem->m_wItemID;			//	Item Index
; 558  : 
; 559  : 		//
; 560  : 		//	Game Part   
; 561  : 		//	lstrcpy( pLogItem->szItemName, pItem->m_pTITEM-> )	//	 
; 562  : 
; 563  : 		pLogItem->bLevel		=	pItem->m_bLevel;			//	 
; 564  : 		pLogItem->bCount		=	pItem->m_bCount;				
; 565  : 
; 566  : 		pLogItem->bGLevel		=	pItem->m_bGLevel;			//	  
; 567  : 		pLogItem->dwDuraMax		=	pItem->m_dwDuraMax;			//	 
; 568  : 		pLogItem->dwDuraCur		=	pItem->m_dwDuraCur;			//	 	
; 569  : 		pLogItem->bRefineCur	=	pItem->m_bRefineCur;		//	 
; 570  : 
; 571  : 		pLogItem->bGradeEffect	=	pItem->m_bGradeEffect;		//	  
; 572  : 
; 573  : 		int	nOrder = 0;
; 574  : 
; 575  : 		MAPTMAGIC::iterator itTMAGIC;
; 576  : 		for( itTMAGIC = pItem->m_mapTMAGIC.begin(); itTMAGIC != pItem->m_mapTMAGIC.end(); itTMAGIC++)

$L180351:

; 577  : 		{
; 578  : 			pLogItem->bMagic[nOrder] =	(*itTMAGIC).first; 

  00230	8a 50 0c	 mov	 dl, BYTE PTR [eax+12]
  00233	88 94 1c 5a 02
	00 00		 mov	 BYTE PTR _LogData$[esp+ebx+1626], dl

; 579  : 			pLogItem->wValue[nOrder] =	(*itTMAGIC).second->m_wValue;

  0023a	8b 40 10	 mov	 eax, DWORD PTR [eax+16]
  0023d	66 8b 10	 mov	 dx, WORD PTR [eax]
  00240	66 89 11	 mov	 WORD PTR [ecx], dx

; 580  : 
; 581  : 			nOrder ++;

  00243	83 c1 02	 add	 ecx, 2
  00246	89 4c 24 10	 mov	 DWORD PTR tv608[esp+1048], ecx
  0024a	8d 4c 24 0c	 lea	 ecx, DWORD PTR _itTMAGIC$175510[esp+1048]
  0024e	43		 inc	 ebx
  0024f	e8 00 00 00 00	 call	 ?_Inc@const_iterator@?$_Tree@V?$_Tmap_traits@EPAUtagTMAGIC@@U?$less@E@std@@V?$allocator@U?$pair@$$CBEPAUtagTMAGIC@@@std@@@3@$0A@@std@@@std@@QAEXXZ ; std::_Tree<std::_Tmap_traits<unsigned char,tagTMAGIC *,std::less<unsigned char>,std::allocator<std::pair<unsigned char const ,tagTMAGIC *> >,0> >::const_iterator::_Inc
  00254	8b 44 24 0c	 mov	 eax, DWORD PTR _itTMAGIC$175510[esp+1048]
  00258	3b c7		 cmp	 eax, edi
  0025a	75 c4		 jne	 SHORT $L180410
$L175516:

; 582  : 		}
; 583  : 
; 584  : 		//	Item Type
; 585  : 		if( pItem->m_bGLevel )

  0025c	8a 46 33	 mov	 al, BYTE PTR [esi+51]
  0025f	84 c0		 test	 al, al
  00261	74 0a		 je	 SHORT $L175517

; 586  : 		{
; 587  : 			LogData.dwKey[4] = 3;						//	Seal Item

  00263	c7 44 24 70 03
	00 00 00	 mov	 DWORD PTR _LogData$[esp+1136], 3

; 588  : 		}
; 589  : 		else

  0026b	eb 2a		 jmp	 SHORT $L180412
$L175517:

; 590  : 		{
; 591  : 			switch(nOrder)

  0026d	83 fb 03	 cmp	 ebx, 3
  00270	77 2d		 ja	 SHORT $L175520
  00272	ff 24 9d 00 00
	00 00		 jmp	 DWORD PTR $L180413[ebx*4]
$L175523:

; 592  : 			{
; 593  : 			case 0 :	LogData.dwKey[4] = 0;	break;	//	Normal Item

  00279	33 c0		 xor	 eax, eax
  0027b	89 44 24 70	 mov	 DWORD PTR _LogData$[esp+1136], eax
  0027f	89 44 24 74	 mov	 DWORD PTR _LogData$[esp+1140], eax
  00283	eb 1a		 jmp	 SHORT $L175520
$L175524:

; 594  : 
; 595  : 			case 1 : 
; 596  : 			case 2 :	LogData.dwKey[4] = 1;	break;	//	Magic Item

  00285	c7 44 24 70 01
	00 00 00	 mov	 DWORD PTR _LogData$[esp+1136], 1
  0028d	eb 08		 jmp	 SHORT $L180412
$L175525:

; 597  : 
; 598  : 			case 3 :	LogData.dwKey[4] = 2;	break;	//	Rare Item

  0028f	c7 44 24 70 02
	00 00 00	 mov	 DWORD PTR _LogData$[esp+1136], 2
$L180412:
  00297	c7 44 24 74 00
	00 00 00	 mov	 DWORD PTR _LogData$[esp+1140], 0
$L175520:

; 599  : 
; 600  : 			case 4 :	break;
; 601  : 
; 602  : 			case 5 :	break;
; 603  : 			}
; 604  : 		}
; 605  : 
; 606  : 		pLogItem->dEndTime	=	pItem->m_dEndTime;

  0029f	8b 4e 44	 mov	 ecx, DWORD PTR [esi+68]
  002a2	8b 46 40	 mov	 eax, DWORD PTR [esi+64]
  002a5	89 8c 24 88 02
	00 00		 mov	 DWORD PTR _LogData$[esp+1672], ecx

; 607  : 	}
; 608  : 
; 609  : 	SendDMLog( LogData );

  002ac	81 ec f8 03 00
	00		 sub	 esp, 1016		; 000003f8H
  002b2	8b fc		 mov	 edi, esp
  002b4	89 84 24 7c 06
	00 00		 mov	 DWORD PTR _LogData$[esp+2684], eax
  002bb	b9 fe 00 00 00	 mov	 ecx, 254		; 000000feH
  002c0	8d b4 24 10 04
	00 00		 lea	 esi, DWORD PTR _LogData$[esp+2064]
  002c7	f3 a5		 rep movsd
  002c9	8b 8c 24 0c 04
	00 00		 mov	 ecx, DWORD PTR _this$[esp+2064]
  002d0	e8 00 00 00 00	 call	 ?SendDMLog@CUdpSocket@@QAEXU_LOG_DATA_@@@Z ; CUdpSocket::SendDMLog
$L175498:

; 610  : }

  002d5	8b 8c 24 14 04
	00 00		 mov	 ecx, DWORD PTR __$ArrayPad$[esp+1048]
  002dc	e8 00 00 00 00	 call	 @__security_check_cookie@4
  002e1	5f		 pop	 edi
  002e2	5e		 pop	 esi
  002e3	5b		 pop	 ebx
  002e4	8b e5		 mov	 esp, ebp
  002e6	5d		 pop	 ebp
  002e7	c2 10 00	 ret	 16			; 00000010H
  002ea	8b ff		 npad	 2
$L180413:
  002ec	00 00 00 00	 DD	 $L175523
  002f0	00 00 00 00	 DD	 $L175524
  002f4	00 00 00 00	 DD	 $L175524
  002f8	00 00 00 00	 DD	 $L175525
?LogItemUpgrade@CUdpSocket@@QAEXKPAVCTPlayer@@PAVCTItem@@H@Z ENDP ; CUdpSocket::LogItemUpgrade
_TEXT	ENDS
PUBLIC	?LogItemTrade@CUdpSocket@@QAEXKPAVCTPlayer@@PAVCTItem@@V?$CStringT@DV?$StrTraitATL@DV?$ChTraitsCRT@D@ATL@@@ATL@@@ATL@@@Z ; CUdpSocket::LogItemTrade
;	COMDAT xdata$x
; File c:\program files (x86)\microsoft visual studio .net 2003\vc7\atlmfc\include\atlsimpstr.h
xdata$x	SEGMENT
$T180622 DD	0ffffffffH
	DD	FLAT:$L180422
$T180614 DD	019930520H
	DD	01H
	DD	FLAT:$T180622
	DD	2 DUP(00H)
	DD	2 DUP(00H)
; Function compile flags: /Ogty
; File c:\users\pierr\desktop\4story - oldschool\sources\tserver\tmapsvr\udpsocket.cpp
xdata$x	ENDS
;	COMDAT ?LogItemTrade@CUdpSocket@@QAEXKPAVCTPlayer@@PAVCTItem@@V?$CStringT@DV?$StrTraitATL@DV?$ChTraitsCRT@D@ATL@@@ATL@@@ATL@@@Z
_TEXT	SEGMENT
_itTMAGIC$175547 = -1040				; size = 4
_this$ = -1036						; size = 4
_LogData$ = -1032					; size = 1016
__$ArrayPad$ = -16					; size = 4
__$EHRec$ = -12						; size = 12
__$ReturnAddr$ = 4					; size = 4
_pAction$ = 8						; size = 4
_pPlayer$ = 12						; size = 4
_pItem$ = 16						; size = 4
_pTargetName$ = 20					; size = 4
?LogItemTrade@CUdpSocket@@QAEXKPAVCTPlayer@@PAVCTItem@@V?$CStringT@DV?$StrTraitATL@DV?$ChTraitsCRT@D@ATL@@@ATL@@@ATL@@@Z PROC NEAR ; CUdpSocket::LogItemTrade, COMDAT
; _this$ = ecx

; 616  : {

  00000	6a ff		 push	 -1
  00002	68 00 00 00 00	 push	 __ehhandler$?LogItemTrade@CUdpSocket@@QAEXKPAVCTPlayer@@PAVCTItem@@V?$CStringT@DV?$StrTraitATL@DV?$ChTraitsCRT@D@ATL@@@ATL@@@ATL@@@Z
  00007	64 a1 00 00 00
	00		 mov	 eax, DWORD PTR fs:__except_list
  0000d	50		 push	 eax
  0000e	64 89 25 00 00
	00 00		 mov	 DWORD PTR fs:__except_list, esp
  00015	81 ec 04 04 00
	00		 sub	 esp, 1028		; 00000404H
  0001b	a1 00 00 00 00	 mov	 eax, DWORD PTR ___security_cookie
  00020	53		 push	 ebx
  00021	55		 push	 ebp
  00022	56		 push	 esi
  00023	89 84 24 0c 04
	00 00		 mov	 DWORD PTR __$ArrayPad$[esp+1052], eax
  0002a	57		 push	 edi
  0002b	89 4c 24 14	 mov	 DWORD PTR _this$[esp+1056], ecx

; 617  : 	if(!pPlayer || !pItem ) return;

  0002f	8b ac 24 28 04
	00 00		 mov	 ebp, DWORD PTR _pPlayer$[esp+1052]
  00036	33 db		 xor	 ebx, ebx
  00038	3b eb		 cmp	 ebp, ebx
  0003a	89 9c 24 1c 04
	00 00		 mov	 DWORD PTR __$EHRec$[esp+1064], ebx
  00041	0f 84 75 02 00
	00		 je	 $L175536
  00047	8b b4 24 2c 04
	00 00		 mov	 esi, DWORD PTR _pItem$[esp+1052]
  0004e	3b f3		 cmp	 esi, ebx
  00050	0f 84 66 02 00
	00		 je	 $L175536

; 618  : 
; 619  : 	_LOG_DATA_ LogData;
; 620  : 	memset( &LogData, 0x00, sizeof(_LOG_DATA_));
; 621  : 
; 622  : 	LogData.dwAction	=	pAction;
; 623  : 	LogData.dwServerID	=	_AtlModule.GetServerID();
; 624  : 
; 625  : 	lstrcpy( LogData.szClientIP, inet_ntoa(pPlayer->m_addr.sin_addr) );	

  00056	8b 55 40	 mov	 edx, DWORD PTR [ebp+64]
  00059	33 c0		 xor	 eax, eax
  0005b	b9 fe 00 00 00	 mov	 ecx, 254		; 000000feH
  00060	8d 7c 24 18	 lea	 edi, DWORD PTR _LogData$[esp+1056]
  00064	f3 ab		 rep stosd
  00066	0f b6 0d 82 9e
	00 00		 movzx	 ecx, BYTE PTR ?_AtlModule@@3VCTMapSvrModule@@A+40578
  0006d	8b 84 24 24 04
	00 00		 mov	 eax, DWORD PTR _pAction$[esp+1052]
  00074	52		 push	 edx
  00075	89 44 24 40	 mov	 DWORD PTR _LogData$[esp+1096], eax
  00079	89 4c 24 2c	 mov	 DWORD PTR _LogData$[esp+1076], ecx
  0007d	ff 15 00 00 00
	00		 call	 DWORD PTR __imp__inet_ntoa@4
  00083	8b 3d 00 00 00
	00		 mov	 edi, DWORD PTR __imp__lstrcpyA@8
  00089	50		 push	 eax
  0008a	8d 44 24 30	 lea	 eax, DWORD PTR _LogData$[esp+1080]
  0008e	50		 push	 eax
  0008f	ff d7		 call	 edi

; 626  : 
; 627  : 	LogData.wMapID			=	pPlayer->m_wMapID;				//	Map ID

  00091	66 8b 8d 90 01
	01 00		 mov	 cx, WORD PTR [ebp+65936]

; 628  : 	LogData.nX				=	(int)pPlayer->m_fPosX;			//	X

  00098	d9 85 7c 01 01
	00		 fld	 DWORD PTR [ebp+65916]
  0009e	66 89 4c 24 40	 mov	 WORD PTR _LogData$[esp+1096], cx
  000a3	e8 00 00 00 00	 call	 __ftol2

; 629  : 	LogData.nY				=	(int)pPlayer->m_fPosY;			//	Y

  000a8	d9 85 80 01 01
	00		 fld	 DWORD PTR [ebp+65920]
  000ae	89 44 24 44	 mov	 DWORD PTR _LogData$[esp+1100], eax
  000b2	e8 00 00 00 00	 call	 __ftol2

; 630  : 	LogData.nZ				=	(int)pPlayer->m_fPosZ;			//	Z

  000b7	d9 85 84 01 01
	00		 fld	 DWORD PTR [ebp+65924]
  000bd	89 44 24 48	 mov	 DWORD PTR _LogData$[esp+1104], eax
  000c1	e8 00 00 00 00	 call	 __ftol2

; 631  : 
; 632  : 	LogData.dwKey[0]		=	pPlayer->m_dwUserID;			//	User ID

  000c6	8b 95 ac 03 01
	00		 mov	 edx, DWORD PTR [ebp+66476]
  000cc	89 44 24 4c	 mov	 DWORD PTR _LogData$[esp+1108], eax

; 633  : 	LogData.dwKey[1]		=	pPlayer->m_dwID;				//	Character Seq

  000d0	8b 85 44 01 01
	00		 mov	 eax, DWORD PTR [ebp+65860]
  000d6	89 44 24 58	 mov	 DWORD PTR _LogData$[esp+1120], eax

; 634  : 	lstrcpy(LogData.szKey[1],	pPlayer->m_strNAME	);			//	Character Name

  000da	8b 85 a4 03 01
	00		 mov	 eax, DWORD PTR [ebp+66468]
  000e0	50		 push	 eax
  000e1	8d 8c 24 de 00
	00 00		 lea	 ecx, DWORD PTR _LogData$[esp+1254]
  000e8	51		 push	 ecx
  000e9	89 54 24 58	 mov	 DWORD PTR _LogData$[esp+1120], edx
  000ed	89 5c 24 5c	 mov	 DWORD PTR _LogData$[esp+1124], ebx
  000f1	89 5c 24 64	 mov	 DWORD PTR _LogData$[esp+1132], ebx
  000f5	ff d7		 call	 edi

; 635  : 
; 636  : 	LogData.dwKey[9]		=	pPlayer->m_bCountry + (pPlayer->m_bAidCountry == TCONTRY_N ? 0 : (pPlayer->m_bAidCountry+1)*10);			//	Country

  000f7	8a 85 9e 01 01
	00		 mov	 al, BYTE PTR [ebp+65950]
  000fd	3c 03		 cmp	 al, 3
  000ff	75 04		 jne	 SHORT $L180417
  00101	33 c9		 xor	 ecx, ecx
  00103	eb 09		 jmp	 SHORT $L180418
$L180417:
  00105	0f b6 c0	 movzx	 eax, al
  00108	40		 inc	 eax
  00109	8d 0c 80	 lea	 ecx, DWORD PTR [eax+eax*4]
  0010c	d1 e1		 shl	 ecx, 1
$L180418:
  0010e	0f b6 85 9d 01
	01 00		 movzx	 eax, BYTE PTR [ebp+65949]
  00115	03 c1		 add	 eax, ecx

; 637  : 	LogData.dwKey[10]		=	pPlayer->m_bLevel;				//	Level
; 638  : 
; 639  : 	//	Target Name
; 640  : 	if( pTargetName.GetLength() && pTargetName.GetLength() < sizeof(LogData.szKey[1]) )

  00117	8b 8c 24 30 04
	00 00		 mov	 ecx, DWORD PTR _pTargetName$[esp+1052]
  0011e	99		 cdq
  0011f	89 84 24 98 00
	00 00		 mov	 DWORD PTR _LogData$[esp+1184], eax
  00126	0f b6 85 7b 01
	01 00		 movzx	 eax, BYTE PTR [ebp+65915]
  0012d	89 94 24 9c 00
	00 00		 mov	 DWORD PTR _LogData$[esp+1188], edx
  00134	99		 cdq
  00135	89 84 24 a0 00
	00 00		 mov	 DWORD PTR _LogData$[esp+1192], eax
  0013c	89 94 24 a4 00
	00 00		 mov	 DWORD PTR _LogData$[esp+1196], edx
  00143	8b 41 f4	 mov	 eax, DWORD PTR [ecx-12]
  00146	3b c3		 cmp	 eax, ebx
  00148	74 10		 je	 SHORT $L175542
  0014a	83 f8 32	 cmp	 eax, 50			; 00000032H
  0014d	73 0b		 jae	 SHORT $L175542

; 641  : 	{
; 642  : 		lstrcpy(LogData.szKey[2], pTargetName);

  0014f	51		 push	 ecx
  00150	8d 94 24 10 01
	00 00		 lea	 edx, DWORD PTR _LogData$[esp+1304]
  00157	52		 push	 edx
  00158	ff d7		 call	 edi
$L175542:

; 643  : 	}
; 644  : 	
; 645  : 	//
; 646  : 	//	ITEM INFO
; 647  : 	//
; 648  : 	if(pItem)
; 649  : 	{
; 650  : 		LogData.dwKey[3]		=	pItem->m_wItemID;			//	Item Template

  0015a	66 8b 4e 30	 mov	 cx, WORD PTR [esi+48]

; 651  : 		LogData.dwKey[7]		=	pItem->m_bCount;			//	Item Count

  0015e	8a 5e 32	 mov	 bl, BYTE PTR [esi+50]

; 652  : 		LogData.dwKey[8]		=	pItem->m_dlID;				//	Unique Key
; 653  : 
; 654  : 		LogData.dwFormat = LF_ITEM;
; 655  : 
; 656  : 		_LPLOG_ITEM_ pLogItem = (_LPLOG_ITEM_)LogData.szLog;
; 657  : 		
; 658  : 		pLogItem->dlID			=	pItem->m_dlID;				//	Unique Number
; 659  : 		pLogItem->bInven		=	pItem->m_bInven;			//	 
; 660  : 		pLogItem->bItemID		=	pItem->m_bItemID;			//	 
; 661  : 
; 662  : 		pLogItem->wItemID		=	pItem->m_wItemID;			//	 INDEX
; 663  : 
; 664  : 		//
; 665  : 		//	Game Part   
; 666  : 		//	lstrcpy( pLogItem->szItemName, pItem->m_pTITEM-> )	//	 
; 667  : 
; 668  : 		pLogItem->bLevel		=	pItem->m_bLevel;			//	 
; 669  : 		pLogItem->bCount		=	pItem->m_bCount;				
; 670  : 
; 671  : 		pLogItem->bGLevel		=	pItem->m_bGLevel;			//	  
; 672  : 		pLogItem->dwDuraMax		=	pItem->m_dwDuraMax;			//	 
; 673  : 		pLogItem->dwDuraCur		=	pItem->m_dwDuraCur;			//	 	
; 674  : 		pLogItem->bRefineCur	=	pItem->m_bRefineCur;		//	 
; 675  : 
; 676  : 		pLogItem->bGradeEffect	=	pItem->m_bGradeEffect;		//	  
; 677  : 
; 678  : 		int	nOrder = 0;
; 679  : 
; 680  : 		MAPTMAGIC::iterator itTMAGIC;
; 681  : 		for( itTMAGIC = pItem->m_mapTMAGIC.begin(); itTMAGIC != pItem->m_mapTMAGIC.end(); itTMAGIC++)

  00161	8b 7e 0c	 mov	 edi, DWORD PTR [esi+12]
  00164	0f b7 c1	 movzx	 eax, cx
  00167	99		 cdq
  00168	89 44 24 68	 mov	 DWORD PTR _LogData$[esp+1136], eax
  0016c	89 54 24 6c	 mov	 DWORD PTR _LogData$[esp+1140], edx
  00170	0f b6 c3	 movzx	 eax, bl
  00173	99		 cdq
  00174	89 84 24 88 00
	00 00		 mov	 DWORD PTR _LogData$[esp+1168], eax
  0017b	8b 46 20	 mov	 eax, DWORD PTR [esi+32]
  0017e	89 84 24 90 00
	00 00		 mov	 DWORD PTR _LogData$[esp+1176], eax
  00185	89 84 24 0c 02
	00 00		 mov	 DWORD PTR _LogData$[esp+1556], eax
  0018c	8a 46 2a	 mov	 al, BYTE PTR [esi+42]
  0018f	89 94 24 8c 00
	00 00		 mov	 DWORD PTR _LogData$[esp+1172], edx
  00196	8b 56 24	 mov	 edx, DWORD PTR [esi+36]
  00199	88 84 24 14 02
	00 00		 mov	 BYTE PTR _LogData$[esp+1564], al
  001a0	8a 46 29	 mov	 al, BYTE PTR [esi+41]
  001a3	66 89 8c 24 16
	02 00 00	 mov	 WORD PTR _LogData$[esp+1566], cx
  001ab	8b 4e 34	 mov	 ecx, DWORD PTR [esi+52]
  001ae	89 94 24 94 00
	00 00		 mov	 DWORD PTR _LogData$[esp+1180], edx
  001b5	89 94 24 10 02
	00 00		 mov	 DWORD PTR _LogData$[esp+1560], edx
  001bc	8a 56 28	 mov	 dl, BYTE PTR [esi+40]
  001bf	88 84 24 4a 02
	00 00		 mov	 BYTE PTR _LogData$[esp+1618], al
  001c6	8a 46 33	 mov	 al, BYTE PTR [esi+51]
  001c9	89 8c 24 50 02
	00 00		 mov	 DWORD PTR _LogData$[esp+1624], ecx
  001d0	8a 4e 68	 mov	 cl, BYTE PTR [esi+104]
  001d3	88 94 24 15 02
	00 00		 mov	 BYTE PTR _LogData$[esp+1565], dl
  001da	8b 56 38	 mov	 edx, DWORD PTR [esi+56]
  001dd	88 84 24 4c 02
	00 00		 mov	 BYTE PTR _LogData$[esp+1620], al
  001e4	8a 46 3c	 mov	 al, BYTE PTR [esi+60]
  001e7	88 8c 24 59 02
	00 00		 mov	 BYTE PTR _LogData$[esp+1633], cl
  001ee	c7 84 24 08 02
	00 00 02 00 00
	00		 mov	 DWORD PTR _LogData$[esp+1552], 2
  001f9	88 9c 24 4b 02
	00 00		 mov	 BYTE PTR _LogData$[esp+1619], bl
  00200	89 94 24 54 02
	00 00		 mov	 DWORD PTR _LogData$[esp+1628], edx
  00207	88 84 24 58 02
	00 00		 mov	 BYTE PTR _LogData$[esp+1632], al
  0020e	8b 07		 mov	 eax, DWORD PTR [edi]
  00210	33 c9		 xor	 ecx, ecx
  00212	33 ed		 xor	 ebp, ebp
  00214	3b c7		 cmp	 eax, edi
  00216	89 44 24 10	 mov	 DWORD PTR _itTMAGIC$175547[esp+1056], eax
  0021a	74 31		 je	 SHORT $L175553

; 643  : 	}
; 644  : 	
; 645  : 	//
; 646  : 	//	ITEM INFO
; 647  : 	//
; 648  : 	if(pItem)
; 649  : 	{
; 650  : 		LogData.dwKey[3]		=	pItem->m_wItemID;			//	Item Template

  0021c	8d 9c 24 60 02
	00 00		 lea	 ebx, DWORD PTR _LogData$[esp+1640]

; 652  : 		LogData.dwKey[8]		=	pItem->m_dlID;				//	Unique Key
; 653  : 
; 654  : 		LogData.dwFormat = LF_ITEM;
; 655  : 
; 656  : 		_LPLOG_ITEM_ pLogItem = (_LPLOG_ITEM_)LogData.szLog;
; 657  : 		
; 658  : 		pLogItem->dlID			=	pItem->m_dlID;				//	Unique Number
; 659  : 		pLogItem->bInven		=	pItem->m_bInven;			//	 
; 660  : 		pLogItem->bItemID		=	pItem->m_bItemID;			//	 
; 661  : 
; 662  : 		pLogItem->wItemID		=	pItem->m_wItemID;			//	 INDEX
; 663  : 
; 664  : 		//
; 665  : 		//	Game Part   
; 666  : 		//	lstrcpy( pLogItem->szItemName, pItem->m_pTITEM-> )	//	 
; 667  : 
; 668  : 		pLogItem->bLevel		=	pItem->m_bLevel;			//	 
; 669  : 		pLogItem->bCount		=	pItem->m_bCount;				
; 670  : 
; 671  : 		pLogItem->bGLevel		=	pItem->m_bGLevel;			//	  
; 672  : 		pLogItem->dwDuraMax		=	pItem->m_dwDuraMax;			//	 
; 673  : 		pLogItem->dwDuraCur		=	pItem->m_dwDuraCur;			//	 	
; 674  : 		pLogItem->bRefineCur	=	pItem->m_bRefineCur;		//	 
; 675  : 
; 676  : 		pLogItem->bGradeEffect	=	pItem->m_bGradeEffect;		//	  
; 677  : 
; 678  : 		int	nOrder = 0;
; 679  : 
; 680  : 		MAPTMAGIC::iterator itTMAGIC;
; 681  : 		for( itTMAGIC = pItem->m_mapTMAGIC.begin(); itTMAGIC != pItem->m_mapTMAGIC.end(); itTMAGIC++)

$L180530:

; 682  : 		{
; 683  : 			pLogItem->bMagic[nOrder] =	(*itTMAGIC).first; 

  00223	8a 50 0c	 mov	 dl, BYTE PTR [eax+12]
  00226	88 94 2c 5a 02
	00 00		 mov	 BYTE PTR _LogData$[esp+ebp+1634], dl

; 684  : 			pLogItem->wValue[nOrder] =	(*itTMAGIC).second->m_wValue;

  0022d	8b 40 10	 mov	 eax, DWORD PTR [eax+16]
  00230	66 8b 08	 mov	 cx, WORD PTR [eax]
  00233	66 89 0b	 mov	 WORD PTR [ebx], cx
  00236	8d 4c 24 10	 lea	 ecx, DWORD PTR _itTMAGIC$175547[esp+1056]

; 685  : 
; 686  : 			nOrder ++;

  0023a	45		 inc	 ebp
  0023b	83 c3 02	 add	 ebx, 2
  0023e	e8 00 00 00 00	 call	 ?_Inc@const_iterator@?$_Tree@V?$_Tmap_traits@EPAUtagTMAGIC@@U?$less@E@std@@V?$allocator@U?$pair@$$CBEPAUtagTMAGIC@@@std@@@3@$0A@@std@@@std@@QAEXXZ ; std::_Tree<std::_Tmap_traits<unsigned char,tagTMAGIC *,std::less<unsigned char>,std::allocator<std::pair<unsigned char const ,tagTMAGIC *> >,0> >::const_iterator::_Inc
  00243	8b 44 24 10	 mov	 eax, DWORD PTR _itTMAGIC$175547[esp+1056]
  00247	3b c7		 cmp	 eax, edi
  00249	75 d8		 jne	 SHORT $L180530

; 652  : 		LogData.dwKey[8]		=	pItem->m_dlID;				//	Unique Key
; 653  : 
; 654  : 		LogData.dwFormat = LF_ITEM;
; 655  : 
; 656  : 		_LPLOG_ITEM_ pLogItem = (_LPLOG_ITEM_)LogData.szLog;
; 657  : 		
; 658  : 		pLogItem->dlID			=	pItem->m_dlID;				//	Unique Number
; 659  : 		pLogItem->bInven		=	pItem->m_bInven;			//	 
; 660  : 		pLogItem->bItemID		=	pItem->m_bItemID;			//	 
; 661  : 
; 662  : 		pLogItem->wItemID		=	pItem->m_wItemID;			//	 INDEX
; 663  : 
; 664  : 		//
; 665  : 		//	Game Part   
; 666  : 		//	lstrcpy( pLogItem->szItemName, pItem->m_pTITEM-> )	//	 
; 667  : 
; 668  : 		pLogItem->bLevel		=	pItem->m_bLevel;			//	 
; 669  : 		pLogItem->bCount		=	pItem->m_bCount;				
; 670  : 
; 671  : 		pLogItem->bGLevel		=	pItem->m_bGLevel;			//	  
; 672  : 		pLogItem->dwDuraMax		=	pItem->m_dwDuraMax;			//	 
; 673  : 		pLogItem->dwDuraCur		=	pItem->m_dwDuraCur;			//	 	
; 674  : 		pLogItem->bRefineCur	=	pItem->m_bRefineCur;		//	 
; 675  : 
; 676  : 		pLogItem->bGradeEffect	=	pItem->m_bGradeEffect;		//	  
; 677  : 
; 678  : 		int	nOrder = 0;
; 679  : 
; 680  : 		MAPTMAGIC::iterator itTMAGIC;
; 681  : 		for( itTMAGIC = pItem->m_mapTMAGIC.begin(); itTMAGIC != pItem->m_mapTMAGIC.end(); itTMAGIC++)

  0024b	33 c9		 xor	 ecx, ecx
$L175553:

; 687  : 		}
; 688  : 
; 689  : 		//	Item Type
; 690  : 		if( pItem->m_bGLevel )

  0024d	8a 46 33	 mov	 al, BYTE PTR [esi+51]
  00250	84 c0		 test	 al, al
  00252	74 0a		 je	 SHORT $L175554

; 691  : 		{
; 692  : 			LogData.dwKey[4] = 3;						//	Seal Item

  00254	c7 44 24 70 03
	00 00 00	 mov	 DWORD PTR _LogData$[esp+1144], 3

; 693  : 		}
; 694  : 		else

  0025c	eb 24		 jmp	 SHORT $L180619
$L175554:

; 695  : 		{
; 696  : 			switch(nOrder)

  0025e	83 fd 03	 cmp	 ebp, 3
  00261	77 23		 ja	 SHORT $L175557
  00263	ff 24 ad 00 00
	00 00		 jmp	 DWORD PTR $L180621[ebp*4]
$L175560:

; 697  : 			{
; 698  : 			case 0 :	LogData.dwKey[4] = 0;	break;	//	Normal Item

  0026a	89 4c 24 70	 mov	 DWORD PTR _LogData$[esp+1144], ecx
  0026e	eb 12		 jmp	 SHORT $L180619
$L175561:

; 699  : 
; 700  : 			case 1 : 
; 701  : 			case 2 :	LogData.dwKey[4] = 1;	break;	//	Magic Item

  00270	c7 44 24 70 01
	00 00 00	 mov	 DWORD PTR _LogData$[esp+1144], 1
  00278	eb 08		 jmp	 SHORT $L180619
$L175562:

; 702  : 
; 703  : 			case 3 :	LogData.dwKey[4] = 2;	break;	//	Rare Item

  0027a	c7 44 24 70 02
	00 00 00	 mov	 DWORD PTR _LogData$[esp+1144], 2
$L180619:
  00282	89 4c 24 74	 mov	 DWORD PTR _LogData$[esp+1148], ecx
$L175557:

; 704  : 
; 705  : 			case 4 :	break;
; 706  : 
; 707  : 			case 5 :	break;
; 708  : 			}
; 709  : 		}
; 710  : 
; 711  : 		pLogItem->dEndTime	=	pItem->m_dEndTime;

  00286	8b 56 40	 mov	 edx, DWORD PTR [esi+64]
  00289	8b 46 44	 mov	 eax, DWORD PTR [esi+68]

; 712  : 	}
; 713  : 
; 714  : 	SendDMLog( LogData );

  0028c	81 ec f8 03 00
	00		 sub	 esp, 1016		; 000003f8H
  00292	8b fc		 mov	 edi, esp
  00294	89 94 24 7c 06
	00 00		 mov	 DWORD PTR _LogData$[esp+2692], edx
  0029b	89 84 24 80 06
	00 00		 mov	 DWORD PTR _LogData$[esp+2696], eax
  002a2	b9 fe 00 00 00	 mov	 ecx, 254		; 000000feH
  002a7	8d b4 24 10 04
	00 00		 lea	 esi, DWORD PTR _LogData$[esp+2072]
  002ae	f3 a5		 rep movsd
  002b0	8b 8c 24 0c 04
	00 00		 mov	 ecx, DWORD PTR _this$[esp+2072]
  002b7	e8 00 00 00 00	 call	 ?SendDMLog@CUdpSocket@@QAEXU_LOG_DATA_@@@Z ; CUdpSocket::SendDMLog
$L175536:
  002bc	8b 84 24 30 04
	00 00		 mov	 eax, DWORD PTR _pTargetName$[esp+1052]
  002c3	83 c0 f0	 add	 eax, -16		; fffffff0H
  002c6	c7 84 24 1c 04
	00 00 ff ff ff
	ff		 mov	 DWORD PTR __$EHRec$[esp+1064], -1
  002d1	8d 48 0c	 lea	 ecx, DWORD PTR [eax+12]
  002d4	83 ca ff	 or	 edx, -1
  002d7	f0 0f c1 11	 lock	  xadd	 DWORD PTR [ecx], edx
  002db	4a		 dec	 edx
  002dc	85 d2		 test	 edx, edx
  002de	7f 08		 jg	 SHORT $L180446
  002e0	8b 08		 mov	 ecx, DWORD PTR [eax]
  002e2	8b 11		 mov	 edx, DWORD PTR [ecx]
  002e4	50		 push	 eax
  002e5	ff 52 04	 call	 DWORD PTR [edx+4]
$L180446:

; 715  : }

  002e8	8b 8c 24 14 04
	00 00		 mov	 ecx, DWORD PTR __$EHRec$[esp+1056]
  002ef	64 89 0d 00 00
	00 00		 mov	 DWORD PTR fs:__except_list, ecx
  002f6	8b 8c 24 10 04
	00 00		 mov	 ecx, DWORD PTR __$ArrayPad$[esp+1056]
  002fd	e8 00 00 00 00	 call	 @__security_check_cookie@4
  00302	5f		 pop	 edi
  00303	5e		 pop	 esi
  00304	5d		 pop	 ebp
  00305	5b		 pop	 ebx
  00306	81 c4 10 04 00
	00		 add	 esp, 1040		; 00000410H
  0030c	c2 10 00	 ret	 16			; 00000010H
  0030f	90		 npad	 1
$L180621:
  00310	00 00 00 00	 DD	 $L175560
  00314	00 00 00 00	 DD	 $L175561
  00318	00 00 00 00	 DD	 $L175561
  0031c	00 00 00 00	 DD	 $L175562
_TEXT	ENDS
;	COMDAT text$x
text$x	SEGMENT
$L180422:
  00000	8d 4d 10	 lea	 ecx, DWORD PTR _pTargetName$[ebp-4]
  00003	e9 00 00 00 00	 jmp	 ??1?$CStringT@DV?$StrTraitATL@DV?$ChTraitsCRT@D@ATL@@@ATL@@@ATL@@QAE@XZ ; ATL::CStringT<char,ATL::StrTraitATL<char,ATL::ChTraitsCRT<char> > >::~CStringT<char,ATL::StrTraitATL<char,ATL::ChTraitsCRT<char> > >
__ehhandler$?LogItemTrade@CUdpSocket@@QAEXKPAVCTPlayer@@PAVCTItem@@V?$CStringT@DV?$StrTraitATL@DV?$ChTraitsCRT@D@ATL@@@ATL@@@ATL@@@Z:
  00008	b8 00 00 00 00	 mov	 eax, OFFSET FLAT:$T180614
  0000d	e9 00 00 00 00	 jmp	 ___CxxFrameHandler
text$x	ENDS
?LogItemTrade@CUdpSocket@@QAEXKPAVCTPlayer@@PAVCTItem@@V?$CStringT@DV?$StrTraitATL@DV?$ChTraitsCRT@D@ATL@@@ATL@@@ATL@@@Z ENDP ; CUdpSocket::LogItemTrade
PUBLIC	?LogItemByStore@CUdpSocket@@QAEXKPAVCTPlayer@@V?$CStringT@DV?$StrTraitATL@DV?$ChTraitsCRT@D@ATL@@@ATL@@@ATL@@PAVCTItem@@_JE@Z ; CUdpSocket::LogItemByStore
;	COMDAT xdata$x
; File c:\program files (x86)\microsoft visual studio .net 2003\vc7\atlmfc\include\atlsimpstr.h
xdata$x	SEGMENT
$T180853 DD	0ffffffffH
	DD	FLAT:$L180634
$T180844 DD	019930520H
	DD	01H
	DD	FLAT:$T180853
	DD	2 DUP(00H)
	DD	2 DUP(00H)
; Function compile flags: /Ogty
; File c:\users\pierr\desktop\4story - oldschool\sources\tserver\tmapsvr\udpsocket.cpp
xdata$x	ENDS
;	COMDAT ?LogItemByStore@CUdpSocket@@QAEXKPAVCTPlayer@@V?$CStringT@DV?$StrTraitATL@DV?$ChTraitsCRT@D@ATL@@@ATL@@@ATL@@PAVCTItem@@_JE@Z
_TEXT	SEGMENT
_tNowTime$180809 = -2056				; size = 8
_itTMAGIC$175600 = -2056				; size = 4
$T180815 = -2048					; size = 1016
_LogData$ = -1032					; size = 1016
__$ArrayPad$ = -16					; size = 4
__$EHRec$ = -12						; size = 12
__$ReturnAddr$ = 4					; size = 4
_pAction$ = 8						; size = 4
_pPlayer$ = 12						; size = 4
_pTargetName$ = 16					; size = 4
_pItem$ = 20						; size = 4
_pMoney$ = 24						; size = 8
_bCount$ = 32						; size = 1
?LogItemByStore@CUdpSocket@@QAEXKPAVCTPlayer@@V?$CStringT@DV?$StrTraitATL@DV?$ChTraitsCRT@D@ATL@@@ATL@@@ATL@@PAVCTItem@@_JE@Z PROC NEAR ; CUdpSocket::LogItemByStore, COMDAT
; _this$ = ecx

; 770  : {

  00000	6a ff		 push	 -1
  00002	68 00 00 00 00	 push	 __ehhandler$?LogItemByStore@CUdpSocket@@QAEXKPAVCTPlayer@@V?$CStringT@DV?$StrTraitATL@DV?$ChTraitsCRT@D@ATL@@@ATL@@@ATL@@PAVCTItem@@_JE@Z
  00007	64 a1 00 00 00
	00		 mov	 eax, DWORD PTR fs:__except_list
  0000d	50		 push	 eax
  0000e	64 89 25 00 00
	00 00		 mov	 DWORD PTR fs:__except_list, esp
  00015	81 ec fc 07 00
	00		 sub	 esp, 2044		; 000007fcH
  0001b	a1 00 00 00 00	 mov	 eax, DWORD PTR ___security_cookie
  00020	53		 push	 ebx
  00021	55		 push	 ebp
  00022	56		 push	 esi
  00023	89 84 24 04 08
	00 00		 mov	 DWORD PTR __$ArrayPad$[esp+2068], eax
  0002a	57		 push	 edi

; 771  : 	if(!pPlayer) return;

  0002b	8b b4 24 20 08
	00 00		 mov	 esi, DWORD PTR _pPlayer$[esp+2068]
  00032	33 db		 xor	 ebx, ebx
  00034	3b f3		 cmp	 esi, ebx
  00036	89 9c 24 14 08
	00 00		 mov	 DWORD PTR __$EHRec$[esp+2080], ebx
  0003d	75 0f		 jne	 SHORT $L175589
  0003f	8b 84 24 24 08
	00 00		 mov	 eax, DWORD PTR _pTargetName$[esp+2068]
  00046	83 c0 f0	 add	 eax, -16		; fffffff0H
  00049	e9 33 03 00 00	 jmp	 $L180850
$L175589:

; 772  : 
; 773  : 	_LOG_DATA_ LogData;
; 774  : 	memset( &LogData, 0x00, sizeof(_LOG_DATA_));
; 775  : 
; 776  : 	LogData.dwAction	=	pAction;
; 777  : 	LogData.dwServerID	=	_AtlModule.GetServerID();
; 778  : 
; 779  : 	lstrcpy( LogData.szClientIP, inet_ntoa(pPlayer->m_addr.sin_addr) );	

  0004e	8b 56 40	 mov	 edx, DWORD PTR [esi+64]
  00051	33 c0		 xor	 eax, eax
  00053	b9 fe 00 00 00	 mov	 ecx, 254		; 000000feH
  00058	8d bc 24 10 04
	00 00		 lea	 edi, DWORD PTR _LogData$[esp+2072]
  0005f	f3 ab		 rep stosd
  00061	0f b6 0d 82 9e
	00 00		 movzx	 ecx, BYTE PTR ?_AtlModule@@3VCTMapSvrModule@@A+40578
  00068	8b 84 24 1c 08
	00 00		 mov	 eax, DWORD PTR _pAction$[esp+2068]
  0006f	52		 push	 edx
  00070	89 84 24 38 04
	00 00		 mov	 DWORD PTR _LogData$[esp+2112], eax
  00077	89 8c 24 24 04
	00 00		 mov	 DWORD PTR _LogData$[esp+2092], ecx
  0007e	ff 15 00 00 00
	00		 call	 DWORD PTR __imp__inet_ntoa@4
  00084	8b 3d 00 00 00
	00		 mov	 edi, DWORD PTR __imp__lstrcpyA@8
  0008a	50		 push	 eax
  0008b	8d 84 24 28 04
	00 00		 lea	 eax, DWORD PTR _LogData$[esp+2096]
  00092	50		 push	 eax
  00093	ff d7		 call	 edi

; 780  : 		
; 781  : 	LogData.wMapID			=	pPlayer->m_wMapID;				//	Map ID

  00095	66 8b 8e 90 01
	01 00		 mov	 cx, WORD PTR [esi+65936]

; 782  : 	LogData.nX				=	(int)pPlayer->m_fPosX;			//	X

  0009c	d9 86 7c 01 01
	00		 fld	 DWORD PTR [esi+65916]
  000a2	66 89 8c 24 38
	04 00 00	 mov	 WORD PTR _LogData$[esp+2112], cx
  000aa	e8 00 00 00 00	 call	 __ftol2

; 783  : 	LogData.nY				=	(int)pPlayer->m_fPosY;			//	Y

  000af	d9 86 80 01 01
	00		 fld	 DWORD PTR [esi+65920]
  000b5	89 84 24 3c 04
	00 00		 mov	 DWORD PTR _LogData$[esp+2116], eax
  000bc	e8 00 00 00 00	 call	 __ftol2

; 784  : 	LogData.nZ				=	(int)pPlayer->m_fPosZ;			//	Z

  000c1	d9 86 84 01 01
	00		 fld	 DWORD PTR [esi+65924]
  000c7	89 84 24 40 04
	00 00		 mov	 DWORD PTR _LogData$[esp+2120], eax
  000ce	e8 00 00 00 00	 call	 __ftol2

; 785  : 	
; 786  : 	LogData.dwKey[0]		=	pPlayer->m_dwUserID;			//	User ID

  000d3	8b 96 ac 03 01
	00		 mov	 edx, DWORD PTR [esi+66476]
  000d9	89 84 24 44 04
	00 00		 mov	 DWORD PTR _LogData$[esp+2124], eax

; 787  : 	LogData.dwKey[1]		=	pPlayer->m_dwID;				//	Character Seq

  000e0	8b 86 44 01 01
	00		 mov	 eax, DWORD PTR [esi+65860]
  000e6	89 84 24 50 04
	00 00		 mov	 DWORD PTR _LogData$[esp+2136], eax

; 788  : 	lstrcpy(LogData.szKey[1],	pPlayer->m_strNAME	);			//	Character Name

  000ed	8b 86 a4 03 01
	00		 mov	 eax, DWORD PTR [esi+66468]
  000f3	50		 push	 eax
  000f4	8d 8c 24 d6 04
	00 00		 lea	 ecx, DWORD PTR _LogData$[esp+2270]
  000fb	51		 push	 ecx
  000fc	89 94 24 50 04
	00 00		 mov	 DWORD PTR _LogData$[esp+2136], edx
  00103	89 9c 24 54 04
	00 00		 mov	 DWORD PTR _LogData$[esp+2140], ebx
  0010a	89 9c 24 5c 04
	00 00		 mov	 DWORD PTR _LogData$[esp+2148], ebx
  00111	ff d7		 call	 edi

; 789  : 
; 790  : 	LogData.dwKey[9]		=	pPlayer->m_bCountry + (pPlayer->m_bAidCountry == TCONTRY_N ? 0 : (pPlayer->m_bAidCountry+1)*10);			//	Country

  00113	8a 86 9e 01 01
	00		 mov	 al, BYTE PTR [esi+65950]
  00119	3c 03		 cmp	 al, 3
  0011b	75 04		 jne	 SHORT $L180629
  0011d	33 c9		 xor	 ecx, ecx
  0011f	eb 09		 jmp	 SHORT $L180630
$L180629:
  00121	0f b6 c0	 movzx	 eax, al
  00124	40		 inc	 eax
  00125	8d 0c 80	 lea	 ecx, DWORD PTR [eax+eax*4]
  00128	d1 e1		 shl	 ecx, 1
$L180630:
  0012a	0f b6 86 9d 01
	01 00		 movzx	 eax, BYTE PTR [esi+65949]

; 791  : 	LogData.dwKey[10]		=	pPlayer->m_bLevel;				//	Level
; 792  : 
; 793  : 
; 794  : 
; 795  : 	//	Target Name
; 796  : 	if( pTargetName.GetLength() && pTargetName.GetLength() < sizeof(LogData.szKey[1]) )

  00131	8b ac 24 24 08
	00 00		 mov	 ebp, DWORD PTR _pTargetName$[esp+2068]
  00138	03 c1		 add	 eax, ecx
  0013a	99		 cdq
  0013b	89 84 24 90 04
	00 00		 mov	 DWORD PTR _LogData$[esp+2200], eax
  00142	0f b6 86 7b 01
	01 00		 movzx	 eax, BYTE PTR [esi+65915]
  00149	89 94 24 94 04
	00 00		 mov	 DWORD PTR _LogData$[esp+2204], edx
  00150	99		 cdq
  00151	89 84 24 98 04
	00 00		 mov	 DWORD PTR _LogData$[esp+2208], eax
  00158	89 94 24 9c 04
	00 00		 mov	 DWORD PTR _LogData$[esp+2212], edx
  0015f	8b 45 f4	 mov	 eax, DWORD PTR [ebp-12]
  00162	3b c3		 cmp	 eax, ebx
  00164	74 10		 je	 SHORT $L175595
  00166	83 f8 32	 cmp	 eax, 50			; 00000032H
  00169	73 0b		 jae	 SHORT $L175595

; 797  : 	{
; 798  : 		lstrcpy(LogData.szKey[2], pTargetName);

  0016b	55		 push	 ebp
  0016c	8d 94 24 08 05
	00 00		 lea	 edx, DWORD PTR _LogData$[esp+2320]
  00173	52		 push	 edx
  00174	ff d7		 call	 edi
$L175595:

; 799  : 	}
; 800  : 
; 801  : 	LogData.dwKey[5]		=	pMoney;							//	Get Money  

  00176	8b 84 24 2c 08
	00 00		 mov	 eax, DWORD PTR _pMoney$[esp+2068]

; 802  : 	wsprintf( LogData.szKey[5], "Now Money : %u/%u/%u",			//	Now Money
; 803  : 											pPlayer->m_dwGold,		
; 804  : 											pPlayer->m_dwSilver, 
; 805  : 											pPlayer->m_dwCooper );

  0017d	8b 96 c8 03 01
	00		 mov	 edx, DWORD PTR [esi+66504]
  00183	8b 8c 24 30 08
	00 00		 mov	 ecx, DWORD PTR _pMoney$[esp+2072]
  0018a	52		 push	 edx
  0018b	89 84 24 74 04
	00 00		 mov	 DWORD PTR _LogData$[esp+2172], eax
  00192	8b 86 cc 03 01
	00		 mov	 eax, DWORD PTR [esi+66508]
  00198	50		 push	 eax
  00199	89 8c 24 7c 04
	00 00		 mov	 DWORD PTR _LogData$[esp+2180], ecx
  001a0	8b 8e d0 03 01
	00		 mov	 ecx, DWORD PTR [esi+66512]
  001a6	51		 push	 ecx
  001a7	8d 94 24 a6 05
	00 00		 lea	 edx, DWORD PTR _LogData$[esp+2478]
  001ae	68 00 00 00 00	 push	 OFFSET FLAT:??_C@_0BF@LNLPBIJG@Now?5Money?5?3?5?$CFu?1?$CFu?1?$CFu?$AA@
  001b3	52		 push	 edx
  001b4	ff 15 00 00 00
	00		 call	 DWORD PTR __imp__wsprintfA

; 806  : 
; 807  : 	//
; 808  : 	//	ITEM INFO
; 809  : 	//
; 810  : 	if(pItem)

  001ba	8b b4 24 3c 08
	00 00		 mov	 esi, DWORD PTR _pItem$[esp+2088]
  001c1	83 c4 14	 add	 esp, 20			; 00000014H
  001c4	3b f3		 cmp	 esi, ebx
  001c6	0f 84 61 01 00
	00		 je	 $L175596

; 811  : 	{
; 812  : 		LogData.dwKey[3]		=	pItem->m_wItemID;			//	Item Base ID

  001cc	66 8b 4e 30	 mov	 cx, WORD PTR [esi+48]

; 813  : 		LogData.dwKey[7]		=	bCount;
; 814  : 		LogData.dwKey[8]		=	pItem->m_dlID;				//	Unique Key
; 815  : 
; 816  : 		LogData.dwFormat		= LF_ITEM;
; 817  : 
; 818  : 		_LPLOG_ITEM_ pLogItem = (_LPLOG_ITEM_)LogData.szLog;
; 819  : 		
; 820  : 		pLogItem->dlID			=	pItem->m_dlID;				//	Unique Number
; 821  : 		pLogItem->bInven		=	pItem->m_bInven;			//	 
; 822  : 		pLogItem->bItemID		=	pItem->m_bItemID;			//	 
; 823  : 
; 824  : 		pLogItem->wItemID		=	pItem->m_wItemID;			//	 INDEX
; 825  : 
; 826  : 		//
; 827  : 		//	Game Part   
; 828  : 		//	lstrcpy( pLogItem->szItemName, pItem->m_pTITEM-> )	//	 
; 829  : 
; 830  : 		pLogItem->bLevel		=	pItem->m_bLevel;			//	 
; 831  : 		pLogItem->bCount		=	pItem->m_bCount;				
; 832  : 
; 833  : 		pLogItem->bGLevel		=	pItem->m_bGLevel;			//	  
; 834  : 		pLogItem->dwDuraMax		=	pItem->m_dwDuraMax;			//	 
; 835  : 		pLogItem->dwDuraCur		=	pItem->m_dwDuraCur;			//	 	
; 836  : 		pLogItem->bRefineCur	=	pItem->m_bRefineCur;		//	 
; 837  : 
; 838  : 		pLogItem->bGradeEffect	=	pItem->m_bGradeEffect;		//	  
; 839  : 
; 840  : 		int	nOrder = 0;
; 841  : 		MAPTMAGIC::iterator itTMAGIC;
; 842  : 		for( itTMAGIC = pItem->m_mapTMAGIC.begin(); itTMAGIC != pItem->m_mapTMAGIC.end(); itTMAGIC++)

  001d0	8b 7e 0c	 mov	 edi, DWORD PTR [esi+12]
  001d3	0f b7 c1	 movzx	 eax, cx
  001d6	99		 cdq
  001d7	89 84 24 60 04
	00 00		 mov	 DWORD PTR _LogData$[esp+2152], eax
  001de	0f b6 84 24 34
	08 00 00	 movzx	 eax, BYTE PTR _bCount$[esp+2068]
  001e6	89 94 24 64 04
	00 00		 mov	 DWORD PTR _LogData$[esp+2156], edx
  001ed	99		 cdq
  001ee	89 84 24 80 04
	00 00		 mov	 DWORD PTR _LogData$[esp+2184], eax
  001f5	8b 46 20	 mov	 eax, DWORD PTR [esi+32]
  001f8	89 94 24 84 04
	00 00		 mov	 DWORD PTR _LogData$[esp+2188], edx
  001ff	8b 56 24	 mov	 edx, DWORD PTR [esi+36]
  00202	89 84 24 88 04
	00 00		 mov	 DWORD PTR _LogData$[esp+2192], eax
  00209	89 84 24 04 06
	00 00		 mov	 DWORD PTR _LogData$[esp+2572], eax
  00210	8a 46 2a	 mov	 al, BYTE PTR [esi+42]
  00213	89 94 24 8c 04
	00 00		 mov	 DWORD PTR _LogData$[esp+2196], edx
  0021a	89 94 24 08 06
	00 00		 mov	 DWORD PTR _LogData$[esp+2576], edx
  00221	8a 56 28	 mov	 dl, BYTE PTR [esi+40]
  00224	88 84 24 0c 06
	00 00		 mov	 BYTE PTR _LogData$[esp+2580], al
  0022b	8a 46 29	 mov	 al, BYTE PTR [esi+41]
  0022e	88 94 24 0d 06
	00 00		 mov	 BYTE PTR _LogData$[esp+2581], dl
  00235	8b 56 34	 mov	 edx, DWORD PTR [esi+52]
  00238	66 89 8c 24 0e
	06 00 00	 mov	 WORD PTR _LogData$[esp+2582], cx
  00240	8a 4e 32	 mov	 cl, BYTE PTR [esi+50]
  00243	88 84 24 42 06
	00 00		 mov	 BYTE PTR _LogData$[esp+2634], al
  0024a	8a 46 33	 mov	 al, BYTE PTR [esi+51]
  0024d	88 8c 24 43 06
	00 00		 mov	 BYTE PTR _LogData$[esp+2635], cl
  00254	8a 4e 3c	 mov	 cl, BYTE PTR [esi+60]
  00257	88 84 24 44 06
	00 00		 mov	 BYTE PTR _LogData$[esp+2636], al
  0025e	8b 46 38	 mov	 eax, DWORD PTR [esi+56]
  00261	89 94 24 48 06
	00 00		 mov	 DWORD PTR _LogData$[esp+2640], edx
  00268	8a 56 68	 mov	 dl, BYTE PTR [esi+104]
  0026b	c7 84 24 00 06
	00 00 02 00 00
	00		 mov	 DWORD PTR _LogData$[esp+2568], 2
  00276	89 84 24 4c 06
	00 00		 mov	 DWORD PTR _LogData$[esp+2644], eax
  0027d	88 8c 24 50 06
	00 00		 mov	 BYTE PTR _LogData$[esp+2648], cl
  00284	88 94 24 51 06
	00 00		 mov	 BYTE PTR _LogData$[esp+2649], dl
  0028b	8b 07		 mov	 eax, DWORD PTR [edi]
  0028d	33 ed		 xor	 ebp, ebp
  0028f	3b c7		 cmp	 eax, edi
  00291	89 44 24 10	 mov	 DWORD PTR _itTMAGIC$175600[esp+2072], eax
  00295	74 33		 je	 SHORT $L175606

; 811  : 	{
; 812  : 		LogData.dwKey[3]		=	pItem->m_wItemID;			//	Item Base ID

  00297	8d 9c 24 58 06
	00 00		 lea	 ebx, DWORD PTR _LogData$[esp+2656]
  0029e	8b ff		 npad	 2

; 813  : 		LogData.dwKey[7]		=	bCount;
; 814  : 		LogData.dwKey[8]		=	pItem->m_dlID;				//	Unique Key
; 815  : 
; 816  : 		LogData.dwFormat		= LF_ITEM;
; 817  : 
; 818  : 		_LPLOG_ITEM_ pLogItem = (_LPLOG_ITEM_)LogData.szLog;
; 819  : 		
; 820  : 		pLogItem->dlID			=	pItem->m_dlID;				//	Unique Number
; 821  : 		pLogItem->bInven		=	pItem->m_bInven;			//	 
; 822  : 		pLogItem->bItemID		=	pItem->m_bItemID;			//	 
; 823  : 
; 824  : 		pLogItem->wItemID		=	pItem->m_wItemID;			//	 INDEX
; 825  : 
; 826  : 		//
; 827  : 		//	Game Part   
; 828  : 		//	lstrcpy( pLogItem->szItemName, pItem->m_pTITEM-> )	//	 
; 829  : 
; 830  : 		pLogItem->bLevel		=	pItem->m_bLevel;			//	 
; 831  : 		pLogItem->bCount		=	pItem->m_bCount;				
; 832  : 
; 833  : 		pLogItem->bGLevel		=	pItem->m_bGLevel;			//	  
; 834  : 		pLogItem->dwDuraMax		=	pItem->m_dwDuraMax;			//	 
; 835  : 		pLogItem->dwDuraCur		=	pItem->m_dwDuraCur;			//	 	
; 836  : 		pLogItem->bRefineCur	=	pItem->m_bRefineCur;		//	 
; 837  : 
; 838  : 		pLogItem->bGradeEffect	=	pItem->m_bGradeEffect;		//	  
; 839  : 
; 840  : 		int	nOrder = 0;
; 841  : 		MAPTMAGIC::iterator itTMAGIC;
; 842  : 		for( itTMAGIC = pItem->m_mapTMAGIC.begin(); itTMAGIC != pItem->m_mapTMAGIC.end(); itTMAGIC++)

$L180737:

; 843  : 		{
; 844  : 			pLogItem->bMagic[nOrder] =	(*itTMAGIC).first; 

  002a0	8a 48 0c	 mov	 cl, BYTE PTR [eax+12]
  002a3	88 8c 2c 52 06
	00 00		 mov	 BYTE PTR _LogData$[esp+ebp+2650], cl

; 845  : 			pLogItem->wValue[nOrder] =	(*itTMAGIC).second->m_wValue;

  002aa	8b 50 10	 mov	 edx, DWORD PTR [eax+16]
  002ad	66 8b 02	 mov	 ax, WORD PTR [edx]
  002b0	66 89 03	 mov	 WORD PTR [ebx], ax
  002b3	8d 4c 24 10	 lea	 ecx, DWORD PTR _itTMAGIC$175600[esp+2072]

; 846  : 
; 847  : 			nOrder ++;

  002b7	45		 inc	 ebp
  002b8	83 c3 02	 add	 ebx, 2
  002bb	e8 00 00 00 00	 call	 ?_Inc@const_iterator@?$_Tree@V?$_Tmap_traits@EPAUtagTMAGIC@@U?$less@E@std@@V?$allocator@U?$pair@$$CBEPAUtagTMAGIC@@@std@@@3@$0A@@std@@@std@@QAEXXZ ; std::_Tree<std::_Tmap_traits<unsigned char,tagTMAGIC *,std::less<unsigned char>,std::allocator<std::pair<unsigned char const ,tagTMAGIC *> >,0> >::const_iterator::_Inc
  002c0	8b 44 24 10	 mov	 eax, DWORD PTR _itTMAGIC$175600[esp+2072]
  002c4	3b c7		 cmp	 eax, edi
  002c6	75 d8		 jne	 SHORT $L180737

; 813  : 		LogData.dwKey[7]		=	bCount;
; 814  : 		LogData.dwKey[8]		=	pItem->m_dlID;				//	Unique Key
; 815  : 
; 816  : 		LogData.dwFormat		= LF_ITEM;
; 817  : 
; 818  : 		_LPLOG_ITEM_ pLogItem = (_LPLOG_ITEM_)LogData.szLog;
; 819  : 		
; 820  : 		pLogItem->dlID			=	pItem->m_dlID;				//	Unique Number
; 821  : 		pLogItem->bInven		=	pItem->m_bInven;			//	 
; 822  : 		pLogItem->bItemID		=	pItem->m_bItemID;			//	 
; 823  : 
; 824  : 		pLogItem->wItemID		=	pItem->m_wItemID;			//	 INDEX
; 825  : 
; 826  : 		//
; 827  : 		//	Game Part   
; 828  : 		//	lstrcpy( pLogItem->szItemName, pItem->m_pTITEM-> )	//	 
; 829  : 
; 830  : 		pLogItem->bLevel		=	pItem->m_bLevel;			//	 
; 831  : 		pLogItem->bCount		=	pItem->m_bCount;				
; 832  : 
; 833  : 		pLogItem->bGLevel		=	pItem->m_bGLevel;			//	  
; 834  : 		pLogItem->dwDuraMax		=	pItem->m_dwDuraMax;			//	 
; 835  : 		pLogItem->dwDuraCur		=	pItem->m_dwDuraCur;			//	 	
; 836  : 		pLogItem->bRefineCur	=	pItem->m_bRefineCur;		//	 
; 837  : 
; 838  : 		pLogItem->bGradeEffect	=	pItem->m_bGradeEffect;		//	  
; 839  : 
; 840  : 		int	nOrder = 0;
; 841  : 		MAPTMAGIC::iterator itTMAGIC;
; 842  : 		for( itTMAGIC = pItem->m_mapTMAGIC.begin(); itTMAGIC != pItem->m_mapTMAGIC.end(); itTMAGIC++)

  002c8	33 db		 xor	 ebx, ebx
$L175606:

; 848  : 		}
; 849  : 
; 850  : 		//	Item Type
; 851  : 		if( pItem->m_bGLevel )

  002ca	8a 46 33	 mov	 al, BYTE PTR [esi+51]
  002cd	84 c0		 test	 al, al
  002cf	74 0d		 je	 SHORT $L175607

; 852  : 		{
; 853  : 			LogData.dwKey[4] = 3;						//	Seal Item

  002d1	c7 84 24 68 04
	00 00 03 00 00
	00		 mov	 DWORD PTR _LogData$[esp+2160], 3

; 854  : 		}
; 855  : 		else

  002dc	eb 2d		 jmp	 SHORT $L180851
$L175607:

; 856  : 		{
; 857  : 			switch(nOrder)

  002de	83 fd 03	 cmp	 ebp, 3
  002e1	77 2f		 ja	 SHORT $L175610
  002e3	ff 24 ad 00 00
	00 00		 jmp	 DWORD PTR $L180852[ebp*4]
$L175613:

; 858  : 			{
; 859  : 			case 0 :	LogData.dwKey[4] = 0;	break;	//	Normal Item

  002ea	89 9c 24 68 04
	00 00		 mov	 DWORD PTR _LogData$[esp+2160], ebx
  002f1	eb 18		 jmp	 SHORT $L180851
$L175614:

; 860  : 
; 861  : 			case 1 : 
; 862  : 			case 2 :	LogData.dwKey[4] = 1;	break;	//	Magic Item

  002f3	c7 84 24 68 04
	00 00 01 00 00
	00		 mov	 DWORD PTR _LogData$[esp+2160], 1
  002fe	eb 0b		 jmp	 SHORT $L180851
$L175615:

; 863  : 
; 864  : 			case 3 :	LogData.dwKey[4] = 2;	break;	//	Rare Item

  00300	c7 84 24 68 04
	00 00 02 00 00
	00		 mov	 DWORD PTR _LogData$[esp+2160], 2
$L180851:
  0030b	89 9c 24 6c 04
	00 00		 mov	 DWORD PTR _LogData$[esp+2164], ebx
$L175610:

; 865  : 
; 866  : 			case 4 :	break;
; 867  : 
; 868  : 			case 5 :	break;
; 869  : 			}
; 870  : 		}
; 871  : 
; 872  : 		pLogItem->dEndTime	=	pItem->m_dEndTime;

  00312	8b 4e 40	 mov	 ecx, DWORD PTR [esi+64]
  00315	8b 56 44	 mov	 edx, DWORD PTR [esi+68]
  00318	8b ac 24 24 08
	00 00		 mov	 ebp, DWORD PTR _pTargetName$[esp+2068]
  0031f	89 8c 24 7c 06
	00 00		 mov	 DWORD PTR _LogData$[esp+2692], ecx
  00326	89 94 24 80 06
	00 00		 mov	 DWORD PTR _LogData$[esp+2696], edx
$L175596:

; 873  : 	}
; 874  : 
; 875  : 	SendDMLog( LogData );

  0032d	b9 fe 00 00 00	 mov	 ecx, 254		; 000000feH
  00332	8d b4 24 10 04
	00 00		 lea	 esi, DWORD PTR _LogData$[esp+2072]
  00339	8d 7c 24 18	 lea	 edi, DWORD PTR $T180815[esp+2072]
  0033d	53		 push	 ebx
  0033e	f3 a5		 rep movsd
  00340	e8 00 00 00 00	 call	 __time64
  00345	89 44 24 14	 mov	 DWORD PTR _tNowTime$180809[esp+2076], eax
  00349	83 c4 04	 add	 esp, 4
  0034c	8d 44 24 18	 lea	 eax, DWORD PTR $T180815[esp+2072]
  00350	50		 push	 eax
  00351	8d 4c 24 14	 lea	 ecx, DWORD PTR _tNowTime$180809[esp+2076]
  00355	89 54 24 18	 mov	 DWORD PTR _tNowTime$180809[esp+2080], edx
  00359	e8 00 00 00 00	 call	 ?GetAsDBTIMESTAMP@CTime@ATL@@QBE_NAAUtagDBTIMESTAMP@@@Z ; ATL::CTime::GetAsDBTIMESTAMP
  0035e	81 ec f8 03 00
	00		 sub	 esp, 1016		; 000003f8H
  00364	8b fc		 mov	 edi, esp
  00366	b9 fe 00 00 00	 mov	 ecx, 254		; 000000feH
  0036b	8d b4 24 10 04
	00 00		 lea	 esi, DWORD PTR $T180815[esp+3088]
  00372	f3 a5		 rep movsd
  00374	b9 00 00 00 00	 mov	 ecx, OFFSET FLAT:?_AtlModule@@3VCTMapSvrModule@@A
  00379	e8 00 00 00 00	 call	 ?SendDM_UDPLOG_REQ@CTMapSvrModule@@QAEXU_LOG_DATA_@@@Z ; CTMapSvrModule::SendDM_UDPLOG_REQ

; 876  : }

  0037e	8d 45 f0	 lea	 eax, DWORD PTR [ebp-16]
$L180850:
  00381	c7 84 24 14 08
	00 00 ff ff ff
	ff		 mov	 DWORD PTR __$EHRec$[esp+2080], -1
  0038c	8d 48 0c	 lea	 ecx, DWORD PTR [eax+12]
  0038f	83 ca ff	 or	 edx, -1
  00392	f0 0f c1 11	 lock	  xadd	 DWORD PTR [ecx], edx
  00396	4a		 dec	 edx
  00397	85 d2		 test	 edx, edx
  00399	7f 08		 jg	 SHORT $L180842
  0039b	8b 08		 mov	 ecx, DWORD PTR [eax]
  0039d	8b 11		 mov	 edx, DWORD PTR [ecx]
  0039f	50		 push	 eax
  003a0	ff 52 04	 call	 DWORD PTR [edx+4]
$L180842:
  003a3	8b 8c 24 0c 08
	00 00		 mov	 ecx, DWORD PTR __$EHRec$[esp+2072]
  003aa	64 89 0d 00 00
	00 00		 mov	 DWORD PTR fs:__except_list, ecx
  003b1	8b 8c 24 08 08
	00 00		 mov	 ecx, DWORD PTR __$ArrayPad$[esp+2072]
  003b8	e8 00 00 00 00	 call	 @__security_check_cookie@4
  003bd	5f		 pop	 edi
  003be	5e		 pop	 esi
  003bf	5d		 pop	 ebp
  003c0	5b		 pop	 ebx
  003c1	81 c4 08 08 00
	00		 add	 esp, 2056		; 00000808H
  003c7	c2 1c 00	 ret	 28			; 0000001cH
  003ca	8b ff		 npad	 2
$L180852:
  003cc	00 00 00 00	 DD	 $L175613
  003d0	00 00 00 00	 DD	 $L175614
  003d4	00 00 00 00	 DD	 $L175614
  003d8	00 00 00 00	 DD	 $L175615
_TEXT	ENDS
;	COMDAT text$x
text$x	SEGMENT
$L180634:
  00000	8d 4d 0c	 lea	 ecx, DWORD PTR _pTargetName$[ebp-4]
  00003	e9 00 00 00 00	 jmp	 ??1?$CStringT@DV?$StrTraitATL@DV?$ChTraitsCRT@D@ATL@@@ATL@@@ATL@@QAE@XZ ; ATL::CStringT<char,ATL::StrTraitATL<char,ATL::ChTraitsCRT<char> > >::~CStringT<char,ATL::StrTraitATL<char,ATL::ChTraitsCRT<char> > >
__ehhandler$?LogItemByStore@CUdpSocket@@QAEXKPAVCTPlayer@@V?$CStringT@DV?$StrTraitATL@DV?$ChTraitsCRT@D@ATL@@@ATL@@@ATL@@PAVCTItem@@_JE@Z:
  00008	b8 00 00 00 00	 mov	 eax, OFFSET FLAT:$T180844
  0000d	e9 00 00 00 00	 jmp	 ___CxxFrameHandler
text$x	ENDS
?LogItemByStore@CUdpSocket@@QAEXKPAVCTPlayer@@V?$CStringT@DV?$StrTraitATL@DV?$ChTraitsCRT@D@ATL@@@ATL@@@ATL@@PAVCTItem@@_JE@Z ENDP ; CUdpSocket::LogItemByStore
PUBLIC	?LogCabinet@CUdpSocket@@QAEXKPAVCTPlayer@@EPAVCTItem@@EH@Z ; CUdpSocket::LogCabinet
; Function compile flags: /Ogty
;	COMDAT ?LogCabinet@CUdpSocket@@QAEXKPAVCTPlayer@@EPAVCTItem@@EH@Z
_TEXT	SEGMENT
_itTMAGIC$175772 = -2052				; size = 4
tv618 = -2048						; size = 4
_tNowTime$180991 = -2048				; size = 8
$T180997 = -2040					; size = 1016
_LogData$ = -1024					; size = 1016
__$ArrayPad$ = -4					; size = 4
__$ReturnAddr$ = 4					; size = 4
_pAction$ = 8						; size = 4
_pPlayer$ = 12						; size = 4
_bCabinetID$ = 16					; size = 1
_pItem$ = 20						; size = 4
_bCount$ = 24						; size = 1
_pMoney$ = 28						; size = 4
?LogCabinet@CUdpSocket@@QAEXKPAVCTPlayer@@EPAVCTItem@@EH@Z PROC NEAR ; CUdpSocket::LogCabinet, COMDAT
; _this$ = ecx

; 1297 : {

  00000	55		 push	 ebp
  00001	8b ec		 mov	 ebp, esp
  00003	83 e4 f8	 and	 esp, -8			; fffffff8H
  00006	81 ec 04 08 00
	00		 sub	 esp, 2052		; 00000804H
  0000c	a1 00 00 00 00	 mov	 eax, DWORD PTR ___security_cookie
  00011	53		 push	 ebx
  00012	56		 push	 esi

; 1298 : 	if(!pPlayer) return;

  00013	8b 75 0c	 mov	 esi, DWORD PTR _pPlayer$[ebp]
  00016	33 db		 xor	 ebx, ebx
  00018	3b f3		 cmp	 esi, ebx
  0001a	89 84 24 08 08
	00 00		 mov	 DWORD PTR __$ArrayPad$[esp+2060], eax
  00021	57		 push	 edi
  00022	0f 84 1f 03 00
	00		 je	 $L180990

; 1299 : 
; 1300 : 	_LOG_DATA_ LogData;
; 1301 : 	memset( &LogData, 0x00, sizeof(_LOG_DATA_));
; 1302 : 
; 1303 : 	LogData.dwAction	=	pAction;
; 1304 : 	LogData.dwServerID	=	_AtlModule.GetServerID();
; 1305 : 
; 1306 : 	lstrcpy( LogData.szClientIP, inet_ntoa(pPlayer->m_addr.sin_addr) );	

  00028	8b 56 40	 mov	 edx, DWORD PTR [esi+64]
  0002b	33 c0		 xor	 eax, eax
  0002d	b9 fe 00 00 00	 mov	 ecx, 254		; 000000feH
  00032	8d bc 24 10 04
	00 00		 lea	 edi, DWORD PTR _LogData$[esp+2064]
  00039	f3 ab		 rep stosd
  0003b	0f b6 0d 82 9e
	00 00		 movzx	 ecx, BYTE PTR ?_AtlModule@@3VCTMapSvrModule@@A+40578
  00042	8b 45 08	 mov	 eax, DWORD PTR _pAction$[ebp]
  00045	52		 push	 edx
  00046	89 84 24 38 04
	00 00		 mov	 DWORD PTR _LogData$[esp+2104], eax
  0004d	89 8c 24 24 04
	00 00		 mov	 DWORD PTR _LogData$[esp+2084], ecx
  00054	ff 15 00 00 00
	00		 call	 DWORD PTR __imp__inet_ntoa@4
  0005a	8b 3d 00 00 00
	00		 mov	 edi, DWORD PTR __imp__lstrcpyA@8
  00060	50		 push	 eax
  00061	8d 84 24 28 04
	00 00		 lea	 eax, DWORD PTR _LogData$[esp+2088]
  00068	50		 push	 eax
  00069	ff d7		 call	 edi

; 1307 : 
; 1308 : 	LogData.wMapID			=	pPlayer->m_wMapID;				//	Map ID

  0006b	66 8b 8e 90 01
	01 00		 mov	 cx, WORD PTR [esi+65936]

; 1309 : 	LogData.nX				=	(int)pPlayer->m_fPosX;			//	X

  00072	d9 86 7c 01 01
	00		 fld	 DWORD PTR [esi+65916]
  00078	66 89 8c 24 38
	04 00 00	 mov	 WORD PTR _LogData$[esp+2104], cx
  00080	e8 00 00 00 00	 call	 __ftol2

; 1310 : 	LogData.nY				=	(int)pPlayer->m_fPosY;			//	Y

  00085	d9 86 80 01 01
	00		 fld	 DWORD PTR [esi+65920]
  0008b	89 84 24 3c 04
	00 00		 mov	 DWORD PTR _LogData$[esp+2108], eax
  00092	e8 00 00 00 00	 call	 __ftol2

; 1311 : 	LogData.nZ				=	(int)pPlayer->m_fPosZ;			//	Z

  00097	d9 86 84 01 01
	00		 fld	 DWORD PTR [esi+65924]
  0009d	89 84 24 40 04
	00 00		 mov	 DWORD PTR _LogData$[esp+2112], eax
  000a4	e8 00 00 00 00	 call	 __ftol2

; 1312 : 
; 1313 : 	LogData.dwKey[0]		=	pPlayer->m_dwUserID;			//	User ID

  000a9	8b 96 ac 03 01
	00		 mov	 edx, DWORD PTR [esi+66476]

; 1314 : 	LogData.dwKey[1]		=	pPlayer->m_dwID;				//	Character Seq
; 1315 : 	lstrcpy(LogData.szKey[1],	pPlayer->m_strNAME	);			//	Character Name

  000af	8b 8e a4 03 01
	00		 mov	 ecx, DWORD PTR [esi+66468]
  000b5	89 94 24 48 04
	00 00		 mov	 DWORD PTR _LogData$[esp+2120], edx
  000bc	89 84 24 44 04
	00 00		 mov	 DWORD PTR _LogData$[esp+2116], eax
  000c3	8b 86 44 01 01
	00		 mov	 eax, DWORD PTR [esi+65860]
  000c9	51		 push	 ecx
  000ca	8d 94 24 d6 04
	00 00		 lea	 edx, DWORD PTR _LogData$[esp+2262]
  000d1	52		 push	 edx
  000d2	89 9c 24 54 04
	00 00		 mov	 DWORD PTR _LogData$[esp+2132], ebx
  000d9	89 84 24 58 04
	00 00		 mov	 DWORD PTR _LogData$[esp+2136], eax
  000e0	89 9c 24 5c 04
	00 00		 mov	 DWORD PTR _LogData$[esp+2140], ebx
  000e7	ff d7		 call	 edi

; 1316 : 	LogData.dwKey[9]		=	pPlayer->m_bCountry + (pPlayer->m_bAidCountry == TCONTRY_N ? 0 : (pPlayer->m_bAidCountry+1)*10);			//	Country

  000e9	8a 86 9e 01 01
	00		 mov	 al, BYTE PTR [esi+65950]
  000ef	3c 03		 cmp	 al, 3
  000f1	75 04		 jne	 SHORT $L180860
  000f3	33 c9		 xor	 ecx, ecx
  000f5	eb 09		 jmp	 SHORT $L180861
$L180860:
  000f7	0f b6 c0	 movzx	 eax, al
  000fa	40		 inc	 eax
  000fb	8d 0c 80	 lea	 ecx, DWORD PTR [eax+eax*4]
  000fe	d1 e1		 shl	 ecx, 1
$L180861:
  00100	0f b6 86 9d 01
	01 00		 movzx	 eax, BYTE PTR [esi+65949]
  00107	03 c1		 add	 eax, ecx
  00109	99		 cdq
  0010a	89 84 24 90 04
	00 00		 mov	 DWORD PTR _LogData$[esp+2192], eax

; 1317 : 	LogData.dwKey[10]		=	pPlayer->m_bLevel;				//	Level

  00111	0f b6 86 7b 01
	01 00		 movzx	 eax, BYTE PTR [esi+65915]
  00118	89 94 24 94 04
	00 00		 mov	 DWORD PTR _LogData$[esp+2196], edx
  0011f	99		 cdq
  00120	89 84 24 98 04
	00 00		 mov	 DWORD PTR _LogData$[esp+2200], eax

; 1318 : 
; 1319 : 	LogData.dwKey[2]		=	bCabinetID;						//	Cabinet ID	

  00127	0f b6 45 10	 movzx	 eax, BYTE PTR _bCabinetID$[ebp]
  0012b	89 94 24 9c 04
	00 00		 mov	 DWORD PTR _LogData$[esp+2204], edx
  00132	99		 cdq
  00133	89 84 24 58 04
	00 00		 mov	 DWORD PTR _LogData$[esp+2136], eax

; 1320 : 	
; 1321 : 	if(pMoney)

  0013a	8b 45 1c	 mov	 eax, DWORD PTR _pMoney$[ebp]
  0013d	3b c3		 cmp	 eax, ebx
  0013f	89 94 24 5c 04
	00 00		 mov	 DWORD PTR _LogData$[esp+2140], edx
  00146	74 3a		 je	 SHORT $L175767

; 1322 : 	{
; 1323 :         LogData.dwKey[5]		=	pMoney;					//	Out Money 
; 1324 : 
; 1325 : 		wsprintf( LogData.szKey[5], "Now Money : %u/%u/%u",		//	Now Money
; 1326 : 												pPlayer->m_dwGold,		
; 1327 : 												pPlayer->m_dwSilver, 
; 1328 : 												pPlayer->m_dwCooper );	

  00148	8b 8e cc 03 01
	00		 mov	 ecx, DWORD PTR [esi+66508]
  0014e	99		 cdq
  0014f	89 84 24 70 04
	00 00		 mov	 DWORD PTR _LogData$[esp+2160], eax
  00156	8b 86 c8 03 01
	00		 mov	 eax, DWORD PTR [esi+66504]
  0015c	50		 push	 eax
  0015d	51		 push	 ecx
  0015e	89 94 24 7c 04
	00 00		 mov	 DWORD PTR _LogData$[esp+2172], edx
  00165	8b 96 d0 03 01
	00		 mov	 edx, DWORD PTR [esi+66512]
  0016b	52		 push	 edx
  0016c	8d 84 24 a6 05
	00 00		 lea	 eax, DWORD PTR _LogData$[esp+2470]
  00173	68 00 00 00 00	 push	 OFFSET FLAT:??_C@_0BF@LNLPBIJG@Now?5Money?5?3?5?$CFu?1?$CFu?1?$CFu?$AA@
  00178	50		 push	 eax
  00179	ff 15 00 00 00
	00		 call	 DWORD PTR __imp__wsprintfA
  0017f	83 c4 14	 add	 esp, 20			; 00000014H
$L175767:

; 1329 : 	}
; 1330 : 
; 1331 : 	if(pItem)

  00182	8b 75 14	 mov	 esi, DWORD PTR _pItem$[ebp]
  00185	3b f3		 cmp	 esi, ebx
  00187	0f 84 68 01 00
	00		 je	 $L175768

; 1332 : 	{
; 1333 : 		LogData.dwKey[3]		=	pItem->m_wItemID;			// Item

  0018d	66 8b 4e 30	 mov	 cx, WORD PTR [esi+48]

; 1334 : 		LogData.dwKey[7]		=	bCount;						//	Count
; 1335 : 		LogData.dwKey[8]		=	pItem->m_dlID;				//	Unique Key
; 1336 : 
; 1337 : 		//
; 1338 : 		//	ITEM INFO
; 1339 : 		//
; 1340 : 		LogData.dwFormat		= LF_ITEM;
; 1341 : 
; 1342 : 		_LPLOG_ITEM_ pLogItem	= (_LPLOG_ITEM_)LogData.szLog;
; 1343 : 		
; 1344 : 		pLogItem->dlID			=	pItem->m_dlID;				//	Unique Number
; 1345 : 		pLogItem->bInven		=	pItem->m_bInven;			//	 
; 1346 : 		pLogItem->bItemID		=	pItem->m_bItemID;			//	 
; 1347 : 
; 1348 : 		pLogItem->wItemID		=	pItem->m_wItemID;			//	 INDEX
; 1349 : 
; 1350 : 		//
; 1351 : 		//	Game Part   
; 1352 : 		//	lstrcpy( pLogItem->szItemName, pItem->m_pTITEM-> )	//	 
; 1353 : 
; 1354 : 		pLogItem->bLevel		=	pItem->m_bLevel;			//	 
; 1355 : 		pLogItem->bCount		=	pItem->m_bCount;				
; 1356 : 
; 1357 : 		pLogItem->bGLevel		=	pItem->m_bGLevel;			//	  
; 1358 : 		pLogItem->dwDuraMax		=	pItem->m_dwDuraMax;			//	 
; 1359 : 		pLogItem->dwDuraCur		=	pItem->m_dwDuraCur;			//	 	
; 1360 : 		pLogItem->bRefineCur	=	pItem->m_bRefineCur;		//	 
; 1361 : 
; 1362 : 		pLogItem->bGradeEffect	=	pItem->m_bGradeEffect;		//	  
; 1363 : 
; 1364 : 		int	nOrder = 0;
; 1365 : 
; 1366 : 		MAPTMAGIC::iterator itTMAGIC;
; 1367 : 		for( itTMAGIC = pItem->m_mapTMAGIC.begin(); itTMAGIC != pItem->m_mapTMAGIC.end(); itTMAGIC++)

  00191	8b 7e 0c	 mov	 edi, DWORD PTR [esi+12]
  00194	0f b7 c1	 movzx	 eax, cx
  00197	99		 cdq
  00198	89 84 24 60 04
	00 00		 mov	 DWORD PTR _LogData$[esp+2144], eax
  0019f	0f b6 45 18	 movzx	 eax, BYTE PTR _bCount$[ebp]
  001a3	89 94 24 64 04
	00 00		 mov	 DWORD PTR _LogData$[esp+2148], edx
  001aa	99		 cdq
  001ab	89 84 24 80 04
	00 00		 mov	 DWORD PTR _LogData$[esp+2176], eax
  001b2	8b 46 20	 mov	 eax, DWORD PTR [esi+32]
  001b5	89 94 24 84 04
	00 00		 mov	 DWORD PTR _LogData$[esp+2180], edx
  001bc	8b 56 24	 mov	 edx, DWORD PTR [esi+36]
  001bf	89 84 24 88 04
	00 00		 mov	 DWORD PTR _LogData$[esp+2184], eax
  001c6	89 84 24 04 06
	00 00		 mov	 DWORD PTR _LogData$[esp+2564], eax
  001cd	8a 46 28	 mov	 al, BYTE PTR [esi+40]
  001d0	89 94 24 8c 04
	00 00		 mov	 DWORD PTR _LogData$[esp+2188], edx
  001d7	89 94 24 08 06
	00 00		 mov	 DWORD PTR _LogData$[esp+2568], edx
  001de	8a 56 2a	 mov	 dl, BYTE PTR [esi+42]
  001e1	88 84 24 0d 06
	00 00		 mov	 BYTE PTR _LogData$[esp+2573], al
  001e8	8a 46 33	 mov	 al, BYTE PTR [esi+51]
  001eb	88 94 24 0c 06
	00 00		 mov	 BYTE PTR _LogData$[esp+2572], dl
  001f2	8a 56 32	 mov	 dl, BYTE PTR [esi+50]
  001f5	66 89 8c 24 0e
	06 00 00	 mov	 WORD PTR _LogData$[esp+2574], cx
  001fd	8a 4e 29	 mov	 cl, BYTE PTR [esi+41]
  00200	88 84 24 44 06
	00 00		 mov	 BYTE PTR _LogData$[esp+2628], al
  00207	8b 46 34	 mov	 eax, DWORD PTR [esi+52]
  0020a	88 8c 24 42 06
	00 00		 mov	 BYTE PTR _LogData$[esp+2626], cl
  00211	8b 4e 38	 mov	 ecx, DWORD PTR [esi+56]
  00214	88 94 24 43 06
	00 00		 mov	 BYTE PTR _LogData$[esp+2627], dl
  0021b	8a 56 3c	 mov	 dl, BYTE PTR [esi+60]
  0021e	89 84 24 48 06
	00 00		 mov	 DWORD PTR _LogData$[esp+2632], eax
  00225	8a 46 68	 mov	 al, BYTE PTR [esi+104]
  00228	c7 84 24 00 06
	00 00 02 00 00
	00		 mov	 DWORD PTR _LogData$[esp+2560], 2
  00233	89 8c 24 4c 06
	00 00		 mov	 DWORD PTR _LogData$[esp+2636], ecx
  0023a	88 94 24 50 06
	00 00		 mov	 BYTE PTR _LogData$[esp+2640], dl
  00241	88 84 24 51 06
	00 00		 mov	 BYTE PTR _LogData$[esp+2641], al
  00248	8b 07		 mov	 eax, DWORD PTR [edi]
  0024a	3b c7		 cmp	 eax, edi
  0024c	89 44 24 0c	 mov	 DWORD PTR _itTMAGIC$175772[esp+2064], eax
  00250	74 3a		 je	 SHORT $L175778

; 1332 : 	{
; 1333 : 		LogData.dwKey[3]		=	pItem->m_wItemID;			// Item

  00252	8d 8c 24 58 06
	00 00		 lea	 ecx, DWORD PTR _LogData$[esp+2648]
  00259	eb 05		 jmp	 SHORT $L180919
$L181001:
  0025b	8b 4c 24 10	 mov	 ecx, DWORD PTR tv618[esp+2064]
  0025f	90		 npad	 1

; 1334 : 		LogData.dwKey[7]		=	bCount;						//	Count
; 1335 : 		LogData.dwKey[8]		=	pItem->m_dlID;				//	Unique Key
; 1336 : 
; 1337 : 		//
; 1338 : 		//	ITEM INFO
; 1339 : 		//
; 1340 : 		LogData.dwFormat		= LF_ITEM;
; 1341 : 
; 1342 : 		_LPLOG_ITEM_ pLogItem	= (_LPLOG_ITEM_)LogData.szLog;
; 1343 : 		
; 1344 : 		pLogItem->dlID			=	pItem->m_dlID;				//	Unique Number
; 1345 : 		pLogItem->bInven		=	pItem->m_bInven;			//	 
; 1346 : 		pLogItem->bItemID		=	pItem->m_bItemID;			//	 
; 1347 : 
; 1348 : 		pLogItem->wItemID		=	pItem->m_wItemID;			//	 INDEX
; 1349 : 
; 1350 : 		//
; 1351 : 		//	Game Part   
; 1352 : 		//	lstrcpy( pLogItem->szItemName, pItem->m_pTITEM-> )	//	 
; 1353 : 
; 1354 : 		pLogItem->bLevel		=	pItem->m_bLevel;			//	 
; 1355 : 		pLogItem->bCount		=	pItem->m_bCount;				
; 1356 : 
; 1357 : 		pLogItem->bGLevel		=	pItem->m_bGLevel;			//	  
; 1358 : 		pLogItem->dwDuraMax		=	pItem->m_dwDuraMax;			//	 
; 1359 : 		pLogItem->dwDuraCur		=	pItem->m_dwDuraCur;			//	 	
; 1360 : 		pLogItem->bRefineCur	=	pItem->m_bRefineCur;		//	 
; 1361 : 
; 1362 : 		pLogItem->bGradeEffect	=	pItem->m_bGradeEffect;		//	  
; 1363 : 
; 1364 : 		int	nOrder = 0;
; 1365 : 
; 1366 : 		MAPTMAGIC::iterator itTMAGIC;
; 1367 : 		for( itTMAGIC = pItem->m_mapTMAGIC.begin(); itTMAGIC != pItem->m_mapTMAGIC.end(); itTMAGIC++)

$L180919:

; 1368 : 		{
; 1369 : 			pLogItem->bMagic[nOrder] =	(*itTMAGIC).first; 

  00260	8a 50 0c	 mov	 dl, BYTE PTR [eax+12]
  00263	88 94 1c 52 06
	00 00		 mov	 BYTE PTR _LogData$[esp+ebx+2642], dl

; 1370 : 			pLogItem->wValue[nOrder] =	(*itTMAGIC).second->m_wValue;

  0026a	8b 40 10	 mov	 eax, DWORD PTR [eax+16]
  0026d	66 8b 10	 mov	 dx, WORD PTR [eax]
  00270	66 89 11	 mov	 WORD PTR [ecx], dx

; 1371 : 
; 1372 : 			nOrder ++;

  00273	83 c1 02	 add	 ecx, 2
  00276	89 4c 24 10	 mov	 DWORD PTR tv618[esp+2064], ecx
  0027a	8d 4c 24 0c	 lea	 ecx, DWORD PTR _itTMAGIC$175772[esp+2064]
  0027e	43		 inc	 ebx
  0027f	e8 00 00 00 00	 call	 ?_Inc@const_iterator@?$_Tree@V?$_Tmap_traits@EPAUtagTMAGIC@@U?$less@E@std@@V?$allocator@U?$pair@$$CBEPAUtagTMAGIC@@@std@@@3@$0A@@std@@@std@@QAEXXZ ; std::_Tree<std::_Tmap_traits<unsigned char,tagTMAGIC *,std::less<unsigned char>,std::allocator<std::pair<unsigned char const ,tagTMAGIC *> >,0> >::const_iterator::_Inc
  00284	8b 44 24 0c	 mov	 eax, DWORD PTR _itTMAGIC$175772[esp+2064]
  00288	3b c7		 cmp	 eax, edi
  0028a	75 cf		 jne	 SHORT $L181001
$L175778:

; 1373 : 		}
; 1374 : 
; 1375 : 		//	Item Type
; 1376 : 		if( pItem->m_bGLevel )

  0028c	8a 46 33	 mov	 al, BYTE PTR [esi+51]
  0028f	84 c0		 test	 al, al
  00291	74 0d		 je	 SHORT $L175779

; 1377 : 		{
; 1378 : 			LogData.dwKey[4] = 3;						//	Seal Item

  00293	c7 84 24 68 04
	00 00 03 00 00
	00		 mov	 DWORD PTR _LogData$[esp+2152], 3

; 1379 : 		}
; 1380 : 		else

  0029e	eb 36		 jmp	 SHORT $L181003
$L175779:

; 1381 : 		{
; 1382 : 			switch(nOrder)

  002a0	83 fb 03	 cmp	 ebx, 3
  002a3	77 3c		 ja	 SHORT $L175782
  002a5	ff 24 9d 00 00
	00 00		 jmp	 DWORD PTR $L181004[ebx*4]
$L175785:

; 1383 : 			{
; 1384 : 			case 0 :	LogData.dwKey[4] = 0;	break;	//	Normal Item

  002ac	33 c0		 xor	 eax, eax
  002ae	89 84 24 68 04
	00 00		 mov	 DWORD PTR _LogData$[esp+2152], eax
  002b5	89 84 24 6c 04
	00 00		 mov	 DWORD PTR _LogData$[esp+2156], eax
  002bc	eb 23		 jmp	 SHORT $L175782
$L175786:

; 1385 : 
; 1386 : 			case 1 : 
; 1387 : 			case 2 :	LogData.dwKey[4] = 1;	break;	//	Magic Item

  002be	c7 84 24 68 04
	00 00 01 00 00
	00		 mov	 DWORD PTR _LogData$[esp+2152], 1
  002c9	eb 0b		 jmp	 SHORT $L181003
$L175787:

; 1388 : 
; 1389 : 			case 3 :	LogData.dwKey[4] = 2;	break;	//	Rare Item

  002cb	c7 84 24 68 04
	00 00 02 00 00
	00		 mov	 DWORD PTR _LogData$[esp+2152], 2
$L181003:
  002d6	c7 84 24 6c 04
	00 00 00 00 00
	00		 mov	 DWORD PTR _LogData$[esp+2156], 0
$L175782:

; 1390 : 
; 1391 : 			case 4 :	break;
; 1392 : 
; 1393 : 			case 5 :	break;
; 1394 : 			}
; 1395 : 		}
; 1396 : 
; 1397 : 		pLogItem->dEndTime	=	pItem->m_dEndTime;

  002e1	8b 46 40	 mov	 eax, DWORD PTR [esi+64]
  002e4	8b 4e 44	 mov	 ecx, DWORD PTR [esi+68]
  002e7	89 84 24 7c 06
	00 00		 mov	 DWORD PTR _LogData$[esp+2684], eax
  002ee	89 8c 24 80 06
	00 00		 mov	 DWORD PTR _LogData$[esp+2688], ecx
$L175768:

; 1398 : 	}
; 1399 : 
; 1400 : 	SendDMLog( LogData );

  002f5	b9 fe 00 00 00	 mov	 ecx, 254		; 000000feH
  002fa	8d b4 24 10 04
	00 00		 lea	 esi, DWORD PTR _LogData$[esp+2064]
  00301	8d 7c 24 18	 lea	 edi, DWORD PTR $T180997[esp+2064]
  00305	6a 00		 push	 0
  00307	f3 a5		 rep movsd
  00309	e8 00 00 00 00	 call	 __time64
  0030e	89 54 24 18	 mov	 DWORD PTR _tNowTime$180991[esp+2072], edx
  00312	83 c4 04	 add	 esp, 4
  00315	8d 54 24 18	 lea	 edx, DWORD PTR $T180997[esp+2064]
  00319	52		 push	 edx
  0031a	8d 4c 24 14	 lea	 ecx, DWORD PTR _tNowTime$180991[esp+2068]
  0031e	89 44 24 14	 mov	 DWORD PTR _tNowTime$180991[esp+2068], eax
  00322	e8 00 00 00 00	 call	 ?GetAsDBTIMESTAMP@CTime@ATL@@QBE_NAAUtagDBTIMESTAMP@@@Z ; ATL::CTime::GetAsDBTIMESTAMP
  00327	81 ec f8 03 00
	00		 sub	 esp, 1016		; 000003f8H
  0032d	8b fc		 mov	 edi, esp
  0032f	b9 fe 00 00 00	 mov	 ecx, 254		; 000000feH
  00334	8d b4 24 10 04
	00 00		 lea	 esi, DWORD PTR $T180997[esp+3080]
  0033b	f3 a5		 rep movsd
  0033d	b9 00 00 00 00	 mov	 ecx, OFFSET FLAT:?_AtlModule@@3VCTMapSvrModule@@A
  00342	e8 00 00 00 00	 call	 ?SendDM_UDPLOG_REQ@CTMapSvrModule@@QAEXU_LOG_DATA_@@@Z ; CTMapSvrModule::SendDM_UDPLOG_REQ
$L180990:

; 1401 : }

  00347	8b 8c 24 0c 08
	00 00		 mov	 ecx, DWORD PTR __$ArrayPad$[esp+2064]
  0034e	e8 00 00 00 00	 call	 @__security_check_cookie@4
  00353	5f		 pop	 edi
  00354	5e		 pop	 esi
  00355	5b		 pop	 ebx
  00356	8b e5		 mov	 esp, ebp
  00358	5d		 pop	 ebp
  00359	c2 18 00	 ret	 24			; 00000018H
$L181004:
  0035c	00 00 00 00	 DD	 $L175785
  00360	00 00 00 00	 DD	 $L175786
  00364	00 00 00 00	 DD	 $L175786
  00368	00 00 00 00	 DD	 $L175787
?LogCabinet@CUdpSocket@@QAEXKPAVCTPlayer@@EPAVCTItem@@EH@Z ENDP ; CUdpSocket::LogCabinet
_TEXT	ENDS
PUBLIC	?LogGuildCabinet@CUdpSocket@@QAEXKPAVCTPlayer@@KV?$CStringT@DV?$StrTraitATL@DV?$ChTraitsCRT@D@ATL@@@ATL@@@ATL@@EPAVCTItem@@EK@Z ; CUdpSocket::LogGuildCabinet
;	COMDAT xdata$x
; File c:\program files (x86)\microsoft visual studio .net 2003\vc7\atlmfc\include\atlsimpstr.h
xdata$x	SEGMENT
$T181215 DD	0ffffffffH
	DD	FLAT:$L181013
$T181206 DD	019930520H
	DD	01H
	DD	FLAT:$T181215
	DD	2 DUP(00H)
	DD	2 DUP(00H)
; Function compile flags: /Ogty
; File c:\users\pierr\desktop\4story - oldschool\sources\tserver\tmapsvr\udpsocket.cpp
xdata$x	ENDS
;	COMDAT ?LogGuildCabinet@CUdpSocket@@QAEXKPAVCTPlayer@@KV?$CStringT@DV?$StrTraitATL@DV?$ChTraitsCRT@D@ATL@@@ATL@@@ATL@@EPAVCTItem@@EK@Z
_TEXT	SEGMENT
_tNowTime$181171 = -2056				; size = 8
_itTMAGIC$176005 = -2056				; size = 4
$T181177 = -2048					; size = 1016
_LogData$ = -1032					; size = 1016
__$ArrayPad$ = -16					; size = 4
__$EHRec$ = -12						; size = 12
__$ReturnAddr$ = 4					; size = 4
_pAction$ = 8						; size = 4
_pPlayer$ = 12						; size = 4
_pGuildID$ = 16						; size = 4
_strGuildName$ = 20					; size = 4
_bCabinetID$ = 24					; size = 1
_pItem$ = 28						; size = 4
_bCount$ = 32						; size = 1
_dwMoney$ = 36						; size = 4
?LogGuildCabinet@CUdpSocket@@QAEXKPAVCTPlayer@@KV?$CStringT@DV?$StrTraitATL@DV?$ChTraitsCRT@D@ATL@@@ATL@@@ATL@@EPAVCTItem@@EK@Z PROC NEAR ; CUdpSocket::LogGuildCabinet, COMDAT
; _this$ = ecx

; 1723 : {

  00000	6a ff		 push	 -1
  00002	68 00 00 00 00	 push	 __ehhandler$?LogGuildCabinet@CUdpSocket@@QAEXKPAVCTPlayer@@KV?$CStringT@DV?$StrTraitATL@DV?$ChTraitsCRT@D@ATL@@@ATL@@@ATL@@EPAVCTItem@@EK@Z
  00007	64 a1 00 00 00
	00		 mov	 eax, DWORD PTR fs:__except_list
  0000d	50		 push	 eax
  0000e	64 89 25 00 00
	00 00		 mov	 DWORD PTR fs:__except_list, esp
  00015	81 ec fc 07 00
	00		 sub	 esp, 2044		; 000007fcH
  0001b	a1 00 00 00 00	 mov	 eax, DWORD PTR ___security_cookie
  00020	53		 push	 ebx
  00021	55		 push	 ebp
  00022	56		 push	 esi
  00023	89 84 24 04 08
	00 00		 mov	 DWORD PTR __$ArrayPad$[esp+2068], eax
  0002a	57		 push	 edi

; 1724 : 	if(!pPlayer) return;

  0002b	8b b4 24 20 08
	00 00		 mov	 esi, DWORD PTR _pPlayer$[esp+2068]
  00032	33 db		 xor	 ebx, ebx
  00034	3b f3		 cmp	 esi, ebx
  00036	89 9c 24 14 08
	00 00		 mov	 DWORD PTR __$EHRec$[esp+2080], ebx
  0003d	0f 84 44 03 00
	00		 je	 $L181212

; 1725 : 
; 1726 : 	_LOG_DATA_ LogData;
; 1727 : 
; 1728 : 	memset( &LogData, 0x00, sizeof(_LOG_DATA_));
; 1729 : 
; 1730 : 	LogData.dwAction	=	pAction;
; 1731 : 	LogData.dwServerID	=	_AtlModule.GetServerID();
; 1732 : 
; 1733 : 	lstrcpy( LogData.szClientIP, inet_ntoa(pPlayer->m_addr.sin_addr) );	

  00043	8b 56 40	 mov	 edx, DWORD PTR [esi+64]
  00046	33 c0		 xor	 eax, eax
  00048	b9 fe 00 00 00	 mov	 ecx, 254		; 000000feH
  0004d	8d bc 24 10 04
	00 00		 lea	 edi, DWORD PTR _LogData$[esp+2072]
  00054	f3 ab		 rep stosd
  00056	0f b6 0d 82 9e
	00 00		 movzx	 ecx, BYTE PTR ?_AtlModule@@3VCTMapSvrModule@@A+40578
  0005d	8b 84 24 1c 08
	00 00		 mov	 eax, DWORD PTR _pAction$[esp+2068]
  00064	52		 push	 edx
  00065	89 84 24 38 04
	00 00		 mov	 DWORD PTR _LogData$[esp+2112], eax
  0006c	89 8c 24 24 04
	00 00		 mov	 DWORD PTR _LogData$[esp+2092], ecx
  00073	ff 15 00 00 00
	00		 call	 DWORD PTR __imp__inet_ntoa@4
  00079	8b 3d 00 00 00
	00		 mov	 edi, DWORD PTR __imp__lstrcpyA@8
  0007f	50		 push	 eax
  00080	8d 84 24 28 04
	00 00		 lea	 eax, DWORD PTR _LogData$[esp+2096]
  00087	50		 push	 eax
  00088	ff d7		 call	 edi

; 1734 : 
; 1735 : 
; 1736 : 	LogData.wMapID			=	pPlayer->m_wMapID;				//	Map ID

  0008a	66 8b 8e 90 01
	01 00		 mov	 cx, WORD PTR [esi+65936]

; 1737 : 	LogData.nX				=	(int)pPlayer->m_fPosX;			//	X

  00091	d9 86 7c 01 01
	00		 fld	 DWORD PTR [esi+65916]
  00097	66 89 8c 24 38
	04 00 00	 mov	 WORD PTR _LogData$[esp+2112], cx
  0009f	e8 00 00 00 00	 call	 __ftol2

; 1738 : 	LogData.nY				=	(int)pPlayer->m_fPosY;			//	Y

  000a4	d9 86 80 01 01
	00		 fld	 DWORD PTR [esi+65920]
  000aa	89 84 24 3c 04
	00 00		 mov	 DWORD PTR _LogData$[esp+2116], eax
  000b1	e8 00 00 00 00	 call	 __ftol2

; 1739 : 	LogData.nZ				=	(int)pPlayer->m_fPosZ;			//	Z

  000b6	d9 86 84 01 01
	00		 fld	 DWORD PTR [esi+65924]
  000bc	89 84 24 40 04
	00 00		 mov	 DWORD PTR _LogData$[esp+2120], eax
  000c3	e8 00 00 00 00	 call	 __ftol2

; 1740 : 
; 1741 : 	LogData.dwKey[0]		=	pPlayer->m_dwUserID;			//	User ID

  000c8	8b 96 ac 03 01
	00		 mov	 edx, DWORD PTR [esi+66476]
  000ce	89 84 24 44 04
	00 00		 mov	 DWORD PTR _LogData$[esp+2124], eax

; 1742 : 	LogData.dwKey[1]		=	pPlayer->m_dwID;				//	Character Seq

  000d5	8b 86 44 01 01
	00		 mov	 eax, DWORD PTR [esi+65860]
  000db	89 84 24 50 04
	00 00		 mov	 DWORD PTR _LogData$[esp+2136], eax

; 1743 : 	lstrcpy(LogData.szKey[1],	pPlayer->m_strNAME	);			//	Character Name

  000e2	8b 86 a4 03 01
	00		 mov	 eax, DWORD PTR [esi+66468]
  000e8	50		 push	 eax
  000e9	8d 8c 24 d6 04
	00 00		 lea	 ecx, DWORD PTR _LogData$[esp+2270]
  000f0	51		 push	 ecx
  000f1	89 94 24 50 04
	00 00		 mov	 DWORD PTR _LogData$[esp+2136], edx
  000f8	89 9c 24 54 04
	00 00		 mov	 DWORD PTR _LogData$[esp+2140], ebx
  000ff	89 9c 24 5c 04
	00 00		 mov	 DWORD PTR _LogData$[esp+2148], ebx
  00106	ff d7		 call	 edi

; 1744 : 	LogData.dwKey[9]		=	pPlayer->m_bCountry + (pPlayer->m_bAidCountry == TCONTRY_N ? 0 : (pPlayer->m_bAidCountry+1)*10);			//	Country

  00108	8a 86 9e 01 01
	00		 mov	 al, BYTE PTR [esi+65950]
  0010e	3c 03		 cmp	 al, 3
  00110	75 04		 jne	 SHORT $L181008
  00112	33 c9		 xor	 ecx, ecx
  00114	eb 09		 jmp	 SHORT $L181009
$L181008:
  00116	0f b6 c0	 movzx	 eax, al
  00119	40		 inc	 eax
  0011a	8d 0c 80	 lea	 ecx, DWORD PTR [eax+eax*4]
  0011d	d1 e1		 shl	 ecx, 1
$L181009:
  0011f	0f b6 86 9d 01
	01 00		 movzx	 eax, BYTE PTR [esi+65949]
  00126	03 c1		 add	 eax, ecx
  00128	99		 cdq
  00129	89 84 24 90 04
	00 00		 mov	 DWORD PTR _LogData$[esp+2200], eax

; 1745 : 	LogData.dwKey[10]		=	pPlayer->m_bLevel;				//	Level

  00130	0f b6 86 7b 01
	01 00		 movzx	 eax, BYTE PTR [esi+65915]
  00137	89 94 24 94 04
	00 00		 mov	 DWORD PTR _LogData$[esp+2204], edx
  0013e	99		 cdq
  0013f	89 84 24 98 04
	00 00		 mov	 DWORD PTR _LogData$[esp+2208], eax

; 1746 : 
; 1747 : 	LogData.dwKey[2]		=	bCabinetID;						//	Cabinet ID	

  00146	0f b6 84 24 2c
	08 00 00	 movzx	 eax, BYTE PTR _bCabinetID$[esp+2068]
  0014e	89 94 24 9c 04
	00 00		 mov	 DWORD PTR _LogData$[esp+2212], edx
  00155	99		 cdq
  00156	89 84 24 58 04
	00 00		 mov	 DWORD PTR _LogData$[esp+2144], eax

; 1748 : 	
; 1749 : 	LogData.dwKey[4]		=	pPlayer->m_dwGuildID;			//	Guild
; 1750 : 	lstrcpy(LogData.szKey[4],	pPlayer->m_strGuildName	);

  0015d	8b 86 b4 01 01
	00		 mov	 eax, DWORD PTR [esi+65972]
  00163	50		 push	 eax
  00164	89 94 24 60 04
	00 00		 mov	 DWORD PTR _LogData$[esp+2152], edx
  0016b	8b 96 b0 01 01
	00		 mov	 edx, DWORD PTR [esi+65968]
  00171	8d 84 24 6c 05
	00 00		 lea	 eax, DWORD PTR _LogData$[esp+2420]
  00178	50		 push	 eax
  00179	89 94 24 70 04
	00 00		 mov	 DWORD PTR _LogData$[esp+2168], edx
  00180	89 9c 24 74 04
	00 00		 mov	 DWORD PTR _LogData$[esp+2172], ebx
  00187	ff d7		 call	 edi

; 1751 :     
; 1752 : 	if(dwMoney)

  00189	8b 84 24 38 08
	00 00		 mov	 eax, DWORD PTR _dwMoney$[esp+2068]
  00190	3b c3		 cmp	 eax, ebx
  00192	74 39		 je	 SHORT $L176000

; 1753 : 	{
; 1754 :         LogData.dwKey[5]		=	dwMoney;					//	Out Money 
; 1755 : 		wsprintf( LogData.szKey[5], "Now Money : %u/%u/%u",		//	Now Money
; 1756 : 												pPlayer->m_dwGold,		
; 1757 : 												pPlayer->m_dwSilver, 
; 1758 : 												pPlayer->m_dwCooper );	

  00194	8b 8e c8 03 01
	00		 mov	 ecx, DWORD PTR [esi+66504]
  0019a	8b 96 cc 03 01
	00		 mov	 edx, DWORD PTR [esi+66508]
  001a0	51		 push	 ecx
  001a1	52		 push	 edx
  001a2	89 84 24 78 04
	00 00		 mov	 DWORD PTR _LogData$[esp+2176], eax
  001a9	8b 86 d0 03 01
	00		 mov	 eax, DWORD PTR [esi+66512]
  001af	50		 push	 eax
  001b0	8d 8c 24 a6 05
	00 00		 lea	 ecx, DWORD PTR _LogData$[esp+2478]
  001b7	68 00 00 00 00	 push	 OFFSET FLAT:??_C@_0BF@LNLPBIJG@Now?5Money?5?3?5?$CFu?1?$CFu?1?$CFu?$AA@
  001bc	51		 push	 ecx
  001bd	89 9c 24 88 04
	00 00		 mov	 DWORD PTR _LogData$[esp+2192], ebx
  001c4	ff 15 00 00 00
	00		 call	 DWORD PTR __imp__wsprintfA
  001ca	83 c4 14	 add	 esp, 20			; 00000014H
$L176000:

; 1759 : 	}
; 1760 : 
; 1761 : 	if(pItem)

  001cd	8b b4 24 30 08
	00 00		 mov	 esi, DWORD PTR _pItem$[esp+2068]
  001d4	3b f3		 cmp	 esi, ebx
  001d6	0f 84 5a 01 00
	00		 je	 $L176001

; 1762 : 	{		
; 1763 : 		LogData.dwKey[3]		=	pItem->m_wItemID;			//	Item

  001dc	66 8b 4e 30	 mov	 cx, WORD PTR [esi+48]

; 1764 : 		LogData.dwKey[7]		=	bCount;						//	Count
; 1765 : 		LogData.dwKey[8]		=	pItem->m_dlID;				//	Unique Key
; 1766 : 
; 1767 : 		//
; 1768 : 		//	ITEM INFO
; 1769 : 		//
; 1770 : 		LogData.dwFormat		= LF_ITEM;
; 1771 : 
; 1772 : 		_LPLOG_ITEM_ pLogItem	= (_LPLOG_ITEM_)LogData.szLog;
; 1773 : 
; 1774 : 		pLogItem->dlID			=	pItem->m_dlID;				//	Unique Number
; 1775 : 		pLogItem->bInven		=	pItem->m_bInven;			//	 
; 1776 : 		pLogItem->bItemID		=	pItem->m_bItemID;			//	 
; 1777 : 		pLogItem->wItemID		=	pItem->m_wItemID;			//	 INDEX
; 1778 : 
; 1779 : 
; 1780 : 		//
; 1781 : 		//	Game Part   
; 1782 : 		//	lstrcpy( pLogItem->szItemName, pItem->m_pTITEM-> )	//	 
; 1783 : 
; 1784 : 		pLogItem->bLevel		=	pItem->m_bLevel;			//	 
; 1785 : 		pLogItem->bCount		=	pItem->m_bCount;				
; 1786 : 
; 1787 : 		pLogItem->bGLevel		=	pItem->m_bGLevel;			//	  
; 1788 : 		pLogItem->dwDuraMax		=	pItem->m_dwDuraMax;			//	 
; 1789 : 		pLogItem->dwDuraCur		=	pItem->m_dwDuraCur;			//	 	
; 1790 : 		pLogItem->bRefineCur	=	pItem->m_bRefineCur;		//	 
; 1791 : 
; 1792 : 		pLogItem->bGradeEffect	=	pItem->m_bGradeEffect;		//	  
; 1793 : 
; 1794 : 		int	nOrder = 0;
; 1795 : 
; 1796 : 		MAPTMAGIC::iterator itTMAGIC;
; 1797 : 		for( itTMAGIC = pItem->m_mapTMAGIC.begin(); itTMAGIC != pItem->m_mapTMAGIC.end(); itTMAGIC++)

  001e0	8b 7e 0c	 mov	 edi, DWORD PTR [esi+12]
  001e3	0f b7 c1	 movzx	 eax, cx
  001e6	99		 cdq
  001e7	89 84 24 60 04
	00 00		 mov	 DWORD PTR _LogData$[esp+2152], eax
  001ee	0f b6 84 24 34
	08 00 00	 movzx	 eax, BYTE PTR _bCount$[esp+2068]
  001f6	89 94 24 64 04
	00 00		 mov	 DWORD PTR _LogData$[esp+2156], edx
  001fd	99		 cdq
  001fe	89 84 24 80 04
	00 00		 mov	 DWORD PTR _LogData$[esp+2184], eax
  00205	8b 46 20	 mov	 eax, DWORD PTR [esi+32]
  00208	89 94 24 84 04
	00 00		 mov	 DWORD PTR _LogData$[esp+2188], edx
  0020f	8b 56 24	 mov	 edx, DWORD PTR [esi+36]
  00212	89 84 24 88 04
	00 00		 mov	 DWORD PTR _LogData$[esp+2192], eax
  00219	89 84 24 04 06
	00 00		 mov	 DWORD PTR _LogData$[esp+2572], eax
  00220	8a 46 28	 mov	 al, BYTE PTR [esi+40]
  00223	89 94 24 8c 04
	00 00		 mov	 DWORD PTR _LogData$[esp+2196], edx
  0022a	89 94 24 08 06
	00 00		 mov	 DWORD PTR _LogData$[esp+2576], edx
  00231	8a 56 2a	 mov	 dl, BYTE PTR [esi+42]
  00234	88 84 24 0d 06
	00 00		 mov	 BYTE PTR _LogData$[esp+2581], al
  0023b	8a 46 33	 mov	 al, BYTE PTR [esi+51]
  0023e	88 94 24 0c 06
	00 00		 mov	 BYTE PTR _LogData$[esp+2580], dl
  00245	8a 56 32	 mov	 dl, BYTE PTR [esi+50]
  00248	66 89 8c 24 0e
	06 00 00	 mov	 WORD PTR _LogData$[esp+2582], cx
  00250	8a 4e 29	 mov	 cl, BYTE PTR [esi+41]
  00253	88 84 24 44 06
	00 00		 mov	 BYTE PTR _LogData$[esp+2636], al
  0025a	8b 46 34	 mov	 eax, DWORD PTR [esi+52]
  0025d	88 8c 24 42 06
	00 00		 mov	 BYTE PTR _LogData$[esp+2634], cl
  00264	8b 4e 38	 mov	 ecx, DWORD PTR [esi+56]
  00267	88 94 24 43 06
	00 00		 mov	 BYTE PTR _LogData$[esp+2635], dl
  0026e	8a 56 3c	 mov	 dl, BYTE PTR [esi+60]
  00271	89 84 24 48 06
	00 00		 mov	 DWORD PTR _LogData$[esp+2640], eax
  00278	8a 46 68	 mov	 al, BYTE PTR [esi+104]
  0027b	c7 84 24 00 06
	00 00 02 00 00
	00		 mov	 DWORD PTR _LogData$[esp+2568], 2
  00286	89 8c 24 4c 06
	00 00		 mov	 DWORD PTR _LogData$[esp+2644], ecx
  0028d	88 94 24 50 06
	00 00		 mov	 BYTE PTR _LogData$[esp+2648], dl
  00294	88 84 24 51 06
	00 00		 mov	 BYTE PTR _LogData$[esp+2649], al
  0029b	8b 07		 mov	 eax, DWORD PTR [edi]
  0029d	33 ed		 xor	 ebp, ebp
  0029f	3b c7		 cmp	 eax, edi
  002a1	89 44 24 10	 mov	 DWORD PTR _itTMAGIC$176005[esp+2072], eax
  002a5	74 33		 je	 SHORT $L176011

; 1762 : 	{		
; 1763 : 		LogData.dwKey[3]		=	pItem->m_wItemID;			//	Item

  002a7	8d 9c 24 58 06
	00 00		 lea	 ebx, DWORD PTR _LogData$[esp+2656]
  002ae	8b ff		 npad	 2

; 1764 : 		LogData.dwKey[7]		=	bCount;						//	Count
; 1765 : 		LogData.dwKey[8]		=	pItem->m_dlID;				//	Unique Key
; 1766 : 
; 1767 : 		//
; 1768 : 		//	ITEM INFO
; 1769 : 		//
; 1770 : 		LogData.dwFormat		= LF_ITEM;
; 1771 : 
; 1772 : 		_LPLOG_ITEM_ pLogItem	= (_LPLOG_ITEM_)LogData.szLog;
; 1773 : 
; 1774 : 		pLogItem->dlID			=	pItem->m_dlID;				//	Unique Number
; 1775 : 		pLogItem->bInven		=	pItem->m_bInven;			//	 
; 1776 : 		pLogItem->bItemID		=	pItem->m_bItemID;			//	 
; 1777 : 		pLogItem->wItemID		=	pItem->m_wItemID;			//	 INDEX
; 1778 : 
; 1779 : 
; 1780 : 		//
; 1781 : 		//	Game Part   
; 1782 : 		//	lstrcpy( pLogItem->szItemName, pItem->m_pTITEM-> )	//	 
; 1783 : 
; 1784 : 		pLogItem->bLevel		=	pItem->m_bLevel;			//	 
; 1785 : 		pLogItem->bCount		=	pItem->m_bCount;				
; 1786 : 
; 1787 : 		pLogItem->bGLevel		=	pItem->m_bGLevel;			//	  
; 1788 : 		pLogItem->dwDuraMax		=	pItem->m_dwDuraMax;			//	 
; 1789 : 		pLogItem->dwDuraCur		=	pItem->m_dwDuraCur;			//	 	
; 1790 : 		pLogItem->bRefineCur	=	pItem->m_bRefineCur;		//	 
; 1791 : 
; 1792 : 		pLogItem->bGradeEffect	=	pItem->m_bGradeEffect;		//	  
; 1793 : 
; 1794 : 		int	nOrder = 0;
; 1795 : 
; 1796 : 		MAPTMAGIC::iterator itTMAGIC;
; 1797 : 		for( itTMAGIC = pItem->m_mapTMAGIC.begin(); itTMAGIC != pItem->m_mapTMAGIC.end(); itTMAGIC++)

$L181099:

; 1798 : 		{
; 1799 : 			pLogItem->bMagic[nOrder] =	(*itTMAGIC).first; 

  002b0	8a 48 0c	 mov	 cl, BYTE PTR [eax+12]
  002b3	88 8c 2c 52 06
	00 00		 mov	 BYTE PTR _LogData$[esp+ebp+2650], cl

; 1800 : 			pLogItem->wValue[nOrder] =	(*itTMAGIC).second->m_wValue;

  002ba	8b 50 10	 mov	 edx, DWORD PTR [eax+16]
  002bd	66 8b 02	 mov	 ax, WORD PTR [edx]
  002c0	66 89 03	 mov	 WORD PTR [ebx], ax
  002c3	8d 4c 24 10	 lea	 ecx, DWORD PTR _itTMAGIC$176005[esp+2072]

; 1801 : 
; 1802 : 			nOrder ++;

  002c7	45		 inc	 ebp
  002c8	83 c3 02	 add	 ebx, 2
  002cb	e8 00 00 00 00	 call	 ?_Inc@const_iterator@?$_Tree@V?$_Tmap_traits@EPAUtagTMAGIC@@U?$less@E@std@@V?$allocator@U?$pair@$$CBEPAUtagTMAGIC@@@std@@@3@$0A@@std@@@std@@QAEXXZ ; std::_Tree<std::_Tmap_traits<unsigned char,tagTMAGIC *,std::less<unsigned char>,std::allocator<std::pair<unsigned char const ,tagTMAGIC *> >,0> >::const_iterator::_Inc
  002d0	8b 44 24 10	 mov	 eax, DWORD PTR _itTMAGIC$176005[esp+2072]
  002d4	3b c7		 cmp	 eax, edi
  002d6	75 d8		 jne	 SHORT $L181099

; 1764 : 		LogData.dwKey[7]		=	bCount;						//	Count
; 1765 : 		LogData.dwKey[8]		=	pItem->m_dlID;				//	Unique Key
; 1766 : 
; 1767 : 		//
; 1768 : 		//	ITEM INFO
; 1769 : 		//
; 1770 : 		LogData.dwFormat		= LF_ITEM;
; 1771 : 
; 1772 : 		_LPLOG_ITEM_ pLogItem	= (_LPLOG_ITEM_)LogData.szLog;
; 1773 : 
; 1774 : 		pLogItem->dlID			=	pItem->m_dlID;				//	Unique Number
; 1775 : 		pLogItem->bInven		=	pItem->m_bInven;			//	 
; 1776 : 		pLogItem->bItemID		=	pItem->m_bItemID;			//	 
; 1777 : 		pLogItem->wItemID		=	pItem->m_wItemID;			//	 INDEX
; 1778 : 
; 1779 : 
; 1780 : 		//
; 1781 : 		//	Game Part   
; 1782 : 		//	lstrcpy( pLogItem->szItemName, pItem->m_pTITEM-> )	//	 
; 1783 : 
; 1784 : 		pLogItem->bLevel		=	pItem->m_bLevel;			//	 
; 1785 : 		pLogItem->bCount		=	pItem->m_bCount;				
; 1786 : 
; 1787 : 		pLogItem->bGLevel		=	pItem->m_bGLevel;			//	  
; 1788 : 		pLogItem->dwDuraMax		=	pItem->m_dwDuraMax;			//	 
; 1789 : 		pLogItem->dwDuraCur		=	pItem->m_dwDuraCur;			//	 	
; 1790 : 		pLogItem->bRefineCur	=	pItem->m_bRefineCur;		//	 
; 1791 : 
; 1792 : 		pLogItem->bGradeEffect	=	pItem->m_bGradeEffect;		//	  
; 1793 : 
; 1794 : 		int	nOrder = 0;
; 1795 : 
; 1796 : 		MAPTMAGIC::iterator itTMAGIC;
; 1797 : 		for( itTMAGIC = pItem->m_mapTMAGIC.begin(); itTMAGIC != pItem->m_mapTMAGIC.end(); itTMAGIC++)

  002d8	33 db		 xor	 ebx, ebx
$L176011:

; 1803 : 		}
; 1804 : 
; 1805 : 		//	Item Type
; 1806 : 		if( pItem->m_bGLevel )

  002da	8a 46 33	 mov	 al, BYTE PTR [esi+51]
  002dd	84 c0		 test	 al, al
  002df	74 0d		 je	 SHORT $L176012

; 1807 : 		{
; 1808 : 			LogData.dwKey[4] = 3;						//	Seal Item

  002e1	c7 84 24 68 04
	00 00 03 00 00
	00		 mov	 DWORD PTR _LogData$[esp+2160], 3

; 1809 : 		}
; 1810 : 		else

  002ec	eb 2d		 jmp	 SHORT $L181213
$L176012:

; 1811 : 		{
; 1812 : 			switch(nOrder)

  002ee	83 fd 03	 cmp	 ebp, 3
  002f1	77 2f		 ja	 SHORT $L176015
  002f3	ff 24 ad 00 00
	00 00		 jmp	 DWORD PTR $L181214[ebp*4]
$L176018:

; 1813 : 			{
; 1814 : 			case 0 :	LogData.dwKey[4] = 0;	break;	//	Normal Item

  002fa	89 9c 24 68 04
	00 00		 mov	 DWORD PTR _LogData$[esp+2160], ebx
  00301	eb 18		 jmp	 SHORT $L181213
$L176019:

; 1815 : 
; 1816 : 			case 1 : 
; 1817 : 			case 2 :	LogData.dwKey[4] = 1;	break;	//	Magic Item

  00303	c7 84 24 68 04
	00 00 01 00 00
	00		 mov	 DWORD PTR _LogData$[esp+2160], 1
  0030e	eb 0b		 jmp	 SHORT $L181213
$L176020:

; 1818 : 
; 1819 : 			case 3 :	LogData.dwKey[4] = 2;	break;	//	Rare Item

  00310	c7 84 24 68 04
	00 00 02 00 00
	00		 mov	 DWORD PTR _LogData$[esp+2160], 2
$L181213:
  0031b	89 9c 24 6c 04
	00 00		 mov	 DWORD PTR _LogData$[esp+2164], ebx
$L176015:

; 1820 : 
; 1821 : 			case 4 :	break;
; 1822 : 
; 1823 : 			case 5 :	break;
; 1824 : 			}
; 1825 : 		}
; 1826 : 
; 1827 : 		pLogItem->dEndTime	=	pItem->m_dEndTime;

  00322	8b 4e 40	 mov	 ecx, DWORD PTR [esi+64]
  00325	8b 56 44	 mov	 edx, DWORD PTR [esi+68]
  00328	89 8c 24 7c 06
	00 00		 mov	 DWORD PTR _LogData$[esp+2692], ecx
  0032f	89 94 24 80 06
	00 00		 mov	 DWORD PTR _LogData$[esp+2696], edx
$L176001:

; 1828 : 	}
; 1829 : 
; 1830 : 	SendDMLog( LogData );

  00336	b9 fe 00 00 00	 mov	 ecx, 254		; 000000feH
  0033b	8d b4 24 10 04
	00 00		 lea	 esi, DWORD PTR _LogData$[esp+2072]
  00342	8d 7c 24 18	 lea	 edi, DWORD PTR $T181177[esp+2072]
  00346	53		 push	 ebx
  00347	f3 a5		 rep movsd
  00349	e8 00 00 00 00	 call	 __time64
  0034e	89 44 24 14	 mov	 DWORD PTR _tNowTime$181171[esp+2076], eax
  00352	83 c4 04	 add	 esp, 4
  00355	8d 44 24 18	 lea	 eax, DWORD PTR $T181177[esp+2072]
  00359	50		 push	 eax
  0035a	8d 4c 24 14	 lea	 ecx, DWORD PTR _tNowTime$181171[esp+2076]
  0035e	89 54 24 18	 mov	 DWORD PTR _tNowTime$181171[esp+2080], edx
  00362	e8 00 00 00 00	 call	 ?GetAsDBTIMESTAMP@CTime@ATL@@QBE_NAAUtagDBTIMESTAMP@@@Z ; ATL::CTime::GetAsDBTIMESTAMP
  00367	81 ec f8 03 00
	00		 sub	 esp, 1016		; 000003f8H
  0036d	8b fc		 mov	 edi, esp
  0036f	b9 fe 00 00 00	 mov	 ecx, 254		; 000000feH
  00374	8d b4 24 10 04
	00 00		 lea	 esi, DWORD PTR $T181177[esp+3088]
  0037b	f3 a5		 rep movsd
  0037d	b9 00 00 00 00	 mov	 ecx, OFFSET FLAT:?_AtlModule@@3VCTMapSvrModule@@A
  00382	e8 00 00 00 00	 call	 ?SendDM_UDPLOG_REQ@CTMapSvrModule@@QAEXU_LOG_DATA_@@@Z ; CTMapSvrModule::SendDM_UDPLOG_REQ
$L181212:

; 1831 : }

  00387	8b 84 24 28 08
	00 00		 mov	 eax, DWORD PTR _strGuildName$[esp+2068]
  0038e	83 c0 f0	 add	 eax, -16		; fffffff0H
  00391	c7 84 24 14 08
	00 00 ff ff ff
	ff		 mov	 DWORD PTR __$EHRec$[esp+2080], -1
  0039c	8d 48 0c	 lea	 ecx, DWORD PTR [eax+12]
  0039f	83 ca ff	 or	 edx, -1
  003a2	f0 0f c1 11	 lock	  xadd	 DWORD PTR [ecx], edx
  003a6	4a		 dec	 edx
  003a7	85 d2		 test	 edx, edx
  003a9	7f 08		 jg	 SHORT $L181203
  003ab	8b 08		 mov	 ecx, DWORD PTR [eax]
  003ad	8b 11		 mov	 edx, DWORD PTR [ecx]
  003af	50		 push	 eax
  003b0	ff 52 04	 call	 DWORD PTR [edx+4]
$L181203:
  003b3	8b 8c 24 0c 08
	00 00		 mov	 ecx, DWORD PTR __$EHRec$[esp+2072]
  003ba	64 89 0d 00 00
	00 00		 mov	 DWORD PTR fs:__except_list, ecx
  003c1	8b 8c 24 08 08
	00 00		 mov	 ecx, DWORD PTR __$ArrayPad$[esp+2072]
  003c8	e8 00 00 00 00	 call	 @__security_check_cookie@4
  003cd	5f		 pop	 edi
  003ce	5e		 pop	 esi
  003cf	5d		 pop	 ebp
  003d0	5b		 pop	 ebx
  003d1	81 c4 08 08 00
	00		 add	 esp, 2056		; 00000808H
  003d7	c2 20 00	 ret	 32			; 00000020H
  003da	8b ff		 npad	 2
$L181214:
  003dc	00 00 00 00	 DD	 $L176018
  003e0	00 00 00 00	 DD	 $L176019
  003e4	00 00 00 00	 DD	 $L176019
  003e8	00 00 00 00	 DD	 $L176020
_TEXT	ENDS
;	COMDAT text$x
text$x	SEGMENT
$L181013:
  00000	8d 4d 10	 lea	 ecx, DWORD PTR _strGuildName$[ebp-4]
  00003	e9 00 00 00 00	 jmp	 ??1?$CStringT@DV?$StrTraitATL@DV?$ChTraitsCRT@D@ATL@@@ATL@@@ATL@@QAE@XZ ; ATL::CStringT<char,ATL::StrTraitATL<char,ATL::ChTraitsCRT<char> > >::~CStringT<char,ATL::StrTraitATL<char,ATL::ChTraitsCRT<char> > >
__ehhandler$?LogGuildCabinet@CUdpSocket@@QAEXKPAVCTPlayer@@KV?$CStringT@DV?$StrTraitATL@DV?$ChTraitsCRT@D@ATL@@@ATL@@@ATL@@EPAVCTItem@@EK@Z:
  00008	b8 00 00 00 00	 mov	 eax, OFFSET FLAT:$T181206
  0000d	e9 00 00 00 00	 jmp	 ___CxxFrameHandler
text$x	ENDS
?LogGuildCabinet@CUdpSocket@@QAEXKPAVCTPlayer@@KV?$CStringT@DV?$StrTraitATL@DV?$ChTraitsCRT@D@ATL@@@ATL@@@ATL@@EPAVCTItem@@EK@Z ENDP ; CUdpSocket::LogGuildCabinet
PUBLIC	?LogCashItem@CUdpSocket@@QAEXKPAVCTPlayer@@KV?$CStringT@DV?$StrTraitATL@DV?$ChTraitsCRT@D@ATL@@@ATL@@@ATL@@PAVCTItem@@HHH@Z ; CUdpSocket::LogCashItem
;	COMDAT xdata$x
; File c:\program files (x86)\microsoft visual studio .net 2003\vc7\atlmfc\include\atlsimpstr.h
xdata$x	SEGMENT
$T181447 DD	0ffffffffH
	DD	FLAT:$L181227
$T181437 DD	019930520H
	DD	01H
	DD	FLAT:$T181447
	DD	2 DUP(00H)
	DD	2 DUP(00H)
; Function compile flags: /Ogty
; File c:\users\pierr\desktop\4story - oldschool\sources\tserver\tmapsvr\udpsocket.cpp
xdata$x	ENDS
;	COMDAT ?LogCashItem@CUdpSocket@@QAEXKPAVCTPlayer@@KV?$CStringT@DV?$StrTraitATL@DV?$ChTraitsCRT@D@ATL@@@ATL@@@ATL@@PAVCTItem@@HHH@Z
_TEXT	SEGMENT
_tNowTime$181407 = -2056				; size = 8
_itTMAGIC$176046 = -2056				; size = 4
$T181408 = -2048					; size = 1016
_LogData$ = -1032					; size = 1016
__$ArrayPad$ = -16					; size = 4
__$EHRec$ = -12						; size = 12
__$ReturnAddr$ = 4					; size = 4
_pAction$ = 8						; size = 4
_pPlayer$ = 12						; size = 4
_pTargetID$ = 16					; size = 4
_pTargetName$ = 20					; size = 4
_pItem$ = 24						; size = 4
_pCashID$ = 28						; size = 4
_pCash$ = 32						; size = 4
_pBonus$ = 36						; size = 4
?LogCashItem@CUdpSocket@@QAEXKPAVCTPlayer@@KV?$CStringT@DV?$StrTraitATL@DV?$ChTraitsCRT@D@ATL@@@ATL@@@ATL@@PAVCTItem@@HHH@Z PROC NEAR ; CUdpSocket::LogCashItem, COMDAT
; _this$ = ecx

; 1837 : {

  00000	6a ff		 push	 -1
  00002	68 00 00 00 00	 push	 __ehhandler$?LogCashItem@CUdpSocket@@QAEXKPAVCTPlayer@@KV?$CStringT@DV?$StrTraitATL@DV?$ChTraitsCRT@D@ATL@@@ATL@@@ATL@@PAVCTItem@@HHH@Z
  00007	64 a1 00 00 00
	00		 mov	 eax, DWORD PTR fs:__except_list
  0000d	50		 push	 eax
  0000e	64 89 25 00 00
	00 00		 mov	 DWORD PTR fs:__except_list, esp
  00015	81 ec fc 07 00
	00		 sub	 esp, 2044		; 000007fcH
  0001b	a1 00 00 00 00	 mov	 eax, DWORD PTR ___security_cookie
  00020	53		 push	 ebx
  00021	55		 push	 ebp
  00022	56		 push	 esi
  00023	89 84 24 04 08
	00 00		 mov	 DWORD PTR __$ArrayPad$[esp+2068], eax
  0002a	57		 push	 edi

; 1838 : 	if(!pPlayer) return;

  0002b	8b b4 24 20 08
	00 00		 mov	 esi, DWORD PTR _pPlayer$[esp+2068]
  00032	33 ed		 xor	 ebp, ebp
  00034	3b f5		 cmp	 esi, ebp
  00036	89 ac 24 14 08
	00 00		 mov	 DWORD PTR __$EHRec$[esp+2080], ebp
  0003d	75 0f		 jne	 SHORT $L176034
  0003f	8b 84 24 28 08
	00 00		 mov	 eax, DWORD PTR _pTargetName$[esp+2068]
  00046	83 c0 f0	 add	 eax, -16		; fffffff0H
  00049	e9 50 03 00 00	 jmp	 $L181444
$L176034:

; 1839 : 
; 1840 : 	_LOG_DATA_ LogData;
; 1841 : 	memset( &LogData, 0x00, sizeof(_LOG_DATA_));
; 1842 : 
; 1843 : 	LogData.dwAction	=	pAction;
; 1844 : 	LogData.dwServerID	=	_AtlModule.GetServerID();
; 1845 : 
; 1846 : 	lstrcpy( LogData.szClientIP, inet_ntoa(pPlayer->m_addr.sin_addr) );

  0004e	8b 56 40	 mov	 edx, DWORD PTR [esi+64]
  00051	33 c0		 xor	 eax, eax
  00053	b9 fe 00 00 00	 mov	 ecx, 254		; 000000feH
  00058	8d bc 24 10 04
	00 00		 lea	 edi, DWORD PTR _LogData$[esp+2072]
  0005f	f3 ab		 rep stosd
  00061	0f b6 0d 82 9e
	00 00		 movzx	 ecx, BYTE PTR ?_AtlModule@@3VCTMapSvrModule@@A+40578
  00068	8b 84 24 1c 08
	00 00		 mov	 eax, DWORD PTR _pAction$[esp+2068]
  0006f	52		 push	 edx
  00070	89 84 24 38 04
	00 00		 mov	 DWORD PTR _LogData$[esp+2112], eax
  00077	89 8c 24 24 04
	00 00		 mov	 DWORD PTR _LogData$[esp+2092], ecx
  0007e	ff 15 00 00 00
	00		 call	 DWORD PTR __imp__inet_ntoa@4
  00084	8b 3d 00 00 00
	00		 mov	 edi, DWORD PTR __imp__lstrcpyA@8
  0008a	50		 push	 eax
  0008b	8d 84 24 28 04
	00 00		 lea	 eax, DWORD PTR _LogData$[esp+2096]
  00092	50		 push	 eax
  00093	ff d7		 call	 edi

; 1847 : 		
; 1848 : 	LogData.wMapID			=	pPlayer->m_wMapID;				//	Map ID

  00095	66 8b 8e 90 01
	01 00		 mov	 cx, WORD PTR [esi+65936]

; 1849 : 	LogData.nX				=	(int)pPlayer->m_fPosX;			//	X

  0009c	d9 86 7c 01 01
	00		 fld	 DWORD PTR [esi+65916]
  000a2	66 89 8c 24 38
	04 00 00	 mov	 WORD PTR _LogData$[esp+2112], cx
  000aa	e8 00 00 00 00	 call	 __ftol2

; 1850 : 	LogData.nY				=	(int)pPlayer->m_fPosY;			//	Y

  000af	d9 86 80 01 01
	00		 fld	 DWORD PTR [esi+65920]
  000b5	89 84 24 3c 04
	00 00		 mov	 DWORD PTR _LogData$[esp+2116], eax
  000bc	e8 00 00 00 00	 call	 __ftol2

; 1851 : 	LogData.nZ				=	(int)pPlayer->m_fPosZ;			//	Z

  000c1	d9 86 84 01 01
	00		 fld	 DWORD PTR [esi+65924]
  000c7	89 84 24 40 04
	00 00		 mov	 DWORD PTR _LogData$[esp+2120], eax
  000ce	e8 00 00 00 00	 call	 __ftol2

; 1852 : 	
; 1853 : 	LogData.dwKey[0]		=	pPlayer->m_dwUserID;			//	User ID

  000d3	8b 96 ac 03 01
	00		 mov	 edx, DWORD PTR [esi+66476]
  000d9	89 84 24 44 04
	00 00		 mov	 DWORD PTR _LogData$[esp+2124], eax

; 1854 : 	LogData.dwKey[1]		=	pPlayer->m_dwID;				//	Character Seq

  000e0	8b 86 44 01 01
	00		 mov	 eax, DWORD PTR [esi+65860]
  000e6	89 84 24 50 04
	00 00		 mov	 DWORD PTR _LogData$[esp+2136], eax

; 1855 : 	lstrcpy(LogData.szKey[1],	pPlayer->m_strNAME	);			//	Character Name

  000ed	8b 86 a4 03 01
	00		 mov	 eax, DWORD PTR [esi+66468]
  000f3	50		 push	 eax
  000f4	8d 8c 24 d6 04
	00 00		 lea	 ecx, DWORD PTR _LogData$[esp+2270]
  000fb	51		 push	 ecx
  000fc	89 94 24 50 04
	00 00		 mov	 DWORD PTR _LogData$[esp+2136], edx
  00103	89 ac 24 54 04
	00 00		 mov	 DWORD PTR _LogData$[esp+2140], ebp
  0010a	89 ac 24 5c 04
	00 00		 mov	 DWORD PTR _LogData$[esp+2148], ebp
  00111	ff d7		 call	 edi

; 1856 : 	LogData.dwKey[9]		=	pPlayer->m_bCountry + (pPlayer->m_bAidCountry == TCONTRY_N ? 0 : (pPlayer->m_bAidCountry+1)*10);			//	Country

  00113	8a 86 9e 01 01
	00		 mov	 al, BYTE PTR [esi+65950]
  00119	3c 03		 cmp	 al, 3
  0011b	75 04		 jne	 SHORT $L181222
  0011d	33 c9		 xor	 ecx, ecx
  0011f	eb 09		 jmp	 SHORT $L181223
$L181222:
  00121	0f b6 c0	 movzx	 eax, al
  00124	40		 inc	 eax
  00125	8d 0c 80	 lea	 ecx, DWORD PTR [eax+eax*4]
  00128	d1 e1		 shl	 ecx, 1
$L181223:
  0012a	0f b6 86 9d 01
	01 00		 movzx	 eax, BYTE PTR [esi+65949]

; 1857 : 	LogData.dwKey[10]		=	pPlayer->m_bLevel;				//	Level
; 1858 :     
; 1859 : 
; 1860 : 	//	Target
; 1861 : 	if( pTargetName.GetLength() && pTargetName.GetLength() < sizeof(LogData.szKey[2]) )

  00131	8b 9c 24 28 08
	00 00		 mov	 ebx, DWORD PTR _pTargetName$[esp+2068]
  00138	03 c1		 add	 eax, ecx
  0013a	99		 cdq
  0013b	89 84 24 90 04
	00 00		 mov	 DWORD PTR _LogData$[esp+2200], eax
  00142	0f b6 86 7b 01
	01 00		 movzx	 eax, BYTE PTR [esi+65915]
  00149	89 94 24 94 04
	00 00		 mov	 DWORD PTR _LogData$[esp+2204], edx
  00150	99		 cdq
  00151	89 84 24 98 04
	00 00		 mov	 DWORD PTR _LogData$[esp+2208], eax
  00158	89 94 24 9c 04
	00 00		 mov	 DWORD PTR _LogData$[esp+2212], edx
  0015f	8b 43 f4	 mov	 eax, DWORD PTR [ebx-12]
  00162	3b c5		 cmp	 eax, ebp
  00164	74 25		 je	 SHORT $L176040
  00166	83 f8 32	 cmp	 eax, 50			; 00000032H
  00169	73 20		 jae	 SHORT $L176040

; 1862 : 	{
; 1863 : 		LogData.dwKey[2]		=	pTargetID;							

  0016b	8b 94 24 24 08
	00 00		 mov	 edx, DWORD PTR _pTargetID$[esp+2068]

; 1864 : 		lstrcpy(LogData.szKey[2], pTargetName);

  00172	53		 push	 ebx
  00173	8d 84 24 08 05
	00 00		 lea	 eax, DWORD PTR _LogData$[esp+2320]
  0017a	50		 push	 eax
  0017b	89 94 24 60 04
	00 00		 mov	 DWORD PTR _LogData$[esp+2152], edx
  00182	89 ac 24 64 04
	00 00		 mov	 DWORD PTR _LogData$[esp+2156], ebp
  00189	ff d7		 call	 edi
$L176040:

; 1865 : 	}
; 1866 : 
; 1867 : 	LogData.dwKey[5]		=	pCash + pBonus;					//	Cash

  0018b	8b b4 24 38 08
	00 00		 mov	 esi, DWORD PTR _pBonus$[esp+2068]
  00192	8b 8c 24 34 08
	00 00		 mov	 ecx, DWORD PTR _pCash$[esp+2068]

; 1868 : 	wsprintf( LogData.szKey[5],"Cash=%u Bonus=%u",pCash,pBonus);//	Cash

  00199	56		 push	 esi
  0019a	51		 push	 ecx
  0019b	8d 04 31	 lea	 eax, DWORD PTR [ecx+esi]
  0019e	99		 cdq
  0019f	8d 8c 24 a2 05
	00 00		 lea	 ecx, DWORD PTR _LogData$[esp+2474]
  001a6	68 00 00 00 00	 push	 OFFSET FLAT:??_C@_0BB@KOJLFALB@Cash?$DN?$CFu?5Bonus?$DN?$CFu?$AA@
  001ab	51		 push	 ecx
  001ac	89 84 24 80 04
	00 00		 mov	 DWORD PTR _LogData$[esp+2184], eax
  001b3	89 94 24 84 04
	00 00		 mov	 DWORD PTR _LogData$[esp+2188], edx
  001ba	ff 15 00 00 00
	00		 call	 DWORD PTR __imp__wsprintfA

; 1869 : 	LogData.dwKey[6]		=	pCashID;						//	Cash ID

  001c0	8b 84 24 40 08
	00 00		 mov	 eax, DWORD PTR _pCashID$[esp+2084]

; 1870 : 
; 1871 : 	//
; 1872 : 	//	ITEM INFO
; 1873 : 	//
; 1874 : 	if(pItem)

  001c7	8b b4 24 3c 08
	00 00		 mov	 esi, DWORD PTR _pItem$[esp+2084]
  001ce	99		 cdq
  001cf	83 c4 10	 add	 esp, 16			; 00000010H
  001d2	3b f5		 cmp	 esi, ebp
  001d4	89 84 24 78 04
	00 00		 mov	 DWORD PTR _LogData$[esp+2176], eax
  001db	89 94 24 7c 04
	00 00		 mov	 DWORD PTR _LogData$[esp+2180], edx
  001e2	0f 84 62 01 00
	00		 je	 $L176042

; 1875 : 	{
; 1876 : 		LogData.dwKey[3]		=	pItem->m_wItemID;			// Item

  001e8	66 8b 4e 30	 mov	 cx, WORD PTR [esi+48]

; 1877 : 		LogData.dwKey[7]		=	pItem->m_bCount;			//	Item Count

  001ec	8a 5e 32	 mov	 bl, BYTE PTR [esi+50]

; 1878 : 		LogData.dwKey[8]		=	pItem->m_dlID;				//	Unique Key
; 1879 : 
; 1880 : 		LogData.dwFormat = LF_ITEM;
; 1881 : 
; 1882 : 		_LPLOG_ITEM_ pLogItem = (_LPLOG_ITEM_)LogData.szLog;
; 1883 : 		
; 1884 : 		pLogItem->bInven		=	pItem->m_bInven;			//	 
; 1885 : 		pLogItem->bItemID		=	pItem->m_bItemID;			//	 
; 1886 : 
; 1887 : 		pLogItem->wItemID		=	pItem->m_wItemID;			//	 INDEX
; 1888 : 
; 1889 : 		//
; 1890 : 		//	Game Part   
; 1891 : 		//	lstrcpy( pLogItem->szItemName, pItem->m_pTITEM-> )	//	 
; 1892 : 
; 1893 : 		pLogItem->bLevel		=	pItem->m_bLevel;			//	 
; 1894 : 		pLogItem->bCount		=	pItem->m_bCount;				
; 1895 : 
; 1896 : 		pLogItem->bGLevel		=	pItem->m_bGLevel;			//	  
; 1897 : 		pLogItem->dwDuraMax		=	pItem->m_dwDuraMax;			//	 
; 1898 : 		pLogItem->dwDuraCur		=	pItem->m_dwDuraCur;			//	 	
; 1899 : 		pLogItem->bRefineCur	=	pItem->m_bRefineCur;		//	 
; 1900 : 
; 1901 : 		pLogItem->bGradeEffect	=	pItem->m_bGradeEffect;		//	  
; 1902 : 
; 1903 : 		int	nOrder = 0;
; 1904 : 		MAPTMAGIC::iterator itTMAGIC;
; 1905 : 		for( itTMAGIC = pItem->m_mapTMAGIC.begin(); itTMAGIC != pItem->m_mapTMAGIC.end(); itTMAGIC++)

  001ef	8b 7e 0c	 mov	 edi, DWORD PTR [esi+12]
  001f2	0f b7 c1	 movzx	 eax, cx
  001f5	99		 cdq
  001f6	89 84 24 60 04
	00 00		 mov	 DWORD PTR _LogData$[esp+2152], eax
  001fd	89 94 24 64 04
	00 00		 mov	 DWORD PTR _LogData$[esp+2156], edx
  00204	0f b6 c3	 movzx	 eax, bl
  00207	99		 cdq
  00208	89 84 24 80 04
	00 00		 mov	 DWORD PTR _LogData$[esp+2184], eax
  0020f	8b 46 24	 mov	 eax, DWORD PTR [esi+36]
  00212	89 94 24 84 04
	00 00		 mov	 DWORD PTR _LogData$[esp+2188], edx
  00219	8b 56 20	 mov	 edx, DWORD PTR [esi+32]
  0021c	89 94 24 88 04
	00 00		 mov	 DWORD PTR _LogData$[esp+2192], edx
  00223	8a 56 2a	 mov	 dl, BYTE PTR [esi+42]
  00226	89 84 24 8c 04
	00 00		 mov	 DWORD PTR _LogData$[esp+2196], eax
  0022d	8a 46 28	 mov	 al, BYTE PTR [esi+40]
  00230	88 94 24 0c 06
	00 00		 mov	 BYTE PTR _LogData$[esp+2580], dl
  00237	8b 56 34	 mov	 edx, DWORD PTR [esi+52]
  0023a	88 84 24 0d 06
	00 00		 mov	 BYTE PTR _LogData$[esp+2581], al
  00241	8a 46 33	 mov	 al, BYTE PTR [esi+51]
  00244	66 89 8c 24 0e
	06 00 00	 mov	 WORD PTR _LogData$[esp+2582], cx
  0024c	8a 4e 29	 mov	 cl, BYTE PTR [esi+41]
  0024f	88 8c 24 42 06
	00 00		 mov	 BYTE PTR _LogData$[esp+2634], cl
  00256	8a 4e 3c	 mov	 cl, BYTE PTR [esi+60]
  00259	88 84 24 44 06
	00 00		 mov	 BYTE PTR _LogData$[esp+2636], al
  00260	8b 46 38	 mov	 eax, DWORD PTR [esi+56]
  00263	89 94 24 48 06
	00 00		 mov	 DWORD PTR _LogData$[esp+2640], edx
  0026a	8a 56 68	 mov	 dl, BYTE PTR [esi+104]
  0026d	c7 84 24 00 06
	00 00 02 00 00
	00		 mov	 DWORD PTR _LogData$[esp+2568], 2
  00278	88 9c 24 43 06
	00 00		 mov	 BYTE PTR _LogData$[esp+2635], bl
  0027f	89 84 24 4c 06
	00 00		 mov	 DWORD PTR _LogData$[esp+2644], eax
  00286	88 8c 24 50 06
	00 00		 mov	 BYTE PTR _LogData$[esp+2648], cl
  0028d	88 94 24 51 06
	00 00		 mov	 BYTE PTR _LogData$[esp+2649], dl
  00294	8b 07		 mov	 eax, DWORD PTR [edi]
  00296	3b c7		 cmp	 eax, edi
  00298	89 44 24 10	 mov	 DWORD PTR _itTMAGIC$176046[esp+2072], eax
  0029c	74 3a		 je	 SHORT $L176052

; 1875 : 	{
; 1876 : 		LogData.dwKey[3]		=	pItem->m_wItemID;			// Item

  0029e	8d 9c 24 58 06
	00 00		 lea	 ebx, DWORD PTR _LogData$[esp+2656]
  002a5	eb 09 8d a4 24
	00 00 00 00 8b
	ff		 npad	 11
$L181440:

; 1906 : 		{
; 1907 : 			pLogItem->bMagic[nOrder] =	(*itTMAGIC).first; 

  002b0	8a 48 0c	 mov	 cl, BYTE PTR [eax+12]
  002b3	88 8c 2c 52 06
	00 00		 mov	 BYTE PTR _LogData$[esp+ebp+2650], cl

; 1908 : 			pLogItem->wValue[nOrder] =	(*itTMAGIC).second->m_wValue;

  002ba	8b 50 10	 mov	 edx, DWORD PTR [eax+16]
  002bd	66 8b 02	 mov	 ax, WORD PTR [edx]
  002c0	66 89 03	 mov	 WORD PTR [ebx], ax
  002c3	8d 4c 24 10	 lea	 ecx, DWORD PTR _itTMAGIC$176046[esp+2072]

; 1909 : 
; 1910 : 			nOrder ++;

  002c7	45		 inc	 ebp
  002c8	83 c3 02	 add	 ebx, 2
  002cb	e8 00 00 00 00	 call	 ?_Inc@const_iterator@?$_Tree@V?$_Tmap_traits@EPAUtagTMAGIC@@U?$less@E@std@@V?$allocator@U?$pair@$$CBEPAUtagTMAGIC@@@std@@@3@$0A@@std@@@std@@QAEXXZ ; std::_Tree<std::_Tmap_traits<unsigned char,tagTMAGIC *,std::less<unsigned char>,std::allocator<std::pair<unsigned char const ,tagTMAGIC *> >,0> >::const_iterator::_Inc
  002d0	8b 44 24 10	 mov	 eax, DWORD PTR _itTMAGIC$176046[esp+2072]
  002d4	3b c7		 cmp	 eax, edi
  002d6	75 d8		 jne	 SHORT $L181440
$L176052:

; 1911 : 		}
; 1912 : 
; 1913 : 		//	Item Type
; 1914 : 		if( pItem->m_bGLevel )

  002d8	8a 46 33	 mov	 al, BYTE PTR [esi+51]
  002db	84 c0		 test	 al, al
  002dd	74 0d		 je	 SHORT $L176053

; 1915 : 		{
; 1916 : 			LogData.dwKey[4] = 3;						//	Seal Item

  002df	c7 84 24 68 04
	00 00 03 00 00
	00		 mov	 DWORD PTR _LogData$[esp+2160], 3

; 1917 : 		}
; 1918 : 		else

  002ea	eb 36		 jmp	 SHORT $L181445
$L176053:

; 1919 : 		{
; 1920 : 			switch(nOrder)

  002ec	83 fd 03	 cmp	 ebp, 3
  002ef	77 3c		 ja	 SHORT $L176056
  002f1	ff 24 ad 00 00
	00 00		 jmp	 DWORD PTR $L181446[ebp*4]
$L176059:

; 1921 : 			{
; 1922 : 			case 0 :	LogData.dwKey[4] = 0;	break;	//	Normal Item

  002f8	33 c0		 xor	 eax, eax
  002fa	89 84 24 68 04
	00 00		 mov	 DWORD PTR _LogData$[esp+2160], eax
  00301	89 84 24 6c 04
	00 00		 mov	 DWORD PTR _LogData$[esp+2164], eax
  00308	eb 23		 jmp	 SHORT $L176056
$L176060:

; 1923 : 
; 1924 : 			case 1 : 
; 1925 : 			case 2 :	LogData.dwKey[4] = 1;	break;	//	Magic Item

  0030a	c7 84 24 68 04
	00 00 01 00 00
	00		 mov	 DWORD PTR _LogData$[esp+2160], 1
  00315	eb 0b		 jmp	 SHORT $L181445
$L176061:

; 1926 : 
; 1927 : 			case 3 :	LogData.dwKey[4] = 2;	break;	//	Rare Item

  00317	c7 84 24 68 04
	00 00 02 00 00
	00		 mov	 DWORD PTR _LogData$[esp+2160], 2
$L181445:
  00322	c7 84 24 6c 04
	00 00 00 00 00
	00		 mov	 DWORD PTR _LogData$[esp+2164], 0
$L176056:

; 1928 : 
; 1929 : 			case 4 :	break;
; 1930 : 
; 1931 : 			case 5 :	break;
; 1932 : 			}
; 1933 : 		}
; 1934 : 
; 1935 : 		pLogItem->dEndTime	=	pItem->m_dEndTime;

  0032d	8b 4e 40	 mov	 ecx, DWORD PTR [esi+64]
  00330	8b 56 44	 mov	 edx, DWORD PTR [esi+68]
  00333	8b 9c 24 28 08
	00 00		 mov	 ebx, DWORD PTR _pTargetName$[esp+2068]
  0033a	89 8c 24 7c 06
	00 00		 mov	 DWORD PTR _LogData$[esp+2692], ecx
  00341	89 94 24 80 06
	00 00		 mov	 DWORD PTR _LogData$[esp+2696], edx
  00348	33 ed		 xor	 ebp, ebp
$L176042:

; 1936 : 	}
; 1937 : 
; 1938 : 	SendDMLog( LogData );

  0034a	b9 fe 00 00 00	 mov	 ecx, 254		; 000000feH
  0034f	8d b4 24 10 04
	00 00		 lea	 esi, DWORD PTR _LogData$[esp+2072]
  00356	8d 7c 24 18	 lea	 edi, DWORD PTR $T181408[esp+2072]
  0035a	55		 push	 ebp
  0035b	f3 a5		 rep movsd
  0035d	e8 00 00 00 00	 call	 __time64
  00362	89 44 24 14	 mov	 DWORD PTR _tNowTime$181407[esp+2076], eax
  00366	83 c4 04	 add	 esp, 4
  00369	8d 44 24 18	 lea	 eax, DWORD PTR $T181408[esp+2072]
  0036d	50		 push	 eax
  0036e	8d 4c 24 14	 lea	 ecx, DWORD PTR _tNowTime$181407[esp+2076]
  00372	89 54 24 18	 mov	 DWORD PTR _tNowTime$181407[esp+2080], edx
  00376	e8 00 00 00 00	 call	 ?GetAsDBTIMESTAMP@CTime@ATL@@QBE_NAAUtagDBTIMESTAMP@@@Z ; ATL::CTime::GetAsDBTIMESTAMP
  0037b	81 ec f8 03 00
	00		 sub	 esp, 1016		; 000003f8H
  00381	8b fc		 mov	 edi, esp
  00383	b9 fe 00 00 00	 mov	 ecx, 254		; 000000feH
  00388	8d b4 24 10 04
	00 00		 lea	 esi, DWORD PTR $T181408[esp+3088]
  0038f	f3 a5		 rep movsd
  00391	b9 00 00 00 00	 mov	 ecx, OFFSET FLAT:?_AtlModule@@3VCTMapSvrModule@@A
  00396	e8 00 00 00 00	 call	 ?SendDM_UDPLOG_REQ@CTMapSvrModule@@QAEXU_LOG_DATA_@@@Z ; CTMapSvrModule::SendDM_UDPLOG_REQ

; 1939 : }

  0039b	8d 43 f0	 lea	 eax, DWORD PTR [ebx-16]
$L181444:
  0039e	c7 84 24 14 08
	00 00 ff ff ff
	ff		 mov	 DWORD PTR __$EHRec$[esp+2080], -1
  003a9	8d 48 0c	 lea	 ecx, DWORD PTR [eax+12]
  003ac	83 ca ff	 or	 edx, -1
  003af	f0 0f c1 11	 lock	  xadd	 DWORD PTR [ecx], edx
  003b3	4a		 dec	 edx
  003b4	85 d2		 test	 edx, edx
  003b6	7f 08		 jg	 SHORT $L181432
  003b8	8b 08		 mov	 ecx, DWORD PTR [eax]
  003ba	8b 11		 mov	 edx, DWORD PTR [ecx]
  003bc	50		 push	 eax
  003bd	ff 52 04	 call	 DWORD PTR [edx+4]
$L181432:
  003c0	8b 8c 24 0c 08
	00 00		 mov	 ecx, DWORD PTR __$EHRec$[esp+2072]
  003c7	64 89 0d 00 00
	00 00		 mov	 DWORD PTR fs:__except_list, ecx
  003ce	8b 8c 24 08 08
	00 00		 mov	 ecx, DWORD PTR __$ArrayPad$[esp+2072]
  003d5	e8 00 00 00 00	 call	 @__security_check_cookie@4
  003da	5f		 pop	 edi
  003db	5e		 pop	 esi
  003dc	5d		 pop	 ebp
  003dd	5b		 pop	 ebx
  003de	81 c4 08 08 00
	00		 add	 esp, 2056		; 00000808H
  003e4	c2 20 00	 ret	 32			; 00000020H
  003e7	90		 npad	 1
$L181446:
  003e8	00 00 00 00	 DD	 $L176059
  003ec	00 00 00 00	 DD	 $L176060
  003f0	00 00 00 00	 DD	 $L176060
  003f4	00 00 00 00	 DD	 $L176061
_TEXT	ENDS
;	COMDAT text$x
text$x	SEGMENT
$L181227:
  00000	8d 4d 10	 lea	 ecx, DWORD PTR _pTargetName$[ebp-4]
  00003	e9 00 00 00 00	 jmp	 ??1?$CStringT@DV?$StrTraitATL@DV?$ChTraitsCRT@D@ATL@@@ATL@@@ATL@@QAE@XZ ; ATL::CStringT<char,ATL::StrTraitATL<char,ATL::ChTraitsCRT<char> > >::~CStringT<char,ATL::StrTraitATL<char,ATL::ChTraitsCRT<char> > >
__ehhandler$?LogCashItem@CUdpSocket@@QAEXKPAVCTPlayer@@KV?$CStringT@DV?$StrTraitATL@DV?$ChTraitsCRT@D@ATL@@@ATL@@@ATL@@PAVCTItem@@HHH@Z:
  00008	b8 00 00 00 00	 mov	 eax, OFFSET FLAT:$T181437
  0000d	e9 00 00 00 00	 jmp	 ___CxxFrameHandler
text$x	ENDS
?LogCashItem@CUdpSocket@@QAEXKPAVCTPlayer@@KV?$CStringT@DV?$StrTraitATL@DV?$ChTraitsCRT@D@ATL@@@ATL@@@ATL@@PAVCTItem@@HHH@Z ENDP ; CUdpSocket::LogCashItem
PUBLIC	?LogAuctionReg@CUdpSocket@@QAEXKPAVCTPlayer@@K_J1PAVCTItem@@KV?$CStringT@DV?$StrTraitATL@DV?$ChTraitsCRT@D@ATL@@@ATL@@@ATL@@@Z ; CUdpSocket::LogAuctionReg
;	COMDAT xdata$x
; File c:\program files (x86)\microsoft visual studio .net 2003\vc7\atlmfc\include\atlsimpstr.h
xdata$x	SEGMENT
$T181632 DD	0ffffffffH
	DD	FLAT:$L181459
$T181624 DD	019930520H
	DD	01H
	DD	FLAT:$T181632
	DD	2 DUP(00H)
	DD	2 DUP(00H)
; Function compile flags: /Ogty
; File c:\users\pierr\desktop\4story - oldschool\sources\tserver\tmapsvr\udpsocket.cpp
xdata$x	ENDS
;	COMDAT ?LogAuctionReg@CUdpSocket@@QAEXKPAVCTPlayer@@K_J1PAVCTItem@@KV?$CStringT@DV?$StrTraitATL@DV?$ChTraitsCRT@D@ATL@@@ATL@@@ATL@@@Z
_TEXT	SEGMENT
_tNowTime$181589 = -2056				; size = 8
_itTMAGIC$176150 = -2056				; size = 4
$T181595 = -2048					; size = 1016
_LogData$ = -1032					; size = 1016
__$ArrayPad$ = -16					; size = 4
__$EHRec$ = -12						; size = 12
__$ReturnAddr$ = 4					; size = 4
_pAction$ = 8						; size = 4
_pPlayer$ = 12						; size = 4
_dwAuctionID$ = 16					; size = 4
_ldwStartPrice$ = 20					; size = 8
_ldwDirectPrice$ = 28					; size = 8
_pItem$ = 36						; size = 4
_dwCharID$ = 40						; size = 4
_strNAME$ = 44						; size = 4
?LogAuctionReg@CUdpSocket@@QAEXKPAVCTPlayer@@K_J1PAVCTItem@@KV?$CStringT@DV?$StrTraitATL@DV?$ChTraitsCRT@D@ATL@@@ATL@@@ATL@@@Z PROC NEAR ; CUdpSocket::LogAuctionReg, COMDAT
; _this$ = ecx

; 2096 : {

  00000	6a ff		 push	 -1
  00002	68 00 00 00 00	 push	 __ehhandler$?LogAuctionReg@CUdpSocket@@QAEXKPAVCTPlayer@@K_J1PAVCTItem@@KV?$CStringT@DV?$StrTraitATL@DV?$ChTraitsCRT@D@ATL@@@ATL@@@ATL@@@Z
  00007	64 a1 00 00 00
	00		 mov	 eax, DWORD PTR fs:__except_list
  0000d	50		 push	 eax
  0000e	64 89 25 00 00
	00 00		 mov	 DWORD PTR fs:__except_list, esp
  00015	81 ec fc 07 00
	00		 sub	 esp, 2044		; 000007fcH
  0001b	a1 00 00 00 00	 mov	 eax, DWORD PTR ___security_cookie
  00020	53		 push	 ebx
  00021	55		 push	 ebp
  00022	56		 push	 esi
  00023	89 84 24 04 08
	00 00		 mov	 DWORD PTR __$ArrayPad$[esp+2068], eax
  0002a	57		 push	 edi

; 2097 : 	_LOG_DATA_ LogData;
; 2098 : 	memset( &LogData, 0x00, sizeof(_LOG_DATA_));
; 2099 : 
; 2100 : 	LogData.dwAction		=	pAction;
; 2101 : 	LogData.dwServerID		=	_AtlModule.GetServerID();
; 2102 : 
; 2103 : 	if(pPlayer)

  0002b	8b b4 24 20 08
	00 00		 mov	 esi, DWORD PTR _pPlayer$[esp+2068]
  00032	33 c0		 xor	 eax, eax
  00034	b9 fe 00 00 00	 mov	 ecx, 254		; 000000feH
  00039	8d bc 24 10 04
	00 00		 lea	 edi, DWORD PTR _LogData$[esp+2072]
  00040	f3 ab		 rep stosd
  00042	0f b6 0d 82 9e
	00 00		 movzx	 ecx, BYTE PTR ?_AtlModule@@3VCTMapSvrModule@@A+40578
  00049	8b 84 24 1c 08
	00 00		 mov	 eax, DWORD PTR _pAction$[esp+2068]
  00050	33 ed		 xor	 ebp, ebp
  00052	3b f5		 cmp	 esi, ebp
  00054	89 ac 24 14 08
	00 00		 mov	 DWORD PTR __$EHRec$[esp+2080], ebp
  0005b	89 84 24 34 04
	00 00		 mov	 DWORD PTR _LogData$[esp+2108], eax
  00062	89 8c 24 20 04
	00 00		 mov	 DWORD PTR _LogData$[esp+2088], ecx
  00069	0f 84 e0 00 00
	00		 je	 $L176141

; 2104 : 	{
; 2105 : 		lstrcpy( LogData.szClientIP, inet_ntoa(pPlayer->m_addr.sin_addr) );	

  0006f	8b 56 40	 mov	 edx, DWORD PTR [esi+64]
  00072	52		 push	 edx
  00073	ff 15 00 00 00
	00		 call	 DWORD PTR __imp__inet_ntoa@4
  00079	8b 3d 00 00 00
	00		 mov	 edi, DWORD PTR __imp__lstrcpyA@8
  0007f	50		 push	 eax
  00080	8d 84 24 28 04
	00 00		 lea	 eax, DWORD PTR _LogData$[esp+2096]
  00087	50		 push	 eax
  00088	ff d7		 call	 edi

; 2106 : 
; 2107 : 		LogData.wMapID			=	pPlayer->m_wMapID;				//	Map ID
; 2108 : 		LogData.nX				=	(int)pPlayer->m_fPosX;			//	X

  0008a	d9 86 7c 01 01
	00		 fld	 DWORD PTR [esi+65916]
  00090	66 8b 8e 90 01
	01 00		 mov	 cx, WORD PTR [esi+65936]
  00097	66 89 8c 24 38
	04 00 00	 mov	 WORD PTR _LogData$[esp+2112], cx
  0009f	e8 00 00 00 00	 call	 __ftol2

; 2109 : 		LogData.nY				=	(int)pPlayer->m_fPosY;			//	Y

  000a4	d9 86 80 01 01
	00		 fld	 DWORD PTR [esi+65920]
  000aa	89 84 24 3c 04
	00 00		 mov	 DWORD PTR _LogData$[esp+2116], eax
  000b1	e8 00 00 00 00	 call	 __ftol2

; 2110 : 		LogData.nZ				=	(int)pPlayer->m_fPosZ;			//	Z

  000b6	d9 86 84 01 01
	00		 fld	 DWORD PTR [esi+65924]
  000bc	89 84 24 40 04
	00 00		 mov	 DWORD PTR _LogData$[esp+2120], eax
  000c3	e8 00 00 00 00	 call	 __ftol2

; 2111 : 
; 2112 : 		LogData.dwKey[0]		=	pPlayer->m_dwUserID;			//	User ID

  000c8	8b 96 ac 03 01
	00		 mov	 edx, DWORD PTR [esi+66476]
  000ce	89 84 24 44 04
	00 00		 mov	 DWORD PTR _LogData$[esp+2124], eax

; 2113 : 		LogData.dwKey[1]		=	pPlayer->m_dwID;				//	Character Seq

  000d5	8b 86 44 01 01
	00		 mov	 eax, DWORD PTR [esi+65860]
  000db	89 84 24 50 04
	00 00		 mov	 DWORD PTR _LogData$[esp+2136], eax

; 2114 : 		lstrcpy(LogData.szKey[1],	pPlayer->m_strNAME);			//	Character Name

  000e2	8b 86 a4 03 01
	00		 mov	 eax, DWORD PTR [esi+66468]
  000e8	50		 push	 eax
  000e9	8d 8c 24 d6 04
	00 00		 lea	 ecx, DWORD PTR _LogData$[esp+2270]
  000f0	51		 push	 ecx
  000f1	89 94 24 50 04
	00 00		 mov	 DWORD PTR _LogData$[esp+2136], edx
  000f8	89 ac 24 54 04
	00 00		 mov	 DWORD PTR _LogData$[esp+2140], ebp
  000ff	89 ac 24 5c 04
	00 00		 mov	 DWORD PTR _LogData$[esp+2148], ebp
  00106	ff d7		 call	 edi

; 2115 : 
; 2116 : 		LogData.dwKey[9]		=	pPlayer->m_bCountry + (pPlayer->m_bAidCountry == TCONTRY_N ? 0 : (pPlayer->m_bAidCountry+1)*10);			//	Country

  00108	8a 86 9e 01 01
	00		 mov	 al, BYTE PTR [esi+65950]
  0010e	3c 03		 cmp	 al, 3
  00110	75 04		 jne	 SHORT $L181454
  00112	33 c9		 xor	 ecx, ecx
  00114	eb 09		 jmp	 SHORT $L181455
$L181454:
  00116	0f b6 c0	 movzx	 eax, al
  00119	40		 inc	 eax
  0011a	8d 0c 80	 lea	 ecx, DWORD PTR [eax+eax*4]
  0011d	d1 e1		 shl	 ecx, 1
$L181455:
  0011f	0f b6 86 9d 01
	01 00		 movzx	 eax, BYTE PTR [esi+65949]
  00126	03 c1		 add	 eax, ecx
  00128	99		 cdq
  00129	89 84 24 90 04
	00 00		 mov	 DWORD PTR _LogData$[esp+2200], eax

; 2117 : 		LogData.dwKey[10]		=	pPlayer->m_bLevel;				//	Level

  00130	0f b6 86 7b 01
	01 00		 movzx	 eax, BYTE PTR [esi+65915]
  00137	89 94 24 94 04
	00 00		 mov	 DWORD PTR _LogData$[esp+2204], edx
  0013e	99		 cdq
  0013f	89 84 24 98 04
	00 00		 mov	 DWORD PTR _LogData$[esp+2208], eax
  00146	89 94 24 9c 04
	00 00		 mov	 DWORD PTR _LogData$[esp+2212], edx

; 2118 : 	}
; 2119 : 	else

  0014d	eb 2b		 jmp	 SHORT $L176145
$L176141:

; 2120 : 	{
; 2121 : 		LogData.dwKey[1]		=	dwCharID;						//	Character Seq
; 2122 : 		lstrcpy(LogData.szKey[1],	strNAME);						//	Character Name

  0014f	8b 84 24 40 08
	00 00		 mov	 eax, DWORD PTR _strNAME$[esp+2068]
  00156	8b 94 24 3c 08
	00 00		 mov	 edx, DWORD PTR _dwCharID$[esp+2068]
  0015d	50		 push	 eax
  0015e	8d 8c 24 d6 04
	00 00		 lea	 ecx, DWORD PTR _LogData$[esp+2270]
  00165	51		 push	 ecx
  00166	89 94 24 58 04
	00 00		 mov	 DWORD PTR _LogData$[esp+2144], edx
  0016d	89 ac 24 5c 04
	00 00		 mov	 DWORD PTR _LogData$[esp+2148], ebp
  00174	ff 15 00 00 00
	00		 call	 DWORD PTR __imp__lstrcpyA@8
$L176145:

; 2123 : 	}
; 2124 : 
; 2125 : 	LogData.dwKey[2]		=	dwAuctionID;

  0017a	8b 94 24 24 08
	00 00		 mov	 edx, DWORD PTR _dwAuctionID$[esp+2068]

; 2126 : 	LogData.dwKey[5]		=	ldwStartPrice;

  00181	8b 84 24 28 08
	00 00		 mov	 eax, DWORD PTR _ldwStartPrice$[esp+2068]

; 2127 : 	LogData.dwKey[6]		=	ldwDirectPrice;
; 2128 : 
; 2129 : 	if(pItem)

  00188	8b b4 24 38 08
	00 00		 mov	 esi, DWORD PTR _pItem$[esp+2068]
  0018f	3b f5		 cmp	 esi, ebp
  00191	8b 8c 24 2c 08
	00 00		 mov	 ecx, DWORD PTR _ldwStartPrice$[esp+2072]
  00198	89 94 24 58 04
	00 00		 mov	 DWORD PTR _LogData$[esp+2144], edx
  0019f	8b 94 24 30 08
	00 00		 mov	 edx, DWORD PTR _ldwDirectPrice$[esp+2068]
  001a6	89 84 24 70 04
	00 00		 mov	 DWORD PTR _LogData$[esp+2168], eax
  001ad	8b 84 24 34 08
	00 00		 mov	 eax, DWORD PTR _ldwDirectPrice$[esp+2072]
  001b4	89 ac 24 5c 04
	00 00		 mov	 DWORD PTR _LogData$[esp+2148], ebp
  001bb	89 8c 24 74 04
	00 00		 mov	 DWORD PTR _LogData$[esp+2172], ecx
  001c2	89 94 24 78 04
	00 00		 mov	 DWORD PTR _LogData$[esp+2176], edx
  001c9	89 84 24 7c 04
	00 00		 mov	 DWORD PTR _LogData$[esp+2180], eax
  001d0	0f 84 50 01 00
	00		 je	 $L176146

; 2130 : 	{
; 2131 : 		LogData.dwKey[3]		=	pItem->m_wItemID;			// Item

  001d6	66 8b 4e 30	 mov	 cx, WORD PTR [esi+48]

; 2132 : 		LogData.dwKey[7]		=	pItem->m_bCount;			//	Item Count

  001da	8a 5e 32	 mov	 bl, BYTE PTR [esi+50]

; 2133 : 		LogData.dwKey[8]		=	pItem->m_dlID;				//	Unique Key
; 2134 : 
; 2135 : 		LogData.dwFormat = LF_ITEM;
; 2136 : 
; 2137 : 		_LPLOG_ITEM_ pLogItem = (_LPLOG_ITEM_)LogData.szLog;
; 2138 : 		
; 2139 : 		pLogItem->bInven		=	pItem->m_bInven;			//	 
; 2140 : 		pLogItem->bItemID		=	pItem->m_bItemID;			//	 
; 2141 : 
; 2142 : 		pLogItem->wItemID		=	pItem->m_wItemID;			//	 INDEX
; 2143 : 
; 2144 : 		//
; 2145 : 		//	Game Part   
; 2146 : 		//	lstrcpy( pLogItem->szItemName, pItem->m_pTITEM-> )	//	 
; 2147 : 
; 2148 : 		pLogItem->bLevel		=	pItem->m_bLevel;			//	 
; 2149 : 		pLogItem->bCount		=	pItem->m_bCount;				
; 2150 : 
; 2151 : 		pLogItem->bGLevel		=	pItem->m_bGLevel;			//	  
; 2152 : 		pLogItem->dwDuraMax		=	pItem->m_dwDuraMax;			//	 
; 2153 : 		pLogItem->dwDuraCur		=	pItem->m_dwDuraCur;			//	 	
; 2154 : 		pLogItem->bRefineCur	=	pItem->m_bRefineCur;		//	 
; 2155 : 
; 2156 : 		pLogItem->bGradeEffect	=	pItem->m_bGradeEffect;		//	  
; 2157 : 
; 2158 : 		int	nOrder = 0;
; 2159 : 		MAPTMAGIC::iterator itTMAGIC;
; 2160 : 		for( itTMAGIC = pItem->m_mapTMAGIC.begin(); itTMAGIC != pItem->m_mapTMAGIC.end(); itTMAGIC++)

  001dd	8b 7e 0c	 mov	 edi, DWORD PTR [esi+12]
  001e0	0f b7 c1	 movzx	 eax, cx
  001e3	99		 cdq
  001e4	89 84 24 60 04
	00 00		 mov	 DWORD PTR _LogData$[esp+2152], eax
  001eb	89 94 24 64 04
	00 00		 mov	 DWORD PTR _LogData$[esp+2156], edx
  001f2	0f b6 c3	 movzx	 eax, bl
  001f5	99		 cdq
  001f6	89 84 24 80 04
	00 00		 mov	 DWORD PTR _LogData$[esp+2184], eax
  001fd	8b 46 24	 mov	 eax, DWORD PTR [esi+36]
  00200	89 94 24 84 04
	00 00		 mov	 DWORD PTR _LogData$[esp+2188], edx
  00207	8b 56 20	 mov	 edx, DWORD PTR [esi+32]
  0020a	89 94 24 88 04
	00 00		 mov	 DWORD PTR _LogData$[esp+2192], edx
  00211	8a 56 2a	 mov	 dl, BYTE PTR [esi+42]
  00214	89 84 24 8c 04
	00 00		 mov	 DWORD PTR _LogData$[esp+2196], eax
  0021b	8a 46 28	 mov	 al, BYTE PTR [esi+40]
  0021e	88 94 24 0c 06
	00 00		 mov	 BYTE PTR _LogData$[esp+2580], dl
  00225	8b 56 34	 mov	 edx, DWORD PTR [esi+52]
  00228	88 84 24 0d 06
	00 00		 mov	 BYTE PTR _LogData$[esp+2581], al
  0022f	8a 46 33	 mov	 al, BYTE PTR [esi+51]
  00232	66 89 8c 24 0e
	06 00 00	 mov	 WORD PTR _LogData$[esp+2582], cx
  0023a	8a 4e 29	 mov	 cl, BYTE PTR [esi+41]
  0023d	88 8c 24 42 06
	00 00		 mov	 BYTE PTR _LogData$[esp+2634], cl
  00244	8a 4e 3c	 mov	 cl, BYTE PTR [esi+60]
  00247	88 84 24 44 06
	00 00		 mov	 BYTE PTR _LogData$[esp+2636], al
  0024e	8b 46 38	 mov	 eax, DWORD PTR [esi+56]
  00251	89 94 24 48 06
	00 00		 mov	 DWORD PTR _LogData$[esp+2640], edx
  00258	8a 56 68	 mov	 dl, BYTE PTR [esi+104]
  0025b	c7 84 24 00 06
	00 00 02 00 00
	00		 mov	 DWORD PTR _LogData$[esp+2568], 2
  00266	88 9c 24 43 06
	00 00		 mov	 BYTE PTR _LogData$[esp+2635], bl
  0026d	89 84 24 4c 06
	00 00		 mov	 DWORD PTR _LogData$[esp+2644], eax
  00274	88 8c 24 50 06
	00 00		 mov	 BYTE PTR _LogData$[esp+2648], cl
  0027b	88 94 24 51 06
	00 00		 mov	 BYTE PTR _LogData$[esp+2649], dl
  00282	8b 07		 mov	 eax, DWORD PTR [edi]
  00284	3b c7		 cmp	 eax, edi
  00286	89 44 24 10	 mov	 DWORD PTR _itTMAGIC$176150[esp+2072], eax
  0028a	74 2f		 je	 SHORT $L176156

; 2130 : 	{
; 2131 : 		LogData.dwKey[3]		=	pItem->m_wItemID;			// Item

  0028c	8d 9c 24 58 06
	00 00		 lea	 ebx, DWORD PTR _LogData$[esp+2656]
$L181627:

; 2161 : 		{
; 2162 : 			pLogItem->bMagic[nOrder] =	(*itTMAGIC).first; 

  00293	8a 48 0c	 mov	 cl, BYTE PTR [eax+12]
  00296	88 8c 2c 52 06
	00 00		 mov	 BYTE PTR _LogData$[esp+ebp+2650], cl

; 2163 : 			pLogItem->wValue[nOrder] =	(*itTMAGIC).second->m_wValue;

  0029d	8b 50 10	 mov	 edx, DWORD PTR [eax+16]
  002a0	66 8b 02	 mov	 ax, WORD PTR [edx]
  002a3	66 89 03	 mov	 WORD PTR [ebx], ax
  002a6	8d 4c 24 10	 lea	 ecx, DWORD PTR _itTMAGIC$176150[esp+2072]

; 2164 : 			
; 2165 : 			nOrder ++;

  002aa	45		 inc	 ebp
  002ab	83 c3 02	 add	 ebx, 2
  002ae	e8 00 00 00 00	 call	 ?_Inc@const_iterator@?$_Tree@V?$_Tmap_traits@EPAUtagTMAGIC@@U?$less@E@std@@V?$allocator@U?$pair@$$CBEPAUtagTMAGIC@@@std@@@3@$0A@@std@@@std@@QAEXXZ ; std::_Tree<std::_Tmap_traits<unsigned char,tagTMAGIC *,std::less<unsigned char>,std::allocator<std::pair<unsigned char const ,tagTMAGIC *> >,0> >::const_iterator::_Inc
  002b3	8b 44 24 10	 mov	 eax, DWORD PTR _itTMAGIC$176150[esp+2072]
  002b7	3b c7		 cmp	 eax, edi
  002b9	75 d8		 jne	 SHORT $L181627
$L176156:

; 2166 : 		}
; 2167 : 
; 2168 : 		//	Item Type
; 2169 : 		if( pItem->m_bGLevel )

  002bb	8a 46 33	 mov	 al, BYTE PTR [esi+51]
  002be	84 c0		 test	 al, al
  002c0	74 0d		 je	 SHORT $L176157

; 2170 : 		{
; 2171 : 			LogData.dwKey[4] = 3;						//	Seal Item

  002c2	c7 84 24 68 04
	00 00 03 00 00
	00		 mov	 DWORD PTR _LogData$[esp+2160], 3

; 2172 : 		}
; 2173 : 		else

  002cd	eb 36		 jmp	 SHORT $L181630
$L176157:

; 2174 : 		{
; 2175 : 			switch(nOrder)

  002cf	83 fd 03	 cmp	 ebp, 3
  002d2	77 3c		 ja	 SHORT $L176160
  002d4	ff 24 ad 00 00
	00 00		 jmp	 DWORD PTR $L181631[ebp*4]
$L176163:

; 2176 : 			{
; 2177 : 			case 0 :	LogData.dwKey[4] = 0;	break;	//	Normal Item

  002db	33 c0		 xor	 eax, eax
  002dd	89 84 24 68 04
	00 00		 mov	 DWORD PTR _LogData$[esp+2160], eax
  002e4	89 84 24 6c 04
	00 00		 mov	 DWORD PTR _LogData$[esp+2164], eax
  002eb	eb 23		 jmp	 SHORT $L176160
$L176164:

; 2178 : 
; 2179 : 			case 1 : 
; 2180 : 			case 2 :	LogData.dwKey[4] = 1;	break;	//	Magic Item

  002ed	c7 84 24 68 04
	00 00 01 00 00
	00		 mov	 DWORD PTR _LogData$[esp+2160], 1
  002f8	eb 0b		 jmp	 SHORT $L181630
$L176165:

; 2181 : 
; 2182 : 			case 3 :	LogData.dwKey[4] = 2;	break;	//	Rare Item

  002fa	c7 84 24 68 04
	00 00 02 00 00
	00		 mov	 DWORD PTR _LogData$[esp+2160], 2
$L181630:
  00305	c7 84 24 6c 04
	00 00 00 00 00
	00		 mov	 DWORD PTR _LogData$[esp+2164], 0
$L176160:

; 2183 : 
; 2184 : 			case 4 :	break;
; 2185 : 
; 2186 : 			case 5 :	break;
; 2187 : 			}
; 2188 : 		}
; 2189 : 
; 2190 : 		pLogItem->dEndTime	=	pItem->m_dEndTime;

  00310	8b 4e 40	 mov	 ecx, DWORD PTR [esi+64]
  00313	8b 56 44	 mov	 edx, DWORD PTR [esi+68]
  00316	89 8c 24 7c 06
	00 00		 mov	 DWORD PTR _LogData$[esp+2692], ecx
  0031d	89 94 24 80 06
	00 00		 mov	 DWORD PTR _LogData$[esp+2696], edx
  00324	33 ed		 xor	 ebp, ebp
$L176146:

; 2191 : 	}
; 2192 : 
; 2193 : 	SendDMLog( LogData );

  00326	b9 fe 00 00 00	 mov	 ecx, 254		; 000000feH
  0032b	8d b4 24 10 04
	00 00		 lea	 esi, DWORD PTR _LogData$[esp+2072]
  00332	8d 7c 24 18	 lea	 edi, DWORD PTR $T181595[esp+2072]
  00336	55		 push	 ebp
  00337	f3 a5		 rep movsd
  00339	e8 00 00 00 00	 call	 __time64
  0033e	89 44 24 14	 mov	 DWORD PTR _tNowTime$181589[esp+2076], eax
  00342	83 c4 04	 add	 esp, 4
  00345	8d 44 24 18	 lea	 eax, DWORD PTR $T181595[esp+2072]
  00349	50		 push	 eax
  0034a	8d 4c 24 14	 lea	 ecx, DWORD PTR _tNowTime$181589[esp+2076]
  0034e	89 54 24 18	 mov	 DWORD PTR _tNowTime$181589[esp+2080], edx
  00352	e8 00 00 00 00	 call	 ?GetAsDBTIMESTAMP@CTime@ATL@@QBE_NAAUtagDBTIMESTAMP@@@Z ; ATL::CTime::GetAsDBTIMESTAMP
  00357	81 ec f8 03 00
	00		 sub	 esp, 1016		; 000003f8H
  0035d	8b fc		 mov	 edi, esp
  0035f	b9 fe 00 00 00	 mov	 ecx, 254		; 000000feH
  00364	8d b4 24 10 04
	00 00		 lea	 esi, DWORD PTR $T181595[esp+3088]
  0036b	f3 a5		 rep movsd
  0036d	b9 00 00 00 00	 mov	 ecx, OFFSET FLAT:?_AtlModule@@3VCTMapSvrModule@@A
  00372	e8 00 00 00 00	 call	 ?SendDM_UDPLOG_REQ@CTMapSvrModule@@QAEXU_LOG_DATA_@@@Z ; CTMapSvrModule::SendDM_UDPLOG_REQ

; 2194 : }

  00377	8b 84 24 40 08
	00 00		 mov	 eax, DWORD PTR _strNAME$[esp+2068]
  0037e	83 c0 f0	 add	 eax, -16		; fffffff0H
  00381	c7 84 24 14 08
	00 00 ff ff ff
	ff		 mov	 DWORD PTR __$EHRec$[esp+2080], -1
  0038c	8d 48 0c	 lea	 ecx, DWORD PTR [eax+12]
  0038f	83 ca ff	 or	 edx, -1
  00392	f0 0f c1 11	 lock	  xadd	 DWORD PTR [ecx], edx
  00396	4a		 dec	 edx
  00397	85 d2		 test	 edx, edx
  00399	7f 08		 jg	 SHORT $L181622
  0039b	8b 08		 mov	 ecx, DWORD PTR [eax]
  0039d	8b 11		 mov	 edx, DWORD PTR [ecx]
  0039f	50		 push	 eax
  003a0	ff 52 04	 call	 DWORD PTR [edx+4]
$L181622:
  003a3	8b 8c 24 0c 08
	00 00		 mov	 ecx, DWORD PTR __$EHRec$[esp+2072]
  003aa	64 89 0d 00 00
	00 00		 mov	 DWORD PTR fs:__except_list, ecx
  003b1	8b 8c 24 08 08
	00 00		 mov	 ecx, DWORD PTR __$ArrayPad$[esp+2072]
  003b8	e8 00 00 00 00	 call	 @__security_check_cookie@4
  003bd	5f		 pop	 edi
  003be	5e		 pop	 esi
  003bf	5d		 pop	 ebp
  003c0	5b		 pop	 ebx
  003c1	81 c4 08 08 00
	00		 add	 esp, 2056		; 00000808H
  003c7	c2 28 00	 ret	 40			; 00000028H
  003ca	8b ff		 npad	 2
$L181631:
  003cc	00 00 00 00	 DD	 $L176163
  003d0	00 00 00 00	 DD	 $L176164
  003d4	00 00 00 00	 DD	 $L176164
  003d8	00 00 00 00	 DD	 $L176165
_TEXT	ENDS
;	COMDAT text$x
text$x	SEGMENT
$L181459:
  00000	8d 4d 28	 lea	 ecx, DWORD PTR _strNAME$[ebp-4]
  00003	e9 00 00 00 00	 jmp	 ??1?$CStringT@DV?$StrTraitATL@DV?$ChTraitsCRT@D@ATL@@@ATL@@@ATL@@QAE@XZ ; ATL::CStringT<char,ATL::StrTraitATL<char,ATL::ChTraitsCRT<char> > >::~CStringT<char,ATL::StrTraitATL<char,ATL::ChTraitsCRT<char> > >
__ehhandler$?LogAuctionReg@CUdpSocket@@QAEXKPAVCTPlayer@@K_J1PAVCTItem@@KV?$CStringT@DV?$StrTraitATL@DV?$ChTraitsCRT@D@ATL@@@ATL@@@ATL@@@Z:
  00008	b8 00 00 00 00	 mov	 eax, OFFSET FLAT:$T181624
  0000d	e9 00 00 00 00	 jmp	 ___CxxFrameHandler
text$x	ENDS
?LogAuctionReg@CUdpSocket@@QAEXKPAVCTPlayer@@K_J1PAVCTItem@@KV?$CStringT@DV?$StrTraitATL@DV?$ChTraitsCRT@D@ATL@@@ATL@@@ATL@@@Z ENDP ; CUdpSocket::LogAuctionReg
PUBLIC	?LogAuctionBid@CUdpSocket@@QAEXKPAVCTPlayer@@K_JPAVCTItem@@EKV?$CStringT@DV?$StrTraitATL@DV?$ChTraitsCRT@D@ATL@@@ATL@@@ATL@@@Z ; CUdpSocket::LogAuctionBid
;	COMDAT xdata$x
; File c:\program files (x86)\microsoft visual studio .net 2003\vc7\atlmfc\include\atlsimpstr.h
xdata$x	SEGMENT
$T181817 DD	0ffffffffH
	DD	FLAT:$L181644
$T181809 DD	019930520H
	DD	01H
	DD	FLAT:$T181817
	DD	2 DUP(00H)
	DD	2 DUP(00H)
; Function compile flags: /Ogty
; File c:\users\pierr\desktop\4story - oldschool\sources\tserver\tmapsvr\udpsocket.cpp
xdata$x	ENDS
;	COMDAT ?LogAuctionBid@CUdpSocket@@QAEXKPAVCTPlayer@@K_JPAVCTItem@@EKV?$CStringT@DV?$StrTraitATL@DV?$ChTraitsCRT@D@ATL@@@ATL@@@ATL@@@Z
_TEXT	SEGMENT
_tNowTime$181774 = -2056				; size = 8
_itTMAGIC$176190 = -2056				; size = 4
$T181780 = -2048					; size = 1016
_LogData$ = -1032					; size = 1016
__$ArrayPad$ = -16					; size = 4
__$EHRec$ = -12						; size = 12
__$ReturnAddr$ = 4					; size = 4
_pAction$ = 8						; size = 4
_pPlayer$ = 12						; size = 4
_dwAuctionID$ = 16					; size = 4
_ldwPrice$ = 20						; size = 8
_pItem$ = 28						; size = 4
_bCount$ = 32						; size = 1
_dwCharID$ = 36						; size = 4
_strNAME$ = 40						; size = 4
?LogAuctionBid@CUdpSocket@@QAEXKPAVCTPlayer@@K_JPAVCTItem@@EKV?$CStringT@DV?$StrTraitATL@DV?$ChTraitsCRT@D@ATL@@@ATL@@@ATL@@@Z PROC NEAR ; CUdpSocket::LogAuctionBid, COMDAT
; _this$ = ecx

; 2197 : {

  00000	6a ff		 push	 -1
  00002	68 00 00 00 00	 push	 __ehhandler$?LogAuctionBid@CUdpSocket@@QAEXKPAVCTPlayer@@K_JPAVCTItem@@EKV?$CStringT@DV?$StrTraitATL@DV?$ChTraitsCRT@D@ATL@@@ATL@@@ATL@@@Z
  00007	64 a1 00 00 00
	00		 mov	 eax, DWORD PTR fs:__except_list
  0000d	50		 push	 eax
  0000e	64 89 25 00 00
	00 00		 mov	 DWORD PTR fs:__except_list, esp
  00015	81 ec fc 07 00
	00		 sub	 esp, 2044		; 000007fcH
  0001b	a1 00 00 00 00	 mov	 eax, DWORD PTR ___security_cookie
  00020	53		 push	 ebx
  00021	55		 push	 ebp
  00022	56		 push	 esi
  00023	89 84 24 04 08
	00 00		 mov	 DWORD PTR __$ArrayPad$[esp+2068], eax
  0002a	57		 push	 edi

; 2198 : 	//if(!pPlayer ) return;
; 2199 : 
; 2200 : 	_LOG_DATA_ LogData;
; 2201 : 	memset( &LogData, 0x00, sizeof(_LOG_DATA_));
; 2202 : 
; 2203 : 	LogData.dwAction		=	pAction;
; 2204 : 	LogData.dwServerID		=	_AtlModule.GetServerID();
; 2205 : 
; 2206 : 	if(pPlayer)

  0002b	8b b4 24 20 08
	00 00		 mov	 esi, DWORD PTR _pPlayer$[esp+2068]
  00032	33 c0		 xor	 eax, eax
  00034	b9 fe 00 00 00	 mov	 ecx, 254		; 000000feH
  00039	8d bc 24 10 04
	00 00		 lea	 edi, DWORD PTR _LogData$[esp+2072]
  00040	f3 ab		 rep stosd
  00042	0f b6 0d 82 9e
	00 00		 movzx	 ecx, BYTE PTR ?_AtlModule@@3VCTMapSvrModule@@A+40578
  00049	8b 84 24 1c 08
	00 00		 mov	 eax, DWORD PTR _pAction$[esp+2068]
  00050	33 ed		 xor	 ebp, ebp
  00052	3b f5		 cmp	 esi, ebp
  00054	89 ac 24 14 08
	00 00		 mov	 DWORD PTR __$EHRec$[esp+2080], ebp
  0005b	89 84 24 34 04
	00 00		 mov	 DWORD PTR _LogData$[esp+2108], eax
  00062	89 8c 24 20 04
	00 00		 mov	 DWORD PTR _LogData$[esp+2088], ecx
  00069	0f 84 e0 00 00
	00		 je	 $L176181

; 2207 : 	{
; 2208 : 		lstrcpy( LogData.szClientIP, inet_ntoa(pPlayer->m_addr.sin_addr) );	

  0006f	8b 56 40	 mov	 edx, DWORD PTR [esi+64]
  00072	52		 push	 edx
  00073	ff 15 00 00 00
	00		 call	 DWORD PTR __imp__inet_ntoa@4
  00079	8b 3d 00 00 00
	00		 mov	 edi, DWORD PTR __imp__lstrcpyA@8
  0007f	50		 push	 eax
  00080	8d 84 24 28 04
	00 00		 lea	 eax, DWORD PTR _LogData$[esp+2096]
  00087	50		 push	 eax
  00088	ff d7		 call	 edi

; 2209 : 
; 2210 : 		LogData.wMapID			=	pPlayer->m_wMapID;				//	Map ID
; 2211 : 		LogData.nX				=	(int)pPlayer->m_fPosX;			//	X

  0008a	d9 86 7c 01 01
	00		 fld	 DWORD PTR [esi+65916]
  00090	66 8b 8e 90 01
	01 00		 mov	 cx, WORD PTR [esi+65936]
  00097	66 89 8c 24 38
	04 00 00	 mov	 WORD PTR _LogData$[esp+2112], cx
  0009f	e8 00 00 00 00	 call	 __ftol2

; 2212 : 		LogData.nY				=	(int)pPlayer->m_fPosY;			//	Y

  000a4	d9 86 80 01 01
	00		 fld	 DWORD PTR [esi+65920]
  000aa	89 84 24 3c 04
	00 00		 mov	 DWORD PTR _LogData$[esp+2116], eax
  000b1	e8 00 00 00 00	 call	 __ftol2

; 2213 : 		LogData.nZ				=	(int)pPlayer->m_fPosZ;			//	Z

  000b6	d9 86 84 01 01
	00		 fld	 DWORD PTR [esi+65924]
  000bc	89 84 24 40 04
	00 00		 mov	 DWORD PTR _LogData$[esp+2120], eax
  000c3	e8 00 00 00 00	 call	 __ftol2

; 2214 : 
; 2215 : 		LogData.dwKey[0]		=	pPlayer->m_dwUserID;			//	User ID

  000c8	8b 96 ac 03 01
	00		 mov	 edx, DWORD PTR [esi+66476]
  000ce	89 84 24 44 04
	00 00		 mov	 DWORD PTR _LogData$[esp+2124], eax

; 2216 : 		LogData.dwKey[1]		=	pPlayer->m_dwID;				//	Character Seq

  000d5	8b 86 44 01 01
	00		 mov	 eax, DWORD PTR [esi+65860]
  000db	89 84 24 50 04
	00 00		 mov	 DWORD PTR _LogData$[esp+2136], eax

; 2217 : 		lstrcpy(LogData.szKey[1],	pPlayer->m_strNAME);			//	Character Name

  000e2	8b 86 a4 03 01
	00		 mov	 eax, DWORD PTR [esi+66468]
  000e8	50		 push	 eax
  000e9	8d 8c 24 d6 04
	00 00		 lea	 ecx, DWORD PTR _LogData$[esp+2270]
  000f0	51		 push	 ecx
  000f1	89 94 24 50 04
	00 00		 mov	 DWORD PTR _LogData$[esp+2136], edx
  000f8	89 ac 24 54 04
	00 00		 mov	 DWORD PTR _LogData$[esp+2140], ebp
  000ff	89 ac 24 5c 04
	00 00		 mov	 DWORD PTR _LogData$[esp+2148], ebp
  00106	ff d7		 call	 edi

; 2218 : 
; 2219 : 		LogData.dwKey[9]		=	pPlayer->m_bCountry + (pPlayer->m_bAidCountry == TCONTRY_N ? 0 : (pPlayer->m_bAidCountry+1)*10);			//	Country

  00108	8a 86 9e 01 01
	00		 mov	 al, BYTE PTR [esi+65950]
  0010e	3c 03		 cmp	 al, 3
  00110	75 04		 jne	 SHORT $L181639
  00112	33 c9		 xor	 ecx, ecx
  00114	eb 09		 jmp	 SHORT $L181640
$L181639:
  00116	0f b6 c0	 movzx	 eax, al
  00119	40		 inc	 eax
  0011a	8d 0c 80	 lea	 ecx, DWORD PTR [eax+eax*4]
  0011d	d1 e1		 shl	 ecx, 1
$L181640:
  0011f	0f b6 86 9d 01
	01 00		 movzx	 eax, BYTE PTR [esi+65949]
  00126	03 c1		 add	 eax, ecx
  00128	99		 cdq
  00129	89 84 24 90 04
	00 00		 mov	 DWORD PTR _LogData$[esp+2200], eax

; 2220 : 		LogData.dwKey[10]		=	pPlayer->m_bLevel;				//	Level

  00130	0f b6 86 7b 01
	01 00		 movzx	 eax, BYTE PTR [esi+65915]
  00137	89 94 24 94 04
	00 00		 mov	 DWORD PTR _LogData$[esp+2204], edx
  0013e	99		 cdq
  0013f	89 84 24 98 04
	00 00		 mov	 DWORD PTR _LogData$[esp+2208], eax
  00146	89 94 24 9c 04
	00 00		 mov	 DWORD PTR _LogData$[esp+2212], edx

; 2221 : 	}
; 2222 : 	else

  0014d	eb 2b		 jmp	 SHORT $L176185
$L176181:

; 2223 : 	{
; 2224 : 		LogData.dwKey[1]	= dwCharID;								//	Character Seq
; 2225 : 		lstrcpy(LogData.szKey[1],	strNAME);						//	Character Name

  0014f	8b 84 24 3c 08
	00 00		 mov	 eax, DWORD PTR _strNAME$[esp+2068]
  00156	8b 94 24 38 08
	00 00		 mov	 edx, DWORD PTR _dwCharID$[esp+2068]
  0015d	50		 push	 eax
  0015e	8d 8c 24 d6 04
	00 00		 lea	 ecx, DWORD PTR _LogData$[esp+2270]
  00165	51		 push	 ecx
  00166	89 94 24 58 04
	00 00		 mov	 DWORD PTR _LogData$[esp+2144], edx
  0016d	89 ac 24 5c 04
	00 00		 mov	 DWORD PTR _LogData$[esp+2148], ebp
  00174	ff 15 00 00 00
	00		 call	 DWORD PTR __imp__lstrcpyA@8
$L176185:

; 2226 : 	}
; 2227 : 
; 2228 : 	LogData.dwKey[2]		=	bCount;

  0017a	0f b6 84 24 34
	08 00 00	 movzx	 eax, BYTE PTR _bCount$[esp+2068]

; 2229 : 	LogData.dwKey[5]		=	dwAuctionID;
; 2230 : 	LogData.dwKey[6]		=	ldwPrice;
; 2231 : 
; 2232 : 	if(pItem)

  00182	8b b4 24 30 08
	00 00		 mov	 esi, DWORD PTR _pItem$[esp+2068]
  00189	3b f5		 cmp	 esi, ebp
  0018b	8b 8c 24 2c 08
	00 00		 mov	 ecx, DWORD PTR _ldwPrice$[esp+2072]
  00192	99		 cdq
  00193	89 84 24 58 04
	00 00		 mov	 DWORD PTR _LogData$[esp+2144], eax
  0019a	8b 84 24 28 08
	00 00		 mov	 eax, DWORD PTR _ldwPrice$[esp+2068]
  001a1	89 94 24 5c 04
	00 00		 mov	 DWORD PTR _LogData$[esp+2148], edx
  001a8	8b 94 24 24 08
	00 00		 mov	 edx, DWORD PTR _dwAuctionID$[esp+2068]
  001af	89 94 24 70 04
	00 00		 mov	 DWORD PTR _LogData$[esp+2168], edx
  001b6	89 ac 24 74 04
	00 00		 mov	 DWORD PTR _LogData$[esp+2172], ebp
  001bd	89 84 24 78 04
	00 00		 mov	 DWORD PTR _LogData$[esp+2176], eax
  001c4	89 8c 24 7c 04
	00 00		 mov	 DWORD PTR _LogData$[esp+2180], ecx
  001cb	0f 84 52 01 00
	00		 je	 $L176186

; 2233 : 	{
; 2234 : 		LogData.dwKey[3]		=	pItem->m_wItemID;			// Item

  001d1	66 8b 4e 30	 mov	 cx, WORD PTR [esi+48]

; 2235 : 		LogData.dwKey[7]		=	pItem->m_bCount;			//	Item Count

  001d5	8a 5e 32	 mov	 bl, BYTE PTR [esi+50]

; 2236 : 		LogData.dwKey[8]		=	pItem->m_dlID;				//	Unique Key
; 2237 : 
; 2238 : 		LogData.dwFormat = LF_ITEM;
; 2239 : 
; 2240 : 		_LPLOG_ITEM_ pLogItem = (_LPLOG_ITEM_)LogData.szLog;
; 2241 : 		
; 2242 : 		pLogItem->bInven		=	pItem->m_bInven;			//	 
; 2243 : 		pLogItem->bItemID		=	pItem->m_bItemID;			//	 
; 2244 : 
; 2245 : 		pLogItem->wItemID		=	pItem->m_wItemID;			//	 INDEX
; 2246 : 
; 2247 : 		//
; 2248 : 		//	Game Part   
; 2249 : 		//	lstrcpy( pLogItem->szItemName, pItem->m_pTITEM-> )	//	 
; 2250 : 
; 2251 : 		pLogItem->bLevel		=	pItem->m_bLevel;			//	 
; 2252 : 		pLogItem->bCount		=	pItem->m_bCount;				
; 2253 : 
; 2254 : 		pLogItem->bGLevel		=	pItem->m_bGLevel;			//	  
; 2255 : 		pLogItem->dwDuraMax		=	pItem->m_dwDuraMax;			//	 
; 2256 : 		pLogItem->dwDuraCur		=	pItem->m_dwDuraCur;			//	 	
; 2257 : 		pLogItem->bRefineCur	=	pItem->m_bRefineCur;		//	 
; 2258 : 
; 2259 : 		pLogItem->bGradeEffect	=	pItem->m_bGradeEffect;		//	  
; 2260 : 
; 2261 : 		int	nOrder = 0;
; 2262 : 		MAPTMAGIC::iterator itTMAGIC;
; 2263 : 		for( itTMAGIC = pItem->m_mapTMAGIC.begin(); itTMAGIC != pItem->m_mapTMAGIC.end(); itTMAGIC++)

  001d8	8b 7e 0c	 mov	 edi, DWORD PTR [esi+12]
  001db	0f b7 c1	 movzx	 eax, cx
  001de	99		 cdq
  001df	89 84 24 60 04
	00 00		 mov	 DWORD PTR _LogData$[esp+2152], eax
  001e6	89 94 24 64 04
	00 00		 mov	 DWORD PTR _LogData$[esp+2156], edx
  001ed	0f b6 c3	 movzx	 eax, bl
  001f0	99		 cdq
  001f1	89 84 24 80 04
	00 00		 mov	 DWORD PTR _LogData$[esp+2184], eax
  001f8	8b 46 24	 mov	 eax, DWORD PTR [esi+36]
  001fb	89 94 24 84 04
	00 00		 mov	 DWORD PTR _LogData$[esp+2188], edx
  00202	8b 56 20	 mov	 edx, DWORD PTR [esi+32]
  00205	89 94 24 88 04
	00 00		 mov	 DWORD PTR _LogData$[esp+2192], edx
  0020c	8a 56 2a	 mov	 dl, BYTE PTR [esi+42]
  0020f	89 84 24 8c 04
	00 00		 mov	 DWORD PTR _LogData$[esp+2196], eax
  00216	8a 46 28	 mov	 al, BYTE PTR [esi+40]
  00219	88 94 24 0c 06
	00 00		 mov	 BYTE PTR _LogData$[esp+2580], dl
  00220	8b 56 34	 mov	 edx, DWORD PTR [esi+52]
  00223	88 84 24 0d 06
	00 00		 mov	 BYTE PTR _LogData$[esp+2581], al
  0022a	8a 46 33	 mov	 al, BYTE PTR [esi+51]
  0022d	66 89 8c 24 0e
	06 00 00	 mov	 WORD PTR _LogData$[esp+2582], cx
  00235	8a 4e 29	 mov	 cl, BYTE PTR [esi+41]
  00238	88 8c 24 42 06
	00 00		 mov	 BYTE PTR _LogData$[esp+2634], cl
  0023f	8a 4e 3c	 mov	 cl, BYTE PTR [esi+60]
  00242	88 84 24 44 06
	00 00		 mov	 BYTE PTR _LogData$[esp+2636], al
  00249	8b 46 38	 mov	 eax, DWORD PTR [esi+56]
  0024c	89 94 24 48 06
	00 00		 mov	 DWORD PTR _LogData$[esp+2640], edx
  00253	8a 56 68	 mov	 dl, BYTE PTR [esi+104]
  00256	c7 84 24 00 06
	00 00 02 00 00
	00		 mov	 DWORD PTR _LogData$[esp+2568], 2
  00261	88 9c 24 43 06
	00 00		 mov	 BYTE PTR _LogData$[esp+2635], bl
  00268	89 84 24 4c 06
	00 00		 mov	 DWORD PTR _LogData$[esp+2644], eax
  0026f	88 8c 24 50 06
	00 00		 mov	 BYTE PTR _LogData$[esp+2648], cl
  00276	88 94 24 51 06
	00 00		 mov	 BYTE PTR _LogData$[esp+2649], dl
  0027d	8b 07		 mov	 eax, DWORD PTR [edi]
  0027f	3b c7		 cmp	 eax, edi
  00281	89 44 24 10	 mov	 DWORD PTR _itTMAGIC$176190[esp+2072], eax
  00285	74 31		 je	 SHORT $L176196

; 2233 : 	{
; 2234 : 		LogData.dwKey[3]		=	pItem->m_wItemID;			// Item

  00287	8d 9c 24 58 06
	00 00		 lea	 ebx, DWORD PTR _LogData$[esp+2656]
  0028e	8b ff		 npad	 2
$L181812:

; 2264 : 		{
; 2265 : 			pLogItem->bMagic[nOrder] =	(*itTMAGIC).first; 

  00290	8a 48 0c	 mov	 cl, BYTE PTR [eax+12]
  00293	88 8c 2c 52 06
	00 00		 mov	 BYTE PTR _LogData$[esp+ebp+2650], cl

; 2266 : 			pLogItem->wValue[nOrder] =	(*itTMAGIC).second->m_wValue;

  0029a	8b 50 10	 mov	 edx, DWORD PTR [eax+16]
  0029d	66 8b 02	 mov	 ax, WORD PTR [edx]
  002a0	66 89 03	 mov	 WORD PTR [ebx], ax
  002a3	8d 4c 24 10	 lea	 ecx, DWORD PTR _itTMAGIC$176190[esp+2072]

; 2267 : 			
; 2268 : 			nOrder ++;

  002a7	45		 inc	 ebp
  002a8	83 c3 02	 add	 ebx, 2
  002ab	e8 00 00 00 00	 call	 ?_Inc@const_iterator@?$_Tree@V?$_Tmap_traits@EPAUtagTMAGIC@@U?$less@E@std@@V?$allocator@U?$pair@$$CBEPAUtagTMAGIC@@@std@@@3@$0A@@std@@@std@@QAEXXZ ; std::_Tree<std::_Tmap_traits<unsigned char,tagTMAGIC *,std::less<unsigned char>,std::allocator<std::pair<unsigned char const ,tagTMAGIC *> >,0> >::const_iterator::_Inc
  002b0	8b 44 24 10	 mov	 eax, DWORD PTR _itTMAGIC$176190[esp+2072]
  002b4	3b c7		 cmp	 eax, edi
  002b6	75 d8		 jne	 SHORT $L181812
$L176196:

; 2269 : 		}
; 2270 : 
; 2271 : 		//	Item Type
; 2272 : 		if( pItem->m_bGLevel )

  002b8	8a 46 33	 mov	 al, BYTE PTR [esi+51]
  002bb	84 c0		 test	 al, al
  002bd	74 0d		 je	 SHORT $L176197

; 2273 : 		{
; 2274 : 			LogData.dwKey[4] = 3;						//	Seal Item

  002bf	c7 84 24 68 04
	00 00 03 00 00
	00		 mov	 DWORD PTR _LogData$[esp+2160], 3

; 2275 : 		}
; 2276 : 		else

  002ca	eb 36		 jmp	 SHORT $L181815
$L176197:

; 2277 : 		{
; 2278 : 			switch(nOrder)

  002cc	83 fd 03	 cmp	 ebp, 3
  002cf	77 3c		 ja	 SHORT $L176200
  002d1	ff 24 ad 00 00
	00 00		 jmp	 DWORD PTR $L181816[ebp*4]
$L176203:

; 2279 : 			{
; 2280 : 			case 0 :	LogData.dwKey[4] = 0;	break;	//	Normal Item

  002d8	33 c0		 xor	 eax, eax
  002da	89 84 24 68 04
	00 00		 mov	 DWORD PTR _LogData$[esp+2160], eax
  002e1	89 84 24 6c 04
	00 00		 mov	 DWORD PTR _LogData$[esp+2164], eax
  002e8	eb 23		 jmp	 SHORT $L176200
$L176204:

; 2281 : 
; 2282 : 			case 1 : 
; 2283 : 			case 2 :	LogData.dwKey[4] = 1;	break;	//	Magic Item

  002ea	c7 84 24 68 04
	00 00 01 00 00
	00		 mov	 DWORD PTR _LogData$[esp+2160], 1
  002f5	eb 0b		 jmp	 SHORT $L181815
$L176205:

; 2284 : 
; 2285 : 			case 3 :	LogData.dwKey[4] = 2;	break;	//	Rare Item

  002f7	c7 84 24 68 04
	00 00 02 00 00
	00		 mov	 DWORD PTR _LogData$[esp+2160], 2
$L181815:
  00302	c7 84 24 6c 04
	00 00 00 00 00
	00		 mov	 DWORD PTR _LogData$[esp+2164], 0
$L176200:

; 2286 : 
; 2287 : 			case 4 :	break;
; 2288 : 
; 2289 : 			case 5 :	break;
; 2290 : 			}
; 2291 : 		}
; 2292 : 
; 2293 : 		pLogItem->dEndTime	=	pItem->m_dEndTime;

  0030d	8b 4e 40	 mov	 ecx, DWORD PTR [esi+64]
  00310	8b 56 44	 mov	 edx, DWORD PTR [esi+68]
  00313	89 8c 24 7c 06
	00 00		 mov	 DWORD PTR _LogData$[esp+2692], ecx
  0031a	89 94 24 80 06
	00 00		 mov	 DWORD PTR _LogData$[esp+2696], edx
  00321	33 ed		 xor	 ebp, ebp
$L176186:

; 2294 : 	}
; 2295 : 
; 2296 : 	SendDMLog( LogData );

  00323	b9 fe 00 00 00	 mov	 ecx, 254		; 000000feH
  00328	8d b4 24 10 04
	00 00		 lea	 esi, DWORD PTR _LogData$[esp+2072]
  0032f	8d 7c 24 18	 lea	 edi, DWORD PTR $T181780[esp+2072]
  00333	55		 push	 ebp
  00334	f3 a5		 rep movsd
  00336	e8 00 00 00 00	 call	 __time64
  0033b	89 44 24 14	 mov	 DWORD PTR _tNowTime$181774[esp+2076], eax
  0033f	83 c4 04	 add	 esp, 4
  00342	8d 44 24 18	 lea	 eax, DWORD PTR $T181780[esp+2072]
  00346	50		 push	 eax
  00347	8d 4c 24 14	 lea	 ecx, DWORD PTR _tNowTime$181774[esp+2076]
  0034b	89 54 24 18	 mov	 DWORD PTR _tNowTime$181774[esp+2080], edx
  0034f	e8 00 00 00 00	 call	 ?GetAsDBTIMESTAMP@CTime@ATL@@QBE_NAAUtagDBTIMESTAMP@@@Z ; ATL::CTime::GetAsDBTIMESTAMP
  00354	81 ec f8 03 00
	00		 sub	 esp, 1016		; 000003f8H
  0035a	8b fc		 mov	 edi, esp
  0035c	b9 fe 00 00 00	 mov	 ecx, 254		; 000000feH
  00361	8d b4 24 10 04
	00 00		 lea	 esi, DWORD PTR $T181780[esp+3088]
  00368	f3 a5		 rep movsd
  0036a	b9 00 00 00 00	 mov	 ecx, OFFSET FLAT:?_AtlModule@@3VCTMapSvrModule@@A
  0036f	e8 00 00 00 00	 call	 ?SendDM_UDPLOG_REQ@CTMapSvrModule@@QAEXU_LOG_DATA_@@@Z ; CTMapSvrModule::SendDM_UDPLOG_REQ

; 2297 : }

  00374	8b 84 24 3c 08
	00 00		 mov	 eax, DWORD PTR _strNAME$[esp+2068]
  0037b	83 c0 f0	 add	 eax, -16		; fffffff0H
  0037e	c7 84 24 14 08
	00 00 ff ff ff
	ff		 mov	 DWORD PTR __$EHRec$[esp+2080], -1
  00389	8d 48 0c	 lea	 ecx, DWORD PTR [eax+12]
  0038c	83 ca ff	 or	 edx, -1
  0038f	f0 0f c1 11	 lock	  xadd	 DWORD PTR [ecx], edx
  00393	4a		 dec	 edx
  00394	85 d2		 test	 edx, edx
  00396	7f 08		 jg	 SHORT $L181807
  00398	8b 08		 mov	 ecx, DWORD PTR [eax]
  0039a	8b 11		 mov	 edx, DWORD PTR [ecx]
  0039c	50		 push	 eax
  0039d	ff 52 04	 call	 DWORD PTR [edx+4]
$L181807:
  003a0	8b 8c 24 0c 08
	00 00		 mov	 ecx, DWORD PTR __$EHRec$[esp+2072]
  003a7	64 89 0d 00 00
	00 00		 mov	 DWORD PTR fs:__except_list, ecx
  003ae	8b 8c 24 08 08
	00 00		 mov	 ecx, DWORD PTR __$ArrayPad$[esp+2072]
  003b5	e8 00 00 00 00	 call	 @__security_check_cookie@4
  003ba	5f		 pop	 edi
  003bb	5e		 pop	 esi
  003bc	5d		 pop	 ebp
  003bd	5b		 pop	 ebx
  003be	81 c4 08 08 00
	00		 add	 esp, 2056		; 00000808H
  003c4	c2 24 00	 ret	 36			; 00000024H
  003c7	90		 npad	 1
$L181816:
  003c8	00 00 00 00	 DD	 $L176203
  003cc	00 00 00 00	 DD	 $L176204
  003d0	00 00 00 00	 DD	 $L176204
  003d4	00 00 00 00	 DD	 $L176205
_TEXT	ENDS
;	COMDAT text$x
text$x	SEGMENT
$L181644:
  00000	8d 4d 24	 lea	 ecx, DWORD PTR _strNAME$[ebp-4]
  00003	e9 00 00 00 00	 jmp	 ??1?$CStringT@DV?$StrTraitATL@DV?$ChTraitsCRT@D@ATL@@@ATL@@@ATL@@QAE@XZ ; ATL::CStringT<char,ATL::StrTraitATL<char,ATL::ChTraitsCRT<char> > >::~CStringT<char,ATL::StrTraitATL<char,ATL::ChTraitsCRT<char> > >
__ehhandler$?LogAuctionBid@CUdpSocket@@QAEXKPAVCTPlayer@@K_JPAVCTItem@@EKV?$CStringT@DV?$StrTraitATL@DV?$ChTraitsCRT@D@ATL@@@ATL@@@ATL@@@Z:
  00008	b8 00 00 00 00	 mov	 eax, OFFSET FLAT:$T181809
  0000d	e9 00 00 00 00	 jmp	 ___CxxFrameHandler
text$x	ENDS
?LogAuctionBid@CUdpSocket@@QAEXKPAVCTPlayer@@K_JPAVCTItem@@EKV?$CStringT@DV?$StrTraitATL@DV?$ChTraitsCRT@D@ATL@@@ATL@@@ATL@@@Z ENDP ; CUdpSocket::LogAuctionBid
PUBLIC	??Y?$CSimpleStringT@D$0A@@ATL@@QAEAAV01@PBD@Z	; ATL::CSimpleStringT<char,0>::operator+=
; Function compile flags: /Ogty
; File c:\program files (x86)\microsoft visual studio .net 2003\vc7\atlmfc\include\atlsimpstr.h
;	COMDAT ??Y?$CSimpleStringT@D$0A@@ATL@@QAEAAV01@PBD@Z
_TEXT	SEGMENT
_pszSrc$ = 8						; size = 4
??Y?$CSimpleStringT@D$0A@@ATL@@QAEAAV01@PBD@Z PROC NEAR	; ATL::CSimpleStringT<char,0>::operator+=, COMDAT
; _this$ = ecx

; 337  : 		Append( pszSrc );

  00000	8b 54 24 04	 mov	 edx, DWORD PTR _pszSrc$[esp-4]
  00004	85 d2		 test	 edx, edx
  00006	57		 push	 edi
  00007	8b f9		 mov	 edi, ecx
  00009	75 0f		 jne	 SHORT $L181833
  0000b	33 c0		 xor	 eax, eax
  0000d	50		 push	 eax
  0000e	52		 push	 edx
  0000f	e8 00 00 00 00	 call	 ?Append@?$CSimpleStringT@D$0A@@ATL@@QAEXPBDH@Z ; ATL::CSimpleStringT<char,0>::Append

; 338  : 
; 339  : 		return( *this );

  00014	8b c7		 mov	 eax, edi
  00016	5f		 pop	 edi

; 340  : 	}

  00017	c2 04 00	 ret	 4

; 337  : 		Append( pszSrc );

$L181833:
  0001a	8b c2		 mov	 eax, edx
  0001c	56		 push	 esi
  0001d	8d 70 01	 lea	 esi, DWORD PTR [eax+1]
$L181834:
  00020	8a 08		 mov	 cl, BYTE PTR [eax]
  00022	40		 inc	 eax
  00023	84 c9		 test	 cl, cl
  00025	75 f9		 jne	 SHORT $L181834
  00027	2b c6		 sub	 eax, esi
  00029	5e		 pop	 esi
  0002a	50		 push	 eax
  0002b	52		 push	 edx
  0002c	8b cf		 mov	 ecx, edi
  0002e	e8 00 00 00 00	 call	 ?Append@?$CSimpleStringT@D$0A@@ATL@@QAEXPBDH@Z ; ATL::CSimpleStringT<char,0>::Append

; 338  : 
; 339  : 		return( *this );

  00033	8b c7		 mov	 eax, edi
  00035	5f		 pop	 edi

; 340  : 	}

  00036	c2 04 00	 ret	 4
??Y?$CSimpleStringT@D$0A@@ATL@@QAEAAV01@PBD@Z ENDP	; ATL::CSimpleStringT<char,0>::operator+=
_TEXT	ENDS
PUBLIC	??4?$CStringT@DV?$StrTraitATL@DV?$ChTraitsCRT@D@ATL@@@ATL@@@ATL@@QAEAAV01@PBD@Z ; ATL::CStringT<char,ATL::StrTraitATL<char,ATL::ChTraitsCRT<char> > >::operator=
; Function compile flags: /Ogty
; File c:\program files (x86)\microsoft visual studio .net 2003\vc7\atlmfc\include\cstringt.h
;	COMDAT ??4?$CStringT@DV?$StrTraitATL@DV?$ChTraitsCRT@D@ATL@@@ATL@@@ATL@@QAEAAV01@PBD@Z
_TEXT	SEGMENT
_pszSrc$ = 8						; size = 4
??4?$CStringT@DV?$StrTraitATL@DV?$ChTraitsCRT@D@ATL@@@ATL@@@ATL@@QAEAAV01@PBD@Z PROC NEAR ; ATL::CStringT<char,ATL::StrTraitATL<char,ATL::ChTraitsCRT<char> > >::operator=, COMDAT
; _this$ = ecx

; 983  : 		CThisSimpleString::operator=( pszSrc );

  00000	8b 54 24 04	 mov	 edx, DWORD PTR _pszSrc$[esp-4]
  00004	85 d2		 test	 edx, edx
  00006	57		 push	 edi
  00007	8b f9		 mov	 edi, ecx
  00009	75 0f		 jne	 SHORT $L181856
  0000b	33 c0		 xor	 eax, eax
  0000d	50		 push	 eax
  0000e	52		 push	 edx
  0000f	e8 00 00 00 00	 call	 ?SetString@?$CSimpleStringT@D$0A@@ATL@@QAEXPBDH@Z ; ATL::CSimpleStringT<char,0>::SetString

; 984  : 
; 985  : 		return( *this );

  00014	8b c7		 mov	 eax, edi
  00016	5f		 pop	 edi

; 986  : 	}

  00017	c2 04 00	 ret	 4

; 983  : 		CThisSimpleString::operator=( pszSrc );

$L181856:
  0001a	8b c2		 mov	 eax, edx
  0001c	56		 push	 esi
  0001d	8d 70 01	 lea	 esi, DWORD PTR [eax+1]
$L181857:
  00020	8a 08		 mov	 cl, BYTE PTR [eax]
  00022	40		 inc	 eax
  00023	84 c9		 test	 cl, cl
  00025	75 f9		 jne	 SHORT $L181857
  00027	2b c6		 sub	 eax, esi
  00029	5e		 pop	 esi
  0002a	50		 push	 eax
  0002b	52		 push	 edx
  0002c	8b cf		 mov	 ecx, edi
  0002e	e8 00 00 00 00	 call	 ?SetString@?$CSimpleStringT@D$0A@@ATL@@QAEXPBDH@Z ; ATL::CSimpleStringT<char,0>::SetString

; 984  : 
; 985  : 		return( *this );

  00033	8b c7		 mov	 eax, edi
  00035	5f		 pop	 edi

; 986  : 	}

  00036	c2 04 00	 ret	 4
??4?$CStringT@DV?$StrTraitATL@DV?$ChTraitsCRT@D@ATL@@@ATL@@@ATL@@QAEAAV01@PBD@Z ENDP ; ATL::CStringT<char,ATL::StrTraitATL<char,ATL::ChTraitsCRT<char> > >::operator=
_TEXT	ENDS
PUBLIC	??Y?$CStringT@DV?$StrTraitATL@DV?$ChTraitsCRT@D@ATL@@@ATL@@@ATL@@QAEAAV01@PBD@Z ; ATL::CStringT<char,ATL::StrTraitATL<char,ATL::ChTraitsCRT<char> > >::operator+=
; Function compile flags: /Ogty
;	COMDAT ??Y?$CStringT@DV?$StrTraitATL@DV?$ChTraitsCRT@D@ATL@@@ATL@@@ATL@@QAEAAV01@PBD@Z
_TEXT	SEGMENT
_pszSrc$ = 8						; size = 4
??Y?$CStringT@DV?$StrTraitATL@DV?$ChTraitsCRT@D@ATL@@@ATL@@@ATL@@QAEAAV01@PBD@Z PROC NEAR ; ATL::CStringT<char,ATL::StrTraitATL<char,ATL::ChTraitsCRT<char> > >::operator+=, COMDAT
; _this$ = ecx

; 1043 : 		CThisSimpleString::operator+=( pszSrc );

  00000	8b 54 24 04	 mov	 edx, DWORD PTR _pszSrc$[esp-4]
  00004	85 d2		 test	 edx, edx
  00006	57		 push	 edi
  00007	8b f9		 mov	 edi, ecx
  00009	75 0f		 jne	 SHORT $L181879
  0000b	33 c0		 xor	 eax, eax
  0000d	50		 push	 eax
  0000e	52		 push	 edx
  0000f	e8 00 00 00 00	 call	 ?Append@?$CSimpleStringT@D$0A@@ATL@@QAEXPBDH@Z ; ATL::CSimpleStringT<char,0>::Append

; 1044 : 
; 1045 : 		return( *this );

  00014	8b c7		 mov	 eax, edi
  00016	5f		 pop	 edi

; 1046 : 	}

  00017	c2 04 00	 ret	 4

; 1043 : 		CThisSimpleString::operator+=( pszSrc );

$L181879:
  0001a	8b c2		 mov	 eax, edx
  0001c	56		 push	 esi
  0001d	8d 70 01	 lea	 esi, DWORD PTR [eax+1]
$L181880:
  00020	8a 08		 mov	 cl, BYTE PTR [eax]
  00022	40		 inc	 eax
  00023	84 c9		 test	 cl, cl
  00025	75 f9		 jne	 SHORT $L181880
  00027	2b c6		 sub	 eax, esi
  00029	5e		 pop	 esi
  0002a	50		 push	 eax
  0002b	52		 push	 edx
  0002c	8b cf		 mov	 ecx, edi
  0002e	e8 00 00 00 00	 call	 ?Append@?$CSimpleStringT@D$0A@@ATL@@QAEXPBDH@Z ; ATL::CSimpleStringT<char,0>::Append

; 1044 : 
; 1045 : 		return( *this );

  00033	8b c7		 mov	 eax, edi
  00035	5f		 pop	 edi

; 1046 : 	}

  00036	c2 04 00	 ret	 4
??Y?$CStringT@DV?$StrTraitATL@DV?$ChTraitsCRT@D@ATL@@@ATL@@@ATL@@QAEAAV01@PBD@Z ENDP ; ATL::CStringT<char,ATL::StrTraitATL<char,ATL::ChTraitsCRT<char> > >::operator+=
_TEXT	ENDS
PUBLIC	??0?$CStringT@DV?$StrTraitATL@DV?$ChTraitsCRT@D@ATL@@@ATL@@@ATL@@QAE@PBD@Z ; ATL::CStringT<char,ATL::StrTraitATL<char,ATL::ChTraitsCRT<char> > >::CStringT<char,ATL::StrTraitATL<char,ATL::ChTraitsCRT<char> > >
;	COMDAT xdata$x
; File c:\program files (x86)\microsoft visual studio .net 2003\vc7\atlmfc\include\atlsimpstr.h
xdata$x	SEGMENT
$T181964 DD	0ffffffffH
	DD	FLAT:$L181884
$T181958 DD	019930520H
	DD	01H
	DD	FLAT:$T181964
	DD	2 DUP(00H)
	DD	2 DUP(00H)
; Function compile flags: /Ogty
; File c:\program files (x86)\microsoft visual studio .net 2003\vc7\atlmfc\include\cstringt.h
xdata$x	ENDS
;	COMDAT ??0?$CStringT@DV?$StrTraitATL@DV?$ChTraitsCRT@D@ATL@@@ATL@@@ATL@@QAE@PBD@Z
_TEXT	SEGMENT
_this$ = -16						; size = 4
__$EHRec$ = -12						; size = 12
_pszSrc$ = 8						; size = 4
??0?$CStringT@DV?$StrTraitATL@DV?$ChTraitsCRT@D@ATL@@@ATL@@@ATL@@QAE@PBD@Z PROC NEAR ; ATL::CStringT<char,ATL::StrTraitATL<char,ATL::ChTraitsCRT<char> > >::CStringT<char,ATL::StrTraitATL<char,ATL::ChTraitsCRT<char> > >, COMDAT
; _this$ = ecx

; 830  : 	{

  00000	6a ff		 push	 -1
  00002	68 00 00 00 00	 push	 __ehhandler$??0?$CStringT@DV?$StrTraitATL@DV?$ChTraitsCRT@D@ATL@@@ATL@@@ATL@@QAE@PBD@Z
  00007	64 a1 00 00 00
	00		 mov	 eax, DWORD PTR fs:__except_list
  0000d	50		 push	 eax
  0000e	64 89 25 00 00
	00 00		 mov	 DWORD PTR fs:__except_list, esp
  00015	51		 push	 ecx
  00016	a1 00 00 00 00	 mov	 eax, DWORD PTR ?g_strmgr@ATL@@3VCAtlStringMgr@1@A
  0001b	56		 push	 esi
  0001c	8b f1		 mov	 esi, ecx
  0001e	57		 push	 edi
  0001f	b9 00 00 00 00	 mov	 ecx, OFFSET FLAT:?g_strmgr@ATL@@3VCAtlStringMgr@1@A ; ATL::g_strmgr
  00024	89 74 24 08	 mov	 DWORD PTR _this$[esp+24], esi
  00028	ff 50 0c	 call	 DWORD PTR [eax+12]
  0002b	83 c0 10	 add	 eax, 16			; 00000010H
  0002e	89 06		 mov	 DWORD PTR [esi], eax

; 831  : 		if( !CheckImplicitLoad( pszSrc ) )

  00030	8b 54 24 1c	 mov	 edx, DWORD PTR _pszSrc$[esp+20]
  00034	85 d2		 test	 edx, edx
  00036	c7 44 24 14 00
	00 00 00	 mov	 DWORD PTR __$EHRec$[esp+32], 0
  0003e	74 38		 je	 SHORT $L181960
  00040	f7 c2 00 00 ff
	ff		 test	 edx, -65536		; ffff0000H
  00046	75 34		 jne	 SHORT $L181956
  00048	0f b7 fa	 movzx	 edi, dx
  0004b	6a 00		 push	 0
  0004d	57		 push	 edi
  0004e	e8 00 00 00 00	 call	 ?AtlFindStringResourceInstance@ATL@@YAPAUHINSTANCE__@@IG@Z ; ATL::AtlFindStringResourceInstance
  00053	83 c4 08	 add	 esp, 8
  00056	85 c0		 test	 eax, eax
  00058	74 39		 je	 SHORT $L181962
  0005a	57		 push	 edi
  0005b	50		 push	 eax
  0005c	8b ce		 mov	 ecx, esi
  0005e	e8 00 00 00 00	 call	 ?LoadStringA@?$CStringT@DV?$StrTraitATL@DV?$ChTraitsCRT@D@ATL@@@ATL@@@ATL@@QAEHPAUHINSTANCE__@@I@Z ; ATL::CStringT<char,ATL::StrTraitATL<char,ATL::ChTraitsCRT<char> > >::LoadStringA
  00063	5f		 pop	 edi

; 835  : 		}
; 836  : 	}

  00064	8b c6		 mov	 eax, esi
  00066	5e		 pop	 esi
  00067	8b 4c 24 04	 mov	 ecx, DWORD PTR __$EHRec$[esp+16]
  0006b	64 89 0d 00 00
	00 00		 mov	 DWORD PTR fs:__except_list, ecx
  00072	83 c4 10	 add	 esp, 16			; 00000010H
  00075	c2 04 00	 ret	 4
$L181960:

; 832  : 		{
; 833  : 			// nDestLength is in XCHARs
; 834  : 			*this = pszSrc;

  00078	33 c0		 xor	 eax, eax
  0007a	eb 0e		 jmp	 SHORT $L181955
$L181956:
  0007c	8b c2		 mov	 eax, edx
  0007e	8d 78 01	 lea	 edi, DWORD PTR [eax+1]
$L181961:
  00081	8a 08		 mov	 cl, BYTE PTR [eax]
  00083	40		 inc	 eax
  00084	84 c9		 test	 cl, cl
  00086	75 f9		 jne	 SHORT $L181961
  00088	2b c7		 sub	 eax, edi
$L181955:
  0008a	50		 push	 eax
  0008b	52		 push	 edx
  0008c	8b ce		 mov	 ecx, esi
  0008e	e8 00 00 00 00	 call	 ?SetString@?$CSimpleStringT@D$0A@@ATL@@QAEXPBDH@Z ; ATL::CSimpleStringT<char,0>::SetString
$L181962:

; 835  : 		}
; 836  : 	}

  00093	8b 4c 24 0c	 mov	 ecx, DWORD PTR __$EHRec$[esp+24]
  00097	5f		 pop	 edi
  00098	8b c6		 mov	 eax, esi
  0009a	5e		 pop	 esi
  0009b	64 89 0d 00 00
	00 00		 mov	 DWORD PTR fs:__except_list, ecx
  000a2	83 c4 10	 add	 esp, 16			; 00000010H
  000a5	c2 04 00	 ret	 4
_TEXT	ENDS
;	COMDAT text$x
text$x	SEGMENT
$L181884:
  00000	8b 4d f0	 mov	 ecx, DWORD PTR _this$[ebp]
  00003	e9 00 00 00 00	 jmp	 ??1?$CSimpleStringT@D$0A@@ATL@@QAE@XZ ; ATL::CSimpleStringT<char,0>::~CSimpleStringT<char,0>
__ehhandler$??0?$CStringT@DV?$StrTraitATL@DV?$ChTraitsCRT@D@ATL@@@ATL@@@ATL@@QAE@PBD@Z:
  00008	b8 00 00 00 00	 mov	 eax, OFFSET FLAT:$T181958
  0000d	e9 00 00 00 00	 jmp	 ___CxxFrameHandler
text$x	ENDS
??0?$CStringT@DV?$StrTraitATL@DV?$ChTraitsCRT@D@ATL@@@ATL@@@ATL@@QAE@PBD@Z ENDP ; ATL::CStringT<char,ATL::StrTraitATL<char,ATL::ChTraitsCRT<char> > >::CStringT<char,ATL::StrTraitATL<char,ATL::ChTraitsCRT<char> > >
PUBLIC	??_C@_0P@PANDFKMA@Tournament?5Win?$AA@		; `string'
PUBLIC	??_C@_09IHNBCNIA@?5?$FLQFINAL?$FN?$AA@		; `string'
PUBLIC	??_C@_09MFPECKPN@?5?$FLSFINAL?$FN?$AA@		; `string'
PUBLIC	??_C@_08CODJBDEI@?5?$FLFINAL?$FN?$AA@		; `string'
PUBLIC	?LogTournamentWin@CUdpSocket@@QAEXKPAUtagTOURNAMENTPLAYER@@0V?$CStringT@DV?$StrTraitATL@DV?$ChTraitsCRT@D@ATL@@@ATL@@@ATL@@KE@Z ; CUdpSocket::LogTournamentWin
;	COMDAT xdata$x
; File c:\program files (x86)\microsoft visual studio .net 2003\vc7\atlmfc\include\atlsimpstr.h
xdata$x	SEGMENT
$T182106 DD	0ffffffffH
	DD	FLAT:$L181971
	DD	00H
	DD	FLAT:$L181972
$T182102 DD	019930520H
	DD	02H
	DD	FLAT:$T182106
	DD	2 DUP(00H)
	DD	2 DUP(00H)
xdata$x	ENDS
;	COMDAT ??_C@_0P@PANDFKMA@Tournament?5Win?$AA@
CONST	SEGMENT
??_C@_0P@PANDFKMA@Tournament?5Win?$AA@ DB 'Tournament Win', 00H ; `string'
CONST	ENDS
;	COMDAT ??_C@_08CODJBDEI@?5?$FLFINAL?$FN?$AA@
CONST	SEGMENT
??_C@_08CODJBDEI@?5?$FLFINAL?$FN?$AA@ DB ' [FINAL]', 00H ; `string'
CONST	ENDS
;	COMDAT ??_C@_09MFPECKPN@?5?$FLSFINAL?$FN?$AA@
CONST	SEGMENT
??_C@_09MFPECKPN@?5?$FLSFINAL?$FN?$AA@ DB ' [SFINAL]', 00H ; `string'
CONST	ENDS
;	COMDAT ??_C@_09IHNBCNIA@?5?$FLQFINAL?$FN?$AA@
CONST	SEGMENT
??_C@_09IHNBCNIA@?5?$FLQFINAL?$FN?$AA@ DB ' [QFINAL]', 00H ; `string'
; Function compile flags: /Ogty
; File c:\users\pierr\desktop\4story - oldschool\sources\tserver\tmapsvr\udpsocket.cpp
CONST	ENDS
;	COMDAT ?LogTournamentWin@CUdpSocket@@QAEXKPAUtagTOURNAMENTPLAYER@@0V?$CStringT@DV?$StrTraitATL@DV?$ChTraitsCRT@D@ATL@@@ATL@@@ATL@@KE@Z
_TEXT	SEGMENT
_strLog$ = -1036					; size = 4
_LogData$ = -1032					; size = 1016
__$ArrayPad$ = -16					; size = 4
__$EHRec$ = -12						; size = 12
__$ReturnAddr$ = 4					; size = 4
_pAction$ = 8						; size = 4
_pWin$ = 12						; size = 4
_pLos$ = 16						; size = 4
_pTitle$ = 20						; size = 4
_dwValue$ = 24						; size = 4
_bStep$ = 28						; size = 1
?LogTournamentWin@CUdpSocket@@QAEXKPAUtagTOURNAMENTPLAYER@@0V?$CStringT@DV?$StrTraitATL@DV?$ChTraitsCRT@D@ATL@@@ATL@@@ATL@@KE@Z PROC NEAR ; CUdpSocket::LogTournamentWin, COMDAT
; _this$ = ecx

; 2343 : {

  00000	6a ff		 push	 -1
  00002	68 00 00 00 00	 push	 __ehhandler$?LogTournamentWin@CUdpSocket@@QAEXKPAUtagTOURNAMENTPLAYER@@0V?$CStringT@DV?$StrTraitATL@DV?$ChTraitsCRT@D@ATL@@@ATL@@@ATL@@KE@Z
  00007	64 a1 00 00 00
	00		 mov	 eax, DWORD PTR fs:__except_list
  0000d	50		 push	 eax
  0000e	64 89 25 00 00
	00 00		 mov	 DWORD PTR fs:__except_list, esp
  00015	81 ec 00 04 00
	00		 sub	 esp, 1024		; 00000400H
  0001b	a1 00 00 00 00	 mov	 eax, DWORD PTR ___security_cookie
  00020	53		 push	 ebx
  00021	55		 push	 ebp
  00022	56		 push	 esi
  00023	89 84 24 08 04
	00 00		 mov	 DWORD PTR __$ArrayPad$[esp+1048], eax
  0002a	57		 push	 edi
  0002b	8b e9		 mov	 ebp, ecx

; 2344 : 	if(!pWin) return;

  0002d	8b b4 24 24 04
	00 00		 mov	 esi, DWORD PTR _pWin$[esp+1048]
  00034	33 db		 xor	 ebx, ebx
  00036	3b f3		 cmp	 esi, ebx
  00038	89 9c 24 18 04
	00 00		 mov	 DWORD PTR __$EHRec$[esp+1060], ebx
  0003f	0f 84 76 01 00
	00		 je	 $L182072

; 2345 : 
; 2346 : 	_LOG_DATA_ LogData;
; 2347 : 	memset( &LogData, 0x00, sizeof(_LOG_DATA_));
; 2348 : 
; 2349 : 	LogData.dwAction	=	pAction;
; 2350 : 	LogData.dwServerID	=	_AtlModule.GetServerID();
; 2351 : 
; 2352 : 	LogData.wMapID			=	pWin->m_wMapID;							//	Map ID

  00045	66 8b 56 16	 mov	 dx, WORD PTR [esi+22]
  00049	33 c0		 xor	 eax, eax
  0004b	b9 fe 00 00 00	 mov	 ecx, 254		; 000000feH
  00050	8d 7c 24 14	 lea	 edi, DWORD PTR _LogData$[esp+1052]
  00054	f3 ab		 rep stosd
  00056	8b 84 24 20 04
	00 00		 mov	 eax, DWORD PTR _pAction$[esp+1048]
  0005d	0f b6 0d 82 9e
	00 00		 movzx	 ecx, BYTE PTR ?_AtlModule@@3VCTMapSvrModule@@A+40578
  00064	89 44 24 38	 mov	 DWORD PTR _LogData$[esp+1088], eax

; 2353 : 	LogData.dwKey[1]		=	pWin->m_dwCharID;						//	Character Seq	

  00068	8b 06		 mov	 eax, DWORD PTR [esi]
  0006a	89 44 24 54	 mov	 DWORD PTR _LogData$[esp+1116], eax

; 2354 : 	LogData.dwKey[2]		=	pWin->m_bCountry;						//	Country

  0006e	0f b6 46 04	 movzx	 eax, BYTE PTR [esi+4]

; 2355 : 	lstrcpy(LogData.szKey[1],	pWin->m_strName	);						//	Character Name

  00072	8b 76 08	 mov	 esi, DWORD PTR [esi+8]
  00075	89 4c 24 24	 mov	 DWORD PTR _LogData$[esp+1068], ecx
  00079	66 89 54 24 3c	 mov	 WORD PTR _LogData$[esp+1092], dx
  0007e	99		 cdq
  0007f	56		 push	 esi
  00080	8b 35 00 00 00
	00		 mov	 esi, DWORD PTR __imp__lstrcpyA@8
  00086	8d 8c 24 da 00
	00 00		 lea	 ecx, DWORD PTR _LogData$[esp+1250]
  0008d	51		 push	 ecx
  0008e	89 5c 24 60	 mov	 DWORD PTR _LogData$[esp+1128], ebx
  00092	89 44 24 64	 mov	 DWORD PTR _LogData$[esp+1132], eax
  00096	89 54 24 68	 mov	 DWORD PTR _LogData$[esp+1136], edx
  0009a	ff d6		 call	 esi

; 2356 : 	
; 2357 : 	lstrcpy(LogData.szKey[4],	pTitle	);								//	Event Entry Title

  0009c	8b 94 24 2c 04
	00 00		 mov	 edx, DWORD PTR _pTitle$[esp+1048]
  000a3	52		 push	 edx
  000a4	8d 84 24 70 01
	00 00		 lea	 eax, DWORD PTR _LogData$[esp+1400]
  000ab	50		 push	 eax
  000ac	ff d6		 call	 esi

; 2358 : 
; 2359 : 	if(dwValue)

  000ae	8b bc 24 30 04
	00 00		 mov	 edi, DWORD PTR _dwValue$[esp+1048]
  000b5	3b fb		 cmp	 edi, ebx
  000b7	74 19		 je	 SHORT $L176239

; 2360 : 	{
; 2361 : 		lstrcpy(LogData.szKey[5],	"Party"	);							//	Party

  000b9	68 00 00 00 00	 push	 OFFSET FLAT:??_C@_05IKNCGCHC@Party?$AA@
  000be	8d 8c 24 a2 01
	00 00		 lea	 ecx, DWORD PTR _LogData$[esp+1450]
  000c5	51		 push	 ecx
  000c6	ff d6		 call	 esi

; 2362 : 		LogData.dwKey[3]	=	dwValue;								//	Party LederID

  000c8	89 7c 24 64	 mov	 DWORD PTR _LogData$[esp+1132], edi
  000cc	89 5c 24 68	 mov	 DWORD PTR _LogData$[esp+1136], ebx

; 2363 : 	}
; 2364 : 	else lstrcpy(LogData.szKey[5],	"Single");							

  000d0	eb 0f		 jmp	 SHORT $L176240
$L176239:
  000d2	68 00 00 00 00	 push	 OFFSET FLAT:??_C@_06IGOBCGAJ@Single?$AA@
  000d7	8d 94 24 a2 01
	00 00		 lea	 edx, DWORD PTR _LogData$[esp+1450]
  000de	52		 push	 edx
  000df	ff d6		 call	 esi
$L176240:

; 2365 : 
; 2366 : 	CString strLog = "Tournament Win";

  000e1	68 00 00 00 00	 push	 OFFSET FLAT:??_C@_0P@PANDFKMA@Tournament?5Win?$AA@
  000e6	8d 4c 24 14	 lea	 ecx, DWORD PTR _strLog$[esp+1056]
  000ea	e8 00 00 00 00	 call	 ??0?$CStringT@DV?$StrTraitATL@DV?$ChTraitsCRT@D@ATL@@@ATL@@@ATL@@QAE@PBD@Z ; ATL::CStringT<char,ATL::StrTraitATL<char,ATL::ChTraitsCRT<char> > >::CStringT<char,ATL::StrTraitATL<char,ATL::ChTraitsCRT<char> > >

; 2367 : 
; 2368 : 	switch(bStep)

  000ef	8a 84 24 34 04
	00 00		 mov	 al, BYTE PTR _bStep$[esp+1048]
  000f6	3c 06		 cmp	 al, 6
  000f8	c6 84 24 18 04
	00 00 01	 mov	 BYTE PTR __$EHRec$[esp+1060], 1
  00100	74 28		 je	 SHORT $L176247
  00102	3c 09		 cmp	 al, 9
  00104	74 14		 je	 SHORT $L176249
  00106	3c 0c		 cmp	 al, 12			; 0000000cH
  00108	75 30		 jne	 SHORT $L182031

; 2372 : 	case TNMTSTEP_FINAL: strLog+= " [FINAL]";	break;

  0010a	68 00 00 00 00	 push	 OFFSET FLAT:??_C@_08CODJBDEI@?5?$FLFINAL?$FN?$AA@
  0010f	8d 4c 24 14	 lea	 ecx, DWORD PTR _strLog$[esp+1056]
  00113	e8 00 00 00 00	 call	 ??Y?$CStringT@DV?$StrTraitATL@DV?$ChTraitsCRT@D@ATL@@@ATL@@@ATL@@QAEAAV01@PBD@Z ; ATL::CStringT<char,ATL::StrTraitATL<char,ATL::ChTraitsCRT<char> > >::operator+=
  00118	eb 20		 jmp	 SHORT $L182031
$L176249:

; 2371 : 	case TNMTSTEP_SFINAL: strLog+= " [SFINAL]";	break;

  0011a	68 00 00 00 00	 push	 OFFSET FLAT:??_C@_09MFPECKPN@?5?$FLSFINAL?$FN?$AA@
  0011f	8d 4c 24 14	 lea	 ecx, DWORD PTR _strLog$[esp+1056]
  00123	e8 00 00 00 00	 call	 ??Y?$CStringT@DV?$StrTraitATL@DV?$ChTraitsCRT@D@ATL@@@ATL@@@ATL@@QAEAAV01@PBD@Z ; ATL::CStringT<char,ATL::StrTraitATL<char,ATL::ChTraitsCRT<char> > >::operator+=
  00128	eb 10		 jmp	 SHORT $L182031
$L176247:

; 2369 : 	{
; 2370 : 	case TNMTSTEP_QFINAL: strLog+= " [QFINAL]";	break;

  0012a	6a 09		 push	 9
  0012c	68 00 00 00 00	 push	 OFFSET FLAT:??_C@_09IHNBCNIA@?5?$FLQFINAL?$FN?$AA@
  00131	8d 4c 24 18	 lea	 ecx, DWORD PTR _strLog$[esp+1060]
  00135	e8 00 00 00 00	 call	 ?Append@?$CSimpleStringT@D$0A@@ATL@@QAEXPBDH@Z ; ATL::CSimpleStringT<char,0>::Append
$L182031:

; 2373 : 	}
; 2374 : 
; 2375 : 	if(pLos)

  0013a	8b 84 24 28 04
	00 00		 mov	 eax, DWORD PTR _pLos$[esp+1048]
  00141	3b c3		 cmp	 eax, ebx
  00143	74 1e		 je	 SHORT $L176253

; 2376 : 	{
; 2377 : 		//	Target
; 2378 : 		LogData.dwKey[6]		=	pLos->m_dwCharID;						//	Character Seq

  00145	8b 08		 mov	 ecx, DWORD PTR [eax]

; 2379 : 		lstrcpy(LogData.szKey[2],	pLos->m_strName		);					//	Character Name

  00147	8b 40 08	 mov	 eax, DWORD PTR [eax+8]
  0014a	50		 push	 eax
  0014b	8d 94 24 0c 01
	00 00		 lea	 edx, DWORD PTR _LogData$[esp+1300]
  00152	52		 push	 edx
  00153	89 8c 24 84 00
	00 00		 mov	 DWORD PTR _LogData$[esp+1164], ecx
  0015a	89 9c 24 88 00
	00 00		 mov	 DWORD PTR _LogData$[esp+1168], ebx
  00161	ff d6		 call	 esi
$L176253:

; 2380 : 	}
; 2381 : 
; 2382 : 	lstrcpy(LogData.szLog,	strLog	);

  00163	8b 44 24 10	 mov	 eax, DWORD PTR _strLog$[esp+1052]
  00167	50		 push	 eax
  00168	8d 8c 24 0c 02
	00 00		 lea	 ecx, DWORD PTR _LogData$[esp+1556]
  0016f	51		 push	 ecx
  00170	ff d6		 call	 esi

; 2383 : 
; 2384 : 	LogData.dwFormat = LF_TEXT;
; 2385 : 
; 2386 : 	SendDMLog( LogData );

  00172	81 ec f8 03 00
	00		 sub	 esp, 1016		; 000003f8H
  00178	8b fc		 mov	 edi, esp
  0017a	89 9c 24 fc 05
	00 00		 mov	 DWORD PTR _LogData$[esp+2564], ebx
  00181	b9 fe 00 00 00	 mov	 ecx, 254		; 000000feH
  00186	8d b4 24 0c 04
	00 00		 lea	 esi, DWORD PTR _LogData$[esp+2068]
  0018d	f3 a5		 rep movsd
  0018f	8b cd		 mov	 ecx, ebp
  00191	e8 00 00 00 00	 call	 ?SendDMLog@CUdpSocket@@QAEXU_LOG_DATA_@@@Z ; CUdpSocket::SendDMLog

; 2387 : }

  00196	8b 44 24 10	 mov	 eax, DWORD PTR _strLog$[esp+1052]
  0019a	83 c0 f0	 add	 eax, -16		; fffffff0H
  0019d	88 9c 24 18 04
	00 00		 mov	 BYTE PTR __$EHRec$[esp+1060], bl
  001a4	8d 50 0c	 lea	 edx, DWORD PTR [eax+12]
  001a7	83 c9 ff	 or	 ecx, -1
  001aa	f0 0f c1 0a	 lock	  xadd	 DWORD PTR [edx], ecx
  001ae	49		 dec	 ecx
  001af	85 c9		 test	 ecx, ecx
  001b1	7f 08		 jg	 SHORT $L182072
  001b3	8b 08		 mov	 ecx, DWORD PTR [eax]
  001b5	8b 11		 mov	 edx, DWORD PTR [ecx]
  001b7	50		 push	 eax
  001b8	ff 52 04	 call	 DWORD PTR [edx+4]
$L182072:
  001bb	8b 84 24 2c 04
	00 00		 mov	 eax, DWORD PTR _pTitle$[esp+1048]
  001c2	83 c0 f0	 add	 eax, -16		; fffffff0H
  001c5	c7 84 24 18 04
	00 00 ff ff ff
	ff		 mov	 DWORD PTR __$EHRec$[esp+1060], -1
  001d0	8d 48 0c	 lea	 ecx, DWORD PTR [eax+12]
  001d3	83 ca ff	 or	 edx, -1
  001d6	f0 0f c1 11	 lock	  xadd	 DWORD PTR [ecx], edx
  001da	4a		 dec	 edx
  001db	85 d2		 test	 edx, edx
  001dd	7f 08		 jg	 SHORT $L182099
  001df	8b 08		 mov	 ecx, DWORD PTR [eax]
  001e1	8b 11		 mov	 edx, DWORD PTR [ecx]
  001e3	50		 push	 eax
  001e4	ff 52 04	 call	 DWORD PTR [edx+4]
$L182099:
  001e7	8b 8c 24 10 04
	00 00		 mov	 ecx, DWORD PTR __$EHRec$[esp+1052]
  001ee	64 89 0d 00 00
	00 00		 mov	 DWORD PTR fs:__except_list, ecx
  001f5	8b 8c 24 0c 04
	00 00		 mov	 ecx, DWORD PTR __$ArrayPad$[esp+1052]
  001fc	e8 00 00 00 00	 call	 @__security_check_cookie@4
  00201	5f		 pop	 edi
  00202	5e		 pop	 esi
  00203	5d		 pop	 ebp
  00204	5b		 pop	 ebx
  00205	81 c4 0c 04 00
	00		 add	 esp, 1036		; 0000040cH
  0020b	c2 18 00	 ret	 24			; 00000018H
_TEXT	ENDS
;	COMDAT text$x
text$x	SEGMENT
$L181971:
  00000	8d 4d 10	 lea	 ecx, DWORD PTR _pTitle$[ebp-4]
  00003	e9 00 00 00 00	 jmp	 ??1?$CStringT@DV?$StrTraitATL@DV?$ChTraitsCRT@D@ATL@@@ATL@@@ATL@@QAE@XZ ; ATL::CStringT<char,ATL::StrTraitATL<char,ATL::ChTraitsCRT<char> > >::~CStringT<char,ATL::StrTraitATL<char,ATL::ChTraitsCRT<char> > >
$L181972:
  00008	8d 8d f4 fb ff
	ff		 lea	 ecx, DWORD PTR _strLog$[ebp]
  0000e	e9 00 00 00 00	 jmp	 ??1?$CStringT@DV?$StrTraitATL@DV?$ChTraitsCRT@D@ATL@@@ATL@@@ATL@@QAE@XZ ; ATL::CStringT<char,ATL::StrTraitATL<char,ATL::ChTraitsCRT<char> > >::~CStringT<char,ATL::StrTraitATL<char,ATL::ChTraitsCRT<char> > >
__ehhandler$?LogTournamentWin@CUdpSocket@@QAEXKPAUtagTOURNAMENTPLAYER@@0V?$CStringT@DV?$StrTraitATL@DV?$ChTraitsCRT@D@ATL@@@ATL@@@ATL@@KE@Z:
  00013	b8 00 00 00 00	 mov	 eax, OFFSET FLAT:$T182102
  00018	e9 00 00 00 00	 jmp	 ___CxxFrameHandler
text$x	ENDS
?LogTournamentWin@CUdpSocket@@QAEXKPAUtagTOURNAMENTPLAYER@@0V?$CStringT@DV?$StrTraitATL@DV?$ChTraitsCRT@D@ATL@@@ATL@@@ATL@@KE@Z ENDP ; CUdpSocket::LogTournamentWin
END
