; Listing generated by Microsoft (R) Optimizing Compiler Version 13.10.3077 

	TITLE	.\CSHandler.cpp
	.386P
include listing.inc
if @Version gt 510
.model FLAT
else
_TEXT	SEGMENT PARA USE32 PUBLIC 'CODE'
_TEXT	ENDS
_DATA	SEGMENT DWORD USE32 PUBLIC 'DATA'
_DATA	ENDS
CONST	SEGMENT DWORD USE32 PUBLIC 'CONST'
CONST	ENDS
_BSS	SEGMENT DWORD USE32 PUBLIC 'BSS'
_BSS	ENDS
$$SYMBOLS	SEGMENT BYTE USE32 'DEBSYM'
$$SYMBOLS	ENDS
$$TYPES	SEGMENT BYTE USE32 'DEBTYP'
$$TYPES	ENDS
_TLS	SEGMENT DWORD USE32 PUBLIC 'TLS'
_TLS	ENDS
;	COMDAT ??_C@_1EO@FMKJBPHL@?$AA?$HL?$AAA?$AA9?$AAC?$AA0?$AAC?$AAF?$AA5?$AA3?$AA?9?$AA7?$AAD?$AA5?$AA4?$AA?9?$AA4?$AA3?$AAD?$AA7?$AA?9@
CONST	SEGMENT DWORD USE32 PUBLIC 'CONST'
CONST	ENDS
;	COMDAT ??_C@_0CH@PONHNPAA@?$HLA9C0CF53?97D54?943D7?9B01C?9D604FB9@
CONST	SEGMENT DWORD USE32 PUBLIC 'CONST'
CONST	ENDS
;	COMDAT ??_C@_0N@OGFEPDED@LocalService?$AA@
CONST	SEGMENT DWORD USE32 PUBLIC 'CONST'
CONST	ENDS
;	COMDAT ??_C@_02CCDHMLDD@?9?1?$AA@
CONST	SEGMENT DWORD USE32 PUBLIC 'CONST'
CONST	ENDS
;	COMDAT ??_C@_0M@MIGBKCMN@UnregServer?$AA@
CONST	SEGMENT DWORD USE32 PUBLIC 'CONST'
CONST	ENDS
;	COMDAT ??_C@_09LJBJJPCG@RegServer?$AA@
CONST	SEGMENT DWORD USE32 PUBLIC 'CONST'
CONST	ENDS
;	COMDAT ??_C@_07LMLHFMEG@Service?$AA@
CONST	SEGMENT DWORD USE32 PUBLIC 'CONST'
CONST	ENDS
;	COMDAT ??_C@_07PNHNHBAB@Install?$AA@
CONST	SEGMENT DWORD USE32 PUBLIC 'CONST'
CONST	ENDS
;	COMDAT ??_C@_09LAEJNBCE@UnInstall?$AA@
CONST	SEGMENT DWORD USE32 PUBLIC 'CONST'
CONST	ENDS
;	COMDAT ??_C@_04FABLJDN@Name?$AA@
CONST	SEGMENT DWORD USE32 PUBLIC 'CONST'
CONST	ENDS
;	COMDAT ??_C@_01CLKCMJKC@?5?$AA@
CONST	SEGMENT DWORD USE32 PUBLIC 'CONST'
CONST	ENDS
;	COMDAT ??_C@_0M@DBFDLFJJ@?$CFs?5?9Name?5?$CFs?$AA@
CONST	SEGMENT DWORD USE32 PUBLIC 'CONST'
CONST	ENDS
;	COMDAT ??_C@_0BP@GECJKCAK@Could?5not?5open?5Service?5Manager?$AA@
CONST	SEGMENT DWORD USE32 PUBLIC 'CONST'
CONST	ENDS
;	COMDAT ??_C@_06HCEGMCNE@RPCSS?$AA?$AA@
CONST	SEGMENT DWORD USE32 PUBLIC 'CONST'
CONST	ENDS
;	COMDAT ??_C@_0BI@HDJFCBEP@Could?5not?5start?5service?$AA@
CONST	SEGMENT DWORD USE32 PUBLIC 'CONST'
CONST	ENDS
;	COMDAT ??_C@_0L@ELJEICCB@CSPCheckIP?$AA@
CONST	SEGMENT DWORD USE32 PUBLIC 'CONST'
CONST	ENDS
;	COMDAT ??_C@_0L@GFPDFJMC@CSPLoginJP?$AA@
CONST	SEGMENT DWORD USE32 PUBLIC 'CONST'
CONST	ENDS
;	COMDAT ??_C@_08HPOEJKLG@CSPLogin?$AA@
CONST	SEGMENT DWORD USE32 PUBLIC 'CONST'
CONST	ENDS
;	COMDAT ??_C@_0N@CGBFMCOF@CSPTestLogin?$AA@
CONST	SEGMENT DWORD USE32 PUBLIC 'CONST'
CONST	ENDS
;	COMDAT ??_C@_0O@COGHLFI@CTBLGroupList?$AA@
CONST	SEGMENT DWORD USE32 PUBLIC 'CONST'
CONST	ENDS
;	COMDAT ??_C@_0M@PBFKKLH@CTBLChannel?$AA@
CONST	SEGMENT DWORD USE32 PUBLIC 'CONST'
CONST	ENDS
;	COMDAT ??_C@_08DBFGMAPO@CTBLChar?$AA@
CONST	SEGMENT DWORD USE32 PUBLIC 'CONST'
CONST	ENDS
;	COMDAT ??_C@_08KLHKJGDK@CTBLItem?$AA@
CONST	SEGMENT DWORD USE32 PUBLIC 'CONST'
CONST	ENDS
;	COMDAT ??_C@_0BA@GEEJCOBC@CSPGetGuildInfo?$AA@
CONST	SEGMENT DWORD USE32 PUBLIC 'CONST'
CONST	ENDS
;	COMDAT ??_C@_0O@NJMHDGOD@CSPCreateChar?$AA@
CONST	SEGMENT DWORD USE32 PUBLIC 'CONST'
CONST	ENDS
;	COMDAT ??_C@_0P@KEKLJILN@CSPCheckPasswd?$AA@
CONST	SEGMENT DWORD USE32 PUBLIC 'CONST'
CONST	ENDS
;	COMDAT ??_C@_0O@BNGHABFA@CSPDeleteChar?$AA@
CONST	SEGMENT DWORD USE32 PUBLIC 'CONST'
CONST	ENDS
;	COMDAT ??_C@_0BA@NAMCOCHJ@CSPFindServerID?$AA@
CONST	SEGMENT DWORD USE32 PUBLIC 'CONST'
CONST	ENDS
;	COMDAT ??_C@_08ELCCIPKB@CSPRoute?$AA@
CONST	SEGMENT DWORD USE32 PUBLIC 'CONST'
CONST	ENDS
;	COMDAT ??_C@_0N@IBGPBEGA@CSPAgreement?$AA@
CONST	SEGMENT DWORD USE32 PUBLIC 'CONST'
CONST	ENDS
;	COMDAT ??_C@_04DLPLDIDM@L?5?$CFd?$AA@
CONST	SEGMENT DWORD USE32 PUBLIC 'CONST'
CONST	ENDS
;	COMDAT ??_C@_0BH@JMOCNDDL@Could?5not?5open?5service?$AA@
CONST	SEGMENT DWORD USE32 PUBLIC 'CONST'
CONST	ENDS
;	COMDAT ??_C@_0BH@GKJBBOLK@Could?5not?5stop?5service?$AA@
CONST	SEGMENT DWORD USE32 PUBLIC 'CONST'
CONST	ENDS
;	COMDAT ??_C@_0BJ@NMBIIKKI@Could?5not?5delete?5service?$AA@
CONST	SEGMENT DWORD USE32 PUBLIC 'CONST'
CONST	ENDS
;	COMDAT ??_C@_0BM@PAPJHAGI@invalid?5map?1set?$DMT?$DO?5iterator?$AA@
CONST	SEGMENT DWORD USE32 PUBLIC 'CONST'
CONST	ENDS
;	COMDAT ??_C@_0BE@JONHPENG@map?1set?$DMT?$DO?5too?5long?$AA@
CONST	SEGMENT DWORD USE32 PUBLIC 'CONST'
CONST	ENDS
;	COMDAT ??_C@_0BC@KBDMBKEH@deque?$DMT?$DO?5too?5long?$AA@
CONST	SEGMENT DWORD USE32 PUBLIC 'CONST'
CONST	ENDS
text$yc	SEGMENT PARA USE32 PUBLIC 'CODE'
text$yc	ENDS
CRT$XCA	SEGMENT DWORD USE32 PUBLIC 'DATA'
CRT$XCA	ENDS
CRT$XCU	SEGMENT DWORD USE32 PUBLIC 'DATA'
CRT$XCU	ENDS
CRT$XCL	SEGMENT DWORD USE32 PUBLIC 'DATA'
CRT$XCL	ENDS
CRT$XCC	SEGMENT DWORD USE32 PUBLIC 'DATA'
CRT$XCC	ENDS
CRT$XCZ	SEGMENT DWORD USE32 PUBLIC 'DATA'
CRT$XCZ	ENDS
text$yd	SEGMENT PARA USE32 PUBLIC 'CODE'
text$yd	ENDS
ATL$__m	SEGMENT DWORD USE32 PUBLIC ''
ATL$__m	ENDS
ATL$__z	SEGMENT DWORD USE32 PUBLIC ''
ATL$__z	ENDS
ATL$__a	SEGMENT DWORD USE32 PUBLIC ''
ATL$__a	ENDS
xdata$x	SEGMENT DWORD USE32 PUBLIC 'CONST'
xdata$x	ENDS
;	COMDAT ?GetAppId@CTLoginSvrModule@@SAPBGXZ
_TEXT	SEGMENT PARA USE32 PUBLIC 'CODE'
_TEXT	ENDS
;	COMDAT ?GetAppIdT@CTLoginSvrModule@@SAPADXZ
_TEXT	SEGMENT PARA USE32 PUBLIC 'CODE'
_TEXT	ENDS
;	COMDAT ?UpdateRegistryAppId@CTLoginSvrModule@@SGJH@Z
_TEXT	SEGMENT PARA USE32 PUBLIC 'CODE'
_TEXT	ENDS
;	COMDAT ?RegisterAppId@CTLoginSvrModule@@QAEJ_N@Z
_TEXT	SEGMENT PARA USE32 PUBLIC 'CODE'
_TEXT	ENDS
;	COMDAT ?Install@CTLoginSvrModule@@QAEHXZ
_TEXT	SEGMENT PARA USE32 PUBLIC 'CODE'
_TEXT	ENDS
;	COMDAT ?OnCT_SERVICEMONITOR_ACK@CTLoginSvrModule@@IAEKPAVCSqlDatabase@@PAV?$map@EPAUtagTGROUP@@U?$less@E@std@@V?$allocator@U?$pair@$$CBEPAUtagTGROUP@@@std@@@3@@std@@PAVCTUser@@AAVCPacket@@@Z
_TEXT	SEGMENT PARA USE32 PUBLIC 'CODE'
_TEXT	ENDS
;	COMDAT ?OnCT_SERVICEDATACLEAR_ACK@CTLoginSvrModule@@IAEKPAVCSqlDatabase@@PAV?$map@EPAUtagTGROUP@@U?$less@E@std@@V?$allocator@U?$pair@$$CBEPAUtagTGROUP@@@std@@@3@@std@@PAVCTUser@@AAVCPacket@@@Z
_TEXT	SEGMENT PARA USE32 PUBLIC 'CODE'
_TEXT	ENDS
;	COMDAT ?OnCT_CTRLSVR_REQ@CTLoginSvrModule@@IAEKPAVCSqlDatabase@@PAV?$map@EPAUtagTGROUP@@U?$less@E@std@@V?$allocator@U?$pair@$$CBEPAUtagTGROUP@@@std@@@3@@std@@PAVCTUser@@AAVCPacket@@@Z
_TEXT	SEGMENT PARA USE32 PUBLIC 'CODE'
_TEXT	ENDS
;	COMDAT ?OnCT_EVENTUPDATE_REQ@CTLoginSvrModule@@IAEKPAVCSqlDatabase@@PAV?$map@EPAUtagTGROUP@@U?$less@E@std@@V?$allocator@U?$pair@$$CBEPAUtagTGROUP@@@std@@@3@@std@@PAVCTUser@@AAVCPacket@@@Z
_TEXT	SEGMENT PARA USE32 PUBLIC 'CODE'
_TEXT	ENDS
;	COMDAT ??0tagEVENTINFO@@QAE@XZ
_TEXT	SEGMENT PARA USE32 PUBLIC 'CODE'
_TEXT	ENDS
;	COMDAT ??1tagEVENTINFO@@QAE@XZ
_TEXT	SEGMENT PARA USE32 PUBLIC 'CODE'
_TEXT	ENDS
;	COMDAT ??1?$pair@$$CBKUtagEVENTINFO@@@std@@QAE@XZ
_TEXT	SEGMENT PARA USE32 PUBLIC 'CODE'
_TEXT	ENDS
;	COMDAT ??0tagMONEVENT@@QAE@XZ
_TEXT	SEGMENT PARA USE32 PUBLIC 'CODE'
_TEXT	ENDS
;	COMDAT ??1tagMONEVENT@@QAE@XZ
_TEXT	SEGMENT PARA USE32 PUBLIC 'CODE'
_TEXT	ENDS
;	COMDAT ?OnCT_EVENTMSG_REQ@CTLoginSvrModule@@IAEKPAVCSqlDatabase@@PAV?$map@EPAUtagTGROUP@@U?$less@E@std@@V?$allocator@U?$pair@$$CBEPAUtagTGROUP@@@std@@@3@@std@@PAVCTUser@@AAVCPacket@@@Z
_TEXT	SEGMENT PARA USE32 PUBLIC 'CODE'
_TEXT	ENDS
;	COMDAT ?OnCS_LOGIN_REQ@CTLoginSvrModule@@IAEKPAVCSqlDatabase@@PAV?$map@EPAUtagTGROUP@@U?$less@E@std@@V?$allocator@U?$pair@$$CBEPAUtagTGROUP@@@std@@@3@@std@@PAVCTUser@@AAVCPacket@@@Z
_TEXT	SEGMENT PARA USE32 PUBLIC 'CODE'
_TEXT	ENDS
;	COMDAT ?OnCS_TESTLOGIN_REQ@CTLoginSvrModule@@IAEKPAVCSqlDatabase@@PAV?$map@EPAUtagTGROUP@@U?$less@E@std@@V?$allocator@U?$pair@$$CBEPAUtagTGROUP@@@std@@@3@@std@@PAVCTUser@@AAVCPacket@@@Z
_TEXT	SEGMENT PARA USE32 PUBLIC 'CODE'
_TEXT	ENDS
;	COMDAT ?OnCS_TESTVERSION_REQ@CTLoginSvrModule@@IAEKPAVCSqlDatabase@@PAV?$map@EPAUtagTGROUP@@U?$less@E@std@@V?$allocator@U?$pair@$$CBEPAUtagTGROUP@@@std@@@3@@std@@PAVCTUser@@AAVCPacket@@@Z
_TEXT	SEGMENT PARA USE32 PUBLIC 'CODE'
_TEXT	ENDS
;	COMDAT ?OnCS_GROUPLIST_REQ@CTLoginSvrModule@@IAEKPAVCSqlDatabase@@PAV?$map@EPAUtagTGROUP@@U?$less@E@std@@V?$allocator@U?$pair@$$CBEPAUtagTGROUP@@@std@@@3@@std@@PAVCTUser@@AAVCPacket@@@Z
_TEXT	SEGMENT PARA USE32 PUBLIC 'CODE'
_TEXT	ENDS
;	COMDAT ?OnCS_CHANNELLIST_REQ@CTLoginSvrModule@@IAEKPAVCSqlDatabase@@PAV?$map@EPAUtagTGROUP@@U?$less@E@std@@V?$allocator@U?$pair@$$CBEPAUtagTGROUP@@@std@@@3@@std@@PAVCTUser@@AAVCPacket@@@Z
_TEXT	SEGMENT PARA USE32 PUBLIC 'CODE'
_TEXT	ENDS
;	COMDAT ?OnCS_CHARLIST_REQ@CTLoginSvrModule@@IAEKPAVCSqlDatabase@@PAV?$map@EPAUtagTGROUP@@U?$less@E@std@@V?$allocator@U?$pair@$$CBEPAUtagTGROUP@@@std@@@3@@std@@PAVCTUser@@AAVCPacket@@@Z
_TEXT	SEGMENT PARA USE32 PUBLIC 'CODE'
_TEXT	ENDS
;	COMDAT ??_GtagTCHAR@@QAEPAXI@Z
_TEXT	SEGMENT PARA USE32 PUBLIC 'CODE'
_TEXT	ENDS
;	COMDAT ??0tagTCHAR@@QAE@XZ
_TEXT	SEGMENT PARA USE32 PUBLIC 'CODE'
_TEXT	ENDS
;	COMDAT ??1tagTCHAR@@QAE@XZ
_TEXT	SEGMENT PARA USE32 PUBLIC 'CODE'
_TEXT	ENDS
;	COMDAT ?OnCS_CREATECHAR_REQ@CTLoginSvrModule@@IAEKPAVCSqlDatabase@@PAV?$map@EPAUtagTGROUP@@U?$less@E@std@@V?$allocator@U?$pair@$$CBEPAUtagTGROUP@@@std@@@3@@std@@PAVCTUser@@AAVCPacket@@@Z
_TEXT	SEGMENT PARA USE32 PUBLIC 'CODE'
_TEXT	ENDS
;	COMDAT ?OnCS_DELCHAR_REQ@CTLoginSvrModule@@IAEKPAVCSqlDatabase@@PAV?$map@EPAUtagTGROUP@@U?$less@E@std@@V?$allocator@U?$pair@$$CBEPAUtagTGROUP@@@std@@@3@@std@@PAVCTUser@@AAVCPacket@@@Z
_TEXT	SEGMENT PARA USE32 PUBLIC 'CODE'
_TEXT	ENDS
;	COMDAT ?OnCS_START_REQ@CTLoginSvrModule@@IAEKPAVCSqlDatabase@@PAV?$map@EPAUtagTGROUP@@U?$less@E@std@@V?$allocator@U?$pair@$$CBEPAUtagTGROUP@@@std@@@3@@std@@PAVCTUser@@AAVCPacket@@@Z
_TEXT	SEGMENT PARA USE32 PUBLIC 'CODE'
_TEXT	ENDS
;	COMDAT ?OnCS_AGREEMENT_REQ@CTLoginSvrModule@@IAEKPAVCSqlDatabase@@PAV?$map@EPAUtagTGROUP@@U?$less@E@std@@V?$allocator@U?$pair@$$CBEPAUtagTGROUP@@@std@@@3@@std@@PAVCTUser@@AAVCPacket@@@Z
_TEXT	SEGMENT PARA USE32 PUBLIC 'CODE'
_TEXT	ENDS
;	COMDAT ?OnCS_TERMINATE_REQ@CTLoginSvrModule@@IAEKPAVCSqlDatabase@@PAV?$map@EPAUtagTGROUP@@U?$less@E@std@@V?$allocator@U?$pair@$$CBEPAUtagTGROUP@@@std@@@3@@std@@PAVCTUser@@AAVCPacket@@@Z
_TEXT	SEGMENT PARA USE32 PUBLIC 'CODE'
_TEXT	ENDS
;	COMDAT ?OnCS_HOTSEND_REQ@CTLoginSvrModule@@IAEKPAVCSqlDatabase@@PAV?$map@EPAUtagTGROUP@@U?$less@E@std@@V?$allocator@U?$pair@$$CBEPAUtagTGROUP@@@std@@@3@@std@@PAVCTUser@@AAVCPacket@@@Z
_TEXT	SEGMENT PARA USE32 PUBLIC 'CODE'
_TEXT	ENDS
;	COMDAT ??4?$CStringT@DV?$StrTraitATL@DV?$ChTraitsCRT@D@ATL@@@ATL@@@ATL@@QAEAAV01@ABV01@@Z
_TEXT	SEGMENT PARA USE32 PUBLIC 'CODE'
_TEXT	ENDS
;	COMDAT ?Tokenize@?$CStringT@DV?$StrTraitATL@DV?$ChTraitsCRT@D@ATL@@@ATL@@@ATL@@QBE?AV12@PBDAAH@Z
_TEXT	SEGMENT PARA USE32 PUBLIC 'CODE'
_TEXT	ENDS
;	COMDAT ?Format@?$CStringT@DV?$StrTraitATL@DV?$ChTraitsCRT@D@ATL@@@ATL@@@ATL@@QAAXPBDZZ
_TEXT	SEGMENT PARA USE32 PUBLIC 'CODE'
_TEXT	ENDS
;	COMDAT ??0?$vector@PAUtagTITEM@@V?$allocator@PAUtagTITEM@@@std@@@std@@QAE@XZ
_TEXT	SEGMENT PARA USE32 PUBLIC 'CODE'
_TEXT	ENDS
;	COMDAT ??1?$vector@PAUtagTITEM@@V?$allocator@PAUtagTITEM@@@std@@@std@@QAE@XZ
_TEXT	SEGMENT PARA USE32 PUBLIC 'CODE'
_TEXT	ENDS
;	COMDAT ?size@?$vector@PAUtagTITEM@@V?$allocator@PAUtagTITEM@@@std@@@std@@QBEIXZ
_TEXT	SEGMENT PARA USE32 PUBLIC 'CODE'
_TEXT	ENDS
;	COMDAT ??A?$vector@PAUtagTITEM@@V?$allocator@PAUtagTITEM@@@std@@@std@@QAEAAPAUtagTITEM@@I@Z
_TEXT	SEGMENT PARA USE32 PUBLIC 'CODE'
_TEXT	ENDS
;	COMDAT ?push_back@?$vector@PAUtagTITEM@@V?$allocator@PAUtagTITEM@@@std@@@std@@QAEXABQAUtagTITEM@@@Z
_TEXT	SEGMENT PARA USE32 PUBLIC 'CODE'
_TEXT	ENDS
;	COMDAT ?clear@?$vector@PAUtagTITEM@@V?$allocator@PAUtagTITEM@@@std@@@std@@QAEXXZ
_TEXT	SEGMENT PARA USE32 PUBLIC 'CODE'
_TEXT	ENDS
;	COMDAT ??0?$vector@GV?$allocator@G@std@@@std@@QAE@XZ
_TEXT	SEGMENT PARA USE32 PUBLIC 'CODE'
_TEXT	ENDS
;	COMDAT ??1?$vector@GV?$allocator@G@std@@@std@@QAE@XZ
_TEXT	SEGMENT PARA USE32 PUBLIC 'CODE'
_TEXT	ENDS
;	COMDAT ??0?$vector@UtagTCASHITEMSALE@@V?$allocator@UtagTCASHITEMSALE@@@std@@@std@@QAE@XZ
_TEXT	SEGMENT PARA USE32 PUBLIC 'CODE'
_TEXT	ENDS
;	COMDAT ??1?$vector@UtagTCASHITEMSALE@@V?$allocator@UtagTCASHITEMSALE@@@std@@@std@@QAE@XZ
_TEXT	SEGMENT PARA USE32 PUBLIC 'CODE'
_TEXT	ENDS
;	COMDAT ??0?$vector@UtagMONREGEN@@V?$allocator@UtagMONREGEN@@@std@@@std@@QAE@XZ
_TEXT	SEGMENT PARA USE32 PUBLIC 'CODE'
_TEXT	ENDS
;	COMDAT ??1?$vector@UtagMONREGEN@@V?$allocator@UtagMONREGEN@@@std@@@std@@QAE@XZ
_TEXT	SEGMENT PARA USE32 PUBLIC 'CODE'
_TEXT	ENDS
;	COMDAT ??0?$vector@UtagLOTTERY@@V?$allocator@UtagLOTTERY@@@std@@@std@@QAE@XZ
_TEXT	SEGMENT PARA USE32 PUBLIC 'CODE'
_TEXT	ENDS
;	COMDAT ??1?$vector@UtagLOTTERY@@V?$allocator@UtagLOTTERY@@@std@@@std@@QAE@XZ
_TEXT	SEGMENT PARA USE32 PUBLIC 'CODE'
_TEXT	ENDS
;	COMDAT ?empty@?$queue@KV?$deque@KV?$allocator@K@std@@@std@@@std@@QBE_NXZ
_TEXT	SEGMENT PARA USE32 PUBLIC 'CODE'
_TEXT	ENDS
;	COMDAT ?push@?$queue@KV?$deque@KV?$allocator@K@std@@@std@@@std@@QAEXABK@Z
_TEXT	SEGMENT PARA USE32 PUBLIC 'CODE'
_TEXT	ENDS
;	COMDAT ?pop@?$queue@KV?$deque@KV?$allocator@K@std@@@std@@@std@@QAEXXZ
_TEXT	SEGMENT PARA USE32 PUBLIC 'CODE'
_TEXT	ENDS
;	COMDAT ?size@?$vector@PAUtagTCHAR@@V?$allocator@PAUtagTCHAR@@@std@@@std@@QBEIXZ
_TEXT	SEGMENT PARA USE32 PUBLIC 'CODE'
_TEXT	ENDS
;	COMDAT ??A?$vector@PAUtagTCHAR@@V?$allocator@PAUtagTCHAR@@@std@@@std@@QAEAAPAUtagTCHAR@@I@Z
_TEXT	SEGMENT PARA USE32 PUBLIC 'CODE'
_TEXT	ENDS
;	COMDAT ?push_back@?$vector@PAUtagTCHAR@@V?$allocator@PAUtagTCHAR@@@std@@@std@@QAEXABQAUtagTCHAR@@@Z
_TEXT	SEGMENT PARA USE32 PUBLIC 'CODE'
_TEXT	ENDS
;	COMDAT ?clear@?$vector@PAUtagTCHAR@@V?$allocator@PAUtagTCHAR@@@std@@@std@@QAEXXZ
_TEXT	SEGMENT PARA USE32 PUBLIC 'CODE'
_TEXT	ENDS
;	COMDAT ?UnregisterAppId@?$CAtlServiceModuleT@VCTLoginSvrModule@@$0GE@@ATL@@QAEJXZ
_TEXT	SEGMENT PARA USE32 PUBLIC 'CODE'
_TEXT	ENDS
;	COMDAT ?IsInstalled@?$CAtlServiceModuleT@VCTLoginSvrModule@@$0GE@@ATL@@QAEHXZ
_TEXT	SEGMENT PARA USE32 PUBLIC 'CODE'
_TEXT	ENDS
;	COMDAT ?Uninstall@?$CAtlServiceModuleT@VCTLoginSvrModule@@$0GE@@ATL@@QAEHXZ
_TEXT	SEGMENT PARA USE32 PUBLIC 'CODE'
_TEXT	ENDS
;	COMDAT ?LogEvent@?$CAtlServiceModuleT@VCTLoginSvrModule@@$0GE@@ATL@@QAAXPBDZZ
_TEXT	SEGMENT PARA USE32 PUBLIC 'CODE'
_TEXT	ENDS
;	COMDAT ??1?$CAtlExeModuleT@VCTLoginSvrModule@@@ATL@@UAE@XZ
_TEXT	SEGMENT PARA USE32 PUBLIC 'CODE'
_TEXT	ENDS
;	COMDAT ?Unlock@?$CAtlExeModuleT@VCTLoginSvrModule@@@ATL@@UAEJXZ
_TEXT	SEGMENT PARA USE32 PUBLIC 'CODE'
_TEXT	ENDS
;	COMDAT ?RegisterServer@?$CAtlModuleT@VCTLoginSvrModule@@@ATL@@QAEJHPBU_GUID@@@Z
_TEXT	SEGMENT PARA USE32 PUBLIC 'CODE'
_TEXT	ENDS
;	COMDAT ?UnregisterServer@?$CAtlModuleT@VCTLoginSvrModule@@@ATL@@QAEJHPBU_GUID@@@Z
_TEXT	SEGMENT PARA USE32 PUBLIC 'CODE'
_TEXT	ENDS
;	COMDAT ?AddCommonRGSReplacements@?$CAtlModuleT@VCTLoginSvrModule@@@ATL@@UAEJPAUIRegistrarBase@@@Z
_TEXT	SEGMENT PARA USE32 PUBLIC 'CODE'
_TEXT	ENDS
;	COMDAT ?begin@?$_Tree@V?$_Tmap_traits@KPAVCTUser@@U?$less@K@std@@V?$allocator@U?$pair@$$CBKPAVCTUser@@@std@@@3@$0A@@std@@@std@@QAE?AViterator@12@XZ
_TEXT	SEGMENT PARA USE32 PUBLIC 'CODE'
_TEXT	ENDS
;	COMDAT ?end@?$_Tree@V?$_Tmap_traits@KPAVCTUser@@U?$less@K@std@@V?$allocator@U?$pair@$$CBKPAVCTUser@@@std@@@3@$0A@@std@@@std@@QAE?AViterator@12@XZ
_TEXT	SEGMENT PARA USE32 PUBLIC 'CODE'
_TEXT	ENDS
;	COMDAT ?size@?$_Tree@V?$_Tmap_traits@KPAVCTUser@@U?$less@K@std@@V?$allocator@U?$pair@$$CBKPAVCTUser@@@std@@@3@$0A@@std@@@std@@QBEIXZ
_TEXT	SEGMENT PARA USE32 PUBLIC 'CODE'
_TEXT	ENDS
;	COMDAT ?insert@?$_Tree@V?$_Tmap_traits@KPAVCTUser@@U?$less@K@std@@V?$allocator@U?$pair@$$CBKPAVCTUser@@@std@@@3@$0A@@std@@@std@@QAE?AU?$pair@Viterator@?$_Tree@V?$_Tmap_traits@KPAVCTUser@@U?$less@K@std@@V?$allocator@U?$pair@$$CBKPAVCTUser@@@std@@@3@$0A@@std@@@std@@_N@2@ABU?$pair@$$CBKPAVCTUser@@@2@@Z
_TEXT	SEGMENT PARA USE32 PUBLIC 'CODE'
_TEXT	ENDS
;	COMDAT ?find@?$_Tree@V?$_Tmap_traits@KPAVCTUser@@U?$less@K@std@@V?$allocator@U?$pair@$$CBKPAVCTUser@@@std@@@3@$0A@@std@@@std@@QAE?AViterator@12@ABK@Z
_TEXT	SEGMENT PARA USE32 PUBLIC 'CODE'
_TEXT	ENDS
;	COMDAT ?end@?$_Tree@V?$_Tmap_traits@KKU?$less@K@std@@V?$allocator@U?$pair@$$CBKK@std@@@2@$0A@@std@@@std@@QAE?AViterator@12@XZ
_TEXT	SEGMENT PARA USE32 PUBLIC 'CODE'
_TEXT	ENDS
;	COMDAT ?size@?$_Tree@V?$_Tmap_traits@KKU?$less@K@std@@V?$allocator@U?$pair@$$CBKK@std@@@2@$0A@@std@@@std@@QBEIXZ
_TEXT	SEGMENT PARA USE32 PUBLIC 'CODE'
_TEXT	ENDS
;	COMDAT ?insert@?$_Tree@V?$_Tmap_traits@KKU?$less@K@std@@V?$allocator@U?$pair@$$CBKK@std@@@2@$0A@@std@@@std@@QAE?AU?$pair@Viterator@?$_Tree@V?$_Tmap_traits@KKU?$less@K@std@@V?$allocator@U?$pair@$$CBKK@std@@@2@$0A@@std@@@std@@_N@2@ABU?$pair@$$CBKK@2@@Z
_TEXT	SEGMENT PARA USE32 PUBLIC 'CODE'
_TEXT	ENDS
;	COMDAT ?clear@?$_Tree@V?$_Tmap_traits@KKU?$less@K@std@@V?$allocator@U?$pair@$$CBKK@std@@@2@$0A@@std@@@std@@QAEXXZ
_TEXT	SEGMENT PARA USE32 PUBLIC 'CODE'
_TEXT	ENDS
;	COMDAT ?find@?$_Tree@V?$_Tmap_traits@KKU?$less@K@std@@V?$allocator@U?$pair@$$CBKK@std@@@2@$0A@@std@@@std@@QAE?AViterator@12@ABK@Z
_TEXT	SEGMENT PARA USE32 PUBLIC 'CODE'
_TEXT	ENDS
;	COMDAT ?end@?$_Tree@V?$_Tmap_traits@KUtagEVENTINFO@@U?$less@K@std@@V?$allocator@U?$pair@$$CBKUtagEVENTINFO@@@std@@@3@$0A@@std@@@std@@QAE?AViterator@12@XZ
_TEXT	SEGMENT PARA USE32 PUBLIC 'CODE'
_TEXT	ENDS
;	COMDAT ?insert@?$_Tree@V?$_Tmap_traits@KUtagEVENTINFO@@U?$less@K@std@@V?$allocator@U?$pair@$$CBKUtagEVENTINFO@@@std@@@3@$0A@@std@@@std@@QAE?AU?$pair@Viterator@?$_Tree@V?$_Tmap_traits@KUtagEVENTINFO@@U?$less@K@std@@V?$allocator@U?$pair@$$CBKUtagEVENTINFO@@@std@@@3@$0A@@std@@@std@@_N@2@ABU?$pair@$$CBKUtagEVENTINFO@@@2@@Z
_TEXT	SEGMENT PARA USE32 PUBLIC 'CODE'
_TEXT	ENDS
;	COMDAT ?erase@?$_Tree@V?$_Tmap_traits@KUtagEVENTINFO@@U?$less@K@std@@V?$allocator@U?$pair@$$CBKUtagEVENTINFO@@@std@@@3@$0A@@std@@@std@@QAE?AViterator@12@V312@@Z
_TEXT	SEGMENT PARA USE32 PUBLIC 'CODE'
_TEXT	ENDS
;	COMDAT ?find@?$_Tree@V?$_Tmap_traits@KUtagEVENTINFO@@U?$less@K@std@@V?$allocator@U?$pair@$$CBKUtagEVENTINFO@@@std@@@3@$0A@@std@@@std@@QAE?AViterator@12@ABK@Z
_TEXT	SEGMENT PARA USE32 PUBLIC 'CODE'
_TEXT	ENDS
;	COMDAT ??0iterator@?$_Tree@V?$_Tmap_traits@KPAVCTUser@@U?$less@K@std@@V?$allocator@U?$pair@$$CBKPAVCTUser@@@std@@@3@$0A@@std@@@std@@QAE@XZ
_TEXT	SEGMENT PARA USE32 PUBLIC 'CODE'
_TEXT	ENDS
;	COMDAT ??Diterator@?$_Tree@V?$_Tmap_traits@KPAVCTUser@@U?$less@K@std@@V?$allocator@U?$pair@$$CBKPAVCTUser@@@std@@@3@$0A@@std@@@std@@QBEAAU?$pair@$$CBKPAVCTUser@@@2@XZ
_TEXT	SEGMENT PARA USE32 PUBLIC 'CODE'
_TEXT	ENDS
;	COMDAT ??Eiterator@?$_Tree@V?$_Tmap_traits@KPAVCTUser@@U?$less@K@std@@V?$allocator@U?$pair@$$CBKPAVCTUser@@@std@@@3@$0A@@std@@@std@@QAE?AV012@H@Z
_TEXT	SEGMENT PARA USE32 PUBLIC 'CODE'
_TEXT	ENDS
;	COMDAT ??9const_iterator@?$_Tree@V?$_Tmap_traits@KPAVCTUser@@U?$less@K@std@@V?$allocator@U?$pair@$$CBKPAVCTUser@@@std@@@3@$0A@@std@@@std@@QBE_NABV012@@Z
_TEXT	SEGMENT PARA USE32 PUBLIC 'CODE'
_TEXT	ENDS
;	COMDAT ??0?$pair@$$CBKPAVCTUser@@@std@@QAE@ABKABQAVCTUser@@@Z
_TEXT	SEGMENT PARA USE32 PUBLIC 'CODE'
_TEXT	ENDS
;	COMDAT ??0iterator@?$_Tree@V?$_Tmap_traits@KKU?$less@K@std@@V?$allocator@U?$pair@$$CBKK@std@@@2@$0A@@std@@@std@@QAE@XZ
_TEXT	SEGMENT PARA USE32 PUBLIC 'CODE'
_TEXT	ENDS
;	COMDAT ??Diterator@?$_Tree@V?$_Tmap_traits@KKU?$less@K@std@@V?$allocator@U?$pair@$$CBKK@std@@@2@$0A@@std@@@std@@QBEAAU?$pair@$$CBKK@2@XZ
_TEXT	SEGMENT PARA USE32 PUBLIC 'CODE'
_TEXT	ENDS
;	COMDAT ??8const_iterator@?$_Tree@V?$_Tmap_traits@KKU?$less@K@std@@V?$allocator@U?$pair@$$CBKK@std@@@2@$0A@@std@@@std@@QBE_NABV012@@Z
_TEXT	SEGMENT PARA USE32 PUBLIC 'CODE'
_TEXT	ENDS
;	COMDAT ??9const_iterator@?$_Tree@V?$_Tmap_traits@KKU?$less@K@std@@V?$allocator@U?$pair@$$CBKK@std@@@2@$0A@@std@@@std@@QBE_NABV012@@Z
_TEXT	SEGMENT PARA USE32 PUBLIC 'CODE'
_TEXT	ENDS
;	COMDAT ??0?$pair@$$CBKK@std@@QAE@ABK0@Z
_TEXT	SEGMENT PARA USE32 PUBLIC 'CODE'
_TEXT	ENDS
;	COMDAT ??9const_iterator@?$_Tree@V?$_Tmap_traits@KUtagEVENTINFO@@U?$less@K@std@@V?$allocator@U?$pair@$$CBKUtagEVENTINFO@@@std@@@3@$0A@@std@@@std@@QBE_NABV012@@Z
_TEXT	SEGMENT PARA USE32 PUBLIC 'CODE'
_TEXT	ENDS
;	COMDAT ??0?$pair@$$CBKUtagEVENTINFO@@@std@@QAE@ABKABUtagEVENTINFO@@@Z
_TEXT	SEGMENT PARA USE32 PUBLIC 'CODE'
_TEXT	ENDS
;	COMDAT ?end@?$_Tree@V?$_Tmap_traits@EPAUtagTGROUP@@U?$less@E@std@@V?$allocator@U?$pair@$$CBEPAUtagTGROUP@@@std@@@3@$0A@@std@@@std@@QAE?AViterator@12@XZ
_TEXT	SEGMENT PARA USE32 PUBLIC 'CODE'
_TEXT	ENDS
;	COMDAT ?find@?$_Tree@V?$_Tmap_traits@EPAUtagTGROUP@@U?$less@E@std@@V?$allocator@U?$pair@$$CBEPAUtagTGROUP@@@std@@@3@$0A@@std@@@std@@QAE?AViterator@12@ABE@Z
_TEXT	SEGMENT PARA USE32 PUBLIC 'CODE'
_TEXT	ENDS
;	COMDAT ??9const_iterator@?$_Tree@V?$_Tmap_traits@EPAUtagTGROUP@@U?$less@E@std@@V?$allocator@U?$pair@$$CBEPAUtagTGROUP@@@std@@@3@$0A@@std@@@std@@QBE_NABV012@@Z
_TEXT	SEGMENT PARA USE32 PUBLIC 'CODE'
_TEXT	ENDS
;	COMDAT ??_G?$CAtlExeModuleT@VCTLoginSvrModule@@@ATL@@UAEPAXI@Z
_TEXT	SEGMENT PARA USE32 PUBLIC 'CODE'
_TEXT	ENDS
;	COMDAT ??1?$CAtlModuleT@VCTLoginSvrModule@@@ATL@@UAE@XZ
_TEXT	SEGMENT PARA USE32 PUBLIC 'CODE'
_TEXT	ENDS
;	COMDAT ??0out_of_range@std@@QAE@ABV01@@Z
_TEXT	SEGMENT PARA USE32 PUBLIC 'CODE'
_TEXT	ENDS
;	COMDAT ??0tagEVENTINFO@@QAE@ABU0@@Z
_TEXT	SEGMENT PARA USE32 PUBLIC 'CODE'
_TEXT	ENDS
;	COMDAT ??0tagMONEVENT@@QAE@ABU0@@Z
_TEXT	SEGMENT PARA USE32 PUBLIC 'CODE'
_TEXT	ENDS
;	COMDAT ??0?$CStringT@DV?$StrTraitATL@DV?$ChTraitsCRT@D@ATL@@@ATL@@@ATL@@QAE@PAUIAtlStringMgr@1@@Z
_TEXT	SEGMENT PARA USE32 PUBLIC 'CODE'
_TEXT	ENDS
;	COMDAT ?Mid@?$CStringT@DV?$StrTraitATL@DV?$ChTraitsCRT@D@ATL@@@ATL@@@ATL@@QBE?AV12@HH@Z
_TEXT	SEGMENT PARA USE32 PUBLIC 'CODE'
_TEXT	ENDS
;	COMDAT ?FormatV@?$CStringT@DV?$StrTraitATL@DV?$ChTraitsCRT@D@ATL@@@ATL@@@ATL@@QAEXPBDPAD@Z
_TEXT	SEGMENT PARA USE32 PUBLIC 'CODE'
_TEXT	ENDS
;	COMDAT ??4?$CSimpleStringT@D$0A@@ATL@@QAEAAV01@ABV01@@Z
_TEXT	SEGMENT PARA USE32 PUBLIC 'CODE'
_TEXT	ENDS
;	COMDAT ?GetManager@?$CSimpleStringT@D$0A@@ATL@@QBEPAUIAtlStringMgr@2@XZ
_TEXT	SEGMENT PARA USE32 PUBLIC 'CODE'
_TEXT	ENDS
;	COMDAT ?StringSpanIncluding@?$ChTraitsCRT@D@ATL@@SAHPBD0@Z
_TEXT	SEGMENT PARA USE32 PUBLIC 'CODE'
_TEXT	ENDS
;	COMDAT ?StringSpanExcluding@?$ChTraitsCRT@D@ATL@@SAHPBD0@Z
_TEXT	SEGMENT PARA USE32 PUBLIC 'CODE'
_TEXT	ENDS
;	COMDAT ?capacity@?$vector@PAUtagTITEM@@V?$allocator@PAUtagTITEM@@@std@@@std@@QBEIXZ
_TEXT	SEGMENT PARA USE32 PUBLIC 'CODE'
_TEXT	ENDS
;	COMDAT ?begin@?$vector@PAUtagTITEM@@V?$allocator@PAUtagTITEM@@@std@@@std@@QAE?AViterator@12@XZ
_TEXT	SEGMENT PARA USE32 PUBLIC 'CODE'
_TEXT	ENDS
;	COMDAT ?end@?$vector@PAUtagTITEM@@V?$allocator@PAUtagTITEM@@@std@@@std@@QAE?AViterator@12@XZ
_TEXT	SEGMENT PARA USE32 PUBLIC 'CODE'
_TEXT	ENDS
;	COMDAT ?insert@?$vector@PAUtagTITEM@@V?$allocator@PAUtagTITEM@@@std@@@std@@QAE?AViterator@12@V312@ABQAUtagTITEM@@@Z
_TEXT	SEGMENT PARA USE32 PUBLIC 'CODE'
_TEXT	ENDS
;	COMDAT ?_Buy@?$vector@PAUtagTITEM@@V?$allocator@PAUtagTITEM@@@std@@@std@@IAE_NI@Z
_TEXT	SEGMENT PARA USE32 PUBLIC 'CODE'
_TEXT	ENDS
;	COMDAT ?_Tidy@?$vector@PAUtagTITEM@@V?$allocator@PAUtagTITEM@@@std@@@std@@IAEXXZ
_TEXT	SEGMENT PARA USE32 PUBLIC 'CODE'
_TEXT	ENDS
;	COMDAT ?_Ufill@?$vector@PAUtagTITEM@@V?$allocator@PAUtagTITEM@@@std@@@std@@IAEPAPAUtagTITEM@@PAPAU3@IABQAU3@@Z
_TEXT	SEGMENT PARA USE32 PUBLIC 'CODE'
_TEXT	ENDS
;	COMDAT ??0?$_Vector_val@PAUtagTITEM@@V?$allocator@PAUtagTITEM@@@std@@@std@@IAE@V?$allocator@PAUtagTITEM@@@1@@Z
_TEXT	SEGMENT PARA USE32 PUBLIC 'CODE'
_TEXT	ENDS
;	COMDAT ??0?$allocator@PAUtagTITEM@@@std@@QAE@XZ
_TEXT	SEGMENT PARA USE32 PUBLIC 'CODE'
_TEXT	ENDS
;	COMDAT ??0?$vector@GV?$allocator@G@std@@@std@@QAE@ABV01@@Z
_TEXT	SEGMENT PARA USE32 PUBLIC 'CODE'
_TEXT	ENDS
;	COMDAT ?_Buy@?$vector@GV?$allocator@G@std@@@std@@IAE_NI@Z
_TEXT	SEGMENT PARA USE32 PUBLIC 'CODE'
_TEXT	ENDS
;	COMDAT ??0?$_Vector_val@GV?$allocator@G@std@@@std@@IAE@V?$allocator@G@1@@Z
_TEXT	SEGMENT PARA USE32 PUBLIC 'CODE'
_TEXT	ENDS
;	COMDAT ??0?$allocator@G@std@@QAE@XZ
_TEXT	SEGMENT PARA USE32 PUBLIC 'CODE'
_TEXT	ENDS
;	COMDAT ??0?$vector@UtagTCASHITEMSALE@@V?$allocator@UtagTCASHITEMSALE@@@std@@@std@@QAE@ABV01@@Z
_TEXT	SEGMENT PARA USE32 PUBLIC 'CODE'
_TEXT	ENDS
;	COMDAT ?_Buy@?$vector@UtagTCASHITEMSALE@@V?$allocator@UtagTCASHITEMSALE@@@std@@@std@@IAE_NI@Z
_TEXT	SEGMENT PARA USE32 PUBLIC 'CODE'
_TEXT	ENDS
;	COMDAT ??0?$_Vector_val@UtagTCASHITEMSALE@@V?$allocator@UtagTCASHITEMSALE@@@std@@@std@@IAE@V?$allocator@UtagTCASHITEMSALE@@@1@@Z
_TEXT	SEGMENT PARA USE32 PUBLIC 'CODE'
_TEXT	ENDS
;	COMDAT ??0?$allocator@UtagTCASHITEMSALE@@@std@@QAE@XZ
_TEXT	SEGMENT PARA USE32 PUBLIC 'CODE'
_TEXT	ENDS
;	COMDAT ??0?$vector@UtagMONREGEN@@V?$allocator@UtagMONREGEN@@@std@@@std@@QAE@ABV01@@Z
_TEXT	SEGMENT PARA USE32 PUBLIC 'CODE'
_TEXT	ENDS
;	COMDAT ?_Buy@?$vector@UtagMONREGEN@@V?$allocator@UtagMONREGEN@@@std@@@std@@IAE_NI@Z
_TEXT	SEGMENT PARA USE32 PUBLIC 'CODE'
_TEXT	ENDS
;	COMDAT ??0?$_Vector_val@UtagMONREGEN@@V?$allocator@UtagMONREGEN@@@std@@@std@@IAE@V?$allocator@UtagMONREGEN@@@1@@Z
_TEXT	SEGMENT PARA USE32 PUBLIC 'CODE'
_TEXT	ENDS
;	COMDAT ??0?$allocator@UtagMONREGEN@@@std@@QAE@XZ
_TEXT	SEGMENT PARA USE32 PUBLIC 'CODE'
_TEXT	ENDS
;	COMDAT ??0?$vector@UtagLOTTERY@@V?$allocator@UtagLOTTERY@@@std@@@std@@QAE@ABV01@@Z
_TEXT	SEGMENT PARA USE32 PUBLIC 'CODE'
_TEXT	ENDS
;	COMDAT ?_Buy@?$vector@UtagLOTTERY@@V?$allocator@UtagLOTTERY@@@std@@@std@@IAE_NI@Z
_TEXT	SEGMENT PARA USE32 PUBLIC 'CODE'
_TEXT	ENDS
;	COMDAT ??0?$_Vector_val@UtagLOTTERY@@V?$allocator@UtagLOTTERY@@@std@@@std@@IAE@V?$allocator@UtagLOTTERY@@@1@@Z
_TEXT	SEGMENT PARA USE32 PUBLIC 'CODE'
_TEXT	ENDS
;	COMDAT ??0?$allocator@UtagLOTTERY@@@std@@QAE@XZ
_TEXT	SEGMENT PARA USE32 PUBLIC 'CODE'
_TEXT	ENDS
;	COMDAT ?empty@?$deque@KV?$allocator@K@std@@@std@@QBE_NXZ
_TEXT	SEGMENT PARA USE32 PUBLIC 'CODE'
_TEXT	ENDS
;	COMDAT ?pop_front@?$deque@KV?$allocator@K@std@@@std@@QAEXXZ
_TEXT	SEGMENT PARA USE32 PUBLIC 'CODE'
_TEXT	ENDS
;	COMDAT ?push_back@?$deque@KV?$allocator@K@std@@@std@@QAEXABK@Z
_TEXT	SEGMENT PARA USE32 PUBLIC 'CODE'
_TEXT	ENDS
;	COMDAT ?capacity@?$vector@PAUtagTCHAR@@V?$allocator@PAUtagTCHAR@@@std@@@std@@QBEIXZ
_TEXT	SEGMENT PARA USE32 PUBLIC 'CODE'
_TEXT	ENDS
;	COMDAT ?begin@?$vector@PAUtagTCHAR@@V?$allocator@PAUtagTCHAR@@@std@@@std@@QAE?AViterator@12@XZ
_TEXT	SEGMENT PARA USE32 PUBLIC 'CODE'
_TEXT	ENDS
;	COMDAT ?end@?$vector@PAUtagTCHAR@@V?$allocator@PAUtagTCHAR@@@std@@@std@@QAE?AViterator@12@XZ
_TEXT	SEGMENT PARA USE32 PUBLIC 'CODE'
_TEXT	ENDS
;	COMDAT ?insert@?$vector@PAUtagTCHAR@@V?$allocator@PAUtagTCHAR@@@std@@@std@@QAE?AViterator@12@V312@ABQAUtagTCHAR@@@Z
_TEXT	SEGMENT PARA USE32 PUBLIC 'CODE'
_TEXT	ENDS
;	COMDAT ?_Tidy@?$vector@PAUtagTCHAR@@V?$allocator@PAUtagTCHAR@@@std@@@std@@IAEXXZ
_TEXT	SEGMENT PARA USE32 PUBLIC 'CODE'
_TEXT	ENDS
;	COMDAT ?_Ufill@?$vector@PAUtagTCHAR@@V?$allocator@PAUtagTCHAR@@@std@@@std@@IAEPAPAUtagTCHAR@@PAPAU3@IABQAU3@@Z
_TEXT	SEGMENT PARA USE32 PUBLIC 'CODE'
_TEXT	ENDS
;	COMDAT ?UninitializeCom@?$CAtlExeModuleT@VCTLoginSvrModule@@@ATL@@SAXXZ
_TEXT	SEGMENT PARA USE32 PUBLIC 'CODE'
_TEXT	ENDS
;	COMDAT ?_Isnil@?$_Tree@V?$_Tmap_traits@KPAVCTUser@@U?$less@K@std@@V?$allocator@U?$pair@$$CBKPAVCTUser@@@std@@@3@$0A@@std@@@std@@KAAADPAU_Node@?$_Tree_nod@V?$_Tmap_traits@KPAVCTUser@@U?$less@K@std@@V?$allocator@U?$pair@$$CBKPAVCTUser@@@std@@@3@$0A@@std@@@2@@Z
_TEXT	SEGMENT PARA USE32 PUBLIC 'CODE'
_TEXT	ENDS
;	COMDAT ?_Key@?$_Tree@V?$_Tmap_traits@KPAVCTUser@@U?$less@K@std@@V?$allocator@U?$pair@$$CBKPAVCTUser@@@std@@@3@$0A@@std@@@std@@KAABKPAU_Node@?$_Tree_nod@V?$_Tmap_traits@KPAVCTUser@@U?$less@K@std@@V?$allocator@U?$pair@$$CBKPAVCTUser@@@std@@@3@$0A@@std@@@2@@Z
_TEXT	SEGMENT PARA USE32 PUBLIC 'CODE'
_TEXT	ENDS
;	COMDAT ?_Left@?$_Tree@V?$_Tmap_traits@KPAVCTUser@@U?$less@K@std@@V?$allocator@U?$pair@$$CBKPAVCTUser@@@std@@@3@$0A@@std@@@std@@KAAAPAU_Node@?$_Tree_nod@V?$_Tmap_traits@KPAVCTUser@@U?$less@K@std@@V?$allocator@U?$pair@$$CBKPAVCTUser@@@std@@@3@$0A@@std@@@2@PAU342@@Z
_TEXT	SEGMENT PARA USE32 PUBLIC 'CODE'
_TEXT	ENDS
;	COMDAT ?_Right@?$_Tree@V?$_Tmap_traits@KPAVCTUser@@U?$less@K@std@@V?$allocator@U?$pair@$$CBKPAVCTUser@@@std@@@3@$0A@@std@@@std@@KAAAPAU_Node@?$_Tree_nod@V?$_Tmap_traits@KPAVCTUser@@U?$less@K@std@@V?$allocator@U?$pair@$$CBKPAVCTUser@@@std@@@3@$0A@@std@@@2@PAU342@@Z
_TEXT	SEGMENT PARA USE32 PUBLIC 'CODE'
_TEXT	ENDS
;	COMDAT ?lower_bound@?$_Tree@V?$_Tmap_traits@KPAVCTUser@@U?$less@K@std@@V?$allocator@U?$pair@$$CBKPAVCTUser@@@std@@@3@$0A@@std@@@std@@QAE?AViterator@12@ABK@Z
_TEXT	SEGMENT PARA USE32 PUBLIC 'CODE'
_TEXT	ENDS
;	COMDAT ?_Insert@?$_Tree@V?$_Tmap_traits@KPAVCTUser@@U?$less@K@std@@V?$allocator@U?$pair@$$CBKPAVCTUser@@@std@@@3@$0A@@std@@@std@@IAE?AViterator@12@_NPAU_Node@?$_Tree_nod@V?$_Tmap_traits@KPAVCTUser@@U?$less@K@std@@V?$allocator@U?$pair@$$CBKPAVCTUser@@@std@@@3@$0A@@std@@@2@ABU?$pair@$$CBKPAVCTUser@@@2@@Z
_TEXT	SEGMENT PARA USE32 PUBLIC 'CODE'
_TEXT	ENDS
;	COMDAT ?_Lmost@?$_Tree@V?$_Tmap_traits@KPAVCTUser@@U?$less@K@std@@V?$allocator@U?$pair@$$CBKPAVCTUser@@@std@@@3@$0A@@std@@@std@@IAEAAPAU_Node@?$_Tree_nod@V?$_Tmap_traits@KPAVCTUser@@U?$less@K@std@@V?$allocator@U?$pair@$$CBKPAVCTUser@@@std@@@3@$0A@@std@@@2@XZ
_TEXT	SEGMENT PARA USE32 PUBLIC 'CODE'
_TEXT	ENDS
;	COMDAT ?_Root@?$_Tree@V?$_Tmap_traits@KPAVCTUser@@U?$less@K@std@@V?$allocator@U?$pair@$$CBKPAVCTUser@@@std@@@3@$0A@@std@@@std@@IAEAAPAU_Node@?$_Tree_nod@V?$_Tmap_traits@KPAVCTUser@@U?$less@K@std@@V?$allocator@U?$pair@$$CBKPAVCTUser@@@std@@@3@$0A@@std@@@2@XZ
_TEXT	SEGMENT PARA USE32 PUBLIC 'CODE'
_TEXT	ENDS
;	COMDAT ?_Kfn@?$_Tmap_traits@KPAVCTUser@@U?$less@K@std@@V?$allocator@U?$pair@$$CBKPAVCTUser@@@std@@@3@$0A@@std@@SAABKABU?$pair@$$CBKPAVCTUser@@@2@@Z
_TEXT	SEGMENT PARA USE32 PUBLIC 'CODE'
_TEXT	ENDS
;	COMDAT ??R?$less@K@std@@QBE_NABK0@Z
_TEXT	SEGMENT PARA USE32 PUBLIC 'CODE'
_TEXT	ENDS
;	COMDAT ?_Isnil@?$_Tree@V?$_Tmap_traits@KKU?$less@K@std@@V?$allocator@U?$pair@$$CBKK@std@@@2@$0A@@std@@@std@@KAAADPAU_Node@?$_Tree_nod@V?$_Tmap_traits@KKU?$less@K@std@@V?$allocator@U?$pair@$$CBKK@std@@@2@$0A@@std@@@2@@Z
_TEXT	SEGMENT PARA USE32 PUBLIC 'CODE'
_TEXT	ENDS
;	COMDAT ?_Key@?$_Tree@V?$_Tmap_traits@KKU?$less@K@std@@V?$allocator@U?$pair@$$CBKK@std@@@2@$0A@@std@@@std@@KAABKPAU_Node@?$_Tree_nod@V?$_Tmap_traits@KKU?$less@K@std@@V?$allocator@U?$pair@$$CBKK@std@@@2@$0A@@std@@@2@@Z
_TEXT	SEGMENT PARA USE32 PUBLIC 'CODE'
_TEXT	ENDS
;	COMDAT ?_Left@?$_Tree@V?$_Tmap_traits@KKU?$less@K@std@@V?$allocator@U?$pair@$$CBKK@std@@@2@$0A@@std@@@std@@KAAAPAU_Node@?$_Tree_nod@V?$_Tmap_traits@KKU?$less@K@std@@V?$allocator@U?$pair@$$CBKK@std@@@2@$0A@@std@@@2@PAU342@@Z
_TEXT	SEGMENT PARA USE32 PUBLIC 'CODE'
_TEXT	ENDS
;	COMDAT ?_Right@?$_Tree@V?$_Tmap_traits@KKU?$less@K@std@@V?$allocator@U?$pair@$$CBKK@std@@@2@$0A@@std@@@std@@KAAAPAU_Node@?$_Tree_nod@V?$_Tmap_traits@KKU?$less@K@std@@V?$allocator@U?$pair@$$CBKK@std@@@2@$0A@@std@@@2@PAU342@@Z
_TEXT	SEGMENT PARA USE32 PUBLIC 'CODE'
_TEXT	ENDS
;	COMDAT ?begin@?$_Tree@V?$_Tmap_traits@KKU?$less@K@std@@V?$allocator@U?$pair@$$CBKK@std@@@2@$0A@@std@@@std@@QAE?AViterator@12@XZ
_TEXT	SEGMENT PARA USE32 PUBLIC 'CODE'
_TEXT	ENDS
;	COMDAT ?lower_bound@?$_Tree@V?$_Tmap_traits@KKU?$less@K@std@@V?$allocator@U?$pair@$$CBKK@std@@@2@$0A@@std@@@std@@QAE?AViterator@12@ABK@Z
_TEXT	SEGMENT PARA USE32 PUBLIC 'CODE'
_TEXT	ENDS
;	COMDAT ?_Erase@?$_Tree@V?$_Tmap_traits@KKU?$less@K@std@@V?$allocator@U?$pair@$$CBKK@std@@@2@$0A@@std@@@std@@IAEXPAU_Node@?$_Tree_nod@V?$_Tmap_traits@KKU?$less@K@std@@V?$allocator@U?$pair@$$CBKK@std@@@2@$0A@@std@@@2@@Z
_TEXT	SEGMENT PARA USE32 PUBLIC 'CODE'
_TEXT	ENDS
;	COMDAT ?_Insert@?$_Tree@V?$_Tmap_traits@KKU?$less@K@std@@V?$allocator@U?$pair@$$CBKK@std@@@2@$0A@@std@@@std@@IAE?AViterator@12@_NPAU_Node@?$_Tree_nod@V?$_Tmap_traits@KKU?$less@K@std@@V?$allocator@U?$pair@$$CBKK@std@@@2@$0A@@std@@@2@ABU?$pair@$$CBKK@2@@Z
_TEXT	SEGMENT PARA USE32 PUBLIC 'CODE'
_TEXT	ENDS
;	COMDAT ?_Lmost@?$_Tree@V?$_Tmap_traits@KKU?$less@K@std@@V?$allocator@U?$pair@$$CBKK@std@@@2@$0A@@std@@@std@@IAEAAPAU_Node@?$_Tree_nod@V?$_Tmap_traits@KKU?$less@K@std@@V?$allocator@U?$pair@$$CBKK@std@@@2@$0A@@std@@@2@XZ
_TEXT	SEGMENT PARA USE32 PUBLIC 'CODE'
_TEXT	ENDS
;	COMDAT ?_Rmost@?$_Tree@V?$_Tmap_traits@KKU?$less@K@std@@V?$allocator@U?$pair@$$CBKK@std@@@2@$0A@@std@@@std@@IAEAAPAU_Node@?$_Tree_nod@V?$_Tmap_traits@KKU?$less@K@std@@V?$allocator@U?$pair@$$CBKK@std@@@2@$0A@@std@@@2@XZ
_TEXT	SEGMENT PARA USE32 PUBLIC 'CODE'
_TEXT	ENDS
;	COMDAT ?_Root@?$_Tree@V?$_Tmap_traits@KKU?$less@K@std@@V?$allocator@U?$pair@$$CBKK@std@@@2@$0A@@std@@@std@@IAEAAPAU_Node@?$_Tree_nod@V?$_Tmap_traits@KKU?$less@K@std@@V?$allocator@U?$pair@$$CBKK@std@@@2@$0A@@std@@@2@XZ
_TEXT	SEGMENT PARA USE32 PUBLIC 'CODE'
_TEXT	ENDS
;	COMDAT ?_Kfn@?$_Tmap_traits@KKU?$less@K@std@@V?$allocator@U?$pair@$$CBKK@std@@@2@$0A@@std@@SAABKABU?$pair@$$CBKK@2@@Z
_TEXT	SEGMENT PARA USE32 PUBLIC 'CODE'
_TEXT	ENDS
;	COMDAT ?_Color@?$_Tree@V?$_Tmap_traits@KUtagEVENTINFO@@U?$less@K@std@@V?$allocator@U?$pair@$$CBKUtagEVENTINFO@@@std@@@3@$0A@@std@@@std@@KAAADPAU_Node@?$_Tree_nod@V?$_Tmap_traits@KUtagEVENTINFO@@U?$less@K@std@@V?$allocator@U?$pair@$$CBKUtagEVENTINFO@@@std@@@3@$0A@@std@@@2@@Z
_TEXT	SEGMENT PARA USE32 PUBLIC 'CODE'
_TEXT	ENDS
;	COMDAT ?_Isnil@?$_Tree@V?$_Tmap_traits@KUtagEVENTINFO@@U?$less@K@std@@V?$allocator@U?$pair@$$CBKUtagEVENTINFO@@@std@@@3@$0A@@std@@@std@@KAAADPAU_Node@?$_Tree_nod@V?$_Tmap_traits@KUtagEVENTINFO@@U?$less@K@std@@V?$allocator@U?$pair@$$CBKUtagEVENTINFO@@@std@@@3@$0A@@std@@@2@@Z
_TEXT	SEGMENT PARA USE32 PUBLIC 'CODE'
_TEXT	ENDS
;	COMDAT ?_Key@?$_Tree@V?$_Tmap_traits@KUtagEVENTINFO@@U?$less@K@std@@V?$allocator@U?$pair@$$CBKUtagEVENTINFO@@@std@@@3@$0A@@std@@@std@@KAABKPAU_Node@?$_Tree_nod@V?$_Tmap_traits@KUtagEVENTINFO@@U?$less@K@std@@V?$allocator@U?$pair@$$CBKUtagEVENTINFO@@@std@@@3@$0A@@std@@@2@@Z
_TEXT	SEGMENT PARA USE32 PUBLIC 'CODE'
_TEXT	ENDS
;	COMDAT ?_Left@?$_Tree@V?$_Tmap_traits@KUtagEVENTINFO@@U?$less@K@std@@V?$allocator@U?$pair@$$CBKUtagEVENTINFO@@@std@@@3@$0A@@std@@@std@@KAAAPAU_Node@?$_Tree_nod@V?$_Tmap_traits@KUtagEVENTINFO@@U?$less@K@std@@V?$allocator@U?$pair@$$CBKUtagEVENTINFO@@@std@@@3@$0A@@std@@@2@PAU342@@Z
_TEXT	SEGMENT PARA USE32 PUBLIC 'CODE'
_TEXT	ENDS
;	COMDAT ?_Parent@?$_Tree@V?$_Tmap_traits@KUtagEVENTINFO@@U?$less@K@std@@V?$allocator@U?$pair@$$CBKUtagEVENTINFO@@@std@@@3@$0A@@std@@@std@@KAAAPAU_Node@?$_Tree_nod@V?$_Tmap_traits@KUtagEVENTINFO@@U?$less@K@std@@V?$allocator@U?$pair@$$CBKUtagEVENTINFO@@@std@@@3@$0A@@std@@@2@PAU342@@Z
_TEXT	SEGMENT PARA USE32 PUBLIC 'CODE'
_TEXT	ENDS
;	COMDAT ?_Right@?$_Tree@V?$_Tmap_traits@KUtagEVENTINFO@@U?$less@K@std@@V?$allocator@U?$pair@$$CBKUtagEVENTINFO@@@std@@@3@$0A@@std@@@std@@KAAAPAU_Node@?$_Tree_nod@V?$_Tmap_traits@KUtagEVENTINFO@@U?$less@K@std@@V?$allocator@U?$pair@$$CBKUtagEVENTINFO@@@std@@@3@$0A@@std@@@2@PAU342@@Z
_TEXT	SEGMENT PARA USE32 PUBLIC 'CODE'
_TEXT	ENDS
;	COMDAT ?begin@?$_Tree@V?$_Tmap_traits@KUtagEVENTINFO@@U?$less@K@std@@V?$allocator@U?$pair@$$CBKUtagEVENTINFO@@@std@@@3@$0A@@std@@@std@@QAE?AViterator@12@XZ
_TEXT	SEGMENT PARA USE32 PUBLIC 'CODE'
_TEXT	ENDS
;	COMDAT ?lower_bound@?$_Tree@V?$_Tmap_traits@KUtagEVENTINFO@@U?$less@K@std@@V?$allocator@U?$pair@$$CBKUtagEVENTINFO@@@std@@@3@$0A@@std@@@std@@QAE?AViterator@12@ABK@Z
_TEXT	SEGMENT PARA USE32 PUBLIC 'CODE'
_TEXT	ENDS
;	COMDAT ?_Insert@?$_Tree@V?$_Tmap_traits@KUtagEVENTINFO@@U?$less@K@std@@V?$allocator@U?$pair@$$CBKUtagEVENTINFO@@@std@@@3@$0A@@std@@@std@@IAE?AViterator@12@_NPAU_Node@?$_Tree_nod@V?$_Tmap_traits@KUtagEVENTINFO@@U?$less@K@std@@V?$allocator@U?$pair@$$CBKUtagEVENTINFO@@@std@@@3@$0A@@std@@@2@ABU?$pair@$$CBKUtagEVENTINFO@@@2@@Z
_TEXT	SEGMENT PARA USE32 PUBLIC 'CODE'
_TEXT	ENDS
;	COMDAT ?_Lmost@?$_Tree@V?$_Tmap_traits@KUtagEVENTINFO@@U?$less@K@std@@V?$allocator@U?$pair@$$CBKUtagEVENTINFO@@@std@@@3@$0A@@std@@@std@@IAEAAPAU_Node@?$_Tree_nod@V?$_Tmap_traits@KUtagEVENTINFO@@U?$less@K@std@@V?$allocator@U?$pair@$$CBKUtagEVENTINFO@@@std@@@3@$0A@@std@@@2@XZ
_TEXT	SEGMENT PARA USE32 PUBLIC 'CODE'
_TEXT	ENDS
;	COMDAT ?_Lrotate@?$_Tree@V?$_Tmap_traits@KUtagEVENTINFO@@U?$less@K@std@@V?$allocator@U?$pair@$$CBKUtagEVENTINFO@@@std@@@3@$0A@@std@@@std@@IAEXPAU_Node@?$_Tree_nod@V?$_Tmap_traits@KUtagEVENTINFO@@U?$less@K@std@@V?$allocator@U?$pair@$$CBKUtagEVENTINFO@@@std@@@3@$0A@@std@@@2@@Z
_TEXT	SEGMENT PARA USE32 PUBLIC 'CODE'
_TEXT	ENDS
;	COMDAT ?_Max@?$_Tree@V?$_Tmap_traits@KUtagEVENTINFO@@U?$less@K@std@@V?$allocator@U?$pair@$$CBKUtagEVENTINFO@@@std@@@3@$0A@@std@@@std@@KAPAU_Node@?$_Tree_nod@V?$_Tmap_traits@KUtagEVENTINFO@@U?$less@K@std@@V?$allocator@U?$pair@$$CBKUtagEVENTINFO@@@std@@@3@$0A@@std@@@2@PAU342@@Z
_TEXT	SEGMENT PARA USE32 PUBLIC 'CODE'
_TEXT	ENDS
;	COMDAT ?_Min@?$_Tree@V?$_Tmap_traits@KUtagEVENTINFO@@U?$less@K@std@@V?$allocator@U?$pair@$$CBKUtagEVENTINFO@@@std@@@3@$0A@@std@@@std@@KAPAU_Node@?$_Tree_nod@V?$_Tmap_traits@KUtagEVENTINFO@@U?$less@K@std@@V?$allocator@U?$pair@$$CBKUtagEVENTINFO@@@std@@@3@$0A@@std@@@2@PAU342@@Z
_TEXT	SEGMENT PARA USE32 PUBLIC 'CODE'
_TEXT	ENDS
;	COMDAT ?_Rmost@?$_Tree@V?$_Tmap_traits@KUtagEVENTINFO@@U?$less@K@std@@V?$allocator@U?$pair@$$CBKUtagEVENTINFO@@@std@@@3@$0A@@std@@@std@@IAEAAPAU_Node@?$_Tree_nod@V?$_Tmap_traits@KUtagEVENTINFO@@U?$less@K@std@@V?$allocator@U?$pair@$$CBKUtagEVENTINFO@@@std@@@3@$0A@@std@@@2@XZ
_TEXT	SEGMENT PARA USE32 PUBLIC 'CODE'
_TEXT	ENDS
;	COMDAT ?_Root@?$_Tree@V?$_Tmap_traits@KUtagEVENTINFO@@U?$less@K@std@@V?$allocator@U?$pair@$$CBKUtagEVENTINFO@@@std@@@3@$0A@@std@@@std@@IAEAAPAU_Node@?$_Tree_nod@V?$_Tmap_traits@KUtagEVENTINFO@@U?$less@K@std@@V?$allocator@U?$pair@$$CBKUtagEVENTINFO@@@std@@@3@$0A@@std@@@2@XZ
_TEXT	SEGMENT PARA USE32 PUBLIC 'CODE'
_TEXT	ENDS
;	COMDAT ?_Rrotate@?$_Tree@V?$_Tmap_traits@KUtagEVENTINFO@@U?$less@K@std@@V?$allocator@U?$pair@$$CBKUtagEVENTINFO@@@std@@@3@$0A@@std@@@std@@IAEXPAU_Node@?$_Tree_nod@V?$_Tmap_traits@KUtagEVENTINFO@@U?$less@K@std@@V?$allocator@U?$pair@$$CBKUtagEVENTINFO@@@std@@@3@$0A@@std@@@2@@Z
_TEXT	SEGMENT PARA USE32 PUBLIC 'CODE'
_TEXT	ENDS
;	COMDAT ?_Kfn@?$_Tmap_traits@KUtagEVENTINFO@@U?$less@K@std@@V?$allocator@U?$pair@$$CBKUtagEVENTINFO@@@std@@@3@$0A@@std@@SAABKABU?$pair@$$CBKUtagEVENTINFO@@@2@@Z
_TEXT	SEGMENT PARA USE32 PUBLIC 'CODE'
_TEXT	ENDS
;	COMDAT ?deallocate@?$allocator@U_Node@?$_Tree_nod@V?$_Tmap_traits@KUtagEVENTINFO@@U?$less@K@std@@V?$allocator@U?$pair@$$CBKUtagEVENTINFO@@@std@@@3@$0A@@std@@@std@@@std@@QAEXPAU_Node@?$_Tree_nod@V?$_Tmap_traits@KUtagEVENTINFO@@U?$less@K@std@@V?$allocator@U?$pair@$$CBKUtagEVENTINFO@@@std@@@3@$0A@@std@@@2@I@Z
_TEXT	SEGMENT PARA USE32 PUBLIC 'CODE'
_TEXT	ENDS
;	COMDAT ?destroy@?$allocator@U_Node@?$_Tree_nod@V?$_Tmap_traits@KUtagEVENTINFO@@U?$less@K@std@@V?$allocator@U?$pair@$$CBKUtagEVENTINFO@@@std@@@3@$0A@@std@@@std@@@std@@QAEXPAU_Node@?$_Tree_nod@V?$_Tmap_traits@KUtagEVENTINFO@@U?$less@K@std@@V?$allocator@U?$pair@$$CBKUtagEVENTINFO@@@std@@@3@$0A@@std@@@2@@Z
_TEXT	SEGMENT PARA USE32 PUBLIC 'CODE'
_TEXT	ENDS
;	COMDAT ??0iterator@?$_Tree@V?$_Tmap_traits@KPAVCTUser@@U?$less@K@std@@V?$allocator@U?$pair@$$CBKPAVCTUser@@@std@@@3@$0A@@std@@@std@@QAE@PAU_Node@?$_Tree_nod@V?$_Tmap_traits@KPAVCTUser@@U?$less@K@std@@V?$allocator@U?$pair@$$CBKPAVCTUser@@@std@@@3@$0A@@std@@@2@@Z
_TEXT	SEGMENT PARA USE32 PUBLIC 'CODE'
_TEXT	ENDS
;	COMDAT ??Eiterator@?$_Tree@V?$_Tmap_traits@KPAVCTUser@@U?$less@K@std@@V?$allocator@U?$pair@$$CBKPAVCTUser@@@std@@@3@$0A@@std@@@std@@QAEAAV012@XZ
_TEXT	SEGMENT PARA USE32 PUBLIC 'CODE'
_TEXT	ENDS
;	COMDAT ??Fiterator@?$_Tree@V?$_Tmap_traits@KPAVCTUser@@U?$less@K@std@@V?$allocator@U?$pair@$$CBKPAVCTUser@@@std@@@3@$0A@@std@@@std@@QAEAAV012@XZ
_TEXT	SEGMENT PARA USE32 PUBLIC 'CODE'
_TEXT	ENDS
;	COMDAT ??0const_iterator@?$_Tree@V?$_Tmap_traits@KPAVCTUser@@U?$less@K@std@@V?$allocator@U?$pair@$$CBKPAVCTUser@@@std@@@3@$0A@@std@@@std@@QAE@XZ
_TEXT	SEGMENT PARA USE32 PUBLIC 'CODE'
_TEXT	ENDS
;	COMDAT ??Dconst_iterator@?$_Tree@V?$_Tmap_traits@KPAVCTUser@@U?$less@K@std@@V?$allocator@U?$pair@$$CBKPAVCTUser@@@std@@@3@$0A@@std@@@std@@QBEABU?$pair@$$CBKPAVCTUser@@@2@XZ
_TEXT	SEGMENT PARA USE32 PUBLIC 'CODE'
_TEXT	ENDS
;	COMDAT ??8const_iterator@?$_Tree@V?$_Tmap_traits@KPAVCTUser@@U?$less@K@std@@V?$allocator@U?$pair@$$CBKPAVCTUser@@@std@@@3@$0A@@std@@@std@@QBE_NABV012@@Z
_TEXT	SEGMENT PARA USE32 PUBLIC 'CODE'
_TEXT	ENDS
;	COMDAT ?_Mynode@const_iterator@?$_Tree@V?$_Tmap_traits@KPAVCTUser@@U?$less@K@std@@V?$allocator@U?$pair@$$CBKPAVCTUser@@@std@@@3@$0A@@std@@@std@@QBEPAU_Node@?$_Tree_nod@V?$_Tmap_traits@KPAVCTUser@@U?$less@K@std@@V?$allocator@U?$pair@$$CBKPAVCTUser@@@std@@@3@$0A@@std@@@3@XZ
_TEXT	SEGMENT PARA USE32 PUBLIC 'CODE'
_TEXT	ENDS
;	COMDAT ??0iterator@?$_Tree@V?$_Tmap_traits@KKU?$less@K@std@@V?$allocator@U?$pair@$$CBKK@std@@@2@$0A@@std@@@std@@QAE@PAU_Node@?$_Tree_nod@V?$_Tmap_traits@KKU?$less@K@std@@V?$allocator@U?$pair@$$CBKK@std@@@2@$0A@@std@@@2@@Z
_TEXT	SEGMENT PARA USE32 PUBLIC 'CODE'
_TEXT	ENDS
;	COMDAT ??Fiterator@?$_Tree@V?$_Tmap_traits@KKU?$less@K@std@@V?$allocator@U?$pair@$$CBKK@std@@@2@$0A@@std@@@std@@QAEAAV012@XZ
_TEXT	SEGMENT PARA USE32 PUBLIC 'CODE'
_TEXT	ENDS
;	COMDAT ??0const_iterator@?$_Tree@V?$_Tmap_traits@KKU?$less@K@std@@V?$allocator@U?$pair@$$CBKK@std@@@2@$0A@@std@@@std@@QAE@XZ
_TEXT	SEGMENT PARA USE32 PUBLIC 'CODE'
_TEXT	ENDS
;	COMDAT ??Dconst_iterator@?$_Tree@V?$_Tmap_traits@KKU?$less@K@std@@V?$allocator@U?$pair@$$CBKK@std@@@2@$0A@@std@@@std@@QBEABU?$pair@$$CBKK@2@XZ
_TEXT	SEGMENT PARA USE32 PUBLIC 'CODE'
_TEXT	ENDS
;	COMDAT ?_Mynode@const_iterator@?$_Tree@V?$_Tmap_traits@KKU?$less@K@std@@V?$allocator@U?$pair@$$CBKK@std@@@2@$0A@@std@@@std@@QBEPAU_Node@?$_Tree_nod@V?$_Tmap_traits@KKU?$less@K@std@@V?$allocator@U?$pair@$$CBKK@std@@@2@$0A@@std@@@3@XZ
_TEXT	SEGMENT PARA USE32 PUBLIC 'CODE'
_TEXT	ENDS
;	COMDAT ??0?$pair@Viterator@?$_Tree@V?$_Tmap_traits@KKU?$less@K@std@@V?$allocator@U?$pair@$$CBKK@std@@@2@$0A@@std@@@std@@_N@std@@QAE@ABViterator@?$_Tree@V?$_Tmap_traits@KKU?$less@K@std@@V?$allocator@U?$pair@$$CBKK@std@@@2@$0A@@std@@@1@AB_N@Z
_TEXT	SEGMENT PARA USE32 PUBLIC 'CODE'
_TEXT	ENDS
;	COMDAT ??0iterator@?$_Tree@V?$_Tmap_traits@KUtagEVENTINFO@@U?$less@K@std@@V?$allocator@U?$pair@$$CBKUtagEVENTINFO@@@std@@@3@$0A@@std@@@std@@QAE@PAU_Node@?$_Tree_nod@V?$_Tmap_traits@KUtagEVENTINFO@@U?$less@K@std@@V?$allocator@U?$pair@$$CBKUtagEVENTINFO@@@std@@@3@$0A@@std@@@2@@Z
_TEXT	SEGMENT PARA USE32 PUBLIC 'CODE'
_TEXT	ENDS
;	COMDAT ??Eiterator@?$_Tree@V?$_Tmap_traits@KUtagEVENTINFO@@U?$less@K@std@@V?$allocator@U?$pair@$$CBKUtagEVENTINFO@@@std@@@3@$0A@@std@@@std@@QAEAAV012@XZ
_TEXT	SEGMENT PARA USE32 PUBLIC 'CODE'
_TEXT	ENDS
;	COMDAT ??Fiterator@?$_Tree@V?$_Tmap_traits@KUtagEVENTINFO@@U?$less@K@std@@V?$allocator@U?$pair@$$CBKUtagEVENTINFO@@@std@@@3@$0A@@std@@@std@@QAEAAV012@XZ
_TEXT	SEGMENT PARA USE32 PUBLIC 'CODE'
_TEXT	ENDS
;	COMDAT ??8const_iterator@?$_Tree@V?$_Tmap_traits@KUtagEVENTINFO@@U?$less@K@std@@V?$allocator@U?$pair@$$CBKUtagEVENTINFO@@@std@@@3@$0A@@std@@@std@@QBE_NABV012@@Z
_TEXT	SEGMENT PARA USE32 PUBLIC 'CODE'
_TEXT	ENDS
;	COMDAT ?_Mynode@const_iterator@?$_Tree@V?$_Tmap_traits@KUtagEVENTINFO@@U?$less@K@std@@V?$allocator@U?$pair@$$CBKUtagEVENTINFO@@@std@@@3@$0A@@std@@@std@@QBEPAU_Node@?$_Tree_nod@V?$_Tmap_traits@KUtagEVENTINFO@@U?$less@K@std@@V?$allocator@U?$pair@$$CBKUtagEVENTINFO@@@std@@@3@$0A@@std@@@3@XZ
_TEXT	SEGMENT PARA USE32 PUBLIC 'CODE'
_TEXT	ENDS
;	COMDAT ??0?$pair@Viterator@?$_Tree@V?$_Tmap_traits@KUtagEVENTINFO@@U?$less@K@std@@V?$allocator@U?$pair@$$CBKUtagEVENTINFO@@@std@@@3@$0A@@std@@@std@@_N@std@@QAE@ABViterator@?$_Tree@V?$_Tmap_traits@KUtagEVENTINFO@@U?$less@K@std@@V?$allocator@U?$pair@$$CBKUtagEVENTINFO@@@std@@@3@$0A@@std@@@1@AB_N@Z
_TEXT	SEGMENT PARA USE32 PUBLIC 'CODE'
_TEXT	ENDS
;	COMDAT ??0?$pair@Viterator@?$_Tree@V?$_Tmap_traits@KPAVCTUser@@U?$less@K@std@@V?$allocator@U?$pair@$$CBKPAVCTUser@@@std@@@3@$0A@@std@@@std@@_N@std@@QAE@ABViterator@?$_Tree@V?$_Tmap_traits@KPAVCTUser@@U?$less@K@std@@V?$allocator@U?$pair@$$CBKPAVCTUser@@@std@@@3@$0A@@std@@@1@AB_N@Z
_TEXT	SEGMENT PARA USE32 PUBLIC 'CODE'
_TEXT	ENDS
;	COMDAT ?_Key@?$_Tree@V?$_Tmap_traits@EPAUtagTGROUP@@U?$less@E@std@@V?$allocator@U?$pair@$$CBEPAUtagTGROUP@@@std@@@3@$0A@@std@@@std@@KAABEPAU_Node@?$_Tree_nod@V?$_Tmap_traits@EPAUtagTGROUP@@U?$less@E@std@@V?$allocator@U?$pair@$$CBEPAUtagTGROUP@@@std@@@3@$0A@@std@@@2@@Z
_TEXT	SEGMENT PARA USE32 PUBLIC 'CODE'
_TEXT	ENDS
;	COMDAT ?lower_bound@?$_Tree@V?$_Tmap_traits@EPAUtagTGROUP@@U?$less@E@std@@V?$allocator@U?$pair@$$CBEPAUtagTGROUP@@@std@@@3@$0A@@std@@@std@@QAE?AViterator@12@ABE@Z
_TEXT	SEGMENT PARA USE32 PUBLIC 'CODE'
_TEXT	ENDS
;	COMDAT ??R?$less@E@std@@QBE_NABE0@Z
_TEXT	SEGMENT PARA USE32 PUBLIC 'CODE'
_TEXT	ENDS
;	COMDAT ??0iterator@?$_Tree@V?$_Tmap_traits@EPAUtagTGROUP@@U?$less@E@std@@V?$allocator@U?$pair@$$CBEPAUtagTGROUP@@@std@@@3@$0A@@std@@@std@@QAE@PAU_Node@?$_Tree_nod@V?$_Tmap_traits@EPAUtagTGROUP@@U?$less@E@std@@V?$allocator@U?$pair@$$CBEPAUtagTGROUP@@@std@@@3@$0A@@std@@@2@@Z
_TEXT	SEGMENT PARA USE32 PUBLIC 'CODE'
_TEXT	ENDS
;	COMDAT ??8const_iterator@?$_Tree@V?$_Tmap_traits@EPAUtagTGROUP@@U?$less@E@std@@V?$allocator@U?$pair@$$CBEPAUtagTGROUP@@@std@@@3@$0A@@std@@@std@@QBE_NABV012@@Z
_TEXT	SEGMENT PARA USE32 PUBLIC 'CODE'
_TEXT	ENDS
;	COMDAT ?_Mynode@const_iterator@?$_Tree@V?$_Tmap_traits@EPAUtagTGROUP@@U?$less@E@std@@V?$allocator@U?$pair@$$CBEPAUtagTGROUP@@@std@@@3@$0A@@std@@@std@@QBEPAU_Node@?$_Tree_nod@V?$_Tmap_traits@EPAUtagTGROUP@@U?$less@E@std@@V?$allocator@U?$pair@$$CBEPAUtagTGROUP@@@std@@@3@$0A@@std@@@3@XZ
_TEXT	SEGMENT PARA USE32 PUBLIC 'CODE'
_TEXT	ENDS
;	COMDAT ??Diterator@?$vector@PAUtagTITEM@@V?$allocator@PAUtagTITEM@@@std@@@std@@QBEAAPAUtagTITEM@@XZ
_TEXT	SEGMENT PARA USE32 PUBLIC 'CODE'
_TEXT	ENDS
;	COMDAT ??Hiterator@?$vector@PAUtagTITEM@@V?$allocator@PAUtagTITEM@@@std@@@std@@QBE?AV012@H@Z
_TEXT	SEGMENT PARA USE32 PUBLIC 'CODE'
_TEXT	ENDS
;	COMDAT ??Diterator@?$vector@PAUtagTCHAR@@V?$allocator@PAUtagTCHAR@@@std@@@std@@QBEAAPAUtagTCHAR@@XZ
_TEXT	SEGMENT PARA USE32 PUBLIC 'CODE'
_TEXT	ENDS
;	COMDAT ??Hiterator@?$vector@PAUtagTCHAR@@V?$allocator@PAUtagTCHAR@@@std@@@std@@QBE?AV012@H@Z
_TEXT	SEGMENT PARA USE32 PUBLIC 'CODE'
_TEXT	ENDS
;	COMDAT ??0?$CStringT@DV?$StrTraitATL@DV?$ChTraitsCRT@D@ATL@@@ATL@@@ATL@@QAE@PBDHPAUIAtlStringMgr@1@@Z
_TEXT	SEGMENT PARA USE32 PUBLIC 'CODE'
_TEXT	ENDS
;	COMDAT ?max_size@?$vector@PAUtagTITEM@@V?$allocator@PAUtagTITEM@@@std@@@std@@QBEIXZ
_TEXT	SEGMENT PARA USE32 PUBLIC 'CODE'
_TEXT	ENDS
;	COMDAT ?_Destroy@?$vector@PAUtagTITEM@@V?$allocator@PAUtagTITEM@@@std@@@std@@IAEXPAPAUtagTITEM@@0@Z
_TEXT	SEGMENT PARA USE32 PUBLIC 'CODE'
_TEXT	ENDS
;	COMDAT ?_Insert_n@?$vector@PAUtagTITEM@@V?$allocator@PAUtagTITEM@@@std@@@std@@IAEXViterator@12@IABQAUtagTITEM@@@Z
_TEXT	SEGMENT PARA USE32 PUBLIC 'CODE'
_TEXT	ENDS
;	COMDAT ?_Xlen@?$vector@PAUtagTITEM@@V?$allocator@PAUtagTITEM@@@std@@@std@@IBEXXZ
_TEXT	SEGMENT PARA USE32 PUBLIC 'CODE'
_TEXT	ENDS
;	COMDAT ??0?$allocator@PAUtagTITEM@@@std@@QAE@ABV01@@Z
_TEXT	SEGMENT PARA USE32 PUBLIC 'CODE'
_TEXT	ENDS
;	COMDAT ?deallocate@?$allocator@PAUtagTITEM@@@std@@QAEXPAPAUtagTITEM@@I@Z
_TEXT	SEGMENT PARA USE32 PUBLIC 'CODE'
_TEXT	ENDS
;	COMDAT ?allocate@?$allocator@PAUtagTITEM@@@std@@QAEPAPAUtagTITEM@@I@Z
_TEXT	SEGMENT PARA USE32 PUBLIC 'CODE'
_TEXT	ENDS
;	COMDAT ?begin@?$vector@GV?$allocator@G@std@@@std@@QBE?AVconst_iterator@12@XZ
_TEXT	SEGMENT PARA USE32 PUBLIC 'CODE'
_TEXT	ENDS
;	COMDAT ?end@?$vector@GV?$allocator@G@std@@@std@@QBE?AVconst_iterator@12@XZ
_TEXT	SEGMENT PARA USE32 PUBLIC 'CODE'
_TEXT	ENDS
;	COMDAT ??0?$allocator@G@std@@QAE@ABV01@@Z
_TEXT	SEGMENT PARA USE32 PUBLIC 'CODE'
_TEXT	ENDS
;	COMDAT ?begin@?$vector@UtagTCASHITEMSALE@@V?$allocator@UtagTCASHITEMSALE@@@std@@@std@@QBE?AVconst_iterator@12@XZ
_TEXT	SEGMENT PARA USE32 PUBLIC 'CODE'
_TEXT	ENDS
;	COMDAT ?end@?$vector@UtagTCASHITEMSALE@@V?$allocator@UtagTCASHITEMSALE@@@std@@@std@@QBE?AVconst_iterator@12@XZ
_TEXT	SEGMENT PARA USE32 PUBLIC 'CODE'
_TEXT	ENDS
;	COMDAT ??0?$allocator@UtagTCASHITEMSALE@@@std@@QAE@ABV01@@Z
_TEXT	SEGMENT PARA USE32 PUBLIC 'CODE'
_TEXT	ENDS
;	COMDAT ?begin@?$vector@UtagMONREGEN@@V?$allocator@UtagMONREGEN@@@std@@@std@@QBE?AVconst_iterator@12@XZ
_TEXT	SEGMENT PARA USE32 PUBLIC 'CODE'
_TEXT	ENDS
;	COMDAT ?end@?$vector@UtagMONREGEN@@V?$allocator@UtagMONREGEN@@@std@@@std@@QBE?AVconst_iterator@12@XZ
_TEXT	SEGMENT PARA USE32 PUBLIC 'CODE'
_TEXT	ENDS
;	COMDAT ??0?$allocator@UtagMONREGEN@@@std@@QAE@ABV01@@Z
_TEXT	SEGMENT PARA USE32 PUBLIC 'CODE'
_TEXT	ENDS
;	COMDAT ?begin@?$vector@UtagLOTTERY@@V?$allocator@UtagLOTTERY@@@std@@@std@@QBE?AVconst_iterator@12@XZ
_TEXT	SEGMENT PARA USE32 PUBLIC 'CODE'
_TEXT	ENDS
;	COMDAT ?end@?$vector@UtagLOTTERY@@V?$allocator@UtagLOTTERY@@@std@@@std@@QBE?AVconst_iterator@12@XZ
_TEXT	SEGMENT PARA USE32 PUBLIC 'CODE'
_TEXT	ENDS
;	COMDAT ??0?$allocator@UtagLOTTERY@@@std@@QAE@ABV01@@Z
_TEXT	SEGMENT PARA USE32 PUBLIC 'CODE'
_TEXT	ENDS
;	COMDAT ?_Growmap@?$deque@KV?$allocator@K@std@@@std@@IAEXI@Z
_TEXT	SEGMENT PARA USE32 PUBLIC 'CODE'
_TEXT	ENDS
;	COMDAT ?allocate@?$allocator@K@std@@QAEPAKI@Z
_TEXT	SEGMENT PARA USE32 PUBLIC 'CODE'
_TEXT	ENDS
;	COMDAT ?construct@?$allocator@K@std@@QAEXPAKABK@Z
_TEXT	SEGMENT PARA USE32 PUBLIC 'CODE'
_TEXT	ENDS
;	COMDAT ?destroy@?$allocator@K@std@@QAEXPAK@Z
_TEXT	SEGMENT PARA USE32 PUBLIC 'CODE'
_TEXT	ENDS
;	COMDAT ?_Destroy@?$vector@PAUtagTCHAR@@V?$allocator@PAUtagTCHAR@@@std@@@std@@IAEXPAPAUtagTCHAR@@0@Z
_TEXT	SEGMENT PARA USE32 PUBLIC 'CODE'
_TEXT	ENDS
;	COMDAT ?_Insert_n@?$vector@PAUtagTCHAR@@V?$allocator@PAUtagTCHAR@@@std@@@std@@IAEXViterator@12@IABQAUtagTCHAR@@@Z
_TEXT	SEGMENT PARA USE32 PUBLIC 'CODE'
_TEXT	ENDS
;	COMDAT ?deallocate@?$allocator@PAUtagTCHAR@@@std@@QAEXPAPAUtagTCHAR@@I@Z
_TEXT	SEGMENT PARA USE32 PUBLIC 'CODE'
_TEXT	ENDS
;	COMDAT ?_Color@?$_Tree@V?$_Tmap_traits@KPAVCTUser@@U?$less@K@std@@V?$allocator@U?$pair@$$CBKPAVCTUser@@@std@@@3@$0A@@std@@@std@@KAAADPAU_Node@?$_Tree_nod@V?$_Tmap_traits@KPAVCTUser@@U?$less@K@std@@V?$allocator@U?$pair@$$CBKPAVCTUser@@@std@@@3@$0A@@std@@@2@@Z
_TEXT	SEGMENT PARA USE32 PUBLIC 'CODE'
_TEXT	ENDS
;	COMDAT ?_Parent@?$_Tree@V?$_Tmap_traits@KPAVCTUser@@U?$less@K@std@@V?$allocator@U?$pair@$$CBKPAVCTUser@@@std@@@3@$0A@@std@@@std@@KAAAPAU_Node@?$_Tree_nod@V?$_Tmap_traits@KPAVCTUser@@U?$less@K@std@@V?$allocator@U?$pair@$$CBKPAVCTUser@@@std@@@3@$0A@@std@@@2@PAU342@@Z
_TEXT	SEGMENT PARA USE32 PUBLIC 'CODE'
_TEXT	ENDS
;	COMDAT ?_Myval@?$_Tree@V?$_Tmap_traits@KPAVCTUser@@U?$less@K@std@@V?$allocator@U?$pair@$$CBKPAVCTUser@@@std@@@3@$0A@@std@@@std@@KAAAU?$pair@$$CBKPAVCTUser@@@2@PAU_Node@?$_Tree_nod@V?$_Tmap_traits@KPAVCTUser@@U?$less@K@std@@V?$allocator@U?$pair@$$CBKPAVCTUser@@@std@@@3@$0A@@std@@@2@@Z
_TEXT	SEGMENT PARA USE32 PUBLIC 'CODE'
_TEXT	ENDS
;	COMDAT ?max_size@?$_Tree@V?$_Tmap_traits@KPAVCTUser@@U?$less@K@std@@V?$allocator@U?$pair@$$CBKPAVCTUser@@@std@@@3@$0A@@std@@@std@@QBEIXZ
_TEXT	SEGMENT PARA USE32 PUBLIC 'CODE'
_TEXT	ENDS
;	COMDAT ?_Lbound@?$_Tree@V?$_Tmap_traits@KPAVCTUser@@U?$less@K@std@@V?$allocator@U?$pair@$$CBKPAVCTUser@@@std@@@3@$0A@@std@@@std@@IBEPAU_Node@?$_Tree_nod@V?$_Tmap_traits@KPAVCTUser@@U?$less@K@std@@V?$allocator@U?$pair@$$CBKPAVCTUser@@@std@@@3@$0A@@std@@@2@ABK@Z
_TEXT	SEGMENT PARA USE32 PUBLIC 'CODE'
_TEXT	ENDS
;	COMDAT ?_Lrotate@?$_Tree@V?$_Tmap_traits@KPAVCTUser@@U?$less@K@std@@V?$allocator@U?$pair@$$CBKPAVCTUser@@@std@@@3@$0A@@std@@@std@@IAEXPAU_Node@?$_Tree_nod@V?$_Tmap_traits@KPAVCTUser@@U?$less@K@std@@V?$allocator@U?$pair@$$CBKPAVCTUser@@@std@@@3@$0A@@std@@@2@@Z
_TEXT	SEGMENT PARA USE32 PUBLIC 'CODE'
_TEXT	ENDS
;	COMDAT ?_Rmost@?$_Tree@V?$_Tmap_traits@KPAVCTUser@@U?$less@K@std@@V?$allocator@U?$pair@$$CBKPAVCTUser@@@std@@@3@$0A@@std@@@std@@IAEAAPAU_Node@?$_Tree_nod@V?$_Tmap_traits@KPAVCTUser@@U?$less@K@std@@V?$allocator@U?$pair@$$CBKPAVCTUser@@@std@@@3@$0A@@std@@@2@XZ
_TEXT	SEGMENT PARA USE32 PUBLIC 'CODE'
_TEXT	ENDS
;	COMDAT ?_Rrotate@?$_Tree@V?$_Tmap_traits@KPAVCTUser@@U?$less@K@std@@V?$allocator@U?$pair@$$CBKPAVCTUser@@@std@@@3@$0A@@std@@@std@@IAEXPAU_Node@?$_Tree_nod@V?$_Tmap_traits@KPAVCTUser@@U?$less@K@std@@V?$allocator@U?$pair@$$CBKPAVCTUser@@@std@@@3@$0A@@std@@@2@@Z
_TEXT	SEGMENT PARA USE32 PUBLIC 'CODE'
_TEXT	ENDS
;	COMDAT ?_Buynode@?$_Tree@V?$_Tmap_traits@KPAVCTUser@@U?$less@K@std@@V?$allocator@U?$pair@$$CBKPAVCTUser@@@std@@@3@$0A@@std@@@std@@IAEPAU_Node@?$_Tree_nod@V?$_Tmap_traits@KPAVCTUser@@U?$less@K@std@@V?$allocator@U?$pair@$$CBKPAVCTUser@@@std@@@3@$0A@@std@@@2@PAU342@00ABU?$pair@$$CBKPAVCTUser@@@2@D@Z
_TEXT	SEGMENT PARA USE32 PUBLIC 'CODE'
_TEXT	ENDS
;	COMDAT ?_Color@?$_Tree@V?$_Tmap_traits@KKU?$less@K@std@@V?$allocator@U?$pair@$$CBKK@std@@@2@$0A@@std@@@std@@KAAADPAU_Node@?$_Tree_nod@V?$_Tmap_traits@KKU?$less@K@std@@V?$allocator@U?$pair@$$CBKK@std@@@2@$0A@@std@@@2@@Z
_TEXT	SEGMENT PARA USE32 PUBLIC 'CODE'
_TEXT	ENDS
;	COMDAT ?_Parent@?$_Tree@V?$_Tmap_traits@KKU?$less@K@std@@V?$allocator@U?$pair@$$CBKK@std@@@2@$0A@@std@@@std@@KAAAPAU_Node@?$_Tree_nod@V?$_Tmap_traits@KKU?$less@K@std@@V?$allocator@U?$pair@$$CBKK@std@@@2@$0A@@std@@@2@PAU342@@Z
_TEXT	SEGMENT PARA USE32 PUBLIC 'CODE'
_TEXT	ENDS
;	COMDAT ?_Myval@?$_Tree@V?$_Tmap_traits@KKU?$less@K@std@@V?$allocator@U?$pair@$$CBKK@std@@@2@$0A@@std@@@std@@KAAAU?$pair@$$CBKK@2@PAU_Node@?$_Tree_nod@V?$_Tmap_traits@KKU?$less@K@std@@V?$allocator@U?$pair@$$CBKK@std@@@2@$0A@@std@@@2@@Z
_TEXT	SEGMENT PARA USE32 PUBLIC 'CODE'
_TEXT	ENDS
;	COMDAT ?max_size@?$_Tree@V?$_Tmap_traits@KKU?$less@K@std@@V?$allocator@U?$pair@$$CBKK@std@@@2@$0A@@std@@@std@@QBEIXZ
_TEXT	SEGMENT PARA USE32 PUBLIC 'CODE'
_TEXT	ENDS
;	COMDAT ?_Lbound@?$_Tree@V?$_Tmap_traits@KKU?$less@K@std@@V?$allocator@U?$pair@$$CBKK@std@@@2@$0A@@std@@@std@@IBEPAU_Node@?$_Tree_nod@V?$_Tmap_traits@KKU?$less@K@std@@V?$allocator@U?$pair@$$CBKK@std@@@2@$0A@@std@@@2@ABK@Z
_TEXT	SEGMENT PARA USE32 PUBLIC 'CODE'
_TEXT	ENDS
;	COMDAT ?_Lrotate@?$_Tree@V?$_Tmap_traits@KKU?$less@K@std@@V?$allocator@U?$pair@$$CBKK@std@@@2@$0A@@std@@@std@@IAEXPAU_Node@?$_Tree_nod@V?$_Tmap_traits@KKU?$less@K@std@@V?$allocator@U?$pair@$$CBKK@std@@@2@$0A@@std@@@2@@Z
_TEXT	SEGMENT PARA USE32 PUBLIC 'CODE'
_TEXT	ENDS
;	COMDAT ?_Rrotate@?$_Tree@V?$_Tmap_traits@KKU?$less@K@std@@V?$allocator@U?$pair@$$CBKK@std@@@2@$0A@@std@@@std@@IAEXPAU_Node@?$_Tree_nod@V?$_Tmap_traits@KKU?$less@K@std@@V?$allocator@U?$pair@$$CBKK@std@@@2@$0A@@std@@@2@@Z
_TEXT	SEGMENT PARA USE32 PUBLIC 'CODE'
_TEXT	ENDS
;	COMDAT ?_Buynode@?$_Tree@V?$_Tmap_traits@KKU?$less@K@std@@V?$allocator@U?$pair@$$CBKK@std@@@2@$0A@@std@@@std@@IAEPAU_Node@?$_Tree_nod@V?$_Tmap_traits@KKU?$less@K@std@@V?$allocator@U?$pair@$$CBKK@std@@@2@$0A@@std@@@2@PAU342@00ABU?$pair@$$CBKK@2@D@Z
_TEXT	SEGMENT PARA USE32 PUBLIC 'CODE'
_TEXT	ENDS
;	COMDAT ?deallocate@?$allocator@U_Node@?$_Tree_nod@V?$_Tmap_traits@KKU?$less@K@std@@V?$allocator@U?$pair@$$CBKK@std@@@2@$0A@@std@@@std@@@std@@QAEXPAU_Node@?$_Tree_nod@V?$_Tmap_traits@KKU?$less@K@std@@V?$allocator@U?$pair@$$CBKK@std@@@2@$0A@@std@@@2@I@Z
_TEXT	SEGMENT PARA USE32 PUBLIC 'CODE'
_TEXT	ENDS
;	COMDAT ?destroy@?$allocator@U_Node@?$_Tree_nod@V?$_Tmap_traits@KKU?$less@K@std@@V?$allocator@U?$pair@$$CBKK@std@@@2@$0A@@std@@@std@@@std@@QAEXPAU_Node@?$_Tree_nod@V?$_Tmap_traits@KKU?$less@K@std@@V?$allocator@U?$pair@$$CBKK@std@@@2@$0A@@std@@@2@@Z
_TEXT	SEGMENT PARA USE32 PUBLIC 'CODE'
_TEXT	ENDS
;	COMDAT ?_Myval@?$_Tree@V?$_Tmap_traits@KUtagEVENTINFO@@U?$less@K@std@@V?$allocator@U?$pair@$$CBKUtagEVENTINFO@@@std@@@3@$0A@@std@@@std@@KAAAU?$pair@$$CBKUtagEVENTINFO@@@2@PAU_Node@?$_Tree_nod@V?$_Tmap_traits@KUtagEVENTINFO@@U?$less@K@std@@V?$allocator@U?$pair@$$CBKUtagEVENTINFO@@@std@@@3@$0A@@std@@@2@@Z
_TEXT	SEGMENT PARA USE32 PUBLIC 'CODE'
_TEXT	ENDS
;	COMDAT ?max_size@?$_Tree@V?$_Tmap_traits@KUtagEVENTINFO@@U?$less@K@std@@V?$allocator@U?$pair@$$CBKUtagEVENTINFO@@@std@@@3@$0A@@std@@@std@@QBEIXZ
_TEXT	SEGMENT PARA USE32 PUBLIC 'CODE'
_TEXT	ENDS
;	COMDAT ?_Lbound@?$_Tree@V?$_Tmap_traits@KUtagEVENTINFO@@U?$less@K@std@@V?$allocator@U?$pair@$$CBKUtagEVENTINFO@@@std@@@3@$0A@@std@@@std@@IBEPAU_Node@?$_Tree_nod@V?$_Tmap_traits@KUtagEVENTINFO@@U?$less@K@std@@V?$allocator@U?$pair@$$CBKUtagEVENTINFO@@@std@@@3@$0A@@std@@@2@ABK@Z
_TEXT	SEGMENT PARA USE32 PUBLIC 'CODE'
_TEXT	ENDS
;	COMDAT ?_Buynode@?$_Tree@V?$_Tmap_traits@KUtagEVENTINFO@@U?$less@K@std@@V?$allocator@U?$pair@$$CBKUtagEVENTINFO@@@std@@@3@$0A@@std@@@std@@IAEPAU_Node@?$_Tree_nod@V?$_Tmap_traits@KUtagEVENTINFO@@U?$less@K@std@@V?$allocator@U?$pair@$$CBKUtagEVENTINFO@@@std@@@3@$0A@@std@@@2@PAU342@00ABU?$pair@$$CBKUtagEVENTINFO@@@2@D@Z
_TEXT	SEGMENT PARA USE32 PUBLIC 'CODE'
_TEXT	ENDS
;	COMDAT ??0const_iterator@?$_Tree@V?$_Tmap_traits@KPAVCTUser@@U?$less@K@std@@V?$allocator@U?$pair@$$CBKPAVCTUser@@@std@@@3@$0A@@std@@@std@@QAE@PAU_Node@?$_Tree_nod@V?$_Tmap_traits@KPAVCTUser@@U?$less@K@std@@V?$allocator@U?$pair@$$CBKPAVCTUser@@@std@@@3@$0A@@std@@@2@@Z
_TEXT	SEGMENT PARA USE32 PUBLIC 'CODE'
_TEXT	ENDS
;	COMDAT ??Econst_iterator@?$_Tree@V?$_Tmap_traits@KPAVCTUser@@U?$less@K@std@@V?$allocator@U?$pair@$$CBKPAVCTUser@@@std@@@3@$0A@@std@@@std@@QAEAAV012@XZ
_TEXT	SEGMENT PARA USE32 PUBLIC 'CODE'
_TEXT	ENDS
;	COMDAT ??Fconst_iterator@?$_Tree@V?$_Tmap_traits@KPAVCTUser@@U?$less@K@std@@V?$allocator@U?$pair@$$CBKPAVCTUser@@@std@@@3@$0A@@std@@@std@@QAEAAV012@XZ
_TEXT	SEGMENT PARA USE32 PUBLIC 'CODE'
_TEXT	ENDS
;	COMDAT ??0const_iterator@?$_Tree@V?$_Tmap_traits@KKU?$less@K@std@@V?$allocator@U?$pair@$$CBKK@std@@@2@$0A@@std@@@std@@QAE@PAU_Node@?$_Tree_nod@V?$_Tmap_traits@KKU?$less@K@std@@V?$allocator@U?$pair@$$CBKK@std@@@2@$0A@@std@@@2@@Z
_TEXT	SEGMENT PARA USE32 PUBLIC 'CODE'
_TEXT	ENDS
;	COMDAT ??Fconst_iterator@?$_Tree@V?$_Tmap_traits@KKU?$less@K@std@@V?$allocator@U?$pair@$$CBKK@std@@@2@$0A@@std@@@std@@QAEAAV012@XZ
_TEXT	SEGMENT PARA USE32 PUBLIC 'CODE'
_TEXT	ENDS
;	COMDAT ??0const_iterator@?$_Tree@V?$_Tmap_traits@KUtagEVENTINFO@@U?$less@K@std@@V?$allocator@U?$pair@$$CBKUtagEVENTINFO@@@std@@@3@$0A@@std@@@std@@QAE@PAU_Node@?$_Tree_nod@V?$_Tmap_traits@KUtagEVENTINFO@@U?$less@K@std@@V?$allocator@U?$pair@$$CBKUtagEVENTINFO@@@std@@@3@$0A@@std@@@2@@Z
_TEXT	SEGMENT PARA USE32 PUBLIC 'CODE'
_TEXT	ENDS
;	COMDAT ??Econst_iterator@?$_Tree@V?$_Tmap_traits@KUtagEVENTINFO@@U?$less@K@std@@V?$allocator@U?$pair@$$CBKUtagEVENTINFO@@@std@@@3@$0A@@std@@@std@@QAEAAV012@XZ
_TEXT	SEGMENT PARA USE32 PUBLIC 'CODE'
_TEXT	ENDS
;	COMDAT ??Fconst_iterator@?$_Tree@V?$_Tmap_traits@KUtagEVENTINFO@@U?$less@K@std@@V?$allocator@U?$pair@$$CBKUtagEVENTINFO@@@std@@@3@$0A@@std@@@std@@QAEAAV012@XZ
_TEXT	SEGMENT PARA USE32 PUBLIC 'CODE'
_TEXT	ENDS
;	COMDAT ?_Myval@?$_Tree@V?$_Tmap_traits@EPAUtagTGROUP@@U?$less@E@std@@V?$allocator@U?$pair@$$CBEPAUtagTGROUP@@@std@@@3@$0A@@std@@@std@@KAAAU?$pair@$$CBEPAUtagTGROUP@@@2@PAU_Node@?$_Tree_nod@V?$_Tmap_traits@EPAUtagTGROUP@@U?$less@E@std@@V?$allocator@U?$pair@$$CBEPAUtagTGROUP@@@std@@@3@$0A@@std@@@2@@Z
_TEXT	SEGMENT PARA USE32 PUBLIC 'CODE'
_TEXT	ENDS
;	COMDAT ?_Lbound@?$_Tree@V?$_Tmap_traits@EPAUtagTGROUP@@U?$less@E@std@@V?$allocator@U?$pair@$$CBEPAUtagTGROUP@@@std@@@3@$0A@@std@@@std@@IBEPAU_Node@?$_Tree_nod@V?$_Tmap_traits@EPAUtagTGROUP@@U?$less@E@std@@V?$allocator@U?$pair@$$CBEPAUtagTGROUP@@@std@@@3@$0A@@std@@@2@ABE@Z
_TEXT	SEGMENT PARA USE32 PUBLIC 'CODE'
_TEXT	ENDS
;	COMDAT ?_Kfn@?$_Tmap_traits@EPAUtagTGROUP@@U?$less@E@std@@V?$allocator@U?$pair@$$CBEPAUtagTGROUP@@@std@@@3@$0A@@std@@SAABEABU?$pair@$$CBEPAUtagTGROUP@@@2@@Z
_TEXT	SEGMENT PARA USE32 PUBLIC 'CODE'
_TEXT	ENDS
;	COMDAT ??0const_iterator@?$_Tree@V?$_Tmap_traits@EPAUtagTGROUP@@U?$less@E@std@@V?$allocator@U?$pair@$$CBEPAUtagTGROUP@@@std@@@3@$0A@@std@@@std@@QAE@PAU_Node@?$_Tree_nod@V?$_Tmap_traits@EPAUtagTGROUP@@U?$less@E@std@@V?$allocator@U?$pair@$$CBEPAUtagTGROUP@@@std@@@3@$0A@@std@@@2@@Z
_TEXT	SEGMENT PARA USE32 PUBLIC 'CODE'
_TEXT	ENDS
;	COMDAT ??0iterator@?$vector@PAUtagTITEM@@V?$allocator@PAUtagTITEM@@@std@@@std@@QAE@PAPAUtagTITEM@@@Z
_TEXT	SEGMENT PARA USE32 PUBLIC 'CODE'
_TEXT	ENDS
;	COMDAT ??Yiterator@?$vector@PAUtagTITEM@@V?$allocator@PAUtagTITEM@@@std@@@std@@QAEAAV012@H@Z
_TEXT	SEGMENT PARA USE32 PUBLIC 'CODE'
_TEXT	ENDS
;	COMDAT ??Giterator@?$vector@PAUtagTITEM@@V?$allocator@PAUtagTITEM@@@std@@@std@@QBEHABVconst_iterator@12@@Z
_TEXT	SEGMENT PARA USE32 PUBLIC 'CODE'
_TEXT	ENDS
;	COMDAT ??Dconst_iterator@?$vector@PAUtagTITEM@@V?$allocator@PAUtagTITEM@@@std@@@std@@QBEABQAUtagTITEM@@XZ
_TEXT	SEGMENT PARA USE32 PUBLIC 'CODE'
_TEXT	ENDS
;	COMDAT ??0iterator@?$vector@PAUtagTCHAR@@V?$allocator@PAUtagTCHAR@@@std@@@std@@QAE@PAPAUtagTCHAR@@@Z
_TEXT	SEGMENT PARA USE32 PUBLIC 'CODE'
_TEXT	ENDS
;	COMDAT ??Yiterator@?$vector@PAUtagTCHAR@@V?$allocator@PAUtagTCHAR@@@std@@@std@@QAEAAV012@H@Z
_TEXT	SEGMENT PARA USE32 PUBLIC 'CODE'
_TEXT	ENDS
;	COMDAT ??Giterator@?$vector@PAUtagTCHAR@@V?$allocator@PAUtagTCHAR@@@std@@@std@@QBEHABVconst_iterator@12@@Z
_TEXT	SEGMENT PARA USE32 PUBLIC 'CODE'
_TEXT	ENDS
;	COMDAT ??Dconst_iterator@?$vector@PAUtagTCHAR@@V?$allocator@PAUtagTCHAR@@@std@@@std@@QBEABQAUtagTCHAR@@XZ
_TEXT	SEGMENT PARA USE32 PUBLIC 'CODE'
_TEXT	ENDS
;	COMDAT ??0?$CSimpleStringT@D$0A@@ATL@@QAE@PBDHPAUIAtlStringMgr@1@@Z
_TEXT	SEGMENT PARA USE32 PUBLIC 'CODE'
_TEXT	ENDS
;	COMDAT ?max_size@?$allocator@PAUtagTITEM@@@std@@QBEIXZ
_TEXT	SEGMENT PARA USE32 PUBLIC 'CODE'
_TEXT	ENDS
;	COMDAT ?max_size@?$deque@KV?$allocator@K@std@@@std@@QBEIXZ
_TEXT	SEGMENT PARA USE32 PUBLIC 'CODE'
_TEXT	ENDS
;	COMDAT ?_Xlen@?$deque@KV?$allocator@K@std@@@std@@IBEXXZ
_TEXT	SEGMENT PARA USE32 PUBLIC 'CODE'
_TEXT	ENDS
;	COMDAT ?deallocate@?$allocator@PAK@std@@QAEXPAPAKI@Z
_TEXT	SEGMENT PARA USE32 PUBLIC 'CODE'
_TEXT	ENDS
;	COMDAT ?allocate@?$allocator@PAK@std@@QAEPAPAKI@Z
_TEXT	SEGMENT PARA USE32 PUBLIC 'CODE'
_TEXT	ENDS
;	COMDAT ?max_size@?$vector@PAUtagTCHAR@@V?$allocator@PAUtagTCHAR@@@std@@@std@@QBEIXZ
_TEXT	SEGMENT PARA USE32 PUBLIC 'CODE'
_TEXT	ENDS
;	COMDAT ?_Xlen@?$vector@PAUtagTCHAR@@V?$allocator@PAUtagTCHAR@@@std@@@std@@IBEXXZ
_TEXT	SEGMENT PARA USE32 PUBLIC 'CODE'
_TEXT	ENDS
;	COMDAT ?allocate@?$allocator@PAUtagTCHAR@@@std@@QAEPAPAUtagTCHAR@@I@Z
_TEXT	SEGMENT PARA USE32 PUBLIC 'CODE'
_TEXT	ENDS
;	COMDAT ?_Root@?$_Tree@V?$_Tmap_traits@KPAVCTUser@@U?$less@K@std@@V?$allocator@U?$pair@$$CBKPAVCTUser@@@std@@@3@$0A@@std@@@std@@IBEAAPAU_Node@?$_Tree_nod@V?$_Tmap_traits@KPAVCTUser@@U?$less@K@std@@V?$allocator@U?$pair@$$CBKPAVCTUser@@@std@@@3@$0A@@std@@@2@XZ
_TEXT	SEGMENT PARA USE32 PUBLIC 'CODE'
_TEXT	ENDS
;	COMDAT ?max_size@?$allocator@U?$pair@$$CBKPAVCTUser@@@std@@@std@@QBEIXZ
_TEXT	SEGMENT PARA USE32 PUBLIC 'CODE'
_TEXT	ENDS
;	COMDAT ?deallocate@?$allocator@U_Node@?$_Tree_nod@V?$_Tmap_traits@KPAVCTUser@@U?$less@K@std@@V?$allocator@U?$pair@$$CBKPAVCTUser@@@std@@@3@$0A@@std@@@std@@@std@@QAEXPAU_Node@?$_Tree_nod@V?$_Tmap_traits@KPAVCTUser@@U?$less@K@std@@V?$allocator@U?$pair@$$CBKPAVCTUser@@@std@@@3@$0A@@std@@@2@I@Z
_TEXT	SEGMENT PARA USE32 PUBLIC 'CODE'
_TEXT	ENDS
;	COMDAT ?allocate@?$allocator@U_Node@?$_Tree_nod@V?$_Tmap_traits@KPAVCTUser@@U?$less@K@std@@V?$allocator@U?$pair@$$CBKPAVCTUser@@@std@@@3@$0A@@std@@@std@@@std@@QAEPAU_Node@?$_Tree_nod@V?$_Tmap_traits@KPAVCTUser@@U?$less@K@std@@V?$allocator@U?$pair@$$CBKPAVCTUser@@@std@@@3@$0A@@std@@@2@I@Z
_TEXT	SEGMENT PARA USE32 PUBLIC 'CODE'
_TEXT	ENDS
;	COMDAT ?_Root@?$_Tree@V?$_Tmap_traits@KKU?$less@K@std@@V?$allocator@U?$pair@$$CBKK@std@@@2@$0A@@std@@@std@@IBEAAPAU_Node@?$_Tree_nod@V?$_Tmap_traits@KKU?$less@K@std@@V?$allocator@U?$pair@$$CBKK@std@@@2@$0A@@std@@@2@XZ
_TEXT	SEGMENT PARA USE32 PUBLIC 'CODE'
_TEXT	ENDS
;	COMDAT ?max_size@?$allocator@U?$pair@$$CBKK@std@@@std@@QBEIXZ
_TEXT	SEGMENT PARA USE32 PUBLIC 'CODE'
_TEXT	ENDS
;	COMDAT ?allocate@?$allocator@U_Node@?$_Tree_nod@V?$_Tmap_traits@KKU?$less@K@std@@V?$allocator@U?$pair@$$CBKK@std@@@2@$0A@@std@@@std@@@std@@QAEPAU_Node@?$_Tree_nod@V?$_Tmap_traits@KKU?$less@K@std@@V?$allocator@U?$pair@$$CBKK@std@@@2@$0A@@std@@@2@I@Z
_TEXT	SEGMENT PARA USE32 PUBLIC 'CODE'
_TEXT	ENDS
;	COMDAT ?_Root@?$_Tree@V?$_Tmap_traits@KUtagEVENTINFO@@U?$less@K@std@@V?$allocator@U?$pair@$$CBKUtagEVENTINFO@@@std@@@3@$0A@@std@@@std@@IBEAAPAU_Node@?$_Tree_nod@V?$_Tmap_traits@KUtagEVENTINFO@@U?$less@K@std@@V?$allocator@U?$pair@$$CBKUtagEVENTINFO@@@std@@@3@$0A@@std@@@2@XZ
_TEXT	SEGMENT PARA USE32 PUBLIC 'CODE'
_TEXT	ENDS
;	COMDAT ?max_size@?$allocator@U?$pair@$$CBKUtagEVENTINFO@@@std@@@std@@QBEIXZ
_TEXT	SEGMENT PARA USE32 PUBLIC 'CODE'
_TEXT	ENDS
;	COMDAT ?allocate@?$allocator@U_Node@?$_Tree_nod@V?$_Tmap_traits@KUtagEVENTINFO@@U?$less@K@std@@V?$allocator@U?$pair@$$CBKUtagEVENTINFO@@@std@@@3@$0A@@std@@@std@@@std@@QAEPAU_Node@?$_Tree_nod@V?$_Tmap_traits@KUtagEVENTINFO@@U?$less@K@std@@V?$allocator@U?$pair@$$CBKUtagEVENTINFO@@@std@@@3@$0A@@std@@@2@I@Z
_TEXT	SEGMENT PARA USE32 PUBLIC 'CODE'
_TEXT	ENDS
;	COMDAT ?_Dec@const_iterator@?$_Tree@V?$_Tmap_traits@KPAVCTUser@@U?$less@K@std@@V?$allocator@U?$pair@$$CBKPAVCTUser@@@std@@@3@$0A@@std@@@std@@QAEXXZ
_TEXT	SEGMENT PARA USE32 PUBLIC 'CODE'
_TEXT	ENDS
;	COMDAT ?_Inc@const_iterator@?$_Tree@V?$_Tmap_traits@KPAVCTUser@@U?$less@K@std@@V?$allocator@U?$pair@$$CBKPAVCTUser@@@std@@@3@$0A@@std@@@std@@QAEXXZ
_TEXT	SEGMENT PARA USE32 PUBLIC 'CODE'
_TEXT	ENDS
;	COMDAT ?_Dec@const_iterator@?$_Tree@V?$_Tmap_traits@KKU?$less@K@std@@V?$allocator@U?$pair@$$CBKK@std@@@2@$0A@@std@@@std@@QAEXXZ
_TEXT	SEGMENT PARA USE32 PUBLIC 'CODE'
_TEXT	ENDS
;	COMDAT ?_Dec@const_iterator@?$_Tree@V?$_Tmap_traits@KUtagEVENTINFO@@U?$less@K@std@@V?$allocator@U?$pair@$$CBKUtagEVENTINFO@@@std@@@3@$0A@@std@@@std@@QAEXXZ
_TEXT	SEGMENT PARA USE32 PUBLIC 'CODE'
_TEXT	ENDS
;	COMDAT ?_Inc@const_iterator@?$_Tree@V?$_Tmap_traits@KUtagEVENTINFO@@U?$less@K@std@@V?$allocator@U?$pair@$$CBKUtagEVENTINFO@@@std@@@3@$0A@@std@@@std@@QAEXXZ
_TEXT	SEGMENT PARA USE32 PUBLIC 'CODE'
_TEXT	ENDS
;	COMDAT ?_Isnil@?$_Tree@V?$_Tmap_traits@EPAUtagTGROUP@@U?$less@E@std@@V?$allocator@U?$pair@$$CBEPAUtagTGROUP@@@std@@@3@$0A@@std@@@std@@KAAADPAU_Node@?$_Tree_nod@V?$_Tmap_traits@EPAUtagTGROUP@@U?$less@E@std@@V?$allocator@U?$pair@$$CBEPAUtagTGROUP@@@std@@@3@$0A@@std@@@2@@Z
_TEXT	SEGMENT PARA USE32 PUBLIC 'CODE'
_TEXT	ENDS
;	COMDAT ?_Left@?$_Tree@V?$_Tmap_traits@EPAUtagTGROUP@@U?$less@E@std@@V?$allocator@U?$pair@$$CBEPAUtagTGROUP@@@std@@@3@$0A@@std@@@std@@KAAAPAU_Node@?$_Tree_nod@V?$_Tmap_traits@EPAUtagTGROUP@@U?$less@E@std@@V?$allocator@U?$pair@$$CBEPAUtagTGROUP@@@std@@@3@$0A@@std@@@2@PAU342@@Z
_TEXT	SEGMENT PARA USE32 PUBLIC 'CODE'
_TEXT	ENDS
;	COMDAT ?_Right@?$_Tree@V?$_Tmap_traits@EPAUtagTGROUP@@U?$less@E@std@@V?$allocator@U?$pair@$$CBEPAUtagTGROUP@@@std@@@3@$0A@@std@@@std@@KAAAPAU_Node@?$_Tree_nod@V?$_Tmap_traits@EPAUtagTGROUP@@U?$less@E@std@@V?$allocator@U?$pair@$$CBEPAUtagTGROUP@@@std@@@3@$0A@@std@@@2@PAU342@@Z
_TEXT	SEGMENT PARA USE32 PUBLIC 'CODE'
_TEXT	ENDS
;	COMDAT ?_Root@?$_Tree@V?$_Tmap_traits@EPAUtagTGROUP@@U?$less@E@std@@V?$allocator@U?$pair@$$CBEPAUtagTGROUP@@@std@@@3@$0A@@std@@@std@@IBEAAPAU_Node@?$_Tree_nod@V?$_Tmap_traits@EPAUtagTGROUP@@U?$less@E@std@@V?$allocator@U?$pair@$$CBEPAUtagTGROUP@@@std@@@3@$0A@@std@@@2@XZ
_TEXT	SEGMENT PARA USE32 PUBLIC 'CODE'
_TEXT	ENDS
;	COMDAT ??0const_iterator@?$vector@PAUtagTITEM@@V?$allocator@PAUtagTITEM@@@std@@@std@@QAE@PAPAUtagTITEM@@@Z
_TEXT	SEGMENT PARA USE32 PUBLIC 'CODE'
_TEXT	ENDS
;	COMDAT ??Gconst_iterator@?$vector@PAUtagTITEM@@V?$allocator@PAUtagTITEM@@@std@@@std@@QBEHABV012@@Z
_TEXT	SEGMENT PARA USE32 PUBLIC 'CODE'
_TEXT	ENDS
;	COMDAT ??0const_iterator@?$vector@PAUtagTCHAR@@V?$allocator@PAUtagTCHAR@@@std@@@std@@QAE@PAPAUtagTCHAR@@@Z
_TEXT	SEGMENT PARA USE32 PUBLIC 'CODE'
_TEXT	ENDS
;	COMDAT ??Gconst_iterator@?$vector@PAUtagTCHAR@@V?$allocator@PAUtagTCHAR@@@std@@@std@@QBEHABV012@@Z
_TEXT	SEGMENT PARA USE32 PUBLIC 'CODE'
_TEXT	ENDS
;	COMDAT ??0_Node@?$_Tree_nod@V?$_Tmap_traits@KPAVCTUser@@U?$less@K@std@@V?$allocator@U?$pair@$$CBKPAVCTUser@@@std@@@3@$0A@@std@@@std@@QAE@PAU012@00ABU?$pair@$$CBKPAVCTUser@@@2@D@Z
_TEXT	SEGMENT PARA USE32 PUBLIC 'CODE'
_TEXT	ENDS
;	COMDAT ??0_Node@?$_Tree_nod@V?$_Tmap_traits@KKU?$less@K@std@@V?$allocator@U?$pair@$$CBKK@std@@@2@$0A@@std@@@std@@QAE@PAU012@00ABU?$pair@$$CBKK@2@D@Z
_TEXT	SEGMENT PARA USE32 PUBLIC 'CODE'
_TEXT	ENDS
;	COMDAT ??0_Node@?$_Tree_nod@V?$_Tmap_traits@KUtagEVENTINFO@@U?$less@K@std@@V?$allocator@U?$pair@$$CBKUtagEVENTINFO@@@std@@@3@$0A@@std@@@std@@QAE@PAU012@00ABU?$pair@$$CBKUtagEVENTINFO@@@2@D@Z
_TEXT	SEGMENT PARA USE32 PUBLIC 'CODE'
_TEXT	ENDS
;	COMDAT ??0?$pair@$$CBKUtagEVENTINFO@@@std@@QAE@ABU01@@Z
_TEXT	SEGMENT PARA USE32 PUBLIC 'CODE'
_TEXT	ENDS
;	COMDAT ?max_size@?$allocator@K@std@@QBEIXZ
_TEXT	SEGMENT PARA USE32 PUBLIC 'CODE'
_TEXT	ENDS
;	COMDAT ?max_size@?$allocator@PAUtagTCHAR@@@std@@QBEIXZ
_TEXT	SEGMENT PARA USE32 PUBLIC 'CODE'
_TEXT	ENDS
;	COMDAT ?_Max@?$_Tree@V?$_Tmap_traits@KPAVCTUser@@U?$less@K@std@@V?$allocator@U?$pair@$$CBKPAVCTUser@@@std@@@3@$0A@@std@@@std@@KAPAU_Node@?$_Tree_nod@V?$_Tmap_traits@KPAVCTUser@@U?$less@K@std@@V?$allocator@U?$pair@$$CBKPAVCTUser@@@std@@@3@$0A@@std@@@2@PAU342@@Z
_TEXT	SEGMENT PARA USE32 PUBLIC 'CODE'
_TEXT	ENDS
;	COMDAT ?_Min@?$_Tree@V?$_Tmap_traits@KPAVCTUser@@U?$less@K@std@@V?$allocator@U?$pair@$$CBKPAVCTUser@@@std@@@3@$0A@@std@@@std@@KAPAU_Node@?$_Tree_nod@V?$_Tmap_traits@KPAVCTUser@@U?$less@K@std@@V?$allocator@U?$pair@$$CBKPAVCTUser@@@std@@@3@$0A@@std@@@2@PAU342@@Z
_TEXT	SEGMENT PARA USE32 PUBLIC 'CODE'
_TEXT	ENDS
;	COMDAT ?_Max@?$_Tree@V?$_Tmap_traits@KKU?$less@K@std@@V?$allocator@U?$pair@$$CBKK@std@@@2@$0A@@std@@@std@@KAPAU_Node@?$_Tree_nod@V?$_Tmap_traits@KKU?$less@K@std@@V?$allocator@U?$pair@$$CBKK@std@@@2@$0A@@std@@@2@PAU342@@Z
_TEXT	SEGMENT PARA USE32 PUBLIC 'CODE'
_TEXT	ENDS
;	COMDAT ?_Parent@?$_Tree@V?$_Tmap_traits@EPAUtagTGROUP@@U?$less@E@std@@V?$allocator@U?$pair@$$CBEPAUtagTGROUP@@@std@@@3@$0A@@std@@@std@@KAAAPAU_Node@?$_Tree_nod@V?$_Tmap_traits@EPAUtagTGROUP@@U?$less@E@std@@V?$allocator@U?$pair@$$CBEPAUtagTGROUP@@@std@@@3@$0A@@std@@@2@PAU342@@Z
_TEXT	SEGMENT PARA USE32 PUBLIC 'CODE'
_TEXT	ENDS
;	COMDAT ?Unlock@?$CComCritSecLock@VCComCriticalSection@ATL@@@ATL@@QAEXXZ
_TEXT	SEGMENT PARA USE32 PUBLIC 'CODE'
_TEXT	ENDS
;	COMDAT ??$_Uninit_fill_n@GIG@std@@YAXPAGIABGAAV?$allocator@G@0@U_Scalar_ptr_iterator_tag@0@@Z
_TEXT	SEGMENT PARA USE32 PUBLIC 'CODE'
_TEXT	ENDS
;	COMDAT ??$_Ptr_cat@PAUtagTCASHITEMSALE@@PAU1@@std@@YA?AU_Nonscalar_ptr_iterator_tag@0@AAPAUtagTCASHITEMSALE@@0@Z
_TEXT	SEGMENT PARA USE32 PUBLIC 'CODE'
_TEXT	ENDS
;	COMDAT ??$_Uninit_fill_n@PAUtagTCASHITEMSALE@@IU1@V?$allocator@UtagTCASHITEMSALE@@@std@@@std@@YAXPAUtagTCASHITEMSALE@@IABU1@AAV?$allocator@UtagTCASHITEMSALE@@@0@U_Nonscalar_ptr_iterator_tag@0@@Z
_TEXT	SEGMENT PARA USE32 PUBLIC 'CODE'
_TEXT	ENDS
;	COMDAT ??$_Ptr_cat@PAUtagMONREGEN@@PAU1@@std@@YA?AU_Nonscalar_ptr_iterator_tag@0@AAPAUtagMONREGEN@@0@Z
_TEXT	SEGMENT PARA USE32 PUBLIC 'CODE'
_TEXT	ENDS
;	COMDAT ??$_Uninit_fill_n@PAUtagMONREGEN@@IU1@V?$allocator@UtagMONREGEN@@@std@@@std@@YAXPAUtagMONREGEN@@IABU1@AAV?$allocator@UtagMONREGEN@@@0@U_Nonscalar_ptr_iterator_tag@0@@Z
_TEXT	SEGMENT PARA USE32 PUBLIC 'CODE'
_TEXT	ENDS
;	COMDAT ??$_Ptr_cat@PAUtagLOTTERY@@PAU1@@std@@YA?AU_Nonscalar_ptr_iterator_tag@0@AAPAUtagLOTTERY@@0@Z
_TEXT	SEGMENT PARA USE32 PUBLIC 'CODE'
_TEXT	ENDS
;	COMDAT ??$_Uninit_fill_n@PAUtagLOTTERY@@IU1@V?$allocator@UtagLOTTERY@@@std@@@std@@YAXPAUtagLOTTERY@@IABU1@AAV?$allocator@UtagLOTTERY@@@0@U_Nonscalar_ptr_iterator_tag@0@@Z
_TEXT	SEGMENT PARA USE32 PUBLIC 'CODE'
_TEXT	ENDS
;	COMDAT ??$_Destroy_range@GV?$allocator@G@std@@@std@@YAXPAG0AAV?$allocator@G@0@U_Scalar_ptr_iterator_tag@0@@Z
_TEXT	SEGMENT PARA USE32 PUBLIC 'CODE'
_TEXT	ENDS
;	COMDAT ??$_Uninitialized_copy@PAGPAGV?$allocator@G@std@@@std@@YAPAGPAG00AAV?$allocator@G@0@@Z
_TEXT	SEGMENT PARA USE32 PUBLIC 'CODE'
_TEXT	ENDS
;	COMDAT ??$_Copy_backward_opt@PAGPAG@std@@YAPAGPAG00U_Scalar_ptr_iterator_tag@0@@Z
_TEXT	SEGMENT PARA USE32 PUBLIC 'CODE'
_TEXT	ENDS
;	COMDAT ??$_Destroy_range@UtagTCASHITEMSALE@@V?$allocator@UtagTCASHITEMSALE@@@std@@@std@@YAXPAUtagTCASHITEMSALE@@0AAV?$allocator@UtagTCASHITEMSALE@@@0@U_Nonscalar_ptr_iterator_tag@0@@Z
_TEXT	SEGMENT PARA USE32 PUBLIC 'CODE'
_TEXT	ENDS
;	COMDAT ??$_Uninitialized_copy@PAUtagTCASHITEMSALE@@PAU1@V?$allocator@UtagTCASHITEMSALE@@@std@@@std@@YAPAUtagTCASHITEMSALE@@PAU1@00AAV?$allocator@UtagTCASHITEMSALE@@@0@@Z
_TEXT	SEGMENT PARA USE32 PUBLIC 'CODE'
_TEXT	ENDS
;	COMDAT ??$_Copy_backward_opt@PAUtagTCASHITEMSALE@@PAU1@@std@@YAPAUtagTCASHITEMSALE@@PAU1@00U_Nonscalar_ptr_iterator_tag@0@@Z
_TEXT	SEGMENT PARA USE32 PUBLIC 'CODE'
_TEXT	ENDS
;	COMDAT ??$_Destroy_range@UtagMONREGEN@@V?$allocator@UtagMONREGEN@@@std@@@std@@YAXPAUtagMONREGEN@@0AAV?$allocator@UtagMONREGEN@@@0@U_Nonscalar_ptr_iterator_tag@0@@Z
_TEXT	SEGMENT PARA USE32 PUBLIC 'CODE'
_TEXT	ENDS
;	COMDAT ??$_Uninitialized_copy@PAUtagMONREGEN@@PAU1@V?$allocator@UtagMONREGEN@@@std@@@std@@YAPAUtagMONREGEN@@PAU1@00AAV?$allocator@UtagMONREGEN@@@0@@Z
_TEXT	SEGMENT PARA USE32 PUBLIC 'CODE'
_TEXT	ENDS
;	COMDAT ??$_Copy_backward_opt@PAUtagMONREGEN@@PAU1@@std@@YAPAUtagMONREGEN@@PAU1@00U_Nonscalar_ptr_iterator_tag@0@@Z
_TEXT	SEGMENT PARA USE32 PUBLIC 'CODE'
_TEXT	ENDS
;	COMDAT ??$_Destroy_range@UtagLOTTERY@@V?$allocator@UtagLOTTERY@@@std@@@std@@YAXPAUtagLOTTERY@@0AAV?$allocator@UtagLOTTERY@@@0@U_Nonscalar_ptr_iterator_tag@0@@Z
_TEXT	SEGMENT PARA USE32 PUBLIC 'CODE'
_TEXT	ENDS
;	COMDAT ??$_Uninitialized_copy@PAUtagLOTTERY@@PAU1@V?$allocator@UtagLOTTERY@@@std@@@std@@YAPAUtagLOTTERY@@PAU1@00AAV?$allocator@UtagLOTTERY@@@0@@Z
_TEXT	SEGMENT PARA USE32 PUBLIC 'CODE'
_TEXT	ENDS
;	COMDAT ??$_Copy_backward_opt@PAUtagLOTTERY@@PAU1@@std@@YAPAUtagLOTTERY@@PAU1@00U_Nonscalar_ptr_iterator_tag@0@@Z
_TEXT	SEGMENT PARA USE32 PUBLIC 'CODE'
_TEXT	ENDS
;	COMDAT ??$swap@D@std@@YAXAAD0@Z
_TEXT	SEGMENT PARA USE32 PUBLIC 'CODE'
_TEXT	ENDS
;	COMDAT ??$_Uninitialized_fill_n@PAPAUtagTITEM@@IPAU1@V?$allocator@PAUtagTITEM@@@std@@@std@@YAXPAPAUtagTITEM@@IABQAU1@AAV?$allocator@PAUtagTITEM@@@0@@Z
_TEXT	SEGMENT PARA USE32 PUBLIC 'CODE'
_TEXT	ENDS
;	COMDAT ??$_Ucopy@Vconst_iterator@?$vector@GV?$allocator@G@std@@@std@@@?$vector@GV?$allocator@G@std@@@std@@IAEPAGVconst_iterator@01@0PAG@Z
_TEXT	SEGMENT PARA USE32 PUBLIC 'CODE'
_TEXT	ENDS
;	COMDAT ??$_Ucopy@Vconst_iterator@?$vector@UtagTCASHITEMSALE@@V?$allocator@UtagTCASHITEMSALE@@@std@@@std@@@?$vector@UtagTCASHITEMSALE@@V?$allocator@UtagTCASHITEMSALE@@@std@@@std@@IAEPAUtagTCASHITEMSALE@@Vconst_iterator@01@0PAU2@@Z
_TEXT	SEGMENT PARA USE32 PUBLIC 'CODE'
_TEXT	ENDS
;	COMDAT ??$_Ucopy@Vconst_iterator@?$vector@UtagMONREGEN@@V?$allocator@UtagMONREGEN@@@std@@@std@@@?$vector@UtagMONREGEN@@V?$allocator@UtagMONREGEN@@@std@@@std@@IAEPAUtagMONREGEN@@Vconst_iterator@01@0PAU2@@Z
_TEXT	SEGMENT PARA USE32 PUBLIC 'CODE'
_TEXT	ENDS
;	COMDAT ??$_Ucopy@Vconst_iterator@?$vector@UtagLOTTERY@@V?$allocator@UtagLOTTERY@@@std@@@std@@@?$vector@UtagLOTTERY@@V?$allocator@UtagLOTTERY@@@std@@@std@@IAEPAUtagLOTTERY@@Vconst_iterator@01@0PAU2@@Z
_TEXT	SEGMENT PARA USE32 PUBLIC 'CODE'
_TEXT	ENDS
;	COMDAT ??$_Uninitialized_fill_n@PAPAUtagTCHAR@@IPAU1@V?$allocator@PAUtagTCHAR@@@std@@@std@@YAXPAPAUtagTCHAR@@IABQAU1@AAV?$allocator@PAUtagTCHAR@@@0@@Z
_TEXT	SEGMENT PARA USE32 PUBLIC 'CODE'
_TEXT	ENDS
;	COMDAT ??$_Destroy@U_Node@?$_Tree_nod@V?$_Tmap_traits@KUtagEVENTINFO@@U?$less@K@std@@V?$allocator@U?$pair@$$CBKUtagEVENTINFO@@@std@@@3@$0A@@std@@@std@@@std@@YAXPAU_Node@?$_Tree_nod@V?$_Tmap_traits@KUtagEVENTINFO@@U?$less@K@std@@V?$allocator@U?$pair@$$CBKUtagEVENTINFO@@@std@@@3@$0A@@std@@@0@@Z
_TEXT	SEGMENT PARA USE32 PUBLIC 'CODE'
_TEXT	ENDS
;	COMDAT ??$_Destroy_range@PAUtagTITEM@@V?$allocator@PAUtagTITEM@@@std@@@std@@YAXPAPAUtagTITEM@@0AAV?$allocator@PAUtagTITEM@@@0@@Z
_TEXT	SEGMENT PARA USE32 PUBLIC 'CODE'
_TEXT	ENDS
;	COMDAT ??$_Ucopy@PAPAUtagTITEM@@@?$vector@PAUtagTITEM@@V?$allocator@PAUtagTITEM@@@std@@@std@@IAEPAPAUtagTITEM@@PAPAU2@00@Z
_TEXT	SEGMENT PARA USE32 PUBLIC 'CODE'
_TEXT	ENDS
;	COMDAT ??$fill@PAPAUtagTITEM@@PAU1@@std@@YAXPAPAUtagTITEM@@0ABQAU1@@Z
_TEXT	SEGMENT PARA USE32 PUBLIC 'CODE'
_TEXT	ENDS
;	COMDAT ??$copy_backward@PAPAUtagTITEM@@PAPAU1@@std@@YAPAPAUtagTITEM@@PAPAU1@00@Z
_TEXT	SEGMENT PARA USE32 PUBLIC 'CODE'
_TEXT	ENDS
;	COMDAT ??$_Allocate@PAUtagTITEM@@@std@@YAPAPAUtagTITEM@@IPAPAU1@@Z
_TEXT	SEGMENT PARA USE32 PUBLIC 'CODE'
_TEXT	ENDS
;	COMDAT ??$_Uninitialized_copy@PAPAKPAPAKV?$allocator@PAK@std@@@std@@YAPAPAKPAPAK00AAV?$allocator@PAK@0@@Z
_TEXT	SEGMENT PARA USE32 PUBLIC 'CODE'
_TEXT	ENDS
;	COMDAT ??$_Uninitialized_fill_n@PAPAKIPAKV?$allocator@PAK@std@@@std@@YAXPAPAKIABQAKAAV?$allocator@PAK@0@@Z
_TEXT	SEGMENT PARA USE32 PUBLIC 'CODE'
_TEXT	ENDS
;	COMDAT ??$_Destroy_range@PAKV?$allocator@PAK@std@@@std@@YAXPAPAK0AAV?$allocator@PAK@0@@Z
_TEXT	SEGMENT PARA USE32 PUBLIC 'CODE'
_TEXT	ENDS
;	COMDAT ??$_Allocate@K@std@@YAPAKIPAK@Z
_TEXT	SEGMENT PARA USE32 PUBLIC 'CODE'
_TEXT	ENDS
;	COMDAT ??$_Construct@KK@std@@YAXPAKABK@Z
_TEXT	SEGMENT PARA USE32 PUBLIC 'CODE'
_TEXT	ENDS
;	COMDAT ??$_Destroy@K@std@@YAXPAK@Z
_TEXT	SEGMENT PARA USE32 PUBLIC 'CODE'
_TEXT	ENDS
;	COMDAT ??$_Destroy_range@PAUtagTCHAR@@V?$allocator@PAUtagTCHAR@@@std@@@std@@YAXPAPAUtagTCHAR@@0AAV?$allocator@PAUtagTCHAR@@@0@@Z
_TEXT	SEGMENT PARA USE32 PUBLIC 'CODE'
_TEXT	ENDS
;	COMDAT ??$_Ucopy@PAPAUtagTCHAR@@@?$vector@PAUtagTCHAR@@V?$allocator@PAUtagTCHAR@@@std@@@std@@IAEPAPAUtagTCHAR@@PAPAU2@00@Z
_TEXT	SEGMENT PARA USE32 PUBLIC 'CODE'
_TEXT	ENDS
;	COMDAT ??$fill@PAPAUtagTCHAR@@PAU1@@std@@YAXPAPAUtagTCHAR@@0ABQAU1@@Z
_TEXT	SEGMENT PARA USE32 PUBLIC 'CODE'
_TEXT	ENDS
;	COMDAT ??$copy_backward@PAPAUtagTCHAR@@PAPAU1@@std@@YAPAPAUtagTCHAR@@PAPAU1@00@Z
_TEXT	SEGMENT PARA USE32 PUBLIC 'CODE'
_TEXT	ENDS
;	COMDAT ??$_Destroy@U_Node@?$_Tree_nod@V?$_Tmap_traits@KKU?$less@K@std@@V?$allocator@U?$pair@$$CBKK@std@@@2@$0A@@std@@@std@@@std@@YAXPAU_Node@?$_Tree_nod@V?$_Tmap_traits@KKU?$less@K@std@@V?$allocator@U?$pair@$$CBKK@std@@@2@$0A@@std@@@0@@Z
_TEXT	SEGMENT PARA USE32 PUBLIC 'CODE'
_TEXT	ENDS
;	COMDAT ??$_Allocate@PAK@std@@YAPAPAKIPAPAK@Z
_TEXT	SEGMENT PARA USE32 PUBLIC 'CODE'
_TEXT	ENDS
;	COMDAT ??$_Allocate@PAUtagTCHAR@@@std@@YAPAPAUtagTCHAR@@IPAPAU1@@Z
_TEXT	SEGMENT PARA USE32 PUBLIC 'CODE'
_TEXT	ENDS
;	COMDAT ??$_Allocate@U_Node@?$_Tree_nod@V?$_Tmap_traits@KPAVCTUser@@U?$less@K@std@@V?$allocator@U?$pair@$$CBKPAVCTUser@@@std@@@3@$0A@@std@@@std@@@std@@YAPAU_Node@?$_Tree_nod@V?$_Tmap_traits@KPAVCTUser@@U?$less@K@std@@V?$allocator@U?$pair@$$CBKPAVCTUser@@@std@@@3@$0A@@std@@@0@IPAU120@@Z
_TEXT	SEGMENT PARA USE32 PUBLIC 'CODE'
_TEXT	ENDS
;	COMDAT ??$_Allocate@U_Node@?$_Tree_nod@V?$_Tmap_traits@KKU?$less@K@std@@V?$allocator@U?$pair@$$CBKK@std@@@2@$0A@@std@@@std@@@std@@YAPAU_Node@?$_Tree_nod@V?$_Tmap_traits@KKU?$less@K@std@@V?$allocator@U?$pair@$$CBKK@std@@@2@$0A@@std@@@0@IPAU120@@Z
_TEXT	SEGMENT PARA USE32 PUBLIC 'CODE'
_TEXT	ENDS
;	COMDAT ??$_Allocate@U_Node@?$_Tree_nod@V?$_Tmap_traits@KUtagEVENTINFO@@U?$less@K@std@@V?$allocator@U?$pair@$$CBKUtagEVENTINFO@@@std@@@3@$0A@@std@@@std@@@std@@YAPAU_Node@?$_Tree_nod@V?$_Tmap_traits@KUtagEVENTINFO@@U?$less@K@std@@V?$allocator@U?$pair@$$CBKUtagEVENTINFO@@@std@@@3@$0A@@std@@@0@IPAU120@@Z
_TEXT	SEGMENT PARA USE32 PUBLIC 'CODE'
_TEXT	ENDS
;	COMDAT ??_G_Node@?$_Tree_nod@V?$_Tmap_traits@KUtagEVENTINFO@@U?$less@K@std@@V?$allocator@U?$pair@$$CBKUtagEVENTINFO@@@std@@@3@$0A@@std@@@std@@QAEPAXI@Z
_TEXT	SEGMENT PARA USE32 PUBLIC 'CODE'
_TEXT	ENDS
;	COMDAT ??1_Node@?$_Tree_nod@V?$_Tmap_traits@KUtagEVENTINFO@@U?$less@K@std@@V?$allocator@U?$pair@$$CBKUtagEVENTINFO@@@std@@@3@$0A@@std@@@std@@QAE@XZ
_TEXT	SEGMENT PARA USE32 PUBLIC 'CODE'
_TEXT	ENDS
;	COMDAT ?construct@?$allocator@UtagTCASHITEMSALE@@@std@@QAEXPAUtagTCASHITEMSALE@@ABU3@@Z
_TEXT	SEGMENT PARA USE32 PUBLIC 'CODE'
_TEXT	ENDS
;	COMDAT ?destroy@?$allocator@UtagTCASHITEMSALE@@@std@@QAEXPAUtagTCASHITEMSALE@@@Z
_TEXT	SEGMENT PARA USE32 PUBLIC 'CODE'
_TEXT	ENDS
;	COMDAT ?construct@?$allocator@UtagMONREGEN@@@std@@QAEXPAUtagMONREGEN@@ABU3@@Z
_TEXT	SEGMENT PARA USE32 PUBLIC 'CODE'
_TEXT	ENDS
;	COMDAT ?destroy@?$allocator@UtagMONREGEN@@@std@@QAEXPAUtagMONREGEN@@@Z
_TEXT	SEGMENT PARA USE32 PUBLIC 'CODE'
_TEXT	ENDS
;	COMDAT ?construct@?$allocator@UtagLOTTERY@@@std@@QAEXPAUtagLOTTERY@@ABU3@@Z
_TEXT	SEGMENT PARA USE32 PUBLIC 'CODE'
_TEXT	ENDS
;	COMDAT ?destroy@?$allocator@UtagLOTTERY@@@std@@QAEXPAUtagLOTTERY@@@Z
_TEXT	SEGMENT PARA USE32 PUBLIC 'CODE'
_TEXT	ENDS
;	COMDAT ??$fill_n@PAGIG@std@@YAXPAGIABG@Z
_TEXT	SEGMENT PARA USE32 PUBLIC 'CODE'
_TEXT	ENDS
;	COMDAT ??$_Uninit_copy@GG@std@@YAPAGPAG00AAV?$allocator@G@0@U_Scalar_ptr_iterator_tag@0@@Z
_TEXT	SEGMENT PARA USE32 PUBLIC 'CODE'
_TEXT	ENDS
;	COMDAT ??$_Uninit_copy@PAUtagTCASHITEMSALE@@PAU1@V?$allocator@UtagTCASHITEMSALE@@@std@@@std@@YAPAUtagTCASHITEMSALE@@PAU1@00AAV?$allocator@UtagTCASHITEMSALE@@@0@U_Nonscalar_ptr_iterator_tag@0@@Z
_TEXT	SEGMENT PARA USE32 PUBLIC 'CODE'
_TEXT	ENDS
;	COMDAT ??$_Uninit_copy@PAUtagMONREGEN@@PAU1@V?$allocator@UtagMONREGEN@@@std@@@std@@YAPAUtagMONREGEN@@PAU1@00AAV?$allocator@UtagMONREGEN@@@0@U_Nonscalar_ptr_iterator_tag@0@@Z
_TEXT	SEGMENT PARA USE32 PUBLIC 'CODE'
_TEXT	ENDS
;	COMDAT ??$_Uninit_copy@PAUtagLOTTERY@@PAU1@V?$allocator@UtagLOTTERY@@@std@@@std@@YAPAUtagLOTTERY@@PAU1@00AAV?$allocator@UtagLOTTERY@@@0@U_Nonscalar_ptr_iterator_tag@0@@Z
_TEXT	SEGMENT PARA USE32 PUBLIC 'CODE'
_TEXT	ENDS
;	COMDAT ??$_Ptr_cat@UtagTITEM@@@std@@YA?AU_Scalar_ptr_iterator_tag@0@PAPAUtagTITEM@@0@Z
_TEXT	SEGMENT PARA USE32 PUBLIC 'CODE'
_TEXT	ENDS
;	COMDAT ??$_Uninit_fill_n@PAUtagTITEM@@IPAU1@@std@@YAXPAPAUtagTITEM@@IABQAU1@AAV?$allocator@PAUtagTITEM@@@0@U_Scalar_ptr_iterator_tag@0@@Z
_TEXT	SEGMENT PARA USE32 PUBLIC 'CODE'
_TEXT	ENDS
;	COMDAT ??$_Uninitialized_copy@Vconst_iterator@?$vector@GV?$allocator@G@std@@@std@@PAGV?$allocator@G@3@@std@@YAPAGVconst_iterator@?$vector@GV?$allocator@G@std@@@0@0PAGAAV?$allocator@G@0@@Z
_TEXT	SEGMENT PARA USE32 PUBLIC 'CODE'
_TEXT	ENDS
;	COMDAT ??$_Uninitialized_copy@Vconst_iterator@?$vector@UtagTCASHITEMSALE@@V?$allocator@UtagTCASHITEMSALE@@@std@@@std@@PAUtagTCASHITEMSALE@@V?$allocator@UtagTCASHITEMSALE@@@3@@std@@YAPAUtagTCASHITEMSALE@@Vconst_iterator@?$vector@UtagTCASHITEMSALE@@V?$allocator@UtagTCASHITEMSALE@@@std@@@0@0PAU1@AAV?$allocator@UtagTCASHITEMSALE@@@0@@Z
_TEXT	SEGMENT PARA USE32 PUBLIC 'CODE'
_TEXT	ENDS
;	COMDAT ??$_Uninitialized_copy@Vconst_iterator@?$vector@UtagMONREGEN@@V?$allocator@UtagMONREGEN@@@std@@@std@@PAUtagMONREGEN@@V?$allocator@UtagMONREGEN@@@3@@std@@YAPAUtagMONREGEN@@Vconst_iterator@?$vector@UtagMONREGEN@@V?$allocator@UtagMONREGEN@@@std@@@0@0PAU1@AAV?$allocator@UtagMONREGEN@@@0@@Z
_TEXT	SEGMENT PARA USE32 PUBLIC 'CODE'
_TEXT	ENDS
;	COMDAT ??$_Uninitialized_copy@Vconst_iterator@?$vector@UtagLOTTERY@@V?$allocator@UtagLOTTERY@@@std@@@std@@PAUtagLOTTERY@@V?$allocator@UtagLOTTERY@@@3@@std@@YAPAUtagLOTTERY@@Vconst_iterator@?$vector@UtagLOTTERY@@V?$allocator@UtagLOTTERY@@@std@@@0@0PAU1@AAV?$allocator@UtagLOTTERY@@@0@@Z
_TEXT	SEGMENT PARA USE32 PUBLIC 'CODE'
_TEXT	ENDS
;	COMDAT ??$_Ptr_cat@UtagTCHAR@@@std@@YA?AU_Scalar_ptr_iterator_tag@0@PAPAUtagTCHAR@@0@Z
_TEXT	SEGMENT PARA USE32 PUBLIC 'CODE'
_TEXT	ENDS
;	COMDAT ??$_Uninit_fill_n@PAUtagTCHAR@@IPAU1@@std@@YAXPAPAUtagTCHAR@@IABQAU1@AAV?$allocator@PAUtagTCHAR@@@0@U_Scalar_ptr_iterator_tag@0@@Z
_TEXT	SEGMENT PARA USE32 PUBLIC 'CODE'
_TEXT	ENDS
;	COMDAT ??$_Destroy_range@PAUtagTITEM@@V?$allocator@PAUtagTITEM@@@std@@@std@@YAXPAPAUtagTITEM@@0AAV?$allocator@PAUtagTITEM@@@0@U_Scalar_ptr_iterator_tag@0@@Z
_TEXT	SEGMENT PARA USE32 PUBLIC 'CODE'
_TEXT	ENDS
;	COMDAT ??$_Uninitialized_copy@PAPAUtagTITEM@@PAPAU1@V?$allocator@PAUtagTITEM@@@std@@@std@@YAPAPAUtagTITEM@@PAPAU1@00AAV?$allocator@PAUtagTITEM@@@0@@Z
_TEXT	SEGMENT PARA USE32 PUBLIC 'CODE'
_TEXT	ENDS
;	COMDAT ??$_Copy_backward_opt@PAPAUtagTITEM@@PAPAU1@@std@@YAPAPAUtagTITEM@@PAPAU1@00U_Scalar_ptr_iterator_tag@0@@Z
_TEXT	SEGMENT PARA USE32 PUBLIC 'CODE'
_TEXT	ENDS
;	COMDAT ??$_Ptr_cat@K@std@@YA?AU_Scalar_ptr_iterator_tag@0@PAPAK0@Z
_TEXT	SEGMENT PARA USE32 PUBLIC 'CODE'
_TEXT	ENDS
;	COMDAT ??$_Uninit_copy@PAKPAK@std@@YAPAPAKPAPAK00AAV?$allocator@PAK@0@U_Scalar_ptr_iterator_tag@0@@Z
_TEXT	SEGMENT PARA USE32 PUBLIC 'CODE'
_TEXT	ENDS
;	COMDAT ??$_Uninit_fill_n@PAKIPAK@std@@YAXPAPAKIABQAKAAV?$allocator@PAK@0@U_Scalar_ptr_iterator_tag@0@@Z
_TEXT	SEGMENT PARA USE32 PUBLIC 'CODE'
_TEXT	ENDS
;	COMDAT ??$_Destroy_range@PAKV?$allocator@PAK@std@@@std@@YAXPAPAK0AAV?$allocator@PAK@0@U_Scalar_ptr_iterator_tag@0@@Z
_TEXT	SEGMENT PARA USE32 PUBLIC 'CODE'
_TEXT	ENDS
;	COMDAT ??$_Destroy_range@PAUtagTCHAR@@V?$allocator@PAUtagTCHAR@@@std@@@std@@YAXPAPAUtagTCHAR@@0AAV?$allocator@PAUtagTCHAR@@@0@U_Scalar_ptr_iterator_tag@0@@Z
_TEXT	SEGMENT PARA USE32 PUBLIC 'CODE'
_TEXT	ENDS
;	COMDAT ??$_Uninitialized_copy@PAPAUtagTCHAR@@PAPAU1@V?$allocator@PAUtagTCHAR@@@std@@@std@@YAPAPAUtagTCHAR@@PAPAU1@00AAV?$allocator@PAUtagTCHAR@@@0@@Z
_TEXT	SEGMENT PARA USE32 PUBLIC 'CODE'
_TEXT	ENDS
;	COMDAT ??$_Copy_backward_opt@PAPAUtagTCHAR@@PAPAU1@@std@@YAPAPAUtagTCHAR@@PAPAU1@00U_Scalar_ptr_iterator_tag@0@@Z
_TEXT	SEGMENT PARA USE32 PUBLIC 'CODE'
_TEXT	ENDS
;	COMDAT ??$_Construct@UtagTCASHITEMSALE@@U1@@std@@YAXPAUtagTCASHITEMSALE@@ABU1@@Z
_TEXT	SEGMENT PARA USE32 PUBLIC 'CODE'
_TEXT	ENDS
;	COMDAT ??$_Destroy@UtagTCASHITEMSALE@@@std@@YAXPAUtagTCASHITEMSALE@@@Z
_TEXT	SEGMENT PARA USE32 PUBLIC 'CODE'
_TEXT	ENDS
;	COMDAT ??$_Construct@UtagMONREGEN@@U1@@std@@YAXPAUtagMONREGEN@@ABU1@@Z
_TEXT	SEGMENT PARA USE32 PUBLIC 'CODE'
_TEXT	ENDS
;	COMDAT ??$_Destroy@UtagMONREGEN@@@std@@YAXPAUtagMONREGEN@@@Z
_TEXT	SEGMENT PARA USE32 PUBLIC 'CODE'
_TEXT	ENDS
;	COMDAT ??$_Construct@UtagLOTTERY@@U1@@std@@YAXPAUtagLOTTERY@@ABU1@@Z
_TEXT	SEGMENT PARA USE32 PUBLIC 'CODE'
_TEXT	ENDS
;	COMDAT ??$_Destroy@UtagLOTTERY@@@std@@YAXPAUtagLOTTERY@@@Z
_TEXT	SEGMENT PARA USE32 PUBLIC 'CODE'
_TEXT	ENDS
;	COMDAT ??$fill_n@PAPAUtagTITEM@@IPAU1@@std@@YAXPAPAUtagTITEM@@IABQAU1@@Z
_TEXT	SEGMENT PARA USE32 PUBLIC 'CODE'
_TEXT	ENDS
;	COMDAT ??$_Ptr_cat@Vconst_iterator@?$vector@GV?$allocator@G@std@@@std@@PAG@std@@YA?AU_Nonscalar_ptr_iterator_tag@0@AAVconst_iterator@?$vector@GV?$allocator@G@std@@@0@AAPAG@Z
_TEXT	SEGMENT PARA USE32 PUBLIC 'CODE'
_TEXT	ENDS
;	COMDAT ??$_Uninit_copy@Vconst_iterator@?$vector@GV?$allocator@G@std@@@std@@PAGV?$allocator@G@3@@std@@YAPAGVconst_iterator@?$vector@GV?$allocator@G@std@@@0@0PAGAAV?$allocator@G@0@U_Nonscalar_ptr_iterator_tag@0@@Z
_TEXT	SEGMENT PARA USE32 PUBLIC 'CODE'
_TEXT	ENDS
;	COMDAT ??$_Ptr_cat@Vconst_iterator@?$vector@UtagTCASHITEMSALE@@V?$allocator@UtagTCASHITEMSALE@@@std@@@std@@PAUtagTCASHITEMSALE@@@std@@YA?AU_Nonscalar_ptr_iterator_tag@0@AAVconst_iterator@?$vector@UtagTCASHITEMSALE@@V?$allocator@UtagTCASHITEMSALE@@@std@@@0@AAPAUtagTCASHITEMSALE@@@Z
_TEXT	SEGMENT PARA USE32 PUBLIC 'CODE'
_TEXT	ENDS
;	COMDAT ??$_Uninit_copy@Vconst_iterator@?$vector@UtagTCASHITEMSALE@@V?$allocator@UtagTCASHITEMSALE@@@std@@@std@@PAUtagTCASHITEMSALE@@V?$allocator@UtagTCASHITEMSALE@@@3@@std@@YAPAUtagTCASHITEMSALE@@Vconst_iterator@?$vector@UtagTCASHITEMSALE@@V?$allocator@UtagTCASHITEMSALE@@@std@@@0@0PAU1@AAV?$allocator@UtagTCASHITEMSALE@@@0@U_Nonscalar_ptr_iterator_tag@0@@Z
_TEXT	SEGMENT PARA USE32 PUBLIC 'CODE'
_TEXT	ENDS
;	COMDAT ??$_Ptr_cat@Vconst_iterator@?$vector@UtagMONREGEN@@V?$allocator@UtagMONREGEN@@@std@@@std@@PAUtagMONREGEN@@@std@@YA?AU_Nonscalar_ptr_iterator_tag@0@AAVconst_iterator@?$vector@UtagMONREGEN@@V?$allocator@UtagMONREGEN@@@std@@@0@AAPAUtagMONREGEN@@@Z
_TEXT	SEGMENT PARA USE32 PUBLIC 'CODE'
_TEXT	ENDS
;	COMDAT ??$_Uninit_copy@Vconst_iterator@?$vector@UtagMONREGEN@@V?$allocator@UtagMONREGEN@@@std@@@std@@PAUtagMONREGEN@@V?$allocator@UtagMONREGEN@@@3@@std@@YAPAUtagMONREGEN@@Vconst_iterator@?$vector@UtagMONREGEN@@V?$allocator@UtagMONREGEN@@@std@@@0@0PAU1@AAV?$allocator@UtagMONREGEN@@@0@U_Nonscalar_ptr_iterator_tag@0@@Z
_TEXT	SEGMENT PARA USE32 PUBLIC 'CODE'
_TEXT	ENDS
;	COMDAT ??$_Ptr_cat@Vconst_iterator@?$vector@UtagLOTTERY@@V?$allocator@UtagLOTTERY@@@std@@@std@@PAUtagLOTTERY@@@std@@YA?AU_Nonscalar_ptr_iterator_tag@0@AAVconst_iterator@?$vector@UtagLOTTERY@@V?$allocator@UtagLOTTERY@@@std@@@0@AAPAUtagLOTTERY@@@Z
_TEXT	SEGMENT PARA USE32 PUBLIC 'CODE'
_TEXT	ENDS
;	COMDAT ??$_Uninit_copy@Vconst_iterator@?$vector@UtagLOTTERY@@V?$allocator@UtagLOTTERY@@@std@@@std@@PAUtagLOTTERY@@V?$allocator@UtagLOTTERY@@@3@@std@@YAPAUtagLOTTERY@@Vconst_iterator@?$vector@UtagLOTTERY@@V?$allocator@UtagLOTTERY@@@std@@@0@0PAU1@AAV?$allocator@UtagLOTTERY@@@0@U_Nonscalar_ptr_iterator_tag@0@@Z
_TEXT	SEGMENT PARA USE32 PUBLIC 'CODE'
_TEXT	ENDS
;	COMDAT ??$fill_n@PAPAUtagTCHAR@@IPAU1@@std@@YAXPAPAUtagTCHAR@@IABQAU1@@Z
_TEXT	SEGMENT PARA USE32 PUBLIC 'CODE'
_TEXT	ENDS
;	COMDAT ??$_Uninit_copy@PAUtagTITEM@@PAU1@@std@@YAPAPAUtagTITEM@@PAPAU1@00AAV?$allocator@PAUtagTITEM@@@0@U_Scalar_ptr_iterator_tag@0@@Z
_TEXT	SEGMENT PARA USE32 PUBLIC 'CODE'
_TEXT	ENDS
;	COMDAT ??$fill_n@PAPAKIPAK@std@@YAXPAPAKIABQAK@Z
_TEXT	SEGMENT PARA USE32 PUBLIC 'CODE'
_TEXT	ENDS
;	COMDAT ??$_Uninit_copy@PAUtagTCHAR@@PAU1@@std@@YAPAPAUtagTCHAR@@PAPAU1@00AAV?$allocator@PAUtagTCHAR@@@0@U_Scalar_ptr_iterator_tag@0@@Z
_TEXT	SEGMENT PARA USE32 PUBLIC 'CODE'
_TEXT	ENDS
;	COMDAT ?construct@?$allocator@G@std@@QAEXPAGABG@Z
_TEXT	SEGMENT PARA USE32 PUBLIC 'CODE'
_TEXT	ENDS
;	COMDAT ?destroy@?$allocator@G@std@@QAEXPAG@Z
_TEXT	SEGMENT PARA USE32 PUBLIC 'CODE'
_TEXT	ENDS
;	COMDAT ??Econst_iterator@?$vector@GV?$allocator@G@std@@@std@@QAEAAV012@XZ
_TEXT	SEGMENT PARA USE32 PUBLIC 'CODE'
_TEXT	ENDS
;	COMDAT ??9const_iterator@?$vector@GV?$allocator@G@std@@@std@@QBE_NABV012@@Z
_TEXT	SEGMENT PARA USE32 PUBLIC 'CODE'
_TEXT	ENDS
;	COMDAT ??Econst_iterator@?$vector@UtagTCASHITEMSALE@@V?$allocator@UtagTCASHITEMSALE@@@std@@@std@@QAEAAV012@XZ
_TEXT	SEGMENT PARA USE32 PUBLIC 'CODE'
_TEXT	ENDS
;	COMDAT ??9const_iterator@?$vector@UtagTCASHITEMSALE@@V?$allocator@UtagTCASHITEMSALE@@@std@@@std@@QBE_NABV012@@Z
_TEXT	SEGMENT PARA USE32 PUBLIC 'CODE'
_TEXT	ENDS
;	COMDAT ??Econst_iterator@?$vector@UtagMONREGEN@@V?$allocator@UtagMONREGEN@@@std@@@std@@QAEAAV012@XZ
_TEXT	SEGMENT PARA USE32 PUBLIC 'CODE'
_TEXT	ENDS
;	COMDAT ??9const_iterator@?$vector@UtagMONREGEN@@V?$allocator@UtagMONREGEN@@@std@@@std@@QBE_NABV012@@Z
_TEXT	SEGMENT PARA USE32 PUBLIC 'CODE'
_TEXT	ENDS
;	COMDAT ??Econst_iterator@?$vector@UtagLOTTERY@@V?$allocator@UtagLOTTERY@@@std@@@std@@QAEAAV012@XZ
_TEXT	SEGMENT PARA USE32 PUBLIC 'CODE'
_TEXT	ENDS
;	COMDAT ??9const_iterator@?$vector@UtagLOTTERY@@V?$allocator@UtagLOTTERY@@@std@@@std@@QBE_NABV012@@Z
_TEXT	SEGMENT PARA USE32 PUBLIC 'CODE'
_TEXT	ENDS
;	COMDAT ??8const_iterator@?$vector@GV?$allocator@G@std@@@std@@QBE_NABV012@@Z
_TEXT	SEGMENT PARA USE32 PUBLIC 'CODE'
_TEXT	ENDS
;	COMDAT ??8const_iterator@?$vector@UtagTCASHITEMSALE@@V?$allocator@UtagTCASHITEMSALE@@@std@@@std@@QBE_NABV012@@Z
_TEXT	SEGMENT PARA USE32 PUBLIC 'CODE'
_TEXT	ENDS
;	COMDAT ??8const_iterator@?$vector@UtagMONREGEN@@V?$allocator@UtagMONREGEN@@@std@@@std@@QBE_NABV012@@Z
_TEXT	SEGMENT PARA USE32 PUBLIC 'CODE'
_TEXT	ENDS
;	COMDAT ??8const_iterator@?$vector@UtagLOTTERY@@V?$allocator@UtagLOTTERY@@@std@@@std@@QBE_NABV012@@Z
_TEXT	SEGMENT PARA USE32 PUBLIC 'CODE'
_TEXT	ENDS
;	COMDAT ??$_Construct@GG@std@@YAXPAGABG@Z
_TEXT	SEGMENT PARA USE32 PUBLIC 'CODE'
_TEXT	ENDS
;	COMDAT ?GetGITPtr@CAtlModule@ATL@@UAEJPAPAUIGlobalInterfaceTable@@@Z
_TEXT	SEGMENT PARA USE32 PUBLIC 'CODE'
_TEXT	ENDS
;	COMDAT __GUID_00000146_0000_0000_c000_000000000046
CONST	SEGMENT DWORD USE32 PUBLIC 'CONST'
CONST	ENDS
;	COMDAT _CLSID_StdGlobalInterfaceTable
CONST	SEGMENT DWORD USE32 PUBLIC 'CONST'
CONST	ENDS
;	COMDAT ?GetLockCount@CAtlModule@ATL@@UAEJXZ
_TEXT	SEGMENT PARA USE32 PUBLIC 'CODE'
_TEXT	ENDS
;	COMDAT ?Lock@CAtlModule@ATL@@UAEJXZ
_TEXT	SEGMENT PARA USE32 PUBLIC 'CODE'
_TEXT	ENDS
;	COMDAT ?Increment@CComMultiThreadModel@ATL@@SGKPAJ@Z
_TEXT	SEGMENT PARA USE32 PUBLIC 'CODE'
_TEXT	ENDS
;	COMDAT ??$_Destroy@G@std@@YAXPAG@Z
_TEXT	SEGMENT PARA USE32 PUBLIC 'CODE'
_TEXT	ENDS
;	COMDAT ??Dconst_iterator@?$vector@UtagLOTTERY@@V?$allocator@UtagLOTTERY@@@std@@@std@@QBEABUtagLOTTERY@@XZ
_TEXT	SEGMENT PARA USE32 PUBLIC 'CODE'
_TEXT	ENDS
;	COMDAT ??Dconst_iterator@?$vector@UtagMONREGEN@@V?$allocator@UtagMONREGEN@@@std@@@std@@QBEABUtagMONREGEN@@XZ
_TEXT	SEGMENT PARA USE32 PUBLIC 'CODE'
_TEXT	ENDS
;	COMDAT ??Dconst_iterator@?$vector@UtagTCASHITEMSALE@@V?$allocator@UtagTCASHITEMSALE@@@std@@@std@@QBEABUtagTCASHITEMSALE@@XZ
_TEXT	SEGMENT PARA USE32 PUBLIC 'CODE'
_TEXT	ENDS
;	COMDAT ??Dconst_iterator@?$vector@GV?$allocator@G@std@@@std@@QBEABGXZ
_TEXT	SEGMENT PARA USE32 PUBLIC 'CODE'
_TEXT	ENDS
;	COMDAT ?_Ptr_cat@std@@YA?AU_Scalar_ptr_iterator_tag@1@PAG0@Z
_TEXT	SEGMENT PARA USE32 PUBLIC 'CODE'
_TEXT	ENDS
;	COMDAT ?_Psave@?$_Facetptr@V?$ctype@G@std@@@std@@2PBVfacet@locale@2@B
_DATA	SEGMENT DWORD USE32 PUBLIC 'DATA'
_DATA	ENDS
;	COMDAT ?_Psave@?$_Facetptr@V?$ctype@D@std@@@std@@2PBVfacet@locale@2@B
_DATA	SEGMENT DWORD USE32 PUBLIC 'DATA'
_DATA	ENDS
;	COMDAT ?Unlock@CComCriticalSection@ATL@@QAEJXZ
_TEXT	SEGMENT PARA USE32 PUBLIC 'CODE'
_TEXT	ENDS
;	COMDAT ?CopyChars@?$CSimpleStringT@D$0A@@ATL@@SAXPADPBDH@Z
_TEXT	SEGMENT PARA USE32 PUBLIC 'CODE'
_TEXT	ENDS
;	COMDAT ?SetLength@?$CSimpleStringT@D$0A@@ATL@@AAEXH@Z
_TEXT	SEGMENT PARA USE32 PUBLIC 'CODE'
_TEXT	ENDS
;	COMDAT ?ThrowMemoryException@?$CSimpleStringT@D$0A@@ATL@@KAXXZ
_TEXT	SEGMENT PARA USE32 PUBLIC 'CODE'
_TEXT	ENDS
;	COMDAT ??3@YAXPAX0@Z
_TEXT	SEGMENT PARA USE32 PUBLIC 'CODE'
_TEXT	ENDS
;	COMDAT ??2@YAPAXIPAX@Z
_TEXT	SEGMENT PARA USE32 PUBLIC 'CODE'
_TEXT	ENDS
;	COMDAT ??0const_iterator@?$vector@UtagLOTTERY@@V?$allocator@UtagLOTTERY@@@std@@@std@@QAE@PAUtagLOTTERY@@@Z
_TEXT	SEGMENT PARA USE32 PUBLIC 'CODE'
_TEXT	ENDS
;	COMDAT ??0const_iterator@?$vector@UtagMONREGEN@@V?$allocator@UtagMONREGEN@@@std@@@std@@QAE@PAUtagMONREGEN@@@Z
_TEXT	SEGMENT PARA USE32 PUBLIC 'CODE'
_TEXT	ENDS
;	COMDAT ??0const_iterator@?$vector@UtagTCASHITEMSALE@@V?$allocator@UtagTCASHITEMSALE@@@std@@@std@@QAE@PAUtagTCASHITEMSALE@@@Z
_TEXT	SEGMENT PARA USE32 PUBLIC 'CODE'
_TEXT	ENDS
;	COMDAT ??0const_iterator@?$vector@GV?$allocator@G@std@@@std@@QAE@PAG@Z
_TEXT	SEGMENT PARA USE32 PUBLIC 'CODE'
_TEXT	ENDS
;	COMDAT ??_C@_0BD@OLBABOEK@vector?$DMT?$DO?5too?5long?$AA@
CONST	SEGMENT DWORD USE32 PUBLIC 'CONST'
CONST	ENDS
;	COMDAT __TI3?AVlength_error@std@@
xdata$x	SEGMENT DWORD USE32 PUBLIC 'CONST'
xdata$x	ENDS
;	COMDAT ??1length_error@std@@UAE@XZ
_TEXT	SEGMENT PARA USE32 PUBLIC 'CODE'
_TEXT	ENDS
;	COMDAT ??_7length_error@std@@6B@
CONST	SEGMENT DWORD USE32 PUBLIC 'CONST'
CONST	ENDS
;	COMDAT ??_Glength_error@std@@UAEPAXI@Z
_TEXT	SEGMENT PARA USE32 PUBLIC 'CODE'
_TEXT	ENDS
;	COMDAT ?what@logic_error@std@@UBEPBDXZ
_TEXT	SEGMENT PARA USE32 PUBLIC 'CODE'
_TEXT	ENDS
;	COMDAT ?c_str@?$basic_string@DU?$char_traits@D@std@@V?$allocator@D@2@@std@@QBEPBDXZ
_TEXT	SEGMENT PARA USE32 PUBLIC 'CODE'
_TEXT	ENDS
;	COMDAT ?_Myptr@?$basic_string@DU?$char_traits@D@std@@V?$allocator@D@2@@std@@QBEPBDXZ
_TEXT	SEGMENT PARA USE32 PUBLIC 'CODE'
_TEXT	ENDS
;	COMDAT __CTA3?AVlength_error@std@@
xdata$x	SEGMENT DWORD USE32 PUBLIC 'CONST'
xdata$x	ENDS
;	COMDAT __CT??_R0?AVlength_error@std@@@8??0length_error@std@@QAE@ABV01@@Z40
xdata$x	SEGMENT DWORD USE32 PUBLIC 'CONST'
xdata$x	ENDS
;	COMDAT ??_R0?AVlength_error@std@@@8
_DATA	SEGMENT DWORD USE32 PUBLIC 'DATA'
_DATA	ENDS
;	COMDAT ??0length_error@std@@QAE@ABV01@@Z
_TEXT	SEGMENT PARA USE32 PUBLIC 'CODE'
_TEXT	ENDS
;	COMDAT ??0length_error@std@@QAE@ABV?$basic_string@DU?$char_traits@D@std@@V?$allocator@D@2@@1@@Z
_TEXT	SEGMENT PARA USE32 PUBLIC 'CODE'
_TEXT	ENDS
;	COMDAT ??0logic_error@std@@QAE@ABV?$basic_string@DU?$char_traits@D@std@@V?$allocator@D@2@@1@@Z
_TEXT	SEGMENT PARA USE32 PUBLIC 'CODE'
_TEXT	ENDS
;	COMDAT ??_7logic_error@std@@6B@
CONST	SEGMENT DWORD USE32 PUBLIC 'CONST'
CONST	ENDS
;	COMDAT ??_Glogic_error@std@@UAEPAXI@Z
_TEXT	SEGMENT PARA USE32 PUBLIC 'CODE'
_TEXT	ENDS
;	COMDAT ??0?$basic_string@DU?$char_traits@D@std@@V?$allocator@D@2@@std@@QAE@ABV01@@Z
_TEXT	SEGMENT PARA USE32 PUBLIC 'CODE'
_TEXT	ENDS
;	COMDAT ??0?$_String_val@DV?$allocator@D@std@@@std@@IAE@V?$allocator@D@1@@Z
_TEXT	SEGMENT PARA USE32 PUBLIC 'CODE'
_TEXT	ENDS
;	COMDAT ??0?$allocator@D@std@@QAE@ABV01@@Z
_TEXT	SEGMENT PARA USE32 PUBLIC 'CODE'
_TEXT	ENDS
;	COMDAT ?_Tidy@?$basic_string@DU?$char_traits@D@std@@V?$allocator@D@2@@std@@IAEX_NI@Z
_TEXT	SEGMENT PARA USE32 PUBLIC 'CODE'
_TEXT	ENDS
;	COMDAT ?copy@?$char_traits@D@std@@SAPADPADPBDI@Z
_TEXT	SEGMENT PARA USE32 PUBLIC 'CODE'
_TEXT	ENDS
;	COMDAT ?deallocate@?$allocator@D@std@@QAEXPADI@Z
_TEXT	SEGMENT PARA USE32 PUBLIC 'CODE'
_TEXT	ENDS
;	COMDAT ?_Eos@?$basic_string@DU?$char_traits@D@std@@V?$allocator@D@2@@std@@IAEXI@Z
_TEXT	SEGMENT PARA USE32 PUBLIC 'CODE'
_TEXT	ENDS
;	COMDAT ?assign@?$char_traits@D@std@@SAXAADABD@Z
_TEXT	SEGMENT PARA USE32 PUBLIC 'CODE'
_TEXT	ENDS
;	COMDAT ?_Myptr@?$basic_string@DU?$char_traits@D@std@@V?$allocator@D@2@@std@@QAEPADXZ
_TEXT	SEGMENT PARA USE32 PUBLIC 'CODE'
_TEXT	ENDS
;	COMDAT ?assign@?$basic_string@DU?$char_traits@D@std@@V?$allocator@D@2@@std@@QAEAAV12@ABV12@II@Z
_TEXT	SEGMENT PARA USE32 PUBLIC 'CODE'
_TEXT	ENDS
;	COMDAT ?size@?$basic_string@DU?$char_traits@D@std@@V?$allocator@D@2@@std@@QBEIXZ
_TEXT	SEGMENT PARA USE32 PUBLIC 'CODE'
_TEXT	ENDS
;	COMDAT ?erase@?$basic_string@DU?$char_traits@D@std@@V?$allocator@D@2@@std@@QAEAAV12@II@Z
_TEXT	SEGMENT PARA USE32 PUBLIC 'CODE'
_TEXT	ENDS
;	COMDAT ?move@?$char_traits@D@std@@SAPADPADPBDI@Z
_TEXT	SEGMENT PARA USE32 PUBLIC 'CODE'
_TEXT	ENDS
;	COMDAT ?_Grow@?$basic_string@DU?$char_traits@D@std@@V?$allocator@D@2@@std@@IAE_NI_N@Z
_TEXT	SEGMENT PARA USE32 PUBLIC 'CODE'
_TEXT	ENDS
;	COMDAT ?max_size@?$basic_string@DU?$char_traits@D@std@@V?$allocator@D@2@@std@@QBEIXZ
_TEXT	SEGMENT PARA USE32 PUBLIC 'CODE'
_TEXT	ENDS
;	COMDAT ?max_size@?$allocator@D@std@@QBEIXZ
_TEXT	SEGMENT PARA USE32 PUBLIC 'CODE'
_TEXT	ENDS
;	COMDAT ?_Copy@?$basic_string@DU?$char_traits@D@std@@V?$allocator@D@2@@std@@IAEXII@Z
_TEXT	SEGMENT PARA USE32 PUBLIC 'CODE'
_TEXT	ENDS
;	COMDAT ?allocate@?$allocator@D@std@@QAEPADI@Z
_TEXT	SEGMENT PARA USE32 PUBLIC 'CODE'
_TEXT	ENDS
;	COMDAT ??$_Allocate@D@std@@YAPADIPAD@Z
_TEXT	SEGMENT PARA USE32 PUBLIC 'CODE'
_TEXT	ENDS
;	COMDAT ?npos@?$basic_string@DU?$char_traits@D@std@@V?$allocator@D@2@@std@@2IB
CONST	SEGMENT DWORD USE32 PUBLIC 'CONST'
CONST	ENDS
;	COMDAT ?allocate@?$allocator@UtagLOTTERY@@@std@@QAEPAUtagLOTTERY@@I@Z
_TEXT	SEGMENT PARA USE32 PUBLIC 'CODE'
_TEXT	ENDS
;	COMDAT ??$_Allocate@UtagLOTTERY@@@std@@YAPAUtagLOTTERY@@IPAU1@@Z
_TEXT	SEGMENT PARA USE32 PUBLIC 'CODE'
_TEXT	ENDS
;	COMDAT ?_Xlen@?$vector@UtagLOTTERY@@V?$allocator@UtagLOTTERY@@@std@@@std@@IBEXXZ
_TEXT	SEGMENT PARA USE32 PUBLIC 'CODE'
_TEXT	ENDS
;	COMDAT ?max_size@?$vector@UtagLOTTERY@@V?$allocator@UtagLOTTERY@@@std@@@std@@QBEIXZ
_TEXT	SEGMENT PARA USE32 PUBLIC 'CODE'
_TEXT	ENDS
;	COMDAT ?max_size@?$allocator@UtagLOTTERY@@@std@@QBEIXZ
_TEXT	SEGMENT PARA USE32 PUBLIC 'CODE'
_TEXT	ENDS
;	COMDAT ?size@?$vector@UtagLOTTERY@@V?$allocator@UtagLOTTERY@@@std@@@std@@QBEIXZ
_TEXT	SEGMENT PARA USE32 PUBLIC 'CODE'
_TEXT	ENDS
;	COMDAT ?allocate@?$allocator@UtagMONREGEN@@@std@@QAEPAUtagMONREGEN@@I@Z
_TEXT	SEGMENT PARA USE32 PUBLIC 'CODE'
_TEXT	ENDS
;	COMDAT ??$_Allocate@UtagMONREGEN@@@std@@YAPAUtagMONREGEN@@IPAU1@@Z
_TEXT	SEGMENT PARA USE32 PUBLIC 'CODE'
_TEXT	ENDS
;	COMDAT ?_Xlen@?$vector@UtagMONREGEN@@V?$allocator@UtagMONREGEN@@@std@@@std@@IBEXXZ
_TEXT	SEGMENT PARA USE32 PUBLIC 'CODE'
_TEXT	ENDS
;	COMDAT ?max_size@?$vector@UtagMONREGEN@@V?$allocator@UtagMONREGEN@@@std@@@std@@QBEIXZ
_TEXT	SEGMENT PARA USE32 PUBLIC 'CODE'
_TEXT	ENDS
;	COMDAT ?max_size@?$allocator@UtagMONREGEN@@@std@@QBEIXZ
_TEXT	SEGMENT PARA USE32 PUBLIC 'CODE'
_TEXT	ENDS
;	COMDAT ?size@?$vector@UtagMONREGEN@@V?$allocator@UtagMONREGEN@@@std@@@std@@QBEIXZ
_TEXT	SEGMENT PARA USE32 PUBLIC 'CODE'
_TEXT	ENDS
;	COMDAT ?allocate@?$allocator@UtagTCASHITEMSALE@@@std@@QAEPAUtagTCASHITEMSALE@@I@Z
_TEXT	SEGMENT PARA USE32 PUBLIC 'CODE'
_TEXT	ENDS
;	COMDAT ??$_Allocate@UtagTCASHITEMSALE@@@std@@YAPAUtagTCASHITEMSALE@@IPAU1@@Z
_TEXT	SEGMENT PARA USE32 PUBLIC 'CODE'
_TEXT	ENDS
;	COMDAT ?_Xlen@?$vector@UtagTCASHITEMSALE@@V?$allocator@UtagTCASHITEMSALE@@@std@@@std@@IBEXXZ
_TEXT	SEGMENT PARA USE32 PUBLIC 'CODE'
_TEXT	ENDS
;	COMDAT ?max_size@?$vector@UtagTCASHITEMSALE@@V?$allocator@UtagTCASHITEMSALE@@@std@@@std@@QBEIXZ
_TEXT	SEGMENT PARA USE32 PUBLIC 'CODE'
_TEXT	ENDS
;	COMDAT ?max_size@?$allocator@UtagTCASHITEMSALE@@@std@@QBEIXZ
_TEXT	SEGMENT PARA USE32 PUBLIC 'CODE'
_TEXT	ENDS
;	COMDAT ?size@?$vector@UtagTCASHITEMSALE@@V?$allocator@UtagTCASHITEMSALE@@@std@@@std@@QBEIXZ
_TEXT	SEGMENT PARA USE32 PUBLIC 'CODE'
_TEXT	ENDS
;	COMDAT ?allocate@?$allocator@G@std@@QAEPAGI@Z
_TEXT	SEGMENT PARA USE32 PUBLIC 'CODE'
_TEXT	ENDS
;	COMDAT ??$_Allocate@G@std@@YAPAGIPAG@Z
_TEXT	SEGMENT PARA USE32 PUBLIC 'CODE'
_TEXT	ENDS
;	COMDAT ?_Xlen@?$vector@GV?$allocator@G@std@@@std@@IBEXXZ
_TEXT	SEGMENT PARA USE32 PUBLIC 'CODE'
_TEXT	ENDS
;	COMDAT ?max_size@?$vector@GV?$allocator@G@std@@@std@@QBEIXZ
_TEXT	SEGMENT PARA USE32 PUBLIC 'CODE'
_TEXT	ENDS
;	COMDAT ?max_size@?$allocator@G@std@@QBEIXZ
_TEXT	SEGMENT PARA USE32 PUBLIC 'CODE'
_TEXT	ENDS
;	COMDAT ?size@?$vector@GV?$allocator@G@std@@@std@@QBEIXZ
_TEXT	SEGMENT PARA USE32 PUBLIC 'CODE'
_TEXT	ENDS
;	COMDAT ?Attach@?$CSimpleStringT@D$0A@@ATL@@AAEXPAUCStringData@2@@Z
_TEXT	SEGMENT PARA USE32 PUBLIC 'CODE'
_TEXT	ENDS
;	COMDAT ?data@CStringData@ATL@@QAEPAXXZ
_TEXT	SEGMENT PARA USE32 PUBLIC 'CODE'
_TEXT	ENDS
;	COMDAT ?Release@CStringData@ATL@@QAEXXZ
_TEXT	SEGMENT PARA USE32 PUBLIC 'CODE'
_TEXT	ENDS
;	COMDAT ?CloneData@?$CSimpleStringT@D$0A@@ATL@@CAPAUCStringData@2@PAU32@@Z
_TEXT	SEGMENT PARA USE32 PUBLIC 'CODE'
_TEXT	ENDS
;	COMDAT ?AddRef@CStringData@ATL@@QAEXXZ
_TEXT	SEGMENT PARA USE32 PUBLIC 'CODE'
_TEXT	ENDS
;	COMDAT ?SetString@?$CSimpleStringT@D$0A@@ATL@@QAEXPBDH@Z
_TEXT	SEGMENT PARA USE32 PUBLIC 'CODE'
_TEXT	ENDS
;	COMDAT ?Empty@?$CSimpleStringT@D$0A@@ATL@@QAEXXZ
_TEXT	SEGMENT PARA USE32 PUBLIC 'CODE'
_TEXT	ENDS
;	COMDAT ?CopyCharsOverlapped@?$CSimpleStringT@D$0A@@ATL@@SAXPADPBDH@Z
_TEXT	SEGMENT PARA USE32 PUBLIC 'CODE'
_TEXT	ENDS
;	COMDAT ?IsLocked@CStringData@ATL@@QBE_NXZ
_TEXT	SEGMENT PARA USE32 PUBLIC 'CODE'
_TEXT	ENDS
;	COMDAT ?GetData@?$CSimpleStringT@D$0A@@ATL@@ABEPAUCStringData@2@XZ
_TEXT	SEGMENT PARA USE32 PUBLIC 'CODE'
_TEXT	ENDS
;	COMDAT ?ReleaseBufferSetLength@?$CSimpleStringT@D$0A@@ATL@@QAEXH@Z
_TEXT	SEGMENT PARA USE32 PUBLIC 'CODE'
_TEXT	ENDS
;	COMDAT ?Format@?$ChTraitsCRT@D@ATL@@SAHPADPBD0@Z
_TEXT	SEGMENT PARA USE32 PUBLIC 'CODE'
_TEXT	ENDS
;	COMDAT ?GetBuffer@?$CSimpleStringT@D$0A@@ATL@@QAEPADH@Z
_TEXT	SEGMENT PARA USE32 PUBLIC 'CODE'
_TEXT	ENDS
;	COMDAT ?PrepareWrite@?$CSimpleStringT@D$0A@@ATL@@AAEPADH@Z
_TEXT	SEGMENT PARA USE32 PUBLIC 'CODE'
_TEXT	ENDS
;	COMDAT ?PrepareWrite2@?$CSimpleStringT@D$0A@@ATL@@AAEXH@Z
_TEXT	SEGMENT PARA USE32 PUBLIC 'CODE'
_TEXT	ENDS
;	COMDAT ?IsShared@CStringData@ATL@@QBE_NXZ
_TEXT	SEGMENT PARA USE32 PUBLIC 'CODE'
_TEXT	ENDS
;	COMDAT ?Fork@?$CSimpleStringT@D$0A@@ATL@@AAEXH@Z
_TEXT	SEGMENT PARA USE32 PUBLIC 'CODE'
_TEXT	ENDS
;	COMDAT ?Reallocate@?$CSimpleStringT@D$0A@@ATL@@AAEXH@Z
_TEXT	SEGMENT PARA USE32 PUBLIC 'CODE'
_TEXT	ENDS
;	COMDAT ?GetFormattedLength@?$ChTraitsCRT@D@ATL@@SAHPBDPAD@Z
_TEXT	SEGMENT PARA USE32 PUBLIC 'CODE'
_TEXT	ENDS
;	COMDAT ??1?$CSimpleStringT@D$0A@@ATL@@QAE@XZ
_TEXT	SEGMENT PARA USE32 PUBLIC 'CODE'
_TEXT	ENDS
;	COMDAT ??0?$CSimpleStringT@D$0A@@ATL@@QAE@PAUIAtlStringMgr@1@@Z
_TEXT	SEGMENT PARA USE32 PUBLIC 'CODE'
_TEXT	ENDS
;	COMDAT ??_7out_of_range@std@@6B@
CONST	SEGMENT DWORD USE32 PUBLIC 'CONST'
CONST	ENDS
;	COMDAT ??_Gout_of_range@std@@UAEPAXI@Z
_TEXT	SEGMENT PARA USE32 PUBLIC 'CODE'
_TEXT	ENDS
;	COMDAT ??1logic_error@std@@UAE@XZ
_TEXT	SEGMENT PARA USE32 PUBLIC 'CODE'
_TEXT	ENDS
;	COMDAT ??0logic_error@std@@QAE@ABV01@@Z
_TEXT	SEGMENT PARA USE32 PUBLIC 'CODE'
_TEXT	ENDS
;	COMDAT ??1CAtlModule@ATL@@UAE@XZ
_TEXT	SEGMENT PARA USE32 PUBLIC 'CODE'
_TEXT	ENDS
;	COMDAT __CTA3?AVout_of_range@std@@
xdata$x	SEGMENT DWORD USE32 PUBLIC 'CONST'
xdata$x	ENDS
;	COMDAT ??1out_of_range@std@@UAE@XZ
_TEXT	SEGMENT PARA USE32 PUBLIC 'CODE'
_TEXT	ENDS
;	COMDAT __CT??_R0?AVexception@@@8??0exception@@QAE@ABV0@@Z12
xdata$x	SEGMENT DWORD USE32 PUBLIC 'CONST'
xdata$x	ENDS
;	COMDAT ??_R0?AVexception@@@8
_DATA	SEGMENT DWORD USE32 PUBLIC 'DATA'
_DATA	ENDS
;	COMDAT __CT??_R0?AVlogic_error@std@@@8??0logic_error@std@@QAE@ABV01@@Z40
xdata$x	SEGMENT DWORD USE32 PUBLIC 'CONST'
xdata$x	ENDS
;	COMDAT ??_R0?AVlogic_error@std@@@8
_DATA	SEGMENT DWORD USE32 PUBLIC 'DATA'
_DATA	ENDS
;	COMDAT __CT??_R0?AVout_of_range@std@@@8??0out_of_range@std@@QAE@ABV01@@Z40
xdata$x	SEGMENT DWORD USE32 PUBLIC 'CONST'
xdata$x	ENDS
;	COMDAT ??_R0?AVout_of_range@std@@@8
_DATA	SEGMENT DWORD USE32 PUBLIC 'DATA'
_DATA	ENDS
;	COMDAT __TI3?AVout_of_range@std@@
xdata$x	SEGMENT DWORD USE32 PUBLIC 'CONST'
xdata$x	ENDS
;	COMDAT ??0out_of_range@std@@QAE@ABV?$basic_string@DU?$char_traits@D@std@@V?$allocator@D@2@@1@@Z
_TEXT	SEGMENT PARA USE32 PUBLIC 'CODE'
_TEXT	ENDS
;	COMDAT ?_pPerfUnRegFunc@ATL@@3P6AJXZA
_DATA	SEGMENT DWORD USE32 PUBLIC 'DATA'
_DATA	ENDS
;	COMDAT ?_pPerfRegFunc@ATL@@3P6AJPAUHINSTANCE__@@@ZA
_DATA	SEGMENT DWORD USE32 PUBLIC 'DATA'
_DATA	ENDS
;	COMDAT ?Decrement@CComMultiThreadModel@ATL@@SGKPAJ@Z
_TEXT	SEGMENT PARA USE32 PUBLIC 'CODE'
_TEXT	ENDS
;	COMDAT ?Term@CAtlModule@ATL@@QAEXXZ
_TEXT	SEGMENT PARA USE32 PUBLIC 'CODE'
_TEXT	ENDS
;	COMDAT ?AtlCallTermFunc@ATL@@YGXPAU_ATL_MODULE70@1@@Z
_TEXT	SEGMENT PARA USE32 PUBLIC 'CODE'
_TEXT	ENDS
;	COMDAT ?_AtlRaiseException@ATL@@YAXKK@Z
_TEXT	SEGMENT PARA USE32 PUBLIC 'CODE'
_TEXT	ENDS
;	COMDAT ?Term@CComCriticalSection@ATL@@QAEJXZ
_TEXT	SEGMENT PARA USE32 PUBLIC 'CODE'
_TEXT	ENDS
;	COMDAT ?Unlock@CAtlModule@ATL@@UAEJXZ
_TEXT	SEGMENT PARA USE32 PUBLIC 'CODE'
_TEXT	ENDS
;	COMDAT ?_Tidy@?$vector@UtagLOTTERY@@V?$allocator@UtagLOTTERY@@@std@@@std@@IAEXXZ
_TEXT	SEGMENT PARA USE32 PUBLIC 'CODE'
_TEXT	ENDS
;	COMDAT ?_Destroy@?$vector@UtagLOTTERY@@V?$allocator@UtagLOTTERY@@@std@@@std@@IAEXPAUtagLOTTERY@@0@Z
_TEXT	SEGMENT PARA USE32 PUBLIC 'CODE'
_TEXT	ENDS
;	COMDAT ??$_Destroy_range@UtagLOTTERY@@V?$allocator@UtagLOTTERY@@@std@@@std@@YAXPAUtagLOTTERY@@0AAV?$allocator@UtagLOTTERY@@@0@@Z
_TEXT	SEGMENT PARA USE32 PUBLIC 'CODE'
_TEXT	ENDS
;	COMDAT ?deallocate@?$allocator@UtagLOTTERY@@@std@@QAEXPAUtagLOTTERY@@I@Z
_TEXT	SEGMENT PARA USE32 PUBLIC 'CODE'
_TEXT	ENDS
;	COMDAT ?_Tidy@?$vector@UtagMONREGEN@@V?$allocator@UtagMONREGEN@@@std@@@std@@IAEXXZ
_TEXT	SEGMENT PARA USE32 PUBLIC 'CODE'
_TEXT	ENDS
;	COMDAT ?_Destroy@?$vector@UtagMONREGEN@@V?$allocator@UtagMONREGEN@@@std@@@std@@IAEXPAUtagMONREGEN@@0@Z
_TEXT	SEGMENT PARA USE32 PUBLIC 'CODE'
_TEXT	ENDS
;	COMDAT ??$_Destroy_range@UtagMONREGEN@@V?$allocator@UtagMONREGEN@@@std@@@std@@YAXPAUtagMONREGEN@@0AAV?$allocator@UtagMONREGEN@@@0@@Z
_TEXT	SEGMENT PARA USE32 PUBLIC 'CODE'
_TEXT	ENDS
;	COMDAT ?deallocate@?$allocator@UtagMONREGEN@@@std@@QAEXPAUtagMONREGEN@@I@Z
_TEXT	SEGMENT PARA USE32 PUBLIC 'CODE'
_TEXT	ENDS
;	COMDAT ?_Tidy@?$vector@UtagTCASHITEMSALE@@V?$allocator@UtagTCASHITEMSALE@@@std@@@std@@IAEXXZ
_TEXT	SEGMENT PARA USE32 PUBLIC 'CODE'
_TEXT	ENDS
;	COMDAT ?_Destroy@?$vector@UtagTCASHITEMSALE@@V?$allocator@UtagTCASHITEMSALE@@@std@@@std@@IAEXPAUtagTCASHITEMSALE@@0@Z
_TEXT	SEGMENT PARA USE32 PUBLIC 'CODE'
_TEXT	ENDS
;	COMDAT ??$_Destroy_range@UtagTCASHITEMSALE@@V?$allocator@UtagTCASHITEMSALE@@@std@@@std@@YAXPAUtagTCASHITEMSALE@@0AAV?$allocator@UtagTCASHITEMSALE@@@0@@Z
_TEXT	SEGMENT PARA USE32 PUBLIC 'CODE'
_TEXT	ENDS
;	COMDAT ?deallocate@?$allocator@UtagTCASHITEMSALE@@@std@@QAEXPAUtagTCASHITEMSALE@@I@Z
_TEXT	SEGMENT PARA USE32 PUBLIC 'CODE'
_TEXT	ENDS
;	COMDAT ?_Tidy@?$vector@GV?$allocator@G@std@@@std@@IAEXXZ
_TEXT	SEGMENT PARA USE32 PUBLIC 'CODE'
_TEXT	ENDS
;	COMDAT ?_Destroy@?$vector@GV?$allocator@G@std@@@std@@IAEXPAG0@Z
_TEXT	SEGMENT PARA USE32 PUBLIC 'CODE'
_TEXT	ENDS
;	COMDAT ??$_Destroy_range@GV?$allocator@G@std@@@std@@YAXPAG0AAV?$allocator@G@0@@Z
_TEXT	SEGMENT PARA USE32 PUBLIC 'CODE'
_TEXT	ENDS
;	COMDAT ?deallocate@?$allocator@G@std@@QAEXPAGI@Z
_TEXT	SEGMENT PARA USE32 PUBLIC 'CODE'
_TEXT	ENDS
;	COMDAT ?GetString@?$CSimpleStringT@D$0A@@ATL@@QBEPBDXZ
_TEXT	SEGMENT PARA USE32 PUBLIC 'CODE'
_TEXT	ENDS
;	COMDAT ?AtlThrow@ATL@@YGXJ@Z
_TEXT	SEGMENT PARA USE32 PUBLIC 'CODE'
_TEXT	ENDS
;	COMDAT ??0CAtlException@ATL@@QAE@J@Z
_TEXT	SEGMENT PARA USE32 PUBLIC 'CODE'
_TEXT	ENDS
;	COMDAT __TI1?AVCAtlException@ATL@@
xdata$x	SEGMENT DWORD USE32 PUBLIC 'CONST'
xdata$x	ENDS
;	COMDAT __CTA1?AVCAtlException@ATL@@
xdata$x	SEGMENT DWORD USE32 PUBLIC 'CONST'
xdata$x	ENDS
;	COMDAT __CT??_R0?AVCAtlException@ATL@@@84
xdata$x	SEGMENT DWORD USE32 PUBLIC 'CONST'
xdata$x	ENDS
;	COMDAT ??_R0?AVCAtlException@ATL@@@8
_DATA	SEGMENT DWORD USE32 PUBLIC 'DATA'
_DATA	ENDS
;	COMDAT ??0?$CStringT@DV?$StrTraitATL@DV?$ChTraitsCRT@D@ATL@@@ATL@@@ATL@@QAE@ABV01@@Z
_TEXT	SEGMENT PARA USE32 PUBLIC 'CODE'
_TEXT	ENDS
;	COMDAT ??0?$CSimpleStringT@D$0A@@ATL@@QAE@ABV01@@Z
_TEXT	SEGMENT PARA USE32 PUBLIC 'CODE'
_TEXT	ENDS
;	COMDAT ??_C@_00CNPNBAHC@?$AA@
CONST	SEGMENT DWORD USE32 PUBLIC 'CONST'
CONST	ENDS
;	COMDAT ??4?$CStringT@DV?$StrTraitATL@DV?$ChTraitsCRT@D@ATL@@@ATL@@@ATL@@QAEAAV01@PBD@Z
_TEXT	SEGMENT PARA USE32 PUBLIC 'CODE'
_TEXT	ENDS
;	COMDAT ??4?$CSimpleStringT@D$0A@@ATL@@QAEAAV01@PBD@Z
_TEXT	SEGMENT PARA USE32 PUBLIC 'CODE'
_TEXT	ENDS
;	COMDAT ?SetString@?$CSimpleStringT@D$0A@@ATL@@QAEXPBD@Z
_TEXT	SEGMENT PARA USE32 PUBLIC 'CODE'
_TEXT	ENDS
;	COMDAT ?StringLength@?$CSimpleStringT@D$0A@@ATL@@SAHPBD@Z
_TEXT	SEGMENT PARA USE32 PUBLIC 'CODE'
_TEXT	ENDS
;	COMDAT ??1CCSLock@@UAE@XZ
_TEXT	SEGMENT PARA USE32 PUBLIC 'CODE'
_TEXT	ENDS
;	COMDAT ??_7CCSLock@@6B@
CONST	SEGMENT DWORD USE32 PUBLIC 'CONST'
CONST	ENDS
;	COMDAT ??_GCCSLock@@UAEPAXI@Z
_TEXT	SEGMENT PARA USE32 PUBLIC 'CODE'
_TEXT	ENDS
;	COMDAT ??0CCSLock@@QAE@PAU_RTL_CRITICAL_SECTION@@@Z
_TEXT	SEGMENT PARA USE32 PUBLIC 'CODE'
_TEXT	ENDS
;	COMDAT ?GetTickCount@CTime@ATL@@SG?AV12@XZ
_TEXT	SEGMENT PARA USE32 PUBLIC 'CODE'
_TEXT	ENDS
;	COMDAT ??0CTime@ATL@@QAE@_J@Z
_TEXT	SEGMENT PARA USE32 PUBLIC 'CODE'
_TEXT	ENDS
;	COMDAT ?GetTime@CTime@ATL@@QBE_JXZ
_TEXT	SEGMENT PARA USE32 PUBLIC 'CODE'
_TEXT	ENDS
;	COMDAT ?TRand@@YAKK@Z
_TEXT	SEGMENT PARA USE32 PUBLIC 'CODE'
_TEXT	ENDS
;	COMDAT ??1?$basic_string@DU?$char_traits@D@std@@V?$allocator@D@2@@std@@QAE@XZ
_TEXT	SEGMENT PARA USE32 PUBLIC 'CODE'
_TEXT	ENDS
;	COMDAT ??0?$basic_string@DU?$char_traits@D@std@@V?$allocator@D@2@@std@@QAE@PBD@Z
_TEXT	SEGMENT PARA USE32 PUBLIC 'CODE'
_TEXT	ENDS
;	COMDAT ??0?$allocator@D@std@@QAE@XZ
_TEXT	SEGMENT PARA USE32 PUBLIC 'CODE'
_TEXT	ENDS
;	COMDAT ?assign@?$basic_string@DU?$char_traits@D@std@@V?$allocator@D@2@@std@@QAEAAV12@PBD@Z
_TEXT	SEGMENT PARA USE32 PUBLIC 'CODE'
_TEXT	ENDS
;	COMDAT ?assign@?$basic_string@DU?$char_traits@D@std@@V?$allocator@D@2@@std@@QAEAAV12@PBDI@Z
_TEXT	SEGMENT PARA USE32 PUBLIC 'CODE'
_TEXT	ENDS
;	COMDAT ?_Inside@?$basic_string@DU?$char_traits@D@std@@V?$allocator@D@2@@std@@IAE_NPBD@Z
_TEXT	SEGMENT PARA USE32 PUBLIC 'CODE'
_TEXT	ENDS
;	COMDAT ?length@?$char_traits@D@std@@SAIPBD@Z
_TEXT	SEGMENT PARA USE32 PUBLIC 'CODE'
_TEXT	ENDS
;	COMDAT ?GetLength@?$CSimpleStringT@D$0A@@ATL@@QBEHXZ
_TEXT	SEGMENT PARA USE32 PUBLIC 'CODE'
_TEXT	ENDS
;	COMDAT ?WrapPacketOut@tagEVENTINFO@@QAEXPAVCPacket@@@Z
_TEXT	SEGMENT PARA USE32 PUBLIC 'CODE'
_TEXT	ENDS
;	COMDAT ?push_back@?$vector@UtagTCASHITEMSALE@@V?$allocator@UtagTCASHITEMSALE@@@std@@@std@@QAEXABUtagTCASHITEMSALE@@@Z
_TEXT	SEGMENT PARA USE32 PUBLIC 'CODE'
_TEXT	ENDS
;	COMDAT ?capacity@?$vector@UtagTCASHITEMSALE@@V?$allocator@UtagTCASHITEMSALE@@@std@@@std@@QBEIXZ
_TEXT	SEGMENT PARA USE32 PUBLIC 'CODE'
_TEXT	ENDS
;	COMDAT ?_Ufill@?$vector@UtagTCASHITEMSALE@@V?$allocator@UtagTCASHITEMSALE@@@std@@@std@@IAEPAUtagTCASHITEMSALE@@PAU3@IABU3@@Z
_TEXT	SEGMENT PARA USE32 PUBLIC 'CODE'
_TEXT	ENDS
;	COMDAT ??$_Uninitialized_fill_n@PAUtagTCASHITEMSALE@@IU1@V?$allocator@UtagTCASHITEMSALE@@@std@@@std@@YAXPAUtagTCASHITEMSALE@@IABU1@AAV?$allocator@UtagTCASHITEMSALE@@@0@@Z
_TEXT	SEGMENT PARA USE32 PUBLIC 'CODE'
_TEXT	ENDS
;	COMDAT ?insert@?$vector@UtagTCASHITEMSALE@@V?$allocator@UtagTCASHITEMSALE@@@std@@@std@@QAE?AViterator@12@V312@ABUtagTCASHITEMSALE@@@Z
_TEXT	SEGMENT PARA USE32 PUBLIC 'CODE'
_TEXT	ENDS
;	COMDAT ??Giterator@?$vector@UtagTCASHITEMSALE@@V?$allocator@UtagTCASHITEMSALE@@@std@@@std@@QBEHABVconst_iterator@12@@Z
_TEXT	SEGMENT PARA USE32 PUBLIC 'CODE'
_TEXT	ENDS
;	COMDAT ??Gconst_iterator@?$vector@UtagTCASHITEMSALE@@V?$allocator@UtagTCASHITEMSALE@@@std@@@std@@QBEHABV012@@Z
_TEXT	SEGMENT PARA USE32 PUBLIC 'CODE'
_TEXT	ENDS
;	COMDAT ?_Insert_n@?$vector@UtagTCASHITEMSALE@@V?$allocator@UtagTCASHITEMSALE@@@std@@@std@@IAEXViterator@12@IABUtagTCASHITEMSALE@@@Z
_TEXT	SEGMENT PARA USE32 PUBLIC 'CODE'
_TEXT	ENDS
;	COMDAT ??$_Ucopy@PAUtagTCASHITEMSALE@@@?$vector@UtagTCASHITEMSALE@@V?$allocator@UtagTCASHITEMSALE@@@std@@@std@@IAEPAUtagTCASHITEMSALE@@PAU2@00@Z
_TEXT	SEGMENT PARA USE32 PUBLIC 'CODE'
_TEXT	ENDS
;	COMDAT ??$copy_backward@PAUtagTCASHITEMSALE@@PAU1@@std@@YAPAUtagTCASHITEMSALE@@PAU1@00@Z
_TEXT	SEGMENT PARA USE32 PUBLIC 'CODE'
_TEXT	ENDS
;	COMDAT ??$fill@PAUtagTCASHITEMSALE@@U1@@std@@YAXPAUtagTCASHITEMSALE@@0ABU1@@Z
_TEXT	SEGMENT PARA USE32 PUBLIC 'CODE'
_TEXT	ENDS
;	COMDAT ??Hiterator@?$vector@UtagTCASHITEMSALE@@V?$allocator@UtagTCASHITEMSALE@@@std@@@std@@QBE?AV012@H@Z
_TEXT	SEGMENT PARA USE32 PUBLIC 'CODE'
_TEXT	ENDS
;	COMDAT ??Yiterator@?$vector@UtagTCASHITEMSALE@@V?$allocator@UtagTCASHITEMSALE@@@std@@@std@@QAEAAV012@H@Z
_TEXT	SEGMENT PARA USE32 PUBLIC 'CODE'
_TEXT	ENDS
;	COMDAT ?begin@?$vector@UtagTCASHITEMSALE@@V?$allocator@UtagTCASHITEMSALE@@@std@@@std@@QAE?AViterator@12@XZ
_TEXT	SEGMENT PARA USE32 PUBLIC 'CODE'
_TEXT	ENDS
;	COMDAT ??0iterator@?$vector@UtagTCASHITEMSALE@@V?$allocator@UtagTCASHITEMSALE@@@std@@@std@@QAE@PAUtagTCASHITEMSALE@@@Z
_TEXT	SEGMENT PARA USE32 PUBLIC 'CODE'
_TEXT	ENDS
;	COMDAT ?end@?$vector@UtagTCASHITEMSALE@@V?$allocator@UtagTCASHITEMSALE@@@std@@@std@@QAE?AViterator@12@XZ
_TEXT	SEGMENT PARA USE32 PUBLIC 'CODE'
_TEXT	ENDS
;	COMDAT ?push_back@?$vector@GV?$allocator@G@std@@@std@@QAEXABG@Z
_TEXT	SEGMENT PARA USE32 PUBLIC 'CODE'
_TEXT	ENDS
;	COMDAT ?capacity@?$vector@GV?$allocator@G@std@@@std@@QBEIXZ
_TEXT	SEGMENT PARA USE32 PUBLIC 'CODE'
_TEXT	ENDS
;	COMDAT ?_Ufill@?$vector@GV?$allocator@G@std@@@std@@IAEPAGPAGIABG@Z
_TEXT	SEGMENT PARA USE32 PUBLIC 'CODE'
_TEXT	ENDS
;	COMDAT ??$_Uninitialized_fill_n@PAGIGV?$allocator@G@std@@@std@@YAXPAGIABGAAV?$allocator@G@0@@Z
_TEXT	SEGMENT PARA USE32 PUBLIC 'CODE'
_TEXT	ENDS
;	COMDAT ?insert@?$vector@GV?$allocator@G@std@@@std@@QAE?AViterator@12@V312@ABG@Z
_TEXT	SEGMENT PARA USE32 PUBLIC 'CODE'
_TEXT	ENDS
;	COMDAT ??Giterator@?$vector@GV?$allocator@G@std@@@std@@QBEHABVconst_iterator@12@@Z
_TEXT	SEGMENT PARA USE32 PUBLIC 'CODE'
_TEXT	ENDS
;	COMDAT ??Gconst_iterator@?$vector@GV?$allocator@G@std@@@std@@QBEHABV012@@Z
_TEXT	SEGMENT PARA USE32 PUBLIC 'CODE'
_TEXT	ENDS
;	COMDAT ?_Insert_n@?$vector@GV?$allocator@G@std@@@std@@IAEXViterator@12@IABG@Z
_TEXT	SEGMENT PARA USE32 PUBLIC 'CODE'
_TEXT	ENDS
;	COMDAT ??$_Ucopy@PAG@?$vector@GV?$allocator@G@std@@@std@@IAEPAGPAG00@Z
_TEXT	SEGMENT PARA USE32 PUBLIC 'CODE'
_TEXT	ENDS
;	COMDAT ??$copy_backward@PAGPAG@std@@YAPAGPAG00@Z
_TEXT	SEGMENT PARA USE32 PUBLIC 'CODE'
_TEXT	ENDS
;	COMDAT ??$fill@PAGG@std@@YAXPAG0ABG@Z
_TEXT	SEGMENT PARA USE32 PUBLIC 'CODE'
_TEXT	ENDS
;	COMDAT ??Hiterator@?$vector@GV?$allocator@G@std@@@std@@QBE?AV012@H@Z
_TEXT	SEGMENT PARA USE32 PUBLIC 'CODE'
_TEXT	ENDS
;	COMDAT ??Yiterator@?$vector@GV?$allocator@G@std@@@std@@QAEAAV012@H@Z
_TEXT	SEGMENT PARA USE32 PUBLIC 'CODE'
_TEXT	ENDS
;	COMDAT ?begin@?$vector@GV?$allocator@G@std@@@std@@QAE?AViterator@12@XZ
_TEXT	SEGMENT PARA USE32 PUBLIC 'CODE'
_TEXT	ENDS
;	COMDAT ??0iterator@?$vector@GV?$allocator@G@std@@@std@@QAE@PAG@Z
_TEXT	SEGMENT PARA USE32 PUBLIC 'CODE'
_TEXT	ENDS
;	COMDAT ?end@?$vector@GV?$allocator@G@std@@@std@@QAE?AViterator@12@XZ
_TEXT	SEGMENT PARA USE32 PUBLIC 'CODE'
_TEXT	ENDS
;	COMDAT ?push_back@?$vector@UtagMONREGEN@@V?$allocator@UtagMONREGEN@@@std@@@std@@QAEXABUtagMONREGEN@@@Z
_TEXT	SEGMENT PARA USE32 PUBLIC 'CODE'
_TEXT	ENDS
;	COMDAT ?capacity@?$vector@UtagMONREGEN@@V?$allocator@UtagMONREGEN@@@std@@@std@@QBEIXZ
_TEXT	SEGMENT PARA USE32 PUBLIC 'CODE'
_TEXT	ENDS
;	COMDAT ?_Ufill@?$vector@UtagMONREGEN@@V?$allocator@UtagMONREGEN@@@std@@@std@@IAEPAUtagMONREGEN@@PAU3@IABU3@@Z
_TEXT	SEGMENT PARA USE32 PUBLIC 'CODE'
_TEXT	ENDS
;	COMDAT ??$_Uninitialized_fill_n@PAUtagMONREGEN@@IU1@V?$allocator@UtagMONREGEN@@@std@@@std@@YAXPAUtagMONREGEN@@IABU1@AAV?$allocator@UtagMONREGEN@@@0@@Z
_TEXT	SEGMENT PARA USE32 PUBLIC 'CODE'
_TEXT	ENDS
;	COMDAT ?insert@?$vector@UtagMONREGEN@@V?$allocator@UtagMONREGEN@@@std@@@std@@QAE?AViterator@12@V312@ABUtagMONREGEN@@@Z
_TEXT	SEGMENT PARA USE32 PUBLIC 'CODE'
_TEXT	ENDS
;	COMDAT ??Giterator@?$vector@UtagMONREGEN@@V?$allocator@UtagMONREGEN@@@std@@@std@@QBEHABVconst_iterator@12@@Z
_TEXT	SEGMENT PARA USE32 PUBLIC 'CODE'
_TEXT	ENDS
;	COMDAT ??Gconst_iterator@?$vector@UtagMONREGEN@@V?$allocator@UtagMONREGEN@@@std@@@std@@QBEHABV012@@Z
_TEXT	SEGMENT PARA USE32 PUBLIC 'CODE'
_TEXT	ENDS
;	COMDAT ?_Insert_n@?$vector@UtagMONREGEN@@V?$allocator@UtagMONREGEN@@@std@@@std@@IAEXViterator@12@IABUtagMONREGEN@@@Z
_TEXT	SEGMENT PARA USE32 PUBLIC 'CODE'
_TEXT	ENDS
;	COMDAT ??$_Ucopy@PAUtagMONREGEN@@@?$vector@UtagMONREGEN@@V?$allocator@UtagMONREGEN@@@std@@@std@@IAEPAUtagMONREGEN@@PAU2@00@Z
_TEXT	SEGMENT PARA USE32 PUBLIC 'CODE'
_TEXT	ENDS
;	COMDAT ??$copy_backward@PAUtagMONREGEN@@PAU1@@std@@YAPAUtagMONREGEN@@PAU1@00@Z
_TEXT	SEGMENT PARA USE32 PUBLIC 'CODE'
_TEXT	ENDS
;	COMDAT ??$fill@PAUtagMONREGEN@@U1@@std@@YAXPAUtagMONREGEN@@0ABU1@@Z
_TEXT	SEGMENT PARA USE32 PUBLIC 'CODE'
_TEXT	ENDS
;	COMDAT ??Hiterator@?$vector@UtagMONREGEN@@V?$allocator@UtagMONREGEN@@@std@@@std@@QBE?AV012@H@Z
_TEXT	SEGMENT PARA USE32 PUBLIC 'CODE'
_TEXT	ENDS
;	COMDAT ??Yiterator@?$vector@UtagMONREGEN@@V?$allocator@UtagMONREGEN@@@std@@@std@@QAEAAV012@H@Z
_TEXT	SEGMENT PARA USE32 PUBLIC 'CODE'
_TEXT	ENDS
;	COMDAT ?begin@?$vector@UtagMONREGEN@@V?$allocator@UtagMONREGEN@@@std@@@std@@QAE?AViterator@12@XZ
_TEXT	SEGMENT PARA USE32 PUBLIC 'CODE'
_TEXT	ENDS
;	COMDAT ??0iterator@?$vector@UtagMONREGEN@@V?$allocator@UtagMONREGEN@@@std@@@std@@QAE@PAUtagMONREGEN@@@Z
_TEXT	SEGMENT PARA USE32 PUBLIC 'CODE'
_TEXT	ENDS
;	COMDAT ?end@?$vector@UtagMONREGEN@@V?$allocator@UtagMONREGEN@@@std@@@std@@QAE?AViterator@12@XZ
_TEXT	SEGMENT PARA USE32 PUBLIC 'CODE'
_TEXT	ENDS
;	COMDAT ?push_back@?$vector@UtagLOTTERY@@V?$allocator@UtagLOTTERY@@@std@@@std@@QAEXABUtagLOTTERY@@@Z
_TEXT	SEGMENT PARA USE32 PUBLIC 'CODE'
_TEXT	ENDS
;	COMDAT ?capacity@?$vector@UtagLOTTERY@@V?$allocator@UtagLOTTERY@@@std@@@std@@QBEIXZ
_TEXT	SEGMENT PARA USE32 PUBLIC 'CODE'
_TEXT	ENDS
;	COMDAT ?_Ufill@?$vector@UtagLOTTERY@@V?$allocator@UtagLOTTERY@@@std@@@std@@IAEPAUtagLOTTERY@@PAU3@IABU3@@Z
_TEXT	SEGMENT PARA USE32 PUBLIC 'CODE'
_TEXT	ENDS
;	COMDAT ??$_Uninitialized_fill_n@PAUtagLOTTERY@@IU1@V?$allocator@UtagLOTTERY@@@std@@@std@@YAXPAUtagLOTTERY@@IABU1@AAV?$allocator@UtagLOTTERY@@@0@@Z
_TEXT	SEGMENT PARA USE32 PUBLIC 'CODE'
_TEXT	ENDS
;	COMDAT ?insert@?$vector@UtagLOTTERY@@V?$allocator@UtagLOTTERY@@@std@@@std@@QAE?AViterator@12@V312@ABUtagLOTTERY@@@Z
_TEXT	SEGMENT PARA USE32 PUBLIC 'CODE'
_TEXT	ENDS
;	COMDAT ??Giterator@?$vector@UtagLOTTERY@@V?$allocator@UtagLOTTERY@@@std@@@std@@QBEHABVconst_iterator@12@@Z
_TEXT	SEGMENT PARA USE32 PUBLIC 'CODE'
_TEXT	ENDS
;	COMDAT ??Gconst_iterator@?$vector@UtagLOTTERY@@V?$allocator@UtagLOTTERY@@@std@@@std@@QBEHABV012@@Z
_TEXT	SEGMENT PARA USE32 PUBLIC 'CODE'
_TEXT	ENDS
;	COMDAT ?_Insert_n@?$vector@UtagLOTTERY@@V?$allocator@UtagLOTTERY@@@std@@@std@@IAEXViterator@12@IABUtagLOTTERY@@@Z
_TEXT	SEGMENT PARA USE32 PUBLIC 'CODE'
_TEXT	ENDS
;	COMDAT ??$_Ucopy@PAUtagLOTTERY@@@?$vector@UtagLOTTERY@@V?$allocator@UtagLOTTERY@@@std@@@std@@IAEPAUtagLOTTERY@@PAU2@00@Z
_TEXT	SEGMENT PARA USE32 PUBLIC 'CODE'
_TEXT	ENDS
;	COMDAT ??$copy_backward@PAUtagLOTTERY@@PAU1@@std@@YAPAUtagLOTTERY@@PAU1@00@Z
_TEXT	SEGMENT PARA USE32 PUBLIC 'CODE'
_TEXT	ENDS
;	COMDAT ??$fill@PAUtagLOTTERY@@U1@@std@@YAXPAUtagLOTTERY@@0ABU1@@Z
_TEXT	SEGMENT PARA USE32 PUBLIC 'CODE'
_TEXT	ENDS
;	COMDAT ??Hiterator@?$vector@UtagLOTTERY@@V?$allocator@UtagLOTTERY@@@std@@@std@@QBE?AV012@H@Z
_TEXT	SEGMENT PARA USE32 PUBLIC 'CODE'
_TEXT	ENDS
;	COMDAT ??Yiterator@?$vector@UtagLOTTERY@@V?$allocator@UtagLOTTERY@@@std@@@std@@QAEAAV012@H@Z
_TEXT	SEGMENT PARA USE32 PUBLIC 'CODE'
_TEXT	ENDS
;	COMDAT ?begin@?$vector@UtagLOTTERY@@V?$allocator@UtagLOTTERY@@@std@@@std@@QAE?AViterator@12@XZ
_TEXT	SEGMENT PARA USE32 PUBLIC 'CODE'
_TEXT	ENDS
;	COMDAT ??0iterator@?$vector@UtagLOTTERY@@V?$allocator@UtagLOTTERY@@@std@@@std@@QAE@PAUtagLOTTERY@@@Z
_TEXT	SEGMENT PARA USE32 PUBLIC 'CODE'
_TEXT	ENDS
;	COMDAT ?end@?$vector@UtagLOTTERY@@V?$allocator@UtagLOTTERY@@@std@@@std@@QAE?AViterator@12@XZ
_TEXT	SEGMENT PARA USE32 PUBLIC 'CODE'
_TEXT	ENDS
;	COMDAT ?tick@?1??OnCT_SERVICEMONITOR_ACK@CTLoginSvrModule@@IAEKPAVCSqlDatabase@@PAV?$map@EPAUtagTGROUP@@U?$less@E@std@@V?$allocator@U?$pair@$$CBEPAUtagTGROUP@@@std@@@3@@std@@PAVCTUser@@AAVCPacket@@@Z@4KA
_BSS	SEGMENT DWORD USE32 PUBLIC 'BSS'
_BSS	ENDS
;	COMDAT ?$S5@?1??OnCT_SERVICEMONITOR_ACK@CTLoginSvrModule@@IAEKPAVCSqlDatabase@@PAV?$map@EPAUtagTGROUP@@U?$less@E@std@@V?$allocator@U?$pair@$$CBEPAUtagTGROUP@@@std@@@3@@std@@PAVCTUser@@AAVCPacket@@@Z@4IA
_BSS	SEGMENT DWORD USE32 PUBLIC 'BSS'
_BSS	ENDS
;	COMDAT ?AtlLoadString@ATL@@YAHIPADH@Z
_TEXT	SEGMENT PARA USE32 PUBLIC 'CODE'
_TEXT	ENDS
;	COMDAT ??0?$CStringT@DV?$StrTraitATL@DV?$ChTraitsCRT@D@ATL@@@ATL@@@ATL@@QAE@XZ
_TEXT	SEGMENT PARA USE32 PUBLIC 'CODE'
_TEXT	ENDS
;	COMDAT ?GetDefaultManager@?$StrTraitATL@DV?$ChTraitsCRT@D@ATL@@@ATL@@SAPAUIAtlStringMgr@2@XZ
_TEXT	SEGMENT PARA USE32 PUBLIC 'CODE'
_TEXT	ENDS
;	COMDAT ??B?$CSimpleStringT@D$0A@@ATL@@QBEPBDXZ
_TEXT	SEGMENT PARA USE32 PUBLIC 'CODE'
_TEXT	ENDS
;	COMDAT ??1?$CStringT@DV?$StrTraitATL@DV?$ChTraitsCRT@D@ATL@@@ATL@@@ATL@@QAE@XZ
_TEXT	SEGMENT PARA USE32 PUBLIC 'CODE'
_TEXT	ENDS
;	COMDAT ??0?$CStringT@DV?$StrTraitATL@DV?$ChTraitsCRT@D@ATL@@@ATL@@@ATL@@QAE@PBD@Z
_TEXT	SEGMENT PARA USE32 PUBLIC 'CODE'
_TEXT	ENDS
;	COMDAT ?CheckImplicitLoad@?$CStringT@DV?$StrTraitATL@DV?$ChTraitsCRT@D@ATL@@@ATL@@@ATL@@AAE_NPBX@Z
_TEXT	SEGMENT PARA USE32 PUBLIC 'CODE'
_TEXT	ENDS
;	COMDAT ?LoadStringA@?$CStringT@DV?$StrTraitATL@DV?$ChTraitsCRT@D@ATL@@@ATL@@@ATL@@QAEHI@Z
_TEXT	SEGMENT PARA USE32 PUBLIC 'CODE'
_TEXT	ENDS
;	COMDAT ?FindStringResourceInstance@?$StrTraitATL@DV?$ChTraitsCRT@D@ATL@@@ATL@@SAPAUHINSTANCE__@@I@Z
_TEXT	SEGMENT PARA USE32 PUBLIC 'CODE'
_TEXT	ENDS
;	COMDAT ?AtlFindStringResourceInstance@ATL@@YAPAUHINSTANCE__@@IG@Z
_TEXT	SEGMENT PARA USE32 PUBLIC 'CODE'
_TEXT	ENDS
;	COMDAT ?AtlGetStringResourceImage@ATL@@YAPBUATLSTRINGRESOURCEIMAGE@1@PAUHINSTANCE__@@IG@Z
_TEXT	SEGMENT PARA USE32 PUBLIC 'CODE'
_TEXT	ENDS
;	COMDAT ?_AtlGetStringResourceImage@ATL@@YAPBUATLSTRINGRESOURCEIMAGE@1@PAUHINSTANCE__@@PAUHRSRC__@@I@Z
_TEXT	SEGMENT PARA USE32 PUBLIC 'CODE'
_TEXT	ENDS
;	COMDAT ?LoadStringA@?$CStringT@DV?$StrTraitATL@DV?$ChTraitsCRT@D@ATL@@@ATL@@@ATL@@QAEHPAUHINSTANCE__@@I@Z
_TEXT	SEGMENT PARA USE32 PUBLIC 'CODE'
_TEXT	ENDS
;	COMDAT ?AtlGetStringResourceImage@ATL@@YAPBUATLSTRINGRESOURCEIMAGE@1@PAUHINSTANCE__@@I@Z
_TEXT	SEGMENT PARA USE32 PUBLIC 'CODE'
_TEXT	ENDS
;	COMDAT ?GetBaseTypeLength@?$ChTraitsCRT@D@ATL@@SAHPBGH@Z
_TEXT	SEGMENT PARA USE32 PUBLIC 'CODE'
_TEXT	ENDS
;	COMDAT ?_AtlGetConversionACP@ATL@@YGIXZ
_TEXT	SEGMENT PARA USE32 PUBLIC 'CODE'
_TEXT	ENDS
;	COMDAT ?g_pfnGetThreadACP@ATL@@3P6GIXZA
_DATA	SEGMENT DWORD USE32 PUBLIC 'DATA'
_DATA	ENDS
;	COMDAT ?_AtlGetThreadACPThunk@ATL@@YGIXZ
_TEXT	SEGMENT PARA USE32 PUBLIC 'CODE'
_TEXT	ENDS
;	COMDAT ?_AtlGetThreadACPReal@ATL@@YGIXZ
_TEXT	SEGMENT PARA USE32 PUBLIC 'CODE'
_TEXT	ENDS
;	COMDAT ?_AtlGetThreadACPFake@ATL@@YGIXZ
_TEXT	SEGMENT PARA USE32 PUBLIC 'CODE'
_TEXT	ENDS
;	COMDAT ?InterlockedExchangePointer@@YGPAXPAPAXPAX@Z
_TEXT	SEGMENT PARA USE32 PUBLIC 'CODE'
_TEXT	ENDS
;	COMDAT ?ConvertToBaseType@?$ChTraitsCRT@D@ATL@@SAXPADHPBGH@Z
_TEXT	SEGMENT PARA USE32 PUBLIC 'CODE'
_TEXT	ENDS
;	COMDAT ?WordCmpI@CAtlModule@ATL@@SAHPBD0@Z
_TEXT	SEGMENT PARA USE32 PUBLIC 'CODE'
_TEXT	ENDS
;	COMDAT ?FindOneOf@CAtlModule@ATL@@SAPBDPBD0@Z
_TEXT	SEGMENT PARA USE32 PUBLIC 'CODE'
_TEXT	ENDS
;	COMDAT ?SetStringValue@CRegKey@ATL@@QAEJPBD0K@Z
_TEXT	SEGMENT PARA USE32 PUBLIC 'CODE'
_TEXT	ENDS
;	COMDAT ?DeleteValue@CRegKey@ATL@@QAEJPBD@Z
_TEXT	SEGMENT PARA USE32 PUBLIC 'CODE'
_TEXT	ENDS
;	COMDAT ??BCRegKey@ATL@@QBEPAUHKEY__@@XZ
_TEXT	SEGMENT PARA USE32 PUBLIC 'CODE'
_TEXT	ENDS
;	COMDAT ?Create@CRegKey@ATL@@QAEJPAUHKEY__@@PBDPADKKPAU_SECURITY_ATTRIBUTES@@PAK@Z
_TEXT	SEGMENT PARA USE32 PUBLIC 'CODE'
_TEXT	ENDS
;	COMDAT ?Close@CRegKey@ATL@@QAEJXZ
_TEXT	SEGMENT PARA USE32 PUBLIC 'CODE'
_TEXT	ENDS
;	COMDAT ?AtlHresultFromWin32@ATL@@YAJK@Z
_TEXT	SEGMENT PARA USE32 PUBLIC 'CODE'
_TEXT	ENDS
;	COMDAT ??_C@_05PDIKPLII@AppID?$AA@
CONST	SEGMENT DWORD USE32 PUBLIC 'CONST'
CONST	ENDS
;	COMDAT ?Open@CRegKey@ATL@@QAEJPAUHKEY__@@PBDK@Z
_TEXT	SEGMENT PARA USE32 PUBLIC 'CODE'
_TEXT	ENDS
;	COMDAT ??1CRegKey@ATL@@QAE@XZ
_TEXT	SEGMENT PARA USE32 PUBLIC 'CODE'
_TEXT	ENDS
;	COMDAT ??0CRegKey@ATL@@QAE@XZ
_TEXT	SEGMENT PARA USE32 PUBLIC 'CODE'
_TEXT	ENDS
;	COMDAT ?_pAtlModule@ATL@@3PAVCAtlModule@1@A
_DATA	SEGMENT DWORD USE32 PUBLIC 'DATA'
_DATA	ENDS
;	COMDAT ?UpdateRegistryFromResourceS@CAtlModule@ATL@@QAGJIHPAU_ATL_REGMAP_ENTRY@2@@Z
_TEXT	SEGMENT PARA USE32 PUBLIC 'CODE'
_TEXT	ENDS
;	COMDAT ??0CRegObject@ATL@@QAE@XZ
_TEXT	SEGMENT PARA USE32 PUBLIC 'CODE'
_TEXT	ENDS
;	COMDAT ??0IRegistrarBase@@QAE@XZ
_TEXT	SEGMENT PARA USE32 PUBLIC 'CODE'
_TEXT	ENDS
;	COMDAT ??0IUnknown@@QAE@XZ
_TEXT	SEGMENT PARA USE32 PUBLIC 'CODE'
_TEXT	ENDS
;	COMDAT ??_7CRegObject@ATL@@6B@
CONST	SEGMENT DWORD USE32 PUBLIC 'CONST'
CONST	ENDS
;	COMDAT ?QueryInterface@CRegObject@ATL@@UAGJABU_GUID@@PAPAX@Z
_TEXT	SEGMENT PARA USE32 PUBLIC 'CODE'
_TEXT	ENDS
;	COMDAT ?AddRef@CRegObject@ATL@@UAGKXZ
_TEXT	SEGMENT PARA USE32 PUBLIC 'CODE'
_TEXT	ENDS
;	COMDAT ?Release@CRegObject@ATL@@UAGKXZ
_TEXT	SEGMENT PARA USE32 PUBLIC 'CODE'
_TEXT	ENDS
;	COMDAT ?ClearReplacements@CRegObject@ATL@@UAGJXZ
_TEXT	SEGMENT PARA USE32 PUBLIC 'CODE'
_TEXT	ENDS
;	COMDAT ?Lock@CComFakeCriticalSection@ATL@@QAEJXZ
_TEXT	SEGMENT PARA USE32 PUBLIC 'CODE'
_TEXT	ENDS
;	COMDAT ?ClearReplacements@CExpansionVector@ATL@@QAEJXZ
_TEXT	SEGMENT PARA USE32 PUBLIC 'CODE'
_TEXT	ENDS
;	COMDAT ?GetSize@?$CSimpleMap@PADPAGVCExpansionVectorEqualHelper@ATL@@@ATL@@QBEHXZ
_TEXT	SEGMENT PARA USE32 PUBLIC 'CODE'
_TEXT	ENDS
;	COMDAT ?GetKeyAt@?$CSimpleMap@PADPAGVCExpansionVectorEqualHelper@ATL@@@ATL@@QBEAAPADH@Z
_TEXT	SEGMENT PARA USE32 PUBLIC 'CODE'
_TEXT	ENDS
;	COMDAT ?GetValueAt@?$CSimpleMap@PADPAGVCExpansionVectorEqualHelper@ATL@@@ATL@@QBEAAPAGH@Z
_TEXT	SEGMENT PARA USE32 PUBLIC 'CODE'
_TEXT	ENDS
;	COMDAT ?RemoveAll@?$CSimpleMap@PADPAGVCExpansionVectorEqualHelper@ATL@@@ATL@@QAEXXZ
_TEXT	SEGMENT PARA USE32 PUBLIC 'CODE'
_TEXT	ENDS
;	COMDAT ?Unlock@CComFakeCriticalSection@ATL@@QAEJXZ
_TEXT	SEGMENT PARA USE32 PUBLIC 'CODE'
_TEXT	ENDS
;	COMDAT ??_GCRegObject@ATL@@UAEPAXI@Z
_TEXT	SEGMENT PARA USE32 PUBLIC 'CODE'
_TEXT	ENDS
;	COMDAT ??0CExpansionVector@ATL@@QAE@XZ
_TEXT	SEGMENT PARA USE32 PUBLIC 'CODE'
_TEXT	ENDS
;	COMDAT ??0?$CSimpleMap@PADPAGVCExpansionVectorEqualHelper@ATL@@@ATL@@QAE@XZ
_TEXT	SEGMENT PARA USE32 PUBLIC 'CODE'
_TEXT	ENDS
;	COMDAT ??1?$CSimpleMap@PADPAGVCExpansionVectorEqualHelper@ATL@@@ATL@@QAE@XZ
_TEXT	SEGMENT PARA USE32 PUBLIC 'CODE'
_TEXT	ENDS
;	COMDAT ??1CExpansionVector@ATL@@QAE@XZ
_TEXT	SEGMENT PARA USE32 PUBLIC 'CODE'
_TEXT	ENDS
;	COMDAT ??1CRegObject@ATL@@UAE@XZ
_TEXT	SEGMENT PARA USE32 PUBLIC 'CODE'
_TEXT	ENDS
;	COMDAT ??0?$CAtlSafeAllocBufferManager@VCCRTAllocator@ATL@@@_ATL_SAFE_ALLOCA_IMPL@ATL@@QAE@XZ
_TEXT	SEGMENT PARA USE32 PUBLIC 'CODE'
_TEXT	ENDS
;	COMDAT ??1?$CAtlSafeAllocBufferManager@VCCRTAllocator@ATL@@@_ATL_SAFE_ALLOCA_IMPL@ATL@@QAE@XZ
_TEXT	SEGMENT PARA USE32 PUBLIC 'CODE'
_TEXT	ENDS
;	COMDAT ?Free@CCRTAllocator@ATL@@SAXPAX@Z
_TEXT	SEGMENT PARA USE32 PUBLIC 'CODE'
_TEXT	ENDS
;	COMDAT ?GetModuleInstance@CAtlBaseModule@ATL@@QAEPAUHINSTANCE__@@XZ
_TEXT	SEGMENT PARA USE32 PUBLIC 'CODE'
_TEXT	ENDS
;	COMDAT ?AtlHresultFromLastError@ATL@@YAJXZ
_TEXT	SEGMENT PARA USE32 PUBLIC 'CODE'
_TEXT	ENDS
;	COMDAT ?AtlA2WHelper@@YGPAGPAGPBDHI@Z
_TEXT	SEGMENT PARA USE32 PUBLIC 'CODE'
_TEXT	ENDS
;	COMDAT ?_AtlVerifyStackAvailable@_ATL_SAFE_ALLOCA_IMPL@ATL@@YA_NK@Z
_TEXT	SEGMENT PARA USE32 PUBLIC 'CODE'
_TEXT	ENDS
;	COMDAT ?Allocate@?$CAtlSafeAllocBufferManager@VCCRTAllocator@ATL@@@_ATL_SAFE_ALLOCA_IMPL@ATL@@QAEPAXK@Z
_TEXT	SEGMENT PARA USE32 PUBLIC 'CODE'
_TEXT	ENDS
;	COMDAT ?Allocate@CCRTAllocator@ATL@@SAPAXI@Z
_TEXT	SEGMENT PARA USE32 PUBLIC 'CODE'
_TEXT	ENDS
;	COMDAT ?GetData@CAtlSafeAllocBufferNode@?$CAtlSafeAllocBufferManager@VCCRTAllocator@ATL@@@_ATL_SAFE_ALLOCA_IMPL@ATL@@QAEPAXXZ
_TEXT	SEGMENT PARA USE32 PUBLIC 'CODE'
_TEXT	ENDS
;	COMDAT ?EscapeSingleQuote@CAtlModule@ATL@@SAXPAGPBG@Z
_TEXT	SEGMENT PARA USE32 PUBLIC 'CODE'
_TEXT	ENDS
;	COMDAT ?ocscpy@@YAPAGPAGPBG@Z
_TEXT	SEGMENT PARA USE32 PUBLIC 'CODE'
_TEXT	ENDS
;	COMDAT ?ocslen@@YAHPBG@Z
_TEXT	SEGMENT PARA USE32 PUBLIC 'CODE'
_TEXT	ENDS
;	COMDAT ??_C@_1O@MNLDABAF@?$AAM?$AAo?$AAd?$AAu?$AAl?$AAe?$AA?$AA@
CONST	SEGMENT DWORD USE32 PUBLIC 'CONST'
CONST	ENDS
;	COMDAT ?AddReplacement@CRegObject@ATL@@UAGJPBG0@Z
_TEXT	SEGMENT PARA USE32 PUBLIC 'CODE'
_TEXT	ENDS
;	COMDAT ?AtlW2AHelper@@YGPADPADPBGHI@Z
_TEXT	SEGMENT PARA USE32 PUBLIC 'CODE'
_TEXT	ENDS
;	COMDAT ?Add@CExpansionVector@ATL@@QAEHPBDPBG@Z
_TEXT	SEGMENT PARA USE32 PUBLIC 'CODE'
_TEXT	ENDS
;	COMDAT ?Add@?$CSimpleMap@PADPAGVCExpansionVectorEqualHelper@ATL@@@ATL@@QAEHABQADABQAG@Z
_TEXT	SEGMENT PARA USE32 PUBLIC 'CODE'
_TEXT	ENDS
;	COMDAT ?InternalSetAtIndex@?$CSimpleMap@PADPAGVCExpansionVectorEqualHelper@ATL@@@ATL@@QAEXHABQADABQAG@Z
_TEXT	SEGMENT PARA USE32 PUBLIC 'CODE'
_TEXT	ENDS
;	COMDAT ??$?2PAD@?$Wrapper@PAD@?$CSimpleMap@PADPAGVCExpansionVectorEqualHelper@ATL@@@ATL@@SAPAXIPAPAD@Z
_TEXT	SEGMENT PARA USE32 PUBLIC 'CODE'
_TEXT	ENDS
;	COMDAT ??$?3PAD@?$Wrapper@PAD@?$CSimpleMap@PADPAGVCExpansionVectorEqualHelper@ATL@@@ATL@@SAXPAXPAPAD@Z
_TEXT	SEGMENT PARA USE32 PUBLIC 'CODE'
_TEXT	ENDS
;	COMDAT ??0?$Wrapper@PAD@?$CSimpleMap@PADPAGVCExpansionVectorEqualHelper@ATL@@@ATL@@QAE@ABQAD@Z
_TEXT	SEGMENT PARA USE32 PUBLIC 'CODE'
_TEXT	ENDS
;	COMDAT ??$?2PAG@?$Wrapper@PAG@?$CSimpleMap@PADPAGVCExpansionVectorEqualHelper@ATL@@@ATL@@SAPAXIPAPAG@Z
_TEXT	SEGMENT PARA USE32 PUBLIC 'CODE'
_TEXT	ENDS
;	COMDAT ??$?3PAG@?$Wrapper@PAG@?$CSimpleMap@PADPAGVCExpansionVectorEqualHelper@ATL@@@ATL@@SAXPAXPAPAG@Z
_TEXT	SEGMENT PARA USE32 PUBLIC 'CODE'
_TEXT	ENDS
;	COMDAT ??0?$Wrapper@PAG@?$CSimpleMap@PADPAGVCExpansionVectorEqualHelper@ATL@@@ATL@@QAE@ABQAG@Z
_TEXT	SEGMENT PARA USE32 PUBLIC 'CODE'
_TEXT	ENDS
;	COMDAT ??_C@_1BG@JBACFMF@?$AAM?$AAo?$AAd?$AAu?$AAl?$AAe?$AA_?$AAR?$AAa?$AAw?$AA?$AA@
CONST	SEGMENT DWORD USE32 PUBLIC 'CONST'
CONST	ENDS
;	COMDAT ??_C@_1BC@KAILKFFG@?$AAR?$AAE?$AAG?$AAI?$AAS?$AAT?$AAR?$AAY?$AA?$AA@
CONST	SEGMENT DWORD USE32 PUBLIC 'CONST'
CONST	ENDS
;	COMDAT ?ResourceRegister@CRegObject@ATL@@QAGJPBGI0@Z
_TEXT	SEGMENT PARA USE32 PUBLIC 'CODE'
_TEXT	ENDS
;	COMDAT ?RegisterFromResource@CRegObject@ATL@@IAEJPBGPBD1H@Z
_TEXT	SEGMENT PARA USE32 PUBLIC 'CODE'
_TEXT	ENDS
;	COMDAT ??0CRegParser@ATL@@QAE@PAVCRegObject@1@@Z
_TEXT	SEGMENT PARA USE32 PUBLIC 'CODE'
_TEXT	ENDS
;	COMDAT ??0?$CTempBuffer@D$0EAA@VCCRTAllocator@ATL@@@ATL@@QAE@XZ
_TEXT	SEGMENT PARA USE32 PUBLIC 'CODE'
_TEXT	ENDS
;	COMDAT ??1?$CTempBuffer@D$0EAA@VCCRTAllocator@ATL@@@ATL@@QAE@XZ
_TEXT	SEGMENT PARA USE32 PUBLIC 'CODE'
_TEXT	ENDS
;	COMDAT ?FreeHeap@?$CTempBuffer@D$0EAA@VCCRTAllocator@ATL@@@ATL@@AAEXXZ
_TEXT	SEGMENT PARA USE32 PUBLIC 'CODE'
_TEXT	ENDS
;	COMDAT ?Allocate@?$CTempBuffer@D$0EAA@VCCRTAllocator@ATL@@@ATL@@QAEPADI@Z
_TEXT	SEGMENT PARA USE32 PUBLIC 'CODE'
_TEXT	ENDS
;	COMDAT ?AllocateBytes@?$CTempBuffer@D$0EAA@VCCRTAllocator@ATL@@@ATL@@QAEPADI@Z
_TEXT	SEGMENT PARA USE32 PUBLIC 'CODE'
_TEXT	ENDS
;	COMDAT ?AllocateHeap@?$CTempBuffer@D$0EAA@VCCRTAllocator@ATL@@@ATL@@AAEXI@Z
_TEXT	SEGMENT PARA USE32 PUBLIC 'CODE'
_TEXT	ENDS
;	COMDAT ?RegisterBuffer@CRegParser@ATL@@QAEJPADH@Z
_TEXT	SEGMENT PARA USE32 PUBLIC 'CODE'
_TEXT	ENDS
;	COMDAT ?PreProcessBuffer@CRegParser@ATL@@QAEJPADPAPAD@Z
_TEXT	SEGMENT PARA USE32 PUBLIC 'CODE'
_TEXT	ENDS
;	COMDAT ??0CParseBuffer@CRegParser@ATL@@QAE@H@Z
_TEXT	SEGMENT PARA USE32 PUBLIC 'CODE'
_TEXT	ENDS
;	COMDAT ??1CParseBuffer@CRegParser@ATL@@QAE@XZ
_TEXT	SEGMENT PARA USE32 PUBLIC 'CODE'
_TEXT	ENDS
;	COMDAT ?StrChrA@CRegParser@ATL@@KAPADPADD@Z
_TEXT	SEGMENT PARA USE32 PUBLIC 'CODE'
_TEXT	ENDS
;	COMDAT ?StrFromMap@CRegObject@ATL@@QAEPBGPAD@Z
_TEXT	SEGMENT PARA USE32 PUBLIC 'CODE'
_TEXT	ENDS
;	COMDAT ?Lookup@?$CSimpleMap@PADPAGVCExpansionVectorEqualHelper@ATL@@@ATL@@QBEPAGABQAD@Z
_TEXT	SEGMENT PARA USE32 PUBLIC 'CODE'
_TEXT	ENDS
;	COMDAT ?FindKey@?$CSimpleMap@PADPAGVCExpansionVectorEqualHelper@ATL@@@ATL@@QBEHABQAD@Z
_TEXT	SEGMENT PARA USE32 PUBLIC 'CODE'
_TEXT	ENDS
;	COMDAT ?IsEqualKey@CExpansionVectorEqualHelper@ATL@@SA_NQAD0@Z
_TEXT	SEGMENT PARA USE32 PUBLIC 'CODE'
_TEXT	ENDS
;	COMDAT ?AddString@CParseBuffer@CRegParser@ATL@@QAEHPBG@Z
_TEXT	SEGMENT PARA USE32 PUBLIC 'CODE'
_TEXT	ENDS
;	COMDAT ?Append@CParseBuffer@CRegParser@ATL@@QAEHPBDH@Z
_TEXT	SEGMENT PARA USE32 PUBLIC 'CODE'
_TEXT	ENDS
;	COMDAT ?AddChar@CParseBuffer@CRegParser@ATL@@QAEHPBD@Z
_TEXT	SEGMENT PARA USE32 PUBLIC 'CODE'
_TEXT	ENDS
;	COMDAT ?Detach@CParseBuffer@CRegParser@ATL@@QAEPADXZ
_TEXT	SEGMENT PARA USE32 PUBLIC 'CODE'
_TEXT	ENDS
;	COMDAT ?HKeyFromString@CRegParser@ATL@@KAPAUHKEY__@@PAD@Z
_TEXT	SEGMENT PARA USE32 PUBLIC 'CODE'
_TEXT	ENDS
;	COMDAT ??_C@_04OHBKMIBJ@HKCR?$AA@
CONST	SEGMENT DWORD USE32 PUBLIC 'CONST'
CONST	ENDS
;	COMDAT ??_C@_04KIFLFONO@HKCU?$AA@
CONST	SEGMENT DWORD USE32 PUBLIC 'CONST'
CONST	ENDS
;	COMDAT ??_C@_04CBBMIBLK@HKLM?$AA@
CONST	SEGMENT DWORD USE32 PUBLIC 'CONST'
CONST	ENDS
;	COMDAT ??_C@_03DLBIJLAB@HKU?$AA@
CONST	SEGMENT DWORD USE32 PUBLIC 'CONST'
CONST	ENDS
;	COMDAT ??_C@_04OFOCGAOH@HKPD?$AA@
CONST	SEGMENT DWORD USE32 PUBLIC 'CONST'
CONST	ENDS
;	COMDAT ??_C@_04POMNGLEL@HKDD?$AA@
CONST	SEGMENT DWORD USE32 PUBLIC 'CONST'
CONST	ENDS
;	COMDAT ??_C@_04LEMDOLAJ@HKCC?$AA@
CONST	SEGMENT DWORD USE32 PUBLIC 'CONST'
CONST	ENDS
;	COMDAT ??_C@_0BC@JBJOLKMF@HKEY_CLASSES_ROOT?$AA@
CONST	SEGMENT DWORD USE32 PUBLIC 'CONST'
CONST	ENDS
;	COMDAT ??_C@_0BC@GMMMKLBI@HKEY_CURRENT_USER?$AA@
CONST	SEGMENT DWORD USE32 PUBLIC 'CONST'
CONST	ENDS
;	COMDAT ??_C@_0BD@GIIFIKDM@HKEY_LOCAL_MACHINE?$AA@
CONST	SEGMENT DWORD USE32 PUBLIC 'CONST'
CONST	ENDS
;	COMDAT ??_C@_0L@OEMMANAM@HKEY_USERS?$AA@
CONST	SEGMENT DWORD USE32 PUBLIC 'CONST'
CONST	ENDS
;	COMDAT ??_C@_0BG@IDBEHNDO@HKEY_PERFORMANCE_DATA?$AA@
CONST	SEGMENT DWORD USE32 PUBLIC 'CONST'
CONST	ENDS
;	COMDAT ??_C@_0O@MJDLIIGK@HKEY_DYN_DATA?$AA@
CONST	SEGMENT DWORD USE32 PUBLIC 'CONST'
CONST	ENDS
;	COMDAT ??_C@_0BE@NLNNHLLF@HKEY_CURRENT_CONFIG?$AA@
CONST	SEGMENT DWORD USE32 PUBLIC 'CONST'
CONST	ENDS
;	COMDAT ?map@?2??HKeyFromString@CRegParser@ATL@@KAPAUHKEY__@@PAD@Z@4QBUkeymap@23@B
CONST	SEGMENT DWORD USE32 PUBLIC 'CONST'
CONST	ENDS
;	COMDAT ?NextToken@CRegParser@ATL@@IAEJPAD@Z
_TEXT	SEGMENT PARA USE32 PUBLIC 'CODE'
_TEXT	ENDS
;	COMDAT ?EndOfVar@CRegParser@ATL@@IAEHXZ
_TEXT	SEGMENT PARA USE32 PUBLIC 'CODE'
_TEXT	ENDS
;	COMDAT ?IsSpace@CRegParser@ATL@@IAEHD@Z
_TEXT	SEGMENT PARA USE32 PUBLIC 'CODE'
_TEXT	ENDS
;	COMDAT ?GenerateError@CRegParser@ATL@@IAEJI@Z
_TEXT	SEGMENT PARA USE32 PUBLIC 'CODE'
_TEXT	ENDS
;	COMDAT ?RegisterSubkeys@CRegParser@ATL@@IAEJPADPAUHKEY__@@HH@Z
_TEXT	SEGMENT PARA USE32 PUBLIC 'CODE'
_TEXT	ENDS
;	COMDAT ??_C@_06JBKGCNBB@Delete?$AA@
CONST	SEGMENT DWORD USE32 PUBLIC 'CONST'
CONST	ENDS
;	COMDAT ??_C@_0M@DBGDLGLL@ForceRemove?$AA@
CONST	SEGMENT DWORD USE32 PUBLIC 'CONST'
CONST	ENDS
;	COMDAT ??_C@_08KAAPDIAN@NoRemove?$AA@
CONST	SEGMENT DWORD USE32 PUBLIC 'CONST'
CONST	ENDS
;	COMDAT ??_C@_03LAIAPFCB@Val?$AA@
CONST	SEGMENT DWORD USE32 PUBLIC 'CONST'
CONST	ENDS
;	COMDAT ?AddValue@CRegParser@ATL@@IAEJAAVCRegKey@2@PBDPAD@Z
_TEXT	SEGMENT PARA USE32 PUBLIC 'CODE'
_TEXT	ENDS
;	COMDAT ?VTFromRegType@CRegParser@ATL@@KAHPBDAAG@Z
_TEXT	SEGMENT PARA USE32 PUBLIC 'CODE'
_TEXT	ENDS
;	COMDAT ??_C@_01CPLAODJH@S?$AA@
CONST	SEGMENT DWORD USE32 PUBLIC 'CONST'
CONST	ENDS
;	COMDAT ??_C@_01PLPBNMEI@M?$AA@
CONST	SEGMENT DWORD USE32 PUBLIC 'CONST'
CONST	ENDS
;	COMDAT ??_C@_01CKDDGHAB@D?$AA@
CONST	SEGMENT DWORD USE32 PUBLIC 'CONST'
CONST	ENDS
;	COMDAT ??_C@_01HMGJMAIH@B?$AA@
CONST	SEGMENT DWORD USE32 PUBLIC 'CONST'
CONST	ENDS
;	COMDAT ?map@?2??VTFromRegType@CRegParser@ATL@@KAHPBDAAG@Z@4QBUtypemap@23@B
_DATA	SEGMENT DWORD USE32 PUBLIC 'DATA'
_DATA	ENDS
;	COMDAT ?$S4@?2??VTFromRegType@CRegParser@ATL@@KAHPBDAAG@Z@4IA
_BSS	SEGMENT DWORD USE32 PUBLIC 'BSS'
_BSS	ENDS
;	COMDAT ??0?$CTempBuffer@D$0BAA@VCCRTAllocator@ATL@@@ATL@@QAE@XZ
_TEXT	SEGMENT PARA USE32 PUBLIC 'CODE'
_TEXT	ENDS
;	COMDAT ??1?$CTempBuffer@D$0BAA@VCCRTAllocator@ATL@@@ATL@@QAE@XZ
_TEXT	SEGMENT PARA USE32 PUBLIC 'CODE'
_TEXT	ENDS
;	COMDAT ?FreeHeap@?$CTempBuffer@D$0BAA@VCCRTAllocator@ATL@@@ATL@@AAEXXZ
_TEXT	SEGMENT PARA USE32 PUBLIC 'CODE'
_TEXT	ENDS
;	COMDAT ?Allocate@?$CTempBuffer@D$0BAA@VCCRTAllocator@ATL@@@ATL@@QAEPADI@Z
_TEXT	SEGMENT PARA USE32 PUBLIC 'CODE'
_TEXT	ENDS
;	COMDAT ?AllocateBytes@?$CTempBuffer@D$0BAA@VCCRTAllocator@ATL@@@ATL@@QAEPADI@Z
_TEXT	SEGMENT PARA USE32 PUBLIC 'CODE'
_TEXT	ENDS
;	COMDAT ?AllocateHeap@?$CTempBuffer@D$0BAA@VCCRTAllocator@ATL@@@ATL@@AAEXI@Z
_TEXT	SEGMENT PARA USE32 PUBLIC 'CODE'
_TEXT	ENDS
;	COMDAT ?SetMultiStringValue@CRegKey@ATL@@QAEJPBD0@Z
_TEXT	SEGMENT PARA USE32 PUBLIC 'CODE'
_TEXT	ENDS
;	COMDAT ??B?$CTempBuffer@D$0BAA@VCCRTAllocator@ATL@@@ATL@@QBEPADXZ
_TEXT	SEGMENT PARA USE32 PUBLIC 'CODE'
_TEXT	ENDS
;	COMDAT ?SetDWORDValue@CRegKey@ATL@@QAEJPBDK@Z
_TEXT	SEGMENT PARA USE32 PUBLIC 'CODE'
_TEXT	ENDS
;	COMDAT ??0?$CTempBuffer@E$0BAA@VCCRTAllocator@ATL@@@ATL@@QAE@XZ
_TEXT	SEGMENT PARA USE32 PUBLIC 'CODE'
_TEXT	ENDS
;	COMDAT ??1?$CTempBuffer@E$0BAA@VCCRTAllocator@ATL@@@ATL@@QAE@XZ
_TEXT	SEGMENT PARA USE32 PUBLIC 'CODE'
_TEXT	ENDS
;	COMDAT ?FreeHeap@?$CTempBuffer@E$0BAA@VCCRTAllocator@ATL@@@ATL@@AAEXXZ
_TEXT	SEGMENT PARA USE32 PUBLIC 'CODE'
_TEXT	ENDS
;	COMDAT ?Allocate@?$CTempBuffer@E$0BAA@VCCRTAllocator@ATL@@@ATL@@QAEPAEI@Z
_TEXT	SEGMENT PARA USE32 PUBLIC 'CODE'
_TEXT	ENDS
;	COMDAT ?AllocateBytes@?$CTempBuffer@E$0BAA@VCCRTAllocator@ATL@@@ATL@@QAEPAEI@Z
_TEXT	SEGMENT PARA USE32 PUBLIC 'CODE'
_TEXT	ENDS
;	COMDAT ?AllocateHeap@?$CTempBuffer@E$0BAA@VCCRTAllocator@ATL@@@ATL@@AAEXI@Z
_TEXT	SEGMENT PARA USE32 PUBLIC 'CODE'
_TEXT	ENDS
;	COMDAT ?ChToByte@CRegParser@ATL@@KAED@Z
_TEXT	SEGMENT PARA USE32 PUBLIC 'CODE'
_TEXT	ENDS
;	COMDAT ??B?$CTempBuffer@E$0BAA@VCCRTAllocator@ATL@@@ATL@@QBEPAEXZ
_TEXT	SEGMENT PARA USE32 PUBLIC 'CODE'
_TEXT	ENDS
;	COMDAT ?SkipAssignment@CRegParser@ATL@@IAEJPAD@Z
_TEXT	SEGMENT PARA USE32 PUBLIC 'CODE'
_TEXT	ENDS
;	COMDAT ?HasSubKeys@CRegParser@ATL@@IAEHPAUHKEY__@@@Z
_TEXT	SEGMENT PARA USE32 PUBLIC 'CODE'
_TEXT	ENDS
;	COMDAT ?CanForceRemoveKey@CRegParser@ATL@@IAEHPBD@Z
_TEXT	SEGMENT PARA USE32 PUBLIC 'CODE'
_TEXT	ENDS
;	COMDAT ?rgszNeverDelete@CRegParser@ATL@@1QBQBDB
CONST	SEGMENT DWORD USE32 PUBLIC 'CONST'
CONST	ENDS
;	COMDAT ??_C@_05GIBEAPNE@CLSID?$AA@
CONST	SEGMENT DWORD USE32 PUBLIC 'CONST'
CONST	ENDS
;	COMDAT ??_C@_0BF@HDDNNDFH@Component?5Categories?$AA@
CONST	SEGMENT DWORD USE32 PUBLIC 'CONST'
CONST	ENDS
;	COMDAT ??_C@_08PICKODJL@FileType?$AA@
CONST	SEGMENT DWORD USE32 PUBLIC 'CONST'
CONST	ENDS
;	COMDAT ??_C@_09JKPGEJCH@Interface?$AA@
CONST	SEGMENT DWORD USE32 PUBLIC 'CONST'
CONST	ENDS
;	COMDAT ??_C@_08PPIOJEA@Hardware?$AA@
CONST	SEGMENT DWORD USE32 PUBLIC 'CONST'
CONST	ENDS
;	COMDAT ??_C@_04IHBFOLAC@Mime?$AA@
CONST	SEGMENT DWORD USE32 PUBLIC 'CONST'
CONST	ENDS
;	COMDAT ??_C@_03DDIMFGBA@SAM?$AA@
CONST	SEGMENT DWORD USE32 PUBLIC 'CONST'
CONST	ENDS
;	COMDAT ??_C@_08LOPHEHKG@SECURITY?$AA@
CONST	SEGMENT DWORD USE32 PUBLIC 'CONST'
CONST	ENDS
;	COMDAT ??_C@_06FDHFNJBJ@SYSTEM?$AA@
CONST	SEGMENT DWORD USE32 PUBLIC 'CONST'
CONST	ENDS
;	COMDAT ??_C@_08KEKAJNJI@Software?$AA@
CONST	SEGMENT DWORD USE32 PUBLIC 'CONST'
CONST	ENDS
;	COMDAT ??_C@_07KJLOKDKB@TypeLib?$AA@
CONST	SEGMENT DWORD USE32 PUBLIC 'CONST'
CONST	ENDS
;	COMDAT ?RecurseDeleteKey@CRegKey@ATL@@QAEJPBD@Z
_TEXT	SEGMENT PARA USE32 PUBLIC 'CODE'
_TEXT	ENDS
;	COMDAT ?Attach@CRegKey@ATL@@QAEXPAUHKEY__@@@Z
_TEXT	SEGMENT PARA USE32 PUBLIC 'CODE'
_TEXT	ENDS
;	COMDAT ?DeleteSubKey@CRegKey@ATL@@QAEJPBD@Z
_TEXT	SEGMENT PARA USE32 PUBLIC 'CODE'
_TEXT	ENDS
;	COMDAT ?Detach@CRegKey@ATL@@QAEPAUHKEY__@@XZ
_TEXT	SEGMENT PARA USE32 PUBLIC 'CODE'
_TEXT	ENDS
;	COMDAT ?SkipWhiteSpace@CRegParser@ATL@@IAEXXZ
_TEXT	SEGMENT PARA USE32 PUBLIC 'CODE'
_TEXT	ENDS
;	COMDAT ??B?$CTempBuffer@D$0EAA@VCCRTAllocator@ATL@@@ATL@@QBEPADXZ
_TEXT	SEGMENT PARA USE32 PUBLIC 'CODE'
_TEXT	ENDS
;	COMDAT ?ResourceUnregister@CRegObject@ATL@@QAGJPBGI0@Z
_TEXT	SEGMENT PARA USE32 PUBLIC 'CODE'
_TEXT	ENDS
;	COMDAT ??_C@_1M@PPPPCDEP@?$AAA?$AAP?$AAP?$AAI?$AAD?$AA?$AA@
CONST	SEGMENT DWORD USE32 PUBLIC 'CONST'
CONST	ENDS
;	COMDAT ?m_libid@CAtlModule@ATL@@2U_GUID@@A
_DATA	SEGMENT DWORD USE32 PUBLIC 'DATA'
_DATA	ENDS
sxdata	SEGMENT DWORD USE32 'SXDATA'
sxdata	ENDS
FLAT	GROUP _DATA, CONST, _BSS
	ASSUME	CS: FLAT, DS: FLAT, SS: FLAT
endif

INCLUDELIB LIBCMT
INCLUDELIB OLDNAMES

PUBLIC	?rgszNeverDelete@CRegParser@ATL@@1QBQBDB	; ATL::CRegParser::rgszNeverDelete
PUBLIC	?g_pfnGetThreadACP@ATL@@3P6GIXZA		; ATL::g_pfnGetThreadACP
PUBLIC	?_AtlGetThreadACPThunk@ATL@@YGIXZ		; ATL::_AtlGetThreadACPThunk
PUBLIC	??_C@_0BF@HDDNNDFH@Component?5Categories?$AA@	; `string'
PUBLIC	??_C@_08PICKODJL@FileType?$AA@			; `string'
PUBLIC	??_C@_09JKPGEJCH@Interface?$AA@			; `string'
PUBLIC	??_C@_08PPIOJEA@Hardware?$AA@			; `string'
PUBLIC	??_C@_04IHBFOLAC@Mime?$AA@			; `string'
PUBLIC	??_C@_03DDIMFGBA@SAM?$AA@			; `string'
PUBLIC	??_C@_08LOPHEHKG@SECURITY?$AA@			; `string'
PUBLIC	??_C@_06FDHFNJBJ@SYSTEM?$AA@			; `string'
PUBLIC	??_C@_08KEKAJNJI@Software?$AA@			; `string'
PUBLIC	??_C@_07KJLOKDKB@TypeLib?$AA@			; `string'
PUBLIC	?_pAtlModule@ATL@@3PAVCAtlModule@1@A		; ATL::_pAtlModule
PUBLIC	?m_libid@CAtlModule@ATL@@2U_GUID@@A		; ATL::CAtlModule::m_libid
PUBLIC	_CLSID_StdGlobalInterfaceTable
PUBLIC	??_C@_05GIBEAPNE@CLSID?$AA@			; `string'
PUBLIC	??_C@_05PDIKPLII@AppID?$AA@			; `string'
PUBLIC	??_C@_01CPLAODJH@S?$AA@				; `string'
PUBLIC	??_C@_01PLPBNMEI@M?$AA@				; `string'
PUBLIC	??_C@_01CKDDGHAB@D?$AA@				; `string'
PUBLIC	??_C@_01HMGJMAIH@B?$AA@				; `string'
PUBLIC	??_C@_03LAIAPFCB@Val?$AA@			; `string'
PUBLIC	??_C@_0M@DBGDLGLL@ForceRemove?$AA@		; `string'
PUBLIC	??_C@_08KAAPDIAN@NoRemove?$AA@			; `string'
PUBLIC	??_C@_06JBKGCNBB@Delete?$AA@			; `string'
PUBLIC	?_pPerfRegFunc@ATL@@3P6AJPAUHINSTANCE__@@@ZA	; ATL::_pPerfRegFunc
PUBLIC	?_pPerfUnRegFunc@ATL@@3P6AJXZA			; ATL::_pPerfUnRegFunc
;	COMDAT ?_pAtlModule@ATL@@3PAVCAtlModule@1@A
_BSS	SEGMENT
?_pAtlModule@ATL@@3PAVCAtlModule@1@A DD 01H DUP (?)	; ATL::_pAtlModule
_BSS	ENDS
;	COMDAT ?m_libid@CAtlModule@ATL@@2U_GUID@@A
_BSS	SEGMENT
?m_libid@CAtlModule@ATL@@2U_GUID@@A DB 010H DUP (?)	; ATL::CAtlModule::m_libid
_BSS	ENDS
;	COMDAT ?_pPerfRegFunc@ATL@@3P6AJPAUHINSTANCE__@@@ZA
_BSS	SEGMENT
?_pPerfRegFunc@ATL@@3P6AJPAUHINSTANCE__@@@ZA DD 01H DUP (?) ; ATL::_pPerfRegFunc
_BSS	ENDS
;	COMDAT ?_pPerfUnRegFunc@ATL@@3P6AJXZA
_BSS	SEGMENT
?_pPerfUnRegFunc@ATL@@3P6AJXZA DD 01H DUP (?)		; ATL::_pPerfUnRegFunc
_BSS	ENDS
;	COMDAT ?g_pfnGetThreadACP@ATL@@3P6GIXZA
_DATA	SEGMENT
?g_pfnGetThreadACP@ATL@@3P6GIXZA DD FLAT:?_AtlGetThreadACPThunk@ATL@@YGIXZ ; ATL::g_pfnGetThreadACP
_DATA	ENDS
;	COMDAT _CLSID_StdGlobalInterfaceTable
CONST	SEGMENT
_CLSID_StdGlobalInterfaceTable DD 0323H
	DW	00H
	DW	00H
	DB	0c0H
	DB	00H
	DB	00H
	DB	00H
	DB	00H
	DB	00H
	DB	00H
	DB	046H
CONST	ENDS
;	COMDAT ??_C@_01CPLAODJH@S?$AA@
CONST	SEGMENT
??_C@_01CPLAODJH@S?$AA@ DB 'S', 00H			; `string'
CONST	ENDS
CONST	SEGMENT
_szStringVal DD	FLAT:??_C@_01CPLAODJH@S?$AA@
CONST	ENDS
;	COMDAT ??_C@_01PLPBNMEI@M?$AA@
CONST	SEGMENT
??_C@_01PLPBNMEI@M?$AA@ DB 'M', 00H			; `string'
CONST	ENDS
CONST	SEGMENT
_multiszStringVal DD FLAT:??_C@_01PLPBNMEI@M?$AA@
CONST	ENDS
;	COMDAT ??_C@_01CKDDGHAB@D?$AA@
CONST	SEGMENT
??_C@_01CKDDGHAB@D?$AA@ DB 'D', 00H			; `string'
CONST	ENDS
CONST	SEGMENT
_szDwordVal DD	FLAT:??_C@_01CKDDGHAB@D?$AA@
CONST	ENDS
;	COMDAT ??_C@_01HMGJMAIH@B?$AA@
CONST	SEGMENT
??_C@_01HMGJMAIH@B?$AA@ DB 'B', 00H			; `string'
CONST	ENDS
CONST	SEGMENT
_szBinaryVal DD	FLAT:??_C@_01HMGJMAIH@B?$AA@
CONST	ENDS
;	COMDAT ??_C@_03LAIAPFCB@Val?$AA@
CONST	SEGMENT
??_C@_03LAIAPFCB@Val?$AA@ DB 'Val', 00H			; `string'
CONST	ENDS
CONST	SEGMENT
_szValToken DD	FLAT:??_C@_03LAIAPFCB@Val?$AA@
CONST	ENDS
;	COMDAT ??_C@_0M@DBGDLGLL@ForceRemove?$AA@
CONST	SEGMENT
??_C@_0M@DBGDLGLL@ForceRemove?$AA@ DB 'ForceRemove', 00H ; `string'
CONST	ENDS
CONST	SEGMENT
_szForceRemove DD FLAT:??_C@_0M@DBGDLGLL@ForceRemove?$AA@
CONST	ENDS
;	COMDAT ??_C@_08KAAPDIAN@NoRemove?$AA@
CONST	SEGMENT
??_C@_08KAAPDIAN@NoRemove?$AA@ DB 'NoRemove', 00H	; `string'
CONST	ENDS
CONST	SEGMENT
_szNoRemove DD	FLAT:??_C@_08KAAPDIAN@NoRemove?$AA@
CONST	ENDS
;	COMDAT ??_C@_06JBKGCNBB@Delete?$AA@
CONST	SEGMENT
??_C@_06JBKGCNBB@Delete?$AA@ DB 'Delete', 00H		; `string'
CONST	ENDS
CONST	SEGMENT
_szDelete DD	FLAT:??_C@_06JBKGCNBB@Delete?$AA@
CONST	ENDS
;	COMDAT ??_C@_05PDIKPLII@AppID?$AA@
CONST	SEGMENT
??_C@_05PDIKPLII@AppID?$AA@ DB 'AppID', 00H		; `string'
CONST	ENDS
;	COMDAT ??_C@_05GIBEAPNE@CLSID?$AA@
CONST	SEGMENT
??_C@_05GIBEAPNE@CLSID?$AA@ DB 'CLSID', 00H		; `string'
CONST	ENDS
;	COMDAT ??_C@_0BF@HDDNNDFH@Component?5Categories?$AA@
CONST	SEGMENT
??_C@_0BF@HDDNNDFH@Component?5Categories?$AA@ DB 'Component Categories', 00H ; `string'
CONST	ENDS
;	COMDAT ??_C@_08PICKODJL@FileType?$AA@
CONST	SEGMENT
??_C@_08PICKODJL@FileType?$AA@ DB 'FileType', 00H	; `string'
CONST	ENDS
;	COMDAT ??_C@_09JKPGEJCH@Interface?$AA@
CONST	SEGMENT
??_C@_09JKPGEJCH@Interface?$AA@ DB 'Interface', 00H	; `string'
CONST	ENDS
;	COMDAT ??_C@_08PPIOJEA@Hardware?$AA@
CONST	SEGMENT
??_C@_08PPIOJEA@Hardware?$AA@ DB 'Hardware', 00H	; `string'
CONST	ENDS
;	COMDAT ??_C@_04IHBFOLAC@Mime?$AA@
CONST	SEGMENT
??_C@_04IHBFOLAC@Mime?$AA@ DB 'Mime', 00H		; `string'
CONST	ENDS
;	COMDAT ??_C@_03DDIMFGBA@SAM?$AA@
CONST	SEGMENT
??_C@_03DDIMFGBA@SAM?$AA@ DB 'SAM', 00H			; `string'
CONST	ENDS
;	COMDAT ??_C@_08LOPHEHKG@SECURITY?$AA@
CONST	SEGMENT
??_C@_08LOPHEHKG@SECURITY?$AA@ DB 'SECURITY', 00H	; `string'
CONST	ENDS
;	COMDAT ??_C@_06FDHFNJBJ@SYSTEM?$AA@
CONST	SEGMENT
??_C@_06FDHFNJBJ@SYSTEM?$AA@ DB 'SYSTEM', 00H		; `string'
CONST	ENDS
;	COMDAT ??_C@_08KEKAJNJI@Software?$AA@
CONST	SEGMENT
??_C@_08KEKAJNJI@Software?$AA@ DB 'Software', 00H	; `string'
CONST	ENDS
;	COMDAT ??_C@_07KJLOKDKB@TypeLib?$AA@
CONST	SEGMENT
??_C@_07KJLOKDKB@TypeLib?$AA@ DB 'TypeLib', 00H		; `string'
CONST	ENDS
;	COMDAT ?rgszNeverDelete@CRegParser@ATL@@1QBQBDB
CONST	SEGMENT
?rgszNeverDelete@CRegParser@ATL@@1QBQBDB DD FLAT:??_C@_05PDIKPLII@AppID?$AA@ ; ATL::CRegParser::rgszNeverDelete
	DD	FLAT:??_C@_05GIBEAPNE@CLSID?$AA@
	DD	FLAT:??_C@_0BF@HDDNNDFH@Component?5Categories?$AA@
	DD	FLAT:??_C@_08PICKODJL@FileType?$AA@
	DD	FLAT:??_C@_09JKPGEJCH@Interface?$AA@
	DD	FLAT:??_C@_08PPIOJEA@Hardware?$AA@
	DD	FLAT:??_C@_04IHBFOLAC@Mime?$AA@
	DD	FLAT:??_C@_03DDIMFGBA@SAM?$AA@
	DD	FLAT:??_C@_08LOPHEHKG@SECURITY?$AA@
	DD	FLAT:??_C@_06FDHFNJBJ@SYSTEM?$AA@
	DD	FLAT:??_C@_08KEKAJNJI@Software?$AA@
	DD	FLAT:??_C@_07KJLOKDKB@TypeLib?$AA@
CONST	ENDS
PUBLIC	?GetAppId@CTLoginSvrModule@@SAPBGXZ		; CTLoginSvrModule::GetAppId
PUBLIC	??_C@_1EO@FMKJBPHL@?$AA?$HL?$AAA?$AA9?$AAC?$AA0?$AAC?$AAF?$AA5?$AA3?$AA?9?$AA7?$AAD?$AA5?$AA4?$AA?9?$AA4?$AA3?$AAD?$AA7?$AA?9@ ; `string'
;	COMDAT ??_C@_1EO@FMKJBPHL@?$AA?$HL?$AAA?$AA9?$AAC?$AA0?$AAC?$AAF?$AA5?$AA3?$AA?9?$AA7?$AAD?$AA5?$AA4?$AA?9?$AA4?$AA3?$AAD?$AA7?$AA?9@
; File c:\users\pierr\desktop\4story - oldschool\sources\tserver\tloginsvr\tloginsvrmodule.h
CONST	SEGMENT
??_C@_1EO@FMKJBPHL@?$AA?$HL?$AAA?$AA9?$AAC?$AA0?$AAC?$AAF?$AA5?$AA3?$AA?9?$AA7?$AAD?$AA5?$AA4?$AA?9?$AA4?$AA3?$AAD?$AA7?$AA?9@ DB '{'
	DB	00H, 'A', 00H, '9', 00H, 'C', 00H, '0', 00H, 'C', 00H, 'F', 00H
	DB	'5', 00H, '3', 00H, '-', 00H, '7', 00H, 'D', 00H, '5', 00H, '4'
	DB	00H, '-', 00H, '4', 00H, '3', 00H, 'D', 00H, '7', 00H, '-', 00H
	DB	'B', 00H, '0', 00H, '1', 00H, 'C', 00H, '-', 00H, 'D', 00H, '6'
	DB	00H, '0', 00H, '4', 00H, 'F', 00H, 'B', 00H, '9', 00H, 'D', 00H
	DB	'F', 00H, '8', 00H, '0', 00H, '9', 00H, '}', 00H, 00H, 00H ; `string'
; Function compile flags: /Ogty
CONST	ENDS
;	COMDAT ?GetAppId@CTLoginSvrModule@@SAPBGXZ
_TEXT	SEGMENT
?GetAppId@CTLoginSvrModule@@SAPBGXZ PROC NEAR		; CTLoginSvrModule::GetAppId, COMDAT

; 153  : 	DECLARE_REGISTRY_APPID_RESOURCEID(IDR_TLOGINSVR, "{A9C0CF53-7D54-43D7-B01C-D604FB9DF809}")

  00000	b8 00 00 00 00	 mov	 eax, OFFSET FLAT:??_C@_1EO@FMKJBPHL@?$AA?$HL?$AAA?$AA9?$AAC?$AA0?$AAC?$AAF?$AA5?$AA3?$AA?9?$AA7?$AAD?$AA5?$AA4?$AA?9?$AA4?$AA3?$AAD?$AA7?$AA?9@
  00005	c3		 ret	 0
?GetAppId@CTLoginSvrModule@@SAPBGXZ ENDP		; CTLoginSvrModule::GetAppId
_TEXT	ENDS
PUBLIC	?GetAppIdT@CTLoginSvrModule@@SAPADXZ		; CTLoginSvrModule::GetAppIdT
PUBLIC	??_C@_0CH@PONHNPAA@?$HLA9C0CF53?97D54?943D7?9B01C?9D604FB9@ ; `string'
;	COMDAT ??_C@_0CH@PONHNPAA@?$HLA9C0CF53?97D54?943D7?9B01C?9D604FB9@
CONST	SEGMENT
??_C@_0CH@PONHNPAA@?$HLA9C0CF53?97D54?943D7?9B01C?9D604FB9@ DB '{A9C0CF53'
	DB	'-7D54-43D7-B01C-D604FB9DF809}', 00H		; `string'
; Function compile flags: /Ogty
CONST	ENDS
;	COMDAT ?GetAppIdT@CTLoginSvrModule@@SAPADXZ
_TEXT	SEGMENT
?GetAppIdT@CTLoginSvrModule@@SAPADXZ PROC NEAR		; CTLoginSvrModule::GetAppIdT, COMDAT

; 153  : 	DECLARE_REGISTRY_APPID_RESOURCEID(IDR_TLOGINSVR, "{A9C0CF53-7D54-43D7-B01C-D604FB9DF809}")

  00000	b8 00 00 00 00	 mov	 eax, OFFSET FLAT:??_C@_0CH@PONHNPAA@?$HLA9C0CF53?97D54?943D7?9B01C?9D604FB9@
  00005	c3		 ret	 0
?GetAppIdT@CTLoginSvrModule@@SAPADXZ ENDP		; CTLoginSvrModule::GetAppIdT
_TEXT	ENDS
PUBLIC	?OnCT_CTRLSVR_REQ@CTLoginSvrModule@@IAEKPAVCSqlDatabase@@PAV?$map@EPAUtagTGROUP@@U?$less@E@std@@V?$allocator@U?$pair@$$CBEPAUtagTGROUP@@@std@@@3@@std@@PAVCTUser@@AAVCPacket@@@Z ; CTLoginSvrModule::OnCT_CTRLSVR_REQ
; Function compile flags: /Ogty
; File c:\users\pierr\desktop\4story - oldschool\sources\tserver\tloginsvr\cshandler.cpp
;	COMDAT ?OnCT_CTRLSVR_REQ@CTLoginSvrModule@@IAEKPAVCSqlDatabase@@PAV?$map@EPAUtagTGROUP@@U?$less@E@std@@V?$allocator@U?$pair@$$CBEPAUtagTGROUP@@@std@@@3@@std@@PAVCTUser@@AAVCPacket@@@Z
_TEXT	SEGMENT
_pDB$ = 8						; size = 4
_pGROUP$ = 12						; size = 4
_pUser$ = 16						; size = 4
_packet$ = 20						; size = 4
?OnCT_CTRLSVR_REQ@CTLoginSvrModule@@IAEKPAVCSqlDatabase@@PAV?$map@EPAUtagTGROUP@@U?$less@E@std@@V?$allocator@U?$pair@$$CBEPAUtagTGROUP@@@std@@@3@@std@@PAVCTUser@@AAVCPacket@@@Z PROC NEAR ; CTLoginSvrModule::OnCT_CTRLSVR_REQ, COMDAT
; _this$ = ecx

; 80   : 	return EC_NOERROR;

  00000	33 c0		 xor	 eax, eax

; 81   : }

  00002	c2 10 00	 ret	 16			; 00000010H
?OnCT_CTRLSVR_REQ@CTLoginSvrModule@@IAEKPAVCSqlDatabase@@PAV?$map@EPAUtagTGROUP@@U?$less@E@std@@V?$allocator@U?$pair@$$CBEPAUtagTGROUP@@@std@@@3@@std@@PAVCTUser@@AAVCPacket@@@Z ENDP ; CTLoginSvrModule::OnCT_CTRLSVR_REQ
_TEXT	ENDS
PUBLIC	?Allocate@CCRTAllocator@ATL@@SAPAXI@Z		; ATL::CCRTAllocator::Allocate
EXTRN	_malloc:NEAR
; Function compile flags: /Ogty
; File c:\program files (x86)\microsoft visual studio .net 2003\vc7\atlmfc\include\atlalloc.h
;	COMDAT ?Allocate@CCRTAllocator@ATL@@SAPAXI@Z
_TEXT	SEGMENT
_nBytes$ = 8						; size = 4
?Allocate@CCRTAllocator@ATL@@SAPAXI@Z PROC NEAR		; ATL::CCRTAllocator::Allocate, COMDAT

; 31   : 		return malloc(nBytes);

  00000	e9 00 00 00 00	 jmp	 _malloc
?Allocate@CCRTAllocator@ATL@@SAPAXI@Z ENDP		; ATL::CCRTAllocator::Allocate
_TEXT	ENDS
PUBLIC	?Free@CCRTAllocator@ATL@@SAXPAX@Z		; ATL::CCRTAllocator::Free
EXTRN	_free:NEAR
; Function compile flags: /Ogty
;	COMDAT ?Free@CCRTAllocator@ATL@@SAXPAX@Z
_TEXT	SEGMENT
_p$ = 8							; size = 4
?Free@CCRTAllocator@ATL@@SAXPAX@Z PROC NEAR		; ATL::CCRTAllocator::Free, COMDAT

; 36   : 		free(p);

  00000	e9 00 00 00 00	 jmp	 _free
?Free@CCRTAllocator@ATL@@SAXPAX@Z ENDP			; ATL::CCRTAllocator::Free
_TEXT	ENDS
PUBLIC	?_AtlVerifyStackAvailable@_ATL_SAFE_ALLOCA_IMPL@ATL@@YA_NK@Z ; ATL::_ATL_SAFE_ALLOCA_IMPL::_AtlVerifyStackAvailable
EXTRN	__resetstkoflw:NEAR
EXTRN	__alloca_probe:NEAR
EXTRN	__except_handler3:NEAR
EXTRN	__except_list:DWORD
;	COMDAT CONST
CONST	SEGMENT
$T112494 DD	0ffffffffH
	DD	FLAT:$L112489
	DD	FLAT:$L112490
; Function compile flags: /Ogty
CONST	ENDS
;	COMDAT ?_AtlVerifyStackAvailable@_ATL_SAFE_ALLOCA_IMPL@ATL@@YA_NK@Z
_TEXT	SEGMENT
_p$58519 = -28						; size = 4
__$SEHRec$ = -24					; size = 24
_Size$ = 8						; size = 4
?_AtlVerifyStackAvailable@_ATL_SAFE_ALLOCA_IMPL@ATL@@YA_NK@Z PROC NEAR ; ATL::_ATL_SAFE_ALLOCA_IMPL::_AtlVerifyStackAvailable, COMDAT

; 331  : {

  00000	55		 push	 ebp
  00001	8b ec		 mov	 ebp, esp
  00003	6a ff		 push	 -1
  00005	68 00 00 00 00	 push	 OFFSET FLAT:$T112494
  0000a	68 00 00 00 00	 push	 OFFSET FLAT:__except_handler3
  0000f	64 a1 00 00 00
	00		 mov	 eax, DWORD PTR fs:__except_list
  00015	50		 push	 eax
  00016	64 89 25 00 00
	00 00		 mov	 DWORD PTR fs:__except_list, esp
  0001d	83 ec 0c	 sub	 esp, 12			; 0000000cH
  00020	53		 push	 ebx
  00021	56		 push	 esi
  00022	57		 push	 edi
  00023	89 65 e8	 mov	 DWORD PTR __$SEHRec$[ebp], esp

; 332  :     bool bStackAvailable = true;

  00026	b3 01		 mov	 bl, 1

; 333  : 
; 334  :     __try

  00028	c7 45 fc 00 00
	00 00		 mov	 DWORD PTR __$SEHRec$[ebp+20], 0

; 335  :     {
; 336  :         PVOID p = _alloca(Size + _ATL_STACK_MARGIN);

  0002f	8b 45 08	 mov	 eax, DWORD PTR _Size$[ebp]
  00032	05 03 20 00 00	 add	 eax, 8195		; 00002003H
  00037	83 e0 fc	 and	 eax, -4			; fffffffcH
  0003a	e8 00 00 00 00	 call	 __alloca_probe
  0003f	89 65 e8	 mov	 DWORD PTR __$SEHRec$[ebp], esp
  00042	8b c4		 mov	 eax, esp
  00044	89 45 e4	 mov	 DWORD PTR _p$58519[ebp], eax
  00047	eb 1e		 jmp	 SHORT $L112500
$L112489:
$L112501:

; 337  :         (p);
; 338  :     }
; 339  :     __except ((EXCEPTION_STACK_OVERFLOW == GetExceptionCode()) ?
; 340  :                    EXCEPTION_EXECUTE_HANDLER :
; 341  :                    EXCEPTION_CONTINUE_SEARCH)

  00049	8b 45 ec	 mov	 eax, DWORD PTR __$SEHRec$[ebp+4]
  0004c	8b 08		 mov	 ecx, DWORD PTR [eax]
  0004e	8b 01		 mov	 eax, DWORD PTR [ecx]
  00050	33 d2		 xor	 edx, edx
  00052	3d fd 00 00 c0	 cmp	 eax, -1073741571	; c00000fdH
  00057	0f 94 c2	 sete	 dl
  0005a	8b c2		 mov	 eax, edx
$L112499:
$L112491:
  0005c	c3		 ret	 0
$L112490:
  0005d	8b 65 e8	 mov	 esp, DWORD PTR __$SEHRec$[ebp]

; 342  :     {
; 343  :         bStackAvailable = false;

  00060	32 db		 xor	 bl, bl

; 344  :         _resetstkoflw();

  00062	e8 00 00 00 00	 call	 __resetstkoflw
$L112500:
  00067	c7 45 fc ff ff
	ff ff		 mov	 DWORD PTR __$SEHRec$[ebp+20], -1

; 345  :     }
; 346  :     return bStackAvailable;

  0006e	8a c3		 mov	 al, bl

; 347  : }

  00070	8d 65 d8	 lea	 esp, DWORD PTR [ebp-40]
  00073	8b 4d f0	 mov	 ecx, DWORD PTR __$SEHRec$[ebp+8]
  00076	64 89 0d 00 00
	00 00		 mov	 DWORD PTR fs:__except_list, ecx
  0007d	5f		 pop	 edi
  0007e	5e		 pop	 esi
  0007f	5b		 pop	 ebx
  00080	8b e5		 mov	 esp, ebp
  00082	5d		 pop	 ebp
  00083	c3		 ret	 0
?_AtlVerifyStackAvailable@_ATL_SAFE_ALLOCA_IMPL@ATL@@YA_NK@Z ENDP ; ATL::_ATL_SAFE_ALLOCA_IMPL::_AtlVerifyStackAvailable
_TEXT	ENDS
PUBLIC	?InterlockedExchangePointer@@YGPAXPAPAXPAX@Z	; InterlockedExchangePointer
EXTRN	__imp__InterlockedExchange@8:NEAR
; Function compile flags: /Ogty
; File c:\program files (x86)\microsoft visual studio .net 2003\vc7\atlmfc\include\atlconv.h
;	COMDAT ?InterlockedExchangePointer@@YGPAXPAPAXPAX@Z
_TEXT	SEGMENT
_pp$ = 8						; size = 4
_pNew$ = 12						; size = 4
?InterlockedExchangePointer@@YGPAXPAPAXPAX@Z PROC NEAR	; InterlockedExchangePointer, COMDAT

; 92   : 	return( reinterpret_cast<void*>(static_cast<LONG_PTR>(::InterlockedExchange(reinterpret_cast<LONG*>(pp), static_cast<LONG>(reinterpret_cast<LONG_PTR>(pNew))))) );

  00000	ff 25 00 00 00
	00		 jmp	 DWORD PTR __imp__InterlockedExchange@8
?InterlockedExchangePointer@@YGPAXPAPAXPAX@Z ENDP	; InterlockedExchangePointer
_TEXT	ENDS
PUBLIC	?_AtlGetThreadACPFake@ATL@@YGIXZ		; ATL::_AtlGetThreadACPFake
EXTRN	__imp__GetACP@0:NEAR
EXTRN	__imp__GetLocaleInfoA@16:NEAR
EXTRN	__imp__GetThreadLocale@0:NEAR
EXTRN	___security_cookie:DWORD
EXTRN	@__security_check_cookie@4:NEAR
; Function compile flags: /Ogty
;	COMDAT ?_AtlGetThreadACPFake@ATL@@YGIXZ
_TEXT	SEGMENT
_szACP$ = -12						; size = 7
__$ArrayPad$ = -4					; size = 4
__$ReturnAddr$ = 4					; size = 4
?_AtlGetThreadACPFake@ATL@@YGIXZ PROC NEAR		; ATL::_AtlGetThreadACPFake, COMDAT

; 101  : {

  00000	83 ec 0c	 sub	 esp, 12			; 0000000cH
  00003	a1 00 00 00 00	 mov	 eax, DWORD PTR ___security_cookie
  00008	56		 push	 esi
  00009	89 44 24 0c	 mov	 DWORD PTR __$ArrayPad$[esp+16], eax

; 102  : 	UINT nACP = 0;

  0000d	33 f6		 xor	 esi, esi

; 103  : 
; 104  : 	LCID lcidThread = ::GetThreadLocale();

  0000f	ff 15 00 00 00
	00		 call	 DWORD PTR __imp__GetThreadLocale@0

; 105  : 
; 106  : 	char szACP[7];
; 107  : 	// GetLocaleInfoA will fail for a Unicode-only LCID, but those are only supported on 
; 108  : 	// Windows 2000.  Since Windows 2000 supports CP_THREAD_ACP, this code path is never
; 109  : 	// executed on Windows 2000.
; 110  : 	if (::GetLocaleInfoA(lcidThread, LOCALE_IDEFAULTANSICODEPAGE, szACP, 7) != 0)

  00015	6a 07		 push	 7
  00017	8d 4c 24 08	 lea	 ecx, DWORD PTR _szACP$[esp+20]
  0001b	51		 push	 ecx
  0001c	68 04 10 00 00	 push	 4100			; 00001004H
  00021	50		 push	 eax
  00022	ff 15 00 00 00
	00		 call	 DWORD PTR __imp__GetLocaleInfoA@16
  00028	85 c0		 test	 eax, eax
  0002a	74 21		 je	 SHORT $L112513

; 111  : 	{
; 112  : 		char* pch = szACP;
; 113  : 		while (*pch != '\0')

  0002c	8a 44 24 04	 mov	 al, BYTE PTR _szACP$[esp+16]
  00030	84 c0		 test	 al, al
  00032	8d 4c 24 04	 lea	 ecx, DWORD PTR _szACP$[esp+16]
  00036	74 15		 je	 SHORT $L112513
$L58550:

; 114  : 		{
; 115  : 			nACP *= 10;
; 116  : 			nACP += *pch++ - '0';

  00038	0f be c0	 movsx	 eax, al
  0003b	8d 14 b6	 lea	 edx, DWORD PTR [esi+esi*4]
  0003e	41		 inc	 ecx
  0003f	8d 74 50 d0	 lea	 esi, DWORD PTR [eax+edx*2-48]
  00043	8a 01		 mov	 al, BYTE PTR [ecx]
  00045	84 c0		 test	 al, al
  00047	75 ef		 jne	 SHORT $L58550

; 117  : 		}
; 118  : 	}
; 119  : 	// Use the Default ANSI Code Page if we were unable to get the thread ACP or if one does not exist.
; 120  : 	if (nACP == 0)

  00049	85 f6		 test	 esi, esi
  0004b	75 14		 jne	 SHORT $L112514
$L112513:

; 121  : 		nACP = ::GetACP();

  0004d	ff 15 00 00 00
	00		 call	 DWORD PTR __imp__GetACP@0
  00053	5e		 pop	 esi

; 122  : 
; 123  : 	return nACP;
; 124  : }

  00054	8b 4c 24 08	 mov	 ecx, DWORD PTR __$ArrayPad$[esp+12]
  00058	e8 00 00 00 00	 call	 @__security_check_cookie@4
  0005d	83 c4 0c	 add	 esp, 12			; 0000000cH
  00060	c3		 ret	 0
$L112514:
  00061	8b 4c 24 0c	 mov	 ecx, DWORD PTR __$ArrayPad$[esp+16]
  00065	8b c6		 mov	 eax, esi
  00067	5e		 pop	 esi
  00068	e8 00 00 00 00	 call	 @__security_check_cookie@4
  0006d	83 c4 0c	 add	 esp, 12			; 0000000cH
  00070	c3		 ret	 0
?_AtlGetThreadACPFake@ATL@@YGIXZ ENDP			; ATL::_AtlGetThreadACPFake
_TEXT	ENDS
PUBLIC	?_AtlGetThreadACPReal@ATL@@YGIXZ		; ATL::_AtlGetThreadACPReal
; Function compile flags: /Ogty
;	COMDAT ?_AtlGetThreadACPReal@ATL@@YGIXZ
_TEXT	SEGMENT
?_AtlGetThreadACPReal@ATL@@YGIXZ PROC NEAR		; ATL::_AtlGetThreadACPReal, COMDAT

; 128  : 	return( CP_THREAD_ACP );

  00000	b8 03 00 00 00	 mov	 eax, 3

; 129  : }

  00005	c3		 ret	 0
?_AtlGetThreadACPReal@ATL@@YGIXZ ENDP			; ATL::_AtlGetThreadACPReal
_TEXT	ENDS
EXTRN	__imp__GetVersionExA@4:NEAR
; Function compile flags: /Ogty
;	COMDAT ?_AtlGetThreadACPThunk@ATL@@YGIXZ
_TEXT	SEGMENT
_ver$ = -152						; size = 148
__$ArrayPad$ = -4					; size = 4
__$ReturnAddr$ = 4					; size = 4
?_AtlGetThreadACPThunk@ATL@@YGIXZ PROC NEAR		; ATL::_AtlGetThreadACPThunk, COMDAT

; 134  : {

  00000	81 ec 98 00 00
	00		 sub	 esp, 152		; 00000098H
  00006	a1 00 00 00 00	 mov	 eax, DWORD PTR ___security_cookie
  0000b	89 84 24 94 00
	00 00		 mov	 DWORD PTR __$ArrayPad$[esp+152], eax

; 135  : 	OSVERSIONINFO ver;
; 136  : 	ATLGETTHREADACP pfnGetThreadACP;
; 137  : 
; 138  : 	ver.dwOSVersionInfoSize = sizeof( ver );
; 139  : 	::GetVersionEx( &ver );

  00012	8d 04 24	 lea	 eax, DWORD PTR _ver$[esp+152]
  00015	50		 push	 eax
  00016	c7 44 24 04 94
	00 00 00	 mov	 DWORD PTR _ver$[esp+156], 148 ; 00000094H
  0001e	ff 15 00 00 00
	00		 call	 DWORD PTR __imp__GetVersionExA@4

; 140  : 	if( (ver.dwPlatformId == VER_PLATFORM_WIN32_NT) && (ver.dwMajorVersion >= 5) )

  00024	83 7c 24 10 02	 cmp	 DWORD PTR _ver$[esp+168], 2
  00029	75 0c		 jne	 SHORT $L58560
  0002b	83 7c 24 04 05	 cmp	 DWORD PTR _ver$[esp+156], 5

; 141  : 	{
; 142  : 		// On Win2K, CP_THREAD_ACP is supported
; 143  : 		pfnGetThreadACP = _AtlGetThreadACPReal;

  00030	b8 00 00 00 00	 mov	 eax, OFFSET FLAT:?_AtlGetThreadACPReal@ATL@@YGIXZ ; ATL::_AtlGetThreadACPReal
  00035	73 05		 jae	 SHORT $L58561
$L58560:

; 144  : 	}
; 145  : 	else
; 146  : 	{
; 147  : 		pfnGetThreadACP = _AtlGetThreadACPFake;

  00037	b8 00 00 00 00	 mov	 eax, OFFSET FLAT:?_AtlGetThreadACPFake@ATL@@YGIXZ ; ATL::_AtlGetThreadACPFake
$L58561:

; 148  : 	}
; 149  : 	InterlockedExchangePointer( reinterpret_cast< void** >(&g_pfnGetThreadACP), pfnGetThreadACP );

  0003c	50		 push	 eax
  0003d	68 00 00 00 00	 push	 OFFSET FLAT:?g_pfnGetThreadACP@ATL@@3P6GIXZA ; ATL::g_pfnGetThreadACP
  00042	ff 15 00 00 00
	00		 call	 DWORD PTR __imp__InterlockedExchange@8

; 150  : 
; 151  : 	return( g_pfnGetThreadACP() );

  00048	ff 15 00 00 00
	00		 call	 DWORD PTR ?g_pfnGetThreadACP@ATL@@3P6GIXZA ; ATL::g_pfnGetThreadACP

; 152  : }

  0004e	8b 8c 24 94 00
	00 00		 mov	 ecx, DWORD PTR __$ArrayPad$[esp+152]
  00055	e8 00 00 00 00	 call	 @__security_check_cookie@4
  0005a	81 c4 98 00 00
	00		 add	 esp, 152		; 00000098H
  00060	c3		 ret	 0
?_AtlGetThreadACPThunk@ATL@@YGIXZ ENDP			; ATL::_AtlGetThreadACPThunk
_TEXT	ENDS
PUBLIC	?_AtlGetConversionACP@ATL@@YGIXZ		; ATL::_AtlGetConversionACP
; Function compile flags: /Ogty
;	COMDAT ?_AtlGetConversionACP@ATL@@YGIXZ
_TEXT	SEGMENT
?_AtlGetConversionACP@ATL@@YGIXZ PROC NEAR		; ATL::_AtlGetConversionACP, COMDAT

; 158  : 	return( g_pfnGetThreadACP() );

  00000	ff 25 00 00 00
	00		 jmp	 DWORD PTR ?g_pfnGetThreadACP@ATL@@3P6GIXZA ; ATL::g_pfnGetThreadACP
?_AtlGetConversionACP@ATL@@YGIXZ ENDP			; ATL::_AtlGetConversionACP
_TEXT	ENDS
PUBLIC	?AtlA2WHelper@@YGPAGPAGPBDHI@Z			; AtlA2WHelper
EXTRN	__imp__MultiByteToWideChar@24:NEAR
; Function compile flags: /Ogty
;	COMDAT ?AtlA2WHelper@@YGPAGPAGPBDHI@Z
_TEXT	SEGMENT
_lpw$ = 8						; size = 4
_lpa$ = 12						; size = 4
_nChars$ = 16						; size = 4
_acp$ = 20						; size = 4
?AtlA2WHelper@@YGPAGPAGPBDHI@Z PROC NEAR		; AtlA2WHelper, COMDAT

; 554  : {

  00000	56		 push	 esi

; 555  : 	ATLASSERT(lpa != NULL);
; 556  : 	ATLASSERT(lpw != NULL);
; 557  : 	if (lpw == NULL || lpa == NULL)

  00001	8b 74 24 08	 mov	 esi, DWORD PTR _lpw$[esp]
  00005	85 f6		 test	 esi, esi
  00007	74 2d		 je	 SHORT $L58693
  00009	8b 44 24 0c	 mov	 eax, DWORD PTR _lpa$[esp]
  0000d	85 c0		 test	 eax, eax
  0000f	74 25		 je	 SHORT $L58693

; 559  : 	// verify that no illegal character present
; 560  : 	// since lpw was allocated based on the size of lpa
; 561  : 	// don't worry about the number of chars
; 562  : 	lpw[0] = '\0';
; 563  : 	int ret = MultiByteToWideChar(acp, 0, lpa, -1, lpw, nChars);

  00011	8b 4c 24 10	 mov	 ecx, DWORD PTR _nChars$[esp]
  00015	8b 54 24 14	 mov	 edx, DWORD PTR _acp$[esp]
  00019	51		 push	 ecx
  0001a	56		 push	 esi
  0001b	6a ff		 push	 -1
  0001d	50		 push	 eax
  0001e	6a 00		 push	 0
  00020	52		 push	 edx
  00021	66 c7 06 00 00	 mov	 WORD PTR [esi], 0
  00026	ff 15 00 00 00
	00		 call	 DWORD PTR __imp__MultiByteToWideChar@24

; 564  : 	if(ret == 0)

  0002c	f7 d8		 neg	 eax
  0002e	1b c0		 sbb	 eax, eax
  00030	23 c6		 and	 eax, esi
  00032	5e		 pop	 esi

; 565  : 	{
; 566  : 		ATLASSERT(FALSE);
; 567  : 		return NULL;
; 568  : 	}		
; 569  : 	return lpw;
; 570  : }

  00033	c2 10 00	 ret	 16			; 00000010H
$L58693:

; 558  : 		return NULL;

  00036	33 c0		 xor	 eax, eax
  00038	5e		 pop	 esi

; 565  : 	{
; 566  : 		ATLASSERT(FALSE);
; 567  : 		return NULL;
; 568  : 	}		
; 569  : 	return lpw;
; 570  : }

  00039	c2 10 00	 ret	 16			; 00000010H
?AtlA2WHelper@@YGPAGPAGPBDHI@Z ENDP			; AtlA2WHelper
_TEXT	ENDS
PUBLIC	?AtlW2AHelper@@YGPADPADPBGHI@Z			; AtlW2AHelper
EXTRN	__imp__WideCharToMultiByte@32:NEAR
; Function compile flags: /Ogty
;	COMDAT ?AtlW2AHelper@@YGPADPADPBGHI@Z
_TEXT	SEGMENT
_lpa$ = 8						; size = 4
_lpw$ = 12						; size = 4
_nChars$ = 16						; size = 4
_acp$ = 20						; size = 4
?AtlW2AHelper@@YGPADPADPBGHI@Z PROC NEAR		; AtlW2AHelper, COMDAT

; 573  : {

  00000	56		 push	 esi

; 574  : 	ATLASSERT(lpw != NULL);
; 575  : 	ATLASSERT(lpa != NULL);
; 576  : 	if (lpa == NULL || lpw == NULL)

  00001	8b 74 24 08	 mov	 esi, DWORD PTR _lpa$[esp]
  00005	85 f6		 test	 esi, esi
  00007	74 2f		 je	 SHORT $L58706
  00009	8b 44 24 0c	 mov	 eax, DWORD PTR _lpw$[esp]
  0000d	85 c0		 test	 eax, eax
  0000f	74 27		 je	 SHORT $L58706

; 578  : 	// verify that no illegal character present
; 579  : 	// since lpa was allocated based on the size of lpw
; 580  : 	// don't worry about the number of chars
; 581  : 	lpa[0] = '\0';
; 582  : 	int ret = WideCharToMultiByte(acp, 0, lpw, -1, lpa, nChars, NULL, NULL);

  00011	8b 4c 24 10	 mov	 ecx, DWORD PTR _nChars$[esp]
  00015	8b 54 24 14	 mov	 edx, DWORD PTR _acp$[esp]
  00019	6a 00		 push	 0
  0001b	6a 00		 push	 0
  0001d	51		 push	 ecx
  0001e	56		 push	 esi
  0001f	6a ff		 push	 -1
  00021	50		 push	 eax
  00022	6a 00		 push	 0
  00024	52		 push	 edx
  00025	c6 06 00	 mov	 BYTE PTR [esi], 0
  00028	ff 15 00 00 00
	00		 call	 DWORD PTR __imp__WideCharToMultiByte@32

; 583  : 	if(ret == 0)

  0002e	f7 d8		 neg	 eax
  00030	1b c0		 sbb	 eax, eax
  00032	23 c6		 and	 eax, esi
  00034	5e		 pop	 esi

; 584  : 	{
; 585  : 		ATLASSERT(FALSE);
; 586  : 		return NULL;
; 587  : 	}
; 588  : 	return lpa;
; 589  : }

  00035	c2 10 00	 ret	 16			; 00000010H
$L58706:

; 577  : 		return NULL;

  00038	33 c0		 xor	 eax, eax
  0003a	5e		 pop	 esi

; 584  : 	{
; 585  : 		ATLASSERT(FALSE);
; 586  : 		return NULL;
; 587  : 	}
; 588  : 	return lpa;
; 589  : }

  0003b	c2 10 00	 ret	 16			; 00000010H
?AtlW2AHelper@@YGPADPADPBGHI@Z ENDP			; AtlW2AHelper
_TEXT	ENDS
PUBLIC	?ocslen@@YAHPBG@Z				; ocslen
EXTRN	__imp__lstrlenW@4:NEAR
; Function compile flags: /Ogty
;	COMDAT ?ocslen@@YAHPBG@Z
_TEXT	SEGMENT
_x$ = 8							; size = 4
?ocslen@@YAHPBG@Z PROC NEAR				; ocslen, COMDAT

; 679  : 	inline int ocslen(LPCOLESTR x) throw() { return lstrlenW(x); }

  00000	8b 44 24 04	 mov	 eax, DWORD PTR _x$[esp-4]
  00004	50		 push	 eax
  00005	ff 15 00 00 00
	00		 call	 DWORD PTR __imp__lstrlenW@4
  0000b	c3		 ret	 0
?ocslen@@YAHPBG@Z ENDP					; ocslen
_TEXT	ENDS
PUBLIC	?ocscpy@@YAPAGPAGPBG@Z				; ocscpy
; Function compile flags: /Ogty
;	COMDAT ?ocscpy@@YAPAGPAGPBG@Z
_TEXT	SEGMENT
_dest$ = 8						; size = 4
_src$ = 12						; size = 4
?ocscpy@@YAPAGPAGPBG@Z PROC NEAR			; ocscpy, COMDAT

; 682  : 	{return (LPOLESTR) memcpy(dest, src, (lstrlenW(src)+1)*sizeof(WCHAR));}

  00000	56		 push	 esi
  00001	8b 74 24 0c	 mov	 esi, DWORD PTR _src$[esp]
  00005	57		 push	 edi
  00006	56		 push	 esi
  00007	ff 15 00 00 00
	00		 call	 DWORD PTR __imp__lstrlenW@4
  0000d	8b 7c 24 0c	 mov	 edi, DWORD PTR _dest$[esp+4]
  00011	8d 4c 00 02	 lea	 ecx, DWORD PTR [eax+eax+2]
  00015	8b d1		 mov	 edx, ecx
  00017	c1 e9 02	 shr	 ecx, 2
  0001a	8b c7		 mov	 eax, edi
  0001c	f3 a5		 rep movsd
  0001e	8b ca		 mov	 ecx, edx
  00020	83 e1 03	 and	 ecx, 3
  00023	f3 a4		 rep movsb
  00025	5f		 pop	 edi
  00026	5e		 pop	 esi
  00027	c3		 ret	 0
?ocscpy@@YAPAGPAGPBG@Z ENDP				; ocscpy
_TEXT	ENDS
PUBLIC	?OnCS_TESTVERSION_REQ@CTLoginSvrModule@@IAEKPAVCSqlDatabase@@PAV?$map@EPAUtagTGROUP@@U?$less@E@std@@V?$allocator@U?$pair@$$CBEPAUtagTGROUP@@@std@@@3@@std@@PAVCTUser@@AAVCPacket@@@Z ; CTLoginSvrModule::OnCS_TESTVERSION_REQ
EXTRN	?SendCS_TESTVERSION_ACK@CTUser@@QAEXG@Z:NEAR	; CTUser::SendCS_TESTVERSION_ACK
; Function compile flags: /Ogty
; File c:\users\pierr\desktop\4story - oldschool\sources\tserver\tloginsvr\cshandler.cpp
;	COMDAT ?OnCS_TESTVERSION_REQ@CTLoginSvrModule@@IAEKPAVCSqlDatabase@@PAV?$map@EPAUtagTGROUP@@U?$less@E@std@@V?$allocator@U?$pair@$$CBEPAUtagTGROUP@@@std@@@3@@std@@PAVCTUser@@AAVCPacket@@@Z
_TEXT	SEGMENT
_pDB$ = 8						; size = 4
_pGROUP$ = 12						; size = 4
_pUser$ = 16						; size = 4
_packet$ = 20						; size = 4
?OnCS_TESTVERSION_REQ@CTLoginSvrModule@@IAEKPAVCSqlDatabase@@PAV?$map@EPAUtagTGROUP@@U?$less@E@std@@V?$allocator@U?$pair@$$CBEPAUtagTGROUP@@@std@@@3@@std@@PAVCTUser@@AAVCPacket@@@Z PROC NEAR ; CTLoginSvrModule::OnCS_TESTVERSION_REQ, COMDAT
; _this$ = ecx

; 428  : 	pUser->SendCS_TESTVERSION_ACK(TVERSION);

  00000	8b 4c 24 0c	 mov	 ecx, DWORD PTR _pUser$[esp-4]
  00004	68 26 10 00 00	 push	 4134			; 00001026H
  00009	e8 00 00 00 00	 call	 ?SendCS_TESTVERSION_ACK@CTUser@@QAEXG@Z ; CTUser::SendCS_TESTVERSION_ACK

; 429  : 	return EC_NOERROR;

  0000e	33 c0		 xor	 eax, eax

; 430  : }

  00010	c2 10 00	 ret	 16			; 00000010H
?OnCS_TESTVERSION_REQ@CTLoginSvrModule@@IAEKPAVCSqlDatabase@@PAV?$map@EPAUtagTGROUP@@U?$less@E@std@@V?$allocator@U?$pair@$$CBEPAUtagTGROUP@@@std@@@3@@std@@PAVCTUser@@AAVCPacket@@@Z ENDP ; CTLoginSvrModule::OnCS_TESTVERSION_REQ
_TEXT	ENDS
PUBLIC	?_AtlRaiseException@ATL@@YAXKK@Z		; ATL::_AtlRaiseException
EXTRN	__imp__RaiseException@16:NEAR
; Function compile flags: /Ogty
; File c:\program files (x86)\microsoft visual studio .net 2003\vc7\atlmfc\include\atlexcept.h
;	COMDAT ?_AtlRaiseException@ATL@@YAXKK@Z
_TEXT	SEGMENT
_dwExceptionCode$ = 8					; size = 4
_dwExceptionFlags$ = 12					; size = 4
?_AtlRaiseException@ATL@@YAXKK@Z PROC NEAR		; ATL::_AtlRaiseException, COMDAT

; 27   : 	RaiseException( dwExceptionCode, dwExceptionFlags, 0, NULL );

  00000	8b 44 24 08	 mov	 eax, DWORD PTR _dwExceptionFlags$[esp-4]
  00004	8b 4c 24 04	 mov	 ecx, DWORD PTR _dwExceptionCode$[esp-4]
  00008	6a 00		 push	 0
  0000a	6a 00		 push	 0
  0000c	50		 push	 eax
  0000d	51		 push	 ecx
  0000e	ff 15 00 00 00
	00		 call	 DWORD PTR __imp__RaiseException@16

; 28   : }

  00014	c3		 ret	 0
?_AtlRaiseException@ATL@@YAXKK@Z ENDP			; ATL::_AtlRaiseException
_TEXT	ENDS
PUBLIC	??0CAtlException@ATL@@QAE@J@Z			; ATL::CAtlException::CAtlException
; Function compile flags: /Ogty
;	COMDAT ??0CAtlException@ATL@@QAE@J@Z
_TEXT	SEGMENT
_hr$ = 8						; size = 4
??0CAtlException@ATL@@QAE@J@Z PROC NEAR			; ATL::CAtlException::CAtlException, COMDAT
; _this$ = ecx

; 40   : 	{

  00000	8b c1		 mov	 eax, ecx
  00002	8b 4c 24 04	 mov	 ecx, DWORD PTR _hr$[esp-4]
  00006	89 08		 mov	 DWORD PTR [eax], ecx

; 41   : 	}

  00008	c2 04 00	 ret	 4
??0CAtlException@ATL@@QAE@J@Z ENDP			; ATL::CAtlException::CAtlException
_TEXT	ENDS
PUBLIC	?AtlThrow@ATL@@YGXJ@Z				; ATL::AtlThrow
PUBLIC	__TI1?AVCAtlException@ATL@@
PUBLIC	__CTA1?AVCAtlException@ATL@@
PUBLIC	??_R0?AVCAtlException@ATL@@@8			; ATL::CAtlException `RTTI Type Descriptor'
PUBLIC	__CT??_R0?AVCAtlException@ATL@@@84
EXTRN	??_7type_info@@6B@:DWORD			; type_info::`vftable'
EXTRN	__CxxThrowException@8:NEAR
;	COMDAT __TI1?AVCAtlException@ATL@@
xdata$x	SEGMENT
__TI1?AVCAtlException@ATL@@ DD 00H
	DD	00H
	DD	00H
	DD	FLAT:__CTA1?AVCAtlException@ATL@@
xdata$x	ENDS
;	COMDAT __CTA1?AVCAtlException@ATL@@
xdata$x	SEGMENT
__CTA1?AVCAtlException@ATL@@ DD 01H
	DD	FLAT:__CT??_R0?AVCAtlException@ATL@@@84
xdata$x	ENDS
;	COMDAT __CT??_R0?AVCAtlException@ATL@@@84
xdata$x	SEGMENT
__CT??_R0?AVCAtlException@ATL@@@84 DD 00H
	DD	FLAT:??_R0?AVCAtlException@ATL@@@8
	DD	00H
	DD	0ffffffffH
	ORG $+4
	DD	04H
	DD	00H
xdata$x	ENDS
;	COMDAT ??_R0?AVCAtlException@ATL@@@8
_DATA	SEGMENT
??_R0?AVCAtlException@ATL@@@8 DD FLAT:??_7type_info@@6B@ ; ATL::CAtlException `RTTI Type Descriptor'
	DD	00H
	DB	'.?AVCAtlException@ATL@@', 00H
; Function compile flags: /Ogty
_DATA	ENDS
;	COMDAT ?AtlThrow@ATL@@YGXJ@Z
_TEXT	SEGMENT
$T112557 = 8						; size = 4
_hr$ = 8						; size = 4
?AtlThrow@ATL@@YGXJ@Z PROC NEAR				; ATL::AtlThrow, COMDAT

; 62   : 	ATLTRACE(atlTraceException, 0, _T("AtlThrow: hr = 0x%x\n"), hr );
; 63   : #ifdef _AFX
; 64   : 	if( hr == E_OUTOFMEMORY )
; 65   : 	{
; 66   : 		AfxThrowMemoryException();
; 67   : 	}
; 68   : 	else
; 69   : 	{
; 70   : 		AfxThrowOleException( hr );
; 71   : 	}
; 72   : #else
; 73   : 	throw CAtlException( hr );

  00000	8b 44 24 04	 mov	 eax, DWORD PTR _hr$[esp-4]
  00004	68 00 00 00 00	 push	 OFFSET FLAT:__TI1?AVCAtlException@ATL@@
  00009	8d 4c 24 08	 lea	 ecx, DWORD PTR $T112557[esp]
  0000d	51		 push	 ecx
  0000e	89 44 24 0c	 mov	 DWORD PTR $T112557[esp+4], eax
  00012	e8 00 00 00 00	 call	 __CxxThrowException@8
$L112564:
$L112563:
  00017	cc		 int	 3
?AtlThrow@ATL@@YGXJ@Z ENDP				; ATL::AtlThrow
_TEXT	ENDS
PUBLIC	?Lock@CComFakeCriticalSection@ATL@@QAEJXZ	; ATL::CComFakeCriticalSection::Lock
; Function compile flags: /Ogty
; File c:\program files (x86)\microsoft visual studio .net 2003\vc7\atlmfc\include\atlcore.h
;	COMDAT ?Lock@CComFakeCriticalSection@ATL@@QAEJXZ
_TEXT	SEGMENT
?Lock@CComFakeCriticalSection@ATL@@QAEJXZ PROC NEAR	; ATL::CComFakeCriticalSection::Lock, COMDAT
; _this$ = ecx

; 175  : 	HRESULT Lock() throw() { return S_OK; }

  00000	33 c0		 xor	 eax, eax
  00002	c3		 ret	 0
?Lock@CComFakeCriticalSection@ATL@@QAEJXZ ENDP		; ATL::CComFakeCriticalSection::Lock
_TEXT	ENDS
PUBLIC	?Unlock@CComFakeCriticalSection@ATL@@QAEJXZ	; ATL::CComFakeCriticalSection::Unlock
; Function compile flags: /Ogty
;	COMDAT ?Unlock@CComFakeCriticalSection@ATL@@QAEJXZ
_TEXT	SEGMENT
?Unlock@CComFakeCriticalSection@ATL@@QAEJXZ PROC NEAR	; ATL::CComFakeCriticalSection::Unlock, COMDAT
; _this$ = ecx

; 176  : 	HRESULT Unlock() throw() { return S_OK; }

  00000	33 c0		 xor	 eax, eax
  00002	c3		 ret	 0
?Unlock@CComFakeCriticalSection@ATL@@QAEJXZ ENDP	; ATL::CComFakeCriticalSection::Unlock
_TEXT	ENDS
PUBLIC	?GetModuleInstance@CAtlBaseModule@ATL@@QAEPAUHINSTANCE__@@XZ ; ATL::CAtlBaseModule::GetModuleInstance
; Function compile flags: /Ogty
;	COMDAT ?GetModuleInstance@CAtlBaseModule@ATL@@QAEPAUHINSTANCE__@@XZ
_TEXT	SEGMENT
?GetModuleInstance@CAtlBaseModule@ATL@@QAEPAUHINSTANCE__@@XZ PROC NEAR ; ATL::CAtlBaseModule::GetModuleInstance, COMDAT
; _this$ = ecx

; 207  : 		return m_hInst;

  00000	8b 41 04	 mov	 eax, DWORD PTR [ecx+4]

; 208  : 	}

  00003	c3		 ret	 0
?GetModuleInstance@CAtlBaseModule@ATL@@QAEPAUHINSTANCE__@@XZ ENDP ; ATL::CAtlBaseModule::GetModuleInstance
_TEXT	ENDS
PUBLIC	?_AtlGetStringResourceImage@ATL@@YAPBUATLSTRINGRESOURCEIMAGE@1@PAUHINSTANCE__@@PAUHRSRC__@@I@Z ; ATL::_AtlGetStringResourceImage
EXTRN	__imp__LockResource@4:NEAR
EXTRN	__imp__LoadResource@8:NEAR
EXTRN	__imp__SizeofResource@8:NEAR
; Function compile flags: /Ogty
;	COMDAT ?_AtlGetStringResourceImage@ATL@@YAPBUATLSTRINGRESOURCEIMAGE@1@PAUHINSTANCE__@@PAUHRSRC__@@I@Z
_TEXT	SEGMENT
_hInstance$ = 8						; size = 4
_hResource$ = 12					; size = 4
_id$ = 16						; size = 4
?_AtlGetStringResourceImage@ATL@@YAPBUATLSTRINGRESOURCEIMAGE@1@PAUHINSTANCE__@@PAUHRSRC__@@I@Z PROC NEAR ; ATL::_AtlGetStringResourceImage, COMDAT

; 239  : {

  00000	53		 push	 ebx

; 240  : 	const ATLSTRINGRESOURCEIMAGE* pImage;
; 241  : 	const ATLSTRINGRESOURCEIMAGE* pImageEnd;
; 242  : 	ULONG nResourceSize;
; 243  : 	HGLOBAL hGlobal;
; 244  : 	UINT iIndex;
; 245  : 
; 246  : 	hGlobal = ::LoadResource( hInstance, hResource );

  00001	8b 5c 24 08	 mov	 ebx, DWORD PTR _hInstance$[esp]
  00005	57		 push	 edi
  00006	8b 7c 24 10	 mov	 edi, DWORD PTR _hResource$[esp+4]
  0000a	57		 push	 edi
  0000b	53		 push	 ebx
  0000c	ff 15 00 00 00
	00		 call	 DWORD PTR __imp__LoadResource@8

; 247  : 	if( hGlobal == NULL )

  00012	85 c0		 test	 eax, eax
  00014	75 03		 jne	 SHORT $L59408
  00016	5f		 pop	 edi
  00017	5b		 pop	 ebx

; 272  : 	{
; 273  : 		return( NULL );
; 274  : 	}
; 275  : 
; 276  : 	return( pImage );
; 277  : }

  00018	c3		 ret	 0
$L59408:
  00019	56		 push	 esi

; 248  : 	{
; 249  : 		return( NULL );
; 250  : 	}
; 251  : 
; 252  : 	pImage = (const ATLSTRINGRESOURCEIMAGE*)::LockResource( hGlobal );

  0001a	50		 push	 eax
  0001b	ff 15 00 00 00
	00		 call	 DWORD PTR __imp__LockResource@4
  00021	8b f0		 mov	 esi, eax

; 253  : 	if( pImage == NULL )

  00023	85 f6		 test	 esi, esi
  00025	75 06		 jne	 SHORT $L59410
$L112579:
  00027	5e		 pop	 esi
  00028	5f		 pop	 edi

; 254  : 	{
; 255  : 		return( NULL );

  00029	33 c0		 xor	 eax, eax
  0002b	5b		 pop	 ebx

; 272  : 	{
; 273  : 		return( NULL );
; 274  : 	}
; 275  : 
; 276  : 	return( pImage );
; 277  : }

  0002c	c3		 ret	 0
$L59410:

; 256  : 	}
; 257  : 
; 258  : 	nResourceSize = ::SizeofResource( hInstance, hResource );

  0002d	57		 push	 edi
  0002e	53		 push	 ebx
  0002f	ff 15 00 00 00
	00		 call	 DWORD PTR __imp__SizeofResource@8

; 259  : 	pImageEnd = (const ATLSTRINGRESOURCEIMAGE*)(LPBYTE( pImage )+nResourceSize);
; 260  : 	iIndex = id&0x000f;

  00035	8b 4c 24 18	 mov	 ecx, DWORD PTR _id$[esp+8]
  00039	03 c6		 add	 eax, esi
  0003b	83 e1 0f	 and	 ecx, 15			; 0000000fH

; 261  : 
; 262  : 	while( (iIndex > 0) && (pImage < pImageEnd) )

  0003e	76 0e		 jbe	 SHORT $L59414
$L59413:
  00040	3b f0		 cmp	 esi, eax
  00042	73 e3		 jae	 SHORT $L112579

; 263  : 	{
; 264  : 		pImage = (const ATLSTRINGRESOURCEIMAGE*)(LPBYTE( pImage )+(sizeof( ATLSTRINGRESOURCEIMAGE )+(pImage->nLength*sizeof( WCHAR ))));
; 265  : 		iIndex--;

  00044	49		 dec	 ecx
  00045	0f b7 16	 movzx	 edx, WORD PTR [esi]
  00048	8d 74 56 02	 lea	 esi, DWORD PTR [esi+edx*2+2]
  0004c	75 f2		 jne	 SHORT $L59413
$L59414:

; 266  : 	}
; 267  : 	if( pImage >= pImageEnd )

  0004e	3b f0		 cmp	 esi, eax

; 268  : 	{
; 269  : 		return( NULL );

  00050	73 d5		 jae	 SHORT $L112579

; 270  : 	}
; 271  : 	if( pImage->nLength == 0 )

  00052	66 8b 06	 mov	 ax, WORD PTR [esi]
  00055	66 f7 d8	 neg	 ax
  00058	1b c0		 sbb	 eax, eax
  0005a	23 c6		 and	 eax, esi
  0005c	5e		 pop	 esi
  0005d	5f		 pop	 edi
  0005e	5b		 pop	 ebx

; 272  : 	{
; 273  : 		return( NULL );
; 274  : 	}
; 275  : 
; 276  : 	return( pImage );
; 277  : }

  0005f	c3		 ret	 0
?_AtlGetStringResourceImage@ATL@@YAPBUATLSTRINGRESOURCEIMAGE@1@PAUHINSTANCE__@@PAUHRSRC__@@I@Z ENDP ; ATL::_AtlGetStringResourceImage
_TEXT	ENDS
PUBLIC	?AtlGetStringResourceImage@ATL@@YAPBUATLSTRINGRESOURCEIMAGE@1@PAUHINSTANCE__@@I@Z ; ATL::AtlGetStringResourceImage
EXTRN	__imp__FindResourceA@12:NEAR
; Function compile flags: /Ogty
;	COMDAT ?AtlGetStringResourceImage@ATL@@YAPBUATLSTRINGRESOURCEIMAGE@1@PAUHINSTANCE__@@I@Z
_TEXT	SEGMENT
_hInstance$ = 8						; size = 4
_id$ = 12						; size = 4
?AtlGetStringResourceImage@ATL@@YAPBUATLSTRINGRESOURCEIMAGE@1@PAUHINSTANCE__@@I@Z PROC NEAR ; ATL::AtlGetStringResourceImage, COMDAT

; 280  : {

  00000	56		 push	 esi

; 281  : 	HRSRC hResource;
; 282  : 
; 283  : 	hResource = ::FindResource( hInstance, MAKEINTRESOURCE( ((id>>4)+1) ), RT_STRING );

  00001	8b 74 24 0c	 mov	 esi, DWORD PTR _id$[esp]
  00005	8b c6		 mov	 eax, esi
  00007	c1 e8 04	 shr	 eax, 4
  0000a	57		 push	 edi
  0000b	8b 7c 24 0c	 mov	 edi, DWORD PTR _hInstance$[esp+4]
  0000f	40		 inc	 eax
  00010	0f b7 c8	 movzx	 ecx, ax
  00013	6a 06		 push	 6
  00015	51		 push	 ecx
  00016	57		 push	 edi
  00017	ff 15 00 00 00
	00		 call	 DWORD PTR __imp__FindResourceA@12

; 284  : 	if( hResource == NULL )

  0001d	85 c0		 test	 eax, eax
  0001f	75 03		 jne	 SHORT $L59431
  00021	5f		 pop	 edi
  00022	5e		 pop	 esi

; 290  : }

  00023	c3		 ret	 0
$L59431:

; 285  : 	{
; 286  : 		return( NULL );
; 287  : 	}
; 288  : 
; 289  : 	return _AtlGetStringResourceImage( hInstance, hResource, id );

  00024	56		 push	 esi
  00025	50		 push	 eax
  00026	57		 push	 edi
  00027	e8 00 00 00 00	 call	 ?_AtlGetStringResourceImage@ATL@@YAPBUATLSTRINGRESOURCEIMAGE@1@PAUHINSTANCE__@@PAUHRSRC__@@I@Z ; ATL::_AtlGetStringResourceImage
  0002c	83 c4 0c	 add	 esp, 12			; 0000000cH
  0002f	5f		 pop	 edi
  00030	5e		 pop	 esi

; 290  : }

  00031	c3		 ret	 0
?AtlGetStringResourceImage@ATL@@YAPBUATLSTRINGRESOURCEIMAGE@1@PAUHINSTANCE__@@I@Z ENDP ; ATL::AtlGetStringResourceImage
_TEXT	ENDS
PUBLIC	?AtlGetStringResourceImage@ATL@@YAPBUATLSTRINGRESOURCEIMAGE@1@PAUHINSTANCE__@@IG@Z ; ATL::AtlGetStringResourceImage
EXTRN	__imp__FindResourceExA@16:NEAR
; Function compile flags: /Ogty
;	COMDAT ?AtlGetStringResourceImage@ATL@@YAPBUATLSTRINGRESOURCEIMAGE@1@PAUHINSTANCE__@@IG@Z
_TEXT	SEGMENT
_hInstance$ = 8						; size = 4
_id$ = 12						; size = 4
_wLanguage$ = 16					; size = 2
?AtlGetStringResourceImage@ATL@@YAPBUATLSTRINGRESOURCEIMAGE@1@PAUHINSTANCE__@@IG@Z PROC NEAR ; ATL::AtlGetStringResourceImage, COMDAT

; 294  : 	HRSRC hResource;
; 295  : 
; 296  : 	hResource = ::FindResourceEx( hInstance, RT_STRING, MAKEINTRESOURCE( ((id>>4)+1) ), wLanguage );

  00000	8b 44 24 0c	 mov	 eax, DWORD PTR _wLanguage$[esp-4]
  00004	56		 push	 esi
  00005	8b 74 24 0c	 mov	 esi, DWORD PTR _id$[esp]
  00009	8b ce		 mov	 ecx, esi
  0000b	57		 push	 edi
  0000c	8b 7c 24 0c	 mov	 edi, DWORD PTR _hInstance$[esp+4]
  00010	c1 e9 04	 shr	 ecx, 4
  00013	41		 inc	 ecx
  00014	50		 push	 eax
  00015	0f b7 d1	 movzx	 edx, cx
  00018	52		 push	 edx
  00019	6a 06		 push	 6
  0001b	57		 push	 edi
  0001c	ff 15 00 00 00
	00		 call	 DWORD PTR __imp__FindResourceExA@16

; 297  : 	if( hResource == NULL )

  00022	85 c0		 test	 eax, eax
  00024	75 03		 jne	 SHORT $L59445
  00026	5f		 pop	 edi
  00027	5e		 pop	 esi

; 303  : }

  00028	c3		 ret	 0
$L59445:

; 298  : 	{
; 299  : 		return( NULL );
; 300  : 	}
; 301  : 
; 302  : 	return _AtlGetStringResourceImage( hInstance, hResource, id );

  00029	56		 push	 esi
  0002a	50		 push	 eax
  0002b	57		 push	 edi
  0002c	e8 00 00 00 00	 call	 ?_AtlGetStringResourceImage@ATL@@YAPBUATLSTRINGRESOURCEIMAGE@1@PAUHINSTANCE__@@PAUHRSRC__@@I@Z ; ATL::_AtlGetStringResourceImage
  00031	83 c4 0c	 add	 esp, 12			; 0000000cH
  00034	5f		 pop	 edi
  00035	5e		 pop	 esi

; 303  : }

  00036	c3		 ret	 0
?AtlGetStringResourceImage@ATL@@YAPBUATLSTRINGRESOURCEIMAGE@1@PAUHINSTANCE__@@IG@Z ENDP ; ATL::AtlGetStringResourceImage
_TEXT	ENDS
PUBLIC	?AtlLoadString@ATL@@YAHIPADH@Z			; ATL::AtlLoadString
EXTRN	__imp__LoadStringA@16:NEAR
EXTRN	?GetHInstanceAt@CAtlBaseModule@ATL@@QAEPAUHINSTANCE__@@H@Z:NEAR ; ATL::CAtlBaseModule::GetHInstanceAt
EXTRN	?_AtlBaseModule@ATL@@3VCAtlBaseModule@1@A:BYTE	; ATL::_AtlBaseModule
; Function compile flags: /Ogty
;	COMDAT ?AtlLoadString@ATL@@YAHIPADH@Z
_TEXT	SEGMENT
_nID$ = 8						; size = 4
_lpBuffer$ = 12						; size = 4
_nBufferMax$ = 16					; size = 4
?AtlLoadString@ATL@@YAHIPADH@Z PROC NEAR		; ATL::AtlLoadString, COMDAT

; 330  : {

  00000	56		 push	 esi
  00001	57		 push	 edi

; 331  : 	HINSTANCE hInst = _AtlBaseModule.GetHInstanceAt(0);

  00002	6a 00		 push	 0
  00004	b9 00 00 00 00	 mov	 ecx, OFFSET FLAT:?_AtlBaseModule@ATL@@3VCAtlBaseModule@1@A
  00009	e8 00 00 00 00	 call	 ?GetHInstanceAt@CAtlBaseModule@ATL@@QAEPAUHINSTANCE__@@H@Z ; ATL::CAtlBaseModule::GetHInstanceAt

; 332  : 	int nRet = 0;

  0000e	33 ff		 xor	 edi, edi

; 333  : 
; 334  : 	for (int i = 1; hInst != NULL && nRet == 0; hInst = _AtlBaseModule.GetHInstanceAt(i++))

  00010	85 c0		 test	 eax, eax
  00012	be 01 00 00 00	 mov	 esi, 1
  00017	74 30		 je	 SHORT $L112592
  00019	53		 push	 ebx
  0001a	8b 5c 24 18	 mov	 ebx, DWORD PTR _nBufferMax$[esp+8]
  0001e	55		 push	 ebp
  0001f	8b 6c 24 18	 mov	 ebp, DWORD PTR _lpBuffer$[esp+12]
$L59475:
  00023	85 ff		 test	 edi, edi
  00025	75 20		 jne	 SHORT $L112593

; 335  : 	{
; 336  : 		nRet = LoadString(hInst, nID, lpBuffer, nBufferMax);

  00027	8b 4c 24 14	 mov	 ecx, DWORD PTR _nID$[esp+12]
  0002b	53		 push	 ebx
  0002c	55		 push	 ebp
  0002d	51		 push	 ecx
  0002e	50		 push	 eax
  0002f	ff 15 00 00 00
	00		 call	 DWORD PTR __imp__LoadStringA@16
  00035	56		 push	 esi
  00036	b9 00 00 00 00	 mov	 ecx, OFFSET FLAT:?_AtlBaseModule@ATL@@3VCAtlBaseModule@1@A
  0003b	8b f8		 mov	 edi, eax
  0003d	e8 00 00 00 00	 call	 ?GetHInstanceAt@CAtlBaseModule@ATL@@QAEPAUHINSTANCE__@@H@Z ; ATL::CAtlBaseModule::GetHInstanceAt
  00042	46		 inc	 esi
  00043	85 c0		 test	 eax, eax
  00045	75 dc		 jne	 SHORT $L59475
$L112593:
  00047	5d		 pop	 ebp
  00048	5b		 pop	 ebx
$L112592:

; 337  : 	}
; 338  : 	return nRet;

  00049	8b c7		 mov	 eax, edi
  0004b	5f		 pop	 edi
  0004c	5e		 pop	 esi

; 339  : }

  0004d	c3		 ret	 0
?AtlLoadString@ATL@@YAHIPADH@Z ENDP			; ATL::AtlLoadString
_TEXT	ENDS
PUBLIC	?AtlFindStringResourceInstance@ATL@@YAPAUHINSTANCE__@@IG@Z ; ATL::AtlFindStringResourceInstance
; Function compile flags: /Ogty
;	COMDAT ?AtlFindStringResourceInstance@ATL@@YAPAUHINSTANCE__@@IG@Z
_TEXT	SEGMENT
_nID$ = 8						; size = 4
_wLanguage$ = 12					; size = 2
?AtlFindStringResourceInstance@ATL@@YAPAUHINSTANCE__@@IG@Z PROC NEAR ; ATL::AtlFindStringResourceInstance, COMDAT

; 380  : {

  00000	53		 push	 ebx
  00001	55		 push	 ebp
  00002	56		 push	 esi
  00003	57		 push	 edi

; 381  : 	const ATLSTRINGRESOURCEIMAGE* p = NULL;

  00004	33 ff		 xor	 edi, edi

; 382  : 	HINSTANCE hInst = _AtlBaseModule.GetHInstanceAt(0);

  00006	57		 push	 edi
  00007	b9 00 00 00 00	 mov	 ecx, OFFSET FLAT:?_AtlBaseModule@ATL@@3VCAtlBaseModule@1@A
  0000c	e8 00 00 00 00	 call	 ?GetHInstanceAt@CAtlBaseModule@ATL@@QAEPAUHINSTANCE__@@H@Z ; ATL::CAtlBaseModule::GetHInstanceAt
  00011	8b f0		 mov	 esi, eax

; 383  : 
; 384  : 	for (int i = 1; hInst != NULL && p == NULL; hInst = _AtlBaseModule.GetHInstanceAt(i++))

  00013	85 f6		 test	 esi, esi
  00015	bd 01 00 00 00	 mov	 ebp, 1
  0001a	74 47		 je	 SHORT $L59538
  0001c	8b 5c 24 14	 mov	 ebx, DWORD PTR _nID$[esp+12]
$L59536:
  00020	85 ff		 test	 edi, edi
  00022	75 3f		 jne	 SHORT $L59538

; 385  : 	{
; 386  : 		p = AtlGetStringResourceImage(hInst, nID, wLanguage);

  00024	8b 44 24 18	 mov	 eax, DWORD PTR _wLanguage$[esp+12]
  00028	8b cb		 mov	 ecx, ebx
  0002a	c1 e9 04	 shr	 ecx, 4
  0002d	41		 inc	 ecx
  0002e	50		 push	 eax
  0002f	0f b7 d1	 movzx	 edx, cx
  00032	52		 push	 edx
  00033	6a 06		 push	 6
  00035	56		 push	 esi
  00036	ff 15 00 00 00
	00		 call	 DWORD PTR __imp__FindResourceExA@16
  0003c	85 c0		 test	 eax, eax
  0003e	74 11		 je	 SHORT $L112607
$L112602:
  00040	53		 push	 ebx
  00041	50		 push	 eax
  00042	56		 push	 esi
  00043	e8 00 00 00 00	 call	 ?_AtlGetStringResourceImage@ATL@@YAPBUATLSTRINGRESOURCEIMAGE@1@PAUHINSTANCE__@@PAUHRSRC__@@I@Z ; ATL::_AtlGetStringResourceImage
  00048	8b f8		 mov	 edi, eax
  0004a	83 c4 0c	 add	 esp, 12			; 0000000cH

; 387  : 		if (p != NULL)

  0004d	85 ff		 test	 edi, edi
  0004f	75 19		 jne	 SHORT $L112605
$L112607:

; 383  : 
; 384  : 	for (int i = 1; hInst != NULL && p == NULL; hInst = _AtlBaseModule.GetHInstanceAt(i++))

  00051	55		 push	 ebp
  00052	b9 00 00 00 00	 mov	 ecx, OFFSET FLAT:?_AtlBaseModule@ATL@@3VCAtlBaseModule@1@A
  00057	e8 00 00 00 00	 call	 ?GetHInstanceAt@CAtlBaseModule@ATL@@QAEPAUHINSTANCE__@@H@Z ; ATL::CAtlBaseModule::GetHInstanceAt
  0005c	8b f0		 mov	 esi, eax
  0005e	45		 inc	 ebp
  0005f	85 f6		 test	 esi, esi
  00061	75 bd		 jne	 SHORT $L59536
$L59538:
  00063	5f		 pop	 edi
  00064	5e		 pop	 esi
  00065	5d		 pop	 ebp

; 389  : 	}
; 390  : 
; 391  : 	return NULL;

  00066	33 c0		 xor	 eax, eax
  00068	5b		 pop	 ebx

; 392  : }

  00069	c3		 ret	 0
$L112605:
  0006a	5f		 pop	 edi

; 388  : 			return hInst;

  0006b	8b c6		 mov	 eax, esi
  0006d	5e		 pop	 esi
  0006e	5d		 pop	 ebp
  0006f	5b		 pop	 ebx

; 392  : }

  00070	c3		 ret	 0
?AtlFindStringResourceInstance@ATL@@YAPAUHINSTANCE__@@IG@Z ENDP ; ATL::AtlFindStringResourceInstance
_TEXT	ENDS
PUBLIC	?AtlHresultFromLastError@ATL@@YAJXZ		; ATL::AtlHresultFromLastError
EXTRN	__imp__GetLastError@0:NEAR
; Function compile flags: /Ogty
; File c:\program files (x86)\microsoft visual studio .net 2003\vc7\atlmfc\include\atlcomcli.h
;	COMDAT ?AtlHresultFromLastError@ATL@@YAJXZ
_TEXT	SEGMENT
?AtlHresultFromLastError@ATL@@YAJXZ PROC NEAR		; ATL::AtlHresultFromLastError, COMDAT

; 27   : 	DWORD dwErr = ::GetLastError();

  00000	ff 15 00 00 00
	00		 call	 DWORD PTR __imp__GetLastError@0

; 28   : 	return HRESULT_FROM_WIN32(dwErr);

  00006	85 c0		 test	 eax, eax
  00008	7e 0a		 jle	 SHORT $L112612
  0000a	25 ff ff 00 00	 and	 eax, 65535		; 0000ffffH
  0000f	0d 00 00 07 80	 or	 eax, -2147024896	; 80070000H
$L112612:

; 29   : }

  00014	c3		 ret	 0
?AtlHresultFromLastError@ATL@@YAJXZ ENDP		; ATL::AtlHresultFromLastError
_TEXT	ENDS
PUBLIC	?AtlHresultFromWin32@ATL@@YAJK@Z		; ATL::AtlHresultFromWin32
; Function compile flags: /Ogty
;	COMDAT ?AtlHresultFromWin32@ATL@@YAJK@Z
_TEXT	SEGMENT
_nError$ = 8						; size = 4
?AtlHresultFromWin32@ATL@@YAJK@Z PROC NEAR		; ATL::AtlHresultFromWin32, COMDAT

; 33   : 	return( HRESULT_FROM_WIN32( nError ) );

  00000	8b 44 24 04	 mov	 eax, DWORD PTR _nError$[esp-4]
  00004	85 c0		 test	 eax, eax
  00006	7e 0a		 jle	 SHORT $L112617
  00008	25 ff ff 00 00	 and	 eax, 65535		; 0000ffffH
  0000d	0d 00 00 07 80	 or	 eax, -2147024896	; 80070000H
$L112617:

; 34   : }

  00012	c3		 ret	 0
?AtlHresultFromWin32@ATL@@YAJK@Z ENDP			; ATL::AtlHresultFromWin32
_TEXT	ENDS
PUBLIC	?size@?$vector@PAUtagTITEM@@V?$allocator@PAUtagTITEM@@@std@@@std@@QBEIXZ ; std::vector<tagTITEM *,std::allocator<tagTITEM *> >::size
; Function compile flags: /Ogty
; File c:\program files (x86)\microsoft visual studio .net 2003\vc7\include\vector
;	COMDAT ?size@?$vector@PAUtagTITEM@@V?$allocator@PAUtagTITEM@@@std@@@std@@QBEIXZ
_TEXT	SEGMENT
?size@?$vector@PAUtagTITEM@@V?$allocator@PAUtagTITEM@@@std@@@std@@QBEIXZ PROC NEAR ; std::vector<tagTITEM *,std::allocator<tagTITEM *> >::size, COMDAT
; _this$ = ecx

; 516  : 		return (_Myfirst == 0 ? 0 : _Mylast - _Myfirst);

  00000	8b 51 04	 mov	 edx, DWORD PTR [ecx+4]
  00003	85 d2		 test	 edx, edx
  00005	75 03		 jne	 SHORT $L112621
  00007	33 c0		 xor	 eax, eax

; 517  : 		}

  00009	c3		 ret	 0
$L112621:

; 516  : 		return (_Myfirst == 0 ? 0 : _Mylast - _Myfirst);

  0000a	8b 41 08	 mov	 eax, DWORD PTR [ecx+8]
  0000d	2b c2		 sub	 eax, edx
  0000f	c1 f8 02	 sar	 eax, 2

; 517  : 		}

  00012	c3		 ret	 0
?size@?$vector@PAUtagTITEM@@V?$allocator@PAUtagTITEM@@@std@@@std@@QBEIXZ ENDP ; std::vector<tagTITEM *,std::allocator<tagTITEM *> >::size
_TEXT	ENDS
PUBLIC	?size@?$vector@PAUtagTCHAR@@V?$allocator@PAUtagTCHAR@@@std@@@std@@QBEIXZ ; std::vector<tagTCHAR *,std::allocator<tagTCHAR *> >::size
; Function compile flags: /Ogty
;	COMDAT ?size@?$vector@PAUtagTCHAR@@V?$allocator@PAUtagTCHAR@@@std@@@std@@QBEIXZ
_TEXT	SEGMENT
?size@?$vector@PAUtagTCHAR@@V?$allocator@PAUtagTCHAR@@@std@@@std@@QBEIXZ PROC NEAR ; std::vector<tagTCHAR *,std::allocator<tagTCHAR *> >::size, COMDAT
; _this$ = ecx

; 516  : 		return (_Myfirst == 0 ? 0 : _Mylast - _Myfirst);

  00000	8b 51 04	 mov	 edx, DWORD PTR [ecx+4]
  00003	85 d2		 test	 edx, edx
  00005	75 03		 jne	 SHORT $L112626
  00007	33 c0		 xor	 eax, eax

; 517  : 		}

  00009	c3		 ret	 0
$L112626:

; 516  : 		return (_Myfirst == 0 ? 0 : _Mylast - _Myfirst);

  0000a	8b 41 08	 mov	 eax, DWORD PTR [ecx+8]
  0000d	2b c2		 sub	 eax, edx
  0000f	c1 f8 02	 sar	 eax, 2

; 517  : 		}

  00012	c3		 ret	 0
?size@?$vector@PAUtagTCHAR@@V?$allocator@PAUtagTCHAR@@@std@@@std@@QBEIXZ ENDP ; std::vector<tagTCHAR *,std::allocator<tagTCHAR *> >::size
_TEXT	ENDS
PUBLIC	?IsInstalled@?$CAtlServiceModuleT@VCTLoginSvrModule@@$0GE@@ATL@@QAEHXZ ; ATL::CAtlServiceModuleT<CTLoginSvrModule,100>::IsInstalled
EXTRN	__imp__CloseServiceHandle@4:NEAR
EXTRN	__imp__OpenSCManagerA@12:NEAR
EXTRN	__imp__OpenServiceA@12:NEAR
; Function compile flags: /Ogty
; File c:\program files (x86)\microsoft visual studio .net 2003\vc7\atlmfc\include\atlbase.h
;	COMDAT ?IsInstalled@?$CAtlServiceModuleT@VCTLoginSvrModule@@$0GE@@ATL@@QAEHXZ
_TEXT	SEGMENT
?IsInstalled@?$CAtlServiceModuleT@VCTLoginSvrModule@@$0GE@@ATL@@QAEHXZ PROC NEAR ; ATL::CAtlServiceModuleT<CTLoginSvrModule,100>::IsInstalled, COMDAT
; _this$ = ecx

; 3673 : 	{

  00000	53		 push	 ebx
  00001	56		 push	 esi
  00002	57		 push	 edi

; 3674 : 		BOOL bResult = FALSE;
; 3675 : 
; 3676 : 		SC_HANDLE hSCM = ::OpenSCManager(NULL, NULL, SC_MANAGER_ALL_ACCESS);

  00003	68 3f 00 0f 00	 push	 983103			; 000f003fH
  00008	33 db		 xor	 ebx, ebx
  0000a	53		 push	 ebx
  0000b	53		 push	 ebx
  0000c	8b f9		 mov	 edi, ecx
  0000e	ff 15 00 00 00
	00		 call	 DWORD PTR __imp__OpenSCManagerA@12
  00014	8b f0		 mov	 esi, eax

; 3677 : 
; 3678 : 		if (hSCM != NULL)

  00016	85 f6		 test	 esi, esi
  00018	74 22		 je	 SHORT $L112631

; 3679 : 		{
; 3680 : 			SC_HANDLE hService = ::OpenService(hSCM, m_szServiceName, SERVICE_QUERY_CONFIG);

  0001a	6a 01		 push	 1
  0001c	83 c7 2c	 add	 edi, 44			; 0000002cH
  0001f	57		 push	 edi
  00020	56		 push	 esi
  00021	ff 15 00 00 00
	00		 call	 DWORD PTR __imp__OpenServiceA@12

; 3681 : 			if (hService != NULL)

  00027	85 c0		 test	 eax, eax
  00029	8b 3d 00 00 00
	00		 mov	 edi, DWORD PTR __imp__CloseServiceHandle@4
  0002f	74 08		 je	 SHORT $L108747

; 3682 : 			{
; 3683 : 				bResult = TRUE;
; 3684 : 				::CloseServiceHandle(hService);

  00031	50		 push	 eax
  00032	bb 01 00 00 00	 mov	 ebx, 1
  00037	ff d7		 call	 edi
$L108747:

; 3685 : 			}
; 3686 : 			::CloseServiceHandle(hSCM);

  00039	56		 push	 esi
  0003a	ff d7		 call	 edi
$L112631:
  0003c	5f		 pop	 edi
  0003d	5e		 pop	 esi

; 3687 : 		}
; 3688 : 		return bResult;

  0003e	8b c3		 mov	 eax, ebx
  00040	5b		 pop	 ebx

; 3689 : 	}

  00041	c3		 ret	 0
?IsInstalled@?$CAtlServiceModuleT@VCTLoginSvrModule@@$0GE@@ATL@@QAEHXZ ENDP ; ATL::CAtlServiceModuleT<CTLoginSvrModule,100>::IsInstalled
_TEXT	ENDS
PUBLIC	??_C@_0BH@JMOCNDDL@Could?5not?5open?5service?$AA@ ; `string'
PUBLIC	??_C@_0BH@GKJBBOLK@Could?5not?5stop?5service?$AA@ ; `string'
PUBLIC	??_C@_0BJ@NMBIIKKI@Could?5not?5delete?5service?$AA@ ; `string'
PUBLIC	??_C@_0BP@GECJKCAK@Could?5not?5open?5Service?5Manager?$AA@ ; `string'
PUBLIC	?Uninstall@?$CAtlServiceModuleT@VCTLoginSvrModule@@$0GE@@ATL@@QAEHXZ ; ATL::CAtlServiceModuleT<CTLoginSvrModule,100>::Uninstall
EXTRN	__imp__lstrcpyA@8:NEAR
EXTRN	__imp__ControlService@12:NEAR
EXTRN	__imp__DeleteService@4:NEAR
EXTRN	__imp__MessageBoxA@16:NEAR
;	COMDAT ??_C@_0BP@GECJKCAK@Could?5not?5open?5Service?5Manager?$AA@
CONST	SEGMENT
??_C@_0BP@GECJKCAK@Could?5not?5open?5Service?5Manager?$AA@ DB 'Could not '
	DB	'open Service Manager', 00H			; `string'
CONST	ENDS
;	COMDAT ??_C@_0BH@JMOCNDDL@Could?5not?5open?5service?$AA@
CONST	SEGMENT
??_C@_0BH@JMOCNDDL@Could?5not?5open?5service?$AA@ DB 'Could not open serv'
	DB	'ice', 00H					; `string'
CONST	ENDS
;	COMDAT ??_C@_0BH@GKJBBOLK@Could?5not?5stop?5service?$AA@
CONST	SEGMENT
??_C@_0BH@GKJBBOLK@Could?5not?5stop?5service?$AA@ DB 'Could not stop serv'
	DB	'ice', 00H					; `string'
CONST	ENDS
;	COMDAT ??_C@_0BJ@NMBIIKKI@Could?5not?5delete?5service?$AA@
CONST	SEGMENT
??_C@_0BJ@NMBIIKKI@Could?5not?5delete?5service?$AA@ DB 'Could not delete '
	DB	'service', 00H				; `string'
; Function compile flags: /Ogty
CONST	ENDS
;	COMDAT ?Uninstall@?$CAtlServiceModuleT@VCTLoginSvrModule@@$0GE@@ATL@@QAEHXZ
_TEXT	SEGMENT
_status$ = -2080					; size = 28
_szBuf$108766 = -2052					; size = 1024
_szBuf$108757 = -2052					; size = 1024
_szBuf$108753 = -2052					; size = 1024
_szBuf$ = -1028						; size = 1024
__$ArrayPad$ = -4					; size = 4
__$ReturnAddr$ = 4					; size = 4
?Uninstall@?$CAtlServiceModuleT@VCTLoginSvrModule@@$0GE@@ATL@@QAEHXZ PROC NEAR ; ATL::CAtlServiceModuleT<CTLoginSvrModule,100>::Uninstall, COMDAT
; _this$ = ecx

; 3738 : 	{

  00000	81 ec 20 08 00
	00		 sub	 esp, 2080		; 00000820H
  00006	a1 00 00 00 00	 mov	 eax, DWORD PTR ___security_cookie
  0000b	53		 push	 ebx
  0000c	55		 push	 ebp
  0000d	56		 push	 esi
  0000e	57		 push	 edi

; 3739 : 		if (!IsInstalled())

  0000f	68 3f 00 0f 00	 push	 983103			; 000f003fH
  00014	33 db		 xor	 ebx, ebx
  00016	53		 push	 ebx
  00017	53		 push	 ebx
  00018	89 84 24 38 08
	00 00		 mov	 DWORD PTR __$ArrayPad$[esp+2108], eax
  0001f	8b f9		 mov	 edi, ecx
  00021	ff 15 00 00 00
	00		 call	 DWORD PTR __imp__OpenSCManagerA@12
  00027	8b f0		 mov	 esi, eax
  00029	85 f6		 test	 esi, esi
  0002b	0f 84 34 01 00
	00		 je	 $L112646
  00031	8b 2d 00 00 00
	00		 mov	 ebp, DWORD PTR __imp__OpenServiceA@12
  00037	6a 01		 push	 1
  00039	83 c7 2c	 add	 edi, 44			; 0000002cH
  0003c	57		 push	 edi
  0003d	56		 push	 esi
  0003e	ff d5		 call	 ebp
  00040	85 c0		 test	 eax, eax
  00042	74 0c		 je	 SHORT $L112645
  00044	50		 push	 eax
  00045	bb 01 00 00 00	 mov	 ebx, 1
  0004a	ff 15 00 00 00
	00		 call	 DWORD PTR __imp__CloseServiceHandle@4
$L112645:
  00050	56		 push	 esi
  00051	ff 15 00 00 00
	00		 call	 DWORD PTR __imp__CloseServiceHandle@4
  00057	85 db		 test	 ebx, ebx

; 3740 : 			return TRUE;

  00059	0f 84 06 01 00
	00		 je	 $L112646

; 3741 : 
; 3742 : 		SC_HANDLE hSCM = ::OpenSCManager(NULL, NULL, SC_MANAGER_ALL_ACCESS);

  0005f	68 3f 00 0f 00	 push	 983103			; 000f003fH
  00064	6a 00		 push	 0
  00066	6a 00		 push	 0
  00068	ff 15 00 00 00
	00		 call	 DWORD PTR __imp__OpenSCManagerA@12
  0006e	8b d8		 mov	 ebx, eax

; 3743 : 
; 3744 : 		if (hSCM == NULL)

  00070	85 db		 test	 ebx, ebx
  00072	75 22		 jne	 SHORT $L108752

; 3745 : 		{
; 3746 : 			TCHAR szBuf[1024];
; 3747 : 			if (AtlLoadString(ATL_SERVICE_MANAGER_OPEN_ERROR, szBuf, 1024) == 0)

  00074	68 00 04 00 00	 push	 1024			; 00000400H
  00079	8d 44 24 30	 lea	 eax, DWORD PTR _szBuf$108753[esp+2100]
  0007d	50		 push	 eax
  0007e	68 0a d8 00 00	 push	 55306			; 0000d80aH
  00083	e8 00 00 00 00	 call	 ?AtlLoadString@ATL@@YAHIPADH@Z ; ATL::AtlLoadString
  00088	83 c4 0c	 add	 esp, 12			; 0000000cH
  0008b	85 c0		 test	 eax, eax
  0008d	75 48		 jne	 SHORT $L108758

; 3748 : 				lstrcpy(szBuf,  _T("Could not open Service Manager"));

  0008f	68 00 00 00 00	 push	 OFFSET FLAT:??_C@_0BP@GECJKCAK@Could?5not?5open?5Service?5Manager?$AA@

; 3749 : 			MessageBox(NULL, szBuf, m_szServiceName, MB_OK);
; 3750 : 			return FALSE;

  00094	eb 36		 jmp	 SHORT $L112649
$L108752:

; 3751 : 		}
; 3752 : 
; 3753 : 		SC_HANDLE hService = ::OpenService(hSCM, m_szServiceName, SERVICE_STOP | DELETE);

  00096	68 20 00 01 00	 push	 65568			; 00010020H
  0009b	57		 push	 edi
  0009c	53		 push	 ebx
  0009d	ff d5		 call	 ebp
  0009f	8b f0		 mov	 esi, eax

; 3754 : 
; 3755 : 		if (hService == NULL)

  000a1	85 f6		 test	 esi, esi
  000a3	75 3f		 jne	 SHORT $L108756

; 3756 : 		{
; 3757 : 			::CloseServiceHandle(hSCM);

  000a5	53		 push	 ebx
  000a6	ff 15 00 00 00
	00		 call	 DWORD PTR __imp__CloseServiceHandle@4

; 3758 : 			TCHAR szBuf[1024];
; 3759 : 			if (AtlLoadString(ATL_SERVICE_OPEN_ERROR, szBuf, 1024) == 0)

  000ac	68 00 04 00 00	 push	 1024			; 00000400H
  000b1	8d 44 24 30	 lea	 eax, DWORD PTR _szBuf$108757[esp+2100]
  000b5	50		 push	 eax
  000b6	68 0c d8 00 00	 push	 55308			; 0000d80cH
  000bb	e8 00 00 00 00	 call	 ?AtlLoadString@ATL@@YAHIPADH@Z ; ATL::AtlLoadString
  000c0	83 c4 0c	 add	 esp, 12			; 0000000cH
  000c3	85 c0		 test	 eax, eax
  000c5	75 10		 jne	 SHORT $L108758

; 3760 : 				lstrcpy(szBuf,  _T("Could not open service"));

  000c7	68 00 00 00 00	 push	 OFFSET FLAT:??_C@_0BH@JMOCNDDL@Could?5not?5open?5service?$AA@
$L112649:
  000cc	8d 4c 24 30	 lea	 ecx, DWORD PTR _szBuf$108757[esp+2100]
  000d0	51		 push	 ecx
  000d1	ff 15 00 00 00
	00		 call	 DWORD PTR __imp__lstrcpyA@8
$L108758:

; 3761 : 			MessageBox(NULL, szBuf, m_szServiceName, MB_OK);

  000d7	6a 00		 push	 0
  000d9	57		 push	 edi
  000da	8d 54 24 34	 lea	 edx, DWORD PTR _szBuf$108757[esp+2104]
  000de	52		 push	 edx

; 3762 : 			return FALSE;

  000df	e9 d9 00 00 00	 jmp	 $L112648
$L108756:

; 3763 : 		}
; 3764 : 		SERVICE_STATUS status;
; 3765 : 		BOOL bRet = ::ControlService(hService, SERVICE_CONTROL_STOP, &status);

  000e4	8d 44 24 10	 lea	 eax, DWORD PTR _status$[esp+2096]
  000e8	50		 push	 eax
  000e9	6a 01		 push	 1
  000eb	56		 push	 esi
  000ec	ff 15 00 00 00
	00		 call	 DWORD PTR __imp__ControlService@12

; 3766 : 		if (!bRet)

  000f2	85 c0		 test	 eax, eax
  000f4	75 56		 jne	 SHORT $L108764

; 3767 : 		{
; 3768 : 			DWORD dwError = GetLastError();

  000f6	ff 15 00 00 00
	00		 call	 DWORD PTR __imp__GetLastError@0

; 3769 : 			if (!((dwError == ERROR_SERVICE_NOT_ACTIVE) ||  (dwError == ERROR_SERVICE_CANNOT_ACCEPT_CTRL && status.dwCurrentState == SERVICE_STOP_PENDING)))

  000fc	3d 26 04 00 00	 cmp	 eax, 1062		; 00000426H
  00101	74 49		 je	 SHORT $L108764
  00103	3d 25 04 00 00	 cmp	 eax, 1061		; 00000425H
  00108	75 07		 jne	 SHORT $L108765
  0010a	83 7c 24 14 03	 cmp	 DWORD PTR _status$[esp+2100], 3
  0010f	74 3b		 je	 SHORT $L108764
$L108765:

; 3770 : 			{
; 3771 : 				TCHAR szBuf[1024];
; 3772 : 				if (AtlLoadString(ATL_SERVICE_STOP_ERROR, szBuf, 1024) == 0)

  00111	68 00 04 00 00	 push	 1024			; 00000400H
  00116	8d 4c 24 30	 lea	 ecx, DWORD PTR _szBuf$108766[esp+2100]
  0011a	51		 push	 ecx
  0011b	68 0e d8 00 00	 push	 55310			; 0000d80eH
  00120	e8 00 00 00 00	 call	 ?AtlLoadString@ATL@@YAHIPADH@Z ; ATL::AtlLoadString
  00125	83 c4 0c	 add	 esp, 12			; 0000000cH
  00128	85 c0		 test	 eax, eax
  0012a	75 10		 jne	 SHORT $L108767

; 3773 : 					lstrcpy(szBuf,  _T("Could not stop service"));

  0012c	68 00 00 00 00	 push	 OFFSET FLAT:??_C@_0BH@GKJBBOLK@Could?5not?5stop?5service?$AA@
  00131	8d 54 24 30	 lea	 edx, DWORD PTR _szBuf$108766[esp+2100]
  00135	52		 push	 edx
  00136	ff 15 00 00 00
	00		 call	 DWORD PTR __imp__lstrcpyA@8
$L108767:

; 3774 : 				MessageBox(NULL, szBuf, m_szServiceName, MB_OK);

  0013c	6a 00		 push	 0
  0013e	57		 push	 edi
  0013f	8d 44 24 34	 lea	 eax, DWORD PTR _szBuf$108766[esp+2104]
  00143	50		 push	 eax
  00144	6a 00		 push	 0
  00146	ff 15 00 00 00
	00		 call	 DWORD PTR __imp__MessageBoxA@16
$L108764:

; 3775 : 			}
; 3776 : 		}
; 3777 : 
; 3778 : 
; 3779 : 		BOOL bDelete = ::DeleteService(hService);

  0014c	56		 push	 esi
  0014d	ff 15 00 00 00
	00		 call	 DWORD PTR __imp__DeleteService@4

; 3780 : 		::CloseServiceHandle(hService);

  00153	56		 push	 esi
  00154	8b 35 00 00 00
	00		 mov	 esi, DWORD PTR __imp__CloseServiceHandle@4
  0015a	8b e8		 mov	 ebp, eax
  0015c	ff d6		 call	 esi

; 3781 : 		::CloseServiceHandle(hSCM);

  0015e	53		 push	 ebx
  0015f	ff d6		 call	 esi

; 3782 : 
; 3783 : 		if (bDelete)

  00161	85 ed		 test	 ebp, ebp
  00163	74 1c		 je	 SHORT $L108770
$L112646:
  00165	5f		 pop	 edi
  00166	5e		 pop	 esi
  00167	5d		 pop	 ebp

; 3784 : 			return TRUE;

  00168	b8 01 00 00 00	 mov	 eax, 1
  0016d	5b		 pop	 ebx

; 3790 : 		return FALSE;
; 3791 : 	}

  0016e	8b 8c 24 1c 08
	00 00		 mov	 ecx, DWORD PTR __$ArrayPad$[esp+2080]
  00175	e8 00 00 00 00	 call	 @__security_check_cookie@4
  0017a	81 c4 20 08 00
	00		 add	 esp, 2080		; 00000820H
  00180	c3		 ret	 0
$L108770:

; 3785 : 
; 3786 : 		TCHAR szBuf[1024];
; 3787 : 		if (AtlLoadString(ATL_SERVICE_DELETE_ERROR, szBuf, 1024) == 0)

  00181	68 00 04 00 00	 push	 1024			; 00000400H
  00186	8d 8c 24 30 04
	00 00		 lea	 ecx, DWORD PTR _szBuf$[esp+2100]
  0018d	51		 push	 ecx
  0018e	68 0d d8 00 00	 push	 55309			; 0000d80dH
  00193	e8 00 00 00 00	 call	 ?AtlLoadString@ATL@@YAHIPADH@Z ; ATL::AtlLoadString
  00198	83 c4 0c	 add	 esp, 12			; 0000000cH
  0019b	85 c0		 test	 eax, eax
  0019d	75 13		 jne	 SHORT $L108772

; 3788 : 			lstrcpy(szBuf,  _T("Could not delete service"));

  0019f	68 00 00 00 00	 push	 OFFSET FLAT:??_C@_0BJ@NMBIIKKI@Could?5not?5delete?5service?$AA@
  001a4	8d 94 24 30 04
	00 00		 lea	 edx, DWORD PTR _szBuf$[esp+2100]
  001ab	52		 push	 edx
  001ac	ff 15 00 00 00
	00		 call	 DWORD PTR __imp__lstrcpyA@8
$L108772:

; 3789 : 		MessageBox(NULL, szBuf, m_szServiceName, MB_OK);

  001b2	6a 00		 push	 0
  001b4	57		 push	 edi
  001b5	8d 84 24 34 04
	00 00		 lea	 eax, DWORD PTR _szBuf$[esp+2104]
  001bc	50		 push	 eax
$L112648:
  001bd	6a 00		 push	 0
  001bf	ff 15 00 00 00
	00		 call	 DWORD PTR __imp__MessageBoxA@16

; 3790 : 		return FALSE;
; 3791 : 	}

  001c5	8b 8c 24 2c 08
	00 00		 mov	 ecx, DWORD PTR __$ArrayPad$[esp+2096]
  001cc	5f		 pop	 edi
  001cd	5e		 pop	 esi
  001ce	5d		 pop	 ebp
  001cf	33 c0		 xor	 eax, eax
  001d1	5b		 pop	 ebx
  001d2	e8 00 00 00 00	 call	 @__security_check_cookie@4
  001d7	81 c4 20 08 00
	00		 add	 esp, 2080		; 00000820H
  001dd	c3		 ret	 0
?Uninstall@?$CAtlServiceModuleT@VCTLoginSvrModule@@$0GE@@ATL@@QAEHXZ ENDP ; ATL::CAtlServiceModuleT<CTLoginSvrModule,100>::Uninstall
_TEXT	ENDS
PUBLIC	?LogEvent@?$CAtlServiceModuleT@VCTLoginSvrModule@@$0GE@@ATL@@QAAXPBDZZ ; ATL::CAtlServiceModuleT<CTLoginSvrModule,100>::LogEvent
EXTRN	_puts:NEAR
EXTRN	__imp__DeregisterEventSource@4:NEAR
EXTRN	__imp__RegisterEventSourceA@8:NEAR
EXTRN	__imp__ReportEventA@36:NEAR
EXTRN	_vsprintf:NEAR
; Function compile flags: /Ogty
;	COMDAT ?LogEvent@?$CAtlServiceModuleT@VCTLoginSvrModule@@$0GE@@ATL@@QAAXPBDZZ
_TEXT	SEGMENT
_lpszStrings$ = -264					; size = 4
_chMsg$ = -260						; size = 256
__$ArrayPad$ = -4					; size = 4
__$ReturnAddr$ = 4					; size = 4
_this$ = 8						; size = 4
_pszFormat$ = 12					; size = 4
?LogEvent@?$CAtlServiceModuleT@VCTLoginSvrModule@@$0GE@@ATL@@QAAXPBDZZ PROC NEAR ; ATL::CAtlServiceModuleT<CTLoginSvrModule,100>::LogEvent, COMDAT

; 3835 : 	{

  00000	81 ec 08 01 00
	00		 sub	 esp, 264		; 00000108H
  00006	a1 00 00 00 00	 mov	 eax, DWORD PTR ___security_cookie

; 3836 : 		TCHAR chMsg[256];
; 3837 : 		HANDLE hEventSource;
; 3838 : 		LPTSTR lpszStrings[1];
; 3839 : 		va_list pArg;
; 3840 : 
; 3841 : 		va_start(pArg, pszFormat);
; 3842 : 		_vstprintf(chMsg, pszFormat, pArg);

  0000b	8b 8c 24 10 01
	00 00		 mov	 ecx, DWORD PTR _pszFormat$[esp+260]
  00012	89 84 24 04 01
	00 00		 mov	 DWORD PTR __$ArrayPad$[esp+264], eax
  00019	56		 push	 esi
  0001a	8d 84 24 18 01
	00 00		 lea	 eax, DWORD PTR _pszFormat$[esp+268]
  00021	50		 push	 eax
  00022	51		 push	 ecx
  00023	8d 54 24 10	 lea	 edx, DWORD PTR _chMsg$[esp+276]
  00027	52		 push	 edx
  00028	e8 00 00 00 00	 call	 _vsprintf

; 3843 : 		va_end(pArg);
; 3844 : 
; 3845 : 		lpszStrings[0] = chMsg;
; 3846 : 
; 3847 : 		if (!m_bService)

  0002d	8b b4 24 1c 01
	00 00		 mov	 esi, DWORD PTR _this$[esp+276]
  00034	8d 44 24 14	 lea	 eax, DWORD PTR _chMsg$[esp+280]
  00038	89 44 24 10	 mov	 DWORD PTR _lpszStrings$[esp+280], eax
  0003c	8b 86 4c 01 00
	00		 mov	 eax, DWORD PTR [esi+332]
  00042	83 c4 0c	 add	 esp, 12			; 0000000cH
  00045	85 c0		 test	 eax, eax
  00047	75 0d		 jne	 SHORT $L108790

; 3848 : 		{
; 3849 : 			// Not running as a service, so print out the error message 
; 3850 : 			// to the console if possible
; 3851 : 			_putts(chMsg);

  00049	8d 4c 24 08	 lea	 ecx, DWORD PTR _chMsg$[esp+268]
  0004d	51		 push	 ecx
  0004e	e8 00 00 00 00	 call	 _puts
  00053	83 c4 04	 add	 esp, 4
$L108790:

; 3852 : 		}
; 3853 : 
; 3854 : 		/* Get a handle to use with ReportEvent(). */
; 3855 : 		hEventSource = RegisterEventSource(NULL, m_szServiceName);

  00056	83 c6 2c	 add	 esi, 44			; 0000002cH
  00059	56		 push	 esi
  0005a	6a 00		 push	 0
  0005c	ff 15 00 00 00
	00		 call	 DWORD PTR __imp__RegisterEventSourceA@8
  00062	8b f0		 mov	 esi, eax

; 3856 : 		if (hEventSource != NULL)

  00064	85 f6		 test	 esi, esi
  00066	74 21		 je	 SHORT $L108791

; 3857 : 		{
; 3858 : 			/* Write to event log. */
; 3859 : 			ReportEvent(hEventSource, EVENTLOG_INFORMATION_TYPE, 0, 0, NULL, 1, 0, (LPCTSTR*) &lpszStrings[0], NULL);

  00068	6a 00		 push	 0
  0006a	8d 54 24 08	 lea	 edx, DWORD PTR _lpszStrings$[esp+272]
  0006e	52		 push	 edx
  0006f	6a 00		 push	 0
  00071	6a 01		 push	 1
  00073	6a 00		 push	 0
  00075	6a 00		 push	 0
  00077	6a 00		 push	 0
  00079	6a 04		 push	 4
  0007b	56		 push	 esi
  0007c	ff 15 00 00 00
	00		 call	 DWORD PTR __imp__ReportEventA@36

; 3860 : 			DeregisterEventSource(hEventSource);

  00082	56		 push	 esi
  00083	ff 15 00 00 00
	00		 call	 DWORD PTR __imp__DeregisterEventSource@4
$L108791:

; 3861 : 		}
; 3862 : 	}

  00089	8b 8c 24 08 01
	00 00		 mov	 ecx, DWORD PTR __$ArrayPad$[esp+268]
  00090	5e		 pop	 esi
  00091	e8 00 00 00 00	 call	 @__security_check_cookie@4
  00096	81 c4 08 01 00
	00		 add	 esp, 264		; 00000108H
  0009c	c3		 ret	 0
?LogEvent@?$CAtlServiceModuleT@VCTLoginSvrModule@@$0GE@@ATL@@QAAXPBDZZ ENDP ; ATL::CAtlServiceModuleT<CTLoginSvrModule,100>::LogEvent
_TEXT	ENDS
PUBLIC	?UnregisterServer@?$CAtlModuleT@VCTLoginSvrModule@@@ATL@@QAEJHPBU_GUID@@@Z ; ATL::CAtlModuleT<CTLoginSvrModule>::UnregisterServer
; Function compile flags: /Ogty
;	COMDAT ?UnregisterServer@?$CAtlModuleT@VCTLoginSvrModule@@@ATL@@QAEJHPBU_GUID@@@Z
_TEXT	SEGMENT
_bUnRegTypeLib$ = 8					; size = 4
_pCLSID$ = 12						; size = 4
?UnregisterServer@?$CAtlModuleT@VCTLoginSvrModule@@@ATL@@QAEJHPBU_GUID@@@Z PROC NEAR ; ATL::CAtlModuleT<CTLoginSvrModule>::UnregisterServer, COMDAT
; _this$ = ecx

; 2898 : 		(bUnRegTypeLib);
; 2899 : 		(pCLSID);
; 2900 : 
; 2901 : 		HRESULT hr = S_OK;
; 2902 : 
; 2903 : #ifndef _ATL_NO_PERF_SUPPORT
; 2904 : 
; 2905 : 		if (_pPerfUnRegFunc != NULL)

  00000	8b 0d 00 00 00
	00		 mov	 ecx, DWORD PTR ?_pPerfUnRegFunc@ATL@@3P6AJXZA ; ATL::_pPerfUnRegFunc
  00006	33 c0		 xor	 eax, eax
  00008	85 c9		 test	 ecx, ecx
  0000a	74 02		 je	 SHORT $L108808

; 2906 : 			hr = (*_pPerfUnRegFunc)();

  0000c	ff d1		 call	 ecx
$L108808:

; 2907 : 
; 2908 : #endif
; 2909 : 
; 2910 : #ifndef _ATL_NO_COM_SUPPORT
; 2911 : 
; 2912 : 		if (SUCCEEDED(hr))
; 2913 : 			hr = _AtlComModule.UnregisterServer(bUnRegTypeLib, pCLSID);
; 2914 : 
; 2915 : #endif	// _ATL_NO_COM_SUPPORT
; 2916 : 
; 2917 : 		return hr;
; 2918 : 
; 2919 : 	}

  0000e	c2 08 00	 ret	 8
?UnregisterServer@?$CAtlModuleT@VCTLoginSvrModule@@@ATL@@QAEJHPBU_GUID@@@Z ENDP ; ATL::CAtlModuleT<CTLoginSvrModule>::UnregisterServer
_TEXT	ENDS
PUBLIC	?size@?$_Tree@V?$_Tmap_traits@KPAVCTUser@@U?$less@K@std@@V?$allocator@U?$pair@$$CBKPAVCTUser@@@std@@@3@$0A@@std@@@std@@QBEIXZ ; std::_Tree<std::_Tmap_traits<unsigned long,CTUser *,std::less<unsigned long>,std::allocator<std::pair<unsigned long const ,CTUser *> >,0> >::size
; Function compile flags: /Ogty
; File c:\program files (x86)\microsoft visual studio .net 2003\vc7\include\xtree
;	COMDAT ?size@?$_Tree@V?$_Tmap_traits@KPAVCTUser@@U?$less@K@std@@V?$allocator@U?$pair@$$CBKPAVCTUser@@@std@@@3@$0A@@std@@@std@@QBEIXZ
_TEXT	SEGMENT
?size@?$_Tree@V?$_Tmap_traits@KPAVCTUser@@U?$less@K@std@@V?$allocator@U?$pair@$$CBKPAVCTUser@@@std@@@3@$0A@@std@@@std@@QBEIXZ PROC NEAR ; std::_Tree<std::_Tmap_traits<unsigned long,CTUser *,std::less<unsigned long>,std::allocator<std::pair<unsigned long const ,CTUser *> >,0> >::size, COMDAT
; _this$ = ecx

; 448  : 		return (_Mysize);

  00000	8b 41 08	 mov	 eax, DWORD PTR [ecx+8]

; 449  : 		}

  00003	c3		 ret	 0
?size@?$_Tree@V?$_Tmap_traits@KPAVCTUser@@U?$less@K@std@@V?$allocator@U?$pair@$$CBKPAVCTUser@@@std@@@3@$0A@@std@@@std@@QBEIXZ ENDP ; std::_Tree<std::_Tmap_traits<unsigned long,CTUser *,std::less<unsigned long>,std::allocator<std::pair<unsigned long const ,CTUser *> >,0> >::size
_TEXT	ENDS
PUBLIC	?size@?$_Tree@V?$_Tmap_traits@KKU?$less@K@std@@V?$allocator@U?$pair@$$CBKK@std@@@2@$0A@@std@@@std@@QBEIXZ ; std::_Tree<std::_Tmap_traits<unsigned long,unsigned long,std::less<unsigned long>,std::allocator<std::pair<unsigned long const ,unsigned long> >,0> >::size
; Function compile flags: /Ogty
;	COMDAT ?size@?$_Tree@V?$_Tmap_traits@KKU?$less@K@std@@V?$allocator@U?$pair@$$CBKK@std@@@2@$0A@@std@@@std@@QBEIXZ
_TEXT	SEGMENT
?size@?$_Tree@V?$_Tmap_traits@KKU?$less@K@std@@V?$allocator@U?$pair@$$CBKK@std@@@2@$0A@@std@@@std@@QBEIXZ PROC NEAR ; std::_Tree<std::_Tmap_traits<unsigned long,unsigned long,std::less<unsigned long>,std::allocator<std::pair<unsigned long const ,unsigned long> >,0> >::size, COMDAT
; _this$ = ecx

; 448  : 		return (_Mysize);

  00000	8b 41 08	 mov	 eax, DWORD PTR [ecx+8]

; 449  : 		}

  00003	c3		 ret	 0
?size@?$_Tree@V?$_Tmap_traits@KKU?$less@K@std@@V?$allocator@U?$pair@$$CBKK@std@@@2@$0A@@std@@@std@@QBEIXZ ENDP ; std::_Tree<std::_Tmap_traits<unsigned long,unsigned long,std::less<unsigned long>,std::allocator<std::pair<unsigned long const ,unsigned long> >,0> >::size
_TEXT	ENDS
PUBLIC	??0?$pair@$$CBKPAVCTUser@@@std@@QAE@ABKABQAVCTUser@@@Z ; std::pair<unsigned long const ,CTUser *>::pair<unsigned long const ,CTUser *>
; Function compile flags: /Ogty
; File c:\program files (x86)\microsoft visual studio .net 2003\vc7\include\utility
;	COMDAT ??0?$pair@$$CBKPAVCTUser@@@std@@QAE@ABKABQAVCTUser@@@Z
_TEXT	SEGMENT
__Val1$ = 8						; size = 4
__Val2$ = 12						; size = 4
??0?$pair@$$CBKPAVCTUser@@@std@@QAE@ABKABQAVCTUser@@@Z PROC NEAR ; std::pair<unsigned long const ,CTUser *>::pair<unsigned long const ,CTUser *>, COMDAT
; _this$ = ecx

; 34   : 		{	// construct from specified values

  00000	8b c1		 mov	 eax, ecx
  00002	8b 4c 24 04	 mov	 ecx, DWORD PTR __Val1$[esp-4]
  00006	8b 11		 mov	 edx, DWORD PTR [ecx]
  00008	8b 4c 24 08	 mov	 ecx, DWORD PTR __Val2$[esp-4]
  0000c	89 10		 mov	 DWORD PTR [eax], edx
  0000e	8b 11		 mov	 edx, DWORD PTR [ecx]
  00010	89 50 04	 mov	 DWORD PTR [eax+4], edx

; 35   : 		}

  00013	c2 08 00	 ret	 8
??0?$pair@$$CBKPAVCTUser@@@std@@QAE@ABKABQAVCTUser@@@Z ENDP ; std::pair<unsigned long const ,CTUser *>::pair<unsigned long const ,CTUser *>
_TEXT	ENDS
PUBLIC	??8const_iterator@?$_Tree@V?$_Tmap_traits@KKU?$less@K@std@@V?$allocator@U?$pair@$$CBKK@std@@@2@$0A@@std@@@std@@QBE_NABV012@@Z ; std::_Tree<std::_Tmap_traits<unsigned long,unsigned long,std::less<unsigned long>,std::allocator<std::pair<unsigned long const ,unsigned long> >,0> >::const_iterator::operator==
; Function compile flags: /Ogty
; File c:\program files (x86)\microsoft visual studio .net 2003\vc7\include\xtree
;	COMDAT ??8const_iterator@?$_Tree@V?$_Tmap_traits@KKU?$less@K@std@@V?$allocator@U?$pair@$$CBKK@std@@@2@$0A@@std@@@std@@QBE_NABV012@@Z
_TEXT	SEGMENT
__Right$ = 8						; size = 4
??8const_iterator@?$_Tree@V?$_Tmap_traits@KKU?$less@K@std@@V?$allocator@U?$pair@$$CBKK@std@@@2@$0A@@std@@@std@@QBE_NABV012@@Z PROC NEAR ; std::_Tree<std::_Tmap_traits<unsigned long,unsigned long,std::less<unsigned long>,std::allocator<std::pair<unsigned long const ,unsigned long> >,0> >::const_iterator::operator==, COMDAT
; _this$ = ecx

; 241  : 			return (_Ptr == _Right._Ptr);

  00000	8b 01		 mov	 eax, DWORD PTR [ecx]
  00002	8b 4c 24 04	 mov	 ecx, DWORD PTR __Right$[esp-4]
  00006	2b 01		 sub	 eax, DWORD PTR [ecx]
  00008	f7 d8		 neg	 eax
  0000a	1b c0		 sbb	 eax, eax
  0000c	40		 inc	 eax

; 242  : 			}

  0000d	c2 04 00	 ret	 4
??8const_iterator@?$_Tree@V?$_Tmap_traits@KKU?$less@K@std@@V?$allocator@U?$pair@$$CBKK@std@@@2@$0A@@std@@@std@@QBE_NABV012@@Z ENDP ; std::_Tree<std::_Tmap_traits<unsigned long,unsigned long,std::less<unsigned long>,std::allocator<std::pair<unsigned long const ,unsigned long> >,0> >::const_iterator::operator==
_TEXT	ENDS
PUBLIC	??9const_iterator@?$_Tree@V?$_Tmap_traits@KKU?$less@K@std@@V?$allocator@U?$pair@$$CBKK@std@@@2@$0A@@std@@@std@@QBE_NABV012@@Z ; std::_Tree<std::_Tmap_traits<unsigned long,unsigned long,std::less<unsigned long>,std::allocator<std::pair<unsigned long const ,unsigned long> >,0> >::const_iterator::operator!=
; Function compile flags: /Ogty
;	COMDAT ??9const_iterator@?$_Tree@V?$_Tmap_traits@KKU?$less@K@std@@V?$allocator@U?$pair@$$CBKK@std@@@2@$0A@@std@@@std@@QBE_NABV012@@Z
_TEXT	SEGMENT
__Right$ = 8						; size = 4
??9const_iterator@?$_Tree@V?$_Tmap_traits@KKU?$less@K@std@@V?$allocator@U?$pair@$$CBKK@std@@@2@$0A@@std@@@std@@QBE_NABV012@@Z PROC NEAR ; std::_Tree<std::_Tmap_traits<unsigned long,unsigned long,std::less<unsigned long>,std::allocator<std::pair<unsigned long const ,unsigned long> >,0> >::const_iterator::operator!=, COMDAT
; _this$ = ecx

; 246  : 			return (!(*this == _Right));

  00000	8b 01		 mov	 eax, DWORD PTR [ecx]
  00002	8b 54 24 04	 mov	 edx, DWORD PTR __Right$[esp-4]
  00006	56		 push	 esi
  00007	8b 32		 mov	 esi, DWORD PTR [edx]
  00009	33 c9		 xor	 ecx, ecx
  0000b	3b c6		 cmp	 eax, esi
  0000d	0f 95 c1	 setne	 cl
  00010	8a c1		 mov	 al, cl
  00012	5e		 pop	 esi

; 247  : 			}

  00013	c2 04 00	 ret	 4
??9const_iterator@?$_Tree@V?$_Tmap_traits@KKU?$less@K@std@@V?$allocator@U?$pair@$$CBKK@std@@@2@$0A@@std@@@std@@QBE_NABV012@@Z ENDP ; std::_Tree<std::_Tmap_traits<unsigned long,unsigned long,std::less<unsigned long>,std::allocator<std::pair<unsigned long const ,unsigned long> >,0> >::const_iterator::operator!=
_TEXT	ENDS
PUBLIC	??0?$pair@$$CBKK@std@@QAE@ABK0@Z		; std::pair<unsigned long const ,unsigned long>::pair<unsigned long const ,unsigned long>
; Function compile flags: /Ogty
; File c:\program files (x86)\microsoft visual studio .net 2003\vc7\include\utility
;	COMDAT ??0?$pair@$$CBKK@std@@QAE@ABK0@Z
_TEXT	SEGMENT
__Val1$ = 8						; size = 4
__Val2$ = 12						; size = 4
??0?$pair@$$CBKK@std@@QAE@ABK0@Z PROC NEAR		; std::pair<unsigned long const ,unsigned long>::pair<unsigned long const ,unsigned long>, COMDAT
; _this$ = ecx

; 34   : 		{	// construct from specified values

  00000	8b c1		 mov	 eax, ecx
  00002	8b 4c 24 04	 mov	 ecx, DWORD PTR __Val1$[esp-4]
  00006	8b 11		 mov	 edx, DWORD PTR [ecx]
  00008	8b 4c 24 08	 mov	 ecx, DWORD PTR __Val2$[esp-4]
  0000c	89 10		 mov	 DWORD PTR [eax], edx
  0000e	8b 11		 mov	 edx, DWORD PTR [ecx]
  00010	89 50 04	 mov	 DWORD PTR [eax+4], edx

; 35   : 		}

  00013	c2 08 00	 ret	 8
??0?$pair@$$CBKK@std@@QAE@ABK0@Z ENDP			; std::pair<unsigned long const ,unsigned long>::pair<unsigned long const ,unsigned long>
_TEXT	ENDS
PUBLIC	?capacity@?$vector@PAUtagTITEM@@V?$allocator@PAUtagTITEM@@@std@@@std@@QBEIXZ ; std::vector<tagTITEM *,std::allocator<tagTITEM *> >::capacity
; Function compile flags: /Ogty
; File c:\program files (x86)\microsoft visual studio .net 2003\vc7\include\vector
;	COMDAT ?capacity@?$vector@PAUtagTITEM@@V?$allocator@PAUtagTITEM@@@std@@@std@@QBEIXZ
_TEXT	SEGMENT
?capacity@?$vector@PAUtagTITEM@@V?$allocator@PAUtagTITEM@@@std@@@std@@QBEIXZ PROC NEAR ; std::vector<tagTITEM *,std::allocator<tagTITEM *> >::capacity, COMDAT
; _this$ = ecx

; 458  : 		return (_Myfirst == 0 ? 0 : _Myend - _Myfirst);

  00000	8b 51 04	 mov	 edx, DWORD PTR [ecx+4]
  00003	85 d2		 test	 edx, edx
  00005	75 03		 jne	 SHORT $L112683
  00007	33 c0		 xor	 eax, eax

; 459  : 		}

  00009	c3		 ret	 0
$L112683:

; 458  : 		return (_Myfirst == 0 ? 0 : _Myend - _Myfirst);

  0000a	8b 41 0c	 mov	 eax, DWORD PTR [ecx+12]
  0000d	2b c2		 sub	 eax, edx
  0000f	c1 f8 02	 sar	 eax, 2

; 459  : 		}

  00012	c3		 ret	 0
?capacity@?$vector@PAUtagTITEM@@V?$allocator@PAUtagTITEM@@@std@@@std@@QBEIXZ ENDP ; std::vector<tagTITEM *,std::allocator<tagTITEM *> >::capacity
_TEXT	ENDS
PUBLIC	??0?$allocator@PAUtagTITEM@@@std@@QAE@XZ	; std::allocator<tagTITEM *>::allocator<tagTITEM *>
; Function compile flags: /Ogty
; File c:\program files (x86)\microsoft visual studio .net 2003\vc7\include\xmemory
;	COMDAT ??0?$allocator@PAUtagTITEM@@@std@@QAE@XZ
_TEXT	SEGMENT
??0?$allocator@PAUtagTITEM@@@std@@QAE@XZ PROC NEAR	; std::allocator<tagTITEM *>::allocator<tagTITEM *>, COMDAT
; _this$ = ecx

; 111  : 	allocator()

  00000	8b c1		 mov	 eax, ecx

; 112  : 		{	// construct default allocator (do nothing)
; 113  : 		}

  00002	c3		 ret	 0
??0?$allocator@PAUtagTITEM@@@std@@QAE@XZ ENDP		; std::allocator<tagTITEM *>::allocator<tagTITEM *>
_TEXT	ENDS
PUBLIC	??0?$allocator@G@std@@QAE@XZ			; std::allocator<unsigned short>::allocator<unsigned short>
; Function compile flags: /Ogty
;	COMDAT ??0?$allocator@G@std@@QAE@XZ
_TEXT	SEGMENT
??0?$allocator@G@std@@QAE@XZ PROC NEAR			; std::allocator<unsigned short>::allocator<unsigned short>, COMDAT
; _this$ = ecx

; 111  : 	allocator()

  00000	8b c1		 mov	 eax, ecx

; 112  : 		{	// construct default allocator (do nothing)
; 113  : 		}

  00002	c3		 ret	 0
??0?$allocator@G@std@@QAE@XZ ENDP			; std::allocator<unsigned short>::allocator<unsigned short>
_TEXT	ENDS
PUBLIC	??0?$allocator@UtagTCASHITEMSALE@@@std@@QAE@XZ	; std::allocator<tagTCASHITEMSALE>::allocator<tagTCASHITEMSALE>
; Function compile flags: /Ogty
;	COMDAT ??0?$allocator@UtagTCASHITEMSALE@@@std@@QAE@XZ
_TEXT	SEGMENT
??0?$allocator@UtagTCASHITEMSALE@@@std@@QAE@XZ PROC NEAR ; std::allocator<tagTCASHITEMSALE>::allocator<tagTCASHITEMSALE>, COMDAT
; _this$ = ecx

; 111  : 	allocator()

  00000	8b c1		 mov	 eax, ecx

; 112  : 		{	// construct default allocator (do nothing)
; 113  : 		}

  00002	c3		 ret	 0
??0?$allocator@UtagTCASHITEMSALE@@@std@@QAE@XZ ENDP	; std::allocator<tagTCASHITEMSALE>::allocator<tagTCASHITEMSALE>
_TEXT	ENDS
PUBLIC	??0?$allocator@UtagMONREGEN@@@std@@QAE@XZ	; std::allocator<tagMONREGEN>::allocator<tagMONREGEN>
; Function compile flags: /Ogty
;	COMDAT ??0?$allocator@UtagMONREGEN@@@std@@QAE@XZ
_TEXT	SEGMENT
??0?$allocator@UtagMONREGEN@@@std@@QAE@XZ PROC NEAR	; std::allocator<tagMONREGEN>::allocator<tagMONREGEN>, COMDAT
; _this$ = ecx

; 111  : 	allocator()

  00000	8b c1		 mov	 eax, ecx

; 112  : 		{	// construct default allocator (do nothing)
; 113  : 		}

  00002	c3		 ret	 0
??0?$allocator@UtagMONREGEN@@@std@@QAE@XZ ENDP		; std::allocator<tagMONREGEN>::allocator<tagMONREGEN>
_TEXT	ENDS
PUBLIC	??0?$allocator@UtagLOTTERY@@@std@@QAE@XZ	; std::allocator<tagLOTTERY>::allocator<tagLOTTERY>
; Function compile flags: /Ogty
;	COMDAT ??0?$allocator@UtagLOTTERY@@@std@@QAE@XZ
_TEXT	SEGMENT
??0?$allocator@UtagLOTTERY@@@std@@QAE@XZ PROC NEAR	; std::allocator<tagLOTTERY>::allocator<tagLOTTERY>, COMDAT
; _this$ = ecx

; 111  : 	allocator()

  00000	8b c1		 mov	 eax, ecx

; 112  : 		{	// construct default allocator (do nothing)
; 113  : 		}

  00002	c3		 ret	 0
??0?$allocator@UtagLOTTERY@@@std@@QAE@XZ ENDP		; std::allocator<tagLOTTERY>::allocator<tagLOTTERY>
_TEXT	ENDS
PUBLIC	?empty@?$deque@KV?$allocator@K@std@@@std@@QBE_NXZ ; std::deque<unsigned long,std::allocator<unsigned long> >::empty
; Function compile flags: /Ogty
; File c:\program files (x86)\microsoft visual studio .net 2003\vc7\include\deque
;	COMDAT ?empty@?$deque@KV?$allocator@K@std@@@std@@QBE_NXZ
_TEXT	SEGMENT
?empty@?$deque@KV?$allocator@K@std@@@std@@QBE_NXZ PROC NEAR ; std::deque<unsigned long,std::allocator<unsigned long> >::empty, COMDAT
; _this$ = ecx

; 502  : 		return (_Mysize == 0);

  00000	8b 51 10	 mov	 edx, DWORD PTR [ecx+16]
  00003	33 c0		 xor	 eax, eax
  00005	85 d2		 test	 edx, edx
  00007	0f 94 c0	 sete	 al

; 503  : 		}

  0000a	c3		 ret	 0
?empty@?$deque@KV?$allocator@K@std@@@std@@QBE_NXZ ENDP	; std::deque<unsigned long,std::allocator<unsigned long> >::empty
_TEXT	ENDS
PUBLIC	?capacity@?$vector@PAUtagTCHAR@@V?$allocator@PAUtagTCHAR@@@std@@@std@@QBEIXZ ; std::vector<tagTCHAR *,std::allocator<tagTCHAR *> >::capacity
; Function compile flags: /Ogty
; File c:\program files (x86)\microsoft visual studio .net 2003\vc7\include\vector
;	COMDAT ?capacity@?$vector@PAUtagTCHAR@@V?$allocator@PAUtagTCHAR@@@std@@@std@@QBEIXZ
_TEXT	SEGMENT
?capacity@?$vector@PAUtagTCHAR@@V?$allocator@PAUtagTCHAR@@@std@@@std@@QBEIXZ PROC NEAR ; std::vector<tagTCHAR *,std::allocator<tagTCHAR *> >::capacity, COMDAT
; _this$ = ecx

; 458  : 		return (_Myfirst == 0 ? 0 : _Myend - _Myfirst);

  00000	8b 51 04	 mov	 edx, DWORD PTR [ecx+4]
  00003	85 d2		 test	 edx, edx
  00005	75 03		 jne	 SHORT $L112706
  00007	33 c0		 xor	 eax, eax

; 459  : 		}

  00009	c3		 ret	 0
$L112706:

; 458  : 		return (_Myfirst == 0 ? 0 : _Myend - _Myfirst);

  0000a	8b 41 0c	 mov	 eax, DWORD PTR [ecx+12]
  0000d	2b c2		 sub	 eax, edx
  0000f	c1 f8 02	 sar	 eax, 2

; 459  : 		}

  00012	c3		 ret	 0
?capacity@?$vector@PAUtagTCHAR@@V?$allocator@PAUtagTCHAR@@@std@@@std@@QBEIXZ ENDP ; std::vector<tagTCHAR *,std::allocator<tagTCHAR *> >::capacity
_TEXT	ENDS
PUBLIC	?_Isnil@?$_Tree@V?$_Tmap_traits@KPAVCTUser@@U?$less@K@std@@V?$allocator@U?$pair@$$CBKPAVCTUser@@@std@@@3@$0A@@std@@@std@@KAAADPAU_Node@?$_Tree_nod@V?$_Tmap_traits@KPAVCTUser@@U?$less@K@std@@V?$allocator@U?$pair@$$CBKPAVCTUser@@@std@@@3@$0A@@std@@@2@@Z ; std::_Tree<std::_Tmap_traits<unsigned long,CTUser *,std::less<unsigned long>,std::allocator<std::pair<unsigned long const ,CTUser *> >,0> >::_Isnil
; Function compile flags: /Ogty
; File c:\program files (x86)\microsoft visual studio .net 2003\vc7\include\xtree
;	COMDAT ?_Isnil@?$_Tree@V?$_Tmap_traits@KPAVCTUser@@U?$less@K@std@@V?$allocator@U?$pair@$$CBKPAVCTUser@@@std@@@3@$0A@@std@@@std@@KAAADPAU_Node@?$_Tree_nod@V?$_Tmap_traits@KPAVCTUser@@U?$less@K@std@@V?$allocator@U?$pair@$$CBKPAVCTUser@@@std@@@3@$0A@@std@@@2@@Z
_TEXT	SEGMENT
__Pnode$ = 8						; size = 4
?_Isnil@?$_Tree@V?$_Tmap_traits@KPAVCTUser@@U?$less@K@std@@V?$allocator@U?$pair@$$CBKPAVCTUser@@@std@@@3@$0A@@std@@@std@@KAAADPAU_Node@?$_Tree_nod@V?$_Tmap_traits@KPAVCTUser@@U?$less@K@std@@V?$allocator@U?$pair@$$CBKPAVCTUser@@@std@@@3@$0A@@std@@@2@@Z PROC NEAR ; std::_Tree<std::_Tmap_traits<unsigned long,CTUser *,std::less<unsigned long>,std::allocator<std::pair<unsigned long const ,CTUser *> >,0> >::_Isnil, COMDAT

; 137  : 		return ((_Charref)(*_Pnode)._Isnil);

  00000	8b 44 24 04	 mov	 eax, DWORD PTR __Pnode$[esp-4]
  00004	83 c0 15	 add	 eax, 21			; 00000015H

; 138  : 		}

  00007	c3		 ret	 0
?_Isnil@?$_Tree@V?$_Tmap_traits@KPAVCTUser@@U?$less@K@std@@V?$allocator@U?$pair@$$CBKPAVCTUser@@@std@@@3@$0A@@std@@@std@@KAAADPAU_Node@?$_Tree_nod@V?$_Tmap_traits@KPAVCTUser@@U?$less@K@std@@V?$allocator@U?$pair@$$CBKPAVCTUser@@@std@@@3@$0A@@std@@@2@@Z ENDP ; std::_Tree<std::_Tmap_traits<unsigned long,CTUser *,std::less<unsigned long>,std::allocator<std::pair<unsigned long const ,CTUser *> >,0> >::_Isnil
_TEXT	ENDS
PUBLIC	?_Left@?$_Tree@V?$_Tmap_traits@KPAVCTUser@@U?$less@K@std@@V?$allocator@U?$pair@$$CBKPAVCTUser@@@std@@@3@$0A@@std@@@std@@KAAAPAU_Node@?$_Tree_nod@V?$_Tmap_traits@KPAVCTUser@@U?$less@K@std@@V?$allocator@U?$pair@$$CBKPAVCTUser@@@std@@@3@$0A@@std@@@2@PAU342@@Z ; std::_Tree<std::_Tmap_traits<unsigned long,CTUser *,std::less<unsigned long>,std::allocator<std::pair<unsigned long const ,CTUser *> >,0> >::_Left
; Function compile flags: /Ogty
;	COMDAT ?_Left@?$_Tree@V?$_Tmap_traits@KPAVCTUser@@U?$less@K@std@@V?$allocator@U?$pair@$$CBKPAVCTUser@@@std@@@3@$0A@@std@@@std@@KAAAPAU_Node@?$_Tree_nod@V?$_Tmap_traits@KPAVCTUser@@U?$less@K@std@@V?$allocator@U?$pair@$$CBKPAVCTUser@@@std@@@3@$0A@@std@@@2@PAU342@@Z
_TEXT	SEGMENT
__Pnode$ = 8						; size = 4
?_Left@?$_Tree@V?$_Tmap_traits@KPAVCTUser@@U?$less@K@std@@V?$allocator@U?$pair@$$CBKPAVCTUser@@@std@@@3@$0A@@std@@@std@@KAAAPAU_Node@?$_Tree_nod@V?$_Tmap_traits@KPAVCTUser@@U?$less@K@std@@V?$allocator@U?$pair@$$CBKPAVCTUser@@@std@@@3@$0A@@std@@@2@PAU342@@Z PROC NEAR ; std::_Tree<std::_Tmap_traits<unsigned long,CTUser *,std::less<unsigned long>,std::allocator<std::pair<unsigned long const ,CTUser *> >,0> >::_Left, COMDAT

; 147  : 		return ((_Nodepref)(*_Pnode)._Left);

  00000	8b 44 24 04	 mov	 eax, DWORD PTR __Pnode$[esp-4]

; 148  : 		}

  00004	c3		 ret	 0
?_Left@?$_Tree@V?$_Tmap_traits@KPAVCTUser@@U?$less@K@std@@V?$allocator@U?$pair@$$CBKPAVCTUser@@@std@@@3@$0A@@std@@@std@@KAAAPAU_Node@?$_Tree_nod@V?$_Tmap_traits@KPAVCTUser@@U?$less@K@std@@V?$allocator@U?$pair@$$CBKPAVCTUser@@@std@@@3@$0A@@std@@@2@PAU342@@Z ENDP ; std::_Tree<std::_Tmap_traits<unsigned long,CTUser *,std::less<unsigned long>,std::allocator<std::pair<unsigned long const ,CTUser *> >,0> >::_Left
_TEXT	ENDS
PUBLIC	?_Right@?$_Tree@V?$_Tmap_traits@KPAVCTUser@@U?$less@K@std@@V?$allocator@U?$pair@$$CBKPAVCTUser@@@std@@@3@$0A@@std@@@std@@KAAAPAU_Node@?$_Tree_nod@V?$_Tmap_traits@KPAVCTUser@@U?$less@K@std@@V?$allocator@U?$pair@$$CBKPAVCTUser@@@std@@@3@$0A@@std@@@2@PAU342@@Z ; std::_Tree<std::_Tmap_traits<unsigned long,CTUser *,std::less<unsigned long>,std::allocator<std::pair<unsigned long const ,CTUser *> >,0> >::_Right
; Function compile flags: /Ogty
;	COMDAT ?_Right@?$_Tree@V?$_Tmap_traits@KPAVCTUser@@U?$less@K@std@@V?$allocator@U?$pair@$$CBKPAVCTUser@@@std@@@3@$0A@@std@@@std@@KAAAPAU_Node@?$_Tree_nod@V?$_Tmap_traits@KPAVCTUser@@U?$less@K@std@@V?$allocator@U?$pair@$$CBKPAVCTUser@@@std@@@3@$0A@@std@@@2@PAU342@@Z
_TEXT	SEGMENT
__Pnode$ = 8						; size = 4
?_Right@?$_Tree@V?$_Tmap_traits@KPAVCTUser@@U?$less@K@std@@V?$allocator@U?$pair@$$CBKPAVCTUser@@@std@@@3@$0A@@std@@@std@@KAAAPAU_Node@?$_Tree_nod@V?$_Tmap_traits@KPAVCTUser@@U?$less@K@std@@V?$allocator@U?$pair@$$CBKPAVCTUser@@@std@@@3@$0A@@std@@@2@PAU342@@Z PROC NEAR ; std::_Tree<std::_Tmap_traits<unsigned long,CTUser *,std::less<unsigned long>,std::allocator<std::pair<unsigned long const ,CTUser *> >,0> >::_Right, COMDAT

; 157  : 		return ((_Nodepref)(*_Pnode)._Right);

  00000	8b 44 24 04	 mov	 eax, DWORD PTR __Pnode$[esp-4]
  00004	83 c0 08	 add	 eax, 8

; 158  : 		}

  00007	c3		 ret	 0
?_Right@?$_Tree@V?$_Tmap_traits@KPAVCTUser@@U?$less@K@std@@V?$allocator@U?$pair@$$CBKPAVCTUser@@@std@@@3@$0A@@std@@@std@@KAAAPAU_Node@?$_Tree_nod@V?$_Tmap_traits@KPAVCTUser@@U?$less@K@std@@V?$allocator@U?$pair@$$CBKPAVCTUser@@@std@@@3@$0A@@std@@@2@PAU342@@Z ENDP ; std::_Tree<std::_Tmap_traits<unsigned long,CTUser *,std::less<unsigned long>,std::allocator<std::pair<unsigned long const ,CTUser *> >,0> >::_Right
_TEXT	ENDS
PUBLIC	?_Lmost@?$_Tree@V?$_Tmap_traits@KPAVCTUser@@U?$less@K@std@@V?$allocator@U?$pair@$$CBKPAVCTUser@@@std@@@3@$0A@@std@@@std@@IAEAAPAU_Node@?$_Tree_nod@V?$_Tmap_traits@KPAVCTUser@@U?$less@K@std@@V?$allocator@U?$pair@$$CBKPAVCTUser@@@std@@@3@$0A@@std@@@2@XZ ; std::_Tree<std::_Tmap_traits<unsigned long,CTUser *,std::less<unsigned long>,std::allocator<std::pair<unsigned long const ,CTUser *> >,0> >::_Lmost
; Function compile flags: /Ogty
;	COMDAT ?_Lmost@?$_Tree@V?$_Tmap_traits@KPAVCTUser@@U?$less@K@std@@V?$allocator@U?$pair@$$CBKPAVCTUser@@@std@@@3@$0A@@std@@@std@@IAEAAPAU_Node@?$_Tree_nod@V?$_Tmap_traits@KPAVCTUser@@U?$less@K@std@@V?$allocator@U?$pair@$$CBKPAVCTUser@@@std@@@3@$0A@@std@@@2@XZ
_TEXT	SEGMENT
?_Lmost@?$_Tree@V?$_Tmap_traits@KPAVCTUser@@U?$less@K@std@@V?$allocator@U?$pair@$$CBKPAVCTUser@@@std@@@3@$0A@@std@@@std@@IAEAAPAU_Node@?$_Tree_nod@V?$_Tmap_traits@KPAVCTUser@@U?$less@K@std@@V?$allocator@U?$pair@$$CBKPAVCTUser@@@std@@@3@$0A@@std@@@2@XZ PROC NEAR ; std::_Tree<std::_Tmap_traits<unsigned long,CTUser *,std::less<unsigned long>,std::allocator<std::pair<unsigned long const ,CTUser *> >,0> >::_Lmost, COMDAT
; _this$ = ecx

; 1005 : 		return (_Left(_Myhead));

  00000	8b 41 04	 mov	 eax, DWORD PTR [ecx+4]

; 1006 : 		}

  00003	c3		 ret	 0
?_Lmost@?$_Tree@V?$_Tmap_traits@KPAVCTUser@@U?$less@K@std@@V?$allocator@U?$pair@$$CBKPAVCTUser@@@std@@@3@$0A@@std@@@std@@IAEAAPAU_Node@?$_Tree_nod@V?$_Tmap_traits@KPAVCTUser@@U?$less@K@std@@V?$allocator@U?$pair@$$CBKPAVCTUser@@@std@@@3@$0A@@std@@@2@XZ ENDP ; std::_Tree<std::_Tmap_traits<unsigned long,CTUser *,std::less<unsigned long>,std::allocator<std::pair<unsigned long const ,CTUser *> >,0> >::_Lmost
_TEXT	ENDS
PUBLIC	?_Kfn@?$_Tmap_traits@KPAVCTUser@@U?$less@K@std@@V?$allocator@U?$pair@$$CBKPAVCTUser@@@std@@@3@$0A@@std@@SAABKABU?$pair@$$CBKPAVCTUser@@@2@@Z ; std::_Tmap_traits<unsigned long,CTUser *,std::less<unsigned long>,std::allocator<std::pair<unsigned long const ,CTUser *> >,0>::_Kfn
; Function compile flags: /Ogty
; File c:\program files (x86)\microsoft visual studio .net 2003\vc7\include\map
;	COMDAT ?_Kfn@?$_Tmap_traits@KPAVCTUser@@U?$less@K@std@@V?$allocator@U?$pair@$$CBKPAVCTUser@@@std@@@3@$0A@@std@@SAABKABU?$pair@$$CBKPAVCTUser@@@2@@Z
_TEXT	SEGMENT
__Val$ = 8						; size = 4
?_Kfn@?$_Tmap_traits@KPAVCTUser@@U?$less@K@std@@V?$allocator@U?$pair@$$CBKPAVCTUser@@@std@@@3@$0A@@std@@SAABKABU?$pair@$$CBKPAVCTUser@@@2@@Z PROC NEAR ; std::_Tmap_traits<unsigned long,CTUser *,std::less<unsigned long>,std::allocator<std::pair<unsigned long const ,CTUser *> >,0>::_Kfn, COMDAT

; 64   : 		return (_Val.first);

  00000	8b 44 24 04	 mov	 eax, DWORD PTR __Val$[esp-4]

; 65   : 		}

  00004	c3		 ret	 0
?_Kfn@?$_Tmap_traits@KPAVCTUser@@U?$less@K@std@@V?$allocator@U?$pair@$$CBKPAVCTUser@@@std@@@3@$0A@@std@@SAABKABU?$pair@$$CBKPAVCTUser@@@2@@Z ENDP ; std::_Tmap_traits<unsigned long,CTUser *,std::less<unsigned long>,std::allocator<std::pair<unsigned long const ,CTUser *> >,0>::_Kfn
_TEXT	ENDS
PUBLIC	??R?$less@K@std@@QBE_NABK0@Z			; std::less<unsigned long>::operator()
; Function compile flags: /Ogty
; File c:\program files (x86)\microsoft visual studio .net 2003\vc7\include\functional
;	COMDAT ??R?$less@K@std@@QBE_NABK0@Z
_TEXT	SEGMENT
__Left$ = 8						; size = 4
__Right$ = 12						; size = 4
??R?$less@K@std@@QBE_NABK0@Z PROC NEAR			; std::less<unsigned long>::operator(), COMDAT
; _this$ = ecx

; 139  : 		return (_Left < _Right);

  00000	8b 44 24 04	 mov	 eax, DWORD PTR __Left$[esp-4]
  00004	8b 08		 mov	 ecx, DWORD PTR [eax]
  00006	8b 54 24 08	 mov	 edx, DWORD PTR __Right$[esp-4]
  0000a	3b 0a		 cmp	 ecx, DWORD PTR [edx]
  0000c	1b c0		 sbb	 eax, eax
  0000e	f7 d8		 neg	 eax

; 140  : 		}

  00010	c2 08 00	 ret	 8
??R?$less@K@std@@QBE_NABK0@Z ENDP			; std::less<unsigned long>::operator()
_TEXT	ENDS
PUBLIC	?_Isnil@?$_Tree@V?$_Tmap_traits@KKU?$less@K@std@@V?$allocator@U?$pair@$$CBKK@std@@@2@$0A@@std@@@std@@KAAADPAU_Node@?$_Tree_nod@V?$_Tmap_traits@KKU?$less@K@std@@V?$allocator@U?$pair@$$CBKK@std@@@2@$0A@@std@@@2@@Z ; std::_Tree<std::_Tmap_traits<unsigned long,unsigned long,std::less<unsigned long>,std::allocator<std::pair<unsigned long const ,unsigned long> >,0> >::_Isnil
; Function compile flags: /Ogty
; File c:\program files (x86)\microsoft visual studio .net 2003\vc7\include\xtree
;	COMDAT ?_Isnil@?$_Tree@V?$_Tmap_traits@KKU?$less@K@std@@V?$allocator@U?$pair@$$CBKK@std@@@2@$0A@@std@@@std@@KAAADPAU_Node@?$_Tree_nod@V?$_Tmap_traits@KKU?$less@K@std@@V?$allocator@U?$pair@$$CBKK@std@@@2@$0A@@std@@@2@@Z
_TEXT	SEGMENT
__Pnode$ = 8						; size = 4
?_Isnil@?$_Tree@V?$_Tmap_traits@KKU?$less@K@std@@V?$allocator@U?$pair@$$CBKK@std@@@2@$0A@@std@@@std@@KAAADPAU_Node@?$_Tree_nod@V?$_Tmap_traits@KKU?$less@K@std@@V?$allocator@U?$pair@$$CBKK@std@@@2@$0A@@std@@@2@@Z PROC NEAR ; std::_Tree<std::_Tmap_traits<unsigned long,unsigned long,std::less<unsigned long>,std::allocator<std::pair<unsigned long const ,unsigned long> >,0> >::_Isnil, COMDAT

; 137  : 		return ((_Charref)(*_Pnode)._Isnil);

  00000	8b 44 24 04	 mov	 eax, DWORD PTR __Pnode$[esp-4]
  00004	83 c0 15	 add	 eax, 21			; 00000015H

; 138  : 		}

  00007	c3		 ret	 0
?_Isnil@?$_Tree@V?$_Tmap_traits@KKU?$less@K@std@@V?$allocator@U?$pair@$$CBKK@std@@@2@$0A@@std@@@std@@KAAADPAU_Node@?$_Tree_nod@V?$_Tmap_traits@KKU?$less@K@std@@V?$allocator@U?$pair@$$CBKK@std@@@2@$0A@@std@@@2@@Z ENDP ; std::_Tree<std::_Tmap_traits<unsigned long,unsigned long,std::less<unsigned long>,std::allocator<std::pair<unsigned long const ,unsigned long> >,0> >::_Isnil
_TEXT	ENDS
PUBLIC	?_Left@?$_Tree@V?$_Tmap_traits@KKU?$less@K@std@@V?$allocator@U?$pair@$$CBKK@std@@@2@$0A@@std@@@std@@KAAAPAU_Node@?$_Tree_nod@V?$_Tmap_traits@KKU?$less@K@std@@V?$allocator@U?$pair@$$CBKK@std@@@2@$0A@@std@@@2@PAU342@@Z ; std::_Tree<std::_Tmap_traits<unsigned long,unsigned long,std::less<unsigned long>,std::allocator<std::pair<unsigned long const ,unsigned long> >,0> >::_Left
; Function compile flags: /Ogty
;	COMDAT ?_Left@?$_Tree@V?$_Tmap_traits@KKU?$less@K@std@@V?$allocator@U?$pair@$$CBKK@std@@@2@$0A@@std@@@std@@KAAAPAU_Node@?$_Tree_nod@V?$_Tmap_traits@KKU?$less@K@std@@V?$allocator@U?$pair@$$CBKK@std@@@2@$0A@@std@@@2@PAU342@@Z
_TEXT	SEGMENT
__Pnode$ = 8						; size = 4
?_Left@?$_Tree@V?$_Tmap_traits@KKU?$less@K@std@@V?$allocator@U?$pair@$$CBKK@std@@@2@$0A@@std@@@std@@KAAAPAU_Node@?$_Tree_nod@V?$_Tmap_traits@KKU?$less@K@std@@V?$allocator@U?$pair@$$CBKK@std@@@2@$0A@@std@@@2@PAU342@@Z PROC NEAR ; std::_Tree<std::_Tmap_traits<unsigned long,unsigned long,std::less<unsigned long>,std::allocator<std::pair<unsigned long const ,unsigned long> >,0> >::_Left, COMDAT

; 147  : 		return ((_Nodepref)(*_Pnode)._Left);

  00000	8b 44 24 04	 mov	 eax, DWORD PTR __Pnode$[esp-4]

; 148  : 		}

  00004	c3		 ret	 0
?_Left@?$_Tree@V?$_Tmap_traits@KKU?$less@K@std@@V?$allocator@U?$pair@$$CBKK@std@@@2@$0A@@std@@@std@@KAAAPAU_Node@?$_Tree_nod@V?$_Tmap_traits@KKU?$less@K@std@@V?$allocator@U?$pair@$$CBKK@std@@@2@$0A@@std@@@2@PAU342@@Z ENDP ; std::_Tree<std::_Tmap_traits<unsigned long,unsigned long,std::less<unsigned long>,std::allocator<std::pair<unsigned long const ,unsigned long> >,0> >::_Left
_TEXT	ENDS
PUBLIC	?_Right@?$_Tree@V?$_Tmap_traits@KKU?$less@K@std@@V?$allocator@U?$pair@$$CBKK@std@@@2@$0A@@std@@@std@@KAAAPAU_Node@?$_Tree_nod@V?$_Tmap_traits@KKU?$less@K@std@@V?$allocator@U?$pair@$$CBKK@std@@@2@$0A@@std@@@2@PAU342@@Z ; std::_Tree<std::_Tmap_traits<unsigned long,unsigned long,std::less<unsigned long>,std::allocator<std::pair<unsigned long const ,unsigned long> >,0> >::_Right
; Function compile flags: /Ogty
;	COMDAT ?_Right@?$_Tree@V?$_Tmap_traits@KKU?$less@K@std@@V?$allocator@U?$pair@$$CBKK@std@@@2@$0A@@std@@@std@@KAAAPAU_Node@?$_Tree_nod@V?$_Tmap_traits@KKU?$less@K@std@@V?$allocator@U?$pair@$$CBKK@std@@@2@$0A@@std@@@2@PAU342@@Z
_TEXT	SEGMENT
__Pnode$ = 8						; size = 4
?_Right@?$_Tree@V?$_Tmap_traits@KKU?$less@K@std@@V?$allocator@U?$pair@$$CBKK@std@@@2@$0A@@std@@@std@@KAAAPAU_Node@?$_Tree_nod@V?$_Tmap_traits@KKU?$less@K@std@@V?$allocator@U?$pair@$$CBKK@std@@@2@$0A@@std@@@2@PAU342@@Z PROC NEAR ; std::_Tree<std::_Tmap_traits<unsigned long,unsigned long,std::less<unsigned long>,std::allocator<std::pair<unsigned long const ,unsigned long> >,0> >::_Right, COMDAT

; 157  : 		return ((_Nodepref)(*_Pnode)._Right);

  00000	8b 44 24 04	 mov	 eax, DWORD PTR __Pnode$[esp-4]
  00004	83 c0 08	 add	 eax, 8

; 158  : 		}

  00007	c3		 ret	 0
?_Right@?$_Tree@V?$_Tmap_traits@KKU?$less@K@std@@V?$allocator@U?$pair@$$CBKK@std@@@2@$0A@@std@@@std@@KAAAPAU_Node@?$_Tree_nod@V?$_Tmap_traits@KKU?$less@K@std@@V?$allocator@U?$pair@$$CBKK@std@@@2@$0A@@std@@@2@PAU342@@Z ENDP ; std::_Tree<std::_Tmap_traits<unsigned long,unsigned long,std::less<unsigned long>,std::allocator<std::pair<unsigned long const ,unsigned long> >,0> >::_Right
_TEXT	ENDS
PUBLIC	?_Lmost@?$_Tree@V?$_Tmap_traits@KKU?$less@K@std@@V?$allocator@U?$pair@$$CBKK@std@@@2@$0A@@std@@@std@@IAEAAPAU_Node@?$_Tree_nod@V?$_Tmap_traits@KKU?$less@K@std@@V?$allocator@U?$pair@$$CBKK@std@@@2@$0A@@std@@@2@XZ ; std::_Tree<std::_Tmap_traits<unsigned long,unsigned long,std::less<unsigned long>,std::allocator<std::pair<unsigned long const ,unsigned long> >,0> >::_Lmost
; Function compile flags: /Ogty
;	COMDAT ?_Lmost@?$_Tree@V?$_Tmap_traits@KKU?$less@K@std@@V?$allocator@U?$pair@$$CBKK@std@@@2@$0A@@std@@@std@@IAEAAPAU_Node@?$_Tree_nod@V?$_Tmap_traits@KKU?$less@K@std@@V?$allocator@U?$pair@$$CBKK@std@@@2@$0A@@std@@@2@XZ
_TEXT	SEGMENT
?_Lmost@?$_Tree@V?$_Tmap_traits@KKU?$less@K@std@@V?$allocator@U?$pair@$$CBKK@std@@@2@$0A@@std@@@std@@IAEAAPAU_Node@?$_Tree_nod@V?$_Tmap_traits@KKU?$less@K@std@@V?$allocator@U?$pair@$$CBKK@std@@@2@$0A@@std@@@2@XZ PROC NEAR ; std::_Tree<std::_Tmap_traits<unsigned long,unsigned long,std::less<unsigned long>,std::allocator<std::pair<unsigned long const ,unsigned long> >,0> >::_Lmost, COMDAT
; _this$ = ecx

; 1005 : 		return (_Left(_Myhead));

  00000	8b 41 04	 mov	 eax, DWORD PTR [ecx+4]

; 1006 : 		}

  00003	c3		 ret	 0
?_Lmost@?$_Tree@V?$_Tmap_traits@KKU?$less@K@std@@V?$allocator@U?$pair@$$CBKK@std@@@2@$0A@@std@@@std@@IAEAAPAU_Node@?$_Tree_nod@V?$_Tmap_traits@KKU?$less@K@std@@V?$allocator@U?$pair@$$CBKK@std@@@2@$0A@@std@@@2@XZ ENDP ; std::_Tree<std::_Tmap_traits<unsigned long,unsigned long,std::less<unsigned long>,std::allocator<std::pair<unsigned long const ,unsigned long> >,0> >::_Lmost
_TEXT	ENDS
PUBLIC	?_Rmost@?$_Tree@V?$_Tmap_traits@KKU?$less@K@std@@V?$allocator@U?$pair@$$CBKK@std@@@2@$0A@@std@@@std@@IAEAAPAU_Node@?$_Tree_nod@V?$_Tmap_traits@KKU?$less@K@std@@V?$allocator@U?$pair@$$CBKK@std@@@2@$0A@@std@@@2@XZ ; std::_Tree<std::_Tmap_traits<unsigned long,unsigned long,std::less<unsigned long>,std::allocator<std::pair<unsigned long const ,unsigned long> >,0> >::_Rmost
; Function compile flags: /Ogty
;	COMDAT ?_Rmost@?$_Tree@V?$_Tmap_traits@KKU?$less@K@std@@V?$allocator@U?$pair@$$CBKK@std@@@2@$0A@@std@@@std@@IAEAAPAU_Node@?$_Tree_nod@V?$_Tmap_traits@KKU?$less@K@std@@V?$allocator@U?$pair@$$CBKK@std@@@2@$0A@@std@@@2@XZ
_TEXT	SEGMENT
?_Rmost@?$_Tree@V?$_Tmap_traits@KKU?$less@K@std@@V?$allocator@U?$pair@$$CBKK@std@@@2@$0A@@std@@@std@@IAEAAPAU_Node@?$_Tree_nod@V?$_Tmap_traits@KKU?$less@K@std@@V?$allocator@U?$pair@$$CBKK@std@@@2@$0A@@std@@@2@XZ PROC NEAR ; std::_Tree<std::_Tmap_traits<unsigned long,unsigned long,std::less<unsigned long>,std::allocator<std::pair<unsigned long const ,unsigned long> >,0> >::_Rmost, COMDAT
; _this$ = ecx

; 1049 : 		return (_Right(_Myhead));

  00000	8b 41 04	 mov	 eax, DWORD PTR [ecx+4]
  00003	83 c0 08	 add	 eax, 8

; 1050 : 		}

  00006	c3		 ret	 0
?_Rmost@?$_Tree@V?$_Tmap_traits@KKU?$less@K@std@@V?$allocator@U?$pair@$$CBKK@std@@@2@$0A@@std@@@std@@IAEAAPAU_Node@?$_Tree_nod@V?$_Tmap_traits@KKU?$less@K@std@@V?$allocator@U?$pair@$$CBKK@std@@@2@$0A@@std@@@2@XZ ENDP ; std::_Tree<std::_Tmap_traits<unsigned long,unsigned long,std::less<unsigned long>,std::allocator<std::pair<unsigned long const ,unsigned long> >,0> >::_Rmost
_TEXT	ENDS
PUBLIC	?_Kfn@?$_Tmap_traits@KKU?$less@K@std@@V?$allocator@U?$pair@$$CBKK@std@@@2@$0A@@std@@SAABKABU?$pair@$$CBKK@2@@Z ; std::_Tmap_traits<unsigned long,unsigned long,std::less<unsigned long>,std::allocator<std::pair<unsigned long const ,unsigned long> >,0>::_Kfn
; Function compile flags: /Ogty
; File c:\program files (x86)\microsoft visual studio .net 2003\vc7\include\map
;	COMDAT ?_Kfn@?$_Tmap_traits@KKU?$less@K@std@@V?$allocator@U?$pair@$$CBKK@std@@@2@$0A@@std@@SAABKABU?$pair@$$CBKK@2@@Z
_TEXT	SEGMENT
__Val$ = 8						; size = 4
?_Kfn@?$_Tmap_traits@KKU?$less@K@std@@V?$allocator@U?$pair@$$CBKK@std@@@2@$0A@@std@@SAABKABU?$pair@$$CBKK@2@@Z PROC NEAR ; std::_Tmap_traits<unsigned long,unsigned long,std::less<unsigned long>,std::allocator<std::pair<unsigned long const ,unsigned long> >,0>::_Kfn, COMDAT

; 64   : 		return (_Val.first);

  00000	8b 44 24 04	 mov	 eax, DWORD PTR __Val$[esp-4]

; 65   : 		}

  00004	c3		 ret	 0
?_Kfn@?$_Tmap_traits@KKU?$less@K@std@@V?$allocator@U?$pair@$$CBKK@std@@@2@$0A@@std@@SAABKABU?$pair@$$CBKK@2@@Z ENDP ; std::_Tmap_traits<unsigned long,unsigned long,std::less<unsigned long>,std::allocator<std::pair<unsigned long const ,unsigned long> >,0>::_Kfn
_TEXT	ENDS
PUBLIC	?_Color@?$_Tree@V?$_Tmap_traits@KUtagEVENTINFO@@U?$less@K@std@@V?$allocator@U?$pair@$$CBKUtagEVENTINFO@@@std@@@3@$0A@@std@@@std@@KAAADPAU_Node@?$_Tree_nod@V?$_Tmap_traits@KUtagEVENTINFO@@U?$less@K@std@@V?$allocator@U?$pair@$$CBKUtagEVENTINFO@@@std@@@3@$0A@@std@@@2@@Z ; std::_Tree<std::_Tmap_traits<unsigned long,tagEVENTINFO,std::less<unsigned long>,std::allocator<std::pair<unsigned long const ,tagEVENTINFO> >,0> >::_Color
; Function compile flags: /Ogty
; File c:\program files (x86)\microsoft visual studio .net 2003\vc7\include\xtree
;	COMDAT ?_Color@?$_Tree@V?$_Tmap_traits@KUtagEVENTINFO@@U?$less@K@std@@V?$allocator@U?$pair@$$CBKUtagEVENTINFO@@@std@@@3@$0A@@std@@@std@@KAAADPAU_Node@?$_Tree_nod@V?$_Tmap_traits@KUtagEVENTINFO@@U?$less@K@std@@V?$allocator@U?$pair@$$CBKUtagEVENTINFO@@@std@@@3@$0A@@std@@@2@@Z
_TEXT	SEGMENT
__Pnode$ = 8						; size = 4
?_Color@?$_Tree@V?$_Tmap_traits@KUtagEVENTINFO@@U?$less@K@std@@V?$allocator@U?$pair@$$CBKUtagEVENTINFO@@@std@@@3@$0A@@std@@@std@@KAAADPAU_Node@?$_Tree_nod@V?$_Tmap_traits@KUtagEVENTINFO@@U?$less@K@std@@V?$allocator@U?$pair@$$CBKUtagEVENTINFO@@@std@@@3@$0A@@std@@@2@@Z PROC NEAR ; std::_Tree<std::_Tmap_traits<unsigned long,tagEVENTINFO,std::less<unsigned long>,std::allocator<std::pair<unsigned long const ,tagEVENTINFO> >,0> >::_Color, COMDAT

; 132  : 		return ((_Charref)(*_Pnode)._Color);

  00000	8b 44 24 04	 mov	 eax, DWORD PTR __Pnode$[esp-4]
  00004	05 a0 00 00 00	 add	 eax, 160		; 000000a0H

; 133  : 		}

  00009	c3		 ret	 0
?_Color@?$_Tree@V?$_Tmap_traits@KUtagEVENTINFO@@U?$less@K@std@@V?$allocator@U?$pair@$$CBKUtagEVENTINFO@@@std@@@3@$0A@@std@@@std@@KAAADPAU_Node@?$_Tree_nod@V?$_Tmap_traits@KUtagEVENTINFO@@U?$less@K@std@@V?$allocator@U?$pair@$$CBKUtagEVENTINFO@@@std@@@3@$0A@@std@@@2@@Z ENDP ; std::_Tree<std::_Tmap_traits<unsigned long,tagEVENTINFO,std::less<unsigned long>,std::allocator<std::pair<unsigned long const ,tagEVENTINFO> >,0> >::_Color
_TEXT	ENDS
PUBLIC	?_Isnil@?$_Tree@V?$_Tmap_traits@KUtagEVENTINFO@@U?$less@K@std@@V?$allocator@U?$pair@$$CBKUtagEVENTINFO@@@std@@@3@$0A@@std@@@std@@KAAADPAU_Node@?$_Tree_nod@V?$_Tmap_traits@KUtagEVENTINFO@@U?$less@K@std@@V?$allocator@U?$pair@$$CBKUtagEVENTINFO@@@std@@@3@$0A@@std@@@2@@Z ; std::_Tree<std::_Tmap_traits<unsigned long,tagEVENTINFO,std::less<unsigned long>,std::allocator<std::pair<unsigned long const ,tagEVENTINFO> >,0> >::_Isnil
; Function compile flags: /Ogty
;	COMDAT ?_Isnil@?$_Tree@V?$_Tmap_traits@KUtagEVENTINFO@@U?$less@K@std@@V?$allocator@U?$pair@$$CBKUtagEVENTINFO@@@std@@@3@$0A@@std@@@std@@KAAADPAU_Node@?$_Tree_nod@V?$_Tmap_traits@KUtagEVENTINFO@@U?$less@K@std@@V?$allocator@U?$pair@$$CBKUtagEVENTINFO@@@std@@@3@$0A@@std@@@2@@Z
_TEXT	SEGMENT
__Pnode$ = 8						; size = 4
?_Isnil@?$_Tree@V?$_Tmap_traits@KUtagEVENTINFO@@U?$less@K@std@@V?$allocator@U?$pair@$$CBKUtagEVENTINFO@@@std@@@3@$0A@@std@@@std@@KAAADPAU_Node@?$_Tree_nod@V?$_Tmap_traits@KUtagEVENTINFO@@U?$less@K@std@@V?$allocator@U?$pair@$$CBKUtagEVENTINFO@@@std@@@3@$0A@@std@@@2@@Z PROC NEAR ; std::_Tree<std::_Tmap_traits<unsigned long,tagEVENTINFO,std::less<unsigned long>,std::allocator<std::pair<unsigned long const ,tagEVENTINFO> >,0> >::_Isnil, COMDAT

; 137  : 		return ((_Charref)(*_Pnode)._Isnil);

  00000	8b 44 24 04	 mov	 eax, DWORD PTR __Pnode$[esp-4]
  00004	05 a1 00 00 00	 add	 eax, 161		; 000000a1H

; 138  : 		}

  00009	c3		 ret	 0
?_Isnil@?$_Tree@V?$_Tmap_traits@KUtagEVENTINFO@@U?$less@K@std@@V?$allocator@U?$pair@$$CBKUtagEVENTINFO@@@std@@@3@$0A@@std@@@std@@KAAADPAU_Node@?$_Tree_nod@V?$_Tmap_traits@KUtagEVENTINFO@@U?$less@K@std@@V?$allocator@U?$pair@$$CBKUtagEVENTINFO@@@std@@@3@$0A@@std@@@2@@Z ENDP ; std::_Tree<std::_Tmap_traits<unsigned long,tagEVENTINFO,std::less<unsigned long>,std::allocator<std::pair<unsigned long const ,tagEVENTINFO> >,0> >::_Isnil
_TEXT	ENDS
PUBLIC	?_Left@?$_Tree@V?$_Tmap_traits@KUtagEVENTINFO@@U?$less@K@std@@V?$allocator@U?$pair@$$CBKUtagEVENTINFO@@@std@@@3@$0A@@std@@@std@@KAAAPAU_Node@?$_Tree_nod@V?$_Tmap_traits@KUtagEVENTINFO@@U?$less@K@std@@V?$allocator@U?$pair@$$CBKUtagEVENTINFO@@@std@@@3@$0A@@std@@@2@PAU342@@Z ; std::_Tree<std::_Tmap_traits<unsigned long,tagEVENTINFO,std::less<unsigned long>,std::allocator<std::pair<unsigned long const ,tagEVENTINFO> >,0> >::_Left
; Function compile flags: /Ogty
;	COMDAT ?_Left@?$_Tree@V?$_Tmap_traits@KUtagEVENTINFO@@U?$less@K@std@@V?$allocator@U?$pair@$$CBKUtagEVENTINFO@@@std@@@3@$0A@@std@@@std@@KAAAPAU_Node@?$_Tree_nod@V?$_Tmap_traits@KUtagEVENTINFO@@U?$less@K@std@@V?$allocator@U?$pair@$$CBKUtagEVENTINFO@@@std@@@3@$0A@@std@@@2@PAU342@@Z
_TEXT	SEGMENT
__Pnode$ = 8						; size = 4
?_Left@?$_Tree@V?$_Tmap_traits@KUtagEVENTINFO@@U?$less@K@std@@V?$allocator@U?$pair@$$CBKUtagEVENTINFO@@@std@@@3@$0A@@std@@@std@@KAAAPAU_Node@?$_Tree_nod@V?$_Tmap_traits@KUtagEVENTINFO@@U?$less@K@std@@V?$allocator@U?$pair@$$CBKUtagEVENTINFO@@@std@@@3@$0A@@std@@@2@PAU342@@Z PROC NEAR ; std::_Tree<std::_Tmap_traits<unsigned long,tagEVENTINFO,std::less<unsigned long>,std::allocator<std::pair<unsigned long const ,tagEVENTINFO> >,0> >::_Left, COMDAT

; 147  : 		return ((_Nodepref)(*_Pnode)._Left);

  00000	8b 44 24 04	 mov	 eax, DWORD PTR __Pnode$[esp-4]

; 148  : 		}

  00004	c3		 ret	 0
?_Left@?$_Tree@V?$_Tmap_traits@KUtagEVENTINFO@@U?$less@K@std@@V?$allocator@U?$pair@$$CBKUtagEVENTINFO@@@std@@@3@$0A@@std@@@std@@KAAAPAU_Node@?$_Tree_nod@V?$_Tmap_traits@KUtagEVENTINFO@@U?$less@K@std@@V?$allocator@U?$pair@$$CBKUtagEVENTINFO@@@std@@@3@$0A@@std@@@2@PAU342@@Z ENDP ; std::_Tree<std::_Tmap_traits<unsigned long,tagEVENTINFO,std::less<unsigned long>,std::allocator<std::pair<unsigned long const ,tagEVENTINFO> >,0> >::_Left
_TEXT	ENDS
PUBLIC	?_Parent@?$_Tree@V?$_Tmap_traits@KUtagEVENTINFO@@U?$less@K@std@@V?$allocator@U?$pair@$$CBKUtagEVENTINFO@@@std@@@3@$0A@@std@@@std@@KAAAPAU_Node@?$_Tree_nod@V?$_Tmap_traits@KUtagEVENTINFO@@U?$less@K@std@@V?$allocator@U?$pair@$$CBKUtagEVENTINFO@@@std@@@3@$0A@@std@@@2@PAU342@@Z ; std::_Tree<std::_Tmap_traits<unsigned long,tagEVENTINFO,std::less<unsigned long>,std::allocator<std::pair<unsigned long const ,tagEVENTINFO> >,0> >::_Parent
; Function compile flags: /Ogty
;	COMDAT ?_Parent@?$_Tree@V?$_Tmap_traits@KUtagEVENTINFO@@U?$less@K@std@@V?$allocator@U?$pair@$$CBKUtagEVENTINFO@@@std@@@3@$0A@@std@@@std@@KAAAPAU_Node@?$_Tree_nod@V?$_Tmap_traits@KUtagEVENTINFO@@U?$less@K@std@@V?$allocator@U?$pair@$$CBKUtagEVENTINFO@@@std@@@3@$0A@@std@@@2@PAU342@@Z
_TEXT	SEGMENT
__Pnode$ = 8						; size = 4
?_Parent@?$_Tree@V?$_Tmap_traits@KUtagEVENTINFO@@U?$less@K@std@@V?$allocator@U?$pair@$$CBKUtagEVENTINFO@@@std@@@3@$0A@@std@@@std@@KAAAPAU_Node@?$_Tree_nod@V?$_Tmap_traits@KUtagEVENTINFO@@U?$less@K@std@@V?$allocator@U?$pair@$$CBKUtagEVENTINFO@@@std@@@3@$0A@@std@@@2@PAU342@@Z PROC NEAR ; std::_Tree<std::_Tmap_traits<unsigned long,tagEVENTINFO,std::less<unsigned long>,std::allocator<std::pair<unsigned long const ,tagEVENTINFO> >,0> >::_Parent, COMDAT

; 152  : 		return ((_Nodepref)(*_Pnode)._Parent);

  00000	8b 44 24 04	 mov	 eax, DWORD PTR __Pnode$[esp-4]
  00004	83 c0 04	 add	 eax, 4

; 153  : 		}

  00007	c3		 ret	 0
?_Parent@?$_Tree@V?$_Tmap_traits@KUtagEVENTINFO@@U?$less@K@std@@V?$allocator@U?$pair@$$CBKUtagEVENTINFO@@@std@@@3@$0A@@std@@@std@@KAAAPAU_Node@?$_Tree_nod@V?$_Tmap_traits@KUtagEVENTINFO@@U?$less@K@std@@V?$allocator@U?$pair@$$CBKUtagEVENTINFO@@@std@@@3@$0A@@std@@@2@PAU342@@Z ENDP ; std::_Tree<std::_Tmap_traits<unsigned long,tagEVENTINFO,std::less<unsigned long>,std::allocator<std::pair<unsigned long const ,tagEVENTINFO> >,0> >::_Parent
_TEXT	ENDS
PUBLIC	?_Right@?$_Tree@V?$_Tmap_traits@KUtagEVENTINFO@@U?$less@K@std@@V?$allocator@U?$pair@$$CBKUtagEVENTINFO@@@std@@@3@$0A@@std@@@std@@KAAAPAU_Node@?$_Tree_nod@V?$_Tmap_traits@KUtagEVENTINFO@@U?$less@K@std@@V?$allocator@U?$pair@$$CBKUtagEVENTINFO@@@std@@@3@$0A@@std@@@2@PAU342@@Z ; std::_Tree<std::_Tmap_traits<unsigned long,tagEVENTINFO,std::less<unsigned long>,std::allocator<std::pair<unsigned long const ,tagEVENTINFO> >,0> >::_Right
; Function compile flags: /Ogty
;	COMDAT ?_Right@?$_Tree@V?$_Tmap_traits@KUtagEVENTINFO@@U?$less@K@std@@V?$allocator@U?$pair@$$CBKUtagEVENTINFO@@@std@@@3@$0A@@std@@@std@@KAAAPAU_Node@?$_Tree_nod@V?$_Tmap_traits@KUtagEVENTINFO@@U?$less@K@std@@V?$allocator@U?$pair@$$CBKUtagEVENTINFO@@@std@@@3@$0A@@std@@@2@PAU342@@Z
_TEXT	SEGMENT
__Pnode$ = 8						; size = 4
?_Right@?$_Tree@V?$_Tmap_traits@KUtagEVENTINFO@@U?$less@K@std@@V?$allocator@U?$pair@$$CBKUtagEVENTINFO@@@std@@@3@$0A@@std@@@std@@KAAAPAU_Node@?$_Tree_nod@V?$_Tmap_traits@KUtagEVENTINFO@@U?$less@K@std@@V?$allocator@U?$pair@$$CBKUtagEVENTINFO@@@std@@@3@$0A@@std@@@2@PAU342@@Z PROC NEAR ; std::_Tree<std::_Tmap_traits<unsigned long,tagEVENTINFO,std::less<unsigned long>,std::allocator<std::pair<unsigned long const ,tagEVENTINFO> >,0> >::_Right, COMDAT

; 157  : 		return ((_Nodepref)(*_Pnode)._Right);

  00000	8b 44 24 04	 mov	 eax, DWORD PTR __Pnode$[esp-4]
  00004	83 c0 08	 add	 eax, 8

; 158  : 		}

  00007	c3		 ret	 0
?_Right@?$_Tree@V?$_Tmap_traits@KUtagEVENTINFO@@U?$less@K@std@@V?$allocator@U?$pair@$$CBKUtagEVENTINFO@@@std@@@3@$0A@@std@@@std@@KAAAPAU_Node@?$_Tree_nod@V?$_Tmap_traits@KUtagEVENTINFO@@U?$less@K@std@@V?$allocator@U?$pair@$$CBKUtagEVENTINFO@@@std@@@3@$0A@@std@@@2@PAU342@@Z ENDP ; std::_Tree<std::_Tmap_traits<unsigned long,tagEVENTINFO,std::less<unsigned long>,std::allocator<std::pair<unsigned long const ,tagEVENTINFO> >,0> >::_Right
_TEXT	ENDS
