; Listing generated by Microsoft (R) Optimizing Compiler Version 13.10.3077 

	TITLE	.\DBAccess.cpp
	.386P
include listing.inc
if @Version gt 510
.model FLAT
else
_TEXT	SEGMENT PARA USE32 PUBLIC 'CODE'
_TEXT	ENDS
_DATA	SEGMENT DWORD USE32 PUBLIC 'DATA'
_DATA	ENDS
CONST	SEGMENT DWORD USE32 PUBLIC 'CONST'
CONST	ENDS
_BSS	SEGMENT DWORD USE32 PUBLIC 'BSS'
_BSS	ENDS
$$SYMBOLS	SEGMENT BYTE USE32 'DEBSYM'
$$SYMBOLS	ENDS
$$TYPES	SEGMENT BYTE USE32 'DEBTYP'
$$TYPES	ENDS
_TLS	SEGMENT DWORD USE32 PUBLIC 'TLS'
_TLS	ENDS
;	COMDAT ??_C@_0M@PBFKKLH@CTBLChannel?$AA@
CONST	SEGMENT DWORD USE32 PUBLIC 'CONST'
CONST	ENDS
;	COMDAT ??_C@_09CBFKFMKO@CTBLGroup?$AA@
CONST	SEGMENT DWORD USE32 PUBLIC 'CONST'
CONST	ENDS
;	COMDAT ??_C@_0O@COGHLFI@CTBLGroupList?$AA@
CONST	SEGMENT DWORD USE32 PUBLIC 'CONST'
CONST	ENDS
;	COMDAT ??_C@_0P@KEKLJILN@CSPCheckPasswd?$AA@
CONST	SEGMENT DWORD USE32 PUBLIC 'CONST'
CONST	ENDS
;	COMDAT ??_C@_09FMDGFNJM@CSPLogout?$AA@
CONST	SEGMENT DWORD USE32 PUBLIC 'CONST'
CONST	ENDS
;	COMDAT ??_C@_08HPOEJKLG@CSPLogin?$AA@
CONST	SEGMENT DWORD USE32 PUBLIC 'CONST'
CONST	ENDS
;	COMDAT ??_C@_0L@ELJEICCB@CSPCheckIP?$AA@
CONST	SEGMENT DWORD USE32 PUBLIC 'CONST'
CONST	ENDS
;	COMDAT ??_C@_08ELCCIPKB@CSPRoute?$AA@
CONST	SEGMENT DWORD USE32 PUBLIC 'CONST'
CONST	ENDS
;	COMDAT ??_C@_0P@EOMPGPJC@CSPLoadService?$AA@
CONST	SEGMENT DWORD USE32 PUBLIC 'CONST'
CONST	ENDS
;	COMDAT ??_C@_0N@CGBFMCOF@CSPTestLogin?$AA@
CONST	SEGMENT DWORD USE32 PUBLIC 'CONST'
CONST	ENDS
;	COMDAT ??_C@_0N@IBGPBEGA@CSPAgreement?$AA@
CONST	SEGMENT DWORD USE32 PUBLIC 'CONST'
CONST	ENDS
;	COMDAT ??_C@_0O@GIBPOEFL@CTBLUserCount?$AA@
CONST	SEGMENT DWORD USE32 PUBLIC 'CONST'
CONST	ENDS
;	COMDAT ??_C@_0BC@EJDOGFFC@CSPClearLoginUser?$AA@
CONST	SEGMENT DWORD USE32 PUBLIC 'CONST'
CONST	ENDS
;	COMDAT ??_C@_0N@KEAKLAPB@CSPGetNation?$AA@
CONST	SEGMENT DWORD USE32 PUBLIC 'CONST'
CONST	ENDS
;	COMDAT ??_C@_0L@GFPDFJMC@CSPLoginJP?$AA@
CONST	SEGMENT DWORD USE32 PUBLIC 'CONST'
CONST	ENDS
;	COMDAT ??_C@_08DBFGMAPO@CTBLChar?$AA@
CONST	SEGMENT DWORD USE32 PUBLIC 'CONST'
CONST	ENDS
;	COMDAT ??_C@_08KLHKJGDK@CTBLItem?$AA@
CONST	SEGMENT DWORD USE32 PUBLIC 'CONST'
CONST	ENDS
;	COMDAT ??_C@_0BA@GEEJCOBC@CSPGetGuildInfo?$AA@
CONST	SEGMENT DWORD USE32 PUBLIC 'CONST'
CONST	ENDS
;	COMDAT ??_C@_0BA@NAMCOCHJ@CSPFindServerID?$AA@
CONST	SEGMENT DWORD USE32 PUBLIC 'CONST'
CONST	ENDS
;	COMDAT ??_C@_0O@NJMHDGOD@CSPCreateChar?$AA@
CONST	SEGMENT DWORD USE32 PUBLIC 'CONST'
CONST	ENDS
;	COMDAT ??_C@_0O@BNGHABFA@CSPDeleteChar?$AA@
CONST	SEGMENT DWORD USE32 PUBLIC 'CONST'
CONST	ENDS
text$yc	SEGMENT PARA USE32 PUBLIC 'CODE'
text$yc	ENDS
CRT$XCA	SEGMENT DWORD USE32 PUBLIC 'DATA'
CRT$XCA	ENDS
CRT$XCU	SEGMENT DWORD USE32 PUBLIC 'DATA'
CRT$XCU	ENDS
CRT$XCL	SEGMENT DWORD USE32 PUBLIC 'DATA'
CRT$XCL	ENDS
CRT$XCC	SEGMENT DWORD USE32 PUBLIC 'DATA'
CRT$XCC	ENDS
CRT$XCZ	SEGMENT DWORD USE32 PUBLIC 'DATA'
CRT$XCZ	ENDS
text$yd	SEGMENT PARA USE32 PUBLIC 'CODE'
text$yd	ENDS
ATL$__m	SEGMENT DWORD USE32 PUBLIC ''
ATL$__m	ENDS
ATL$__z	SEGMENT DWORD USE32 PUBLIC ''
ATL$__z	ENDS
ATL$__a	SEGMENT DWORD USE32 PUBLIC ''
ATL$__a	ENDS
xdata$x	SEGMENT DWORD USE32 PUBLIC 'CONST'
xdata$x	ENDS
;	COMDAT ?InitQueryTLoginSvr@@YAHPAVCSqlDatabase@@@Z
_TEXT	SEGMENT PARA USE32 PUBLIC 'CODE'
_TEXT	ENDS
;	COMDAT ?InitQueryTGameSvr@@YAHPAVCSqlDatabase@@@Z
_TEXT	SEGMENT PARA USE32 PUBLIC 'CODE'
_TEXT	ENDS
;	COMDAT ?Unlock@?$CComCritSecLock@VCComCriticalSection@ATL@@@ATL@@QAEXXZ
_TEXT	SEGMENT PARA USE32 PUBLIC 'CODE'
_TEXT	ENDS
;	COMDAT ??$_Uninit_fill_n@GIG@std@@YAXPAGIABGAAV?$allocator@G@0@U_Scalar_ptr_iterator_tag@0@@Z
_TEXT	SEGMENT PARA USE32 PUBLIC 'CODE'
_TEXT	ENDS
;	COMDAT ??$_Ptr_cat@PAUtagTCASHITEMSALE@@PAU1@@std@@YA?AU_Nonscalar_ptr_iterator_tag@0@AAPAUtagTCASHITEMSALE@@0@Z
_TEXT	SEGMENT PARA USE32 PUBLIC 'CODE'
_TEXT	ENDS
;	COMDAT ??$_Uninit_fill_n@PAUtagTCASHITEMSALE@@IU1@V?$allocator@UtagTCASHITEMSALE@@@std@@@std@@YAXPAUtagTCASHITEMSALE@@IABU1@AAV?$allocator@UtagTCASHITEMSALE@@@0@U_Nonscalar_ptr_iterator_tag@0@@Z
_TEXT	SEGMENT PARA USE32 PUBLIC 'CODE'
_TEXT	ENDS
;	COMDAT ??$_Ptr_cat@PAUtagMONREGEN@@PAU1@@std@@YA?AU_Nonscalar_ptr_iterator_tag@0@AAPAUtagMONREGEN@@0@Z
_TEXT	SEGMENT PARA USE32 PUBLIC 'CODE'
_TEXT	ENDS
;	COMDAT ??$_Uninit_fill_n@PAUtagMONREGEN@@IU1@V?$allocator@UtagMONREGEN@@@std@@@std@@YAXPAUtagMONREGEN@@IABU1@AAV?$allocator@UtagMONREGEN@@@0@U_Nonscalar_ptr_iterator_tag@0@@Z
_TEXT	SEGMENT PARA USE32 PUBLIC 'CODE'
_TEXT	ENDS
;	COMDAT ??$_Ptr_cat@PAUtagLOTTERY@@PAU1@@std@@YA?AU_Nonscalar_ptr_iterator_tag@0@AAPAUtagLOTTERY@@0@Z
_TEXT	SEGMENT PARA USE32 PUBLIC 'CODE'
_TEXT	ENDS
;	COMDAT ??$_Uninit_fill_n@PAUtagLOTTERY@@IU1@V?$allocator@UtagLOTTERY@@@std@@@std@@YAXPAUtagLOTTERY@@IABU1@AAV?$allocator@UtagLOTTERY@@@0@U_Nonscalar_ptr_iterator_tag@0@@Z
_TEXT	SEGMENT PARA USE32 PUBLIC 'CODE'
_TEXT	ENDS
;	COMDAT ??$_Destroy_range@GV?$allocator@G@std@@@std@@YAXPAG0AAV?$allocator@G@0@U_Scalar_ptr_iterator_tag@0@@Z
_TEXT	SEGMENT PARA USE32 PUBLIC 'CODE'
_TEXT	ENDS
;	COMDAT ??$_Uninitialized_copy@PAGPAGV?$allocator@G@std@@@std@@YAPAGPAG00AAV?$allocator@G@0@@Z
_TEXT	SEGMENT PARA USE32 PUBLIC 'CODE'
_TEXT	ENDS
;	COMDAT ??$_Copy_backward_opt@PAGPAG@std@@YAPAGPAG00U_Scalar_ptr_iterator_tag@0@@Z
_TEXT	SEGMENT PARA USE32 PUBLIC 'CODE'
_TEXT	ENDS
;	COMDAT ??$_Destroy_range@UtagTCASHITEMSALE@@V?$allocator@UtagTCASHITEMSALE@@@std@@@std@@YAXPAUtagTCASHITEMSALE@@0AAV?$allocator@UtagTCASHITEMSALE@@@0@U_Nonscalar_ptr_iterator_tag@0@@Z
_TEXT	SEGMENT PARA USE32 PUBLIC 'CODE'
_TEXT	ENDS
;	COMDAT ??$_Uninitialized_copy@PAUtagTCASHITEMSALE@@PAU1@V?$allocator@UtagTCASHITEMSALE@@@std@@@std@@YAPAUtagTCASHITEMSALE@@PAU1@00AAV?$allocator@UtagTCASHITEMSALE@@@0@@Z
_TEXT	SEGMENT PARA USE32 PUBLIC 'CODE'
_TEXT	ENDS
;	COMDAT ??$_Copy_backward_opt@PAUtagTCASHITEMSALE@@PAU1@@std@@YAPAUtagTCASHITEMSALE@@PAU1@00U_Nonscalar_ptr_iterator_tag@0@@Z
_TEXT	SEGMENT PARA USE32 PUBLIC 'CODE'
_TEXT	ENDS
;	COMDAT ??$_Destroy_range@UtagMONREGEN@@V?$allocator@UtagMONREGEN@@@std@@@std@@YAXPAUtagMONREGEN@@0AAV?$allocator@UtagMONREGEN@@@0@U_Nonscalar_ptr_iterator_tag@0@@Z
_TEXT	SEGMENT PARA USE32 PUBLIC 'CODE'
_TEXT	ENDS
;	COMDAT ??$_Uninitialized_copy@PAUtagMONREGEN@@PAU1@V?$allocator@UtagMONREGEN@@@std@@@std@@YAPAUtagMONREGEN@@PAU1@00AAV?$allocator@UtagMONREGEN@@@0@@Z
_TEXT	SEGMENT PARA USE32 PUBLIC 'CODE'
_TEXT	ENDS
;	COMDAT ??$_Copy_backward_opt@PAUtagMONREGEN@@PAU1@@std@@YAPAUtagMONREGEN@@PAU1@00U_Nonscalar_ptr_iterator_tag@0@@Z
_TEXT	SEGMENT PARA USE32 PUBLIC 'CODE'
_TEXT	ENDS
;	COMDAT ??$_Destroy_range@UtagLOTTERY@@V?$allocator@UtagLOTTERY@@@std@@@std@@YAXPAUtagLOTTERY@@0AAV?$allocator@UtagLOTTERY@@@0@U_Nonscalar_ptr_iterator_tag@0@@Z
_TEXT	SEGMENT PARA USE32 PUBLIC 'CODE'
_TEXT	ENDS
;	COMDAT ??$_Uninitialized_copy@PAUtagLOTTERY@@PAU1@V?$allocator@UtagLOTTERY@@@std@@@std@@YAPAUtagLOTTERY@@PAU1@00AAV?$allocator@UtagLOTTERY@@@0@@Z
_TEXT	SEGMENT PARA USE32 PUBLIC 'CODE'
_TEXT	ENDS
;	COMDAT ??$_Copy_backward_opt@PAUtagLOTTERY@@PAU1@@std@@YAPAUtagLOTTERY@@PAU1@00U_Nonscalar_ptr_iterator_tag@0@@Z
_TEXT	SEGMENT PARA USE32 PUBLIC 'CODE'
_TEXT	ENDS
;	COMDAT ?construct@?$allocator@UtagTCASHITEMSALE@@@std@@QAEXPAUtagTCASHITEMSALE@@ABU3@@Z
_TEXT	SEGMENT PARA USE32 PUBLIC 'CODE'
_TEXT	ENDS
;	COMDAT ?destroy@?$allocator@UtagTCASHITEMSALE@@@std@@QAEXPAUtagTCASHITEMSALE@@@Z
_TEXT	SEGMENT PARA USE32 PUBLIC 'CODE'
_TEXT	ENDS
;	COMDAT ?construct@?$allocator@UtagMONREGEN@@@std@@QAEXPAUtagMONREGEN@@ABU3@@Z
_TEXT	SEGMENT PARA USE32 PUBLIC 'CODE'
_TEXT	ENDS
;	COMDAT ?destroy@?$allocator@UtagMONREGEN@@@std@@QAEXPAUtagMONREGEN@@@Z
_TEXT	SEGMENT PARA USE32 PUBLIC 'CODE'
_TEXT	ENDS
;	COMDAT ?construct@?$allocator@UtagLOTTERY@@@std@@QAEXPAUtagLOTTERY@@ABU3@@Z
_TEXT	SEGMENT PARA USE32 PUBLIC 'CODE'
_TEXT	ENDS
;	COMDAT ?destroy@?$allocator@UtagLOTTERY@@@std@@QAEXPAUtagLOTTERY@@@Z
_TEXT	SEGMENT PARA USE32 PUBLIC 'CODE'
_TEXT	ENDS
;	COMDAT ??$fill_n@PAGIG@std@@YAXPAGIABG@Z
_TEXT	SEGMENT PARA USE32 PUBLIC 'CODE'
_TEXT	ENDS
;	COMDAT ??$_Uninit_copy@GG@std@@YAPAGPAG00AAV?$allocator@G@0@U_Scalar_ptr_iterator_tag@0@@Z
_TEXT	SEGMENT PARA USE32 PUBLIC 'CODE'
_TEXT	ENDS
;	COMDAT ??$_Uninit_copy@PAUtagTCASHITEMSALE@@PAU1@V?$allocator@UtagTCASHITEMSALE@@@std@@@std@@YAPAUtagTCASHITEMSALE@@PAU1@00AAV?$allocator@UtagTCASHITEMSALE@@@0@U_Nonscalar_ptr_iterator_tag@0@@Z
_TEXT	SEGMENT PARA USE32 PUBLIC 'CODE'
_TEXT	ENDS
;	COMDAT ??$_Uninit_copy@PAUtagMONREGEN@@PAU1@V?$allocator@UtagMONREGEN@@@std@@@std@@YAPAUtagMONREGEN@@PAU1@00AAV?$allocator@UtagMONREGEN@@@0@U_Nonscalar_ptr_iterator_tag@0@@Z
_TEXT	SEGMENT PARA USE32 PUBLIC 'CODE'
_TEXT	ENDS
;	COMDAT ??$_Uninit_copy@PAUtagLOTTERY@@PAU1@V?$allocator@UtagLOTTERY@@@std@@@std@@YAPAUtagLOTTERY@@PAU1@00AAV?$allocator@UtagLOTTERY@@@0@U_Nonscalar_ptr_iterator_tag@0@@Z
_TEXT	SEGMENT PARA USE32 PUBLIC 'CODE'
_TEXT	ENDS
;	COMDAT ??$_Construct@UtagTCASHITEMSALE@@U1@@std@@YAXPAUtagTCASHITEMSALE@@ABU1@@Z
_TEXT	SEGMENT PARA USE32 PUBLIC 'CODE'
_TEXT	ENDS
;	COMDAT ??$_Destroy@UtagTCASHITEMSALE@@@std@@YAXPAUtagTCASHITEMSALE@@@Z
_TEXT	SEGMENT PARA USE32 PUBLIC 'CODE'
_TEXT	ENDS
;	COMDAT ??$_Construct@UtagMONREGEN@@U1@@std@@YAXPAUtagMONREGEN@@ABU1@@Z
_TEXT	SEGMENT PARA USE32 PUBLIC 'CODE'
_TEXT	ENDS
;	COMDAT ??$_Destroy@UtagMONREGEN@@@std@@YAXPAUtagMONREGEN@@@Z
_TEXT	SEGMENT PARA USE32 PUBLIC 'CODE'
_TEXT	ENDS
;	COMDAT ??$_Construct@UtagLOTTERY@@U1@@std@@YAXPAUtagLOTTERY@@ABU1@@Z
_TEXT	SEGMENT PARA USE32 PUBLIC 'CODE'
_TEXT	ENDS
;	COMDAT ??$_Destroy@UtagLOTTERY@@@std@@YAXPAUtagLOTTERY@@@Z
_TEXT	SEGMENT PARA USE32 PUBLIC 'CODE'
_TEXT	ENDS
;	COMDAT ??2@YAPAXIPAX@Z
_TEXT	SEGMENT PARA USE32 PUBLIC 'CODE'
_TEXT	ENDS
;	COMDAT ?_Ptr_cat@std@@YA?AU_Scalar_ptr_iterator_tag@1@PAG0@Z
_TEXT	SEGMENT PARA USE32 PUBLIC 'CODE'
_TEXT	ENDS
;	COMDAT ?_Psave@?$_Facetptr@V?$ctype@G@std@@@std@@2PBVfacet@locale@2@B
_DATA	SEGMENT DWORD USE32 PUBLIC 'DATA'
_DATA	ENDS
;	COMDAT ?_Psave@?$_Facetptr@V?$ctype@D@std@@@std@@2PBVfacet@locale@2@B
_DATA	SEGMENT DWORD USE32 PUBLIC 'DATA'
_DATA	ENDS
;	COMDAT ?Unlock@CComCriticalSection@ATL@@QAEJXZ
_TEXT	SEGMENT PARA USE32 PUBLIC 'CODE'
_TEXT	ENDS
;	COMDAT ??0CSPDeleteChar@@QAE@PAVCSqlDatabase@@V?$basic_string@DU?$char_traits@D@std@@V?$allocator@D@2@@std@@@Z
_TEXT	SEGMENT PARA USE32 PUBLIC 'CODE'
_TEXT	ENDS
;	COMDAT ??_C@_0CB@JNHKKEIK@?$HL?5?$DP?5?$DN?5CALL?5TDeleteChar?$CI?$DP?0?$DP?0?$DP?0?$DP?$CJ?$HN@
CONST	SEGMENT DWORD USE32 PUBLIC 'CONST'
CONST	ENDS
;	COMDAT ??0?$basic_string@DU?$char_traits@D@std@@V?$allocator@D@2@@std@@QAE@ABV01@@Z
_TEXT	SEGMENT PARA USE32 PUBLIC 'CODE'
_TEXT	ENDS
;	COMDAT ??0?$_String_val@DV?$allocator@D@std@@@std@@IAE@V?$allocator@D@1@@Z
_TEXT	SEGMENT PARA USE32 PUBLIC 'CODE'
_TEXT	ENDS
;	COMDAT ??0?$allocator@D@std@@QAE@ABV01@@Z
_TEXT	SEGMENT PARA USE32 PUBLIC 'CODE'
_TEXT	ENDS
;	COMDAT ?_Tidy@?$basic_string@DU?$char_traits@D@std@@V?$allocator@D@2@@std@@IAEX_NI@Z
_TEXT	SEGMENT PARA USE32 PUBLIC 'CODE'
_TEXT	ENDS
;	COMDAT ?copy@?$char_traits@D@std@@SAPADPADPBDI@Z
_TEXT	SEGMENT PARA USE32 PUBLIC 'CODE'
_TEXT	ENDS
;	COMDAT ?deallocate@?$allocator@D@std@@QAEXPADI@Z
_TEXT	SEGMENT PARA USE32 PUBLIC 'CODE'
_TEXT	ENDS
;	COMDAT ?_Eos@?$basic_string@DU?$char_traits@D@std@@V?$allocator@D@2@@std@@IAEXI@Z
_TEXT	SEGMENT PARA USE32 PUBLIC 'CODE'
_TEXT	ENDS
;	COMDAT ?assign@?$char_traits@D@std@@SAXAADABD@Z
_TEXT	SEGMENT PARA USE32 PUBLIC 'CODE'
_TEXT	ENDS
;	COMDAT ?_Myptr@?$basic_string@DU?$char_traits@D@std@@V?$allocator@D@2@@std@@QAEPADXZ
_TEXT	SEGMENT PARA USE32 PUBLIC 'CODE'
_TEXT	ENDS
;	COMDAT ?assign@?$basic_string@DU?$char_traits@D@std@@V?$allocator@D@2@@std@@QAEAAV12@ABV12@II@Z
_TEXT	SEGMENT PARA USE32 PUBLIC 'CODE'
_TEXT	ENDS
;	COMDAT ?size@?$basic_string@DU?$char_traits@D@std@@V?$allocator@D@2@@std@@QBEIXZ
_TEXT	SEGMENT PARA USE32 PUBLIC 'CODE'
_TEXT	ENDS
;	COMDAT ?erase@?$basic_string@DU?$char_traits@D@std@@V?$allocator@D@2@@std@@QAEAAV12@II@Z
_TEXT	SEGMENT PARA USE32 PUBLIC 'CODE'
_TEXT	ENDS
;	COMDAT ?move@?$char_traits@D@std@@SAPADPADPBDI@Z
_TEXT	SEGMENT PARA USE32 PUBLIC 'CODE'
_TEXT	ENDS
;	COMDAT ?_Grow@?$basic_string@DU?$char_traits@D@std@@V?$allocator@D@2@@std@@IAE_NI_N@Z
_TEXT	SEGMENT PARA USE32 PUBLIC 'CODE'
_TEXT	ENDS
;	COMDAT ?max_size@?$basic_string@DU?$char_traits@D@std@@V?$allocator@D@2@@std@@QBEIXZ
_TEXT	SEGMENT PARA USE32 PUBLIC 'CODE'
_TEXT	ENDS
;	COMDAT ?max_size@?$allocator@D@std@@QBEIXZ
_TEXT	SEGMENT PARA USE32 PUBLIC 'CODE'
_TEXT	ENDS
;	COMDAT ?_Copy@?$basic_string@DU?$char_traits@D@std@@V?$allocator@D@2@@std@@IAEXII@Z
_TEXT	SEGMENT PARA USE32 PUBLIC 'CODE'
_TEXT	ENDS
;	COMDAT ?allocate@?$allocator@D@std@@QAEPADI@Z
_TEXT	SEGMENT PARA USE32 PUBLIC 'CODE'
_TEXT	ENDS
;	COMDAT ??$_Allocate@D@std@@YAPADIPAD@Z
_TEXT	SEGMENT PARA USE32 PUBLIC 'CODE'
_TEXT	ENDS
;	COMDAT ?_Myptr@?$basic_string@DU?$char_traits@D@std@@V?$allocator@D@2@@std@@QBEPBDXZ
_TEXT	SEGMENT PARA USE32 PUBLIC 'CODE'
_TEXT	ENDS
;	COMDAT ?npos@?$basic_string@DU?$char_traits@D@std@@V?$allocator@D@2@@std@@2IB
CONST	SEGMENT DWORD USE32 PUBLIC 'CONST'
CONST	ENDS
;	COMDAT ??_7CSPDeleteChar@@6B@
CONST	SEGMENT DWORD USE32 PUBLIC 'CONST'
CONST	ENDS
;	COMDAT ??_GCSPDeleteChar@@UAEPAXI@Z
_TEXT	SEGMENT PARA USE32 PUBLIC 'CODE'
_TEXT	ENDS
;	COMDAT ??1CSPDeleteChar@@UAE@XZ
_TEXT	SEGMENT PARA USE32 PUBLIC 'CODE'
_TEXT	ENDS
;	COMDAT ?GetNumParam@CSPDeleteChar@@UAEHXZ
_TEXT	SEGMENT PARA USE32 PUBLIC 'CODE'
_TEXT	ENDS
;	COMDAT ?BindParameters@CSPDeleteChar@@UAEFH@Z
_TEXT	SEGMENT PARA USE32 PUBLIC 'CODE'
_TEXT	ENDS
;	COMDAT ??0CSPCreateChar@@QAE@PAVCSqlDatabase@@V?$basic_string@DU?$char_traits@D@std@@V?$allocator@D@2@@std@@@Z
_TEXT	SEGMENT PARA USE32 PUBLIC 'CODE'
_TEXT	ENDS
;	COMDAT ??_C@_0DJ@PHMMMBIN@?$HL?5?$DP?5?$DN?5CALL?5TCreateChar?$CI?$DP?0?$DP?0?$DP?0?$DP?0?$DP@
CONST	SEGMENT DWORD USE32 PUBLIC 'CONST'
CONST	ENDS
;	COMDAT ??_7CSPCreateChar@@6B@
CONST	SEGMENT DWORD USE32 PUBLIC 'CONST'
CONST	ENDS
;	COMDAT ??_GCSPCreateChar@@UAEPAXI@Z
_TEXT	SEGMENT PARA USE32 PUBLIC 'CODE'
_TEXT	ENDS
;	COMDAT ??1CSPCreateChar@@UAE@XZ
_TEXT	SEGMENT PARA USE32 PUBLIC 'CODE'
_TEXT	ENDS
;	COMDAT ?GetNumParam@CSPCreateChar@@UAEHXZ
_TEXT	SEGMENT PARA USE32 PUBLIC 'CODE'
_TEXT	ENDS
;	COMDAT ?BindParameters@CSPCreateChar@@UAEFH@Z
_TEXT	SEGMENT PARA USE32 PUBLIC 'CODE'
_TEXT	ENDS
;	COMDAT ??0CSPFindServerID@@QAE@PAVCSqlDatabase@@V?$basic_string@DU?$char_traits@D@std@@V?$allocator@D@2@@std@@@Z
_TEXT	SEGMENT PARA USE32 PUBLIC 'CODE'
_TEXT	ENDS
;	COMDAT ??_C@_0CB@OFIMHJGF@?$HL?5?$DP?5?$DN?5CALL?5TFindServerID?$CI?$DP?0?$DP?0?$DP?$CJ?$HN@
CONST	SEGMENT DWORD USE32 PUBLIC 'CONST'
CONST	ENDS
;	COMDAT ??_7CSPFindServerID@@6B@
CONST	SEGMENT DWORD USE32 PUBLIC 'CONST'
CONST	ENDS
;	COMDAT ??_GCSPFindServerID@@UAEPAXI@Z
_TEXT	SEGMENT PARA USE32 PUBLIC 'CODE'
_TEXT	ENDS
;	COMDAT ??1CSPFindServerID@@UAE@XZ
_TEXT	SEGMENT PARA USE32 PUBLIC 'CODE'
_TEXT	ENDS
;	COMDAT ?GetNumParam@CSPFindServerID@@UAEHXZ
_TEXT	SEGMENT PARA USE32 PUBLIC 'CODE'
_TEXT	ENDS
;	COMDAT ?BindParameters@CSPFindServerID@@UAEFH@Z
_TEXT	SEGMENT PARA USE32 PUBLIC 'CODE'
_TEXT	ENDS
;	COMDAT ??0CSPGetGuildInfo@@QAE@PAVCSqlDatabase@@V?$basic_string@DU?$char_traits@D@std@@V?$allocator@D@2@@std@@@Z
_TEXT	SEGMENT PARA USE32 PUBLIC 'CODE'
_TEXT	ENDS
;	COMDAT ??_C@_0BO@CHEFPEBD@?$HLCALL?5TGetGuildInfo?$CI?$DP?0?$DP?0?$DP?0?$DP?$CJ?$HN?$AA@
CONST	SEGMENT DWORD USE32 PUBLIC 'CONST'
CONST	ENDS
;	COMDAT ??_7CSPGetGuildInfo@@6B@
CONST	SEGMENT DWORD USE32 PUBLIC 'CONST'
CONST	ENDS
;	COMDAT ??_GCSPGetGuildInfo@@UAEPAXI@Z
_TEXT	SEGMENT PARA USE32 PUBLIC 'CODE'
_TEXT	ENDS
;	COMDAT ??1CSPGetGuildInfo@@UAE@XZ
_TEXT	SEGMENT PARA USE32 PUBLIC 'CODE'
_TEXT	ENDS
;	COMDAT ?GetNumParam@CSPGetGuildInfo@@UAEHXZ
_TEXT	SEGMENT PARA USE32 PUBLIC 'CODE'
_TEXT	ENDS
;	COMDAT ?BindParameters@CSPGetGuildInfo@@UAEFH@Z
_TEXT	SEGMENT PARA USE32 PUBLIC 'CODE'
_TEXT	ENDS
;	COMDAT ??0CTBLItem@@QAE@PAVCSqlDatabase@@V?$basic_string@DU?$char_traits@D@std@@V?$allocator@D@2@@std@@@Z
_TEXT	SEGMENT PARA USE32 PUBLIC 'CODE'
_TEXT	ENDS
;	COMDAT ??_C@_0KD@GFNFKGDN@SELECT?5?7bItemID?0?5?7wItemID?0?5?7bLev@
CONST	SEGMENT DWORD USE32 PUBLIC 'CONST'
CONST	ENDS
;	COMDAT ??_7CTBLItem@@6B@
CONST	SEGMENT DWORD USE32 PUBLIC 'CONST'
CONST	ENDS
;	COMDAT ??_GCTBLItem@@UAEPAXI@Z
_TEXT	SEGMENT PARA USE32 PUBLIC 'CODE'
_TEXT	ENDS
;	COMDAT ??1CTBLItem@@UAE@XZ
_TEXT	SEGMENT PARA USE32 PUBLIC 'CODE'
_TEXT	ENDS
;	COMDAT ?GetNumCol@CTBLItem@@UAEHXZ
_TEXT	SEGMENT PARA USE32 PUBLIC 'CODE'
_TEXT	ENDS
;	COMDAT ?GetNumParam@CTBLItem@@UAEHXZ
_TEXT	SEGMENT PARA USE32 PUBLIC 'CODE'
_TEXT	ENDS
;	COMDAT ?BindColumns@CTBLItem@@UAEFXZ
_TEXT	SEGMENT PARA USE32 PUBLIC 'CODE'
_TEXT	ENDS
;	COMDAT ?BindParameters@CTBLItem@@UAEFH@Z
_TEXT	SEGMENT PARA USE32 PUBLIC 'CODE'
_TEXT	ENDS
;	COMDAT ??0CTBLChar@@QAE@PAVCSqlDatabase@@V?$basic_string@DU?$char_traits@D@std@@V?$allocator@D@2@@std@@@Z
_TEXT	SEGMENT PARA USE32 PUBLIC 'CODE'
_TEXT	ENDS
;	COMDAT ??_C@_0OL@FALAGHJA@SELECT?5TOP?56?5?7szNAME?0?5?7dwCharID?0@
CONST	SEGMENT DWORD USE32 PUBLIC 'CONST'
CONST	ENDS
;	COMDAT ??_7CTBLChar@@6B@
CONST	SEGMENT DWORD USE32 PUBLIC 'CONST'
CONST	ENDS
;	COMDAT ??_GCTBLChar@@UAEPAXI@Z
_TEXT	SEGMENT PARA USE32 PUBLIC 'CODE'
_TEXT	ENDS
;	COMDAT ??1CTBLChar@@UAE@XZ
_TEXT	SEGMENT PARA USE32 PUBLIC 'CODE'
_TEXT	ENDS
;	COMDAT ?GetNumCol@CTBLChar@@UAEHXZ
_TEXT	SEGMENT PARA USE32 PUBLIC 'CODE'
_TEXT	ENDS
;	COMDAT ?GetNumParam@CTBLChar@@UAEHXZ
_TEXT	SEGMENT PARA USE32 PUBLIC 'CODE'
_TEXT	ENDS
;	COMDAT ?BindColumns@CTBLChar@@UAEFXZ
_TEXT	SEGMENT PARA USE32 PUBLIC 'CODE'
_TEXT	ENDS
;	COMDAT ?BindParameters@CTBLChar@@UAEFH@Z
_TEXT	SEGMENT PARA USE32 PUBLIC 'CODE'
_TEXT	ENDS
;	COMDAT ??0CSPLoginJP@@QAE@PAVCSqlDatabase@@V?$basic_string@DU?$char_traits@D@std@@V?$allocator@D@2@@std@@@Z
_TEXT	SEGMENT PARA USE32 PUBLIC 'CODE'
_TEXT	ENDS
;	COMDAT ??_C@_0CO@KCOCOIDI@?$HL?5?$DP?5?$DN?5CALL?5TLogin?$CI?$DP?0?$DP?0?$DP?0?$DP?0?$DP?0?$DP?0?$DP?0@
CONST	SEGMENT DWORD USE32 PUBLIC 'CONST'
CONST	ENDS
;	COMDAT ??_7CSPLoginJP@@6B@
CONST	SEGMENT DWORD USE32 PUBLIC 'CONST'
CONST	ENDS
;	COMDAT ??_GCSPLoginJP@@UAEPAXI@Z
_TEXT	SEGMENT PARA USE32 PUBLIC 'CODE'
_TEXT	ENDS
;	COMDAT ??1CSPLoginJP@@UAE@XZ
_TEXT	SEGMENT PARA USE32 PUBLIC 'CODE'
_TEXT	ENDS
;	COMDAT ?GetNumParam@CSPLoginJP@@UAEHXZ
_TEXT	SEGMENT PARA USE32 PUBLIC 'CODE'
_TEXT	ENDS
;	COMDAT ?BindParameters@CSPLoginJP@@UAEFH@Z
_TEXT	SEGMENT PARA USE32 PUBLIC 'CODE'
_TEXT	ENDS
;	COMDAT ??0CSPGetNation@@QAE@PAVCSqlDatabase@@V?$basic_string@DU?$char_traits@D@std@@V?$allocator@D@2@@std@@@Z
_TEXT	SEGMENT PARA USE32 PUBLIC 'CODE'
_TEXT	ENDS
;	COMDAT ??_C@_0BF@MGHBOKLC@?$HLCALL?5TGetNation?$CI?$DP?$CJ?$HN?$AA@
CONST	SEGMENT DWORD USE32 PUBLIC 'CONST'
CONST	ENDS
;	COMDAT ??_7CSPGetNation@@6B@
CONST	SEGMENT DWORD USE32 PUBLIC 'CONST'
CONST	ENDS
;	COMDAT ??_GCSPGetNation@@UAEPAXI@Z
_TEXT	SEGMENT PARA USE32 PUBLIC 'CODE'
_TEXT	ENDS
;	COMDAT ??1CSPGetNation@@UAE@XZ
_TEXT	SEGMENT PARA USE32 PUBLIC 'CODE'
_TEXT	ENDS
;	COMDAT ?GetNumParam@CSPGetNation@@UAEHXZ
_TEXT	SEGMENT PARA USE32 PUBLIC 'CODE'
_TEXT	ENDS
;	COMDAT ?BindParameters@CSPGetNation@@UAEFH@Z
_TEXT	SEGMENT PARA USE32 PUBLIC 'CODE'
_TEXT	ENDS
;	COMDAT ??0CSPClearLoginUser@@QAE@PAVCSqlDatabase@@V?$basic_string@DU?$char_traits@D@std@@V?$allocator@D@2@@std@@@Z
_TEXT	SEGMENT PARA USE32 PUBLIC 'CODE'
_TEXT	ENDS
;	COMDAT ??_C@_0BO@FHFPIHDG@?$HLCALL?5TClearLoginCurrentUser?$HN?$AA@
CONST	SEGMENT DWORD USE32 PUBLIC 'CONST'
CONST	ENDS
;	COMDAT ??_7CSPClearLoginUser@@6B@
CONST	SEGMENT DWORD USE32 PUBLIC 'CONST'
CONST	ENDS
;	COMDAT ??_GCSPClearLoginUser@@UAEPAXI@Z
_TEXT	SEGMENT PARA USE32 PUBLIC 'CODE'
_TEXT	ENDS
;	COMDAT ??1CSPClearLoginUser@@UAE@XZ
_TEXT	SEGMENT PARA USE32 PUBLIC 'CODE'
_TEXT	ENDS
;	COMDAT ??0CTBLUserCount@@QAE@PAVCSqlDatabase@@V?$basic_string@DU?$char_traits@D@std@@V?$allocator@D@2@@std@@@Z
_TEXT	SEGMENT PARA USE32 PUBLIC 'CODE'
_TEXT	ENDS
;	COMDAT ??_C@_0FD@OPEJJGMC@SELECT?5?7bWorldID?0?5?7COUNT?$CIDISTINC@
CONST	SEGMENT DWORD USE32 PUBLIC 'CONST'
CONST	ENDS
;	COMDAT ??_7CTBLUserCount@@6B@
CONST	SEGMENT DWORD USE32 PUBLIC 'CONST'
CONST	ENDS
;	COMDAT ??_GCTBLUserCount@@UAEPAXI@Z
_TEXT	SEGMENT PARA USE32 PUBLIC 'CODE'
_TEXT	ENDS
;	COMDAT ??1CTBLUserCount@@UAE@XZ
_TEXT	SEGMENT PARA USE32 PUBLIC 'CODE'
_TEXT	ENDS
;	COMDAT ?GetNumCol@CTBLUserCount@@UAEHXZ
_TEXT	SEGMENT PARA USE32 PUBLIC 'CODE'
_TEXT	ENDS
;	COMDAT ?BindColumns@CTBLUserCount@@UAEFXZ
_TEXT	SEGMENT PARA USE32 PUBLIC 'CODE'
_TEXT	ENDS
;	COMDAT ??0CSPAgreement@@QAE@PAVCSqlDatabase@@V?$basic_string@DU?$char_traits@D@std@@V?$allocator@D@2@@std@@@Z
_TEXT	SEGMENT PARA USE32 PUBLIC 'CODE'
_TEXT	ENDS
;	COMDAT ??_C@_0BF@EOHCNCGK@?$HLCALL?5TAgreement?$CI?$DP?$CJ?$HN?$AA@
CONST	SEGMENT DWORD USE32 PUBLIC 'CONST'
CONST	ENDS
;	COMDAT ??_7CSPAgreement@@6B@
CONST	SEGMENT DWORD USE32 PUBLIC 'CONST'
CONST	ENDS
;	COMDAT ??_GCSPAgreement@@UAEPAXI@Z
_TEXT	SEGMENT PARA USE32 PUBLIC 'CODE'
_TEXT	ENDS
;	COMDAT ??1CSPAgreement@@UAE@XZ
_TEXT	SEGMENT PARA USE32 PUBLIC 'CODE'
_TEXT	ENDS
;	COMDAT ?GetNumParam@CSPAgreement@@UAEHXZ
_TEXT	SEGMENT PARA USE32 PUBLIC 'CODE'
_TEXT	ENDS
;	COMDAT ?BindParameters@CSPAgreement@@UAEFH@Z
_TEXT	SEGMENT PARA USE32 PUBLIC 'CODE'
_TEXT	ENDS
;	COMDAT ??0CSPTestLogin@@QAE@PAVCSqlDatabase@@V?$basic_string@DU?$char_traits@D@std@@V?$allocator@D@2@@std@@@Z
_TEXT	SEGMENT PARA USE32 PUBLIC 'CODE'
_TEXT	ENDS
;	COMDAT ??_C@_0CG@NPOGDAIJ@?$HL?5?$DP?5?$DN?5CALL?5TTestLogin?$CI?$DP?0?$DP?0?$DP?0?$DP?0?$DP?0@
CONST	SEGMENT DWORD USE32 PUBLIC 'CONST'
CONST	ENDS
;	COMDAT ??_7CSPTestLogin@@6B@
CONST	SEGMENT DWORD USE32 PUBLIC 'CONST'
CONST	ENDS
;	COMDAT ??_GCSPTestLogin@@UAEPAXI@Z
_TEXT	SEGMENT PARA USE32 PUBLIC 'CODE'
_TEXT	ENDS
;	COMDAT ??1CSPTestLogin@@UAE@XZ
_TEXT	SEGMENT PARA USE32 PUBLIC 'CODE'
_TEXT	ENDS
;	COMDAT ?GetNumParam@CSPTestLogin@@UAEHXZ
_TEXT	SEGMENT PARA USE32 PUBLIC 'CODE'
_TEXT	ENDS
;	COMDAT ?BindParameters@CSPTestLogin@@UAEFH@Z
_TEXT	SEGMENT PARA USE32 PUBLIC 'CODE'
_TEXT	ENDS
;	COMDAT ??0CSPLoadService@@QAE@PAVCSqlDatabase@@V?$basic_string@DU?$char_traits@D@std@@V?$allocator@D@2@@std@@@Z
_TEXT	SEGMENT PARA USE32 PUBLIC 'CODE'
_TEXT	ENDS
;	COMDAT ??_C@_0BN@FKLLIGDD@?$HLCALL?5TLoadService?$CI?$DP?0?$DP?0?$DP?0?$DP?$CJ?$HN?$AA@
CONST	SEGMENT DWORD USE32 PUBLIC 'CONST'
CONST	ENDS
;	COMDAT ??_7CSPLoadService@@6B@
CONST	SEGMENT DWORD USE32 PUBLIC 'CONST'
CONST	ENDS
;	COMDAT ??_GCSPLoadService@@UAEPAXI@Z
_TEXT	SEGMENT PARA USE32 PUBLIC 'CODE'
_TEXT	ENDS
;	COMDAT ??1CSPLoadService@@UAE@XZ
_TEXT	SEGMENT PARA USE32 PUBLIC 'CODE'
_TEXT	ENDS
;	COMDAT ?GetNumParam@CSPLoadService@@UAEHXZ
_TEXT	SEGMENT PARA USE32 PUBLIC 'CODE'
_TEXT	ENDS
;	COMDAT ?BindParameters@CSPLoadService@@UAEFH@Z
_TEXT	SEGMENT PARA USE32 PUBLIC 'CODE'
_TEXT	ENDS
;	COMDAT ??0CSPRoute@@QAE@PAVCSqlDatabase@@V?$basic_string@DU?$char_traits@D@std@@V?$allocator@D@2@@std@@@Z
_TEXT	SEGMENT PARA USE32 PUBLIC 'CODE'
_TEXT	ENDS
;	COMDAT ??_C@_0BO@LDFDEPKD@?$HL?5?$DP?5?$DN?5CALL?5TRoute?$CI?$DP?0?$DP?0?$DP?0?$DP?0?$DP?$CJ?$HN?$AA@
CONST	SEGMENT DWORD USE32 PUBLIC 'CONST'
CONST	ENDS
;	COMDAT ??_7CSPRoute@@6B@
CONST	SEGMENT DWORD USE32 PUBLIC 'CONST'
CONST	ENDS
;	COMDAT ??_GCSPRoute@@UAEPAXI@Z
_TEXT	SEGMENT PARA USE32 PUBLIC 'CODE'
_TEXT	ENDS
;	COMDAT ??1CSPRoute@@UAE@XZ
_TEXT	SEGMENT PARA USE32 PUBLIC 'CODE'
_TEXT	ENDS
;	COMDAT ?GetNumParam@CSPRoute@@UAEHXZ
_TEXT	SEGMENT PARA USE32 PUBLIC 'CODE'
_TEXT	ENDS
;	COMDAT ?BindParameters@CSPRoute@@UAEFH@Z
_TEXT	SEGMENT PARA USE32 PUBLIC 'CODE'
_TEXT	ENDS
;	COMDAT ??0CSPCheckIP@@QAE@PAVCSqlDatabase@@V?$basic_string@DU?$char_traits@D@std@@V?$allocator@D@2@@std@@@Z
_TEXT	SEGMENT PARA USE32 PUBLIC 'CODE'
_TEXT	ENDS
;	COMDAT ??_C@_0BI@KADAHKPB@?$HL?5?$DP?5?$DN?5CALL?5TCheckIP?$CI?$DP?$CJ?$HN?$AA@
CONST	SEGMENT DWORD USE32 PUBLIC 'CONST'
CONST	ENDS
;	COMDAT ??_7CSPCheckIP@@6B@
CONST	SEGMENT DWORD USE32 PUBLIC 'CONST'
CONST	ENDS
;	COMDAT ??_GCSPCheckIP@@UAEPAXI@Z
_TEXT	SEGMENT PARA USE32 PUBLIC 'CODE'
_TEXT	ENDS
;	COMDAT ??1CSPCheckIP@@UAE@XZ
_TEXT	SEGMENT PARA USE32 PUBLIC 'CODE'
_TEXT	ENDS
;	COMDAT ?GetNumParam@CSPCheckIP@@UAEHXZ
_TEXT	SEGMENT PARA USE32 PUBLIC 'CODE'
_TEXT	ENDS
;	COMDAT ?BindParameters@CSPCheckIP@@UAEFH@Z
_TEXT	SEGMENT PARA USE32 PUBLIC 'CODE'
_TEXT	ENDS
;	COMDAT ??0CSPLogin@@QAE@PAVCSqlDatabase@@V?$basic_string@DU?$char_traits@D@std@@V?$allocator@D@2@@std@@@Z
_TEXT	SEGMENT PARA USE32 PUBLIC 'CODE'
_TEXT	ENDS
;	COMDAT ??_C@_0CM@HKEMIMCP@?$HL?5?$DP?5?$DN?5CALL?5TLogin?$CI?$DP?0?$DP?0?$DP?0?$DP?0?$DP?0?$DP?0?$DP?0@
CONST	SEGMENT DWORD USE32 PUBLIC 'CONST'
CONST	ENDS
;	COMDAT ??_7CSPLogin@@6B@
CONST	SEGMENT DWORD USE32 PUBLIC 'CONST'
CONST	ENDS
;	COMDAT ??_GCSPLogin@@UAEPAXI@Z
_TEXT	SEGMENT PARA USE32 PUBLIC 'CODE'
_TEXT	ENDS
;	COMDAT ??1CSPLogin@@UAE@XZ
_TEXT	SEGMENT PARA USE32 PUBLIC 'CODE'
_TEXT	ENDS
;	COMDAT ?GetNumParam@CSPLogin@@UAEHXZ
_TEXT	SEGMENT PARA USE32 PUBLIC 'CODE'
_TEXT	ENDS
;	COMDAT ?BindParameters@CSPLogin@@UAEFH@Z
_TEXT	SEGMENT PARA USE32 PUBLIC 'CODE'
_TEXT	ENDS
;	COMDAT ??0CSPLogout@@QAE@PAVCSqlDatabase@@V?$basic_string@DU?$char_traits@D@std@@V?$allocator@D@2@@std@@@Z
_TEXT	SEGMENT PARA USE32 PUBLIC 'CODE'
_TEXT	ENDS
;	COMDAT ??_C@_0BN@FJCFHOJC@?$HL?5?$DP?5?$DN?5CALL?5TLogout?$CI?$DP?0?$DP?0?$DP?0?$DP?$CJ?$HN?$AA@
CONST	SEGMENT DWORD USE32 PUBLIC 'CONST'
CONST	ENDS
;	COMDAT ??_7CSPLogout@@6B@
CONST	SEGMENT DWORD USE32 PUBLIC 'CONST'
CONST	ENDS
;	COMDAT ??_GCSPLogout@@UAEPAXI@Z
_TEXT	SEGMENT PARA USE32 PUBLIC 'CODE'
_TEXT	ENDS
;	COMDAT ??1CSPLogout@@UAE@XZ
_TEXT	SEGMENT PARA USE32 PUBLIC 'CODE'
_TEXT	ENDS
;	COMDAT ?GetNumParam@CSPLogout@@UAEHXZ
_TEXT	SEGMENT PARA USE32 PUBLIC 'CODE'
_TEXT	ENDS
;	COMDAT ?BindParameters@CSPLogout@@UAEFH@Z
_TEXT	SEGMENT PARA USE32 PUBLIC 'CODE'
_TEXT	ENDS
;	COMDAT ??0CSPCheckPasswd@@QAE@PAVCSqlDatabase@@V?$basic_string@DU?$char_traits@D@std@@V?$allocator@D@2@@std@@@Z
_TEXT	SEGMENT PARA USE32 PUBLIC 'CODE'
_TEXT	ENDS
;	COMDAT ??_C@_0BO@PGJGNOEF@?$HL?5?$DP?5?$DN?5CALL?5TCheckPasswd?$CI?$DP?0?$DP?$CJ?$HN?$AA@
CONST	SEGMENT DWORD USE32 PUBLIC 'CONST'
CONST	ENDS
;	COMDAT ??_7CSPCheckPasswd@@6B@
CONST	SEGMENT DWORD USE32 PUBLIC 'CONST'
CONST	ENDS
;	COMDAT ??_GCSPCheckPasswd@@UAEPAXI@Z
_TEXT	SEGMENT PARA USE32 PUBLIC 'CODE'
_TEXT	ENDS
;	COMDAT ??1CSPCheckPasswd@@UAE@XZ
_TEXT	SEGMENT PARA USE32 PUBLIC 'CODE'
_TEXT	ENDS
;	COMDAT ?GetNumParam@CSPCheckPasswd@@UAEHXZ
_TEXT	SEGMENT PARA USE32 PUBLIC 'CODE'
_TEXT	ENDS
;	COMDAT ?BindParameters@CSPCheckPasswd@@UAEFH@Z
_TEXT	SEGMENT PARA USE32 PUBLIC 'CODE'
_TEXT	ENDS
;	COMDAT ??0CTBLGroupList@@QAE@PAVCSqlDatabase@@V?$basic_string@DU?$char_traits@D@std@@V?$allocator@D@2@@std@@@Z
_TEXT	SEGMENT PARA USE32 PUBLIC 'CODE'
_TEXT	ENDS
;	COMDAT ??_C@_0CFG@KLCBDFHC@SELECT?5?7TGROUP?4bGroupID?0?5?7TGROUP@
CONST	SEGMENT DWORD USE32 PUBLIC 'CONST'
CONST	ENDS
;	COMDAT ??_7CTBLGroupList@@6B@
CONST	SEGMENT DWORD USE32 PUBLIC 'CONST'
CONST	ENDS
;	COMDAT ??_GCTBLGroupList@@UAEPAXI@Z
_TEXT	SEGMENT PARA USE32 PUBLIC 'CODE'
_TEXT	ENDS
;	COMDAT ??1CTBLGroupList@@UAE@XZ
_TEXT	SEGMENT PARA USE32 PUBLIC 'CODE'
_TEXT	ENDS
;	COMDAT ?GetNumCol@CTBLGroupList@@UAEHXZ
_TEXT	SEGMENT PARA USE32 PUBLIC 'CODE'
_TEXT	ENDS
;	COMDAT ?GetNumParam@CTBLGroupList@@UAEHXZ
_TEXT	SEGMENT PARA USE32 PUBLIC 'CODE'
_TEXT	ENDS
;	COMDAT ?BindColumns@CTBLGroupList@@UAEFXZ
_TEXT	SEGMENT PARA USE32 PUBLIC 'CODE'
_TEXT	ENDS
;	COMDAT ?BindParameters@CTBLGroupList@@UAEFH@Z
_TEXT	SEGMENT PARA USE32 PUBLIC 'CODE'
_TEXT	ENDS
;	COMDAT ??0CTBLGroup@@QAE@PAVCSqlDatabase@@V?$basic_string@DU?$char_traits@D@std@@V?$allocator@D@2@@std@@@Z
_TEXT	SEGMENT PARA USE32 PUBLIC 'CODE'
_TEXT	ENDS
;	COMDAT ??_C@_0GB@MBMNLBIP@SELECT?5?7bGroupID?0?5?7bType?0?5?7szNAM@
CONST	SEGMENT DWORD USE32 PUBLIC 'CONST'
CONST	ENDS
;	COMDAT ??_7CTBLGroup@@6B@
CONST	SEGMENT DWORD USE32 PUBLIC 'CONST'
CONST	ENDS
;	COMDAT ??_GCTBLGroup@@UAEPAXI@Z
_TEXT	SEGMENT PARA USE32 PUBLIC 'CODE'
_TEXT	ENDS
;	COMDAT ??1CTBLGroup@@UAE@XZ
_TEXT	SEGMENT PARA USE32 PUBLIC 'CODE'
_TEXT	ENDS
;	COMDAT ?GetNumCol@CTBLGroup@@UAEHXZ
_TEXT	SEGMENT PARA USE32 PUBLIC 'CODE'
_TEXT	ENDS
;	COMDAT ?BindColumns@CTBLGroup@@UAEFXZ
_TEXT	SEGMENT PARA USE32 PUBLIC 'CODE'
_TEXT	ENDS
;	COMDAT ??1?$basic_string@DU?$char_traits@D@std@@V?$allocator@D@2@@std@@QAE@XZ
_TEXT	SEGMENT PARA USE32 PUBLIC 'CODE'
_TEXT	ENDS
;	COMDAT ??0?$basic_string@DU?$char_traits@D@std@@V?$allocator@D@2@@std@@QAE@PBD@Z
_TEXT	SEGMENT PARA USE32 PUBLIC 'CODE'
_TEXT	ENDS
;	COMDAT ??0?$allocator@D@std@@QAE@XZ
_TEXT	SEGMENT PARA USE32 PUBLIC 'CODE'
_TEXT	ENDS
;	COMDAT ?assign@?$basic_string@DU?$char_traits@D@std@@V?$allocator@D@2@@std@@QAEAAV12@PBD@Z
_TEXT	SEGMENT PARA USE32 PUBLIC 'CODE'
_TEXT	ENDS
;	COMDAT ?assign@?$basic_string@DU?$char_traits@D@std@@V?$allocator@D@2@@std@@QAEAAV12@PBDI@Z
_TEXT	SEGMENT PARA USE32 PUBLIC 'CODE'
_TEXT	ENDS
;	COMDAT ?_Inside@?$basic_string@DU?$char_traits@D@std@@V?$allocator@D@2@@std@@IAE_NPBD@Z
_TEXT	SEGMENT PARA USE32 PUBLIC 'CODE'
_TEXT	ENDS
;	COMDAT ?length@?$char_traits@D@std@@SAIPBD@Z
_TEXT	SEGMENT PARA USE32 PUBLIC 'CODE'
_TEXT	ENDS
;	COMDAT ??0CTBLChannel@@QAE@PAVCSqlDatabase@@V?$basic_string@DU?$char_traits@D@std@@V?$allocator@D@2@@std@@@Z
_TEXT	SEGMENT PARA USE32 PUBLIC 'CODE'
_TEXT	ENDS
;	COMDAT ??_C@_0BKB@KHNGDDLC@SELECT?5?7TCHANNEL?4bChannel?0?5?7TCHA@
CONST	SEGMENT DWORD USE32 PUBLIC 'CONST'
CONST	ENDS
;	COMDAT ??_7CTBLChannel@@6B@
CONST	SEGMENT DWORD USE32 PUBLIC 'CONST'
CONST	ENDS
;	COMDAT ??_GCTBLChannel@@UAEPAXI@Z
_TEXT	SEGMENT PARA USE32 PUBLIC 'CODE'
_TEXT	ENDS
;	COMDAT ??1CTBLChannel@@UAE@XZ
_TEXT	SEGMENT PARA USE32 PUBLIC 'CODE'
_TEXT	ENDS
;	COMDAT ?GetNumCol@CTBLChannel@@UAEHXZ
_TEXT	SEGMENT PARA USE32 PUBLIC 'CODE'
_TEXT	ENDS
;	COMDAT ?GetNumParam@CTBLChannel@@UAEHXZ
_TEXT	SEGMENT PARA USE32 PUBLIC 'CODE'
_TEXT	ENDS
;	COMDAT ?BindColumns@CTBLChannel@@UAEFXZ
_TEXT	SEGMENT PARA USE32 PUBLIC 'CODE'
_TEXT	ENDS
;	COMDAT ?BindParameters@CTBLChannel@@UAEFH@Z
_TEXT	SEGMENT PARA USE32 PUBLIC 'CODE'
_TEXT	ENDS
sxdata	SEGMENT DWORD USE32 'SXDATA'
sxdata	ENDS
FLAT	GROUP _DATA, CONST, _BSS
	ASSUME	CS: FLAT, DS: FLAT, SS: FLAT
endif

INCLUDELIB LIBCMT
INCLUDELIB OLDNAMES

PUBLIC	?assign@?$char_traits@D@std@@SAXAADABD@Z	; std::char_traits<char>::assign
; Function compile flags: /Ogty
; File c:\program files (x86)\microsoft visual studio .net 2003\vc7\include\iosfwd
;	COMDAT ?assign@?$char_traits@D@std@@SAXAADABD@Z
_TEXT	SEGMENT
__Left$ = 8						; size = 4
__Right$ = 12						; size = 4
?assign@?$char_traits@D@std@@SAXAADABD@Z PROC NEAR	; std::char_traits<char>::assign, COMDAT

; 331  : 		_Left = _Right;

  00000	8b 44 24 08	 mov	 eax, DWORD PTR __Right$[esp-4]
  00004	8a 08		 mov	 cl, BYTE PTR [eax]
  00006	8b 54 24 04	 mov	 edx, DWORD PTR __Left$[esp-4]
  0000a	88 0a		 mov	 BYTE PTR [edx], cl

; 332  : 		}

  0000c	c3		 ret	 0
?assign@?$char_traits@D@std@@SAXAADABD@Z ENDP		; std::char_traits<char>::assign
_TEXT	ENDS
PUBLIC	?length@?$char_traits@D@std@@SAIPBD@Z		; std::char_traits<char>::length
; Function compile flags: /Ogty
;	COMDAT ?length@?$char_traits@D@std@@SAIPBD@Z
_TEXT	SEGMENT
__First$ = 8						; size = 4
?length@?$char_traits@D@std@@SAIPBD@Z PROC NEAR		; std::char_traits<char>::length, COMDAT

; 352  : 		return (::strlen(_First));

  00000	8b 44 24 04	 mov	 eax, DWORD PTR __First$[esp-4]
  00004	8d 50 01	 lea	 edx, DWORD PTR [eax+1]
$L105711:
  00007	8a 08		 mov	 cl, BYTE PTR [eax]
  00009	40		 inc	 eax
  0000a	84 c9		 test	 cl, cl
  0000c	75 f9		 jne	 SHORT $L105711
  0000e	2b c2		 sub	 eax, edx

; 353  : 		}

  00010	c3		 ret	 0
?length@?$char_traits@D@std@@SAIPBD@Z ENDP		; std::char_traits<char>::length
_TEXT	ENDS
PUBLIC	?copy@?$char_traits@D@std@@SAPADPADPBDI@Z	; std::char_traits<char>::copy
; Function compile flags: /Ogty
;	COMDAT ?copy@?$char_traits@D@std@@SAPADPADPBDI@Z
_TEXT	SEGMENT
__First1$ = 8						; size = 4
__First2$ = 12						; size = 4
__Count$ = 16						; size = 4
?copy@?$char_traits@D@std@@SAPADPADPBDI@Z PROC NEAR	; std::char_traits<char>::copy, COMDAT

; 358  : 		return ((_Elem *)::memcpy(_First1, _First2, _Count));

  00000	8b 4c 24 0c	 mov	 ecx, DWORD PTR __Count$[esp-4]
  00004	56		 push	 esi
  00005	8b 74 24 0c	 mov	 esi, DWORD PTR __First2$[esp]
  00009	57		 push	 edi
  0000a	8b 7c 24 0c	 mov	 edi, DWORD PTR __First1$[esp+4]
  0000e	8b c1		 mov	 eax, ecx
  00010	8b d7		 mov	 edx, edi
  00012	c1 e9 02	 shr	 ecx, 2
  00015	f3 a5		 rep movsd
  00017	8b c8		 mov	 ecx, eax
  00019	83 e1 03	 and	 ecx, 3
  0001c	f3 a4		 rep movsb
  0001e	5f		 pop	 edi
  0001f	8b c2		 mov	 eax, edx
  00021	5e		 pop	 esi

; 359  : 		}

  00022	c3		 ret	 0
?copy@?$char_traits@D@std@@SAPADPADPBDI@Z ENDP		; std::char_traits<char>::copy
_TEXT	ENDS
PUBLIC	?move@?$char_traits@D@std@@SAPADPADPBDI@Z	; std::char_traits<char>::move
EXTRN	_memmove:NEAR
; Function compile flags: /Ogty
;	COMDAT ?move@?$char_traits@D@std@@SAPADPADPBDI@Z
_TEXT	SEGMENT
__First1$ = 8						; size = 4
__First2$ = 12						; size = 4
__Count$ = 16						; size = 4
?move@?$char_traits@D@std@@SAPADPADPBDI@Z PROC NEAR	; std::char_traits<char>::move, COMDAT

; 370  : 		return ((_Elem *)::memmove(_First1, _First2, _Count));

  00000	e9 00 00 00 00	 jmp	 _memmove
?move@?$char_traits@D@std@@SAPADPADPBDI@Z ENDP		; std::char_traits<char>::move
_TEXT	ENDS
PUBLIC	?size@?$basic_string@DU?$char_traits@D@std@@V?$allocator@D@2@@std@@QBEIXZ ; std::basic_string<char,std::char_traits<char>,std::allocator<char> >::size
; Function compile flags: /Ogty
; File c:\program files (x86)\microsoft visual studio .net 2003\vc7\include\xstring
;	COMDAT ?size@?$basic_string@DU?$char_traits@D@std@@V?$allocator@D@2@@std@@QBEIXZ
_TEXT	SEGMENT
?size@?$basic_string@DU?$char_traits@D@std@@V?$allocator@D@2@@std@@QBEIXZ PROC NEAR ; std::basic_string<char,std::char_traits<char>,std::allocator<char> >::size, COMDAT
; _this$ = ecx

; 1109 : 		return (_Mysize);

  00000	8b 41 14	 mov	 eax, DWORD PTR [ecx+20]

; 1110 : 		}

  00003	c3		 ret	 0
?size@?$basic_string@DU?$char_traits@D@std@@V?$allocator@D@2@@std@@QBEIXZ ENDP ; std::basic_string<char,std::char_traits<char>,std::allocator<char> >::size
_TEXT	ENDS
PUBLIC	?_Myptr@?$basic_string@DU?$char_traits@D@std@@V?$allocator@D@2@@std@@QBEPBDXZ ; std::basic_string<char,std::char_traits<char>,std::allocator<char> >::_Myptr
; Function compile flags: /Ogty
;	COMDAT ?_Myptr@?$basic_string@DU?$char_traits@D@std@@V?$allocator@D@2@@std@@QBEPBDXZ
_TEXT	SEGMENT
?_Myptr@?$basic_string@DU?$char_traits@D@std@@V?$allocator@D@2@@std@@QBEPBDXZ PROC NEAR ; std::basic_string<char,std::char_traits<char>,std::allocator<char> >::_Myptr, COMDAT
; _this$ = ecx

; 1537 : 		return (_BUF_SIZE <= _Myres ? _Bx._Ptr : _Bx._Buf);

  00000	83 79 18 10	 cmp	 DWORD PTR [ecx+24], 16	; 00000010H
  00004	72 04		 jb	 SHORT $L105725
  00006	8b 41 04	 mov	 eax, DWORD PTR [ecx+4]

; 1538 : 		}

  00009	c3		 ret	 0
$L105725:

; 1537 : 		return (_BUF_SIZE <= _Myres ? _Bx._Ptr : _Bx._Buf);

  0000a	8d 41 04	 lea	 eax, DWORD PTR [ecx+4]

; 1538 : 		}

  0000d	c3		 ret	 0
?_Myptr@?$basic_string@DU?$char_traits@D@std@@V?$allocator@D@2@@std@@QBEPBDXZ ENDP ; std::basic_string<char,std::char_traits<char>,std::allocator<char> >::_Myptr
_TEXT	ENDS
PUBLIC	??0?$allocator@D@std@@QAE@ABV01@@Z		; std::allocator<char>::allocator<char>
; Function compile flags: /Ogty
; File c:\program files (x86)\microsoft visual studio .net 2003\vc7\include\xmemory
;	COMDAT ??0?$allocator@D@std@@QAE@ABV01@@Z
_TEXT	SEGMENT
___formal$ = 8						; size = 4
??0?$allocator@D@std@@QAE@ABV01@@Z PROC NEAR		; std::allocator<char>::allocator<char>, COMDAT
; _this$ = ecx

; 115  : 	allocator(const allocator<_Ty>&)

  00000	8b c1		 mov	 eax, ecx

; 116  : 		{	// construct by copying (do nothing)
; 117  : 		}

  00002	c2 04 00	 ret	 4
??0?$allocator@D@std@@QAE@ABV01@@Z ENDP			; std::allocator<char>::allocator<char>
_TEXT	ENDS
PUBLIC	?_Myptr@?$basic_string@DU?$char_traits@D@std@@V?$allocator@D@2@@std@@QAEPADXZ ; std::basic_string<char,std::char_traits<char>,std::allocator<char> >::_Myptr
; Function compile flags: /Ogty
; File c:\program files (x86)\microsoft visual studio .net 2003\vc7\include\xstring
;	COMDAT ?_Myptr@?$basic_string@DU?$char_traits@D@std@@V?$allocator@D@2@@std@@QAEPADXZ
_TEXT	SEGMENT
?_Myptr@?$basic_string@DU?$char_traits@D@std@@V?$allocator@D@2@@std@@QAEPADXZ PROC NEAR ; std::basic_string<char,std::char_traits<char>,std::allocator<char> >::_Myptr, COMDAT
; _this$ = ecx

; 1532 : 		return (_BUF_SIZE <= _Myres ? _Bx._Ptr : _Bx._Buf);

  00000	83 79 18 10	 cmp	 DWORD PTR [ecx+24], 16	; 00000010H
  00004	72 04		 jb	 SHORT $L105733
  00006	8b 41 04	 mov	 eax, DWORD PTR [ecx+4]

; 1533 : 		}

  00009	c3		 ret	 0
$L105733:

; 1532 : 		return (_BUF_SIZE <= _Myres ? _Bx._Ptr : _Bx._Buf);

  0000a	8d 41 04	 lea	 eax, DWORD PTR [ecx+4]

; 1533 : 		}

  0000d	c3		 ret	 0
?_Myptr@?$basic_string@DU?$char_traits@D@std@@V?$allocator@D@2@@std@@QAEPADXZ ENDP ; std::basic_string<char,std::char_traits<char>,std::allocator<char> >::_Myptr
_TEXT	ENDS
PUBLIC	?deallocate@?$allocator@D@std@@QAEXPADI@Z	; std::allocator<char>::deallocate
EXTRN	??3@YAXPAX@Z:NEAR				; operator delete
; Function compile flags: /Ogty
; File c:\program files (x86)\microsoft visual studio .net 2003\vc7\include\xmemory
;	COMDAT ?deallocate@?$allocator@D@std@@QAEXPADI@Z
_TEXT	SEGMENT
__Ptr$ = 8						; size = 4
___formal$ = 12						; size = 4
?deallocate@?$allocator@D@std@@QAEXPADI@Z PROC NEAR	; std::allocator<char>::deallocate, COMDAT
; _this$ = ecx

; 132  : 		operator delete(_Ptr);

  00000	8b 44 24 04	 mov	 eax, DWORD PTR __Ptr$[esp-4]
  00004	50		 push	 eax
  00005	e8 00 00 00 00	 call	 ??3@YAXPAX@Z		; operator delete
  0000a	59		 pop	 ecx

; 133  : 		}

  0000b	c2 08 00	 ret	 8
?deallocate@?$allocator@D@std@@QAEXPADI@Z ENDP		; std::allocator<char>::deallocate
_TEXT	ENDS
PUBLIC	?_Inside@?$basic_string@DU?$char_traits@D@std@@V?$allocator@D@2@@std@@IAE_NPBD@Z ; std::basic_string<char,std::char_traits<char>,std::allocator<char> >::_Inside
; Function compile flags: /Ogty
; File c:\program files (x86)\microsoft visual studio .net 2003\vc7\include\xstring
;	COMDAT ?_Inside@?$basic_string@DU?$char_traits@D@std@@V?$allocator@D@2@@std@@IAE_NPBD@Z
_TEXT	SEGMENT
__Ptr$ = 8						; size = 4
?_Inside@?$basic_string@DU?$char_traits@D@std@@V?$allocator@D@2@@std@@IAE_NPBD@Z PROC NEAR ; std::basic_string<char,std::char_traits<char>,std::allocator<char> >::_Inside, COMDAT
; _this$ = ecx

; 1494 : 		{	// test if _Ptr points inside string

  00000	56		 push	 esi

; 1495 : 		if (_Ptr < _Myptr() || _Myptr() + _Mysize <= _Ptr)

  00001	8b 71 18	 mov	 esi, DWORD PTR [ecx+24]
  00004	83 fe 10	 cmp	 esi, 16			; 00000010H
  00007	57		 push	 edi
  00008	8d 41 04	 lea	 eax, DWORD PTR [ecx+4]
  0000b	72 04		 jb	 SHORT $L105745
  0000d	8b 10		 mov	 edx, DWORD PTR [eax]
  0000f	eb 02		 jmp	 SHORT $L105746
$L105745:
  00011	8b d0		 mov	 edx, eax
$L105746:
  00013	8b 7c 24 0c	 mov	 edi, DWORD PTR __Ptr$[esp+4]
  00017	3b fa		 cmp	 edi, edx
  00019	72 17		 jb	 SHORT $L104090
  0001b	83 fe 10	 cmp	 esi, 16			; 00000010H
  0001e	72 02		 jb	 SHORT $L105753
  00020	8b 00		 mov	 eax, DWORD PTR [eax]
$L105753:
  00022	8b 49 14	 mov	 ecx, DWORD PTR [ecx+20]
  00025	03 c8		 add	 ecx, eax
  00027	3b cf		 cmp	 ecx, edi
  00029	76 07		 jbe	 SHORT $L104090
  0002b	5f		 pop	 edi

; 1497 : 		else
; 1498 : 			return (true);

  0002c	b0 01		 mov	 al, 1
  0002e	5e		 pop	 esi

; 1499 : 		}

  0002f	c2 04 00	 ret	 4
$L104090:
  00032	5f		 pop	 edi

; 1496 : 			return (false);	// don't ask

  00033	32 c0		 xor	 al, al
  00035	5e		 pop	 esi

; 1499 : 		}

  00036	c2 04 00	 ret	 4
?_Inside@?$basic_string@DU?$char_traits@D@std@@V?$allocator@D@2@@std@@IAE_NPBD@Z ENDP ; std::basic_string<char,std::char_traits<char>,std::allocator<char> >::_Inside
_TEXT	ENDS
PUBLIC	?max_size@?$allocator@D@std@@QBEIXZ		; std::allocator<char>::max_size
; Function compile flags: /Ogty
; File c:\program files (x86)\microsoft visual studio .net 2003\vc7\include\xmemory
;	COMDAT ?max_size@?$allocator@D@std@@QBEIXZ
_TEXT	SEGMENT
?max_size@?$allocator@D@std@@QBEIXZ PROC NEAR		; std::allocator<char>::max_size, COMDAT
; _this$ = ecx

; 157  : 		_SIZT _Count = (_SIZT)(-1) / sizeof (_Ty);
; 158  : 		return (0 < _Count ? _Count : 1);

  00000	83 c8 ff	 or	 eax, -1

; 159  : 		}

  00003	c3		 ret	 0
?max_size@?$allocator@D@std@@QBEIXZ ENDP		; std::allocator<char>::max_size
_TEXT	ENDS
PUBLIC	??0?$allocator@D@std@@QAE@XZ			; std::allocator<char>::allocator<char>
; Function compile flags: /Ogty
;	COMDAT ??0?$allocator@D@std@@QAE@XZ
_TEXT	SEGMENT
??0?$allocator@D@std@@QAE@XZ PROC NEAR			; std::allocator<char>::allocator<char>, COMDAT
; _this$ = ecx

; 111  : 	allocator()

  00000	8b c1		 mov	 eax, ecx

; 112  : 		{	// construct default allocator (do nothing)
; 113  : 		}

  00002	c3		 ret	 0
??0?$allocator@D@std@@QAE@XZ ENDP			; std::allocator<char>::allocator<char>
_TEXT	ENDS
PUBLIC	??$_Allocate@D@std@@YAPADIPAD@Z			; std::_Allocate<char>
EXTRN	??2@YAPAXI@Z:NEAR				; operator new
; Function compile flags: /Ogty
;	COMDAT ??$_Allocate@D@std@@YAPADIPAD@Z
_TEXT	SEGMENT
__Count$ = 8						; size = 4
___formal$ = 12						; size = 4
??$_Allocate@D@std@@YAPADIPAD@Z PROC NEAR		; std::_Allocate<char>, COMDAT

; 34   : 	return ((_Ty _FARQ *)operator new(_Count * sizeof (_Ty)));

  00000	8b 44 24 04	 mov	 eax, DWORD PTR __Count$[esp-4]
  00004	50		 push	 eax
  00005	e8 00 00 00 00	 call	 ??2@YAPAXI@Z		; operator new
  0000a	83 c4 04	 add	 esp, 4

; 35   : 	}

  0000d	c3		 ret	 0
??$_Allocate@D@std@@YAPADIPAD@Z ENDP			; std::_Allocate<char>
_TEXT	ENDS
PUBLIC	??0?$_String_val@DV?$allocator@D@std@@@std@@IAE@V?$allocator@D@1@@Z ; std::_String_val<char,std::allocator<char> >::_String_val<char,std::allocator<char> >
; Function compile flags: /Ogty
; File c:\program files (x86)\microsoft visual studio .net 2003\vc7\include\xstring
;	COMDAT ??0?$_String_val@DV?$allocator@D@std@@@std@@IAE@V?$allocator@D@1@@Z
_TEXT	SEGMENT
__Al$ = 8						; size = 1
??0?$_String_val@DV?$allocator@D@std@@@std@@IAE@V?$allocator@D@1@@Z PROC NEAR ; std::_String_val<char,std::allocator<char> >::_String_val<char,std::allocator<char> >, COMDAT
; _this$ = ecx

; 34   : 		{	// construct allocator from _Al

  00000	8b c1		 mov	 eax, ecx

; 35   : 		}

  00002	c2 04 00	 ret	 4
??0?$_String_val@DV?$allocator@D@std@@@std@@IAE@V?$allocator@D@1@@Z ENDP ; std::_String_val<char,std::allocator<char> >::_String_val<char,std::allocator<char> >
_TEXT	ENDS
PUBLIC	?_Eos@?$basic_string@DU?$char_traits@D@std@@V?$allocator@D@2@@std@@IAEXI@Z ; std::basic_string<char,std::char_traits<char>,std::allocator<char> >::_Eos
; Function compile flags: /Ogty
;	COMDAT ?_Eos@?$basic_string@DU?$char_traits@D@std@@V?$allocator@D@2@@std@@IAEXI@Z
_TEXT	SEGMENT
__Newsize$ = 8						; size = 4
?_Eos@?$basic_string@DU?$char_traits@D@std@@V?$allocator@D@2@@std@@IAEXI@Z PROC NEAR ; std::basic_string<char,std::char_traits<char>,std::allocator<char> >::_Eos, COMDAT
; _this$ = ecx

; 1475 : 		_Traits::assign(_Myptr()[_Mysize = _Newsize], _Elem());

  00000	83 79 18 10	 cmp	 DWORD PTR [ecx+24], 16	; 00000010H
  00004	8b 44 24 04	 mov	 eax, DWORD PTR __Newsize$[esp-4]
  00008	89 41 14	 mov	 DWORD PTR [ecx+20], eax
  0000b	72 0a		 jb	 SHORT $L105780
  0000d	8b 49 04	 mov	 ecx, DWORD PTR [ecx+4]
  00010	c6 04 01 00	 mov	 BYTE PTR [ecx+eax], 0

; 1476 : 		}

  00014	c2 04 00	 ret	 4

; 1475 : 		_Traits::assign(_Myptr()[_Mysize = _Newsize], _Elem());

$L105780:
  00017	c6 44 01 04 00	 mov	 BYTE PTR [ecx+eax+4], 0

; 1476 : 		}

  0001c	c2 04 00	 ret	 4
?_Eos@?$basic_string@DU?$char_traits@D@std@@V?$allocator@D@2@@std@@IAEXI@Z ENDP ; std::basic_string<char,std::char_traits<char>,std::allocator<char> >::_Eos
_TEXT	ENDS
PUBLIC	?max_size@?$basic_string@DU?$char_traits@D@std@@V?$allocator@D@2@@std@@QBEIXZ ; std::basic_string<char,std::char_traits<char>,std::allocator<char> >::max_size
; Function compile flags: /Ogty
;	COMDAT ?max_size@?$basic_string@DU?$char_traits@D@std@@V?$allocator@D@2@@std@@QBEIXZ
_TEXT	SEGMENT
?max_size@?$basic_string@DU?$char_traits@D@std@@V?$allocator@D@2@@std@@QBEIXZ PROC NEAR ; std::basic_string<char,std::char_traits<char>,std::allocator<char> >::max_size, COMDAT
; _this$ = ecx

; 1114 : 		size_type _Num = _Mybase::_Alval.max_size();
; 1115 : 		return (_Num <= 1 ? 1 : _Num - 1);

  00000	b8 fe ff ff ff	 mov	 eax, -2			; fffffffeH

; 1116 : 		}

  00005	c3		 ret	 0
?max_size@?$basic_string@DU?$char_traits@D@std@@V?$allocator@D@2@@std@@QBEIXZ ENDP ; std::basic_string<char,std::char_traits<char>,std::allocator<char> >::max_size
_TEXT	ENDS
PUBLIC	?allocate@?$allocator@D@std@@QAEPADI@Z		; std::allocator<char>::allocate
; Function compile flags: /Ogty
; File c:\program files (x86)\microsoft visual studio .net 2003\vc7\include\xmemory
;	COMDAT ?allocate@?$allocator@D@std@@QAEPADI@Z
_TEXT	SEGMENT
__Count$ = 8						; size = 4
?allocate@?$allocator@D@std@@QAEPADI@Z PROC NEAR	; std::allocator<char>::allocate, COMDAT
; _this$ = ecx

; 137  : 		return (_Allocate(_Count, (pointer)0));

  00000	8b 44 24 04	 mov	 eax, DWORD PTR __Count$[esp-4]
  00004	50		 push	 eax
  00005	e8 00 00 00 00	 call	 ??2@YAPAXI@Z		; operator new
  0000a	83 c4 04	 add	 esp, 4

; 138  : 		}

  0000d	c2 04 00	 ret	 4
?allocate@?$allocator@D@std@@QAEPADI@Z ENDP		; std::allocator<char>::allocate
_TEXT	ENDS
PUBLIC	?_Tidy@?$basic_string@DU?$char_traits@D@std@@V?$allocator@D@2@@std@@IAEX_NI@Z ; std::basic_string<char,std::char_traits<char>,std::allocator<char> >::_Tidy
; Function compile flags: /Ogty
; File c:\program files (x86)\microsoft visual studio .net 2003\vc7\include\xstring
;	COMDAT ?_Tidy@?$basic_string@DU?$char_traits@D@std@@V?$allocator@D@2@@std@@IAEX_NI@Z
_TEXT	SEGMENT
__Built$ = 8						; size = 1
__Newsize$ = 12						; size = 4
?_Tidy@?$basic_string@DU?$char_traits@D@std@@V?$allocator@D@2@@std@@IAEX_NI@Z PROC NEAR ; std::basic_string<char,std::char_traits<char>,std::allocator<char> >::_Tidy, COMDAT
; _this$ = ecx

; 1510 : 		if (!_Built)

  00000	8a 44 24 04	 mov	 al, BYTE PTR __Built$[esp-4]
  00004	84 c0		 test	 al, al
  00006	53		 push	 ebx
  00007	55		 push	 ebp
  00008	8b 6c 24 10	 mov	 ebp, DWORD PTR __Newsize$[esp+4]
  0000c	8b d9		 mov	 ebx, ecx
  0000e	74 2f		 je	 SHORT $L105813

; 1511 : 			;
; 1512 : 		else if (_BUF_SIZE <= _Myres)

  00010	83 7b 18 10	 cmp	 DWORD PTR [ebx+24], 16	; 00000010H
  00014	72 29		 jb	 SHORT $L105813

; 1513 : 			{	// copy any leftovers to small buffer and deallocate
; 1514 : 			_Elem *_Ptr = _Bx._Ptr;
; 1515 : 			if (0 < _Newsize)

  00016	85 ed		 test	 ebp, ebp
  00018	8b 43 04	 mov	 eax, DWORD PTR [ebx+4]
  0001b	57		 push	 edi
  0001c	8d 7b 04	 lea	 edi, DWORD PTR [ebx+4]
  0001f	76 14		 jbe	 SHORT $L105810
  00021	56		 push	 esi

; 1516 : 				_Traits::copy(_Bx._Buf, _Ptr, _Newsize);

  00022	8b cd		 mov	 ecx, ebp
  00024	8b d1		 mov	 edx, ecx
  00026	c1 e9 02	 shr	 ecx, 2
  00029	8b f0		 mov	 esi, eax
  0002b	f3 a5		 rep movsd
  0002d	8b ca		 mov	 ecx, edx
  0002f	83 e1 03	 and	 ecx, 3
  00032	f3 a4		 rep movsb
  00034	5e		 pop	 esi
$L105810:

; 1517 : 			_Mybase::_Alval.deallocate(_Ptr, _Myres + 1);

  00035	50		 push	 eax
  00036	e8 00 00 00 00	 call	 ??3@YAXPAX@Z		; operator delete
  0003b	83 c4 04	 add	 esp, 4
  0003e	5f		 pop	 edi
$L105813:

; 1518 : 			}
; 1519 : 		_Myres = _BUF_SIZE - 1;
; 1520 : 		_Eos(_Newsize);

  0003f	89 6b 14	 mov	 DWORD PTR [ebx+20], ebp
  00042	c7 43 18 0f 00
	00 00		 mov	 DWORD PTR [ebx+24], 15	; 0000000fH
  00049	c6 44 2b 04 00	 mov	 BYTE PTR [ebx+ebp+4], 0
  0004e	5d		 pop	 ebp
  0004f	5b		 pop	 ebx

; 1521 : 		}

  00050	c2 08 00	 ret	 8
?_Tidy@?$basic_string@DU?$char_traits@D@std@@V?$allocator@D@2@@std@@IAEX_NI@Z ENDP ; std::basic_string<char,std::char_traits<char>,std::allocator<char> >::_Tidy
_TEXT	ENDS
PUBLIC	?erase@?$basic_string@DU?$char_traits@D@std@@V?$allocator@D@2@@std@@QAEAAV12@II@Z ; std::basic_string<char,std::char_traits<char>,std::allocator<char> >::erase
EXTRN	?_Xran@_String_base@std@@QBEXXZ:NEAR		; std::_String_base::_Xran
; Function compile flags: /Ogty
;	COMDAT ?erase@?$basic_string@DU?$char_traits@D@std@@V?$allocator@D@2@@std@@QAEAAV12@II@Z
_TEXT	SEGMENT
__Off$ = 8						; size = 4
__Count$ = 12						; size = 4
?erase@?$basic_string@DU?$char_traits@D@std@@V?$allocator@D@2@@std@@QAEAAV12@II@Z PROC NEAR ; std::basic_string<char,std::char_traits<char>,std::allocator<char> >::erase, COMDAT
; _this$ = ecx

; 792  : 		{	// erase elements [_Off, _Off + _Count)

  00000	55		 push	 ebp

; 793  : 		if (_Mysize < _Off)

  00001	8b 6c 24 08	 mov	 ebp, DWORD PTR __Off$[esp]
  00005	56		 push	 esi
  00006	8b f1		 mov	 esi, ecx
  00008	39 6e 14	 cmp	 DWORD PTR [esi+20], ebp
  0000b	57		 push	 edi
  0000c	73 05		 jae	 SHORT $L103754

; 794  : 			_String_base::_Xran();	// _Off off end

  0000e	e8 00 00 00 00	 call	 ?_Xran@_String_base@std@@QBEXXZ ; std::_String_base::_Xran
$L103754:

; 795  : 		if (_Mysize - _Off < _Count)

  00013	8b 46 14	 mov	 eax, DWORD PTR [esi+20]
  00016	8b 7c 24 14	 mov	 edi, DWORD PTR __Count$[esp+8]
  0001a	2b c5		 sub	 eax, ebp
  0001c	3b c7		 cmp	 eax, edi
  0001e	73 02		 jae	 SHORT $L103755

; 796  : 			_Count = _Mysize - _Off;	// trim _Count

  00020	8b f8		 mov	 edi, eax
$L103755:

; 797  : 		if (0 < _Count)

  00022	85 ff		 test	 edi, edi
  00024	76 47		 jbe	 SHORT $L105878

; 798  : 			{	// move elements down
; 799  : 			_Traits::move(_Myptr() + _Off, _Myptr() + _Off + _Count,
; 800  : 				_Mysize - _Off - _Count);

  00026	8b 4e 18	 mov	 ecx, DWORD PTR [esi+24]
  00029	83 f9 10	 cmp	 ecx, 16			; 00000010H
  0002c	53		 push	 ebx
  0002d	8d 5e 04	 lea	 ebx, DWORD PTR [esi+4]
  00030	72 04		 jb	 SHORT $L105844
  00032	8b 13		 mov	 edx, DWORD PTR [ebx]
  00034	eb 02		 jmp	 SHORT $L105845
$L105844:
  00036	8b d3		 mov	 edx, ebx
$L105845:
  00038	83 f9 10	 cmp	 ecx, 16			; 00000010H
  0003b	72 04		 jb	 SHORT $L105851
  0003d	8b 0b		 mov	 ecx, DWORD PTR [ebx]
  0003f	eb 02		 jmp	 SHORT $L105852
$L105851:
  00041	8b cb		 mov	 ecx, ebx
$L105852:
  00043	2b c7		 sub	 eax, edi

; 803  : 			}
; 804  : 		return (*this);

  00045	03 d5		 add	 edx, ebp
  00047	50		 push	 eax
  00048	03 d7		 add	 edx, edi
  0004a	52		 push	 edx
  0004b	03 cd		 add	 ecx, ebp
  0004d	51		 push	 ecx
  0004e	e8 00 00 00 00	 call	 _memmove
  00053	8b 46 14	 mov	 eax, DWORD PTR [esi+20]
  00056	8b 4e 18	 mov	 ecx, DWORD PTR [esi+24]
  00059	2b c7		 sub	 eax, edi
  0005b	83 c4 0c	 add	 esp, 12			; 0000000cH
  0005e	83 f9 10	 cmp	 ecx, 16			; 00000010H
  00061	89 46 14	 mov	 DWORD PTR [esi+20], eax
  00064	72 02		 jb	 SHORT $L105875

; 801  : 			size_type _Newsize = _Mysize - _Count;
; 802  : 			_Eos(_Newsize);

  00066	8b 1b		 mov	 ebx, DWORD PTR [ebx]
$L105875:
  00068	c6 04 03 00	 mov	 BYTE PTR [ebx+eax], 0
  0006c	5b		 pop	 ebx
$L105878:
  0006d	5f		 pop	 edi

; 803  : 			}
; 804  : 		return (*this);

  0006e	8b c6		 mov	 eax, esi
  00070	5e		 pop	 esi
  00071	5d		 pop	 ebp

; 805  : 		}

  00072	c2 08 00	 ret	 8
?erase@?$basic_string@DU?$char_traits@D@std@@V?$allocator@D@2@@std@@QAEAAV12@II@Z ENDP ; std::basic_string<char,std::char_traits<char>,std::allocator<char> >::erase
_TEXT	ENDS
PUBLIC	?_Copy@?$basic_string@DU?$char_traits@D@std@@V?$allocator@D@2@@std@@IAEXII@Z ; std::basic_string<char,std::char_traits<char>,std::allocator<char> >::_Copy
EXTRN	__CxxThrowException@8:NEAR
EXTRN	__except_list:DWORD
EXTRN	___CxxFrameHandler:NEAR
;	COMDAT xdata$x
; File c:\program files (x86)\microsoft visual studio .net 2003\vc7\include\iosfwd
xdata$x	SEGMENT
$T106086 DD	0ffffffffH
	DD	00H
	DD	0ffffffffH
	DD	00H
	DD	01H
	DD	00H
	DD	01H
	DD	00H
$T106088 DD	00H
	DD	00H
	DD	00H
	DD	FLAT:$L105886
$T106089 DD	00H
	DD	00H
	DD	00H
	DD	FLAT:$L105884
$T106087 DD	02H
	DD	02H
	DD	03H
	DD	01H
	DD	FLAT:$T106088
	DD	00H
	DD	00H
	DD	03H
	DD	01H
	DD	FLAT:$T106089
$T106080 DD	019930520H
	DD	04H
	DD	FLAT:$T106086
	DD	02H
	DD	FLAT:$T106087
	DD	2 DUP(00H)
; Function compile flags: /Ogty
; File c:\program files (x86)\microsoft visual studio .net 2003\vc7\include\xstring
xdata$x	ENDS
;	COMDAT ?_Copy@?$basic_string@DU?$char_traits@D@std@@V?$allocator@D@2@@std@@IAEXII@Z
_TEXT	SEGMENT
__Newres$ = -24						; size = 4
_this$ = -20						; size = 4
__$EHRec$ = -16						; size = 16
__Ptr$ = 8						; size = 4
__Newsize$ = 8						; size = 4
__Oldlen$ = 12						; size = 4
?_Copy@?$basic_string@DU?$char_traits@D@std@@V?$allocator@D@2@@std@@IAEXII@Z PROC NEAR ; std::basic_string<char,std::char_traits<char>,std::allocator<char> >::_Copy, COMDAT
; _this$ = ecx

; 1444 : 		{	// copy _Oldlen elements to newly allocated buffer

  00000	55		 push	 ebp
  00001	8b ec		 mov	 ebp, esp
  00003	6a ff		 push	 -1
  00005	68 00 00 00 00	 push	 __ehhandler$?_Copy@?$basic_string@DU?$char_traits@D@std@@V?$allocator@D@2@@std@@IAEXII@Z
  0000a	64 a1 00 00 00
	00		 mov	 eax, DWORD PTR fs:__except_list
  00010	50		 push	 eax
  00011	64 89 25 00 00
	00 00		 mov	 DWORD PTR fs:__except_list, esp
  00018	83 ec 0c	 sub	 esp, 12			; 0000000cH

; 1445 : 		size_type _Newres = _Newsize | _ALLOC_MASK;

  0001b	8b 45 08	 mov	 eax, DWORD PTR __Newsize$[ebp]
  0001e	53		 push	 ebx
  0001f	56		 push	 esi
  00020	8b d8		 mov	 ebx, eax
  00022	83 cb 0f	 or	 ebx, 15			; 0000000fH

; 1446 : 		if (max_size() < _Newres)

  00025	83 fb fe	 cmp	 ebx, -2			; fffffffeH
  00028	57		 push	 edi
  00029	8b f1		 mov	 esi, ecx
  0002b	89 65 f0	 mov	 DWORD PTR __$EHRec$[ebp], esp
  0002e	89 75 ec	 mov	 DWORD PTR _this$[ebp], esi
  00031	76 04		 jbe	 SHORT $L104080

; 1447 : 			_Newres = _Newsize;	// undo roundup if too big

  00033	8b d8		 mov	 ebx, eax

; 1448 : 		else if (_Newres / 3 < _Myres / 2

  00035	eb 22		 jmp	 SHORT $L104082
$L104080:

; 1449 : 			&& _Myres <= max_size() - _Myres / 2)

  00037	8b 7e 18	 mov	 edi, DWORD PTR [esi+24]
  0003a	b8 ab aa aa aa	 mov	 eax, -1431655765	; aaaaaaabH
  0003f	f7 e3		 mul	 ebx
  00041	8b cf		 mov	 ecx, edi
  00043	d1 e9		 shr	 ecx, 1
  00045	d1 ea		 shr	 edx, 1
  00047	3b d1		 cmp	 edx, ecx
  00049	73 0e		 jae	 SHORT $L104082
  0004b	b8 fe ff ff ff	 mov	 eax, -2			; fffffffeH
  00050	2b c1		 sub	 eax, ecx
  00052	3b f8		 cmp	 edi, eax
  00054	77 03		 ja	 SHORT $L104082

; 1450 : 			_Newres = _Myres + _Myres / 2;	// grow exponentially if possible

  00056	8d 1c 39	 lea	 ebx, DWORD PTR [ecx+edi]
$L104082:

; 1451 : 		_Elem *_Ptr;
; 1452 : 
; 1453 : 		_TRY_BEGIN
; 1454 : 			_Ptr = _Mybase::_Alval.allocate(_Newres + 1);

  00059	8d 4b 01	 lea	 ecx, DWORD PTR [ebx+1]
  0005c	51		 push	 ecx
  0005d	c7 45 fc 00 00
	00 00		 mov	 DWORD PTR __$EHRec$[ebp+12], 0
  00064	e8 00 00 00 00	 call	 ??2@YAPAXI@Z		; operator new
  00069	8b d0		 mov	 edx, eax
  0006b	83 c4 04	 add	 esp, 4
  0006e	89 55 08	 mov	 DWORD PTR __Ptr$[ebp], edx
  00071	eb 29		 jmp	 SHORT $L104084
$L105884:

; 1455 : 		_CATCH_ALL
; 1456 : 			_Newres = _Newsize;	// allocation failed, undo roundup and retry

  00073	8b 45 08	 mov	 eax, DWORD PTR __Newsize$[ebp]
  00076	89 45 e8	 mov	 DWORD PTR __Newres$[ebp], eax

; 1457 : 			_TRY_BEGIN
; 1458 : 				_Ptr = _Mybase::_Alval.allocate(_Newres + 1);

  00079	40		 inc	 eax
  0007a	89 65 f0	 mov	 DWORD PTR __$EHRec$[ebp], esp
  0007d	50		 push	 eax
  0007e	c6 45 fc 02	 mov	 BYTE PTR __$EHRec$[ebp+12], 2
  00082	e8 00 00 00 00	 call	 ??2@YAPAXI@Z		; operator new
  00087	89 45 08	 mov	 DWORD PTR __Ptr$[ebp], eax
  0008a	83 c4 04	 add	 esp, 4

; 1462 : 			_CATCH_END
; 1463 : 		_CATCH_END

  0008d	b8 00 00 00 00	 mov	 eax, $L106081
  00092	c3		 ret	 0
$L106081:
  00093	8b 5d e8	 mov	 ebx, DWORD PTR __Newres$[ebp]
  00096	8b 75 ec	 mov	 esi, DWORD PTR _this$[ebp]
  00099	8b 55 08	 mov	 edx, DWORD PTR __Ptr$[ebp]
$L104084:

; 1464 : 
; 1465 : 		if (0 < _Oldlen)

  0009c	8b 4d 0c	 mov	 ecx, DWORD PTR __Oldlen$[ebp]
  0009f	85 c9		 test	 ecx, ecx
  000a1	76 24		 jbe	 SHORT $L106004

; 1466 : 			_Traits::copy(_Ptr, _Myptr(), _Oldlen);	// copy existing elements

  000a3	83 7e 18 10	 cmp	 DWORD PTR [esi+24], 16	; 00000010H
  000a7	72 05		 jb	 SHORT $L106000
  000a9	8b 76 04	 mov	 esi, DWORD PTR [esi+4]
  000ac	eb 03		 jmp	 SHORT $L106001
$L106000:
  000ae	83 c6 04	 add	 esi, 4
$L106001:
  000b1	8b c1		 mov	 eax, ecx
  000b3	c1 e9 02	 shr	 ecx, 2
  000b6	8b fa		 mov	 edi, edx
  000b8	f3 a5		 rep movsd
  000ba	8b c8		 mov	 ecx, eax
  000bc	83 e1 03	 and	 ecx, 3
  000bf	f3 a4		 rep movsb
  000c1	8b 75 ec	 mov	 esi, DWORD PTR _this$[ebp]
  000c4	8b 4d 0c	 mov	 ecx, DWORD PTR __Oldlen$[ebp]
$L106004:

; 1467 : 		_Tidy(true);

  000c7	83 7e 18 10	 cmp	 DWORD PTR [esi+24], 16	; 00000010H
  000cb	72 12		 jb	 SHORT $L106039
  000cd	8b 4e 04	 mov	 ecx, DWORD PTR [esi+4]
  000d0	51		 push	 ecx
  000d1	e8 00 00 00 00	 call	 ??3@YAXPAX@Z		; operator delete
  000d6	8b 55 08	 mov	 edx, DWORD PTR __Ptr$[ebp]
  000d9	8b 4d 0c	 mov	 ecx, DWORD PTR __Oldlen$[ebp]
  000dc	83 c4 04	 add	 esp, 4
$L106039:

; 1468 : 		_Bx._Ptr = _Ptr;
; 1469 : 		_Myres = _Newres;
; 1470 : 		_Eos(_Oldlen);

  000df	83 fb 10	 cmp	 ebx, 16			; 00000010H
  000e2	8d 46 04	 lea	 eax, DWORD PTR [esi+4]
  000e5	c6 00 00	 mov	 BYTE PTR [eax], 0
  000e8	89 10		 mov	 DWORD PTR [eax], edx
  000ea	89 5e 18	 mov	 DWORD PTR [esi+24], ebx
  000ed	89 4e 14	 mov	 DWORD PTR [esi+20], ecx
  000f0	72 02		 jb	 SHORT $L106074
  000f2	8b c2		 mov	 eax, edx
$L106074:

; 1471 : 		}

  000f4	5f		 pop	 edi
  000f5	c6 04 08 00	 mov	 BYTE PTR [eax+ecx], 0
  000f9	8b 4d f4	 mov	 ecx, DWORD PTR __$EHRec$[ebp+4]
  000fc	5e		 pop	 esi
  000fd	64 89 0d 00 00
	00 00		 mov	 DWORD PTR fs:__except_list, ecx
  00104	5b		 pop	 ebx
  00105	8b e5		 mov	 esp, ebp
  00107	5d		 pop	 ebp
  00108	c2 08 00	 ret	 8
$L105886:

; 1459 : 			_CATCH_ALL
; 1460 : 			_Tidy(true);	// failed again, discard storage and reraise

  0010b	8b 75 ec	 mov	 esi, DWORD PTR _this$[ebp]
  0010e	83 7e 18 10	 cmp	 DWORD PTR [esi+24], 16	; 00000010H
  00112	72 0c		 jb	 SHORT $L105978
  00114	8b 56 04	 mov	 edx, DWORD PTR [esi+4]
  00117	52		 push	 edx
  00118	e8 00 00 00 00	 call	 ??3@YAXPAX@Z		; operator delete
  0011d	83 c4 04	 add	 esp, 4
$L105978:

; 1461 : 			_RERAISE;

  00120	6a 00		 push	 0
  00122	c7 46 18 0f 00
	00 00		 mov	 DWORD PTR [esi+24], 15	; 0000000fH
  00129	c7 46 14 00 00
	00 00		 mov	 DWORD PTR [esi+20], 0
  00130	6a 00		 push	 0
  00132	c6 46 04 00	 mov	 BYTE PTR [esi+4], 0
  00136	e8 00 00 00 00	 call	 __CxxThrowException@8
$L106091:
$L106085:
  0013b	cc		 int	 3
_TEXT	ENDS
;	COMDAT text$x
text$x	SEGMENT
__ehhandler$?_Copy@?$basic_string@DU?$char_traits@D@std@@V?$allocator@D@2@@std@@IAEXII@Z:
  00000	b8 00 00 00 00	 mov	 eax, OFFSET FLAT:$T106080
  00005	e9 00 00 00 00	 jmp	 ___CxxFrameHandler
text$x	ENDS
?_Copy@?$basic_string@DU?$char_traits@D@std@@V?$allocator@D@2@@std@@IAEXII@Z ENDP ; std::basic_string<char,std::char_traits<char>,std::allocator<char> >::_Copy
PUBLIC	??1?$basic_string@DU?$char_traits@D@std@@V?$allocator@D@2@@std@@QAE@XZ ; std::basic_string<char,std::char_traits<char>,std::allocator<char> >::~basic_string<char,std::char_traits<char>,std::allocator<char> >
; Function compile flags: /Ogty
;	COMDAT ??1?$basic_string@DU?$char_traits@D@std@@V?$allocator@D@2@@std@@QAE@XZ
_TEXT	SEGMENT
??1?$basic_string@DU?$char_traits@D@std@@V?$allocator@D@2@@std@@QAE@XZ PROC NEAR ; std::basic_string<char,std::char_traits<char>,std::allocator<char> >::~basic_string<char,std::char_traits<char>,std::allocator<char> >, COMDAT
; _this$ = ecx

; 456  : 		{	// destroy the string

  00000	56		 push	 esi
  00001	8b f1		 mov	 esi, ecx

; 457  : 		_Tidy(true);

  00003	83 7e 18 10	 cmp	 DWORD PTR [esi+24], 16	; 00000010H
  00007	72 0c		 jb	 SHORT $L106129
  00009	8b 46 04	 mov	 eax, DWORD PTR [esi+4]
  0000c	50		 push	 eax
  0000d	e8 00 00 00 00	 call	 ??3@YAXPAX@Z		; operator delete
  00012	83 c4 04	 add	 esp, 4
$L106129:
  00015	33 c0		 xor	 eax, eax
  00017	c7 46 18 0f 00
	00 00		 mov	 DWORD PTR [esi+24], 15	; 0000000fH
  0001e	89 46 14	 mov	 DWORD PTR [esi+20], eax
  00021	88 46 04	 mov	 BYTE PTR [esi+4], al
  00024	5e		 pop	 esi

; 458  : 		}

  00025	c3		 ret	 0
??1?$basic_string@DU?$char_traits@D@std@@V?$allocator@D@2@@std@@QAE@XZ ENDP ; std::basic_string<char,std::char_traits<char>,std::allocator<char> >::~basic_string<char,std::char_traits<char>,std::allocator<char> >
_TEXT	ENDS
PUBLIC	?_Grow@?$basic_string@DU?$char_traits@D@std@@V?$allocator@D@2@@std@@IAE_NI_N@Z ; std::basic_string<char,std::char_traits<char>,std::allocator<char> >::_Grow
EXTRN	?_Xlen@_String_base@std@@QBEXXZ:NEAR		; std::_String_base::_Xlen
; Function compile flags: /Ogty
;	COMDAT ?_Grow@?$basic_string@DU?$char_traits@D@std@@V?$allocator@D@2@@std@@IAE_NI_N@Z
_TEXT	SEGMENT
__Newsize$ = 8						; size = 4
__Trim$ = 12						; size = 1
?_Grow@?$basic_string@DU?$char_traits@D@std@@V?$allocator@D@2@@std@@IAE_NI_N@Z PROC NEAR ; std::basic_string<char,std::char_traits<char>,std::allocator<char> >::_Grow, COMDAT
; _this$ = ecx

; 1480 : 		{	// ensure buffer is big enough, trim to size if _Trim is true

  00000	55		 push	 ebp
  00001	56		 push	 esi

; 1481 : 		if (max_size() < _Newsize)

  00002	8b 74 24 0c	 mov	 esi, DWORD PTR __Newsize$[esp+4]
  00006	83 fe fe	 cmp	 esi, -2			; fffffffeH
  00009	8b e9		 mov	 ebp, ecx
  0000b	76 05		 jbe	 SHORT $L103763

; 1482 : 			_String_base::_Xlen();	// result too long

  0000d	e8 00 00 00 00	 call	 ?_Xlen@_String_base@std@@QBEXXZ ; std::_String_base::_Xlen
$L103763:

; 1483 : 		if (_Myres < _Newsize)

  00012	8b 45 18	 mov	 eax, DWORD PTR [ebp+24]
  00015	3b c6		 cmp	 eax, esi
  00017	73 19		 jae	 SHORT $L103764

; 1484 : 			_Copy(_Newsize, _Mysize);	// reallocate to grow

  00019	8b 45 14	 mov	 eax, DWORD PTR [ebp+20]
  0001c	50		 push	 eax
  0001d	56		 push	 esi
  0001e	8b cd		 mov	 ecx, ebp
  00020	e8 00 00 00 00	 call	 ?_Copy@?$basic_string@DU?$char_traits@D@std@@V?$allocator@D@2@@std@@IAEXII@Z ; std::basic_string<char,std::char_traits<char>,std::allocator<char> >::_Copy

; 1490 : 		return (0 < _Newsize);	// return true only if more work to do

  00025	33 c0		 xor	 eax, eax
  00027	3b c6		 cmp	 eax, esi
  00029	1b c0		 sbb	 eax, eax
  0002b	5e		 pop	 esi
  0002c	f7 d8		 neg	 eax
  0002e	5d		 pop	 ebp

; 1491 : 		}

  0002f	c2 08 00	 ret	 8
$L103764:

; 1485 : 		else if (_Trim && _Newsize < _BUF_SIZE)

  00032	8a 4c 24 10	 mov	 cl, BYTE PTR __Trim$[esp+4]
  00036	84 c9		 test	 cl, cl
  00038	74 5c		 je	 SHORT $L103766
  0003a	83 fe 10	 cmp	 esi, 16			; 00000010H
  0003d	73 57		 jae	 SHORT $L103766
  0003f	53		 push	 ebx

; 1486 : 			_Tidy(true,	// copy and deallocate if trimming to small string
; 1487 : 				_Newsize < _Mysize ? _Newsize : _Mysize);

  00040	8b 5d 14	 mov	 ebx, DWORD PTR [ebp+20]
  00043	3b f3		 cmp	 esi, ebx
  00045	73 02		 jae	 SHORT $L106150
  00047	8b de		 mov	 ebx, esi
$L106150:
  00049	83 f8 10	 cmp	 eax, 16			; 00000010H
  0004c	72 2b		 jb	 SHORT $L106204
  0004e	85 db		 test	 ebx, ebx
  00050	8b 45 04	 mov	 eax, DWORD PTR [ebp+4]
  00053	57		 push	 edi
  00054	8d 7d 04	 lea	 edi, DWORD PTR [ebp+4]
  00057	76 16		 jbe	 SHORT $L106202
  00059	8b cb		 mov	 ecx, ebx
  0005b	8b d1		 mov	 edx, ecx
  0005d	c1 e9 02	 shr	 ecx, 2
  00060	8b f0		 mov	 esi, eax
  00062	f3 a5		 rep movsd
  00064	8b ca		 mov	 ecx, edx
  00066	83 e1 03	 and	 ecx, 3
  00069	f3 a4		 rep movsb
  0006b	8b 74 24 14	 mov	 esi, DWORD PTR __Newsize$[esp+12]
$L106202:
  0006f	50		 push	 eax
  00070	e8 00 00 00 00	 call	 ??3@YAXPAX@Z		; operator delete
  00075	83 c4 04	 add	 esp, 4
  00078	5f		 pop	 edi
$L106204:
  00079	89 5d 14	 mov	 DWORD PTR [ebp+20], ebx

; 1490 : 		return (0 < _Newsize);	// return true only if more work to do

  0007c	33 c0		 xor	 eax, eax
  0007e	c7 45 18 0f 00
	00 00		 mov	 DWORD PTR [ebp+24], 15	; 0000000fH
  00085	c6 44 2b 04 00	 mov	 BYTE PTR [ebx+ebp+4], 0
  0008a	3b c6		 cmp	 eax, esi
  0008c	5b		 pop	 ebx
  0008d	1b c0		 sbb	 eax, eax
  0008f	5e		 pop	 esi
  00090	f7 d8		 neg	 eax
  00092	5d		 pop	 ebp

; 1491 : 		}

  00093	c2 08 00	 ret	 8
$L103766:

; 1488 : 		else if (_Newsize == 0)

  00096	85 f6		 test	 esi, esi
  00098	75 23		 jne	 SHORT $L106241

; 1489 : 			_Eos(0);	// new size is zero, just null terminate

  0009a	83 f8 10	 cmp	 eax, 16			; 00000010H
  0009d	89 75 14	 mov	 DWORD PTR [ebp+20], esi
  000a0	72 14		 jb	 SHORT $L106239
  000a2	8b 6d 04	 mov	 ebp, DWORD PTR [ebp+4]

; 1490 : 		return (0 < _Newsize);	// return true only if more work to do

  000a5	33 c0		 xor	 eax, eax
  000a7	3b c6		 cmp	 eax, esi
  000a9	1b c0		 sbb	 eax, eax
  000ab	5e		 pop	 esi
  000ac	c6 45 00 00	 mov	 BYTE PTR [ebp], 0
  000b0	f7 d8		 neg	 eax
  000b2	5d		 pop	 ebp

; 1491 : 		}

  000b3	c2 08 00	 ret	 8

; 1489 : 			_Eos(0);	// new size is zero, just null terminate

$L106239:
  000b6	83 c5 04	 add	 ebp, 4
  000b9	c6 45 00 00	 mov	 BYTE PTR [ebp], 0
$L106241:

; 1490 : 		return (0 < _Newsize);	// return true only if more work to do

  000bd	33 c0		 xor	 eax, eax
  000bf	3b c6		 cmp	 eax, esi
  000c1	1b c0		 sbb	 eax, eax
  000c3	5e		 pop	 esi
  000c4	f7 d8		 neg	 eax
  000c6	5d		 pop	 ebp

; 1491 : 		}

  000c7	c2 08 00	 ret	 8
?_Grow@?$basic_string@DU?$char_traits@D@std@@V?$allocator@D@2@@std@@IAE_NI_N@Z ENDP ; std::basic_string<char,std::char_traits<char>,std::allocator<char> >::_Grow
_TEXT	ENDS
PUBLIC	?assign@?$basic_string@DU?$char_traits@D@std@@V?$allocator@D@2@@std@@QAEAAV12@ABV12@II@Z ; std::basic_string<char,std::char_traits<char>,std::allocator<char> >::assign
; Function compile flags: /Ogty
;	COMDAT ?assign@?$basic_string@DU?$char_traits@D@std@@V?$allocator@D@2@@std@@QAEAAV12@ABV12@II@Z
_TEXT	SEGMENT
__Right$ = 8						; size = 4
__Roff$ = 12						; size = 4
__Count$ = 16						; size = 4
?assign@?$basic_string@DU?$char_traits@D@std@@V?$allocator@D@2@@std@@QAEAAV12@ABV12@II@Z PROC NEAR ; std::basic_string<char,std::char_traits<char>,std::allocator<char> >::assign, COMDAT
; _this$ = ecx

; 590  : 		{	// assign _Right [_Roff, _Roff + _Count)

  00000	53		 push	 ebx
  00001	55		 push	 ebp
  00002	56		 push	 esi

; 591  : 		if (_Right.size() < _Roff)

  00003	8b 74 24 14	 mov	 esi, DWORD PTR __Roff$[esp+8]
  00007	57		 push	 edi
  00008	8b 7c 24 14	 mov	 edi, DWORD PTR __Right$[esp+12]
  0000c	39 77 14	 cmp	 DWORD PTR [edi+20], esi
  0000f	8b d9		 mov	 ebx, ecx
  00011	73 05		 jae	 SHORT $L103255

; 592  : 			_String_base::_Xran();	// _Roff off end

  00013	e8 00 00 00 00	 call	 ?_Xran@_String_base@std@@QBEXXZ ; std::_String_base::_Xran
$L103255:

; 593  : 		size_type _Num = _Right.size() - _Roff;

  00018	8b 6f 14	 mov	 ebp, DWORD PTR [edi+20]

; 594  : 		if (_Count < _Num)

  0001b	8b 44 24 1c	 mov	 eax, DWORD PTR __Count$[esp+12]
  0001f	2b ee		 sub	 ebp, esi
  00021	3b c5		 cmp	 eax, ebp
  00023	73 02		 jae	 SHORT $L103257

; 595  : 			_Num = _Count;	// trim _Num to size

  00025	8b e8		 mov	 ebp, eax
$L103257:

; 596  : 
; 597  : 		if (this == &_Right)

  00027	3b df		 cmp	 ebx, edi
  00029	75 1f		 jne	 SHORT $L103258

; 598  : 			erase((size_type)(_Roff + _Num)), erase(0, _Roff);	// substring

  0002b	6a ff		 push	 -1
  0002d	03 ee		 add	 ebp, esi
  0002f	55		 push	 ebp
  00030	8b cb		 mov	 ecx, ebx
  00032	e8 00 00 00 00	 call	 ?erase@?$basic_string@DU?$char_traits@D@std@@V?$allocator@D@2@@std@@QAEAAV12@II@Z ; std::basic_string<char,std::char_traits<char>,std::allocator<char> >::erase
  00037	56		 push	 esi
  00038	6a 00		 push	 0
  0003a	8b cb		 mov	 ecx, ebx
  0003c	e8 00 00 00 00	 call	 ?erase@?$basic_string@DU?$char_traits@D@std@@V?$allocator@D@2@@std@@QAEAAV12@II@Z ; std::basic_string<char,std::char_traits<char>,std::allocator<char> >::erase
  00041	5f		 pop	 edi
  00042	5e		 pop	 esi
  00043	5d		 pop	 ebp

; 603  : 			}
; 604  : 		return (*this);

  00044	8b c3		 mov	 eax, ebx
  00046	5b		 pop	 ebx

; 605  : 		}

  00047	c2 0c 00	 ret	 12			; 0000000cH
$L103258:

; 599  : 		else if (_Grow(_Num))

  0004a	83 fd fe	 cmp	 ebp, -2			; fffffffeH
  0004d	76 07		 jbe	 SHORT $L106352
  0004f	8b cb		 mov	 ecx, ebx
  00051	e8 00 00 00 00	 call	 ?_Xlen@_String_base@std@@QBEXXZ ; std::_String_base::_Xlen
$L106352:
  00056	8b 43 18	 mov	 eax, DWORD PTR [ebx+24]
  00059	3b c5		 cmp	 eax, ebp
  0005b	73 21		 jae	 SHORT $L106353
  0005d	8b 43 14	 mov	 eax, DWORD PTR [ebx+20]
  00060	50		 push	 eax
  00061	55		 push	 ebp
  00062	8b cb		 mov	 ecx, ebx
  00064	e8 00 00 00 00	 call	 ?_Copy@?$basic_string@DU?$char_traits@D@std@@V?$allocator@D@2@@std@@IAEXII@Z ; std::basic_string<char,std::char_traits<char>,std::allocator<char> >::_Copy
  00069	85 ed		 test	 ebp, ebp
$L106440:
  0006b	76 6d		 jbe	 SHORT $L106439

; 600  : 			{	// make room and assign new stuff
; 601  : 			_Traits::copy(_Myptr(), _Right._Myptr() + _Roff, _Num);

  0006d	8b 4f 18	 mov	 ecx, DWORD PTR [edi+24]
  00070	b8 10 00 00 00	 mov	 eax, 16			; 00000010H
  00075	3b c8		 cmp	 ecx, eax
  00077	72 2f		 jb	 SHORT $L106404
  00079	8b 57 04	 mov	 edx, DWORD PTR [edi+4]
  0007c	eb 2d		 jmp	 SHORT $L106405

; 599  : 		else if (_Grow(_Num))

$L106353:
  0007e	85 ed		 test	 ebp, ebp
  00080	75 e9		 jne	 SHORT $L106440
  00082	83 f8 10	 cmp	 eax, 16			; 00000010H
  00085	89 6b 14	 mov	 DWORD PTR [ebx+20], ebp
  00088	72 0f		 jb	 SHORT $L106396
  0008a	8b 43 04	 mov	 eax, DWORD PTR [ebx+4]
  0008d	5f		 pop	 edi
  0008e	5e		 pop	 esi
  0008f	c6 00 00	 mov	 BYTE PTR [eax], 0
  00092	5d		 pop	 ebp

; 603  : 			}
; 604  : 		return (*this);

  00093	8b c3		 mov	 eax, ebx
  00095	5b		 pop	 ebx

; 605  : 		}

  00096	c2 0c 00	 ret	 12			; 0000000cH

; 599  : 		else if (_Grow(_Num))

$L106396:
  00099	5f		 pop	 edi
  0009a	8d 43 04	 lea	 eax, DWORD PTR [ebx+4]
  0009d	5e		 pop	 esi
  0009e	c6 00 00	 mov	 BYTE PTR [eax], 0
  000a1	5d		 pop	 ebp

; 603  : 			}
; 604  : 		return (*this);

  000a2	8b c3		 mov	 eax, ebx
  000a4	5b		 pop	 ebx

; 605  : 		}

  000a5	c2 0c 00	 ret	 12			; 0000000cH

; 600  : 			{	// make room and assign new stuff
; 601  : 			_Traits::copy(_Myptr(), _Right._Myptr() + _Roff, _Num);

$L106404:
  000a8	8d 57 04	 lea	 edx, DWORD PTR [edi+4]
$L106405:
  000ab	39 43 18	 cmp	 DWORD PTR [ebx+24], eax
  000ae	8d 43 04	 lea	 eax, DWORD PTR [ebx+4]
  000b1	72 04		 jb	 SHORT $L106412
  000b3	8b 38		 mov	 edi, DWORD PTR [eax]
  000b5	eb 02		 jmp	 SHORT $L106413
$L106412:
  000b7	8b f8		 mov	 edi, eax
$L106413:
  000b9	03 f2		 add	 esi, edx
  000bb	8b cd		 mov	 ecx, ebp
  000bd	8b d1		 mov	 edx, ecx
  000bf	c1 e9 02	 shr	 ecx, 2
  000c2	f3 a5		 rep movsd
  000c4	8b ca		 mov	 ecx, edx
  000c6	83 e1 03	 and	 ecx, 3
  000c9	f3 a4		 rep movsb

; 602  : 			_Eos(_Num);

  000cb	83 7b 18 10	 cmp	 DWORD PTR [ebx+24], 16	; 00000010H
  000cf	89 6b 14	 mov	 DWORD PTR [ebx+20], ebp
  000d2	72 02		 jb	 SHORT $L106436
  000d4	8b 00		 mov	 eax, DWORD PTR [eax]
$L106436:
  000d6	c6 04 28 00	 mov	 BYTE PTR [eax+ebp], 0
$L106439:
  000da	5f		 pop	 edi
  000db	5e		 pop	 esi
  000dc	5d		 pop	 ebp

; 603  : 			}
; 604  : 		return (*this);

  000dd	8b c3		 mov	 eax, ebx
  000df	5b		 pop	 ebx

; 605  : 		}

  000e0	c2 0c 00	 ret	 12			; 0000000cH
?assign@?$basic_string@DU?$char_traits@D@std@@V?$allocator@D@2@@std@@QAEAAV12@ABV12@II@Z ENDP ; std::basic_string<char,std::char_traits<char>,std::allocator<char> >::assign
_TEXT	ENDS
PUBLIC	?assign@?$basic_string@DU?$char_traits@D@std@@V?$allocator@D@2@@std@@QAEAAV12@PBDI@Z ; std::basic_string<char,std::char_traits<char>,std::allocator<char> >::assign
; Function compile flags: /Ogty
;	COMDAT ?assign@?$basic_string@DU?$char_traits@D@std@@V?$allocator@D@2@@std@@QAEAAV12@PBDI@Z
_TEXT	SEGMENT
__Ptr$ = 8						; size = 4
__Num$ = 12						; size = 4
?assign@?$basic_string@DU?$char_traits@D@std@@V?$allocator@D@2@@std@@QAEAAV12@PBDI@Z PROC NEAR ; std::basic_string<char,std::char_traits<char>,std::allocator<char> >::assign, COMDAT
; _this$ = ecx

; 608  : 		{	// assign [_Ptr, _Ptr + _Num)

  00000	53		 push	 ebx
  00001	8b d9		 mov	 ebx, ecx

; 609  : 		if (_Inside(_Ptr))

  00003	8b 53 18	 mov	 edx, DWORD PTR [ebx+24]
  00006	83 fa 10	 cmp	 edx, 16			; 00000010H
  00009	56		 push	 esi
  0000a	57		 push	 edi
  0000b	72 05		 jb	 SHORT $L106466
  0000d	8b 43 04	 mov	 eax, DWORD PTR [ebx+4]
  00010	eb 03		 jmp	 SHORT $L106467
$L106466:
  00012	8d 43 04	 lea	 eax, DWORD PTR [ebx+4]
$L106467:
  00015	8b 74 24 10	 mov	 esi, DWORD PTR __Ptr$[esp+8]
  00019	3b f0		 cmp	 esi, eax
  0001b	72 34		 jb	 SHORT $L103750
  0001d	83 fa 10	 cmp	 edx, 16			; 00000010H
  00020	8d 43 04	 lea	 eax, DWORD PTR [ebx+4]
  00023	72 04		 jb	 SHORT $L106470
  00025	8b 08		 mov	 ecx, DWORD PTR [eax]
  00027	eb 02		 jmp	 SHORT $L106471
$L106470:
  00029	8b c8		 mov	 ecx, eax
$L106471:
  0002b	8b 7b 14	 mov	 edi, DWORD PTR [ebx+20]
  0002e	03 f9		 add	 edi, ecx
  00030	3b fe		 cmp	 edi, esi
  00032	76 1d		 jbe	 SHORT $L103750

; 610  : 			return (assign(*this, _Ptr - _Myptr(), _Num));	// substring

  00034	83 fa 10	 cmp	 edx, 16			; 00000010H
  00037	72 02		 jb	 SHORT $L106479
  00039	8b 00		 mov	 eax, DWORD PTR [eax]
$L106479:
  0003b	8b 4c 24 14	 mov	 ecx, DWORD PTR __Num$[esp+8]
  0003f	51		 push	 ecx
  00040	2b f0		 sub	 esi, eax
  00042	56		 push	 esi
  00043	53		 push	 ebx
  00044	8b cb		 mov	 ecx, ebx
  00046	e8 00 00 00 00	 call	 ?assign@?$basic_string@DU?$char_traits@D@std@@V?$allocator@D@2@@std@@QAEAAV12@ABV12@II@Z ; std::basic_string<char,std::char_traits<char>,std::allocator<char> >::assign
  0004b	5f		 pop	 edi
  0004c	5e		 pop	 esi
  0004d	5b		 pop	 ebx

; 618  : 		}

  0004e	c2 08 00	 ret	 8
$L103750:
  00051	55		 push	 ebp

; 611  : 
; 612  : 		if (_Grow(_Num))

  00052	8b 6c 24 18	 mov	 ebp, DWORD PTR __Num$[esp+12]
  00056	83 fd fe	 cmp	 ebp, -2			; fffffffeH
  00059	76 07		 jbe	 SHORT $L106614
  0005b	8b cb		 mov	 ecx, ebx
  0005d	e8 00 00 00 00	 call	 ?_Xlen@_String_base@std@@QBEXXZ ; std::_String_base::_Xlen
$L106614:
  00062	8b 43 18	 mov	 eax, DWORD PTR [ebx+24]
  00065	3b c5		 cmp	 eax, ebp
  00067	73 1b		 jae	 SHORT $L106615
  00069	8b 53 14	 mov	 edx, DWORD PTR [ebx+20]
  0006c	52		 push	 edx
  0006d	55		 push	 ebp
  0006e	8b cb		 mov	 ecx, ebx
  00070	e8 00 00 00 00	 call	 ?_Copy@?$basic_string@DU?$char_traits@D@std@@V?$allocator@D@2@@std@@IAEXII@Z ; std::basic_string<char,std::char_traits<char>,std::allocator<char> >::_Copy
  00075	85 ed		 test	 ebp, ebp
$L106658:
  00077	76 68		 jbe	 SHORT $L106655

; 613  : 			{	// make room and assign new stuff
; 614  : 			_Traits::copy(_Myptr(), _Ptr, _Num);

  00079	83 7b 18 10	 cmp	 DWORD PTR [ebx+24], 16	; 00000010H
  0007d	72 2f		 jb	 SHORT $L106629
  0007f	8b 7b 04	 mov	 edi, DWORD PTR [ebx+4]
  00082	eb 2d		 jmp	 SHORT $L106630

; 611  : 
; 612  : 		if (_Grow(_Num))

$L106615:
  00084	85 ed		 test	 ebp, ebp
  00086	75 ef		 jne	 SHORT $L106658
  00088	83 f8 10	 cmp	 eax, 16			; 00000010H
  0008b	89 6b 14	 mov	 DWORD PTR [ebx+20], ebp
  0008e	72 0f		 jb	 SHORT $L106607
  00090	8b 43 04	 mov	 eax, DWORD PTR [ebx+4]
  00093	5d		 pop	 ebp
  00094	5f		 pop	 edi
  00095	c6 00 00	 mov	 BYTE PTR [eax], 0
  00098	5e		 pop	 esi

; 616  : 			}
; 617  : 		return (*this);

  00099	8b c3		 mov	 eax, ebx
  0009b	5b		 pop	 ebx

; 618  : 		}

  0009c	c2 08 00	 ret	 8

; 611  : 
; 612  : 		if (_Grow(_Num))

$L106607:
  0009f	5d		 pop	 ebp
  000a0	8d 43 04	 lea	 eax, DWORD PTR [ebx+4]
  000a3	5f		 pop	 edi
  000a4	c6 00 00	 mov	 BYTE PTR [eax], 0
  000a7	5e		 pop	 esi

; 616  : 			}
; 617  : 		return (*this);

  000a8	8b c3		 mov	 eax, ebx
  000aa	5b		 pop	 ebx

; 618  : 		}

  000ab	c2 08 00	 ret	 8

; 613  : 			{	// make room and assign new stuff
; 614  : 			_Traits::copy(_Myptr(), _Ptr, _Num);

$L106629:
  000ae	8d 7b 04	 lea	 edi, DWORD PTR [ebx+4]
$L106630:
  000b1	8b cd		 mov	 ecx, ebp
  000b3	8b c1		 mov	 eax, ecx
  000b5	c1 e9 02	 shr	 ecx, 2
  000b8	f3 a5		 rep movsd
  000ba	8b c8		 mov	 ecx, eax
  000bc	83 e1 03	 and	 ecx, 3
  000bf	f3 a4		 rep movsb

; 615  : 			_Eos(_Num);

  000c1	83 7b 18 10	 cmp	 DWORD PTR [ebx+24], 16	; 00000010H
  000c5	89 6b 14	 mov	 DWORD PTR [ebx+20], ebp
  000c8	72 10		 jb	 SHORT $L106651
  000ca	8b 43 04	 mov	 eax, DWORD PTR [ebx+4]
  000cd	c6 04 28 00	 mov	 BYTE PTR [eax+ebp], 0
  000d1	5d		 pop	 ebp
  000d2	5f		 pop	 edi
  000d3	5e		 pop	 esi

; 616  : 			}
; 617  : 		return (*this);

  000d4	8b c3		 mov	 eax, ebx
  000d6	5b		 pop	 ebx

; 618  : 		}

  000d7	c2 08 00	 ret	 8

; 615  : 			_Eos(_Num);

$L106651:
  000da	8d 43 04	 lea	 eax, DWORD PTR [ebx+4]
  000dd	c6 04 28 00	 mov	 BYTE PTR [eax+ebp], 0
$L106655:
  000e1	5d		 pop	 ebp
  000e2	5f		 pop	 edi
  000e3	5e		 pop	 esi

; 616  : 			}
; 617  : 		return (*this);

  000e4	8b c3		 mov	 eax, ebx
  000e6	5b		 pop	 ebx

; 618  : 		}

  000e7	c2 08 00	 ret	 8
?assign@?$basic_string@DU?$char_traits@D@std@@V?$allocator@D@2@@std@@QAEAAV12@PBDI@Z ENDP ; std::basic_string<char,std::char_traits<char>,std::allocator<char> >::assign
_TEXT	ENDS
PUBLIC	??0?$basic_string@DU?$char_traits@D@std@@V?$allocator@D@2@@std@@QAE@ABV01@@Z ; std::basic_string<char,std::char_traits<char>,std::allocator<char> >::basic_string<char,std::char_traits<char>,std::allocator<char> >
; Function compile flags: /Ogty
;	COMDAT ??0?$basic_string@DU?$char_traits@D@std@@V?$allocator@D@2@@std@@QAE@ABV01@@Z
_TEXT	SEGMENT
__Right$ = 8						; size = 4
??0?$basic_string@DU?$char_traits@D@std@@V?$allocator@D@2@@std@@QAE@ABV01@@Z PROC NEAR ; std::basic_string<char,std::char_traits<char>,std::allocator<char> >::basic_string<char,std::char_traits<char>,std::allocator<char> >, COMDAT
; _this$ = ecx

; 323  : 		{	// construct by copying _Right

  00000	56		 push	 esi

; 324  : 		_Tidy();

  00001	33 c0		 xor	 eax, eax
  00003	8b f1		 mov	 esi, ecx

; 325  : 		assign(_Right, 0, npos);

  00005	6a ff		 push	 -1
  00007	89 46 14	 mov	 DWORD PTR [esi+20], eax
  0000a	c7 46 18 0f 00
	00 00		 mov	 DWORD PTR [esi+24], 15	; 0000000fH
  00011	50		 push	 eax
  00012	88 46 04	 mov	 BYTE PTR [esi+4], al
  00015	8b 44 24 10	 mov	 eax, DWORD PTR __Right$[esp+8]
  00019	50		 push	 eax
  0001a	e8 00 00 00 00	 call	 ?assign@?$basic_string@DU?$char_traits@D@std@@V?$allocator@D@2@@std@@QAEAAV12@ABV12@II@Z ; std::basic_string<char,std::char_traits<char>,std::allocator<char> >::assign

; 326  : 		}

  0001f	8b c6		 mov	 eax, esi
  00021	5e		 pop	 esi
  00022	c2 04 00	 ret	 4
??0?$basic_string@DU?$char_traits@D@std@@V?$allocator@D@2@@std@@QAE@ABV01@@Z ENDP ; std::basic_string<char,std::char_traits<char>,std::allocator<char> >::basic_string<char,std::char_traits<char>,std::allocator<char> >
_TEXT	ENDS
PUBLIC	?assign@?$basic_string@DU?$char_traits@D@std@@V?$allocator@D@2@@std@@QAEAAV12@PBD@Z ; std::basic_string<char,std::char_traits<char>,std::allocator<char> >::assign
; Function compile flags: /Ogty
;	COMDAT ?assign@?$basic_string@DU?$char_traits@D@std@@V?$allocator@D@2@@std@@QAEAAV12@PBD@Z
_TEXT	SEGMENT
__Ptr$ = 8						; size = 4
?assign@?$basic_string@DU?$char_traits@D@std@@V?$allocator@D@2@@std@@QAEAAV12@PBD@Z PROC NEAR ; std::basic_string<char,std::char_traits<char>,std::allocator<char> >::assign, COMDAT
; _this$ = ecx

; 621  : 		{	// assign [_Ptr, <null>)

  00000	56		 push	 esi

; 622  : 		return (assign(_Ptr, _Traits::length(_Ptr)));

  00001	8b 74 24 08	 mov	 esi, DWORD PTR __Ptr$[esp]
  00005	8b c6		 mov	 eax, esi
  00007	57		 push	 edi
  00008	8d 78 01	 lea	 edi, DWORD PTR [eax+1]
  0000b	eb 03 8d 49 00	 npad	 5
$L106731:
  00010	8a 10		 mov	 dl, BYTE PTR [eax]
  00012	40		 inc	 eax
  00013	84 d2		 test	 dl, dl
  00015	75 f9		 jne	 SHORT $L106731
  00017	2b c7		 sub	 eax, edi
  00019	50		 push	 eax
  0001a	56		 push	 esi
  0001b	e8 00 00 00 00	 call	 ?assign@?$basic_string@DU?$char_traits@D@std@@V?$allocator@D@2@@std@@QAEAAV12@PBDI@Z ; std::basic_string<char,std::char_traits<char>,std::allocator<char> >::assign
  00020	5f		 pop	 edi
  00021	5e		 pop	 esi

; 623  : 		}

  00022	c2 04 00	 ret	 4
?assign@?$basic_string@DU?$char_traits@D@std@@V?$allocator@D@2@@std@@QAEAAV12@PBD@Z ENDP ; std::basic_string<char,std::char_traits<char>,std::allocator<char> >::assign
_TEXT	ENDS
PUBLIC	??0?$basic_string@DU?$char_traits@D@std@@V?$allocator@D@2@@std@@QAE@PBD@Z ; std::basic_string<char,std::char_traits<char>,std::allocator<char> >::basic_string<char,std::char_traits<char>,std::allocator<char> >
; Function compile flags: /Ogty
;	COMDAT ??0?$basic_string@DU?$char_traits@D@std@@V?$allocator@D@2@@std@@QAE@PBD@Z
_TEXT	SEGMENT
__Ptr$ = 8						; size = 4
??0?$basic_string@DU?$char_traits@D@std@@V?$allocator@D@2@@std@@QAE@PBD@Z PROC NEAR ; std::basic_string<char,std::char_traits<char>,std::allocator<char> >::basic_string<char,std::char_traits<char>,std::allocator<char> >, COMDAT
; _this$ = ecx

; 361  : 		_Tidy();
; 362  : 		assign(_Ptr);

  00000	8b 54 24 04	 mov	 edx, DWORD PTR __Ptr$[esp-4]
  00004	56		 push	 esi
  00005	8b f1		 mov	 esi, ecx
  00007	8b c2		 mov	 eax, edx
  00009	57		 push	 edi
  0000a	c7 46 18 0f 00
	00 00		 mov	 DWORD PTR [esi+24], 15	; 0000000fH
  00011	c7 46 14 00 00
	00 00		 mov	 DWORD PTR [esi+20], 0
  00018	c6 46 04 00	 mov	 BYTE PTR [esi+4], 0
  0001c	8d 78 01	 lea	 edi, DWORD PTR [eax+1]
  0001f	90		 npad	 1
$L106806:
  00020	8a 08		 mov	 cl, BYTE PTR [eax]
  00022	40		 inc	 eax
  00023	84 c9		 test	 cl, cl
  00025	75 f9		 jne	 SHORT $L106806
  00027	2b c7		 sub	 eax, edi
  00029	50		 push	 eax
  0002a	52		 push	 edx
  0002b	8b ce		 mov	 ecx, esi
  0002d	e8 00 00 00 00	 call	 ?assign@?$basic_string@DU?$char_traits@D@std@@V?$allocator@D@2@@std@@QAEAAV12@PBDI@Z ; std::basic_string<char,std::char_traits<char>,std::allocator<char> >::assign
  00032	5f		 pop	 edi

; 363  : 		}

  00033	8b c6		 mov	 eax, esi
  00035	5e		 pop	 esi
  00036	c2 04 00	 ret	 4
??0?$basic_string@DU?$char_traits@D@std@@V?$allocator@D@2@@std@@QAE@PBD@Z ENDP ; std::basic_string<char,std::char_traits<char>,std::allocator<char> >::basic_string<char,std::char_traits<char>,std::allocator<char> >
_TEXT	ENDS
PUBLIC	??0CSPLogin@@QAE@PAVCSqlDatabase@@V?$basic_string@DU?$char_traits@D@std@@V?$allocator@D@2@@std@@@Z ; CSPLogin::CSPLogin
PUBLIC	?GetNumParam@CSPLogin@@UAEHXZ			; CSPLogin::GetNumParam
PUBLIC	?BindParameters@CSPLogin@@UAEFH@Z		; CSPLogin::BindParameters
PUBLIC	??_7CSPLogin@@6B@				; CSPLogin::`vftable'
PUBLIC	??_GCSPLogin@@UAEPAXI@Z				; CSPLogin::`scalar deleting destructor'
PUBLIC	??_C@_0CM@HKEMIMCP@?$HL?5?$DP?5?$DN?5CALL?5TLogin?$CI?$DP?0?$DP?0?$DP?0?$DP?0?$DP?0?$DP?0?$DP?0@ ; `string'
EXTRN	?GetNumCol@CSqlBase@@UAEHXZ:NEAR		; CSqlBase::GetNumCol
EXTRN	??_ECSPLogin@@UAEPAXI@Z:NEAR			; CSPLogin::`vector deleting destructor'
EXTRN	??0CSqlQuery@@QAE@PAVCSqlDatabase@@V?$basic_string@DU?$char_traits@D@std@@V?$allocator@D@2@@std@@PBD@Z:NEAR ; CSqlQuery::CSqlQuery
EXTRN	?AllocStatement@CSqlQuery@@UAEHXZ:NEAR		; CSqlQuery::AllocStatement
EXTRN	?BindColumns@CSqlQuery@@UAEFXZ:NEAR		; CSqlQuery::BindColumns
;	COMDAT xdata$x
; File c:\program files (x86)\microsoft visual studio .net 2003\vc7\include\iosfwd
xdata$x	SEGMENT
$T106985 DD	0ffffffffH
	DD	FLAT:$L106811
$T106982 DD	019930520H
	DD	01H
	DD	FLAT:$T106985
	DD	2 DUP(00H)
	DD	2 DUP(00H)
xdata$x	ENDS
;	COMDAT ??_C@_0CM@HKEMIMCP@?$HL?5?$DP?5?$DN?5CALL?5TLogin?$CI?$DP?0?$DP?0?$DP?0?$DP?0?$DP?0?$DP?0?$DP?0@
CONST	SEGMENT
??_C@_0CM@HKEMIMCP@?$HL?5?$DP?5?$DN?5CALL?5TLogin?$CI?$DP?0?$DP?0?$DP?0?$DP?0?$DP?0?$DP?0?$DP?0@ DB '{'
	DB	' ? = CALL TLogin(?,?,?,?,?,?,?,?,?,?,?,?)}', 00H ; `string'
CONST	ENDS
;	COMDAT ??_7CSPLogin@@6B@
CONST	SEGMENT
??_7CSPLogin@@6B@ DD FLAT:??_ECSPLogin@@UAEPAXI@Z	; CSPLogin::`vftable'
	DD	FLAT:?GetNumCol@CSqlBase@@UAEHXZ
	DD	FLAT:?GetNumParam@CSPLogin@@UAEHXZ
	DD	FLAT:?AllocStatement@CSqlQuery@@UAEHXZ
	DD	FLAT:?BindColumns@CSqlQuery@@UAEFXZ
	DD	FLAT:?BindParameters@CSPLogin@@UAEFH@Z
; Function compile flags: /Ogty
; File c:\users\pierr\desktop\4story - oldschool\sources\tserver\tloginsvr\dbaccess.h
CONST	ENDS
;	COMDAT ??0CSPLogin@@QAE@PAVCSqlDatabase@@V?$basic_string@DU?$char_traits@D@std@@V?$allocator@D@2@@std@@@Z
_TEXT	SEGMENT
$T106810 = -16						; size = 4
__$EHRec$ = -12						; size = 12
_pdb$ = 8						; size = 4
_strKey$ = 12						; size = 28
??0CSPLogin@@QAE@PAVCSqlDatabase@@V?$basic_string@DU?$char_traits@D@std@@V?$allocator@D@2@@std@@@Z PROC NEAR ; CSPLogin::CSPLogin, COMDAT
; _this$ = ecx

; 24   : DEF_QUERY( CSPLogin, _T("{ ? = CALL TLogin(?,?,?,?,?,?,?,?,?,?,?,?)}"))

  00000	6a ff		 push	 -1
  00002	68 00 00 00 00	 push	 __ehhandler$??0CSPLogin@@QAE@PAVCSqlDatabase@@V?$basic_string@DU?$char_traits@D@std@@V?$allocator@D@2@@std@@@Z
  00007	64 a1 00 00 00
	00		 mov	 eax, DWORD PTR fs:__except_list
  0000d	50		 push	 eax
  0000e	64 89 25 00 00
	00 00		 mov	 DWORD PTR fs:__except_list, esp
  00015	51		 push	 ecx
  00016	56		 push	 esi
  00017	8b f1		 mov	 esi, ecx
  00019	68 00 00 00 00	 push	 OFFSET FLAT:??_C@_0CM@HKEMIMCP@?$HL?5?$DP?5?$DN?5CALL?5TLogin?$CI?$DP?0?$DP?0?$DP?0?$DP?0?$DP?0?$DP?0?$DP?0@
  0001e	83 ec 1c	 sub	 esp, 28			; 0000001cH
  00021	8b cc		 mov	 ecx, esp
  00023	33 c0		 xor	 eax, eax
  00025	89 64 24 24	 mov	 DWORD PTR $T106810[esp+52], esp
  00029	6a ff		 push	 -1
  0002b	89 41 14	 mov	 DWORD PTR [ecx+20], eax
  0002e	c7 41 18 0f 00
	00 00		 mov	 DWORD PTR [ecx+24], 15	; 0000000fH
  00035	50		 push	 eax
  00036	89 44 24 38	 mov	 DWORD PTR __$EHRec$[esp+68], eax
  0003a	88 41 04	 mov	 BYTE PTR [ecx+4], al
  0003d	8d 44 24 44	 lea	 eax, DWORD PTR _strKey$[esp+56]
  00041	50		 push	 eax
  00042	e8 00 00 00 00	 call	 ?assign@?$basic_string@DU?$char_traits@D@std@@V?$allocator@D@2@@std@@QAEAAV12@ABV12@II@Z ; std::basic_string<char,std::char_traits<char>,std::allocator<char> >::assign
  00047	8b 4c 24 38	 mov	 ecx, DWORD PTR _pdb$[esp+48]
  0004b	51		 push	 ecx
  0004c	8b ce		 mov	 ecx, esi
  0004e	e8 00 00 00 00	 call	 ??0CSqlQuery@@QAE@PAVCSqlDatabase@@V?$basic_string@DU?$char_traits@D@std@@V?$allocator@D@2@@std@@PBD@Z ; CSqlQuery::CSqlQuery
  00053	83 7c 24 34 10	 cmp	 DWORD PTR _strKey$[esp+40], 16 ; 00000010H
  00058	c7 06 00 00 00
	00		 mov	 DWORD PTR [esi], OFFSET FLAT:??_7CSPLogin@@6B@
  0005e	72 0d		 jb	 SHORT $L106983
  00060	8b 54 24 20	 mov	 edx, DWORD PTR _strKey$[esp+20]
  00064	52		 push	 edx
  00065	e8 00 00 00 00	 call	 ??3@YAXPAX@Z		; operator delete
  0006a	83 c4 04	 add	 esp, 4
$L106983:
  0006d	8b 4c 24 08	 mov	 ecx, DWORD PTR __$EHRec$[esp+20]
  00071	8b c6		 mov	 eax, esi
  00073	64 89 0d 00 00
	00 00		 mov	 DWORD PTR fs:__except_list, ecx
  0007a	5e		 pop	 esi
  0007b	83 c4 10	 add	 esp, 16			; 00000010H
  0007e	c2 20 00	 ret	 32			; 00000020H
_TEXT	ENDS
;	COMDAT text$x
text$x	SEGMENT
$L106811:
  00000	8d 4d 08	 lea	 ecx, DWORD PTR _strKey$[ebp-4]
  00003	e9 00 00 00 00	 jmp	 ??1?$basic_string@DU?$char_traits@D@std@@V?$allocator@D@2@@std@@QAE@XZ ; std::basic_string<char,std::char_traits<char>,std::allocator<char> >::~basic_string<char,std::char_traits<char>,std::allocator<char> >
__ehhandler$??0CSPLogin@@QAE@PAVCSqlDatabase@@V?$basic_string@DU?$char_traits@D@std@@V?$allocator@D@2@@std@@@Z:
  00008	b8 00 00 00 00	 mov	 eax, OFFSET FLAT:$T106982
  0000d	e9 00 00 00 00	 jmp	 ___CxxFrameHandler
text$x	ENDS
??0CSPLogin@@QAE@PAVCSqlDatabase@@V?$basic_string@DU?$char_traits@D@std@@V?$allocator@D@2@@std@@@Z ENDP ; CSPLogin::CSPLogin
; Function compile flags: /Ogty
;	COMDAT ?GetNumParam@CSPLogin@@UAEHXZ
_TEXT	SEGMENT
?GetNumParam@CSPLogin@@UAEHXZ PROC NEAR			; CSPLogin::GetNumParam, COMDAT
; _this$ = ecx

; 26   : BEGIN_PARAM(13)

  00000	b8 0d 00 00 00	 mov	 eax, 13			; 0000000dH
  00005	c3		 ret	 0
?GetNumParam@CSPLogin@@UAEHXZ ENDP			; CSPLogin::GetNumParam
_TEXT	ENDS
EXTRN	?BindParam@CSqlBase@@QAEFFFPAH@Z:NEAR		; CSqlBase::BindParam
EXTRN	?BindParam@CSqlBase@@QAEFFFPAK@Z:NEAR		; CSqlBase::BindParam
EXTRN	?BindParam@CSqlBase@@QAEFFFPAE@Z:NEAR		; CSqlBase::BindParam
EXTRN	?BindParam@CSqlBase@@QAEFFFPAG@Z:NEAR		; CSqlBase::BindParam
EXTRN	?BindParamStr@CSqlBase@@QAEFFFPADJ@Z:NEAR	; CSqlBase::BindParamStr
; Function compile flags: /Ogty
;	COMDAT ?BindParameters@CSPLogin@@UAEFH@Z
_TEXT	SEGMENT
_bRewind$ = 8						; size = 4
?BindParameters@CSPLogin@@UAEFH@Z PROC NEAR		; CSPLogin::BindParameters, COMDAT
; _this$ = ecx

; 26   : BEGIN_PARAM(13)

  00000	53		 push	 ebx
  00001	56		 push	 esi
  00002	57		 push	 edi

; 27   : 	PARAM_ENTRY( SQL_PARAM_OUTPUT, m_nRET)

  00003	8b 7c 24 10	 mov	 edi, DWORD PTR _bRewind$[esp+8]
  00007	33 db		 xor	 ebx, ebx
  00009	8b f1		 mov	 esi, ecx
  0000b	33 c0		 xor	 eax, eax
  0000d	3b fb		 cmp	 edi, ebx
  0000f	89 9e 10 08 00
	00		 mov	 DWORD PTR [esi+2064], ebx
  00015	75 1f		 jne	 SHORT $L94606
  00017	8d 86 2c 0c 00
	00		 lea	 eax, DWORD PTR [esi+3116]
  0001d	50		 push	 eax
  0001e	6a 01		 push	 1
  00020	6a 04		 push	 4
  00022	e8 00 00 00 00	 call	 ?BindParam@CSqlBase@@QAEFFFPAH@Z ; CSqlBase::BindParam
  00027	66 3b c3	 cmp	 ax, bx
  0002a	74 0a		 je	 SHORT $L94606
  0002c	66 3d 01 00	 cmp	 ax, 1
  00030	0f 85 f8 01 00
	00		 jne	 $L94601
$L94606:

; 28   : 	PARAM_ENTRY_STR( SQL_PARAM_INPUT, m_szUserID)

  00036	3b fb		 cmp	 edi, ebx
  00038	55		 push	 ebp
  00039	bd fd ff ff ff	 mov	 ebp, -3			; fffffffdH
  0003e	89 ae 14 08 00
	00		 mov	 DWORD PTR [esi+2068], ebp
  00044	75 14		 jne	 SHORT $L94607
  00046	6a 33		 push	 51			; 00000033H
  00048	8d 8e 30 0c 00
	00		 lea	 ecx, DWORD PTR [esi+3120]
  0004e	51		 push	 ecx
  0004f	6a 02		 push	 2
  00051	6a 01		 push	 1
  00053	8b ce		 mov	 ecx, esi
  00055	e8 00 00 00 00	 call	 ?BindParamStr@CSqlBase@@QAEFFFPADJ@Z ; CSqlBase::BindParamStr
$L94607:
  0005a	66 3b c3	 cmp	 ax, bx
  0005d	74 0a		 je	 SHORT $L106994
  0005f	66 3d 01 00	 cmp	 ax, 1
  00063	0f 85 c4 01 00
	00		 jne	 $L107001
$L106994:

; 29   : 	PARAM_ENTRY_STR( SQL_PARAM_INPUT, m_szPasswd)

  00069	3b fb		 cmp	 edi, ebx
  0006b	89 ae 18 08 00
	00		 mov	 DWORD PTR [esi+2072], ebp
  00071	75 14		 jne	 SHORT $L94609
  00073	6a 33		 push	 51			; 00000033H
  00075	8d 96 63 0c 00
	00		 lea	 edx, DWORD PTR [esi+3171]
  0007b	52		 push	 edx
  0007c	6a 03		 push	 3
  0007e	6a 01		 push	 1
  00080	8b ce		 mov	 ecx, esi
  00082	e8 00 00 00 00	 call	 ?BindParamStr@CSqlBase@@QAEFFFPADJ@Z ; CSqlBase::BindParamStr
$L94609:
  00087	66 3b c3	 cmp	 ax, bx
  0008a	74 0a		 je	 SHORT $L106996
  0008c	66 3d 01 00	 cmp	 ax, 1
  00090	0f 85 97 01 00
	00		 jne	 $L107001
$L106996:

; 30   : 	PARAM_ENTRY_STR( SQL_PARAM_INPUT, m_szLoginIP)

  00096	3b fb		 cmp	 edi, ebx
  00098	89 ae 1c 08 00
	00		 mov	 DWORD PTR [esi+2076], ebp
  0009e	75 14		 jne	 SHORT $L94611
  000a0	6a 33		 push	 51			; 00000033H
  000a2	8d 86 c9 0c 00
	00		 lea	 eax, DWORD PTR [esi+3273]
  000a8	50		 push	 eax
  000a9	6a 04		 push	 4
  000ab	6a 01		 push	 1
  000ad	8b ce		 mov	 ecx, esi
  000af	e8 00 00 00 00	 call	 ?BindParamStr@CSqlBase@@QAEFFFPADJ@Z ; CSqlBase::BindParamStr
$L94611:
  000b4	66 3b c3	 cmp	 ax, bx
  000b7	74 0a		 je	 SHORT $L106997
  000b9	66 3d 01 00	 cmp	 ax, 1
  000bd	0f 85 6a 01 00
	00		 jne	 $L107001
$L106997:

; 31   : 	PARAM_ENTRY( SQL_PARAM_INPUT, m_bIPCheck)

  000c3	3b fb		 cmp	 edi, ebx
  000c5	89 9e 20 08 00
	00		 mov	 DWORD PTR [esi+2080], ebx
  000cb	75 12		 jne	 SHORT $L94613
  000cd	8d 8e fc 0c 00
	00		 lea	 ecx, DWORD PTR [esi+3324]
  000d3	51		 push	 ecx
  000d4	6a 05		 push	 5
  000d6	6a 01		 push	 1
  000d8	8b ce		 mov	 ecx, esi
  000da	e8 00 00 00 00	 call	 ?BindParam@CSqlBase@@QAEFFFPAE@Z ; CSqlBase::BindParam
$L94613:
  000df	66 3b c3	 cmp	 ax, bx
  000e2	74 0a		 je	 SHORT $L94614
  000e4	66 3d 01 00	 cmp	 ax, 1
  000e8	0f 85 3f 01 00
	00		 jne	 $L107001
$L94614:

; 32   : 	PARAM_ENTRY( SQL_PARAM_OUTPUT, m_dwKEY)

  000ee	3b fb		 cmp	 edi, ebx
  000f0	89 9e 24 08 00
	00		 mov	 DWORD PTR [esi+2084], ebx
  000f6	75 12		 jne	 SHORT $L94615
  000f8	8d 96 08 0d 00
	00		 lea	 edx, DWORD PTR [esi+3336]
  000fe	52		 push	 edx
  000ff	6a 06		 push	 6
  00101	6a 04		 push	 4
  00103	8b ce		 mov	 ecx, esi
  00105	e8 00 00 00 00	 call	 ?BindParam@CSqlBase@@QAEFFFPAK@Z ; CSqlBase::BindParam
$L94615:
  0010a	66 3b c3	 cmp	 ax, bx
  0010d	74 0a		 je	 SHORT $L94616
  0010f	66 3d 01 00	 cmp	 ax, 1
  00113	0f 85 14 01 00
	00		 jne	 $L107001
$L94616:

; 33   : 	PARAM_ENTRY( SQL_PARAM_OUTPUT, m_dwCharID)

  00119	3b fb		 cmp	 edi, ebx
  0011b	89 9e 28 08 00
	00		 mov	 DWORD PTR [esi+2088], ebx
  00121	75 12		 jne	 SHORT $L94617
  00123	8d 86 00 0d 00
	00		 lea	 eax, DWORD PTR [esi+3328]
  00129	50		 push	 eax
  0012a	6a 07		 push	 7
  0012c	6a 04		 push	 4
  0012e	8b ce		 mov	 ecx, esi
  00130	e8 00 00 00 00	 call	 ?BindParam@CSqlBase@@QAEFFFPAK@Z ; CSqlBase::BindParam
$L94617:
  00135	66 3b c3	 cmp	 ax, bx
  00138	74 0a		 je	 SHORT $L94618
  0013a	66 3d 01 00	 cmp	 ax, 1
  0013e	0f 85 e9 00 00
	00		 jne	 $L107001
$L94618:

; 34   : 	PARAM_ENTRY( SQL_PARAM_OUTPUT, m_dwID)

  00144	3b fb		 cmp	 edi, ebx
  00146	89 9e 2c 08 00
	00		 mov	 DWORD PTR [esi+2092], ebx
  0014c	75 12		 jne	 SHORT $L94619
  0014e	8d 8e 04 0d 00
	00		 lea	 ecx, DWORD PTR [esi+3332]
  00154	51		 push	 ecx
  00155	6a 08		 push	 8
  00157	6a 04		 push	 4
  00159	8b ce		 mov	 ecx, esi
  0015b	e8 00 00 00 00	 call	 ?BindParam@CSqlBase@@QAEFFFPAK@Z ; CSqlBase::BindParam
$L94619:
  00160	66 3b c3	 cmp	 ax, bx
  00163	74 0a		 je	 SHORT $L94620
  00165	66 3d 01 00	 cmp	 ax, 1
  00169	0f 85 be 00 00
	00		 jne	 $L107001
$L94620:

; 35   : 	PARAM_ENTRY_STR( SQL_PARAM_OUTPUT, m_szIPAddr)

  0016f	3b fb		 cmp	 edi, ebx
  00171	89 ae 30 08 00
	00		 mov	 DWORD PTR [esi+2096], ebp
  00177	75 14		 jne	 SHORT $L106995
  00179	6a 33		 push	 51			; 00000033H
  0017b	8d 96 96 0c 00
	00		 lea	 edx, DWORD PTR [esi+3222]
  00181	52		 push	 edx
  00182	6a 09		 push	 9
  00184	6a 04		 push	 4
  00186	8b ce		 mov	 ecx, esi
  00188	e8 00 00 00 00	 call	 ?BindParamStr@CSqlBase@@QAEFFFPADJ@Z ; CSqlBase::BindParamStr
$L106995:
  0018d	66 3b c3	 cmp	 ax, bx
  00190	74 0a		 je	 SHORT $L94622
  00192	66 3d 01 00	 cmp	 ax, 1
  00196	0f 85 91 00 00
	00		 jne	 $L107001
$L94622:

; 36   : 	PARAM_ENTRY( SQL_PARAM_OUTPUT, m_wPort)

  0019c	3b fb		 cmp	 edi, ebx
  0019e	89 9e 34 08 00
	00		 mov	 DWORD PTR [esi+2100], ebx
  001a4	75 12		 jne	 SHORT $L106998
  001a6	8d 86 0c 0d 00
	00		 lea	 eax, DWORD PTR [esi+3340]
  001ac	50		 push	 eax
  001ad	6a 0a		 push	 10			; 0000000aH
  001af	6a 04		 push	 4
  001b1	8b ce		 mov	 ecx, esi
  001b3	e8 00 00 00 00	 call	 ?BindParam@CSqlBase@@QAEFFFPAG@Z ; CSqlBase::BindParam
$L106998:
  001b8	66 3b c3	 cmp	 ax, bx
  001bb	74 06		 je	 SHORT $L94624
  001bd	66 3d 01 00	 cmp	 ax, 1
  001c1	75 6a		 jne	 SHORT $L107001
$L94624:

; 37   : 	PARAM_ENTRY( SQL_PARAM_OUTPUT, m_bCreateCnt)

  001c3	3b fb		 cmp	 edi, ebx
  001c5	89 9e 38 08 00
	00		 mov	 DWORD PTR [esi+2104], ebx
  001cb	75 12		 jne	 SHORT $L106999
  001cd	8d 8e 0e 0d 00
	00		 lea	 ecx, DWORD PTR [esi+3342]
  001d3	51		 push	 ecx
  001d4	6a 0b		 push	 11			; 0000000bH
  001d6	6a 04		 push	 4
  001d8	8b ce		 mov	 ecx, esi
  001da	e8 00 00 00 00	 call	 ?BindParam@CSqlBase@@QAEFFFPAE@Z ; CSqlBase::BindParam
$L106999:
  001df	66 3b c3	 cmp	 ax, bx
  001e2	74 06		 je	 SHORT $L94626
  001e4	66 3d 01 00	 cmp	 ax, 1
  001e8	75 43		 jne	 SHORT $L107001
$L94626:

; 38   : 	PARAM_ENTRY( SQL_PARAM_OUTPUT, m_bInPcBang)

  001ea	3b fb		 cmp	 edi, ebx
  001ec	89 9e 3c 08 00
	00		 mov	 DWORD PTR [esi+2108], ebx
  001f2	75 12		 jne	 SHORT $L107000
  001f4	8d 96 0f 0d 00
	00		 lea	 edx, DWORD PTR [esi+3343]
  001fa	52		 push	 edx
  001fb	6a 0c		 push	 12			; 0000000cH
  001fd	6a 04		 push	 4
  001ff	8b ce		 mov	 ecx, esi
  00201	e8 00 00 00 00	 call	 ?BindParam@CSqlBase@@QAEFFFPAE@Z ; CSqlBase::BindParam
$L107000:
  00206	66 3b c3	 cmp	 ax, bx
  00209	74 06		 je	 SHORT $L94628
  0020b	66 3d 01 00	 cmp	 ax, 1
  0020f	75 1c		 jne	 SHORT $L107001
$L94628:

; 39   : 	PARAM_ENTRY( SQL_PARAM_OUTPUT, m_dwPremium)

  00211	3b fb		 cmp	 edi, ebx
  00213	89 9e 40 08 00
	00		 mov	 DWORD PTR [esi+2112], ebx
  00219	75 12		 jne	 SHORT $L107001
  0021b	8d 86 10 0d 00
	00		 lea	 eax, DWORD PTR [esi+3344]
  00221	50		 push	 eax
  00222	6a 0d		 push	 13			; 0000000dH
  00224	6a 04		 push	 4
  00226	8b ce		 mov	 ecx, esi
  00228	e8 00 00 00 00	 call	 ?BindParam@CSqlBase@@QAEFFFPAK@Z ; CSqlBase::BindParam
$L107001:
  0022d	5d		 pop	 ebp
$L94601:
  0022e	5f		 pop	 edi
  0022f	5e		 pop	 esi
  00230	5b		 pop	 ebx

; 40   : END_PARAM()

  00231	c2 04 00	 ret	 4
?BindParameters@CSPLogin@@UAEFH@Z ENDP			; CSPLogin::BindParameters
_TEXT	ENDS
PUBLIC	??1CSPLogin@@UAE@XZ				; CSPLogin::~CSPLogin
; Function compile flags: /Ogty
;	COMDAT ??_GCSPLogin@@UAEPAXI@Z
_TEXT	SEGMENT
___flags$ = 8						; size = 4
??_GCSPLogin@@UAEPAXI@Z PROC NEAR			; CSPLogin::`scalar deleting destructor', COMDAT
; _this$ = ecx
  00000	56		 push	 esi
  00001	8b f1		 mov	 esi, ecx
  00003	e8 00 00 00 00	 call	 ??1CSPLogin@@UAE@XZ
  00008	f6 44 24 08 01	 test	 BYTE PTR ___flags$[esp], 1
  0000d	74 09		 je	 SHORT $L107005
  0000f	56		 push	 esi
  00010	e8 00 00 00 00	 call	 ??3@YAXPAX@Z		; operator delete
  00015	83 c4 04	 add	 esp, 4
$L107005:
  00018	8b c6		 mov	 eax, esi
  0001a	5e		 pop	 esi
  0001b	c2 04 00	 ret	 4
??_GCSPLogin@@UAEPAXI@Z ENDP				; CSPLogin::`scalar deleting destructor'
_TEXT	ENDS
EXTRN	??1CSqlQuery@@UAE@XZ:NEAR			; CSqlQuery::~CSqlQuery
; Function compile flags: /Ogty
;	COMDAT ??1CSPLogin@@UAE@XZ
_TEXT	SEGMENT
??1CSPLogin@@UAE@XZ PROC NEAR				; CSPLogin::~CSPLogin, COMDAT
; _this$ = ecx
  00000	e9 00 00 00 00	 jmp	 ??1CSqlQuery@@UAE@XZ	; CSqlQuery::~CSqlQuery
??1CSPLogin@@UAE@XZ ENDP				; CSPLogin::~CSPLogin
_TEXT	ENDS
PUBLIC	??0CSPLoginJP@@QAE@PAVCSqlDatabase@@V?$basic_string@DU?$char_traits@D@std@@V?$allocator@D@2@@std@@@Z ; CSPLoginJP::CSPLoginJP
PUBLIC	?GetNumParam@CSPLoginJP@@UAEHXZ			; CSPLoginJP::GetNumParam
PUBLIC	?BindParameters@CSPLoginJP@@UAEFH@Z		; CSPLoginJP::BindParameters
PUBLIC	??_7CSPLoginJP@@6B@				; CSPLoginJP::`vftable'
PUBLIC	??_GCSPLoginJP@@UAEPAXI@Z			; CSPLoginJP::`scalar deleting destructor'
PUBLIC	??_C@_0CO@KCOCOIDI@?$HL?5?$DP?5?$DN?5CALL?5TLogin?$CI?$DP?0?$DP?0?$DP?0?$DP?0?$DP?0?$DP?0?$DP?0@ ; `string'
EXTRN	??_ECSPLoginJP@@UAEPAXI@Z:NEAR			; CSPLoginJP::`vector deleting destructor'
;	COMDAT xdata$x
; File c:\program files (x86)\microsoft visual studio .net 2003\vc7\include\iosfwd
xdata$x	SEGMENT
$T107188 DD	0ffffffffH
	DD	FLAT:$L107014
$T107185 DD	019930520H
	DD	01H
	DD	FLAT:$T107188
	DD	2 DUP(00H)
	DD	2 DUP(00H)
xdata$x	ENDS
;	COMDAT ??_C@_0CO@KCOCOIDI@?$HL?5?$DP?5?$DN?5CALL?5TLogin?$CI?$DP?0?$DP?0?$DP?0?$DP?0?$DP?0?$DP?0?$DP?0@
CONST	SEGMENT
??_C@_0CO@KCOCOIDI@?$HL?5?$DP?5?$DN?5CALL?5TLogin?$CI?$DP?0?$DP?0?$DP?0?$DP?0?$DP?0?$DP?0?$DP?0@ DB '{'
	DB	' ? = CALL TLogin(?,?,?,?,?,?,?,?,?,?,?,?,?)}', 00H ; `string'
CONST	ENDS
;	COMDAT ??_7CSPLoginJP@@6B@
CONST	SEGMENT
??_7CSPLoginJP@@6B@ DD FLAT:??_ECSPLoginJP@@UAEPAXI@Z	; CSPLoginJP::`vftable'
	DD	FLAT:?GetNumCol@CSqlBase@@UAEHXZ
	DD	FLAT:?GetNumParam@CSPLoginJP@@UAEHXZ
	DD	FLAT:?AllocStatement@CSqlQuery@@UAEHXZ
	DD	FLAT:?BindColumns@CSqlQuery@@UAEFXZ
	DD	FLAT:?BindParameters@CSPLoginJP@@UAEFH@Z
; Function compile flags: /Ogty
; File c:\users\pierr\desktop\4story - oldschool\sources\tserver\tloginsvr\dbaccess.h
CONST	ENDS
;	COMDAT ??0CSPLoginJP@@QAE@PAVCSqlDatabase@@V?$basic_string@DU?$char_traits@D@std@@V?$allocator@D@2@@std@@@Z
_TEXT	SEGMENT
$T107013 = -16						; size = 4
__$EHRec$ = -12						; size = 12
_pdb$ = 8						; size = 4
_strKey$ = 12						; size = 28
??0CSPLoginJP@@QAE@PAVCSqlDatabase@@V?$basic_string@DU?$char_traits@D@std@@V?$allocator@D@2@@std@@@Z PROC NEAR ; CSPLoginJP::CSPLoginJP, COMDAT
; _this$ = ecx

; 65   : DEF_QUERY( CSPLoginJP, _T("{ ? = CALL TLogin(?,?,?,?,?,?,?,?,?,?,?,?,?)}"))

  00000	6a ff		 push	 -1
  00002	68 00 00 00 00	 push	 __ehhandler$??0CSPLoginJP@@QAE@PAVCSqlDatabase@@V?$basic_string@DU?$char_traits@D@std@@V?$allocator@D@2@@std@@@Z
  00007	64 a1 00 00 00
	00		 mov	 eax, DWORD PTR fs:__except_list
  0000d	50		 push	 eax
  0000e	64 89 25 00 00
	00 00		 mov	 DWORD PTR fs:__except_list, esp
  00015	51		 push	 ecx
  00016	56		 push	 esi
  00017	8b f1		 mov	 esi, ecx
  00019	68 00 00 00 00	 push	 OFFSET FLAT:??_C@_0CO@KCOCOIDI@?$HL?5?$DP?5?$DN?5CALL?5TLogin?$CI?$DP?0?$DP?0?$DP?0?$DP?0?$DP?0?$DP?0?$DP?0@
  0001e	83 ec 1c	 sub	 esp, 28			; 0000001cH
  00021	8b cc		 mov	 ecx, esp
  00023	33 c0		 xor	 eax, eax
  00025	89 64 24 24	 mov	 DWORD PTR $T107013[esp+52], esp
  00029	6a ff		 push	 -1
  0002b	89 41 14	 mov	 DWORD PTR [ecx+20], eax
  0002e	c7 41 18 0f 00
	00 00		 mov	 DWORD PTR [ecx+24], 15	; 0000000fH
  00035	50		 push	 eax
  00036	89 44 24 38	 mov	 DWORD PTR __$EHRec$[esp+68], eax
  0003a	88 41 04	 mov	 BYTE PTR [ecx+4], al
  0003d	8d 44 24 44	 lea	 eax, DWORD PTR _strKey$[esp+56]
  00041	50		 push	 eax
  00042	e8 00 00 00 00	 call	 ?assign@?$basic_string@DU?$char_traits@D@std@@V?$allocator@D@2@@std@@QAEAAV12@ABV12@II@Z ; std::basic_string<char,std::char_traits<char>,std::allocator<char> >::assign
  00047	8b 4c 24 38	 mov	 ecx, DWORD PTR _pdb$[esp+48]
  0004b	51		 push	 ecx
  0004c	8b ce		 mov	 ecx, esi
  0004e	e8 00 00 00 00	 call	 ??0CSqlQuery@@QAE@PAVCSqlDatabase@@V?$basic_string@DU?$char_traits@D@std@@V?$allocator@D@2@@std@@PBD@Z ; CSqlQuery::CSqlQuery
  00053	83 7c 24 34 10	 cmp	 DWORD PTR _strKey$[esp+40], 16 ; 00000010H
  00058	c7 06 00 00 00
	00		 mov	 DWORD PTR [esi], OFFSET FLAT:??_7CSPLoginJP@@6B@
  0005e	72 0d		 jb	 SHORT $L107186
  00060	8b 54 24 20	 mov	 edx, DWORD PTR _strKey$[esp+20]
  00064	52		 push	 edx
  00065	e8 00 00 00 00	 call	 ??3@YAXPAX@Z		; operator delete
  0006a	83 c4 04	 add	 esp, 4
$L107186:
  0006d	8b 4c 24 08	 mov	 ecx, DWORD PTR __$EHRec$[esp+20]
  00071	8b c6		 mov	 eax, esi
  00073	64 89 0d 00 00
	00 00		 mov	 DWORD PTR fs:__except_list, ecx
  0007a	5e		 pop	 esi
  0007b	83 c4 10	 add	 esp, 16			; 00000010H
  0007e	c2 20 00	 ret	 32			; 00000020H
_TEXT	ENDS
;	COMDAT text$x
text$x	SEGMENT
$L107014:
  00000	8d 4d 08	 lea	 ecx, DWORD PTR _strKey$[ebp-4]
  00003	e9 00 00 00 00	 jmp	 ??1?$basic_string@DU?$char_traits@D@std@@V?$allocator@D@2@@std@@QAE@XZ ; std::basic_string<char,std::char_traits<char>,std::allocator<char> >::~basic_string<char,std::char_traits<char>,std::allocator<char> >
__ehhandler$??0CSPLoginJP@@QAE@PAVCSqlDatabase@@V?$basic_string@DU?$char_traits@D@std@@V?$allocator@D@2@@std@@@Z:
  00008	b8 00 00 00 00	 mov	 eax, OFFSET FLAT:$T107185
  0000d	e9 00 00 00 00	 jmp	 ___CxxFrameHandler
text$x	ENDS
??0CSPLoginJP@@QAE@PAVCSqlDatabase@@V?$basic_string@DU?$char_traits@D@std@@V?$allocator@D@2@@std@@@Z ENDP ; CSPLoginJP::CSPLoginJP
; Function compile flags: /Ogty
;	COMDAT ?GetNumParam@CSPLoginJP@@UAEHXZ
_TEXT	SEGMENT
?GetNumParam@CSPLoginJP@@UAEHXZ PROC NEAR		; CSPLoginJP::GetNumParam, COMDAT
; _this$ = ecx

; 67   : BEGIN_PARAM(14)

  00000	b8 0e 00 00 00	 mov	 eax, 14			; 0000000eH
  00005	c3		 ret	 0
?GetNumParam@CSPLoginJP@@UAEHXZ ENDP			; CSPLoginJP::GetNumParam
; Function compile flags: /Ogty
_TEXT	ENDS
;	COMDAT ?BindParameters@CSPLoginJP@@UAEFH@Z
_TEXT	SEGMENT
_bRewind$ = 8						; size = 4
?BindParameters@CSPLoginJP@@UAEFH@Z PROC NEAR		; CSPLoginJP::BindParameters, COMDAT
; _this$ = ecx

; 67   : BEGIN_PARAM(14)

  00000	53		 push	 ebx
  00001	56		 push	 esi
  00002	57		 push	 edi

; 68   : 	PARAM_ENTRY( SQL_PARAM_OUTPUT, m_nRET)

  00003	8b 7c 24 10	 mov	 edi, DWORD PTR _bRewind$[esp+8]
  00007	33 db		 xor	 ebx, ebx
  00009	8b f1		 mov	 esi, ecx
  0000b	33 c0		 xor	 eax, eax
  0000d	3b fb		 cmp	 edi, ebx
  0000f	89 9e 10 08 00
	00		 mov	 DWORD PTR [esi+2064], ebx
  00015	75 1f		 jne	 SHORT $L94686
  00017	8d 86 2c 0c 00
	00		 lea	 eax, DWORD PTR [esi+3116]
  0001d	50		 push	 eax
  0001e	6a 01		 push	 1
  00020	6a 04		 push	 4
  00022	e8 00 00 00 00	 call	 ?BindParam@CSqlBase@@QAEFFFPAH@Z ; CSqlBase::BindParam
  00027	66 3b c3	 cmp	 ax, bx
  0002a	74 0a		 je	 SHORT $L94686
  0002c	66 3d 01 00	 cmp	 ax, 1
  00030	0f 85 23 02 00
	00		 jne	 $L94681
$L94686:

; 69   : 	PARAM_ENTRY_STR( SQL_PARAM_INPUT, m_szUserID)

  00036	3b fb		 cmp	 edi, ebx
  00038	55		 push	 ebp
  00039	bd fd ff ff ff	 mov	 ebp, -3			; fffffffdH
  0003e	89 ae 14 08 00
	00		 mov	 DWORD PTR [esi+2068], ebp
  00044	75 14		 jne	 SHORT $L94687
  00046	6a 33		 push	 51			; 00000033H
  00048	8d 8e 30 0c 00
	00		 lea	 ecx, DWORD PTR [esi+3120]
  0004e	51		 push	 ecx
  0004f	6a 02		 push	 2
  00051	6a 01		 push	 1
  00053	8b ce		 mov	 ecx, esi
  00055	e8 00 00 00 00	 call	 ?BindParamStr@CSqlBase@@QAEFFFPADJ@Z ; CSqlBase::BindParamStr
$L94687:
  0005a	66 3b c3	 cmp	 ax, bx
  0005d	74 0a		 je	 SHORT $L107197
  0005f	66 3d 01 00	 cmp	 ax, 1
  00063	0f 85 ef 01 00
	00		 jne	 $L107205
$L107197:

; 70   : 	PARAM_ENTRY_STR( SQL_PARAM_INPUT, m_szPasswd)

  00069	3b fb		 cmp	 edi, ebx
  0006b	89 ae 18 08 00
	00		 mov	 DWORD PTR [esi+2072], ebp
  00071	75 14		 jne	 SHORT $L94689
  00073	6a 33		 push	 51			; 00000033H
  00075	8d 96 63 0c 00
	00		 lea	 edx, DWORD PTR [esi+3171]
  0007b	52		 push	 edx
  0007c	6a 03		 push	 3
  0007e	6a 01		 push	 1
  00080	8b ce		 mov	 ecx, esi
  00082	e8 00 00 00 00	 call	 ?BindParamStr@CSqlBase@@QAEFFFPADJ@Z ; CSqlBase::BindParamStr
$L94689:
  00087	66 3b c3	 cmp	 ax, bx
  0008a	74 0a		 je	 SHORT $L107199
  0008c	66 3d 01 00	 cmp	 ax, 1
  00090	0f 85 c2 01 00
	00		 jne	 $L107205
$L107199:

; 71   : 	PARAM_ENTRY_STR( SQL_PARAM_INPUT, m_szLoginIP)

  00096	3b fb		 cmp	 edi, ebx
  00098	89 ae 1c 08 00
	00		 mov	 DWORD PTR [esi+2076], ebp
  0009e	75 14		 jne	 SHORT $L94691
  000a0	6a 33		 push	 51			; 00000033H
  000a2	8d 86 c9 0c 00
	00		 lea	 eax, DWORD PTR [esi+3273]
  000a8	50		 push	 eax
  000a9	6a 04		 push	 4
  000ab	6a 01		 push	 1
  000ad	8b ce		 mov	 ecx, esi
  000af	e8 00 00 00 00	 call	 ?BindParamStr@CSqlBase@@QAEFFFPADJ@Z ; CSqlBase::BindParamStr
$L94691:
  000b4	66 3b c3	 cmp	 ax, bx
  000b7	74 0a		 je	 SHORT $L107200
  000b9	66 3d 01 00	 cmp	 ax, 1
  000bd	0f 85 95 01 00
	00		 jne	 $L107205
$L107200:

; 72   : 	PARAM_ENTRY( SQL_PARAM_INPUT, m_bIPCheck)

  000c3	3b fb		 cmp	 edi, ebx
  000c5	89 9e 20 08 00
	00		 mov	 DWORD PTR [esi+2080], ebx
  000cb	75 12		 jne	 SHORT $L94693
  000cd	8d 8e fc 0c 00
	00		 lea	 ecx, DWORD PTR [esi+3324]
  000d3	51		 push	 ecx
  000d4	6a 05		 push	 5
  000d6	6a 01		 push	 1
  000d8	8b ce		 mov	 ecx, esi
  000da	e8 00 00 00 00	 call	 ?BindParam@CSqlBase@@QAEFFFPAE@Z ; CSqlBase::BindParam
$L94693:
  000df	66 3b c3	 cmp	 ax, bx
  000e2	74 0a		 je	 SHORT $L107201
  000e4	66 3d 01 00	 cmp	 ax, 1
  000e8	0f 85 6a 01 00
	00		 jne	 $L107205
$L107201:

; 73   : 	PARAM_ENTRY( SQL_PARAM_INPUT, m_bChanneling)

  000ee	3b fb		 cmp	 edi, ebx
  000f0	89 9e 24 08 00
	00		 mov	 DWORD PTR [esi+2084], ebx
  000f6	75 12		 jne	 SHORT $L94695
  000f8	8d 96 14 0d 00
	00		 lea	 edx, DWORD PTR [esi+3348]
  000fe	52		 push	 edx
  000ff	6a 06		 push	 6
  00101	6a 01		 push	 1
  00103	8b ce		 mov	 ecx, esi
  00105	e8 00 00 00 00	 call	 ?BindParam@CSqlBase@@QAEFFFPAE@Z ; CSqlBase::BindParam
$L94695:
  0010a	66 3b c3	 cmp	 ax, bx
  0010d	74 0a		 je	 SHORT $L94696
  0010f	66 3d 01 00	 cmp	 ax, 1
  00113	0f 85 3f 01 00
	00		 jne	 $L107205
$L94696:

; 74   : 	PARAM_ENTRY( SQL_PARAM_OUTPUT, m_dwKEY)

  00119	3b fb		 cmp	 edi, ebx
  0011b	89 9e 28 08 00
	00		 mov	 DWORD PTR [esi+2088], ebx
  00121	75 12		 jne	 SHORT $L94697
  00123	8d 86 08 0d 00
	00		 lea	 eax, DWORD PTR [esi+3336]
  00129	50		 push	 eax
  0012a	6a 07		 push	 7
  0012c	6a 04		 push	 4
  0012e	8b ce		 mov	 ecx, esi
  00130	e8 00 00 00 00	 call	 ?BindParam@CSqlBase@@QAEFFFPAK@Z ; CSqlBase::BindParam
$L94697:
  00135	66 3b c3	 cmp	 ax, bx
  00138	74 0a		 je	 SHORT $L94698
  0013a	66 3d 01 00	 cmp	 ax, 1
  0013e	0f 85 14 01 00
	00		 jne	 $L107205
$L94698:

; 75   : 	PARAM_ENTRY( SQL_PARAM_OUTPUT, m_dwCharID)

  00144	3b fb		 cmp	 edi, ebx
  00146	89 9e 2c 08 00
	00		 mov	 DWORD PTR [esi+2092], ebx
  0014c	75 12		 jne	 SHORT $L94699
  0014e	8d 8e 00 0d 00
	00		 lea	 ecx, DWORD PTR [esi+3328]
  00154	51		 push	 ecx
  00155	6a 08		 push	 8
  00157	6a 04		 push	 4
  00159	8b ce		 mov	 ecx, esi
  0015b	e8 00 00 00 00	 call	 ?BindParam@CSqlBase@@QAEFFFPAK@Z ; CSqlBase::BindParam
$L94699:
  00160	66 3b c3	 cmp	 ax, bx
  00163	74 0a		 je	 SHORT $L94700
  00165	66 3d 01 00	 cmp	 ax, 1
  00169	0f 85 e9 00 00
	00		 jne	 $L107205
$L94700:

; 76   : 	PARAM_ENTRY( SQL_PARAM_OUTPUT, m_dwID)

  0016f	3b fb		 cmp	 edi, ebx
  00171	89 9e 30 08 00
	00		 mov	 DWORD PTR [esi+2096], ebx
  00177	75 12		 jne	 SHORT $L94701
  00179	8d 96 04 0d 00
	00		 lea	 edx, DWORD PTR [esi+3332]
  0017f	52		 push	 edx
  00180	6a 09		 push	 9
  00182	6a 04		 push	 4
  00184	8b ce		 mov	 ecx, esi
  00186	e8 00 00 00 00	 call	 ?BindParam@CSqlBase@@QAEFFFPAK@Z ; CSqlBase::BindParam
$L94701:
  0018b	66 3b c3	 cmp	 ax, bx
  0018e	74 0a		 je	 SHORT $L94702
  00190	66 3d 01 00	 cmp	 ax, 1
  00194	0f 85 be 00 00
	00		 jne	 $L107205
$L94702:

; 77   : 	PARAM_ENTRY_STR( SQL_PARAM_OUTPUT, m_szIPAddr)

  0019a	3b fb		 cmp	 edi, ebx
  0019c	89 ae 34 08 00
	00		 mov	 DWORD PTR [esi+2100], ebp
  001a2	75 14		 jne	 SHORT $L107198
  001a4	6a 33		 push	 51			; 00000033H
  001a6	8d 86 96 0c 00
	00		 lea	 eax, DWORD PTR [esi+3222]
  001ac	50		 push	 eax
  001ad	6a 0a		 push	 10			; 0000000aH
  001af	6a 04		 push	 4
  001b1	8b ce		 mov	 ecx, esi
  001b3	e8 00 00 00 00	 call	 ?BindParamStr@CSqlBase@@QAEFFFPADJ@Z ; CSqlBase::BindParamStr
$L107198:
  001b8	66 3b c3	 cmp	 ax, bx
  001bb	74 0a		 je	 SHORT $L94704
  001bd	66 3d 01 00	 cmp	 ax, 1
  001c1	0f 85 91 00 00
	00		 jne	 $L107205
$L94704:

; 78   : 	PARAM_ENTRY( SQL_PARAM_OUTPUT, m_wPort)

  001c7	3b fb		 cmp	 edi, ebx
  001c9	89 9e 38 08 00
	00		 mov	 DWORD PTR [esi+2104], ebx
  001cf	75 12		 jne	 SHORT $L107202
  001d1	8d 8e 0c 0d 00
	00		 lea	 ecx, DWORD PTR [esi+3340]
  001d7	51		 push	 ecx
  001d8	6a 0b		 push	 11			; 0000000bH
  001da	6a 04		 push	 4
  001dc	8b ce		 mov	 ecx, esi
  001de	e8 00 00 00 00	 call	 ?BindParam@CSqlBase@@QAEFFFPAG@Z ; CSqlBase::BindParam
$L107202:
  001e3	66 3b c3	 cmp	 ax, bx
  001e6	74 06		 je	 SHORT $L94706
  001e8	66 3d 01 00	 cmp	 ax, 1
  001ec	75 6a		 jne	 SHORT $L107205
$L94706:

; 79   : 	PARAM_ENTRY( SQL_PARAM_OUTPUT, m_bCreateCnt)

  001ee	3b fb		 cmp	 edi, ebx
  001f0	89 9e 3c 08 00
	00		 mov	 DWORD PTR [esi+2108], ebx
  001f6	75 12		 jne	 SHORT $L107203
  001f8	8d 96 0e 0d 00
	00		 lea	 edx, DWORD PTR [esi+3342]
  001fe	52		 push	 edx
  001ff	6a 0c		 push	 12			; 0000000cH
  00201	6a 04		 push	 4
  00203	8b ce		 mov	 ecx, esi
  00205	e8 00 00 00 00	 call	 ?BindParam@CSqlBase@@QAEFFFPAE@Z ; CSqlBase::BindParam
$L107203:
  0020a	66 3b c3	 cmp	 ax, bx
  0020d	74 06		 je	 SHORT $L94708
  0020f	66 3d 01 00	 cmp	 ax, 1
  00213	75 43		 jne	 SHORT $L107205
$L94708:

; 80   : 	PARAM_ENTRY( SQL_PARAM_OUTPUT, m_bInPcBang)

  00215	3b fb		 cmp	 edi, ebx
  00217	89 9e 40 08 00
	00		 mov	 DWORD PTR [esi+2112], ebx
  0021d	75 12		 jne	 SHORT $L107204
  0021f	8d 86 0f 0d 00
	00		 lea	 eax, DWORD PTR [esi+3343]
  00225	50		 push	 eax
  00226	6a 0d		 push	 13			; 0000000dH
  00228	6a 04		 push	 4
  0022a	8b ce		 mov	 ecx, esi
  0022c	e8 00 00 00 00	 call	 ?BindParam@CSqlBase@@QAEFFFPAE@Z ; CSqlBase::BindParam
$L107204:
  00231	66 3b c3	 cmp	 ax, bx
  00234	74 06		 je	 SHORT $L94710
  00236	66 3d 01 00	 cmp	 ax, 1
  0023a	75 1c		 jne	 SHORT $L107205
$L94710:

; 81   : 	PARAM_ENTRY( SQL_PARAM_OUTPUT, m_dwPremium)

  0023c	3b fb		 cmp	 edi, ebx
  0023e	89 9e 44 08 00
	00		 mov	 DWORD PTR [esi+2116], ebx
  00244	75 12		 jne	 SHORT $L107205
  00246	8d 8e 10 0d 00
	00		 lea	 ecx, DWORD PTR [esi+3344]
  0024c	51		 push	 ecx
  0024d	6a 0e		 push	 14			; 0000000eH
  0024f	6a 04		 push	 4
  00251	8b ce		 mov	 ecx, esi
  00253	e8 00 00 00 00	 call	 ?BindParam@CSqlBase@@QAEFFFPAK@Z ; CSqlBase::BindParam
$L107205:
  00258	5d		 pop	 ebp
$L94681:
  00259	5f		 pop	 edi
  0025a	5e		 pop	 esi
  0025b	5b		 pop	 ebx

; 82   : END_PARAM()

  0025c	c2 04 00	 ret	 4
?BindParameters@CSPLoginJP@@UAEFH@Z ENDP		; CSPLoginJP::BindParameters
_TEXT	ENDS
PUBLIC	??1CSPLoginJP@@UAE@XZ				; CSPLoginJP::~CSPLoginJP
; Function compile flags: /Ogty
;	COMDAT ??_GCSPLoginJP@@UAEPAXI@Z
_TEXT	SEGMENT
___flags$ = 8						; size = 4
??_GCSPLoginJP@@UAEPAXI@Z PROC NEAR			; CSPLoginJP::`scalar deleting destructor', COMDAT
; _this$ = ecx
  00000	56		 push	 esi
  00001	8b f1		 mov	 esi, ecx
  00003	e8 00 00 00 00	 call	 ??1CSPLoginJP@@UAE@XZ
  00008	f6 44 24 08 01	 test	 BYTE PTR ___flags$[esp], 1
  0000d	74 09		 je	 SHORT $L107209
  0000f	56		 push	 esi
  00010	e8 00 00 00 00	 call	 ??3@YAXPAX@Z		; operator delete
  00015	83 c4 04	 add	 esp, 4
$L107209:
  00018	8b c6		 mov	 eax, esi
  0001a	5e		 pop	 esi
  0001b	c2 04 00	 ret	 4
??_GCSPLoginJP@@UAEPAXI@Z ENDP				; CSPLoginJP::`scalar deleting destructor'
; Function compile flags: /Ogty
_TEXT	ENDS
;	COMDAT ??1CSPLoginJP@@UAE@XZ
_TEXT	SEGMENT
??1CSPLoginJP@@UAE@XZ PROC NEAR				; CSPLoginJP::~CSPLoginJP, COMDAT
; _this$ = ecx
  00000	e9 00 00 00 00	 jmp	 ??1CSqlQuery@@UAE@XZ	; CSqlQuery::~CSqlQuery
??1CSPLoginJP@@UAE@XZ ENDP				; CSPLoginJP::~CSPLoginJP
_TEXT	ENDS
PUBLIC	??0CSPCheckIP@@QAE@PAVCSqlDatabase@@V?$basic_string@DU?$char_traits@D@std@@V?$allocator@D@2@@std@@@Z ; CSPCheckIP::CSPCheckIP
PUBLIC	?GetNumParam@CSPCheckIP@@UAEHXZ			; CSPCheckIP::GetNumParam
PUBLIC	?BindParameters@CSPCheckIP@@UAEFH@Z		; CSPCheckIP::BindParameters
PUBLIC	??_7CSPCheckIP@@6B@				; CSPCheckIP::`vftable'
PUBLIC	??_GCSPCheckIP@@UAEPAXI@Z			; CSPCheckIP::`scalar deleting destructor'
PUBLIC	??_C@_0BI@KADAHKPB@?$HL?5?$DP?5?$DN?5CALL?5TCheckIP?$CI?$DP?$CJ?$HN?$AA@ ; `string'
EXTRN	??_ECSPCheckIP@@UAEPAXI@Z:NEAR			; CSPCheckIP::`vector deleting destructor'
;	COMDAT xdata$x
; File c:\program files (x86)\microsoft visual studio .net 2003\vc7\include\iosfwd
xdata$x	SEGMENT
$T107392 DD	0ffffffffH
	DD	FLAT:$L107218
$T107389 DD	019930520H
	DD	01H
	DD	FLAT:$T107392
	DD	2 DUP(00H)
	DD	2 DUP(00H)
xdata$x	ENDS
;	COMDAT ??_C@_0BI@KADAHKPB@?$HL?5?$DP?5?$DN?5CALL?5TCheckIP?$CI?$DP?$CJ?$HN?$AA@
CONST	SEGMENT
??_C@_0BI@KADAHKPB@?$HL?5?$DP?5?$DN?5CALL?5TCheckIP?$CI?$DP?$CJ?$HN?$AA@ DB '{'
	DB	' ? = CALL TCheckIP(?)}', 00H		; `string'
CONST	ENDS
;	COMDAT ??_7CSPCheckIP@@6B@
CONST	SEGMENT
??_7CSPCheckIP@@6B@ DD FLAT:??_ECSPCheckIP@@UAEPAXI@Z	; CSPCheckIP::`vftable'
	DD	FLAT:?GetNumCol@CSqlBase@@UAEHXZ
	DD	FLAT:?GetNumParam@CSPCheckIP@@UAEHXZ
	DD	FLAT:?AllocStatement@CSqlQuery@@UAEHXZ
	DD	FLAT:?BindColumns@CSqlQuery@@UAEFXZ
	DD	FLAT:?BindParameters@CSPCheckIP@@UAEFH@Z
; Function compile flags: /Ogty
; File c:\users\pierr\desktop\4story - oldschool\sources\tserver\tloginsvr\dbaccess.h
CONST	ENDS
;	COMDAT ??0CSPCheckIP@@QAE@PAVCSqlDatabase@@V?$basic_string@DU?$char_traits@D@std@@V?$allocator@D@2@@std@@@Z
_TEXT	SEGMENT
$T107217 = -16						; size = 4
__$EHRec$ = -12						; size = 12
_pdb$ = 8						; size = 4
_strKey$ = 12						; size = 28
??0CSPCheckIP@@QAE@PAVCSqlDatabase@@V?$basic_string@DU?$char_traits@D@std@@V?$allocator@D@2@@std@@@Z PROC NEAR ; CSPCheckIP::CSPCheckIP, COMDAT
; _this$ = ecx

; 91   : DEF_QUERY(CSPCheckIP, _T("{ ? = CALL TCheckIP(?)}"))

  00000	6a ff		 push	 -1
  00002	68 00 00 00 00	 push	 __ehhandler$??0CSPCheckIP@@QAE@PAVCSqlDatabase@@V?$basic_string@DU?$char_traits@D@std@@V?$allocator@D@2@@std@@@Z
  00007	64 a1 00 00 00
	00		 mov	 eax, DWORD PTR fs:__except_list
  0000d	50		 push	 eax
  0000e	64 89 25 00 00
	00 00		 mov	 DWORD PTR fs:__except_list, esp
  00015	51		 push	 ecx
  00016	56		 push	 esi
  00017	8b f1		 mov	 esi, ecx
  00019	68 00 00 00 00	 push	 OFFSET FLAT:??_C@_0BI@KADAHKPB@?$HL?5?$DP?5?$DN?5CALL?5TCheckIP?$CI?$DP?$CJ?$HN?$AA@
  0001e	83 ec 1c	 sub	 esp, 28			; 0000001cH
  00021	8b cc		 mov	 ecx, esp
  00023	33 c0		 xor	 eax, eax
  00025	89 64 24 24	 mov	 DWORD PTR $T107217[esp+52], esp
  00029	6a ff		 push	 -1
  0002b	89 41 14	 mov	 DWORD PTR [ecx+20], eax
  0002e	c7 41 18 0f 00
	00 00		 mov	 DWORD PTR [ecx+24], 15	; 0000000fH
  00035	50		 push	 eax
  00036	89 44 24 38	 mov	 DWORD PTR __$EHRec$[esp+68], eax
  0003a	88 41 04	 mov	 BYTE PTR [ecx+4], al
  0003d	8d 44 24 44	 lea	 eax, DWORD PTR _strKey$[esp+56]
  00041	50		 push	 eax
  00042	e8 00 00 00 00	 call	 ?assign@?$basic_string@DU?$char_traits@D@std@@V?$allocator@D@2@@std@@QAEAAV12@ABV12@II@Z ; std::basic_string<char,std::char_traits<char>,std::allocator<char> >::assign
  00047	8b 4c 24 38	 mov	 ecx, DWORD PTR _pdb$[esp+48]
  0004b	51		 push	 ecx
  0004c	8b ce		 mov	 ecx, esi
  0004e	e8 00 00 00 00	 call	 ??0CSqlQuery@@QAE@PAVCSqlDatabase@@V?$basic_string@DU?$char_traits@D@std@@V?$allocator@D@2@@std@@PBD@Z ; CSqlQuery::CSqlQuery
  00053	83 7c 24 34 10	 cmp	 DWORD PTR _strKey$[esp+40], 16 ; 00000010H
  00058	c7 06 00 00 00
	00		 mov	 DWORD PTR [esi], OFFSET FLAT:??_7CSPCheckIP@@6B@
  0005e	72 0d		 jb	 SHORT $L107390
  00060	8b 54 24 20	 mov	 edx, DWORD PTR _strKey$[esp+20]
  00064	52		 push	 edx
  00065	e8 00 00 00 00	 call	 ??3@YAXPAX@Z		; operator delete
  0006a	83 c4 04	 add	 esp, 4
$L107390:
  0006d	8b 4c 24 08	 mov	 ecx, DWORD PTR __$EHRec$[esp+20]
  00071	8b c6		 mov	 eax, esi
  00073	64 89 0d 00 00
	00 00		 mov	 DWORD PTR fs:__except_list, ecx
  0007a	5e		 pop	 esi
  0007b	83 c4 10	 add	 esp, 16			; 00000010H
  0007e	c2 20 00	 ret	 32			; 00000020H
_TEXT	ENDS
;	COMDAT text$x
text$x	SEGMENT
$L107218:
  00000	8d 4d 08	 lea	 ecx, DWORD PTR _strKey$[ebp-4]
  00003	e9 00 00 00 00	 jmp	 ??1?$basic_string@DU?$char_traits@D@std@@V?$allocator@D@2@@std@@QAE@XZ ; std::basic_string<char,std::char_traits<char>,std::allocator<char> >::~basic_string<char,std::char_traits<char>,std::allocator<char> >
__ehhandler$??0CSPCheckIP@@QAE@PAVCSqlDatabase@@V?$basic_string@DU?$char_traits@D@std@@V?$allocator@D@2@@std@@@Z:
  00008	b8 00 00 00 00	 mov	 eax, OFFSET FLAT:$T107389
  0000d	e9 00 00 00 00	 jmp	 ___CxxFrameHandler
text$x	ENDS
??0CSPCheckIP@@QAE@PAVCSqlDatabase@@V?$basic_string@DU?$char_traits@D@std@@V?$allocator@D@2@@std@@@Z ENDP ; CSPCheckIP::CSPCheckIP
; Function compile flags: /Ogty
;	COMDAT ?GetNumParam@CSPCheckIP@@UAEHXZ
_TEXT	SEGMENT
?GetNumParam@CSPCheckIP@@UAEHXZ PROC NEAR		; CSPCheckIP::GetNumParam, COMDAT
; _this$ = ecx

; 93   : BEGIN_PARAM(2)

  00000	b8 02 00 00 00	 mov	 eax, 2
  00005	c3		 ret	 0
?GetNumParam@CSPCheckIP@@UAEHXZ ENDP			; CSPCheckIP::GetNumParam
; Function compile flags: /Ogty
_TEXT	ENDS
;	COMDAT ?BindParameters@CSPCheckIP@@UAEFH@Z
_TEXT	SEGMENT
_bRewind$ = 8						; size = 4
?BindParameters@CSPCheckIP@@UAEFH@Z PROC NEAR		; CSPCheckIP::BindParameters, COMDAT
; _this$ = ecx

; 93   : BEGIN_PARAM(2)

  00000	56		 push	 esi
  00001	57		 push	 edi

; 94   : 	PARAM_ENTRY( SQL_PARAM_OUTPUT, m_nRET)

  00002	8b 7c 24 0c	 mov	 edi, DWORD PTR _bRewind$[esp+4]
  00006	33 c0		 xor	 eax, eax
  00008	85 ff		 test	 edi, edi
  0000a	8b f1		 mov	 esi, ecx
  0000c	89 86 10 08 00
	00		 mov	 DWORD PTR [esi+2064], eax
  00012	75 1b		 jne	 SHORT $L94756
  00014	8d 86 2c 0c 00
	00		 lea	 eax, DWORD PTR [esi+3116]
  0001a	50		 push	 eax
  0001b	6a 01		 push	 1
  0001d	6a 04		 push	 4
  0001f	e8 00 00 00 00	 call	 ?BindParam@CSqlBase@@QAEFFFPAH@Z ; CSqlBase::BindParam
  00024	66 85 c0	 test	 ax, ax
  00027	74 06		 je	 SHORT $L94756
  00029	66 3d 01 00	 cmp	 ax, 1
  0002d	75 22		 jne	 SHORT $L94751
$L94756:

; 95   : 	PARAM_ENTRY_STR( SQL_PARAM_INPUT, m_szIPAddr)

  0002f	85 ff		 test	 edi, edi
  00031	c7 86 14 08 00
	00 fd ff ff ff	 mov	 DWORD PTR [esi+2068], -3 ; fffffffdH
  0003b	75 14		 jne	 SHORT $L94751
  0003d	6a 33		 push	 51			; 00000033H
  0003f	8d 8e 30 0c 00
	00		 lea	 ecx, DWORD PTR [esi+3120]
  00045	51		 push	 ecx
  00046	6a 02		 push	 2
  00048	6a 01		 push	 1
  0004a	8b ce		 mov	 ecx, esi
  0004c	e8 00 00 00 00	 call	 ?BindParamStr@CSqlBase@@QAEFFFPADJ@Z ; CSqlBase::BindParamStr
$L94751:
  00051	5f		 pop	 edi
  00052	5e		 pop	 esi

; 96   : END_PARAM()

  00053	c2 04 00	 ret	 4
?BindParameters@CSPCheckIP@@UAEFH@Z ENDP		; CSPCheckIP::BindParameters
_TEXT	ENDS
PUBLIC	??1CSPCheckIP@@UAE@XZ				; CSPCheckIP::~CSPCheckIP
; Function compile flags: /Ogty
;	COMDAT ??_GCSPCheckIP@@UAEPAXI@Z
_TEXT	SEGMENT
___flags$ = 8						; size = 4
??_GCSPCheckIP@@UAEPAXI@Z PROC NEAR			; CSPCheckIP::`scalar deleting destructor', COMDAT
; _this$ = ecx
  00000	56		 push	 esi
  00001	8b f1		 mov	 esi, ecx
  00003	e8 00 00 00 00	 call	 ??1CSPCheckIP@@UAE@XZ
  00008	f6 44 24 08 01	 test	 BYTE PTR ___flags$[esp], 1
  0000d	74 09		 je	 SHORT $L107404
  0000f	56		 push	 esi
  00010	e8 00 00 00 00	 call	 ??3@YAXPAX@Z		; operator delete
  00015	83 c4 04	 add	 esp, 4
$L107404:
  00018	8b c6		 mov	 eax, esi
  0001a	5e		 pop	 esi
  0001b	c2 04 00	 ret	 4
??_GCSPCheckIP@@UAEPAXI@Z ENDP				; CSPCheckIP::`scalar deleting destructor'
; Function compile flags: /Ogty
_TEXT	ENDS
;	COMDAT ??1CSPCheckIP@@UAE@XZ
_TEXT	SEGMENT
??1CSPCheckIP@@UAE@XZ PROC NEAR				; CSPCheckIP::~CSPCheckIP, COMDAT
; _this$ = ecx
  00000	e9 00 00 00 00	 jmp	 ??1CSqlQuery@@UAE@XZ	; CSqlQuery::~CSqlQuery
??1CSPCheckIP@@UAE@XZ ENDP				; CSPCheckIP::~CSPCheckIP
_TEXT	ENDS
PUBLIC	??0CSPLogout@@QAE@PAVCSqlDatabase@@V?$basic_string@DU?$char_traits@D@std@@V?$allocator@D@2@@std@@@Z ; CSPLogout::CSPLogout
PUBLIC	?GetNumParam@CSPLogout@@UAEHXZ			; CSPLogout::GetNumParam
PUBLIC	?BindParameters@CSPLogout@@UAEFH@Z		; CSPLogout::BindParameters
PUBLIC	??_7CSPLogout@@6B@				; CSPLogout::`vftable'
PUBLIC	??_GCSPLogout@@UAEPAXI@Z			; CSPLogout::`scalar deleting destructor'
PUBLIC	??_C@_0BN@FJCFHOJC@?$HL?5?$DP?5?$DN?5CALL?5TLogout?$CI?$DP?0?$DP?0?$DP?0?$DP?$CJ?$HN?$AA@ ; `string'
EXTRN	??_ECSPLogout@@UAEPAXI@Z:NEAR			; CSPLogout::`vector deleting destructor'
;	COMDAT xdata$x
; File c:\program files (x86)\microsoft visual studio .net 2003\vc7\include\iosfwd
xdata$x	SEGMENT
$T107587 DD	0ffffffffH
	DD	FLAT:$L107413
$T107584 DD	019930520H
	DD	01H
	DD	FLAT:$T107587
	DD	2 DUP(00H)
	DD	2 DUP(00H)
xdata$x	ENDS
;	COMDAT ??_C@_0BN@FJCFHOJC@?$HL?5?$DP?5?$DN?5CALL?5TLogout?$CI?$DP?0?$DP?0?$DP?0?$DP?$CJ?$HN?$AA@
CONST	SEGMENT
??_C@_0BN@FJCFHOJC@?$HL?5?$DP?5?$DN?5CALL?5TLogout?$CI?$DP?0?$DP?0?$DP?0?$DP?$CJ?$HN?$AA@ DB '{'
	DB	' ? = CALL TLogout(?,?,?,?)}', 00H		; `string'
CONST	ENDS
;	COMDAT ??_7CSPLogout@@6B@
CONST	SEGMENT
??_7CSPLogout@@6B@ DD FLAT:??_ECSPLogout@@UAEPAXI@Z	; CSPLogout::`vftable'
	DD	FLAT:?GetNumCol@CSqlBase@@UAEHXZ
	DD	FLAT:?GetNumParam@CSPLogout@@UAEHXZ
	DD	FLAT:?AllocStatement@CSqlQuery@@UAEHXZ
	DD	FLAT:?BindColumns@CSqlQuery@@UAEFXZ
	DD	FLAT:?BindParameters@CSPLogout@@UAEFH@Z
; Function compile flags: /Ogty
; File c:\users\pierr\desktop\4story - oldschool\sources\tserver\tloginsvr\dbaccess.h
CONST	ENDS
;	COMDAT ??0CSPLogout@@QAE@PAVCSqlDatabase@@V?$basic_string@DU?$char_traits@D@std@@V?$allocator@D@2@@std@@@Z
_TEXT	SEGMENT
$T107412 = -16						; size = 4
__$EHRec$ = -12						; size = 12
_pdb$ = 8						; size = 4
_strKey$ = 12						; size = 28
??0CSPLogout@@QAE@PAVCSqlDatabase@@V?$basic_string@DU?$char_traits@D@std@@V?$allocator@D@2@@std@@@Z PROC NEAR ; CSPLogout::CSPLogout, COMDAT
; _this$ = ecx

; 108  : DEF_QUERY( CSPLogout, _T("{ ? = CALL TLogout(?,?,?,?)}"))

  00000	6a ff		 push	 -1
  00002	68 00 00 00 00	 push	 __ehhandler$??0CSPLogout@@QAE@PAVCSqlDatabase@@V?$basic_string@DU?$char_traits@D@std@@V?$allocator@D@2@@std@@@Z
  00007	64 a1 00 00 00
	00		 mov	 eax, DWORD PTR fs:__except_list
  0000d	50		 push	 eax
  0000e	64 89 25 00 00
	00 00		 mov	 DWORD PTR fs:__except_list, esp
  00015	51		 push	 ecx
  00016	56		 push	 esi
  00017	8b f1		 mov	 esi, ecx
  00019	68 00 00 00 00	 push	 OFFSET FLAT:??_C@_0BN@FJCFHOJC@?$HL?5?$DP?5?$DN?5CALL?5TLogout?$CI?$DP?0?$DP?0?$DP?0?$DP?$CJ?$HN?$AA@
  0001e	83 ec 1c	 sub	 esp, 28			; 0000001cH
  00021	8b cc		 mov	 ecx, esp
  00023	33 c0		 xor	 eax, eax
  00025	89 64 24 24	 mov	 DWORD PTR $T107412[esp+52], esp
  00029	6a ff		 push	 -1
  0002b	89 41 14	 mov	 DWORD PTR [ecx+20], eax
  0002e	c7 41 18 0f 00
	00 00		 mov	 DWORD PTR [ecx+24], 15	; 0000000fH
  00035	50		 push	 eax
  00036	89 44 24 38	 mov	 DWORD PTR __$EHRec$[esp+68], eax
  0003a	88 41 04	 mov	 BYTE PTR [ecx+4], al
  0003d	8d 44 24 44	 lea	 eax, DWORD PTR _strKey$[esp+56]
  00041	50		 push	 eax
  00042	e8 00 00 00 00	 call	 ?assign@?$basic_string@DU?$char_traits@D@std@@V?$allocator@D@2@@std@@QAEAAV12@ABV12@II@Z ; std::basic_string<char,std::char_traits<char>,std::allocator<char> >::assign
  00047	8b 4c 24 38	 mov	 ecx, DWORD PTR _pdb$[esp+48]
  0004b	51		 push	 ecx
  0004c	8b ce		 mov	 ecx, esi
  0004e	e8 00 00 00 00	 call	 ??0CSqlQuery@@QAE@PAVCSqlDatabase@@V?$basic_string@DU?$char_traits@D@std@@V?$allocator@D@2@@std@@PBD@Z ; CSqlQuery::CSqlQuery
  00053	83 7c 24 34 10	 cmp	 DWORD PTR _strKey$[esp+40], 16 ; 00000010H
  00058	c7 06 00 00 00
	00		 mov	 DWORD PTR [esi], OFFSET FLAT:??_7CSPLogout@@6B@
  0005e	72 0d		 jb	 SHORT $L107585
  00060	8b 54 24 20	 mov	 edx, DWORD PTR _strKey$[esp+20]
  00064	52		 push	 edx
  00065	e8 00 00 00 00	 call	 ??3@YAXPAX@Z		; operator delete
  0006a	83 c4 04	 add	 esp, 4
$L107585:
  0006d	8b 4c 24 08	 mov	 ecx, DWORD PTR __$EHRec$[esp+20]
  00071	8b c6		 mov	 eax, esi
  00073	64 89 0d 00 00
	00 00		 mov	 DWORD PTR fs:__except_list, ecx
  0007a	5e		 pop	 esi
  0007b	83 c4 10	 add	 esp, 16			; 00000010H
  0007e	c2 20 00	 ret	 32			; 00000020H
_TEXT	ENDS
;	COMDAT text$x
text$x	SEGMENT
$L107413:
  00000	8d 4d 08	 lea	 ecx, DWORD PTR _strKey$[ebp-4]
  00003	e9 00 00 00 00	 jmp	 ??1?$basic_string@DU?$char_traits@D@std@@V?$allocator@D@2@@std@@QAE@XZ ; std::basic_string<char,std::char_traits<char>,std::allocator<char> >::~basic_string<char,std::char_traits<char>,std::allocator<char> >
__ehhandler$??0CSPLogout@@QAE@PAVCSqlDatabase@@V?$basic_string@DU?$char_traits@D@std@@V?$allocator@D@2@@std@@@Z:
  00008	b8 00 00 00 00	 mov	 eax, OFFSET FLAT:$T107584
  0000d	e9 00 00 00 00	 jmp	 ___CxxFrameHandler
text$x	ENDS
??0CSPLogout@@QAE@PAVCSqlDatabase@@V?$basic_string@DU?$char_traits@D@std@@V?$allocator@D@2@@std@@@Z ENDP ; CSPLogout::CSPLogout
; Function compile flags: /Ogty
;	COMDAT ?GetNumParam@CSPLogout@@UAEHXZ
_TEXT	SEGMENT
?GetNumParam@CSPLogout@@UAEHXZ PROC NEAR		; CSPLogout::GetNumParam, COMDAT
; _this$ = ecx

; 110  : BEGIN_PARAM(5)

  00000	b8 05 00 00 00	 mov	 eax, 5
  00005	c3		 ret	 0
?GetNumParam@CSPLogout@@UAEHXZ ENDP			; CSPLogout::GetNumParam
; Function compile flags: /Ogty
_TEXT	ENDS
;	COMDAT ?BindParameters@CSPLogout@@UAEFH@Z
_TEXT	SEGMENT
_bRewind$ = 8						; size = 4
?BindParameters@CSPLogout@@UAEFH@Z PROC NEAR		; CSPLogout::BindParameters, COMDAT
; _this$ = ecx

; 110  : BEGIN_PARAM(5)

  00000	53		 push	 ebx
  00001	56		 push	 esi
  00002	57		 push	 edi

; 111  : 	PARAM_ENTRY( SQL_PARAM_OUTPUT, m_nRET)

  00003	8b 7c 24 10	 mov	 edi, DWORD PTR _bRewind$[esp+8]
  00007	33 db		 xor	 ebx, ebx
  00009	8b f1		 mov	 esi, ecx
  0000b	33 c0		 xor	 eax, eax
  0000d	3b fb		 cmp	 edi, ebx
  0000f	89 9e 10 08 00
	00		 mov	 DWORD PTR [esi+2064], ebx
  00015	75 1f		 jne	 SHORT $L94805
  00017	8d 86 2c 0c 00
	00		 lea	 eax, DWORD PTR [esi+3116]
  0001d	50		 push	 eax
  0001e	6a 01		 push	 1
  00020	6a 04		 push	 4
  00022	e8 00 00 00 00	 call	 ?BindParam@CSqlBase@@QAEFFFPAH@Z ; CSqlBase::BindParam
  00027	66 3b c3	 cmp	 ax, bx
  0002a	74 0a		 je	 SHORT $L94805
  0002c	66 3d 01 00	 cmp	 ax, 1
  00030	0f 85 91 00 00
	00		 jne	 $L94800
$L94805:

; 112  : 	PARAM_ENTRY( SQL_PARAM_INPUT, m_dwID)

  00036	3b fb		 cmp	 edi, ebx
  00038	89 9e 14 08 00
	00		 mov	 DWORD PTR [esi+2068], ebx
  0003e	75 12		 jne	 SHORT $L94806
  00040	8d 8e 30 0c 00
	00		 lea	 ecx, DWORD PTR [esi+3120]
  00046	51		 push	 ecx
  00047	6a 02		 push	 2
  00049	6a 01		 push	 1
  0004b	8b ce		 mov	 ecx, esi
  0004d	e8 00 00 00 00	 call	 ?BindParam@CSqlBase@@QAEFFFPAK@Z ; CSqlBase::BindParam
$L94806:
  00052	66 3b c3	 cmp	 ax, bx
  00055	74 06		 je	 SHORT $L94807
  00057	66 3d 01 00	 cmp	 ax, 1
  0005b	75 6a		 jne	 SHORT $L94800
$L94807:

; 113  : 	PARAM_ENTRY( SQL_PARAM_INPUT, m_dwCharID)

  0005d	3b fb		 cmp	 edi, ebx
  0005f	89 9e 18 08 00
	00		 mov	 DWORD PTR [esi+2072], ebx
  00065	75 12		 jne	 SHORT $L94808
  00067	8d 96 34 0c 00
	00		 lea	 edx, DWORD PTR [esi+3124]
  0006d	52		 push	 edx
  0006e	6a 03		 push	 3
  00070	6a 01		 push	 1
  00072	8b ce		 mov	 ecx, esi
  00074	e8 00 00 00 00	 call	 ?BindParam@CSqlBase@@QAEFFFPAK@Z ; CSqlBase::BindParam
$L94808:
  00079	66 3b c3	 cmp	 ax, bx
  0007c	74 06		 je	 SHORT $L94809
  0007e	66 3d 01 00	 cmp	 ax, 1
  00082	75 43		 jne	 SHORT $L94800
$L94809:

; 114  : 	PARAM_ENTRY( SQL_PARAM_INPUT, m_bLevel)

  00084	3b fb		 cmp	 edi, ebx
  00086	89 9e 1c 08 00
	00		 mov	 DWORD PTR [esi+2076], ebx
  0008c	75 12		 jne	 SHORT $L94810
  0008e	8d 86 38 0c 00
	00		 lea	 eax, DWORD PTR [esi+3128]
  00094	50		 push	 eax
  00095	6a 04		 push	 4
  00097	6a 01		 push	 1
  00099	8b ce		 mov	 ecx, esi
  0009b	e8 00 00 00 00	 call	 ?BindParam@CSqlBase@@QAEFFFPAE@Z ; CSqlBase::BindParam
$L94810:
  000a0	66 3b c3	 cmp	 ax, bx
  000a3	74 06		 je	 SHORT $L94811
  000a5	66 3d 01 00	 cmp	 ax, 1
  000a9	75 1c		 jne	 SHORT $L94800
$L94811:

; 115  : 	PARAM_ENTRY( SQL_PARAM_INPUT, m_dwExp)

  000ab	3b fb		 cmp	 edi, ebx
  000ad	89 9e 20 08 00
	00		 mov	 DWORD PTR [esi+2080], ebx
  000b3	75 12		 jne	 SHORT $L94800
  000b5	8d 8e 3c 0c 00
	00		 lea	 ecx, DWORD PTR [esi+3132]
  000bb	51		 push	 ecx
  000bc	6a 05		 push	 5
  000be	6a 01		 push	 1
  000c0	8b ce		 mov	 ecx, esi
  000c2	e8 00 00 00 00	 call	 ?BindParam@CSqlBase@@QAEFFFPAK@Z ; CSqlBase::BindParam
$L94800:
  000c7	5f		 pop	 edi
  000c8	5e		 pop	 esi
  000c9	5b		 pop	 ebx

; 116  : END_PARAM()

  000ca	c2 04 00	 ret	 4
?BindParameters@CSPLogout@@UAEFH@Z ENDP			; CSPLogout::BindParameters
_TEXT	ENDS
PUBLIC	??1CSPLogout@@UAE@XZ				; CSPLogout::~CSPLogout
; Function compile flags: /Ogty
;	COMDAT ??_GCSPLogout@@UAEPAXI@Z
_TEXT	SEGMENT
___flags$ = 8						; size = 4
??_GCSPLogout@@UAEPAXI@Z PROC NEAR			; CSPLogout::`scalar deleting destructor', COMDAT
; _this$ = ecx
  00000	56		 push	 esi
  00001	8b f1		 mov	 esi, ecx
  00003	e8 00 00 00 00	 call	 ??1CSPLogout@@UAE@XZ
  00008	f6 44 24 08 01	 test	 BYTE PTR ___flags$[esp], 1
  0000d	74 09		 je	 SHORT $L107599
  0000f	56		 push	 esi
  00010	e8 00 00 00 00	 call	 ??3@YAXPAX@Z		; operator delete
  00015	83 c4 04	 add	 esp, 4
$L107599:
  00018	8b c6		 mov	 eax, esi
  0001a	5e		 pop	 esi
  0001b	c2 04 00	 ret	 4
??_GCSPLogout@@UAEPAXI@Z ENDP				; CSPLogout::`scalar deleting destructor'
; Function compile flags: /Ogty
_TEXT	ENDS
;	COMDAT ??1CSPLogout@@UAE@XZ
_TEXT	SEGMENT
??1CSPLogout@@UAE@XZ PROC NEAR				; CSPLogout::~CSPLogout, COMDAT
; _this$ = ecx
  00000	e9 00 00 00 00	 jmp	 ??1CSqlQuery@@UAE@XZ	; CSqlQuery::~CSqlQuery
??1CSPLogout@@UAE@XZ ENDP				; CSPLogout::~CSPLogout
_TEXT	ENDS
PUBLIC	??0CSPCheckPasswd@@QAE@PAVCSqlDatabase@@V?$basic_string@DU?$char_traits@D@std@@V?$allocator@D@2@@std@@@Z ; CSPCheckPasswd::CSPCheckPasswd
PUBLIC	?GetNumParam@CSPCheckPasswd@@UAEHXZ		; CSPCheckPasswd::GetNumParam
PUBLIC	?BindParameters@CSPCheckPasswd@@UAEFH@Z		; CSPCheckPasswd::BindParameters
PUBLIC	??_7CSPCheckPasswd@@6B@				; CSPCheckPasswd::`vftable'
PUBLIC	??_GCSPCheckPasswd@@UAEPAXI@Z			; CSPCheckPasswd::`scalar deleting destructor'
PUBLIC	??_C@_0BO@PGJGNOEF@?$HL?5?$DP?5?$DN?5CALL?5TCheckPasswd?$CI?$DP?0?$DP?$CJ?$HN?$AA@ ; `string'
EXTRN	??_ECSPCheckPasswd@@UAEPAXI@Z:NEAR		; CSPCheckPasswd::`vector deleting destructor'
;	COMDAT xdata$x
; File c:\program files (x86)\microsoft visual studio .net 2003\vc7\include\iosfwd
xdata$x	SEGMENT
$T107782 DD	0ffffffffH
	DD	FLAT:$L107608
$T107779 DD	019930520H
	DD	01H
	DD	FLAT:$T107782
	DD	2 DUP(00H)
	DD	2 DUP(00H)
xdata$x	ENDS
;	COMDAT ??_C@_0BO@PGJGNOEF@?$HL?5?$DP?5?$DN?5CALL?5TCheckPasswd?$CI?$DP?0?$DP?$CJ?$HN?$AA@
CONST	SEGMENT
??_C@_0BO@PGJGNOEF@?$HL?5?$DP?5?$DN?5CALL?5TCheckPasswd?$CI?$DP?0?$DP?$CJ?$HN?$AA@ DB '{'
	DB	' ? = CALL TCheckPasswd(?,?)}', 00H		; `string'
CONST	ENDS
;	COMDAT ??_7CSPCheckPasswd@@6B@
CONST	SEGMENT
??_7CSPCheckPasswd@@6B@ DD FLAT:??_ECSPCheckPasswd@@UAEPAXI@Z ; CSPCheckPasswd::`vftable'
	DD	FLAT:?GetNumCol@CSqlBase@@UAEHXZ
	DD	FLAT:?GetNumParam@CSPCheckPasswd@@UAEHXZ
	DD	FLAT:?AllocStatement@CSqlQuery@@UAEHXZ
	DD	FLAT:?BindColumns@CSqlQuery@@UAEFXZ
	DD	FLAT:?BindParameters@CSPCheckPasswd@@UAEFH@Z
; Function compile flags: /Ogty
; File c:\users\pierr\desktop\4story - oldschool\sources\tserver\tloginsvr\dbaccess.h
CONST	ENDS
;	COMDAT ??0CSPCheckPasswd@@QAE@PAVCSqlDatabase@@V?$basic_string@DU?$char_traits@D@std@@V?$allocator@D@2@@std@@@Z
_TEXT	SEGMENT
$T107607 = -16						; size = 4
__$EHRec$ = -12						; size = 12
_pdb$ = 8						; size = 4
_strKey$ = 12						; size = 28
??0CSPCheckPasswd@@QAE@PAVCSqlDatabase@@V?$basic_string@DU?$char_traits@D@std@@V?$allocator@D@2@@std@@@Z PROC NEAR ; CSPCheckPasswd::CSPCheckPasswd, COMDAT
; _this$ = ecx

; 128  : DEF_QUERY( CSPCheckPasswd, _T("{ ? = CALL TCheckPasswd(?,?)}"))

  00000	6a ff		 push	 -1
  00002	68 00 00 00 00	 push	 __ehhandler$??0CSPCheckPasswd@@QAE@PAVCSqlDatabase@@V?$basic_string@DU?$char_traits@D@std@@V?$allocator@D@2@@std@@@Z
  00007	64 a1 00 00 00
	00		 mov	 eax, DWORD PTR fs:__except_list
  0000d	50		 push	 eax
  0000e	64 89 25 00 00
	00 00		 mov	 DWORD PTR fs:__except_list, esp
  00015	51		 push	 ecx
  00016	56		 push	 esi
  00017	8b f1		 mov	 esi, ecx
  00019	68 00 00 00 00	 push	 OFFSET FLAT:??_C@_0BO@PGJGNOEF@?$HL?5?$DP?5?$DN?5CALL?5TCheckPasswd?$CI?$DP?0?$DP?$CJ?$HN?$AA@
  0001e	83 ec 1c	 sub	 esp, 28			; 0000001cH
  00021	8b cc		 mov	 ecx, esp
  00023	33 c0		 xor	 eax, eax
  00025	89 64 24 24	 mov	 DWORD PTR $T107607[esp+52], esp
  00029	6a ff		 push	 -1
  0002b	89 41 14	 mov	 DWORD PTR [ecx+20], eax
  0002e	c7 41 18 0f 00
	00 00		 mov	 DWORD PTR [ecx+24], 15	; 0000000fH
  00035	50		 push	 eax
  00036	89 44 24 38	 mov	 DWORD PTR __$EHRec$[esp+68], eax
  0003a	88 41 04	 mov	 BYTE PTR [ecx+4], al
  0003d	8d 44 24 44	 lea	 eax, DWORD PTR _strKey$[esp+56]
  00041	50		 push	 eax
  00042	e8 00 00 00 00	 call	 ?assign@?$basic_string@DU?$char_traits@D@std@@V?$allocator@D@2@@std@@QAEAAV12@ABV12@II@Z ; std::basic_string<char,std::char_traits<char>,std::allocator<char> >::assign
  00047	8b 4c 24 38	 mov	 ecx, DWORD PTR _pdb$[esp+48]
  0004b	51		 push	 ecx
  0004c	8b ce		 mov	 ecx, esi
  0004e	e8 00 00 00 00	 call	 ??0CSqlQuery@@QAE@PAVCSqlDatabase@@V?$basic_string@DU?$char_traits@D@std@@V?$allocator@D@2@@std@@PBD@Z ; CSqlQuery::CSqlQuery
  00053	83 7c 24 34 10	 cmp	 DWORD PTR _strKey$[esp+40], 16 ; 00000010H
  00058	c7 06 00 00 00
	00		 mov	 DWORD PTR [esi], OFFSET FLAT:??_7CSPCheckPasswd@@6B@
  0005e	72 0d		 jb	 SHORT $L107780
  00060	8b 54 24 20	 mov	 edx, DWORD PTR _strKey$[esp+20]
  00064	52		 push	 edx
  00065	e8 00 00 00 00	 call	 ??3@YAXPAX@Z		; operator delete
  0006a	83 c4 04	 add	 esp, 4
$L107780:
  0006d	8b 4c 24 08	 mov	 ecx, DWORD PTR __$EHRec$[esp+20]
  00071	8b c6		 mov	 eax, esi
  00073	64 89 0d 00 00
	00 00		 mov	 DWORD PTR fs:__except_list, ecx
  0007a	5e		 pop	 esi
  0007b	83 c4 10	 add	 esp, 16			; 00000010H
  0007e	c2 20 00	 ret	 32			; 00000020H
_TEXT	ENDS
;	COMDAT text$x
text$x	SEGMENT
$L107608:
  00000	8d 4d 08	 lea	 ecx, DWORD PTR _strKey$[ebp-4]
  00003	e9 00 00 00 00	 jmp	 ??1?$basic_string@DU?$char_traits@D@std@@V?$allocator@D@2@@std@@QAE@XZ ; std::basic_string<char,std::char_traits<char>,std::allocator<char> >::~basic_string<char,std::char_traits<char>,std::allocator<char> >
__ehhandler$??0CSPCheckPasswd@@QAE@PAVCSqlDatabase@@V?$basic_string@DU?$char_traits@D@std@@V?$allocator@D@2@@std@@@Z:
  00008	b8 00 00 00 00	 mov	 eax, OFFSET FLAT:$T107779
  0000d	e9 00 00 00 00	 jmp	 ___CxxFrameHandler
text$x	ENDS
??0CSPCheckPasswd@@QAE@PAVCSqlDatabase@@V?$basic_string@DU?$char_traits@D@std@@V?$allocator@D@2@@std@@@Z ENDP ; CSPCheckPasswd::CSPCheckPasswd
; Function compile flags: /Ogty
;	COMDAT ?GetNumParam@CSPCheckPasswd@@UAEHXZ
_TEXT	SEGMENT
?GetNumParam@CSPCheckPasswd@@UAEHXZ PROC NEAR		; CSPCheckPasswd::GetNumParam, COMDAT
; _this$ = ecx

; 130  : BEGIN_PARAM(3)

  00000	b8 03 00 00 00	 mov	 eax, 3
  00005	c3		 ret	 0
?GetNumParam@CSPCheckPasswd@@UAEHXZ ENDP		; CSPCheckPasswd::GetNumParam
; Function compile flags: /Ogty
_TEXT	ENDS
;	COMDAT ?BindParameters@CSPCheckPasswd@@UAEFH@Z
_TEXT	SEGMENT
_bRewind$ = 8						; size = 4
?BindParameters@CSPCheckPasswd@@UAEFH@Z PROC NEAR	; CSPCheckPasswd::BindParameters, COMDAT
; _this$ = ecx

; 130  : BEGIN_PARAM(3)

  00000	56		 push	 esi
  00001	57		 push	 edi

; 131  : 	PARAM_ENTRY( SQL_PARAM_OUTPUT, m_nRET)

  00002	8b 7c 24 0c	 mov	 edi, DWORD PTR _bRewind$[esp+4]
  00006	33 c0		 xor	 eax, eax
  00008	85 ff		 test	 edi, edi
  0000a	8b f1		 mov	 esi, ecx
  0000c	89 86 10 08 00
	00		 mov	 DWORD PTR [esi+2064], eax
  00012	75 1b		 jne	 SHORT $L94858
  00014	8d 86 2c 0c 00
	00		 lea	 eax, DWORD PTR [esi+3116]
  0001a	50		 push	 eax
  0001b	6a 01		 push	 1
  0001d	6a 04		 push	 4
  0001f	e8 00 00 00 00	 call	 ?BindParam@CSqlBase@@QAEFFFPAH@Z ; CSqlBase::BindParam
  00024	66 85 c0	 test	 ax, ax
  00027	74 06		 je	 SHORT $L94858
  00029	66 3d 01 00	 cmp	 ax, 1
  0002d	75 4d		 jne	 SHORT $L94853
$L94858:

; 132  : 	PARAM_ENTRY( SQL_PARAM_INPUT, m_dwID)

  0002f	85 ff		 test	 edi, edi
  00031	c7 86 14 08 00
	00 00 00 00 00	 mov	 DWORD PTR [esi+2068], 0
  0003b	75 12		 jne	 SHORT $L94859
  0003d	8d 8e 64 0c 00
	00		 lea	 ecx, DWORD PTR [esi+3172]
  00043	51		 push	 ecx
  00044	6a 02		 push	 2
  00046	6a 01		 push	 1
  00048	8b ce		 mov	 ecx, esi
  0004a	e8 00 00 00 00	 call	 ?BindParam@CSqlBase@@QAEFFFPAK@Z ; CSqlBase::BindParam
$L94859:
  0004f	66 85 c0	 test	 ax, ax
  00052	74 06		 je	 SHORT $L94860
  00054	66 3d 01 00	 cmp	 ax, 1
  00058	75 22		 jne	 SHORT $L94853
$L94860:

; 133  : 	PARAM_ENTRY_STR( SQL_PARAM_INPUT, m_szPasswd)

  0005a	85 ff		 test	 edi, edi
  0005c	c7 86 18 08 00
	00 fd ff ff ff	 mov	 DWORD PTR [esi+2072], -3 ; fffffffdH
  00066	75 14		 jne	 SHORT $L94853
  00068	6a 33		 push	 51			; 00000033H
  0006a	8d 96 30 0c 00
	00		 lea	 edx, DWORD PTR [esi+3120]
  00070	52		 push	 edx
  00071	6a 03		 push	 3
  00073	6a 01		 push	 1
  00075	8b ce		 mov	 ecx, esi
  00077	e8 00 00 00 00	 call	 ?BindParamStr@CSqlBase@@QAEFFFPADJ@Z ; CSqlBase::BindParamStr
$L94853:
  0007c	5f		 pop	 edi
  0007d	5e		 pop	 esi

; 134  : END_PARAM()

  0007e	c2 04 00	 ret	 4
?BindParameters@CSPCheckPasswd@@UAEFH@Z ENDP		; CSPCheckPasswd::BindParameters
_TEXT	ENDS
PUBLIC	??1CSPCheckPasswd@@UAE@XZ			; CSPCheckPasswd::~CSPCheckPasswd
; Function compile flags: /Ogty
;	COMDAT ??_GCSPCheckPasswd@@UAEPAXI@Z
_TEXT	SEGMENT
___flags$ = 8						; size = 4
??_GCSPCheckPasswd@@UAEPAXI@Z PROC NEAR			; CSPCheckPasswd::`scalar deleting destructor', COMDAT
; _this$ = ecx
  00000	56		 push	 esi
  00001	8b f1		 mov	 esi, ecx
  00003	e8 00 00 00 00	 call	 ??1CSPCheckPasswd@@UAE@XZ
  00008	f6 44 24 08 01	 test	 BYTE PTR ___flags$[esp], 1
  0000d	74 09		 je	 SHORT $L107794
  0000f	56		 push	 esi
  00010	e8 00 00 00 00	 call	 ??3@YAXPAX@Z		; operator delete
  00015	83 c4 04	 add	 esp, 4
$L107794:
  00018	8b c6		 mov	 eax, esi
  0001a	5e		 pop	 esi
  0001b	c2 04 00	 ret	 4
??_GCSPCheckPasswd@@UAEPAXI@Z ENDP			; CSPCheckPasswd::`scalar deleting destructor'
; Function compile flags: /Ogty
_TEXT	ENDS
;	COMDAT ??1CSPCheckPasswd@@UAE@XZ
_TEXT	SEGMENT
??1CSPCheckPasswd@@UAE@XZ PROC NEAR			; CSPCheckPasswd::~CSPCheckPasswd, COMDAT
; _this$ = ecx
  00000	e9 00 00 00 00	 jmp	 ??1CSqlQuery@@UAE@XZ	; CSqlQuery::~CSqlQuery
??1CSPCheckPasswd@@UAE@XZ ENDP				; CSPCheckPasswd::~CSPCheckPasswd
_TEXT	ENDS
PUBLIC	??0CSPRoute@@QAE@PAVCSqlDatabase@@V?$basic_string@DU?$char_traits@D@std@@V?$allocator@D@2@@std@@@Z ; CSPRoute::CSPRoute
PUBLIC	?GetNumParam@CSPRoute@@UAEHXZ			; CSPRoute::GetNumParam
PUBLIC	?BindParameters@CSPRoute@@UAEFH@Z		; CSPRoute::BindParameters
PUBLIC	??_7CSPRoute@@6B@				; CSPRoute::`vftable'
PUBLIC	??_GCSPRoute@@UAEPAXI@Z				; CSPRoute::`scalar deleting destructor'
PUBLIC	??_C@_0BO@LDFDEPKD@?$HL?5?$DP?5?$DN?5CALL?5TRoute?$CI?$DP?0?$DP?0?$DP?0?$DP?0?$DP?$CJ?$HN?$AA@ ; `string'
EXTRN	??_ECSPRoute@@UAEPAXI@Z:NEAR			; CSPRoute::`vector deleting destructor'
;	COMDAT xdata$x
; File c:\program files (x86)\microsoft visual studio .net 2003\vc7\include\iosfwd
xdata$x	SEGMENT
$T107977 DD	0ffffffffH
	DD	FLAT:$L107803
$T107974 DD	019930520H
	DD	01H
	DD	FLAT:$T107977
	DD	2 DUP(00H)
	DD	2 DUP(00H)
xdata$x	ENDS
;	COMDAT ??_C@_0BO@LDFDEPKD@?$HL?5?$DP?5?$DN?5CALL?5TRoute?$CI?$DP?0?$DP?0?$DP?0?$DP?0?$DP?$CJ?$HN?$AA@
CONST	SEGMENT
??_C@_0BO@LDFDEPKD@?$HL?5?$DP?5?$DN?5CALL?5TRoute?$CI?$DP?0?$DP?0?$DP?0?$DP?0?$DP?$CJ?$HN?$AA@ DB '{'
	DB	' ? = CALL TRoute(?,?,?,?,?)}', 00H		; `string'
CONST	ENDS
;	COMDAT ??_7CSPRoute@@6B@
CONST	SEGMENT
??_7CSPRoute@@6B@ DD FLAT:??_ECSPRoute@@UAEPAXI@Z	; CSPRoute::`vftable'
	DD	FLAT:?GetNumCol@CSqlBase@@UAEHXZ
	DD	FLAT:?GetNumParam@CSPRoute@@UAEHXZ
	DD	FLAT:?AllocStatement@CSqlQuery@@UAEHXZ
	DD	FLAT:?BindColumns@CSqlQuery@@UAEFXZ
	DD	FLAT:?BindParameters@CSPRoute@@UAEFH@Z
; Function compile flags: /Ogty
; File c:\users\pierr\desktop\4story - oldschool\sources\tserver\tloginsvr\dbaccess.h
CONST	ENDS
;	COMDAT ??0CSPRoute@@QAE@PAVCSqlDatabase@@V?$basic_string@DU?$char_traits@D@std@@V?$allocator@D@2@@std@@@Z
_TEXT	SEGMENT
$T107802 = -16						; size = 4
__$EHRec$ = -12						; size = 12
_pdb$ = 8						; size = 4
_strKey$ = 12						; size = 28
??0CSPRoute@@QAE@PAVCSqlDatabase@@V?$basic_string@DU?$char_traits@D@std@@V?$allocator@D@2@@std@@@Z PROC NEAR ; CSPRoute::CSPRoute, COMDAT
; _this$ = ecx

; 151  : DEF_QUERY( CSPRoute, _T("{ ? = CALL TRoute(?,?,?,?,?)}"))

  00000	6a ff		 push	 -1
  00002	68 00 00 00 00	 push	 __ehhandler$??0CSPRoute@@QAE@PAVCSqlDatabase@@V?$basic_string@DU?$char_traits@D@std@@V?$allocator@D@2@@std@@@Z
  00007	64 a1 00 00 00
	00		 mov	 eax, DWORD PTR fs:__except_list
  0000d	50		 push	 eax
  0000e	64 89 25 00 00
	00 00		 mov	 DWORD PTR fs:__except_list, esp
  00015	51		 push	 ecx
  00016	56		 push	 esi
  00017	8b f1		 mov	 esi, ecx
  00019	68 00 00 00 00	 push	 OFFSET FLAT:??_C@_0BO@LDFDEPKD@?$HL?5?$DP?5?$DN?5CALL?5TRoute?$CI?$DP?0?$DP?0?$DP?0?$DP?0?$DP?$CJ?$HN?$AA@
  0001e	83 ec 1c	 sub	 esp, 28			; 0000001cH
  00021	8b cc		 mov	 ecx, esp
  00023	33 c0		 xor	 eax, eax
  00025	89 64 24 24	 mov	 DWORD PTR $T107802[esp+52], esp
  00029	6a ff		 push	 -1
  0002b	89 41 14	 mov	 DWORD PTR [ecx+20], eax
  0002e	c7 41 18 0f 00
	00 00		 mov	 DWORD PTR [ecx+24], 15	; 0000000fH
  00035	50		 push	 eax
  00036	89 44 24 38	 mov	 DWORD PTR __$EHRec$[esp+68], eax
  0003a	88 41 04	 mov	 BYTE PTR [ecx+4], al
  0003d	8d 44 24 44	 lea	 eax, DWORD PTR _strKey$[esp+56]
  00041	50		 push	 eax
  00042	e8 00 00 00 00	 call	 ?assign@?$basic_string@DU?$char_traits@D@std@@V?$allocator@D@2@@std@@QAEAAV12@ABV12@II@Z ; std::basic_string<char,std::char_traits<char>,std::allocator<char> >::assign
  00047	8b 4c 24 38	 mov	 ecx, DWORD PTR _pdb$[esp+48]
  0004b	51		 push	 ecx
  0004c	8b ce		 mov	 ecx, esi
  0004e	e8 00 00 00 00	 call	 ??0CSqlQuery@@QAE@PAVCSqlDatabase@@V?$basic_string@DU?$char_traits@D@std@@V?$allocator@D@2@@std@@PBD@Z ; CSqlQuery::CSqlQuery
  00053	83 7c 24 34 10	 cmp	 DWORD PTR _strKey$[esp+40], 16 ; 00000010H
  00058	c7 06 00 00 00
	00		 mov	 DWORD PTR [esi], OFFSET FLAT:??_7CSPRoute@@6B@
  0005e	72 0d		 jb	 SHORT $L107975
  00060	8b 54 24 20	 mov	 edx, DWORD PTR _strKey$[esp+20]
  00064	52		 push	 edx
  00065	e8 00 00 00 00	 call	 ??3@YAXPAX@Z		; operator delete
  0006a	83 c4 04	 add	 esp, 4
$L107975:
  0006d	8b 4c 24 08	 mov	 ecx, DWORD PTR __$EHRec$[esp+20]
  00071	8b c6		 mov	 eax, esi
  00073	64 89 0d 00 00
	00 00		 mov	 DWORD PTR fs:__except_list, ecx
  0007a	5e		 pop	 esi
  0007b	83 c4 10	 add	 esp, 16			; 00000010H
  0007e	c2 20 00	 ret	 32			; 00000020H
_TEXT	ENDS
;	COMDAT text$x
text$x	SEGMENT
$L107803:
  00000	8d 4d 08	 lea	 ecx, DWORD PTR _strKey$[ebp-4]
  00003	e9 00 00 00 00	 jmp	 ??1?$basic_string@DU?$char_traits@D@std@@V?$allocator@D@2@@std@@QAE@XZ ; std::basic_string<char,std::char_traits<char>,std::allocator<char> >::~basic_string<char,std::char_traits<char>,std::allocator<char> >
__ehhandler$??0CSPRoute@@QAE@PAVCSqlDatabase@@V?$basic_string@DU?$char_traits@D@std@@V?$allocator@D@2@@std@@@Z:
  00008	b8 00 00 00 00	 mov	 eax, OFFSET FLAT:$T107974
  0000d	e9 00 00 00 00	 jmp	 ___CxxFrameHandler
text$x	ENDS
??0CSPRoute@@QAE@PAVCSqlDatabase@@V?$basic_string@DU?$char_traits@D@std@@V?$allocator@D@2@@std@@@Z ENDP ; CSPRoute::CSPRoute
; Function compile flags: /Ogty
;	COMDAT ?GetNumParam@CSPRoute@@UAEHXZ
_TEXT	SEGMENT
?GetNumParam@CSPRoute@@UAEHXZ PROC NEAR			; CSPRoute::GetNumParam, COMDAT
; _this$ = ecx

; 153  : BEGIN_PARAM(6)

  00000	b8 06 00 00 00	 mov	 eax, 6
  00005	c3		 ret	 0
?GetNumParam@CSPRoute@@UAEHXZ ENDP			; CSPRoute::GetNumParam
; Function compile flags: /Ogty
_TEXT	ENDS
;	COMDAT ?BindParameters@CSPRoute@@UAEFH@Z
_TEXT	SEGMENT
_bRewind$ = 8						; size = 4
?BindParameters@CSPRoute@@UAEFH@Z PROC NEAR		; CSPRoute::BindParameters, COMDAT
; _this$ = ecx

; 153  : BEGIN_PARAM(6)

  00000	53		 push	 ebx
  00001	56		 push	 esi
  00002	57		 push	 edi

; 154  : 	PARAM_ENTRY( SQL_PARAM_OUTPUT, m_nRET)

  00003	8b 7c 24 10	 mov	 edi, DWORD PTR _bRewind$[esp+8]
  00007	33 db		 xor	 ebx, ebx
  00009	8b f1		 mov	 esi, ecx
  0000b	33 c0		 xor	 eax, eax
  0000d	3b fb		 cmp	 edi, ebx
  0000f	89 9e 10 08 00
	00		 mov	 DWORD PTR [esi+2064], ebx
  00015	75 1f		 jne	 SHORT $L94910
  00017	8d 86 2c 0c 00
	00		 lea	 eax, DWORD PTR [esi+3116]
  0001d	50		 push	 eax
  0001e	6a 01		 push	 1
  00020	6a 04		 push	 4
  00022	e8 00 00 00 00	 call	 ?BindParam@CSqlBase@@QAEFFFPAH@Z ; CSqlBase::BindParam
  00027	66 3b c3	 cmp	 ax, bx
  0002a	74 0a		 je	 SHORT $L94910
  0002c	66 3d 01 00	 cmp	 ax, 1
  00030	0f 85 c2 00 00
	00		 jne	 $L94905
$L94910:

; 155  : 	PARAM_ENTRY( SQL_PARAM_INPUT, m_bGroupID)

  00036	3b fb		 cmp	 edi, ebx
  00038	89 9e 14 08 00
	00		 mov	 DWORD PTR [esi+2068], ebx
  0003e	75 12		 jne	 SHORT $L94911
  00040	8d 8e 64 0c 00
	00		 lea	 ecx, DWORD PTR [esi+3172]
  00046	51		 push	 ecx
  00047	6a 02		 push	 2
  00049	6a 01		 push	 1
  0004b	8b ce		 mov	 ecx, esi
  0004d	e8 00 00 00 00	 call	 ?BindParam@CSqlBase@@QAEFFFPAE@Z ; CSqlBase::BindParam
$L94911:
  00052	66 3b c3	 cmp	 ax, bx
  00055	74 0a		 je	 SHORT $L94912
  00057	66 3d 01 00	 cmp	 ax, 1
  0005b	0f 85 97 00 00
	00		 jne	 $L94905
$L94912:

; 156  : 	PARAM_ENTRY( SQL_PARAM_INPUT, m_bServerID)

  00061	3b fb		 cmp	 edi, ebx
  00063	89 9e 18 08 00
	00		 mov	 DWORD PTR [esi+2072], ebx
  00069	75 12		 jne	 SHORT $L94913
  0006b	8d 96 63 0c 00
	00		 lea	 edx, DWORD PTR [esi+3171]
  00071	52		 push	 edx
  00072	6a 03		 push	 3
  00074	6a 01		 push	 1
  00076	8b ce		 mov	 ecx, esi
  00078	e8 00 00 00 00	 call	 ?BindParam@CSqlBase@@QAEFFFPAE@Z ; CSqlBase::BindParam
$L94913:
  0007d	66 3b c3	 cmp	 ax, bx
  00080	74 06		 je	 SHORT $L94914
  00082	66 3d 01 00	 cmp	 ax, 1
  00086	75 70		 jne	 SHORT $L94905
$L94914:

; 157  : 	PARAM_ENTRY( SQL_PARAM_INPUT, m_bType)

  00088	3b fb		 cmp	 edi, ebx
  0008a	89 9e 1c 08 00
	00		 mov	 DWORD PTR [esi+2076], ebx
  00090	75 12		 jne	 SHORT $L94915
  00092	8d 86 65 0c 00
	00		 lea	 eax, DWORD PTR [esi+3173]
  00098	50		 push	 eax
  00099	6a 04		 push	 4
  0009b	6a 01		 push	 1
  0009d	8b ce		 mov	 ecx, esi
  0009f	e8 00 00 00 00	 call	 ?BindParam@CSqlBase@@QAEFFFPAE@Z ; CSqlBase::BindParam
$L94915:
  000a4	66 3b c3	 cmp	 ax, bx
  000a7	74 06		 je	 SHORT $L94916
  000a9	66 3d 01 00	 cmp	 ax, 1
  000ad	75 49		 jne	 SHORT $L94905
$L94916:

; 158  : 	PARAM_ENTRY_STR( SQL_PARAM_OUTPUT, m_szIPAddr)

  000af	3b fb		 cmp	 edi, ebx
  000b1	c7 86 20 08 00
	00 fd ff ff ff	 mov	 DWORD PTR [esi+2080], -3 ; fffffffdH
  000bb	75 14		 jne	 SHORT $L94917
  000bd	6a 33		 push	 51			; 00000033H
  000bf	8d 8e 30 0c 00
	00		 lea	 ecx, DWORD PTR [esi+3120]
  000c5	51		 push	 ecx
  000c6	6a 05		 push	 5
  000c8	6a 04		 push	 4
  000ca	8b ce		 mov	 ecx, esi
  000cc	e8 00 00 00 00	 call	 ?BindParamStr@CSqlBase@@QAEFFFPADJ@Z ; CSqlBase::BindParamStr
$L94917:
  000d1	66 3b c3	 cmp	 ax, bx
  000d4	74 06		 je	 SHORT $L94918
  000d6	66 3d 01 00	 cmp	 ax, 1
  000da	75 1c		 jne	 SHORT $L94905
$L94918:

; 159  : 	PARAM_ENTRY( SQL_PARAM_OUTPUT, m_wPort)

  000dc	3b fb		 cmp	 edi, ebx
  000de	89 9e 24 08 00
	00		 mov	 DWORD PTR [esi+2084], ebx
  000e4	75 12		 jne	 SHORT $L94905
  000e6	8d 96 66 0c 00
	00		 lea	 edx, DWORD PTR [esi+3174]
  000ec	52		 push	 edx
  000ed	6a 06		 push	 6
  000ef	6a 04		 push	 4
  000f1	8b ce		 mov	 ecx, esi
  000f3	e8 00 00 00 00	 call	 ?BindParam@CSqlBase@@QAEFFFPAG@Z ; CSqlBase::BindParam
$L94905:
  000f8	5f		 pop	 edi
  000f9	5e		 pop	 esi
  000fa	5b		 pop	 ebx

; 160  : END_PARAM()

  000fb	c2 04 00	 ret	 4
?BindParameters@CSPRoute@@UAEFH@Z ENDP			; CSPRoute::BindParameters
_TEXT	ENDS
PUBLIC	??1CSPRoute@@UAE@XZ				; CSPRoute::~CSPRoute
; Function compile flags: /Ogty
;	COMDAT ??_GCSPRoute@@UAEPAXI@Z
_TEXT	SEGMENT
___flags$ = 8						; size = 4
??_GCSPRoute@@UAEPAXI@Z PROC NEAR			; CSPRoute::`scalar deleting destructor', COMDAT
; _this$ = ecx
  00000	56		 push	 esi
  00001	8b f1		 mov	 esi, ecx
  00003	e8 00 00 00 00	 call	 ??1CSPRoute@@UAE@XZ
  00008	f6 44 24 08 01	 test	 BYTE PTR ___flags$[esp], 1
  0000d	74 09		 je	 SHORT $L107989
  0000f	56		 push	 esi
  00010	e8 00 00 00 00	 call	 ??3@YAXPAX@Z		; operator delete
  00015	83 c4 04	 add	 esp, 4
$L107989:
  00018	8b c6		 mov	 eax, esi
  0001a	5e		 pop	 esi
  0001b	c2 04 00	 ret	 4
??_GCSPRoute@@UAEPAXI@Z ENDP				; CSPRoute::`scalar deleting destructor'
; Function compile flags: /Ogty
_TEXT	ENDS
;	COMDAT ??1CSPRoute@@UAE@XZ
_TEXT	SEGMENT
??1CSPRoute@@UAE@XZ PROC NEAR				; CSPRoute::~CSPRoute, COMDAT
; _this$ = ecx
  00000	e9 00 00 00 00	 jmp	 ??1CSqlQuery@@UAE@XZ	; CSqlQuery::~CSqlQuery
??1CSPRoute@@UAE@XZ ENDP				; CSPRoute::~CSPRoute
_TEXT	ENDS
PUBLIC	??0CTBLGroup@@QAE@PAVCSqlDatabase@@V?$basic_string@DU?$char_traits@D@std@@V?$allocator@D@2@@std@@@Z ; CTBLGroup::CTBLGroup
PUBLIC	?GetNumCol@CTBLGroup@@UAEHXZ			; CTBLGroup::GetNumCol
PUBLIC	?BindColumns@CTBLGroup@@UAEFXZ			; CTBLGroup::BindColumns
PUBLIC	??_7CTBLGroup@@6B@				; CTBLGroup::`vftable'
PUBLIC	??_GCTBLGroup@@UAEPAXI@Z			; CTBLGroup::`scalar deleting destructor'
PUBLIC	??_C@_0GB@MBMNLBIP@SELECT?5?7bGroupID?0?5?7bType?0?5?7szNAM@ ; `string'
EXTRN	?GetNumParam@CSqlBase@@UAEHXZ:NEAR		; CSqlBase::GetNumParam
EXTRN	?BindParameters@CSqlQuery@@UAEFH@Z:NEAR		; CSqlQuery::BindParameters
EXTRN	??_ECTBLGroup@@UAEPAXI@Z:NEAR			; CTBLGroup::`vector deleting destructor'
;	COMDAT xdata$x
; File c:\program files (x86)\microsoft visual studio .net 2003\vc7\include\iosfwd
xdata$x	SEGMENT
$T108172 DD	0ffffffffH
	DD	FLAT:$L107998
$T108169 DD	019930520H
	DD	01H
	DD	FLAT:$T108172
	DD	2 DUP(00H)
	DD	2 DUP(00H)
xdata$x	ENDS
;	COMDAT ??_C@_0GB@MBMNLBIP@SELECT?5?7bGroupID?0?5?7bType?0?5?7szNAM@
CONST	SEGMENT
??_C@_0GB@MBMNLBIP@SELECT?5?7bGroupID?0?5?7bType?0?5?7szNAM@ DB 'SELECT ', 09H
	DB	'bGroupID, ', 09H, 'bType, ', 09H, 'szNAME, ', 09H, 'szDSN, ', 09H
	DB	'szUserID, ', 09H, 'szPasswd ', 09H, 'FROM TGROUP WHERE bGroup'
	DB	'ID <> 0', 00H				; `string'
CONST	ENDS
;	COMDAT ??_7CTBLGroup@@6B@
CONST	SEGMENT
??_7CTBLGroup@@6B@ DD FLAT:??_ECTBLGroup@@UAEPAXI@Z	; CTBLGroup::`vftable'
	DD	FLAT:?GetNumCol@CTBLGroup@@UAEHXZ
	DD	FLAT:?GetNumParam@CSqlBase@@UAEHXZ
	DD	FLAT:?AllocStatement@CSqlQuery@@UAEHXZ
	DD	FLAT:?BindColumns@CTBLGroup@@UAEFXZ
	DD	FLAT:?BindParameters@CSqlQuery@@UAEFH@Z
; Function compile flags: /Ogty
; File c:\users\pierr\desktop\4story - oldschool\sources\tserver\tloginsvr\dbaccess.h
CONST	ENDS
;	COMDAT ??0CTBLGroup@@QAE@PAVCSqlDatabase@@V?$basic_string@DU?$char_traits@D@std@@V?$allocator@D@2@@std@@@Z
_TEXT	SEGMENT
$T107997 = -16						; size = 4
__$EHRec$ = -12						; size = 12
_pdb$ = 8						; size = 4
_strKey$ = 12						; size = 28
??0CTBLGroup@@QAE@PAVCSqlDatabase@@V?$basic_string@DU?$char_traits@D@std@@V?$allocator@D@2@@std@@@Z PROC NEAR ; CTBLGroup::CTBLGroup, COMDAT
; _this$ = ecx

; 182  : 	FROM TGROUP WHERE bGroupID <> 0"))

  00000	6a ff		 push	 -1
  00002	68 00 00 00 00	 push	 __ehhandler$??0CTBLGroup@@QAE@PAVCSqlDatabase@@V?$basic_string@DU?$char_traits@D@std@@V?$allocator@D@2@@std@@@Z
  00007	64 a1 00 00 00
	00		 mov	 eax, DWORD PTR fs:__except_list
  0000d	50		 push	 eax
  0000e	64 89 25 00 00
	00 00		 mov	 DWORD PTR fs:__except_list, esp
  00015	51		 push	 ecx
  00016	56		 push	 esi
  00017	8b f1		 mov	 esi, ecx
  00019	68 00 00 00 00	 push	 OFFSET FLAT:??_C@_0GB@MBMNLBIP@SELECT?5?7bGroupID?0?5?7bType?0?5?7szNAM@
  0001e	83 ec 1c	 sub	 esp, 28			; 0000001cH
  00021	8b cc		 mov	 ecx, esp
  00023	33 c0		 xor	 eax, eax
  00025	89 64 24 24	 mov	 DWORD PTR $T107997[esp+52], esp
  00029	6a ff		 push	 -1
  0002b	89 41 14	 mov	 DWORD PTR [ecx+20], eax
  0002e	c7 41 18 0f 00
	00 00		 mov	 DWORD PTR [ecx+24], 15	; 0000000fH
  00035	50		 push	 eax
  00036	89 44 24 38	 mov	 DWORD PTR __$EHRec$[esp+68], eax
  0003a	88 41 04	 mov	 BYTE PTR [ecx+4], al
  0003d	8d 44 24 44	 lea	 eax, DWORD PTR _strKey$[esp+56]
  00041	50		 push	 eax
  00042	e8 00 00 00 00	 call	 ?assign@?$basic_string@DU?$char_traits@D@std@@V?$allocator@D@2@@std@@QAEAAV12@ABV12@II@Z ; std::basic_string<char,std::char_traits<char>,std::allocator<char> >::assign
  00047	8b 4c 24 38	 mov	 ecx, DWORD PTR _pdb$[esp+48]
  0004b	51		 push	 ecx
  0004c	8b ce		 mov	 ecx, esi
  0004e	e8 00 00 00 00	 call	 ??0CSqlQuery@@QAE@PAVCSqlDatabase@@V?$basic_string@DU?$char_traits@D@std@@V?$allocator@D@2@@std@@PBD@Z ; CSqlQuery::CSqlQuery
  00053	83 7c 24 34 10	 cmp	 DWORD PTR _strKey$[esp+40], 16 ; 00000010H
  00058	c7 06 00 00 00
	00		 mov	 DWORD PTR [esi], OFFSET FLAT:??_7CTBLGroup@@6B@
  0005e	72 0d		 jb	 SHORT $L108170
  00060	8b 54 24 20	 mov	 edx, DWORD PTR _strKey$[esp+20]
  00064	52		 push	 edx
  00065	e8 00 00 00 00	 call	 ??3@YAXPAX@Z		; operator delete
  0006a	83 c4 04	 add	 esp, 4
$L108170:
  0006d	8b 4c 24 08	 mov	 ecx, DWORD PTR __$EHRec$[esp+20]
  00071	8b c6		 mov	 eax, esi
  00073	64 89 0d 00 00
	00 00		 mov	 DWORD PTR fs:__except_list, ecx
  0007a	5e		 pop	 esi
  0007b	83 c4 10	 add	 esp, 16			; 00000010H
  0007e	c2 20 00	 ret	 32			; 00000020H
_TEXT	ENDS
;	COMDAT text$x
text$x	SEGMENT
$L107998:
  00000	8d 4d 08	 lea	 ecx, DWORD PTR _strKey$[ebp-4]
  00003	e9 00 00 00 00	 jmp	 ??1?$basic_string@DU?$char_traits@D@std@@V?$allocator@D@2@@std@@QAE@XZ ; std::basic_string<char,std::char_traits<char>,std::allocator<char> >::~basic_string<char,std::char_traits<char>,std::allocator<char> >
__ehhandler$??0CTBLGroup@@QAE@PAVCSqlDatabase@@V?$basic_string@DU?$char_traits@D@std@@V?$allocator@D@2@@std@@@Z:
  00008	b8 00 00 00 00	 mov	 eax, OFFSET FLAT:$T108169
  0000d	e9 00 00 00 00	 jmp	 ___CxxFrameHandler
text$x	ENDS
??0CTBLGroup@@QAE@PAVCSqlDatabase@@V?$basic_string@DU?$char_traits@D@std@@V?$allocator@D@2@@std@@@Z ENDP ; CTBLGroup::CTBLGroup
; Function compile flags: /Ogty
;	COMDAT ?GetNumCol@CTBLGroup@@UAEHXZ
_TEXT	SEGMENT
?GetNumCol@CTBLGroup@@UAEHXZ PROC NEAR			; CTBLGroup::GetNumCol, COMDAT
; _this$ = ecx

; 184  : BEGIN_COLUMN(6)

  00000	b8 06 00 00 00	 mov	 eax, 6
  00005	c3		 ret	 0
?GetNumCol@CTBLGroup@@UAEHXZ ENDP			; CTBLGroup::GetNumCol
_TEXT	ENDS
EXTRN	?BindCol@CSqlBase@@QAEFFPAE@Z:NEAR		; CSqlBase::BindCol
EXTRN	?BindColStr@CSqlBase@@QAEFFPADJ@Z:NEAR		; CSqlBase::BindColStr
; Function compile flags: /Ogty
;	COMDAT ?BindColumns@CTBLGroup@@UAEFXZ
_TEXT	SEGMENT
?BindColumns@CTBLGroup@@UAEFXZ PROC NEAR		; CTBLGroup::BindColumns, COMDAT
; _this$ = ecx

; 184  : BEGIN_COLUMN(6)

  00000	56		 push	 esi
  00001	8b f1		 mov	 esi, ecx

; 185  : 	COLUMN_ENTRY(m_bGroupID)

  00003	8d 86 2c 0c 00
	00		 lea	 eax, DWORD PTR [esi+3116]
  00009	50		 push	 eax
  0000a	6a 01		 push	 1
  0000c	e8 00 00 00 00	 call	 ?BindCol@CSqlBase@@QAEFFPAE@Z ; CSqlBase::BindCol
  00011	66 85 c0	 test	 ax, ax
  00014	74 0a		 je	 SHORT $L94966
  00016	66 3d 01 00	 cmp	 ax, 1
  0001a	0f 85 84 00 00
	00		 jne	 $L94962
$L94966:

; 186  : 	COLUMN_ENTRY(m_bType)

  00020	8d 8e 2d 0c 00
	00		 lea	 ecx, DWORD PTR [esi+3117]
  00026	51		 push	 ecx
  00027	6a 02		 push	 2
  00029	8b ce		 mov	 ecx, esi
  0002b	e8 00 00 00 00	 call	 ?BindCol@CSqlBase@@QAEFFPAE@Z ; CSqlBase::BindCol
  00030	66 85 c0	 test	 ax, ax
  00033	74 06		 je	 SHORT $L94967
  00035	66 3d 01 00	 cmp	 ax, 1
  00039	75 69		 jne	 SHORT $L94962
$L94967:

; 187  : 	COLUMN_ENTRY_STR(m_szNAME)

  0003b	6a 33		 push	 51			; 00000033H
  0003d	8d 96 2e 0c 00
	00		 lea	 edx, DWORD PTR [esi+3118]
  00043	52		 push	 edx
  00044	6a 03		 push	 3
  00046	8b ce		 mov	 ecx, esi
  00048	e8 00 00 00 00	 call	 ?BindColStr@CSqlBase@@QAEFFPADJ@Z ; CSqlBase::BindColStr
  0004d	66 85 c0	 test	 ax, ax
  00050	74 06		 je	 SHORT $L94968
  00052	66 3d 01 00	 cmp	 ax, 1
  00056	75 4c		 jne	 SHORT $L94962
$L94968:

; 188  : 	COLUMN_ENTRY_STR(m_szDSN)

  00058	6a 33		 push	 51			; 00000033H
  0005a	8d 86 61 0c 00
	00		 lea	 eax, DWORD PTR [esi+3169]
  00060	50		 push	 eax
  00061	6a 04		 push	 4
  00063	8b ce		 mov	 ecx, esi
  00065	e8 00 00 00 00	 call	 ?BindColStr@CSqlBase@@QAEFFPADJ@Z ; CSqlBase::BindColStr
  0006a	66 85 c0	 test	 ax, ax
  0006d	74 06		 je	 SHORT $L94969
  0006f	66 3d 01 00	 cmp	 ax, 1
  00073	75 2f		 jne	 SHORT $L94962
$L94969:

; 189  : 	COLUMN_ENTRY_STR(m_szDBUser)

  00075	6a 33		 push	 51			; 00000033H
  00077	8d 8e 94 0c 00
	00		 lea	 ecx, DWORD PTR [esi+3220]
  0007d	51		 push	 ecx
  0007e	6a 05		 push	 5
  00080	8b ce		 mov	 ecx, esi
  00082	e8 00 00 00 00	 call	 ?BindColStr@CSqlBase@@QAEFFPADJ@Z ; CSqlBase::BindColStr
  00087	66 85 c0	 test	 ax, ax
  0008a	74 06		 je	 SHORT $L94970
  0008c	66 3d 01 00	 cmp	 ax, 1
  00090	75 12		 jne	 SHORT $L94962
$L94970:

; 190  : 	COLUMN_ENTRY_STR(m_szPasswd)

  00092	6a 33		 push	 51			; 00000033H
  00094	8d 96 c7 0c 00
	00		 lea	 edx, DWORD PTR [esi+3271]
  0009a	52		 push	 edx
  0009b	6a 06		 push	 6
  0009d	8b ce		 mov	 ecx, esi
  0009f	e8 00 00 00 00	 call	 ?BindColStr@CSqlBase@@QAEFFPADJ@Z ; CSqlBase::BindColStr
$L94962:
  000a4	5e		 pop	 esi

; 191  : END_COL()

  000a5	c3		 ret	 0
?BindColumns@CTBLGroup@@UAEFXZ ENDP			; CTBLGroup::BindColumns
_TEXT	ENDS
PUBLIC	??1CTBLGroup@@UAE@XZ				; CTBLGroup::~CTBLGroup
; Function compile flags: /Ogty
;	COMDAT ??_GCTBLGroup@@UAEPAXI@Z
_TEXT	SEGMENT
___flags$ = 8						; size = 4
??_GCTBLGroup@@UAEPAXI@Z PROC NEAR			; CTBLGroup::`scalar deleting destructor', COMDAT
; _this$ = ecx
  00000	56		 push	 esi
  00001	8b f1		 mov	 esi, ecx
  00003	e8 00 00 00 00	 call	 ??1CTBLGroup@@UAE@XZ
  00008	f6 44 24 08 01	 test	 BYTE PTR ___flags$[esp], 1
  0000d	74 09		 je	 SHORT $L108184
  0000f	56		 push	 esi
  00010	e8 00 00 00 00	 call	 ??3@YAXPAX@Z		; operator delete
  00015	83 c4 04	 add	 esp, 4
$L108184:
  00018	8b c6		 mov	 eax, esi
  0001a	5e		 pop	 esi
  0001b	c2 04 00	 ret	 4
??_GCTBLGroup@@UAEPAXI@Z ENDP				; CTBLGroup::`scalar deleting destructor'
; Function compile flags: /Ogty
_TEXT	ENDS
;	COMDAT ??1CTBLGroup@@UAE@XZ
_TEXT	SEGMENT
??1CTBLGroup@@UAE@XZ PROC NEAR				; CTBLGroup::~CTBLGroup, COMDAT
; _this$ = ecx
  00000	e9 00 00 00 00	 jmp	 ??1CSqlQuery@@UAE@XZ	; CSqlQuery::~CSqlQuery
??1CTBLGroup@@UAE@XZ ENDP				; CTBLGroup::~CTBLGroup
_TEXT	ENDS
PUBLIC	??0CTBLChannel@@QAE@PAVCSqlDatabase@@V?$basic_string@DU?$char_traits@D@std@@V?$allocator@D@2@@std@@@Z ; CTBLChannel::CTBLChannel
PUBLIC	?GetNumCol@CTBLChannel@@UAEHXZ			; CTBLChannel::GetNumCol
PUBLIC	?BindColumns@CTBLChannel@@UAEFXZ		; CTBLChannel::BindColumns
PUBLIC	?GetNumParam@CTBLChannel@@UAEHXZ		; CTBLChannel::GetNumParam
PUBLIC	?BindParameters@CTBLChannel@@UAEFH@Z		; CTBLChannel::BindParameters
PUBLIC	??_7CTBLChannel@@6B@				; CTBLChannel::`vftable'
PUBLIC	??_GCTBLChannel@@UAEPAXI@Z			; CTBLChannel::`scalar deleting destructor'
PUBLIC	??_C@_0BKB@KHNGDDLC@SELECT?5?7TCHANNEL?4bChannel?0?5?7TCHA@ ; `string'
EXTRN	??_ECTBLChannel@@UAEPAXI@Z:NEAR			; CTBLChannel::`vector deleting destructor'
;	COMDAT xdata$x
; File c:\program files (x86)\microsoft visual studio .net 2003\vc7\include\iosfwd
xdata$x	SEGMENT
$T108367 DD	0ffffffffH
	DD	FLAT:$L108193
$T108364 DD	019930520H
	DD	01H
	DD	FLAT:$T108367
	DD	2 DUP(00H)
	DD	2 DUP(00H)
xdata$x	ENDS
;	COMDAT ??_C@_0BKB@KHNGDDLC@SELECT?5?7TCHANNEL?4bChannel?0?5?7TCHA@
CONST	SEGMENT
??_C@_0BKB@KHNGDDLC@SELECT?5?7TCHANNEL?4bChannel?0?5?7TCHA@ DB 'SELECT ', 09H
	DB	'TCHANNEL.bChannel, ', 09H, 'TCHANNEL.szNAME, ', 09H, 'TCHANNE'
	DB	'L.bStatus, ', 09H, 'TCHANNEL.wFull, ', 09H, 'TCHANNEL.wBusy, '
	DB	09H, 'COUNT(TCURRENTUSER.dwKEY) FROM TCHANNEL ', 09H, 'LEFT OU'
	DB	'TER JOIN TCURRENTUSER ON ', 09H, 'TCHANNEL.bGroupID = TCURREN'
	DB	'TUSER.bGroupID AND ', 09H, 'TCHANNEL.bChannel = TCURRENTUSER.'
	DB	'bChannel ', 09H, 'WHERE TCHANNEL.bStatus <> 0 AND TCHANNEL.bG'
	DB	'roupID = ? ', 09H, 'GROUP BY ', 09H, 'TCHANNEL.bChannel, ', 09H
	DB	'TCHANNEL.szNAME, ', 09H, 'TCHANNEL.bStatus, ', 09H, 'TCHANNEL'
	DB	'.wFull, ', 09H, 'TCHANNEL.wBusy', 00H	; `string'
CONST	ENDS
;	COMDAT ??_7CTBLChannel@@6B@
CONST	SEGMENT
??_7CTBLChannel@@6B@ DD FLAT:??_ECTBLChannel@@UAEPAXI@Z	; CTBLChannel::`vftable'
	DD	FLAT:?GetNumCol@CTBLChannel@@UAEHXZ
	DD	FLAT:?GetNumParam@CTBLChannel@@UAEHXZ
	DD	FLAT:?AllocStatement@CSqlQuery@@UAEHXZ
	DD	FLAT:?BindColumns@CTBLChannel@@UAEFXZ
	DD	FLAT:?BindParameters@CTBLChannel@@UAEFH@Z
; Function compile flags: /Ogty
; File c:\users\pierr\desktop\4story - oldschool\sources\tserver\tloginsvr\dbaccess.h
CONST	ENDS
;	COMDAT ??0CTBLChannel@@QAE@PAVCSqlDatabase@@V?$basic_string@DU?$char_traits@D@std@@V?$allocator@D@2@@std@@@Z
_TEXT	SEGMENT
$T108192 = -16						; size = 4
__$EHRec$ = -12						; size = 12
_pdb$ = 8						; size = 4
_strKey$ = 12						; size = 28
??0CTBLChannel@@QAE@PAVCSqlDatabase@@V?$basic_string@DU?$char_traits@D@std@@V?$allocator@D@2@@std@@@Z PROC NEAR ; CTBLChannel::CTBLChannel, COMDAT
; _this$ = ecx

; 224  : 	TCHANNEL.wBusy"))

  00000	6a ff		 push	 -1
  00002	68 00 00 00 00	 push	 __ehhandler$??0CTBLChannel@@QAE@PAVCSqlDatabase@@V?$basic_string@DU?$char_traits@D@std@@V?$allocator@D@2@@std@@@Z
  00007	64 a1 00 00 00
	00		 mov	 eax, DWORD PTR fs:__except_list
  0000d	50		 push	 eax
  0000e	64 89 25 00 00
	00 00		 mov	 DWORD PTR fs:__except_list, esp
  00015	51		 push	 ecx
  00016	56		 push	 esi
  00017	8b f1		 mov	 esi, ecx
  00019	68 00 00 00 00	 push	 OFFSET FLAT:??_C@_0BKB@KHNGDDLC@SELECT?5?7TCHANNEL?4bChannel?0?5?7TCHA@
  0001e	83 ec 1c	 sub	 esp, 28			; 0000001cH
  00021	8b cc		 mov	 ecx, esp
  00023	33 c0		 xor	 eax, eax
  00025	89 64 24 24	 mov	 DWORD PTR $T108192[esp+52], esp
  00029	6a ff		 push	 -1
  0002b	89 41 14	 mov	 DWORD PTR [ecx+20], eax
  0002e	c7 41 18 0f 00
	00 00		 mov	 DWORD PTR [ecx+24], 15	; 0000000fH
  00035	50		 push	 eax
  00036	89 44 24 38	 mov	 DWORD PTR __$EHRec$[esp+68], eax
  0003a	88 41 04	 mov	 BYTE PTR [ecx+4], al
  0003d	8d 44 24 44	 lea	 eax, DWORD PTR _strKey$[esp+56]
  00041	50		 push	 eax
  00042	e8 00 00 00 00	 call	 ?assign@?$basic_string@DU?$char_traits@D@std@@V?$allocator@D@2@@std@@QAEAAV12@ABV12@II@Z ; std::basic_string<char,std::char_traits<char>,std::allocator<char> >::assign
  00047	8b 4c 24 38	 mov	 ecx, DWORD PTR _pdb$[esp+48]
  0004b	51		 push	 ecx
  0004c	8b ce		 mov	 ecx, esi
  0004e	e8 00 00 00 00	 call	 ??0CSqlQuery@@QAE@PAVCSqlDatabase@@V?$basic_string@DU?$char_traits@D@std@@V?$allocator@D@2@@std@@PBD@Z ; CSqlQuery::CSqlQuery
  00053	83 7c 24 34 10	 cmp	 DWORD PTR _strKey$[esp+40], 16 ; 00000010H
  00058	c7 06 00 00 00
	00		 mov	 DWORD PTR [esi], OFFSET FLAT:??_7CTBLChannel@@6B@
  0005e	72 0d		 jb	 SHORT $L108365
  00060	8b 54 24 20	 mov	 edx, DWORD PTR _strKey$[esp+20]
  00064	52		 push	 edx
  00065	e8 00 00 00 00	 call	 ??3@YAXPAX@Z		; operator delete
  0006a	83 c4 04	 add	 esp, 4
$L108365:
  0006d	8b 4c 24 08	 mov	 ecx, DWORD PTR __$EHRec$[esp+20]
  00071	8b c6		 mov	 eax, esi
  00073	64 89 0d 00 00
	00 00		 mov	 DWORD PTR fs:__except_list, ecx
  0007a	5e		 pop	 esi
  0007b	83 c4 10	 add	 esp, 16			; 00000010H
  0007e	c2 20 00	 ret	 32			; 00000020H
_TEXT	ENDS
;	COMDAT text$x
text$x	SEGMENT
$L108193:
  00000	8d 4d 08	 lea	 ecx, DWORD PTR _strKey$[ebp-4]
  00003	e9 00 00 00 00	 jmp	 ??1?$basic_string@DU?$char_traits@D@std@@V?$allocator@D@2@@std@@QAE@XZ ; std::basic_string<char,std::char_traits<char>,std::allocator<char> >::~basic_string<char,std::char_traits<char>,std::allocator<char> >
__ehhandler$??0CTBLChannel@@QAE@PAVCSqlDatabase@@V?$basic_string@DU?$char_traits@D@std@@V?$allocator@D@2@@std@@@Z:
  00008	b8 00 00 00 00	 mov	 eax, OFFSET FLAT:$T108364
  0000d	e9 00 00 00 00	 jmp	 ___CxxFrameHandler
text$x	ENDS
??0CTBLChannel@@QAE@PAVCSqlDatabase@@V?$basic_string@DU?$char_traits@D@std@@V?$allocator@D@2@@std@@@Z ENDP ; CTBLChannel::CTBLChannel
; Function compile flags: /Ogty
;	COMDAT ?GetNumCol@CTBLChannel@@UAEHXZ
_TEXT	SEGMENT
?GetNumCol@CTBLChannel@@UAEHXZ PROC NEAR		; CTBLChannel::GetNumCol, COMDAT
; _this$ = ecx

; 226  : BEGIN_COLUMN(6)

  00000	b8 06 00 00 00	 mov	 eax, 6
  00005	c3		 ret	 0
?GetNumCol@CTBLChannel@@UAEHXZ ENDP			; CTBLChannel::GetNumCol
_TEXT	ENDS
EXTRN	?BindCol@CSqlBase@@QAEFFPAK@Z:NEAR		; CSqlBase::BindCol
EXTRN	?BindCol@CSqlBase@@QAEFFPAG@Z:NEAR		; CSqlBase::BindCol
; Function compile flags: /Ogty
;	COMDAT ?BindColumns@CTBLChannel@@UAEFXZ
_TEXT	SEGMENT
?BindColumns@CTBLChannel@@UAEFXZ PROC NEAR		; CTBLChannel::BindColumns, COMDAT
; _this$ = ecx

; 226  : BEGIN_COLUMN(6)

  00000	56		 push	 esi
  00001	8b f1		 mov	 esi, ecx

; 227  : 	COLUMN_ENTRY(m_bChannel)

  00003	8d 86 65 0c 00
	00		 lea	 eax, DWORD PTR [esi+3173]
  00009	50		 push	 eax
  0000a	6a 01		 push	 1
  0000c	e8 00 00 00 00	 call	 ?BindCol@CSqlBase@@QAEFFPAE@Z ; CSqlBase::BindCol
  00011	66 85 c0	 test	 ax, ax
  00014	74 06		 je	 SHORT $L95021
  00016	66 3d 01 00	 cmp	 ax, 1
  0001a	75 7e		 jne	 SHORT $L95017
$L95021:

; 228  : 	COLUMN_ENTRY_STR(m_szNAME)

  0001c	6a 33		 push	 51			; 00000033H
  0001e	8d 8e 2c 0c 00
	00		 lea	 ecx, DWORD PTR [esi+3116]
  00024	51		 push	 ecx
  00025	6a 02		 push	 2
  00027	8b ce		 mov	 ecx, esi
  00029	e8 00 00 00 00	 call	 ?BindColStr@CSqlBase@@QAEFFPADJ@Z ; CSqlBase::BindColStr
  0002e	66 85 c0	 test	 ax, ax
  00031	74 06		 je	 SHORT $L95022
  00033	66 3d 01 00	 cmp	 ax, 1
  00037	75 61		 jne	 SHORT $L95017
$L95022:

; 229  : 	COLUMN_ENTRY(m_bStatus)

  00039	8d 96 66 0c 00
	00		 lea	 edx, DWORD PTR [esi+3174]
  0003f	52		 push	 edx
  00040	6a 03		 push	 3
  00042	8b ce		 mov	 ecx, esi
  00044	e8 00 00 00 00	 call	 ?BindCol@CSqlBase@@QAEFFPAE@Z ; CSqlBase::BindCol
  00049	66 85 c0	 test	 ax, ax
  0004c	74 06		 je	 SHORT $L95023
  0004e	66 3d 01 00	 cmp	 ax, 1
  00052	75 46		 jne	 SHORT $L95017
$L95023:

; 230  : 	COLUMN_ENTRY(m_wFull)

  00054	8d 86 68 0c 00
	00		 lea	 eax, DWORD PTR [esi+3176]
  0005a	50		 push	 eax
  0005b	6a 04		 push	 4
  0005d	8b ce		 mov	 ecx, esi
  0005f	e8 00 00 00 00	 call	 ?BindCol@CSqlBase@@QAEFFPAG@Z ; CSqlBase::BindCol
  00064	66 85 c0	 test	 ax, ax
  00067	74 06		 je	 SHORT $L95024
  00069	66 3d 01 00	 cmp	 ax, 1
  0006d	75 2b		 jne	 SHORT $L95017
$L95024:

; 231  : 	COLUMN_ENTRY(m_wBusy)

  0006f	8d 8e 6a 0c 00
	00		 lea	 ecx, DWORD PTR [esi+3178]
  00075	51		 push	 ecx
  00076	6a 05		 push	 5
  00078	8b ce		 mov	 ecx, esi
  0007a	e8 00 00 00 00	 call	 ?BindCol@CSqlBase@@QAEFFPAG@Z ; CSqlBase::BindCol
  0007f	66 85 c0	 test	 ax, ax
  00082	74 06		 je	 SHORT $L95025
  00084	66 3d 01 00	 cmp	 ax, 1
  00088	75 10		 jne	 SHORT $L95017
$L95025:

; 232  : 	COLUMN_ENTRY(m_dwCount)

  0008a	8d 96 60 0c 00
	00		 lea	 edx, DWORD PTR [esi+3168]
  00090	52		 push	 edx
  00091	6a 06		 push	 6
  00093	8b ce		 mov	 ecx, esi
  00095	e8 00 00 00 00	 call	 ?BindCol@CSqlBase@@QAEFFPAK@Z ; CSqlBase::BindCol
$L95017:
  0009a	5e		 pop	 esi

; 233  : END_COL()

  0009b	c3		 ret	 0
?BindColumns@CTBLChannel@@UAEFXZ ENDP			; CTBLChannel::BindColumns
; Function compile flags: /Ogty
_TEXT	ENDS
;	COMDAT ?GetNumParam@CTBLChannel@@UAEHXZ
_TEXT	SEGMENT
?GetNumParam@CTBLChannel@@UAEHXZ PROC NEAR		; CTBLChannel::GetNumParam, COMDAT
; _this$ = ecx

; 235  : BEGIN_PARAM(1)

  00000	b8 01 00 00 00	 mov	 eax, 1
  00005	c3		 ret	 0
?GetNumParam@CTBLChannel@@UAEHXZ ENDP			; CTBLChannel::GetNumParam
; Function compile flags: /Ogty
_TEXT	ENDS
;	COMDAT ?BindParameters@CTBLChannel@@UAEFH@Z
_TEXT	SEGMENT
_bRewind$ = 8						; size = 4
?BindParameters@CTBLChannel@@UAEFH@Z PROC NEAR		; CTBLChannel::BindParameters, COMDAT
; _this$ = ecx

; 236  : 	PARAM_ENTRY( SQL_PARAM_INPUT, m_bGroupID)

  00000	8b 54 24 04	 mov	 edx, DWORD PTR _bRewind$[esp-4]
  00004	33 c0		 xor	 eax, eax
  00006	85 d2		 test	 edx, edx
  00008	89 81 10 08 00
	00		 mov	 DWORD PTR [ecx+2064], eax
  0000e	75 10		 jne	 SHORT $L95031
  00010	8d 81 64 0c 00
	00		 lea	 eax, DWORD PTR [ecx+3172]
  00016	50		 push	 eax
  00017	6a 01		 push	 1
  00019	6a 01		 push	 1
  0001b	e8 00 00 00 00	 call	 ?BindParam@CSqlBase@@QAEFFFPAE@Z ; CSqlBase::BindParam
$L95031:

; 237  : END_PARAM()

  00020	c2 04 00	 ret	 4
?BindParameters@CTBLChannel@@UAEFH@Z ENDP		; CTBLChannel::BindParameters
_TEXT	ENDS
PUBLIC	??1CTBLChannel@@UAE@XZ				; CTBLChannel::~CTBLChannel
; Function compile flags: /Ogty
;	COMDAT ??_GCTBLChannel@@UAEPAXI@Z
_TEXT	SEGMENT
___flags$ = 8						; size = 4
??_GCTBLChannel@@UAEPAXI@Z PROC NEAR			; CTBLChannel::`scalar deleting destructor', COMDAT
; _this$ = ecx
  00000	56		 push	 esi
  00001	8b f1		 mov	 esi, ecx
  00003	e8 00 00 00 00	 call	 ??1CTBLChannel@@UAE@XZ
  00008	f6 44 24 08 01	 test	 BYTE PTR ___flags$[esp], 1
  0000d	74 09		 je	 SHORT $L108385
  0000f	56		 push	 esi
  00010	e8 00 00 00 00	 call	 ??3@YAXPAX@Z		; operator delete
  00015	83 c4 04	 add	 esp, 4
$L108385:
  00018	8b c6		 mov	 eax, esi
  0001a	5e		 pop	 esi
  0001b	c2 04 00	 ret	 4
??_GCTBLChannel@@UAEPAXI@Z ENDP				; CTBLChannel::`scalar deleting destructor'
; Function compile flags: /Ogty
_TEXT	ENDS
;	COMDAT ??1CTBLChannel@@UAE@XZ
_TEXT	SEGMENT
??1CTBLChannel@@UAE@XZ PROC NEAR			; CTBLChannel::~CTBLChannel, COMDAT
; _this$ = ecx
  00000	e9 00 00 00 00	 jmp	 ??1CSqlQuery@@UAE@XZ	; CSqlQuery::~CSqlQuery
??1CTBLChannel@@UAE@XZ ENDP				; CTBLChannel::~CTBLChannel
_TEXT	ENDS
PUBLIC	??0CTBLGroupList@@QAE@PAVCSqlDatabase@@V?$basic_string@DU?$char_traits@D@std@@V?$allocator@D@2@@std@@@Z ; CTBLGroupList::CTBLGroupList
PUBLIC	?GetNumCol@CTBLGroupList@@UAEHXZ		; CTBLGroupList::GetNumCol
PUBLIC	?BindColumns@CTBLGroupList@@UAEFXZ		; CTBLGroupList::BindColumns
PUBLIC	?GetNumParam@CTBLGroupList@@UAEHXZ		; CTBLGroupList::GetNumParam
PUBLIC	?BindParameters@CTBLGroupList@@UAEFH@Z		; CTBLGroupList::BindParameters
PUBLIC	??_7CTBLGroupList@@6B@				; CTBLGroupList::`vftable'
PUBLIC	??_GCTBLGroupList@@UAEPAXI@Z			; CTBLGroupList::`scalar deleting destructor'
PUBLIC	??_C@_0CFG@KLCBDFHC@SELECT?5?7TGROUP?4bGroupID?0?5?7TGROUP@ ; `string'
EXTRN	??_ECTBLGroupList@@UAEPAXI@Z:NEAR		; CTBLGroupList::`vector deleting destructor'
;	COMDAT xdata$x
; File c:\program files (x86)\microsoft visual studio .net 2003\vc7\include\iosfwd
xdata$x	SEGMENT
$T108568 DD	0ffffffffH
	DD	FLAT:$L108394
$T108565 DD	019930520H
	DD	01H
	DD	FLAT:$T108568
	DD	2 DUP(00H)
	DD	2 DUP(00H)
xdata$x	ENDS
;	COMDAT ??_C@_0CFG@KLCBDFHC@SELECT?5?7TGROUP?4bGroupID?0?5?7TGROUP@
CONST	SEGMENT
??_C@_0CFG@KLCBDFHC@SELECT?5?7TGROUP?4bGroupID?0?5?7TGROUP@ DB 'SELECT ', 09H
	DB	'TGROUP.bGroupID, ', 09H, 'TGROUP.bType, ', 09H, 'TGROUP.szNAM'
	DB	'E, ', 09H, 'TGROUP.bStatus, ', 09H, 'TGROUP.wFull, ', 09H, 'T'
	DB	'GROUP.wBusy, ', 09H, 'TGROUP.dwMaxUser, ', 09H, 'COUNT(DISTIN'
	DB	'CT TCURRENTUSER.dwKEY), ', 09H, 'COUNT(DISTINCT TALLCHARTABLE'
	DB	'.dwCharID) ', 09H, 'FROM TGROUP LEFT OUTER JOIN TCURRENTUSER '
	DB	'ON ', 09H, 'TGROUP.bGroupID = TCURRENTUSER.bGroupID ', 09H, 'L'
	DB	'EFT OUTER JOIN TALLCHARTABLE ON ', 09H, 'TGROUP.bGroupID = TA'
	DB	'LLCHARTABLE.bWorldID AND ', 09H, 'TALLCHARTABLE.dwUserID = ? '
	DB	'AND TALLCHARTABLE.bDelete = 0 ', 09H, 'WHERE TGROUP.bStatus <'
	DB	'> 0 ', 09H, 'GROUP BY TGROUP.bGroupID, ', 09H, 'TGROUP.bType,'
	DB	' ', 09H, 'TGROUP.szNAME, ', 09H, 'TGROUP.bStatus, ', 09H, 'TG'
	DB	'ROUP.wFull, ', 09H, 'TGROUP.wBusy, ', 09H, 'TGROUP.dwMaxUser,'
	DB	' ', 09H, 'TALLCHARTABLE.dwUserID', 00H	; `string'
CONST	ENDS
;	COMDAT ??_7CTBLGroupList@@6B@
CONST	SEGMENT
??_7CTBLGroupList@@6B@ DD FLAT:??_ECTBLGroupList@@UAEPAXI@Z ; CTBLGroupList::`vftable'
	DD	FLAT:?GetNumCol@CTBLGroupList@@UAEHXZ
	DD	FLAT:?GetNumParam@CTBLGroupList@@UAEHXZ
	DD	FLAT:?AllocStatement@CSqlQuery@@UAEHXZ
	DD	FLAT:?BindColumns@CTBLGroupList@@UAEFXZ
	DD	FLAT:?BindParameters@CTBLGroupList@@UAEFH@Z
; Function compile flags: /Ogty
; File c:\users\pierr\desktop\4story - oldschool\sources\tserver\tloginsvr\dbaccess.h
CONST	ENDS
;	COMDAT ??0CTBLGroupList@@QAE@PAVCSqlDatabase@@V?$basic_string@DU?$char_traits@D@std@@V?$allocator@D@2@@std@@@Z
_TEXT	SEGMENT
$T108393 = -16						; size = 4
__$EHRec$ = -12						; size = 12
_pdb$ = 8						; size = 4
_strKey$ = 12						; size = 28
??0CTBLGroupList@@QAE@PAVCSqlDatabase@@V?$basic_string@DU?$char_traits@D@std@@V?$allocator@D@2@@std@@@Z PROC NEAR ; CTBLGroupList::CTBLGroupList, COMDAT
; _this$ = ecx

; 279  : 	TALLCHARTABLE.dwUserID"))

  00000	6a ff		 push	 -1
  00002	68 00 00 00 00	 push	 __ehhandler$??0CTBLGroupList@@QAE@PAVCSqlDatabase@@V?$basic_string@DU?$char_traits@D@std@@V?$allocator@D@2@@std@@@Z
  00007	64 a1 00 00 00
	00		 mov	 eax, DWORD PTR fs:__except_list
  0000d	50		 push	 eax
  0000e	64 89 25 00 00
	00 00		 mov	 DWORD PTR fs:__except_list, esp
  00015	51		 push	 ecx
  00016	56		 push	 esi
  00017	8b f1		 mov	 esi, ecx
  00019	68 00 00 00 00	 push	 OFFSET FLAT:??_C@_0CFG@KLCBDFHC@SELECT?5?7TGROUP?4bGroupID?0?5?7TGROUP@
  0001e	83 ec 1c	 sub	 esp, 28			; 0000001cH
  00021	8b cc		 mov	 ecx, esp
  00023	33 c0		 xor	 eax, eax
  00025	89 64 24 24	 mov	 DWORD PTR $T108393[esp+52], esp
  00029	6a ff		 push	 -1
  0002b	89 41 14	 mov	 DWORD PTR [ecx+20], eax
  0002e	c7 41 18 0f 00
	00 00		 mov	 DWORD PTR [ecx+24], 15	; 0000000fH
  00035	50		 push	 eax
  00036	89 44 24 38	 mov	 DWORD PTR __$EHRec$[esp+68], eax
  0003a	88 41 04	 mov	 BYTE PTR [ecx+4], al
  0003d	8d 44 24 44	 lea	 eax, DWORD PTR _strKey$[esp+56]
  00041	50		 push	 eax
  00042	e8 00 00 00 00	 call	 ?assign@?$basic_string@DU?$char_traits@D@std@@V?$allocator@D@2@@std@@QAEAAV12@ABV12@II@Z ; std::basic_string<char,std::char_traits<char>,std::allocator<char> >::assign
  00047	8b 4c 24 38	 mov	 ecx, DWORD PTR _pdb$[esp+48]
  0004b	51		 push	 ecx
  0004c	8b ce		 mov	 ecx, esi
  0004e	e8 00 00 00 00	 call	 ??0CSqlQuery@@QAE@PAVCSqlDatabase@@V?$basic_string@DU?$char_traits@D@std@@V?$allocator@D@2@@std@@PBD@Z ; CSqlQuery::CSqlQuery
  00053	83 7c 24 34 10	 cmp	 DWORD PTR _strKey$[esp+40], 16 ; 00000010H
  00058	c7 06 00 00 00
	00		 mov	 DWORD PTR [esi], OFFSET FLAT:??_7CTBLGroupList@@6B@
  0005e	72 0d		 jb	 SHORT $L108566
  00060	8b 54 24 20	 mov	 edx, DWORD PTR _strKey$[esp+20]
  00064	52		 push	 edx
  00065	e8 00 00 00 00	 call	 ??3@YAXPAX@Z		; operator delete
  0006a	83 c4 04	 add	 esp, 4
$L108566:
  0006d	8b 4c 24 08	 mov	 ecx, DWORD PTR __$EHRec$[esp+20]
  00071	8b c6		 mov	 eax, esi
  00073	64 89 0d 00 00
	00 00		 mov	 DWORD PTR fs:__except_list, ecx
  0007a	5e		 pop	 esi
  0007b	83 c4 10	 add	 esp, 16			; 00000010H
  0007e	c2 20 00	 ret	 32			; 00000020H
_TEXT	ENDS
;	COMDAT text$x
text$x	SEGMENT
$L108394:
  00000	8d 4d 08	 lea	 ecx, DWORD PTR _strKey$[ebp-4]
  00003	e9 00 00 00 00	 jmp	 ??1?$basic_string@DU?$char_traits@D@std@@V?$allocator@D@2@@std@@QAE@XZ ; std::basic_string<char,std::char_traits<char>,std::allocator<char> >::~basic_string<char,std::char_traits<char>,std::allocator<char> >
__ehhandler$??0CTBLGroupList@@QAE@PAVCSqlDatabase@@V?$basic_string@DU?$char_traits@D@std@@V?$allocator@D@2@@std@@@Z:
  00008	b8 00 00 00 00	 mov	 eax, OFFSET FLAT:$T108565
  0000d	e9 00 00 00 00	 jmp	 ___CxxFrameHandler
text$x	ENDS
??0CTBLGroupList@@QAE@PAVCSqlDatabase@@V?$basic_string@DU?$char_traits@D@std@@V?$allocator@D@2@@std@@@Z ENDP ; CTBLGroupList::CTBLGroupList
; Function compile flags: /Ogty
;	COMDAT ?GetNumCol@CTBLGroupList@@UAEHXZ
_TEXT	SEGMENT
?GetNumCol@CTBLGroupList@@UAEHXZ PROC NEAR		; CTBLGroupList::GetNumCol, COMDAT
; _this$ = ecx

; 281  : BEGIN_COLUMN(9)

  00000	b8 09 00 00 00	 mov	 eax, 9
  00005	c3		 ret	 0
?GetNumCol@CTBLGroupList@@UAEHXZ ENDP			; CTBLGroupList::GetNumCol
; Function compile flags: /Ogty
_TEXT	ENDS
;	COMDAT ?BindColumns@CTBLGroupList@@UAEFXZ
_TEXT	SEGMENT
?BindColumns@CTBLGroupList@@UAEFXZ PROC NEAR		; CTBLGroupList::BindColumns, COMDAT
; _this$ = ecx

; 281  : BEGIN_COLUMN(9)

  00000	56		 push	 esi
  00001	8b f1		 mov	 esi, ecx

; 282  : 	COLUMN_ENTRY(m_bGroupID)

  00003	8d 86 68 0c 00
	00		 lea	 eax, DWORD PTR [esi+3176]
  00009	50		 push	 eax
  0000a	6a 01		 push	 1
  0000c	e8 00 00 00 00	 call	 ?BindCol@CSqlBase@@QAEFFPAE@Z ; CSqlBase::BindCol
  00011	66 85 c0	 test	 ax, ax
  00014	74 0a		 je	 SHORT $L95089
  00016	66 3d 01 00	 cmp	 ax, 1
  0001a	0f 85 d7 00 00
	00		 jne	 $L95085
$L95089:

; 283  : 	COLUMN_ENTRY(m_bType)

  00020	8d 8e 6a 0c 00
	00		 lea	 ecx, DWORD PTR [esi+3178]
  00026	51		 push	 ecx
  00027	6a 02		 push	 2
  00029	8b ce		 mov	 ecx, esi
  0002b	e8 00 00 00 00	 call	 ?BindCol@CSqlBase@@QAEFFPAE@Z ; CSqlBase::BindCol
  00030	66 85 c0	 test	 ax, ax
  00033	74 0a		 je	 SHORT $L95090
  00035	66 3d 01 00	 cmp	 ax, 1
  00039	0f 85 b8 00 00
	00		 jne	 $L95085
$L95090:

; 284  : 	COLUMN_ENTRY_STR(m_szNAME)

  0003f	6a 33		 push	 51			; 00000033H
  00041	8d 96 2c 0c 00
	00		 lea	 edx, DWORD PTR [esi+3116]
  00047	52		 push	 edx
  00048	6a 03		 push	 3
  0004a	8b ce		 mov	 ecx, esi
  0004c	e8 00 00 00 00	 call	 ?BindColStr@CSqlBase@@QAEFFPADJ@Z ; CSqlBase::BindColStr
  00051	66 85 c0	 test	 ax, ax
  00054	74 0a		 je	 SHORT $L95091
  00056	66 3d 01 00	 cmp	 ax, 1
  0005a	0f 85 97 00 00
	00		 jne	 $L95085
$L95091:

; 285  : 	COLUMN_ENTRY(m_bStatus)

  00060	8d 86 69 0c 00
	00		 lea	 eax, DWORD PTR [esi+3177]
  00066	50		 push	 eax
  00067	6a 04		 push	 4
  00069	8b ce		 mov	 ecx, esi
  0006b	e8 00 00 00 00	 call	 ?BindCol@CSqlBase@@QAEFFPAE@Z ; CSqlBase::BindCol
  00070	66 85 c0	 test	 ax, ax
  00073	74 06		 je	 SHORT $L95092
  00075	66 3d 01 00	 cmp	 ax, 1
  00079	75 7c		 jne	 SHORT $L95085
$L95092:

; 286  : 	COLUMN_ENTRY(m_wFull)

  0007b	8d 8e 6c 0c 00
	00		 lea	 ecx, DWORD PTR [esi+3180]
  00081	51		 push	 ecx
  00082	6a 05		 push	 5
  00084	8b ce		 mov	 ecx, esi
  00086	e8 00 00 00 00	 call	 ?BindCol@CSqlBase@@QAEFFPAG@Z ; CSqlBase::BindCol
  0008b	66 85 c0	 test	 ax, ax
  0008e	74 06		 je	 SHORT $L95093
  00090	66 3d 01 00	 cmp	 ax, 1
  00094	75 61		 jne	 SHORT $L95085
$L95093:

; 287  : 	COLUMN_ENTRY(m_wBusy)

  00096	8d 96 6e 0c 00
	00		 lea	 edx, DWORD PTR [esi+3182]
  0009c	52		 push	 edx
  0009d	6a 06		 push	 6
  0009f	8b ce		 mov	 ecx, esi
  000a1	e8 00 00 00 00	 call	 ?BindCol@CSqlBase@@QAEFFPAG@Z ; CSqlBase::BindCol
  000a6	66 85 c0	 test	 ax, ax
  000a9	74 06		 je	 SHORT $L95094
  000ab	66 3d 01 00	 cmp	 ax, 1
  000af	75 46		 jne	 SHORT $L95085
$L95094:

; 288  : 	COLUMN_ENTRY(m_dwMaxUser)

  000b1	8d 86 70 0c 00
	00		 lea	 eax, DWORD PTR [esi+3184]
  000b7	50		 push	 eax
  000b8	6a 07		 push	 7
  000ba	8b ce		 mov	 ecx, esi
  000bc	e8 00 00 00 00	 call	 ?BindCol@CSqlBase@@QAEFFPAK@Z ; CSqlBase::BindCol
  000c1	66 85 c0	 test	 ax, ax
  000c4	74 06		 je	 SHORT $L95095
  000c6	66 3d 01 00	 cmp	 ax, 1
  000ca	75 2b		 jne	 SHORT $L95085
$L95095:

; 289  : 	COLUMN_ENTRY(m_dwCount)

  000cc	8d 8e 60 0c 00
	00		 lea	 ecx, DWORD PTR [esi+3168]
  000d2	51		 push	 ecx
  000d3	6a 08		 push	 8
  000d5	8b ce		 mov	 ecx, esi
  000d7	e8 00 00 00 00	 call	 ?BindCol@CSqlBase@@QAEFFPAK@Z ; CSqlBase::BindCol
  000dc	66 85 c0	 test	 ax, ax
  000df	74 06		 je	 SHORT $L95096
  000e1	66 3d 01 00	 cmp	 ax, 1
  000e5	75 10		 jne	 SHORT $L95085
$L95096:

; 290  : 	COLUMN_ENTRY(m_bCount)

  000e7	8d 96 6b 0c 00
	00		 lea	 edx, DWORD PTR [esi+3179]
  000ed	52		 push	 edx
  000ee	6a 09		 push	 9
  000f0	8b ce		 mov	 ecx, esi
  000f2	e8 00 00 00 00	 call	 ?BindCol@CSqlBase@@QAEFFPAE@Z ; CSqlBase::BindCol
$L95085:
  000f7	5e		 pop	 esi

; 291  : END_COL()

  000f8	c3		 ret	 0
?BindColumns@CTBLGroupList@@UAEFXZ ENDP			; CTBLGroupList::BindColumns
; Function compile flags: /Ogty
_TEXT	ENDS
;	COMDAT ?GetNumParam@CTBLGroupList@@UAEHXZ
_TEXT	SEGMENT
?GetNumParam@CTBLGroupList@@UAEHXZ PROC NEAR		; CTBLGroupList::GetNumParam, COMDAT
; _this$ = ecx

; 293  : BEGIN_PARAM(1)

  00000	b8 01 00 00 00	 mov	 eax, 1
  00005	c3		 ret	 0
?GetNumParam@CTBLGroupList@@UAEHXZ ENDP			; CTBLGroupList::GetNumParam
; Function compile flags: /Ogty
_TEXT	ENDS
;	COMDAT ?BindParameters@CTBLGroupList@@UAEFH@Z
_TEXT	SEGMENT
_bRewind$ = 8						; size = 4
?BindParameters@CTBLGroupList@@UAEFH@Z PROC NEAR	; CTBLGroupList::BindParameters, COMDAT
; _this$ = ecx

; 294  : 	PARAM_ENTRY(SQL_PARAM_INPUT, m_dwUserID)

  00000	8b 54 24 04	 mov	 edx, DWORD PTR _bRewind$[esp-4]
  00004	33 c0		 xor	 eax, eax
  00006	85 d2		 test	 edx, edx
  00008	89 81 10 08 00
	00		 mov	 DWORD PTR [ecx+2064], eax
  0000e	75 10		 jne	 SHORT $L95102
  00010	8d 81 64 0c 00
	00		 lea	 eax, DWORD PTR [ecx+3172]
  00016	50		 push	 eax
  00017	6a 01		 push	 1
  00019	6a 01		 push	 1
  0001b	e8 00 00 00 00	 call	 ?BindParam@CSqlBase@@QAEFFFPAK@Z ; CSqlBase::BindParam
$L95102:

; 295  : END_PARAM()

  00020	c2 04 00	 ret	 4
?BindParameters@CTBLGroupList@@UAEFH@Z ENDP		; CTBLGroupList::BindParameters
_TEXT	ENDS
PUBLIC	??1CTBLGroupList@@UAE@XZ			; CTBLGroupList::~CTBLGroupList
; Function compile flags: /Ogty
;	COMDAT ??_GCTBLGroupList@@UAEPAXI@Z
_TEXT	SEGMENT
___flags$ = 8						; size = 4
??_GCTBLGroupList@@UAEPAXI@Z PROC NEAR			; CTBLGroupList::`scalar deleting destructor', COMDAT
; _this$ = ecx
  00000	56		 push	 esi
  00001	8b f1		 mov	 esi, ecx
  00003	e8 00 00 00 00	 call	 ??1CTBLGroupList@@UAE@XZ
  00008	f6 44 24 08 01	 test	 BYTE PTR ___flags$[esp], 1
  0000d	74 09		 je	 SHORT $L108586
  0000f	56		 push	 esi
  00010	e8 00 00 00 00	 call	 ??3@YAXPAX@Z		; operator delete
  00015	83 c4 04	 add	 esp, 4
$L108586:
  00018	8b c6		 mov	 eax, esi
  0001a	5e		 pop	 esi
  0001b	c2 04 00	 ret	 4
??_GCTBLGroupList@@UAEPAXI@Z ENDP			; CTBLGroupList::`scalar deleting destructor'
; Function compile flags: /Ogty
_TEXT	ENDS
;	COMDAT ??1CTBLGroupList@@UAE@XZ
_TEXT	SEGMENT
??1CTBLGroupList@@UAE@XZ PROC NEAR			; CTBLGroupList::~CTBLGroupList, COMDAT
; _this$ = ecx
  00000	e9 00 00 00 00	 jmp	 ??1CSqlQuery@@UAE@XZ	; CSqlQuery::~CSqlQuery
??1CTBLGroupList@@UAE@XZ ENDP				; CTBLGroupList::~CTBLGroupList
_TEXT	ENDS
PUBLIC	??0CTBLUserCount@@QAE@PAVCSqlDatabase@@V?$basic_string@DU?$char_traits@D@std@@V?$allocator@D@2@@std@@@Z ; CTBLUserCount::CTBLUserCount
PUBLIC	?GetNumCol@CTBLUserCount@@UAEHXZ		; CTBLUserCount::GetNumCol
PUBLIC	?BindColumns@CTBLUserCount@@UAEFXZ		; CTBLUserCount::BindColumns
PUBLIC	??_7CTBLUserCount@@6B@				; CTBLUserCount::`vftable'
PUBLIC	??_GCTBLUserCount@@UAEPAXI@Z			; CTBLUserCount::`scalar deleting destructor'
PUBLIC	??_C@_0FD@OPEJJGMC@SELECT?5?7bWorldID?0?5?7COUNT?$CIDISTINC@ ; `string'
EXTRN	??_ECTBLUserCount@@UAEPAXI@Z:NEAR		; CTBLUserCount::`vector deleting destructor'
;	COMDAT xdata$x
; File c:\program files (x86)\microsoft visual studio .net 2003\vc7\include\iosfwd
xdata$x	SEGMENT
$T108769 DD	0ffffffffH
	DD	FLAT:$L108595
$T108766 DD	019930520H
	DD	01H
	DD	FLAT:$T108769
	DD	2 DUP(00H)
	DD	2 DUP(00H)
xdata$x	ENDS
;	COMDAT ??_C@_0FD@OPEJJGMC@SELECT?5?7bWorldID?0?5?7COUNT?$CIDISTINC@
CONST	SEGMENT
??_C@_0FD@OPEJJGMC@SELECT?5?7bWorldID?0?5?7COUNT?$CIDISTINC@ DB 'SELECT ', 09H
	DB	'bWorldID, ', 09H, 'COUNT(DISTINCT dwUserID) ', 09H, 'FROM TAL'
	DB	'LCHARTABLE ', 09H, 'GROUP BY bWorldID', 00H	; `string'
CONST	ENDS
;	COMDAT ??_7CTBLUserCount@@6B@
CONST	SEGMENT
??_7CTBLUserCount@@6B@ DD FLAT:??_ECTBLUserCount@@UAEPAXI@Z ; CTBLUserCount::`vftable'
	DD	FLAT:?GetNumCol@CTBLUserCount@@UAEHXZ
	DD	FLAT:?GetNumParam@CSqlBase@@UAEHXZ
	DD	FLAT:?AllocStatement@CSqlQuery@@UAEHXZ
	DD	FLAT:?BindColumns@CTBLUserCount@@UAEFXZ
	DD	FLAT:?BindParameters@CSqlQuery@@UAEFH@Z
; Function compile flags: /Ogty
; File c:\users\pierr\desktop\4story - oldschool\sources\tserver\tloginsvr\dbaccess.h
CONST	ENDS
;	COMDAT ??0CTBLUserCount@@QAE@PAVCSqlDatabase@@V?$basic_string@DU?$char_traits@D@std@@V?$allocator@D@2@@std@@@Z
_TEXT	SEGMENT
$T108594 = -16						; size = 4
__$EHRec$ = -12						; size = 12
_pdb$ = 8						; size = 4
_strKey$ = 12						; size = 28
??0CTBLUserCount@@QAE@PAVCSqlDatabase@@V?$basic_string@DU?$char_traits@D@std@@V?$allocator@D@2@@std@@@Z PROC NEAR ; CTBLUserCount::CTBLUserCount, COMDAT
; _this$ = ecx

; 308  : 	GROUP BY bWorldID"))

  00000	6a ff		 push	 -1
  00002	68 00 00 00 00	 push	 __ehhandler$??0CTBLUserCount@@QAE@PAVCSqlDatabase@@V?$basic_string@DU?$char_traits@D@std@@V?$allocator@D@2@@std@@@Z
  00007	64 a1 00 00 00
	00		 mov	 eax, DWORD PTR fs:__except_list
  0000d	50		 push	 eax
  0000e	64 89 25 00 00
	00 00		 mov	 DWORD PTR fs:__except_list, esp
  00015	51		 push	 ecx
  00016	56		 push	 esi
  00017	8b f1		 mov	 esi, ecx
  00019	68 00 00 00 00	 push	 OFFSET FLAT:??_C@_0FD@OPEJJGMC@SELECT?5?7bWorldID?0?5?7COUNT?$CIDISTINC@
  0001e	83 ec 1c	 sub	 esp, 28			; 0000001cH
  00021	8b cc		 mov	 ecx, esp
  00023	33 c0		 xor	 eax, eax
  00025	89 64 24 24	 mov	 DWORD PTR $T108594[esp+52], esp
  00029	6a ff		 push	 -1
  0002b	89 41 14	 mov	 DWORD PTR [ecx+20], eax
  0002e	c7 41 18 0f 00
	00 00		 mov	 DWORD PTR [ecx+24], 15	; 0000000fH
  00035	50		 push	 eax
  00036	89 44 24 38	 mov	 DWORD PTR __$EHRec$[esp+68], eax
  0003a	88 41 04	 mov	 BYTE PTR [ecx+4], al
  0003d	8d 44 24 44	 lea	 eax, DWORD PTR _strKey$[esp+56]
  00041	50		 push	 eax
  00042	e8 00 00 00 00	 call	 ?assign@?$basic_string@DU?$char_traits@D@std@@V?$allocator@D@2@@std@@QAEAAV12@ABV12@II@Z ; std::basic_string<char,std::char_traits<char>,std::allocator<char> >::assign
  00047	8b 4c 24 38	 mov	 ecx, DWORD PTR _pdb$[esp+48]
  0004b	51		 push	 ecx
  0004c	8b ce		 mov	 ecx, esi
  0004e	e8 00 00 00 00	 call	 ??0CSqlQuery@@QAE@PAVCSqlDatabase@@V?$basic_string@DU?$char_traits@D@std@@V?$allocator@D@2@@std@@PBD@Z ; CSqlQuery::CSqlQuery
  00053	83 7c 24 34 10	 cmp	 DWORD PTR _strKey$[esp+40], 16 ; 00000010H
  00058	c7 06 00 00 00
	00		 mov	 DWORD PTR [esi], OFFSET FLAT:??_7CTBLUserCount@@6B@
  0005e	72 0d		 jb	 SHORT $L108767
  00060	8b 54 24 20	 mov	 edx, DWORD PTR _strKey$[esp+20]
  00064	52		 push	 edx
  00065	e8 00 00 00 00	 call	 ??3@YAXPAX@Z		; operator delete
  0006a	83 c4 04	 add	 esp, 4
$L108767:
  0006d	8b 4c 24 08	 mov	 ecx, DWORD PTR __$EHRec$[esp+20]
  00071	8b c6		 mov	 eax, esi
  00073	64 89 0d 00 00
	00 00		 mov	 DWORD PTR fs:__except_list, ecx
  0007a	5e		 pop	 esi
  0007b	83 c4 10	 add	 esp, 16			; 00000010H
  0007e	c2 20 00	 ret	 32			; 00000020H
_TEXT	ENDS
;	COMDAT text$x
text$x	SEGMENT
$L108595:
  00000	8d 4d 08	 lea	 ecx, DWORD PTR _strKey$[ebp-4]
  00003	e9 00 00 00 00	 jmp	 ??1?$basic_string@DU?$char_traits@D@std@@V?$allocator@D@2@@std@@QAE@XZ ; std::basic_string<char,std::char_traits<char>,std::allocator<char> >::~basic_string<char,std::char_traits<char>,std::allocator<char> >
__ehhandler$??0CTBLUserCount@@QAE@PAVCSqlDatabase@@V?$basic_string@DU?$char_traits@D@std@@V?$allocator@D@2@@std@@@Z:
  00008	b8 00 00 00 00	 mov	 eax, OFFSET FLAT:$T108766
  0000d	e9 00 00 00 00	 jmp	 ___CxxFrameHandler
text$x	ENDS
??0CTBLUserCount@@QAE@PAVCSqlDatabase@@V?$basic_string@DU?$char_traits@D@std@@V?$allocator@D@2@@std@@@Z ENDP ; CTBLUserCount::CTBLUserCount
; Function compile flags: /Ogty
;	COMDAT ?GetNumCol@CTBLUserCount@@UAEHXZ
_TEXT	SEGMENT
?GetNumCol@CTBLUserCount@@UAEHXZ PROC NEAR		; CTBLUserCount::GetNumCol, COMDAT
; _this$ = ecx

; 310  : BEGIN_COLUMN(2)

  00000	b8 02 00 00 00	 mov	 eax, 2
  00005	c3		 ret	 0
?GetNumCol@CTBLUserCount@@UAEHXZ ENDP			; CTBLUserCount::GetNumCol
; Function compile flags: /Ogty
_TEXT	ENDS
;	COMDAT ?BindColumns@CTBLUserCount@@UAEFXZ
_TEXT	SEGMENT
?BindColumns@CTBLUserCount@@UAEFXZ PROC NEAR		; CTBLUserCount::BindColumns, COMDAT
; _this$ = ecx

; 310  : BEGIN_COLUMN(2)

  00000	56		 push	 esi
  00001	8b f1		 mov	 esi, ecx

; 311  : 	COLUMN_ENTRY(m_bGroup)

  00003	8d 86 2c 0c 00
	00		 lea	 eax, DWORD PTR [esi+3116]
  00009	50		 push	 eax
  0000a	6a 01		 push	 1
  0000c	e8 00 00 00 00	 call	 ?BindCol@CSqlBase@@QAEFFPAE@Z ; CSqlBase::BindCol
  00011	66 85 c0	 test	 ax, ax
  00014	74 06		 je	 SHORT $L95149
  00016	66 3d 01 00	 cmp	 ax, 1
  0001a	75 10		 jne	 SHORT $L95145
$L95149:

; 312  : 	COLUMN_ENTRY(m_dwCount)

  0001c	8d 8e 30 0c 00
	00		 lea	 ecx, DWORD PTR [esi+3120]
  00022	51		 push	 ecx
  00023	6a 02		 push	 2
  00025	8b ce		 mov	 ecx, esi
  00027	e8 00 00 00 00	 call	 ?BindCol@CSqlBase@@QAEFFPAK@Z ; CSqlBase::BindCol
$L95145:
  0002c	5e		 pop	 esi

; 313  : END_COL()

  0002d	c3		 ret	 0
?BindColumns@CTBLUserCount@@UAEFXZ ENDP			; CTBLUserCount::BindColumns
_TEXT	ENDS
PUBLIC	??1CTBLUserCount@@UAE@XZ			; CTBLUserCount::~CTBLUserCount
; Function compile flags: /Ogty
;	COMDAT ??_GCTBLUserCount@@UAEPAXI@Z
_TEXT	SEGMENT
___flags$ = 8						; size = 4
??_GCTBLUserCount@@UAEPAXI@Z PROC NEAR			; CTBLUserCount::`scalar deleting destructor', COMDAT
; _this$ = ecx
  00000	56		 push	 esi
  00001	8b f1		 mov	 esi, ecx
  00003	e8 00 00 00 00	 call	 ??1CTBLUserCount@@UAE@XZ
  00008	f6 44 24 08 01	 test	 BYTE PTR ___flags$[esp], 1
  0000d	74 09		 je	 SHORT $L108781
  0000f	56		 push	 esi
  00010	e8 00 00 00 00	 call	 ??3@YAXPAX@Z		; operator delete
  00015	83 c4 04	 add	 esp, 4
$L108781:
  00018	8b c6		 mov	 eax, esi
  0001a	5e		 pop	 esi
  0001b	c2 04 00	 ret	 4
??_GCTBLUserCount@@UAEPAXI@Z ENDP			; CTBLUserCount::`scalar deleting destructor'
; Function compile flags: /Ogty
_TEXT	ENDS
;	COMDAT ??1CTBLUserCount@@UAE@XZ
_TEXT	SEGMENT
??1CTBLUserCount@@UAE@XZ PROC NEAR			; CTBLUserCount::~CTBLUserCount, COMDAT
; _this$ = ecx
  00000	e9 00 00 00 00	 jmp	 ??1CSqlQuery@@UAE@XZ	; CSqlQuery::~CSqlQuery
??1CTBLUserCount@@UAE@XZ ENDP				; CTBLUserCount::~CTBLUserCount
_TEXT	ENDS
PUBLIC	??0CSPTestLogin@@QAE@PAVCSqlDatabase@@V?$basic_string@DU?$char_traits@D@std@@V?$allocator@D@2@@std@@@Z ; CSPTestLogin::CSPTestLogin
PUBLIC	?GetNumParam@CSPTestLogin@@UAEHXZ		; CSPTestLogin::GetNumParam
PUBLIC	?BindParameters@CSPTestLogin@@UAEFH@Z		; CSPTestLogin::BindParameters
PUBLIC	??_7CSPTestLogin@@6B@				; CSPTestLogin::`vftable'
PUBLIC	??_GCSPTestLogin@@UAEPAXI@Z			; CSPTestLogin::`scalar deleting destructor'
PUBLIC	??_C@_0CG@NPOGDAIJ@?$HL?5?$DP?5?$DN?5CALL?5TTestLogin?$CI?$DP?0?$DP?0?$DP?0?$DP?0?$DP?0@ ; `string'
EXTRN	??_ECSPTestLogin@@UAEPAXI@Z:NEAR		; CSPTestLogin::`vector deleting destructor'
;	COMDAT xdata$x
; File c:\program files (x86)\microsoft visual studio .net 2003\vc7\include\iosfwd
xdata$x	SEGMENT
$T108964 DD	0ffffffffH
	DD	FLAT:$L108790
$T108961 DD	019930520H
	DD	01H
	DD	FLAT:$T108964
	DD	2 DUP(00H)
	DD	2 DUP(00H)
xdata$x	ENDS
;	COMDAT ??_C@_0CG@NPOGDAIJ@?$HL?5?$DP?5?$DN?5CALL?5TTestLogin?$CI?$DP?0?$DP?0?$DP?0?$DP?0?$DP?0@
CONST	SEGMENT
??_C@_0CG@NPOGDAIJ@?$HL?5?$DP?5?$DN?5CALL?5TTestLogin?$CI?$DP?0?$DP?0?$DP?0?$DP?0?$DP?0@ DB '{'
	DB	' ? = CALL TTestLogin(?,?,?,?,?,?,?)}', 00H	; `string'
CONST	ENDS
;	COMDAT ??_7CSPTestLogin@@6B@
CONST	SEGMENT
??_7CSPTestLogin@@6B@ DD FLAT:??_ECSPTestLogin@@UAEPAXI@Z ; CSPTestLogin::`vftable'
	DD	FLAT:?GetNumCol@CSqlBase@@UAEHXZ
	DD	FLAT:?GetNumParam@CSPTestLogin@@UAEHXZ
	DD	FLAT:?AllocStatement@CSqlQuery@@UAEHXZ
	DD	FLAT:?BindColumns@CSqlQuery@@UAEFXZ
	DD	FLAT:?BindParameters@CSPTestLogin@@UAEFH@Z
; Function compile flags: /Ogty
; File c:\users\pierr\desktop\4story - oldschool\sources\tserver\tloginsvr\dbaccess.h
CONST	ENDS
;	COMDAT ??0CSPTestLogin@@QAE@PAVCSqlDatabase@@V?$basic_string@DU?$char_traits@D@std@@V?$allocator@D@2@@std@@@Z
_TEXT	SEGMENT
$T108789 = -16						; size = 4
__$EHRec$ = -12						; size = 12
_pdb$ = 8						; size = 4
_strKey$ = 12						; size = 28
??0CSPTestLogin@@QAE@PAVCSqlDatabase@@V?$basic_string@DU?$char_traits@D@std@@V?$allocator@D@2@@std@@@Z PROC NEAR ; CSPTestLogin::CSPTestLogin, COMDAT
; _this$ = ecx

; 333  : DEF_QUERY( CSPTestLogin, _T("{ ? = CALL TTestLogin(?,?,?,?,?,?,?)}"))

  00000	6a ff		 push	 -1
  00002	68 00 00 00 00	 push	 __ehhandler$??0CSPTestLogin@@QAE@PAVCSqlDatabase@@V?$basic_string@DU?$char_traits@D@std@@V?$allocator@D@2@@std@@@Z
  00007	64 a1 00 00 00
	00		 mov	 eax, DWORD PTR fs:__except_list
  0000d	50		 push	 eax
  0000e	64 89 25 00 00
	00 00		 mov	 DWORD PTR fs:__except_list, esp
  00015	51		 push	 ecx
  00016	56		 push	 esi
  00017	8b f1		 mov	 esi, ecx
  00019	68 00 00 00 00	 push	 OFFSET FLAT:??_C@_0CG@NPOGDAIJ@?$HL?5?$DP?5?$DN?5CALL?5TTestLogin?$CI?$DP?0?$DP?0?$DP?0?$DP?0?$DP?0@
  0001e	83 ec 1c	 sub	 esp, 28			; 0000001cH
  00021	8b cc		 mov	 ecx, esp
  00023	33 c0		 xor	 eax, eax
  00025	89 64 24 24	 mov	 DWORD PTR $T108789[esp+52], esp
  00029	6a ff		 push	 -1
  0002b	89 41 14	 mov	 DWORD PTR [ecx+20], eax
  0002e	c7 41 18 0f 00
	00 00		 mov	 DWORD PTR [ecx+24], 15	; 0000000fH
  00035	50		 push	 eax
  00036	89 44 24 38	 mov	 DWORD PTR __$EHRec$[esp+68], eax
  0003a	88 41 04	 mov	 BYTE PTR [ecx+4], al
  0003d	8d 44 24 44	 lea	 eax, DWORD PTR _strKey$[esp+56]
  00041	50		 push	 eax
  00042	e8 00 00 00 00	 call	 ?assign@?$basic_string@DU?$char_traits@D@std@@V?$allocator@D@2@@std@@QAEAAV12@ABV12@II@Z ; std::basic_string<char,std::char_traits<char>,std::allocator<char> >::assign
  00047	8b 4c 24 38	 mov	 ecx, DWORD PTR _pdb$[esp+48]
  0004b	51		 push	 ecx
  0004c	8b ce		 mov	 ecx, esi
  0004e	e8 00 00 00 00	 call	 ??0CSqlQuery@@QAE@PAVCSqlDatabase@@V?$basic_string@DU?$char_traits@D@std@@V?$allocator@D@2@@std@@PBD@Z ; CSqlQuery::CSqlQuery
  00053	83 7c 24 34 10	 cmp	 DWORD PTR _strKey$[esp+40], 16 ; 00000010H
  00058	c7 06 00 00 00
	00		 mov	 DWORD PTR [esi], OFFSET FLAT:??_7CSPTestLogin@@6B@
  0005e	72 0d		 jb	 SHORT $L108962
  00060	8b 54 24 20	 mov	 edx, DWORD PTR _strKey$[esp+20]
  00064	52		 push	 edx
  00065	e8 00 00 00 00	 call	 ??3@YAXPAX@Z		; operator delete
  0006a	83 c4 04	 add	 esp, 4
$L108962:
  0006d	8b 4c 24 08	 mov	 ecx, DWORD PTR __$EHRec$[esp+20]
  00071	8b c6		 mov	 eax, esi
  00073	64 89 0d 00 00
	00 00		 mov	 DWORD PTR fs:__except_list, ecx
  0007a	5e		 pop	 esi
  0007b	83 c4 10	 add	 esp, 16			; 00000010H
  0007e	c2 20 00	 ret	 32			; 00000020H
_TEXT	ENDS
;	COMDAT text$x
text$x	SEGMENT
$L108790:
  00000	8d 4d 08	 lea	 ecx, DWORD PTR _strKey$[ebp-4]
  00003	e9 00 00 00 00	 jmp	 ??1?$basic_string@DU?$char_traits@D@std@@V?$allocator@D@2@@std@@QAE@XZ ; std::basic_string<char,std::char_traits<char>,std::allocator<char> >::~basic_string<char,std::char_traits<char>,std::allocator<char> >
__ehhandler$??0CSPTestLogin@@QAE@PAVCSqlDatabase@@V?$basic_string@DU?$char_traits@D@std@@V?$allocator@D@2@@std@@@Z:
  00008	b8 00 00 00 00	 mov	 eax, OFFSET FLAT:$T108961
  0000d	e9 00 00 00 00	 jmp	 ___CxxFrameHandler
text$x	ENDS
??0CSPTestLogin@@QAE@PAVCSqlDatabase@@V?$basic_string@DU?$char_traits@D@std@@V?$allocator@D@2@@std@@@Z ENDP ; CSPTestLogin::CSPTestLogin
; Function compile flags: /Ogty
;	COMDAT ?GetNumParam@CSPTestLogin@@UAEHXZ
_TEXT	SEGMENT
?GetNumParam@CSPTestLogin@@UAEHXZ PROC NEAR		; CSPTestLogin::GetNumParam, COMDAT
; _this$ = ecx

; 335  : BEGIN_PARAM(8)	

  00000	b8 08 00 00 00	 mov	 eax, 8
  00005	c3		 ret	 0
?GetNumParam@CSPTestLogin@@UAEHXZ ENDP			; CSPTestLogin::GetNumParam
; Function compile flags: /Ogty
_TEXT	ENDS
;	COMDAT ?BindParameters@CSPTestLogin@@UAEFH@Z
_TEXT	SEGMENT
_bRewind$ = 8						; size = 4
?BindParameters@CSPTestLogin@@UAEFH@Z PROC NEAR		; CSPTestLogin::BindParameters, COMDAT
; _this$ = ecx

; 335  : BEGIN_PARAM(8)	

  00000	53		 push	 ebx
  00001	56		 push	 esi
  00002	57		 push	 edi

; 336  : 	PARAM_ENTRY( SQL_PARAM_OUTPUT, m_nRET)

  00003	8b 7c 24 10	 mov	 edi, DWORD PTR _bRewind$[esp+8]
  00007	33 db		 xor	 ebx, ebx
  00009	8b f1		 mov	 esi, ecx
  0000b	33 c0		 xor	 eax, eax
  0000d	3b fb		 cmp	 edi, ebx
  0000f	89 9e 10 08 00
	00		 mov	 DWORD PTR [esi+2064], ebx
  00015	75 1f		 jne	 SHORT $L95200
  00017	8d 86 2c 0c 00
	00		 lea	 eax, DWORD PTR [esi+3116]
  0001d	50		 push	 eax
  0001e	6a 01		 push	 1
  00020	6a 04		 push	 4
  00022	e8 00 00 00 00	 call	 ?BindParam@CSqlBase@@QAEFFFPAH@Z ; CSqlBase::BindParam
  00027	66 3b c3	 cmp	 ax, bx
  0002a	74 0a		 je	 SHORT $L95200
  0002c	66 3d 01 00	 cmp	 ax, 1
  00030	0f 85 24 01 00
	00		 jne	 $L95195
$L95200:

; 337  : 	PARAM_ENTRY_STR( SQL_PARAM_OUTPUT, m_szUserID)

  00036	3b fb		 cmp	 edi, ebx
  00038	c7 86 14 08 00
	00 fd ff ff ff	 mov	 DWORD PTR [esi+2068], -3 ; fffffffdH
  00042	75 14		 jne	 SHORT $L95201
  00044	6a 33		 push	 51			; 00000033H
  00046	8d 8e 30 0c 00
	00		 lea	 ecx, DWORD PTR [esi+3120]
  0004c	51		 push	 ecx
  0004d	6a 02		 push	 2
  0004f	6a 04		 push	 4
  00051	8b ce		 mov	 ecx, esi
  00053	e8 00 00 00 00	 call	 ?BindParamStr@CSqlBase@@QAEFFFPADJ@Z ; CSqlBase::BindParamStr
$L95201:
  00058	66 3b c3	 cmp	 ax, bx
  0005b	74 0a		 je	 SHORT $L108973
  0005d	66 3d 01 00	 cmp	 ax, 1
  00061	0f 85 f3 00 00
	00		 jne	 $L95195
$L108973:

; 338  : 	PARAM_ENTRY_STR( SQL_PARAM_OUTPUT, m_szPasswd)

  00067	3b fb		 cmp	 edi, ebx
  00069	c7 86 18 08 00
	00 fd ff ff ff	 mov	 DWORD PTR [esi+2072], -3 ; fffffffdH
  00073	75 14		 jne	 SHORT $L95203
  00075	6a 33		 push	 51			; 00000033H
  00077	8d 96 63 0c 00
	00		 lea	 edx, DWORD PTR [esi+3171]
  0007d	52		 push	 edx
  0007e	6a 03		 push	 3
  00080	6a 04		 push	 4
  00082	8b ce		 mov	 ecx, esi
  00084	e8 00 00 00 00	 call	 ?BindParamStr@CSqlBase@@QAEFFFPADJ@Z ; CSqlBase::BindParamStr
$L95203:
  00089	66 3b c3	 cmp	 ax, bx
  0008c	74 0a		 je	 SHORT $L95204
  0008e	66 3d 01 00	 cmp	 ax, 1
  00092	0f 85 c2 00 00
	00		 jne	 $L95195
$L95204:

; 339  : 	PARAM_ENTRY( SQL_PARAM_OUTPUT, m_dwKEY)

  00098	3b fb		 cmp	 edi, ebx
  0009a	89 9e 1c 08 00
	00		 mov	 DWORD PTR [esi+2076], ebx
  000a0	75 12		 jne	 SHORT $L95205
  000a2	8d 86 d4 0c 00
	00		 lea	 eax, DWORD PTR [esi+3284]
  000a8	50		 push	 eax
  000a9	6a 04		 push	 4
  000ab	6a 04		 push	 4
  000ad	8b ce		 mov	 ecx, esi
  000af	e8 00 00 00 00	 call	 ?BindParam@CSqlBase@@QAEFFFPAK@Z ; CSqlBase::BindParam
$L95205:
  000b4	66 3b c3	 cmp	 ax, bx
  000b7	74 0a		 je	 SHORT $L95206
  000b9	66 3d 01 00	 cmp	 ax, 1
  000bd	0f 85 97 00 00
	00		 jne	 $L95195
$L95206:

; 340  : 	PARAM_ENTRY( SQL_PARAM_OUTPUT, m_dwCharID)

  000c3	3b fb		 cmp	 edi, ebx
  000c5	89 9e 20 08 00
	00		 mov	 DWORD PTR [esi+2080], ebx
  000cb	75 12		 jne	 SHORT $L95207
  000cd	8d 8e cc 0c 00
	00		 lea	 ecx, DWORD PTR [esi+3276]
  000d3	51		 push	 ecx
  000d4	6a 05		 push	 5
  000d6	6a 04		 push	 4
  000d8	8b ce		 mov	 ecx, esi
  000da	e8 00 00 00 00	 call	 ?BindParam@CSqlBase@@QAEFFFPAK@Z ; CSqlBase::BindParam
$L95207:
  000df	66 3b c3	 cmp	 ax, bx
  000e2	74 06		 je	 SHORT $L95208
  000e4	66 3d 01 00	 cmp	 ax, 1
  000e8	75 70		 jne	 SHORT $L95195
$L95208:

; 341  : 	PARAM_ENTRY( SQL_PARAM_OUTPUT, m_dwID)

  000ea	3b fb		 cmp	 edi, ebx
  000ec	89 9e 24 08 00
	00		 mov	 DWORD PTR [esi+2084], ebx
  000f2	75 12		 jne	 SHORT $L95209
  000f4	8d 96 d0 0c 00
	00		 lea	 edx, DWORD PTR [esi+3280]
  000fa	52		 push	 edx
  000fb	6a 06		 push	 6
  000fd	6a 04		 push	 4
  000ff	8b ce		 mov	 ecx, esi
  00101	e8 00 00 00 00	 call	 ?BindParam@CSqlBase@@QAEFFFPAK@Z ; CSqlBase::BindParam
$L95209:
  00106	66 3b c3	 cmp	 ax, bx
  00109	74 06		 je	 SHORT $L95210
  0010b	66 3d 01 00	 cmp	 ax, 1
  0010f	75 49		 jne	 SHORT $L95195
$L95210:

; 342  : 	PARAM_ENTRY_STR( SQL_PARAM_OUTPUT, m_szIPAddr)

  00111	3b fb		 cmp	 edi, ebx
  00113	c7 86 28 08 00
	00 fd ff ff ff	 mov	 DWORD PTR [esi+2088], -3 ; fffffffdH
  0011d	75 14		 jne	 SHORT $L108974
  0011f	6a 33		 push	 51			; 00000033H
  00121	8d 86 96 0c 00
	00		 lea	 eax, DWORD PTR [esi+3222]
  00127	50		 push	 eax
  00128	6a 07		 push	 7
  0012a	6a 04		 push	 4
  0012c	8b ce		 mov	 ecx, esi
  0012e	e8 00 00 00 00	 call	 ?BindParamStr@CSqlBase@@QAEFFFPADJ@Z ; CSqlBase::BindParamStr
$L108974:
  00133	66 3b c3	 cmp	 ax, bx
  00136	74 06		 je	 SHORT $L95212
  00138	66 3d 01 00	 cmp	 ax, 1
  0013c	75 1c		 jne	 SHORT $L95195
$L95212:

; 343  : 	PARAM_ENTRY( SQL_PARAM_OUTPUT, m_wPort)

  0013e	3b fb		 cmp	 edi, ebx
  00140	89 9e 2c 08 00
	00		 mov	 DWORD PTR [esi+2092], ebx
  00146	75 12		 jne	 SHORT $L95195
  00148	8d 8e d8 0c 00
	00		 lea	 ecx, DWORD PTR [esi+3288]
  0014e	51		 push	 ecx
  0014f	6a 08		 push	 8
  00151	6a 04		 push	 4
  00153	8b ce		 mov	 ecx, esi
  00155	e8 00 00 00 00	 call	 ?BindParam@CSqlBase@@QAEFFFPAG@Z ; CSqlBase::BindParam
$L95195:
  0015a	5f		 pop	 edi
  0015b	5e		 pop	 esi
  0015c	5b		 pop	 ebx

; 344  : END_PARAM()

  0015d	c2 04 00	 ret	 4
?BindParameters@CSPTestLogin@@UAEFH@Z ENDP		; CSPTestLogin::BindParameters
_TEXT	ENDS
PUBLIC	??1CSPTestLogin@@UAE@XZ				; CSPTestLogin::~CSPTestLogin
; Function compile flags: /Ogty
;	COMDAT ??_GCSPTestLogin@@UAEPAXI@Z
_TEXT	SEGMENT
___flags$ = 8						; size = 4
??_GCSPTestLogin@@UAEPAXI@Z PROC NEAR			; CSPTestLogin::`scalar deleting destructor', COMDAT
; _this$ = ecx
  00000	56		 push	 esi
  00001	8b f1		 mov	 esi, ecx
  00003	e8 00 00 00 00	 call	 ??1CSPTestLogin@@UAE@XZ
  00008	f6 44 24 08 01	 test	 BYTE PTR ___flags$[esp], 1
  0000d	74 09		 je	 SHORT $L108978
  0000f	56		 push	 esi
  00010	e8 00 00 00 00	 call	 ??3@YAXPAX@Z		; operator delete
  00015	83 c4 04	 add	 esp, 4
$L108978:
  00018	8b c6		 mov	 eax, esi
  0001a	5e		 pop	 esi
  0001b	c2 04 00	 ret	 4
??_GCSPTestLogin@@UAEPAXI@Z ENDP			; CSPTestLogin::`scalar deleting destructor'
; Function compile flags: /Ogty
_TEXT	ENDS
;	COMDAT ??1CSPTestLogin@@UAE@XZ
_TEXT	SEGMENT
??1CSPTestLogin@@UAE@XZ PROC NEAR			; CSPTestLogin::~CSPTestLogin, COMDAT
; _this$ = ecx
  00000	e9 00 00 00 00	 jmp	 ??1CSqlQuery@@UAE@XZ	; CSqlQuery::~CSqlQuery
??1CSPTestLogin@@UAE@XZ ENDP				; CSPTestLogin::~CSPTestLogin
_TEXT	ENDS
PUBLIC	??0CSPCreateChar@@QAE@PAVCSqlDatabase@@V?$basic_string@DU?$char_traits@D@std@@V?$allocator@D@2@@std@@@Z ; CSPCreateChar::CSPCreateChar
PUBLIC	?GetNumParam@CSPCreateChar@@UAEHXZ		; CSPCreateChar::GetNumParam
PUBLIC	?BindParameters@CSPCreateChar@@UAEFH@Z		; CSPCreateChar::BindParameters
PUBLIC	??_7CSPCreateChar@@6B@				; CSPCreateChar::`vftable'
PUBLIC	??_GCSPCreateChar@@UAEPAXI@Z			; CSPCreateChar::`scalar deleting destructor'
PUBLIC	??_C@_0DJ@PHMMMBIN@?$HL?5?$DP?5?$DN?5CALL?5TCreateChar?$CI?$DP?0?$DP?0?$DP?0?$DP?0?$DP@ ; `string'
EXTRN	??_ECSPCreateChar@@UAEPAXI@Z:NEAR		; CSPCreateChar::`vector deleting destructor'
;	COMDAT xdata$x
; File c:\program files (x86)\microsoft visual studio .net 2003\vc7\include\iosfwd
xdata$x	SEGMENT
$T109161 DD	0ffffffffH
	DD	FLAT:$L108987
$T109158 DD	019930520H
	DD	01H
	DD	FLAT:$T109161
	DD	2 DUP(00H)
	DD	2 DUP(00H)
xdata$x	ENDS
;	COMDAT ??_C@_0DJ@PHMMMBIN@?$HL?5?$DP?5?$DN?5CALL?5TCreateChar?$CI?$DP?0?$DP?0?$DP?0?$DP?0?$DP@
CONST	SEGMENT
??_C@_0DJ@PHMMMBIN@?$HL?5?$DP?5?$DN?5CALL?5TCreateChar?$CI?$DP?0?$DP?0?$DP?0?$DP?0?$DP@ DB '{'
	DB	' ? = CALL TCreateChar(?,?,?,?,?,?,?,?,?,?,?,?,?,?,?,?)}', 00H ; `string'
CONST	ENDS
;	COMDAT ??_7CSPCreateChar@@6B@
CONST	SEGMENT
??_7CSPCreateChar@@6B@ DD FLAT:??_ECSPCreateChar@@UAEPAXI@Z ; CSPCreateChar::`vftable'
	DD	FLAT:?GetNumCol@CSqlBase@@UAEHXZ
	DD	FLAT:?GetNumParam@CSPCreateChar@@UAEHXZ
	DD	FLAT:?AllocStatement@CSqlQuery@@UAEHXZ
	DD	FLAT:?BindColumns@CSqlQuery@@UAEFXZ
	DD	FLAT:?BindParameters@CSPCreateChar@@UAEFH@Z
; Function compile flags: /Ogty
; File c:\users\pierr\desktop\4story - oldschool\sources\tserver\tloginsvr\dbaccess.h
CONST	ENDS
;	COMDAT ??0CSPCreateChar@@QAE@PAVCSqlDatabase@@V?$basic_string@DU?$char_traits@D@std@@V?$allocator@D@2@@std@@@Z
_TEXT	SEGMENT
$T108986 = -16						; size = 4
__$EHRec$ = -12						; size = 12
_pdb$ = 8						; size = 4
_strKey$ = 12						; size = 28
??0CSPCreateChar@@QAE@PAVCSqlDatabase@@V?$basic_string@DU?$char_traits@D@std@@V?$allocator@D@2@@std@@@Z PROC NEAR ; CSPCreateChar::CSPCreateChar, COMDAT
; _this$ = ecx

; 373  : DEF_QUERY( CSPCreateChar, _T("{ ? = CALL TCreateChar(?,?,?,?,?,?,?,?,?,?,?,?,?,?,?,?)}"))

  00000	6a ff		 push	 -1
  00002	68 00 00 00 00	 push	 __ehhandler$??0CSPCreateChar@@QAE@PAVCSqlDatabase@@V?$basic_string@DU?$char_traits@D@std@@V?$allocator@D@2@@std@@@Z
  00007	64 a1 00 00 00
	00		 mov	 eax, DWORD PTR fs:__except_list
  0000d	50		 push	 eax
  0000e	64 89 25 00 00
	00 00		 mov	 DWORD PTR fs:__except_list, esp
  00015	51		 push	 ecx
  00016	56		 push	 esi
  00017	8b f1		 mov	 esi, ecx
  00019	68 00 00 00 00	 push	 OFFSET FLAT:??_C@_0DJ@PHMMMBIN@?$HL?5?$DP?5?$DN?5CALL?5TCreateChar?$CI?$DP?0?$DP?0?$DP?0?$DP?0?$DP@
  0001e	83 ec 1c	 sub	 esp, 28			; 0000001cH
  00021	8b cc		 mov	 ecx, esp
  00023	33 c0		 xor	 eax, eax
  00025	89 64 24 24	 mov	 DWORD PTR $T108986[esp+52], esp
  00029	6a ff		 push	 -1
  0002b	89 41 14	 mov	 DWORD PTR [ecx+20], eax
  0002e	c7 41 18 0f 00
	00 00		 mov	 DWORD PTR [ecx+24], 15	; 0000000fH
  00035	50		 push	 eax
  00036	89 44 24 38	 mov	 DWORD PTR __$EHRec$[esp+68], eax
  0003a	88 41 04	 mov	 BYTE PTR [ecx+4], al
  0003d	8d 44 24 44	 lea	 eax, DWORD PTR _strKey$[esp+56]
  00041	50		 push	 eax
  00042	e8 00 00 00 00	 call	 ?assign@?$basic_string@DU?$char_traits@D@std@@V?$allocator@D@2@@std@@QAEAAV12@ABV12@II@Z ; std::basic_string<char,std::char_traits<char>,std::allocator<char> >::assign
  00047	8b 4c 24 38	 mov	 ecx, DWORD PTR _pdb$[esp+48]
  0004b	51		 push	 ecx
  0004c	8b ce		 mov	 ecx, esi
  0004e	e8 00 00 00 00	 call	 ??0CSqlQuery@@QAE@PAVCSqlDatabase@@V?$basic_string@DU?$char_traits@D@std@@V?$allocator@D@2@@std@@PBD@Z ; CSqlQuery::CSqlQuery
  00053	83 7c 24 34 10	 cmp	 DWORD PTR _strKey$[esp+40], 16 ; 00000010H
  00058	c7 06 00 00 00
	00		 mov	 DWORD PTR [esi], OFFSET FLAT:??_7CSPCreateChar@@6B@
  0005e	72 0d		 jb	 SHORT $L109159
  00060	8b 54 24 20	 mov	 edx, DWORD PTR _strKey$[esp+20]
  00064	52		 push	 edx
  00065	e8 00 00 00 00	 call	 ??3@YAXPAX@Z		; operator delete
  0006a	83 c4 04	 add	 esp, 4
$L109159:
  0006d	8b 4c 24 08	 mov	 ecx, DWORD PTR __$EHRec$[esp+20]
  00071	8b c6		 mov	 eax, esi
  00073	64 89 0d 00 00
	00 00		 mov	 DWORD PTR fs:__except_list, ecx
  0007a	5e		 pop	 esi
  0007b	83 c4 10	 add	 esp, 16			; 00000010H
  0007e	c2 20 00	 ret	 32			; 00000020H
_TEXT	ENDS
;	COMDAT text$x
text$x	SEGMENT
$L108987:
  00000	8d 4d 08	 lea	 ecx, DWORD PTR _strKey$[ebp-4]
  00003	e9 00 00 00 00	 jmp	 ??1?$basic_string@DU?$char_traits@D@std@@V?$allocator@D@2@@std@@QAE@XZ ; std::basic_string<char,std::char_traits<char>,std::allocator<char> >::~basic_string<char,std::char_traits<char>,std::allocator<char> >
__ehhandler$??0CSPCreateChar@@QAE@PAVCSqlDatabase@@V?$basic_string@DU?$char_traits@D@std@@V?$allocator@D@2@@std@@@Z:
  00008	b8 00 00 00 00	 mov	 eax, OFFSET FLAT:$T109158
  0000d	e9 00 00 00 00	 jmp	 ___CxxFrameHandler
text$x	ENDS
??0CSPCreateChar@@QAE@PAVCSqlDatabase@@V?$basic_string@DU?$char_traits@D@std@@V?$allocator@D@2@@std@@@Z ENDP ; CSPCreateChar::CSPCreateChar
; Function compile flags: /Ogty
;	COMDAT ?GetNumParam@CSPCreateChar@@UAEHXZ
_TEXT	SEGMENT
?GetNumParam@CSPCreateChar@@UAEHXZ PROC NEAR		; CSPCreateChar::GetNumParam, COMDAT
; _this$ = ecx

; 375  : BEGIN_PARAM(17)

  00000	b8 11 00 00 00	 mov	 eax, 17			; 00000011H
  00005	c3		 ret	 0
?GetNumParam@CSPCreateChar@@UAEHXZ ENDP			; CSPCreateChar::GetNumParam
; Function compile flags: /Ogty
_TEXT	ENDS
;	COMDAT ?BindParameters@CSPCreateChar@@UAEFH@Z
_TEXT	SEGMENT
_bRewind$ = 8						; size = 4
?BindParameters@CSPCreateChar@@UAEFH@Z PROC NEAR	; CSPCreateChar::BindParameters, COMDAT
; _this$ = ecx

; 375  : BEGIN_PARAM(17)

  00000	53		 push	 ebx
  00001	56		 push	 esi
  00002	57		 push	 edi

; 376  : 	PARAM_ENTRY( SQL_PARAM_OUTPUT, m_nRET)

  00003	8b 7c 24 10	 mov	 edi, DWORD PTR _bRewind$[esp+8]
  00007	33 db		 xor	 ebx, ebx
  00009	8b f1		 mov	 esi, ecx
  0000b	33 c0		 xor	 eax, eax
  0000d	3b fb		 cmp	 edi, ebx
  0000f	89 9e 10 08 00
	00		 mov	 DWORD PTR [esi+2064], ebx
  00015	75 1f		 jne	 SHORT $L95275
  00017	8d 86 2c 0c 00
	00		 lea	 eax, DWORD PTR [esi+3116]
  0001d	50		 push	 eax
  0001e	6a 01		 push	 1
  00020	6a 04		 push	 4
  00022	e8 00 00 00 00	 call	 ?BindParam@CSqlBase@@QAEFFFPAH@Z ; CSqlBase::BindParam
  00027	66 3b c3	 cmp	 ax, bx
  0002a	74 0a		 je	 SHORT $L95275
  0002c	66 3d 01 00	 cmp	 ax, 1
  00030	0f 85 9b 02 00
	00		 jne	 $L95270
$L95275:

; 377  : 	PARAM_ENTRY( SQL_PARAM_OUTPUT, m_bCreateCnt)

  00036	3b fb		 cmp	 edi, ebx
  00038	89 9e 14 08 00
	00		 mov	 DWORD PTR [esi+2068], ebx
  0003e	75 12		 jne	 SHORT $L95276
  00040	8d 8e 78 0c 00
	00		 lea	 ecx, DWORD PTR [esi+3192]
  00046	51		 push	 ecx
  00047	6a 02		 push	 2
  00049	6a 04		 push	 4
  0004b	8b ce		 mov	 ecx, esi
  0004d	e8 00 00 00 00	 call	 ?BindParam@CSqlBase@@QAEFFFPAE@Z ; CSqlBase::BindParam
$L95276:
  00052	66 3b c3	 cmp	 ax, bx
  00055	74 0a		 je	 SHORT $L95277
  00057	66 3d 01 00	 cmp	 ax, 1
  0005b	0f 85 70 02 00
	00		 jne	 $L95270
$L95277:

; 378  : 	PARAM_ENTRY_STR( SQL_PARAM_INPUT, m_szNAME)

  00061	3b fb		 cmp	 edi, ebx
  00063	c7 86 18 08 00
	00 fd ff ff ff	 mov	 DWORD PTR [esi+2072], -3 ; fffffffdH
  0006d	75 14		 jne	 SHORT $L95278
  0006f	6a 33		 push	 51			; 00000033H
  00071	8d 96 30 0c 00
	00		 lea	 edx, DWORD PTR [esi+3120]
  00077	52		 push	 edx
  00078	6a 03		 push	 3
  0007a	6a 01		 push	 1
  0007c	8b ce		 mov	 ecx, esi
  0007e	e8 00 00 00 00	 call	 ?BindParamStr@CSqlBase@@QAEFFFPADJ@Z ; CSqlBase::BindParamStr
$L95278:
  00083	66 3b c3	 cmp	 ax, bx
  00086	74 0a		 je	 SHORT $L95279
  00088	66 3d 01 00	 cmp	 ax, 1
  0008c	0f 85 3f 02 00
	00		 jne	 $L95270
$L95279:

; 379  : 	PARAM_ENTRY( SQL_PARAM_OUTPUT, m_dwCharID)

  00092	3b fb		 cmp	 edi, ebx
  00094	89 9e 1c 08 00
	00		 mov	 DWORD PTR [esi+2076], ebx
  0009a	75 12		 jne	 SHORT $L95280
  0009c	8d 86 64 0c 00
	00		 lea	 eax, DWORD PTR [esi+3172]
  000a2	50		 push	 eax
  000a3	6a 04		 push	 4
  000a5	6a 04		 push	 4
  000a7	8b ce		 mov	 ecx, esi
  000a9	e8 00 00 00 00	 call	 ?BindParam@CSqlBase@@QAEFFFPAK@Z ; CSqlBase::BindParam
$L95280:
  000ae	66 3b c3	 cmp	 ax, bx
  000b1	74 0a		 je	 SHORT $L95281
  000b3	66 3d 01 00	 cmp	 ax, 1
  000b7	0f 85 14 02 00
	00		 jne	 $L95270
$L95281:

; 380  : 	PARAM_ENTRY( SQL_PARAM_INPUT, m_dwUserID)

  000bd	3b fb		 cmp	 edi, ebx
  000bf	89 9e 20 08 00
	00		 mov	 DWORD PTR [esi+2080], ebx
  000c5	75 12		 jne	 SHORT $L95282
  000c7	8d 8e 68 0c 00
	00		 lea	 ecx, DWORD PTR [esi+3176]
  000cd	51		 push	 ecx
  000ce	6a 05		 push	 5
  000d0	6a 01		 push	 1
  000d2	8b ce		 mov	 ecx, esi
  000d4	e8 00 00 00 00	 call	 ?BindParam@CSqlBase@@QAEFFFPAK@Z ; CSqlBase::BindParam
$L95282:
  000d9	66 3b c3	 cmp	 ax, bx
  000dc	74 0a		 je	 SHORT $L95283
  000de	66 3d 01 00	 cmp	 ax, 1
  000e2	0f 85 e9 01 00
	00		 jne	 $L95270
$L95283:

; 381  : 	PARAM_ENTRY( SQL_PARAM_INPUT, m_bGroup)

  000e8	3b fb		 cmp	 edi, ebx
  000ea	89 9e 24 08 00
	00		 mov	 DWORD PTR [esi+2084], ebx
  000f0	75 12		 jne	 SHORT $L95284
  000f2	8d 96 6c 0c 00
	00		 lea	 edx, DWORD PTR [esi+3180]
  000f8	52		 push	 edx
  000f9	6a 06		 push	 6
  000fb	6a 01		 push	 1
  000fd	8b ce		 mov	 ecx, esi
  000ff	e8 00 00 00 00	 call	 ?BindParam@CSqlBase@@QAEFFFPAE@Z ; CSqlBase::BindParam
$L95284:
  00104	66 3b c3	 cmp	 ax, bx
  00107	74 0a		 je	 SHORT $L95285
  00109	66 3d 01 00	 cmp	 ax, 1
  0010d	0f 85 be 01 00
	00		 jne	 $L95270
$L95285:

; 382  : 	PARAM_ENTRY( SQL_PARAM_INPUT, m_bSlot)

  00113	3b fb		 cmp	 edi, ebx
  00115	89 9e 28 08 00
	00		 mov	 DWORD PTR [esi+2088], ebx
  0011b	75 12		 jne	 SHORT $L95286
  0011d	8d 86 77 0c 00
	00		 lea	 eax, DWORD PTR [esi+3191]
  00123	50		 push	 eax
  00124	6a 07		 push	 7
  00126	6a 01		 push	 1
  00128	8b ce		 mov	 ecx, esi
  0012a	e8 00 00 00 00	 call	 ?BindParam@CSqlBase@@QAEFFFPAE@Z ; CSqlBase::BindParam
$L95286:
  0012f	66 3b c3	 cmp	 ax, bx
  00132	74 0a		 je	 SHORT $L95287
  00134	66 3d 01 00	 cmp	 ax, 1
  00138	0f 85 93 01 00
	00		 jne	 $L95270
$L95287:

; 383  : 	PARAM_ENTRY( SQL_PARAM_INPUT, m_bClass)

  0013e	3b fb		 cmp	 edi, ebx
  00140	89 9e 2c 08 00
	00		 mov	 DWORD PTR [esi+2092], ebx
  00146	75 12		 jne	 SHORT $L95288
  00148	8d 8e 6d 0c 00
	00		 lea	 ecx, DWORD PTR [esi+3181]
  0014e	51		 push	 ecx
  0014f	6a 08		 push	 8
  00151	6a 01		 push	 1
  00153	8b ce		 mov	 ecx, esi
  00155	e8 00 00 00 00	 call	 ?BindParam@CSqlBase@@QAEFFFPAE@Z ; CSqlBase::BindParam
$L95288:
  0015a	66 3b c3	 cmp	 ax, bx
  0015d	74 0a		 je	 SHORT $L95289
  0015f	66 3d 01 00	 cmp	 ax, 1
  00163	0f 85 68 01 00
	00		 jne	 $L95270
$L95289:

; 384  : 	PARAM_ENTRY( SQL_PARAM_INPUT, m_bRace)

  00169	3b fb		 cmp	 edi, ebx
  0016b	89 9e 30 08 00
	00		 mov	 DWORD PTR [esi+2096], ebx
  00171	75 12		 jne	 SHORT $L95290
  00173	8d 96 6e 0c 00
	00		 lea	 edx, DWORD PTR [esi+3182]
  00179	52		 push	 edx
  0017a	6a 09		 push	 9
  0017c	6a 01		 push	 1
  0017e	8b ce		 mov	 ecx, esi
  00180	e8 00 00 00 00	 call	 ?BindParam@CSqlBase@@QAEFFFPAE@Z ; CSqlBase::BindParam
$L95290:
  00185	66 3b c3	 cmp	 ax, bx
  00188	74 0a		 je	 SHORT $L95291
  0018a	66 3d 01 00	 cmp	 ax, 1
  0018e	0f 85 3d 01 00
	00		 jne	 $L95270
$L95291:

; 385  : 	PARAM_ENTRY( SQL_PARAM_INPUT, m_bCountry)

  00194	3b fb		 cmp	 edi, ebx
  00196	89 9e 34 08 00
	00		 mov	 DWORD PTR [esi+2100], ebx
  0019c	75 12		 jne	 SHORT $L95292
  0019e	8d 86 6f 0c 00
	00		 lea	 eax, DWORD PTR [esi+3183]
  001a4	50		 push	 eax
  001a5	6a 0a		 push	 10			; 0000000aH
  001a7	6a 01		 push	 1
  001a9	8b ce		 mov	 ecx, esi
  001ab	e8 00 00 00 00	 call	 ?BindParam@CSqlBase@@QAEFFFPAE@Z ; CSqlBase::BindParam
$L95292:
  001b0	66 3b c3	 cmp	 ax, bx
  001b3	74 0a		 je	 SHORT $L95293
  001b5	66 3d 01 00	 cmp	 ax, 1
  001b9	0f 85 12 01 00
	00		 jne	 $L95270
$L95293:

; 386  : 	PARAM_ENTRY( SQL_PARAM_INPUT, m_bSex)

  001bf	3b fb		 cmp	 edi, ebx
  001c1	89 9e 38 08 00
	00		 mov	 DWORD PTR [esi+2104], ebx
  001c7	75 12		 jne	 SHORT $L95294
  001c9	8d 8e 70 0c 00
	00		 lea	 ecx, DWORD PTR [esi+3184]
  001cf	51		 push	 ecx
  001d0	6a 0b		 push	 11			; 0000000bH
  001d2	6a 01		 push	 1
  001d4	8b ce		 mov	 ecx, esi
  001d6	e8 00 00 00 00	 call	 ?BindParam@CSqlBase@@QAEFFFPAE@Z ; CSqlBase::BindParam
$L95294:
  001db	66 3b c3	 cmp	 ax, bx
  001de	74 0a		 je	 SHORT $L95295
  001e0	66 3d 01 00	 cmp	 ax, 1
  001e4	0f 85 e7 00 00
	00		 jne	 $L95270
$L95295:

; 387  : 	PARAM_ENTRY( SQL_PARAM_INPUT, m_bHair)

  001ea	3b fb		 cmp	 edi, ebx
  001ec	89 9e 3c 08 00
	00		 mov	 DWORD PTR [esi+2108], ebx
  001f2	75 12		 jne	 SHORT $L95296
  001f4	8d 96 71 0c 00
	00		 lea	 edx, DWORD PTR [esi+3185]
  001fa	52		 push	 edx
  001fb	6a 0c		 push	 12			; 0000000cH
  001fd	6a 01		 push	 1
  001ff	8b ce		 mov	 ecx, esi
  00201	e8 00 00 00 00	 call	 ?BindParam@CSqlBase@@QAEFFFPAE@Z ; CSqlBase::BindParam
$L95296:
  00206	66 3b c3	 cmp	 ax, bx
  00209	74 0a		 je	 SHORT $L95297
  0020b	66 3d 01 00	 cmp	 ax, 1
  0020f	0f 85 bc 00 00
	00		 jne	 $L95270
$L95297:

; 388  : 	PARAM_ENTRY( SQL_PARAM_INPUT, m_bFace)

  00215	3b fb		 cmp	 edi, ebx
  00217	89 9e 40 08 00
	00		 mov	 DWORD PTR [esi+2112], ebx
  0021d	75 12		 jne	 SHORT $L95298
  0021f	8d 86 72 0c 00
	00		 lea	 eax, DWORD PTR [esi+3186]
  00225	50		 push	 eax
  00226	6a 0d		 push	 13			; 0000000dH
  00228	6a 01		 push	 1
  0022a	8b ce		 mov	 ecx, esi
  0022c	e8 00 00 00 00	 call	 ?BindParam@CSqlBase@@QAEFFFPAE@Z ; CSqlBase::BindParam
$L95298:
  00231	66 3b c3	 cmp	 ax, bx
  00234	74 0a		 je	 SHORT $L95299
  00236	66 3d 01 00	 cmp	 ax, 1
  0023a	0f 85 91 00 00
	00		 jne	 $L95270
$L95299:

; 389  : 	PARAM_ENTRY( SQL_PARAM_INPUT, m_bBody)

  00240	3b fb		 cmp	 edi, ebx
  00242	89 9e 44 08 00
	00		 mov	 DWORD PTR [esi+2116], ebx
  00248	75 12		 jne	 SHORT $L95300
  0024a	8d 8e 73 0c 00
	00		 lea	 ecx, DWORD PTR [esi+3187]
  00250	51		 push	 ecx
  00251	6a 0e		 push	 14			; 0000000eH
  00253	6a 01		 push	 1
  00255	8b ce		 mov	 ecx, esi
  00257	e8 00 00 00 00	 call	 ?BindParam@CSqlBase@@QAEFFFPAE@Z ; CSqlBase::BindParam
$L95300:
  0025c	66 3b c3	 cmp	 ax, bx
  0025f	74 06		 je	 SHORT $L95301
  00261	66 3d 01 00	 cmp	 ax, 1
  00265	75 6a		 jne	 SHORT $L95270
$L95301:

; 390  : 	PARAM_ENTRY( SQL_PARAM_INPUT, m_bPants)

  00267	3b fb		 cmp	 edi, ebx
  00269	89 9e 48 08 00
	00		 mov	 DWORD PTR [esi+2120], ebx
  0026f	75 12		 jne	 SHORT $L95302
  00271	8d 96 74 0c 00
	00		 lea	 edx, DWORD PTR [esi+3188]
  00277	52		 push	 edx
  00278	6a 0f		 push	 15			; 0000000fH
  0027a	6a 01		 push	 1
  0027c	8b ce		 mov	 ecx, esi
  0027e	e8 00 00 00 00	 call	 ?BindParam@CSqlBase@@QAEFFFPAE@Z ; CSqlBase::BindParam
$L95302:
  00283	66 3b c3	 cmp	 ax, bx
  00286	74 06		 je	 SHORT $L95303
  00288	66 3d 01 00	 cmp	 ax, 1
  0028c	75 43		 jne	 SHORT $L95270
$L95303:

; 391  : 	PARAM_ENTRY( SQL_PARAM_INPUT, m_bHand)

  0028e	3b fb		 cmp	 edi, ebx
  00290	89 9e 4c 08 00
	00		 mov	 DWORD PTR [esi+2124], ebx
  00296	75 12		 jne	 SHORT $L95304
  00298	8d 86 75 0c 00
	00		 lea	 eax, DWORD PTR [esi+3189]
  0029e	50		 push	 eax
  0029f	6a 10		 push	 16			; 00000010H
  002a1	6a 01		 push	 1
  002a3	8b ce		 mov	 ecx, esi
  002a5	e8 00 00 00 00	 call	 ?BindParam@CSqlBase@@QAEFFFPAE@Z ; CSqlBase::BindParam
$L95304:
  002aa	66 3b c3	 cmp	 ax, bx
  002ad	74 06		 je	 SHORT $L95305
  002af	66 3d 01 00	 cmp	 ax, 1
  002b3	75 1c		 jne	 SHORT $L95270
$L95305:

; 392  : 	PARAM_ENTRY( SQL_PARAM_INPUT, m_bFoot)

  002b5	3b fb		 cmp	 edi, ebx
  002b7	89 9e 50 08 00
	00		 mov	 DWORD PTR [esi+2128], ebx
  002bd	75 12		 jne	 SHORT $L95270
  002bf	8d 8e 76 0c 00
	00		 lea	 ecx, DWORD PTR [esi+3190]
  002c5	51		 push	 ecx
  002c6	6a 11		 push	 17			; 00000011H
  002c8	6a 01		 push	 1
  002ca	8b ce		 mov	 ecx, esi
  002cc	e8 00 00 00 00	 call	 ?BindParam@CSqlBase@@QAEFFFPAE@Z ; CSqlBase::BindParam
$L95270:
  002d1	5f		 pop	 edi
  002d2	5e		 pop	 esi
  002d3	5b		 pop	 ebx

; 393  : END_PARAM()

  002d4	c2 04 00	 ret	 4
?BindParameters@CSPCreateChar@@UAEFH@Z ENDP		; CSPCreateChar::BindParameters
_TEXT	ENDS
PUBLIC	??1CSPCreateChar@@UAE@XZ			; CSPCreateChar::~CSPCreateChar
; Function compile flags: /Ogty
;	COMDAT ??_GCSPCreateChar@@UAEPAXI@Z
_TEXT	SEGMENT
___flags$ = 8						; size = 4
??_GCSPCreateChar@@UAEPAXI@Z PROC NEAR			; CSPCreateChar::`scalar deleting destructor', COMDAT
; _this$ = ecx
  00000	56		 push	 esi
  00001	8b f1		 mov	 esi, ecx
  00003	e8 00 00 00 00	 call	 ??1CSPCreateChar@@UAE@XZ
  00008	f6 44 24 08 01	 test	 BYTE PTR ___flags$[esp], 1
  0000d	74 09		 je	 SHORT $L109173
  0000f	56		 push	 esi
  00010	e8 00 00 00 00	 call	 ??3@YAXPAX@Z		; operator delete
  00015	83 c4 04	 add	 esp, 4
$L109173:
  00018	8b c6		 mov	 eax, esi
  0001a	5e		 pop	 esi
  0001b	c2 04 00	 ret	 4
??_GCSPCreateChar@@UAEPAXI@Z ENDP			; CSPCreateChar::`scalar deleting destructor'
; Function compile flags: /Ogty
_TEXT	ENDS
;	COMDAT ??1CSPCreateChar@@UAE@XZ
_TEXT	SEGMENT
??1CSPCreateChar@@UAE@XZ PROC NEAR			; CSPCreateChar::~CSPCreateChar, COMDAT
; _this$ = ecx
  00000	e9 00 00 00 00	 jmp	 ??1CSqlQuery@@UAE@XZ	; CSqlQuery::~CSqlQuery
??1CSPCreateChar@@UAE@XZ ENDP				; CSPCreateChar::~CSPCreateChar
_TEXT	ENDS
PUBLIC	??0CSPDeleteChar@@QAE@PAVCSqlDatabase@@V?$basic_string@DU?$char_traits@D@std@@V?$allocator@D@2@@std@@@Z ; CSPDeleteChar::CSPDeleteChar
PUBLIC	?GetNumParam@CSPDeleteChar@@UAEHXZ		; CSPDeleteChar::GetNumParam
PUBLIC	?BindParameters@CSPDeleteChar@@UAEFH@Z		; CSPDeleteChar::BindParameters
PUBLIC	??_7CSPDeleteChar@@6B@				; CSPDeleteChar::`vftable'
PUBLIC	??_GCSPDeleteChar@@UAEPAXI@Z			; CSPDeleteChar::`scalar deleting destructor'
PUBLIC	??_C@_0CB@JNHKKEIK@?$HL?5?$DP?5?$DN?5CALL?5TDeleteChar?$CI?$DP?0?$DP?0?$DP?0?$DP?$CJ?$HN@ ; `string'
EXTRN	??_ECSPDeleteChar@@UAEPAXI@Z:NEAR		; CSPDeleteChar::`vector deleting destructor'
;	COMDAT xdata$x
; File c:\program files (x86)\microsoft visual studio .net 2003\vc7\include\iosfwd
xdata$x	SEGMENT
$T109356 DD	0ffffffffH
	DD	FLAT:$L109182
$T109353 DD	019930520H
	DD	01H
	DD	FLAT:$T109356
	DD	2 DUP(00H)
	DD	2 DUP(00H)
xdata$x	ENDS
;	COMDAT ??_C@_0CB@JNHKKEIK@?$HL?5?$DP?5?$DN?5CALL?5TDeleteChar?$CI?$DP?0?$DP?0?$DP?0?$DP?$CJ?$HN@
CONST	SEGMENT
??_C@_0CB@JNHKKEIK@?$HL?5?$DP?5?$DN?5CALL?5TDeleteChar?$CI?$DP?0?$DP?0?$DP?0?$DP?$CJ?$HN@ DB '{'
	DB	' ? = CALL TDeleteChar(?,?,?,?)}', 00H	; `string'
CONST	ENDS
;	COMDAT ??_7CSPDeleteChar@@6B@
CONST	SEGMENT
??_7CSPDeleteChar@@6B@ DD FLAT:??_ECSPDeleteChar@@UAEPAXI@Z ; CSPDeleteChar::`vftable'
	DD	FLAT:?GetNumCol@CSqlBase@@UAEHXZ
	DD	FLAT:?GetNumParam@CSPDeleteChar@@UAEHXZ
	DD	FLAT:?AllocStatement@CSqlQuery@@UAEHXZ
	DD	FLAT:?BindColumns@CSqlQuery@@UAEFXZ
	DD	FLAT:?BindParameters@CSPDeleteChar@@UAEFH@Z
; Function compile flags: /Ogty
; File c:\users\pierr\desktop\4story - oldschool\sources\tserver\tloginsvr\dbaccess.h
CONST	ENDS
;	COMDAT ??0CSPDeleteChar@@QAE@PAVCSqlDatabase@@V?$basic_string@DU?$char_traits@D@std@@V?$allocator@D@2@@std@@@Z
_TEXT	SEGMENT
$T109181 = -16						; size = 4
__$EHRec$ = -12						; size = 12
_pdb$ = 8						; size = 4
_strKey$ = 12						; size = 28
??0CSPDeleteChar@@QAE@PAVCSqlDatabase@@V?$basic_string@DU?$char_traits@D@std@@V?$allocator@D@2@@std@@@Z PROC NEAR ; CSPDeleteChar::CSPDeleteChar, COMDAT
; _this$ = ecx

; 406  : DEF_QUERY( CSPDeleteChar, _T("{ ? = CALL TDeleteChar(?,?,?,?)}"))

  00000	6a ff		 push	 -1
  00002	68 00 00 00 00	 push	 __ehhandler$??0CSPDeleteChar@@QAE@PAVCSqlDatabase@@V?$basic_string@DU?$char_traits@D@std@@V?$allocator@D@2@@std@@@Z
  00007	64 a1 00 00 00
	00		 mov	 eax, DWORD PTR fs:__except_list
  0000d	50		 push	 eax
  0000e	64 89 25 00 00
	00 00		 mov	 DWORD PTR fs:__except_list, esp
  00015	51		 push	 ecx
  00016	56		 push	 esi
  00017	8b f1		 mov	 esi, ecx
  00019	68 00 00 00 00	 push	 OFFSET FLAT:??_C@_0CB@JNHKKEIK@?$HL?5?$DP?5?$DN?5CALL?5TDeleteChar?$CI?$DP?0?$DP?0?$DP?0?$DP?$CJ?$HN@
  0001e	83 ec 1c	 sub	 esp, 28			; 0000001cH
  00021	8b cc		 mov	 ecx, esp
  00023	33 c0		 xor	 eax, eax
  00025	89 64 24 24	 mov	 DWORD PTR $T109181[esp+52], esp
  00029	6a ff		 push	 -1
  0002b	89 41 14	 mov	 DWORD PTR [ecx+20], eax
  0002e	c7 41 18 0f 00
	00 00		 mov	 DWORD PTR [ecx+24], 15	; 0000000fH
  00035	50		 push	 eax
  00036	89 44 24 38	 mov	 DWORD PTR __$EHRec$[esp+68], eax
  0003a	88 41 04	 mov	 BYTE PTR [ecx+4], al
  0003d	8d 44 24 44	 lea	 eax, DWORD PTR _strKey$[esp+56]
  00041	50		 push	 eax
  00042	e8 00 00 00 00	 call	 ?assign@?$basic_string@DU?$char_traits@D@std@@V?$allocator@D@2@@std@@QAEAAV12@ABV12@II@Z ; std::basic_string<char,std::char_traits<char>,std::allocator<char> >::assign
  00047	8b 4c 24 38	 mov	 ecx, DWORD PTR _pdb$[esp+48]
  0004b	51		 push	 ecx
  0004c	8b ce		 mov	 ecx, esi
  0004e	e8 00 00 00 00	 call	 ??0CSqlQuery@@QAE@PAVCSqlDatabase@@V?$basic_string@DU?$char_traits@D@std@@V?$allocator@D@2@@std@@PBD@Z ; CSqlQuery::CSqlQuery
  00053	83 7c 24 34 10	 cmp	 DWORD PTR _strKey$[esp+40], 16 ; 00000010H
  00058	c7 06 00 00 00
	00		 mov	 DWORD PTR [esi], OFFSET FLAT:??_7CSPDeleteChar@@6B@
  0005e	72 0d		 jb	 SHORT $L109354
  00060	8b 54 24 20	 mov	 edx, DWORD PTR _strKey$[esp+20]
  00064	52		 push	 edx
  00065	e8 00 00 00 00	 call	 ??3@YAXPAX@Z		; operator delete
  0006a	83 c4 04	 add	 esp, 4
$L109354:
  0006d	8b 4c 24 08	 mov	 ecx, DWORD PTR __$EHRec$[esp+20]
  00071	8b c6		 mov	 eax, esi
  00073	64 89 0d 00 00
	00 00		 mov	 DWORD PTR fs:__except_list, ecx
  0007a	5e		 pop	 esi
  0007b	83 c4 10	 add	 esp, 16			; 00000010H
  0007e	c2 20 00	 ret	 32			; 00000020H
_TEXT	ENDS
;	COMDAT text$x
text$x	SEGMENT
$L109182:
  00000	8d 4d 08	 lea	 ecx, DWORD PTR _strKey$[ebp-4]
  00003	e9 00 00 00 00	 jmp	 ??1?$basic_string@DU?$char_traits@D@std@@V?$allocator@D@2@@std@@QAE@XZ ; std::basic_string<char,std::char_traits<char>,std::allocator<char> >::~basic_string<char,std::char_traits<char>,std::allocator<char> >
__ehhandler$??0CSPDeleteChar@@QAE@PAVCSqlDatabase@@V?$basic_string@DU?$char_traits@D@std@@V?$allocator@D@2@@std@@@Z:
  00008	b8 00 00 00 00	 mov	 eax, OFFSET FLAT:$T109353
  0000d	e9 00 00 00 00	 jmp	 ___CxxFrameHandler
text$x	ENDS
??0CSPDeleteChar@@QAE@PAVCSqlDatabase@@V?$basic_string@DU?$char_traits@D@std@@V?$allocator@D@2@@std@@@Z ENDP ; CSPDeleteChar::CSPDeleteChar
; Function compile flags: /Ogty
;	COMDAT ?GetNumParam@CSPDeleteChar@@UAEHXZ
_TEXT	SEGMENT
?GetNumParam@CSPDeleteChar@@UAEHXZ PROC NEAR		; CSPDeleteChar::GetNumParam, COMDAT
; _this$ = ecx

; 408  : BEGIN_PARAM(5)

  00000	b8 05 00 00 00	 mov	 eax, 5
  00005	c3		 ret	 0
?GetNumParam@CSPDeleteChar@@UAEHXZ ENDP			; CSPDeleteChar::GetNumParam
; Function compile flags: /Ogty
_TEXT	ENDS
;	COMDAT ?BindParameters@CSPDeleteChar@@UAEFH@Z
_TEXT	SEGMENT
_bRewind$ = 8						; size = 4
?BindParameters@CSPDeleteChar@@UAEFH@Z PROC NEAR	; CSPDeleteChar::BindParameters, COMDAT
; _this$ = ecx

; 408  : BEGIN_PARAM(5)

  00000	53		 push	 ebx
  00001	56		 push	 esi
  00002	57		 push	 edi

; 409  : 	PARAM_ENTRY( SQL_PARAM_OUTPUT, m_nRET)

  00003	8b 7c 24 10	 mov	 edi, DWORD PTR _bRewind$[esp+8]
  00007	33 db		 xor	 ebx, ebx
  00009	8b f1		 mov	 esi, ecx
  0000b	33 c0		 xor	 eax, eax
  0000d	3b fb		 cmp	 edi, ebx
  0000f	89 9e 10 08 00
	00		 mov	 DWORD PTR [esi+2064], ebx
  00015	75 1f		 jne	 SHORT $L95354
  00017	8d 86 2c 0c 00
	00		 lea	 eax, DWORD PTR [esi+3116]
  0001d	50		 push	 eax
  0001e	6a 01		 push	 1
  00020	6a 04		 push	 4
  00022	e8 00 00 00 00	 call	 ?BindParam@CSqlBase@@QAEFFFPAH@Z ; CSqlBase::BindParam
  00027	66 3b c3	 cmp	 ax, bx
  0002a	74 0a		 je	 SHORT $L95354
  0002c	66 3d 01 00	 cmp	 ax, 1
  00030	0f 85 91 00 00
	00		 jne	 $L95349
$L95354:

; 410  : 	PARAM_ENTRY( SQL_PARAM_OUTPUT, m_bCreateCnt)

  00036	3b fb		 cmp	 edi, ebx
  00038	89 9e 14 08 00
	00		 mov	 DWORD PTR [esi+2068], ebx
  0003e	75 12		 jne	 SHORT $L95355
  00040	8d 8e 3c 0c 00
	00		 lea	 ecx, DWORD PTR [esi+3132]
  00046	51		 push	 ecx
  00047	6a 02		 push	 2
  00049	6a 04		 push	 4
  0004b	8b ce		 mov	 ecx, esi
  0004d	e8 00 00 00 00	 call	 ?BindParam@CSqlBase@@QAEFFFPAE@Z ; CSqlBase::BindParam
$L95355:
  00052	66 3b c3	 cmp	 ax, bx
  00055	74 06		 je	 SHORT $L95356
  00057	66 3d 01 00	 cmp	 ax, 1
  0005b	75 6a		 jne	 SHORT $L95349
$L95356:

; 411  : 	PARAM_ENTRY( SQL_PARAM_INPUT, m_bGroup)

  0005d	3b fb		 cmp	 edi, ebx
  0005f	89 9e 18 08 00
	00		 mov	 DWORD PTR [esi+2072], ebx
  00065	75 12		 jne	 SHORT $L95357
  00067	8d 96 30 0c 00
	00		 lea	 edx, DWORD PTR [esi+3120]
  0006d	52		 push	 edx
  0006e	6a 03		 push	 3
  00070	6a 01		 push	 1
  00072	8b ce		 mov	 ecx, esi
  00074	e8 00 00 00 00	 call	 ?BindParam@CSqlBase@@QAEFFFPAE@Z ; CSqlBase::BindParam
$L95357:
  00079	66 3b c3	 cmp	 ax, bx
  0007c	74 06		 je	 SHORT $L95358
  0007e	66 3d 01 00	 cmp	 ax, 1
  00082	75 43		 jne	 SHORT $L95349
$L95358:

; 412  : 	PARAM_ENTRY( SQL_PARAM_INPUT, m_dwUserID)

  00084	3b fb		 cmp	 edi, ebx
  00086	89 9e 1c 08 00
	00		 mov	 DWORD PTR [esi+2076], ebx
  0008c	75 12		 jne	 SHORT $L95359
  0008e	8d 86 34 0c 00
	00		 lea	 eax, DWORD PTR [esi+3124]
  00094	50		 push	 eax
  00095	6a 04		 push	 4
  00097	6a 01		 push	 1
  00099	8b ce		 mov	 ecx, esi
  0009b	e8 00 00 00 00	 call	 ?BindParam@CSqlBase@@QAEFFFPAK@Z ; CSqlBase::BindParam
$L95359:
  000a0	66 3b c3	 cmp	 ax, bx
  000a3	74 06		 je	 SHORT $L95360
  000a5	66 3d 01 00	 cmp	 ax, 1
  000a9	75 1c		 jne	 SHORT $L95349
$L95360:

; 413  : 	PARAM_ENTRY( SQL_PARAM_INPUT, m_dwCharID)

  000ab	3b fb		 cmp	 edi, ebx
  000ad	89 9e 20 08 00
	00		 mov	 DWORD PTR [esi+2080], ebx
  000b3	75 12		 jne	 SHORT $L95349
  000b5	8d 8e 38 0c 00
	00		 lea	 ecx, DWORD PTR [esi+3128]
  000bb	51		 push	 ecx
  000bc	6a 05		 push	 5
  000be	6a 01		 push	 1
  000c0	8b ce		 mov	 ecx, esi
  000c2	e8 00 00 00 00	 call	 ?BindParam@CSqlBase@@QAEFFFPAK@Z ; CSqlBase::BindParam
$L95349:
  000c7	5f		 pop	 edi
  000c8	5e		 pop	 esi
  000c9	5b		 pop	 ebx

; 414  : END_PARAM()

  000ca	c2 04 00	 ret	 4
?BindParameters@CSPDeleteChar@@UAEFH@Z ENDP		; CSPDeleteChar::BindParameters
_TEXT	ENDS
PUBLIC	??1CSPDeleteChar@@UAE@XZ			; CSPDeleteChar::~CSPDeleteChar
; Function compile flags: /Ogty
;	COMDAT ??_GCSPDeleteChar@@UAEPAXI@Z
_TEXT	SEGMENT
___flags$ = 8						; size = 4
??_GCSPDeleteChar@@UAEPAXI@Z PROC NEAR			; CSPDeleteChar::`scalar deleting destructor', COMDAT
; _this$ = ecx
  00000	56		 push	 esi
  00001	8b f1		 mov	 esi, ecx
  00003	e8 00 00 00 00	 call	 ??1CSPDeleteChar@@UAE@XZ
  00008	f6 44 24 08 01	 test	 BYTE PTR ___flags$[esp], 1
  0000d	74 09		 je	 SHORT $L109368
  0000f	56		 push	 esi
  00010	e8 00 00 00 00	 call	 ??3@YAXPAX@Z		; operator delete
  00015	83 c4 04	 add	 esp, 4
$L109368:
  00018	8b c6		 mov	 eax, esi
  0001a	5e		 pop	 esi
  0001b	c2 04 00	 ret	 4
??_GCSPDeleteChar@@UAEPAXI@Z ENDP			; CSPDeleteChar::`scalar deleting destructor'
; Function compile flags: /Ogty
_TEXT	ENDS
;	COMDAT ??1CSPDeleteChar@@UAE@XZ
_TEXT	SEGMENT
??1CSPDeleteChar@@UAE@XZ PROC NEAR			; CSPDeleteChar::~CSPDeleteChar, COMDAT
; _this$ = ecx
  00000	e9 00 00 00 00	 jmp	 ??1CSqlQuery@@UAE@XZ	; CSqlQuery::~CSqlQuery
??1CSPDeleteChar@@UAE@XZ ENDP				; CSPDeleteChar::~CSPDeleteChar
_TEXT	ENDS
PUBLIC	??0CSPFindServerID@@QAE@PAVCSqlDatabase@@V?$basic_string@DU?$char_traits@D@std@@V?$allocator@D@2@@std@@@Z ; CSPFindServerID::CSPFindServerID
PUBLIC	?GetNumParam@CSPFindServerID@@UAEHXZ		; CSPFindServerID::GetNumParam
PUBLIC	?BindParameters@CSPFindServerID@@UAEFH@Z	; CSPFindServerID::BindParameters
PUBLIC	??_7CSPFindServerID@@6B@			; CSPFindServerID::`vftable'
PUBLIC	??_GCSPFindServerID@@UAEPAXI@Z			; CSPFindServerID::`scalar deleting destructor'
PUBLIC	??_C@_0CB@OFIMHJGF@?$HL?5?$DP?5?$DN?5CALL?5TFindServerID?$CI?$DP?0?$DP?0?$DP?$CJ?$HN@ ; `string'
EXTRN	??_ECSPFindServerID@@UAEPAXI@Z:NEAR		; CSPFindServerID::`vector deleting destructor'
;	COMDAT xdata$x
; File c:\program files (x86)\microsoft visual studio .net 2003\vc7\include\iosfwd
xdata$x	SEGMENT
$T109551 DD	0ffffffffH
	DD	FLAT:$L109377
$T109548 DD	019930520H
	DD	01H
	DD	FLAT:$T109551
	DD	2 DUP(00H)
	DD	2 DUP(00H)
xdata$x	ENDS
;	COMDAT ??_C@_0CB@OFIMHJGF@?$HL?5?$DP?5?$DN?5CALL?5TFindServerID?$CI?$DP?0?$DP?0?$DP?$CJ?$HN@
CONST	SEGMENT
??_C@_0CB@OFIMHJGF@?$HL?5?$DP?5?$DN?5CALL?5TFindServerID?$CI?$DP?0?$DP?0?$DP?$CJ?$HN@ DB '{'
	DB	' ? = CALL TFindServerID(?,?,?)}', 00H	; `string'
CONST	ENDS
;	COMDAT ??_7CSPFindServerID@@6B@
CONST	SEGMENT
??_7CSPFindServerID@@6B@ DD FLAT:??_ECSPFindServerID@@UAEPAXI@Z ; CSPFindServerID::`vftable'
	DD	FLAT:?GetNumCol@CSqlBase@@UAEHXZ
	DD	FLAT:?GetNumParam@CSPFindServerID@@UAEHXZ
	DD	FLAT:?AllocStatement@CSqlQuery@@UAEHXZ
	DD	FLAT:?BindColumns@CSqlQuery@@UAEFXZ
	DD	FLAT:?BindParameters@CSPFindServerID@@UAEFH@Z
; Function compile flags: /Ogty
; File c:\users\pierr\desktop\4story - oldschool\sources\tserver\tloginsvr\dbaccess.h
CONST	ENDS
;	COMDAT ??0CSPFindServerID@@QAE@PAVCSqlDatabase@@V?$basic_string@DU?$char_traits@D@std@@V?$allocator@D@2@@std@@@Z
_TEXT	SEGMENT
$T109376 = -16						; size = 4
__$EHRec$ = -12						; size = 12
_pdb$ = 8						; size = 4
_strKey$ = 12						; size = 28
??0CSPFindServerID@@QAE@PAVCSqlDatabase@@V?$basic_string@DU?$char_traits@D@std@@V?$allocator@D@2@@std@@@Z PROC NEAR ; CSPFindServerID::CSPFindServerID, COMDAT
; _this$ = ecx

; 428  : DEF_QUERY( CSPFindServerID, _T("{ ? = CALL TFindServerID(?,?,?)}"))

  00000	6a ff		 push	 -1
  00002	68 00 00 00 00	 push	 __ehhandler$??0CSPFindServerID@@QAE@PAVCSqlDatabase@@V?$basic_string@DU?$char_traits@D@std@@V?$allocator@D@2@@std@@@Z
  00007	64 a1 00 00 00
	00		 mov	 eax, DWORD PTR fs:__except_list
  0000d	50		 push	 eax
  0000e	64 89 25 00 00
	00 00		 mov	 DWORD PTR fs:__except_list, esp
  00015	51		 push	 ecx
  00016	56		 push	 esi
  00017	8b f1		 mov	 esi, ecx
  00019	68 00 00 00 00	 push	 OFFSET FLAT:??_C@_0CB@OFIMHJGF@?$HL?5?$DP?5?$DN?5CALL?5TFindServerID?$CI?$DP?0?$DP?0?$DP?$CJ?$HN@
  0001e	83 ec 1c	 sub	 esp, 28			; 0000001cH
  00021	8b cc		 mov	 ecx, esp
  00023	33 c0		 xor	 eax, eax
  00025	89 64 24 24	 mov	 DWORD PTR $T109376[esp+52], esp
  00029	6a ff		 push	 -1
  0002b	89 41 14	 mov	 DWORD PTR [ecx+20], eax
  0002e	c7 41 18 0f 00
	00 00		 mov	 DWORD PTR [ecx+24], 15	; 0000000fH
  00035	50		 push	 eax
  00036	89 44 24 38	 mov	 DWORD PTR __$EHRec$[esp+68], eax
  0003a	88 41 04	 mov	 BYTE PTR [ecx+4], al
  0003d	8d 44 24 44	 lea	 eax, DWORD PTR _strKey$[esp+56]
  00041	50		 push	 eax
  00042	e8 00 00 00 00	 call	 ?assign@?$basic_string@DU?$char_traits@D@std@@V?$allocator@D@2@@std@@QAEAAV12@ABV12@II@Z ; std::basic_string<char,std::char_traits<char>,std::allocator<char> >::assign
  00047	8b 4c 24 38	 mov	 ecx, DWORD PTR _pdb$[esp+48]
  0004b	51		 push	 ecx
  0004c	8b ce		 mov	 ecx, esi
  0004e	e8 00 00 00 00	 call	 ??0CSqlQuery@@QAE@PAVCSqlDatabase@@V?$basic_string@DU?$char_traits@D@std@@V?$allocator@D@2@@std@@PBD@Z ; CSqlQuery::CSqlQuery
  00053	83 7c 24 34 10	 cmp	 DWORD PTR _strKey$[esp+40], 16 ; 00000010H
  00058	c7 06 00 00 00
	00		 mov	 DWORD PTR [esi], OFFSET FLAT:??_7CSPFindServerID@@6B@
  0005e	72 0d		 jb	 SHORT $L109549
  00060	8b 54 24 20	 mov	 edx, DWORD PTR _strKey$[esp+20]
  00064	52		 push	 edx
  00065	e8 00 00 00 00	 call	 ??3@YAXPAX@Z		; operator delete
  0006a	83 c4 04	 add	 esp, 4
$L109549:
  0006d	8b 4c 24 08	 mov	 ecx, DWORD PTR __$EHRec$[esp+20]
  00071	8b c6		 mov	 eax, esi
  00073	64 89 0d 00 00
	00 00		 mov	 DWORD PTR fs:__except_list, ecx
  0007a	5e		 pop	 esi
  0007b	83 c4 10	 add	 esp, 16			; 00000010H
  0007e	c2 20 00	 ret	 32			; 00000020H
_TEXT	ENDS
;	COMDAT text$x
text$x	SEGMENT
$L109377:
  00000	8d 4d 08	 lea	 ecx, DWORD PTR _strKey$[ebp-4]
  00003	e9 00 00 00 00	 jmp	 ??1?$basic_string@DU?$char_traits@D@std@@V?$allocator@D@2@@std@@QAE@XZ ; std::basic_string<char,std::char_traits<char>,std::allocator<char> >::~basic_string<char,std::char_traits<char>,std::allocator<char> >
__ehhandler$??0CSPFindServerID@@QAE@PAVCSqlDatabase@@V?$basic_string@DU?$char_traits@D@std@@V?$allocator@D@2@@std@@@Z:
  00008	b8 00 00 00 00	 mov	 eax, OFFSET FLAT:$T109548
  0000d	e9 00 00 00 00	 jmp	 ___CxxFrameHandler
text$x	ENDS
??0CSPFindServerID@@QAE@PAVCSqlDatabase@@V?$basic_string@DU?$char_traits@D@std@@V?$allocator@D@2@@std@@@Z ENDP ; CSPFindServerID::CSPFindServerID
; Function compile flags: /Ogty
;	COMDAT ?GetNumParam@CSPFindServerID@@UAEHXZ
_TEXT	SEGMENT
?GetNumParam@CSPFindServerID@@UAEHXZ PROC NEAR		; CSPFindServerID::GetNumParam, COMDAT
; _this$ = ecx

; 430  : BEGIN_PARAM(4)

  00000	b8 04 00 00 00	 mov	 eax, 4
  00005	c3		 ret	 0
?GetNumParam@CSPFindServerID@@UAEHXZ ENDP		; CSPFindServerID::GetNumParam
; Function compile flags: /Ogty
_TEXT	ENDS
;	COMDAT ?BindParameters@CSPFindServerID@@UAEFH@Z
_TEXT	SEGMENT
_bRewind$ = 8						; size = 4
?BindParameters@CSPFindServerID@@UAEFH@Z PROC NEAR	; CSPFindServerID::BindParameters, COMDAT
; _this$ = ecx

; 430  : BEGIN_PARAM(4)

  00000	53		 push	 ebx
  00001	56		 push	 esi
  00002	57		 push	 edi

; 431  : 	PARAM_ENTRY( SQL_PARAM_OUTPUT, m_nRET)

  00003	8b 7c 24 10	 mov	 edi, DWORD PTR _bRewind$[esp+8]
  00007	33 db		 xor	 ebx, ebx
  00009	8b f1		 mov	 esi, ecx
  0000b	33 c0		 xor	 eax, eax
  0000d	3b fb		 cmp	 edi, ebx
  0000f	89 9e 10 08 00
	00		 mov	 DWORD PTR [esi+2064], ebx
  00015	75 1b		 jne	 SHORT $L95408
  00017	8d 86 2c 0c 00
	00		 lea	 eax, DWORD PTR [esi+3116]
  0001d	50		 push	 eax
  0001e	6a 01		 push	 1
  00020	6a 04		 push	 4
  00022	e8 00 00 00 00	 call	 ?BindParam@CSqlBase@@QAEFFFPAH@Z ; CSqlBase::BindParam
  00027	66 3b c3	 cmp	 ax, bx
  0002a	74 06		 je	 SHORT $L95408
  0002c	66 3d 01 00	 cmp	 ax, 1
  00030	75 6a		 jne	 SHORT $L95403
$L95408:

; 432  : 	PARAM_ENTRY( SQL_PARAM_INPUT, m_dwCharID)

  00032	3b fb		 cmp	 edi, ebx
  00034	89 9e 14 08 00
	00		 mov	 DWORD PTR [esi+2068], ebx
  0003a	75 12		 jne	 SHORT $L95409
  0003c	8d 8e 30 0c 00
	00		 lea	 ecx, DWORD PTR [esi+3120]
  00042	51		 push	 ecx
  00043	6a 02		 push	 2
  00045	6a 01		 push	 1
  00047	8b ce		 mov	 ecx, esi
  00049	e8 00 00 00 00	 call	 ?BindParam@CSqlBase@@QAEFFFPAK@Z ; CSqlBase::BindParam
$L95409:
  0004e	66 3b c3	 cmp	 ax, bx
  00051	74 06		 je	 SHORT $L95410
  00053	66 3d 01 00	 cmp	 ax, 1
  00057	75 43		 jne	 SHORT $L95403
$L95410:

; 433  : 	PARAM_ENTRY( SQL_PARAM_INPUT, m_bChannel)

  00059	3b fb		 cmp	 edi, ebx
  0005b	89 9e 18 08 00
	00		 mov	 DWORD PTR [esi+2072], ebx
  00061	75 12		 jne	 SHORT $L95411
  00063	8d 96 35 0c 00
	00		 lea	 edx, DWORD PTR [esi+3125]
  00069	52		 push	 edx
  0006a	6a 03		 push	 3
  0006c	6a 01		 push	 1
  0006e	8b ce		 mov	 ecx, esi
  00070	e8 00 00 00 00	 call	 ?BindParam@CSqlBase@@QAEFFFPAE@Z ; CSqlBase::BindParam
$L95411:
  00075	66 3b c3	 cmp	 ax, bx
  00078	74 06		 je	 SHORT $L95412
  0007a	66 3d 01 00	 cmp	 ax, 1
  0007e	75 1c		 jne	 SHORT $L95403
$L95412:

; 434  : 	PARAM_ENTRY( SQL_PARAM_OUTPUT, m_bServerID)

  00080	3b fb		 cmp	 edi, ebx
  00082	89 9e 1c 08 00
	00		 mov	 DWORD PTR [esi+2076], ebx
  00088	75 12		 jne	 SHORT $L95403
  0008a	8d 86 34 0c 00
	00		 lea	 eax, DWORD PTR [esi+3124]
  00090	50		 push	 eax
  00091	6a 04		 push	 4
  00093	6a 04		 push	 4
  00095	8b ce		 mov	 ecx, esi
  00097	e8 00 00 00 00	 call	 ?BindParam@CSqlBase@@QAEFFFPAE@Z ; CSqlBase::BindParam
$L95403:
  0009c	5f		 pop	 edi
  0009d	5e		 pop	 esi
  0009e	5b		 pop	 ebx

; 435  : END_PARAM()

  0009f	c2 04 00	 ret	 4
?BindParameters@CSPFindServerID@@UAEFH@Z ENDP		; CSPFindServerID::BindParameters
_TEXT	ENDS
PUBLIC	??1CSPFindServerID@@UAE@XZ			; CSPFindServerID::~CSPFindServerID
; Function compile flags: /Ogty
;	COMDAT ??_GCSPFindServerID@@UAEPAXI@Z
_TEXT	SEGMENT
___flags$ = 8						; size = 4
??_GCSPFindServerID@@UAEPAXI@Z PROC NEAR		; CSPFindServerID::`scalar deleting destructor', COMDAT
; _this$ = ecx
  00000	56		 push	 esi
  00001	8b f1		 mov	 esi, ecx
  00003	e8 00 00 00 00	 call	 ??1CSPFindServerID@@UAE@XZ
  00008	f6 44 24 08 01	 test	 BYTE PTR ___flags$[esp], 1
  0000d	74 09		 je	 SHORT $L109563
  0000f	56		 push	 esi
  00010	e8 00 00 00 00	 call	 ??3@YAXPAX@Z		; operator delete
  00015	83 c4 04	 add	 esp, 4
$L109563:
  00018	8b c6		 mov	 eax, esi
  0001a	5e		 pop	 esi
  0001b	c2 04 00	 ret	 4
??_GCSPFindServerID@@UAEPAXI@Z ENDP			; CSPFindServerID::`scalar deleting destructor'
; Function compile flags: /Ogty
_TEXT	ENDS
;	COMDAT ??1CSPFindServerID@@UAE@XZ
_TEXT	SEGMENT
??1CSPFindServerID@@UAE@XZ PROC NEAR			; CSPFindServerID::~CSPFindServerID, COMDAT
; _this$ = ecx
  00000	e9 00 00 00 00	 jmp	 ??1CSqlQuery@@UAE@XZ	; CSqlQuery::~CSqlQuery
??1CSPFindServerID@@UAE@XZ ENDP				; CSPFindServerID::~CSPFindServerID
_TEXT	ENDS
PUBLIC	??0CTBLChar@@QAE@PAVCSqlDatabase@@V?$basic_string@DU?$char_traits@D@std@@V?$allocator@D@2@@std@@@Z ; CTBLChar::CTBLChar
PUBLIC	?GetNumCol@CTBLChar@@UAEHXZ			; CTBLChar::GetNumCol
PUBLIC	?BindColumns@CTBLChar@@UAEFXZ			; CTBLChar::BindColumns
PUBLIC	?GetNumParam@CTBLChar@@UAEHXZ			; CTBLChar::GetNumParam
PUBLIC	?BindParameters@CTBLChar@@UAEFH@Z		; CTBLChar::BindParameters
PUBLIC	??_7CTBLChar@@6B@				; CTBLChar::`vftable'
PUBLIC	??_GCTBLChar@@UAEPAXI@Z				; CTBLChar::`scalar deleting destructor'
PUBLIC	??_C@_0OL@FALAGHJA@SELECT?5TOP?56?5?7szNAME?0?5?7dwCharID?0@ ; `string'
EXTRN	??_ECTBLChar@@UAEPAXI@Z:NEAR			; CTBLChar::`vector deleting destructor'
;	COMDAT xdata$x
; File c:\program files (x86)\microsoft visual studio .net 2003\vc7\include\iosfwd
xdata$x	SEGMENT
$T109746 DD	0ffffffffH
	DD	FLAT:$L109572
$T109743 DD	019930520H
	DD	01H
	DD	FLAT:$T109746
	DD	2 DUP(00H)
	DD	2 DUP(00H)
xdata$x	ENDS
;	COMDAT ??_C@_0OL@FALAGHJA@SELECT?5TOP?56?5?7szNAME?0?5?7dwCharID?0@
CONST	SEGMENT
??_C@_0OL@FALAGHJA@SELECT?5TOP?56?5?7szNAME?0?5?7dwCharID?0@ DB 'SELECT T'
	DB	'OP 6 ', 09H, 'szNAME, ', 09H, 'dwCharID, ', 09H, 'bStartAct, '
	DB	09H, 'bClass, ', 09H, 'bRace, ', 09H, 'bCountry, ', 09H, 'bSex'
	DB	', ', 09H, 'bHair, ', 09H, 'bFace, ', 09H, 'bBody, ', 09H, 'bP'
	DB	'ants, ', 09H, 'bHand, ', 09H, 'bFoot, ', 09H, 'bSlot, ', 09H, 'b'
	DB	'Level, ', 09H, 'dwRegion ', 09H, 'FROM TCHARTABLE ', 09H, 'WH'
	DB	'ERE dwUserID = ? AND bDelete = 0 ORDER BY dLogoutDate DESC', 00H ; `string'
CONST	ENDS
;	COMDAT ??_7CTBLChar@@6B@
CONST	SEGMENT
??_7CTBLChar@@6B@ DD FLAT:??_ECTBLChar@@UAEPAXI@Z	; CTBLChar::`vftable'
	DD	FLAT:?GetNumCol@CTBLChar@@UAEHXZ
	DD	FLAT:?GetNumParam@CTBLChar@@UAEHXZ
	DD	FLAT:?AllocStatement@CSqlQuery@@UAEHXZ
	DD	FLAT:?BindColumns@CTBLChar@@UAEFXZ
	DD	FLAT:?BindParameters@CTBLChar@@UAEFH@Z
; Function compile flags: /Ogty
; File c:\users\pierr\desktop\4story - oldschool\sources\tserver\tloginsvr\dbaccess.h
CONST	ENDS
;	COMDAT ??0CTBLChar@@QAE@PAVCSqlDatabase@@V?$basic_string@DU?$char_traits@D@std@@V?$allocator@D@2@@std@@@Z
_TEXT	SEGMENT
$T109571 = -16						; size = 4
__$EHRec$ = -12						; size = 12
_pdb$ = 8						; size = 4
_strKey$ = 12						; size = 28
??0CTBLChar@@QAE@PAVCSqlDatabase@@V?$basic_string@DU?$char_traits@D@std@@V?$allocator@D@2@@std@@@Z PROC NEAR ; CTBLChar::CTBLChar, COMDAT
; _this$ = ecx

; 479  : 	WHERE dwUserID = ? AND bDelete = 0 ORDER BY dLogoutDate DESC"))

  00000	6a ff		 push	 -1
  00002	68 00 00 00 00	 push	 __ehhandler$??0CTBLChar@@QAE@PAVCSqlDatabase@@V?$basic_string@DU?$char_traits@D@std@@V?$allocator@D@2@@std@@@Z
  00007	64 a1 00 00 00
	00		 mov	 eax, DWORD PTR fs:__except_list
  0000d	50		 push	 eax
  0000e	64 89 25 00 00
	00 00		 mov	 DWORD PTR fs:__except_list, esp
  00015	51		 push	 ecx
  00016	56		 push	 esi
  00017	8b f1		 mov	 esi, ecx
  00019	68 00 00 00 00	 push	 OFFSET FLAT:??_C@_0OL@FALAGHJA@SELECT?5TOP?56?5?7szNAME?0?5?7dwCharID?0@
  0001e	83 ec 1c	 sub	 esp, 28			; 0000001cH
  00021	8b cc		 mov	 ecx, esp
  00023	33 c0		 xor	 eax, eax
  00025	89 64 24 24	 mov	 DWORD PTR $T109571[esp+52], esp
  00029	6a ff		 push	 -1
  0002b	89 41 14	 mov	 DWORD PTR [ecx+20], eax
  0002e	c7 41 18 0f 00
	00 00		 mov	 DWORD PTR [ecx+24], 15	; 0000000fH
  00035	50		 push	 eax
  00036	89 44 24 38	 mov	 DWORD PTR __$EHRec$[esp+68], eax
  0003a	88 41 04	 mov	 BYTE PTR [ecx+4], al
  0003d	8d 44 24 44	 lea	 eax, DWORD PTR _strKey$[esp+56]
  00041	50		 push	 eax
  00042	e8 00 00 00 00	 call	 ?assign@?$basic_string@DU?$char_traits@D@std@@V?$allocator@D@2@@std@@QAEAAV12@ABV12@II@Z ; std::basic_string<char,std::char_traits<char>,std::allocator<char> >::assign
  00047	8b 4c 24 38	 mov	 ecx, DWORD PTR _pdb$[esp+48]
  0004b	51		 push	 ecx
  0004c	8b ce		 mov	 ecx, esi
  0004e	e8 00 00 00 00	 call	 ??0CSqlQuery@@QAE@PAVCSqlDatabase@@V?$basic_string@DU?$char_traits@D@std@@V?$allocator@D@2@@std@@PBD@Z ; CSqlQuery::CSqlQuery
  00053	83 7c 24 34 10	 cmp	 DWORD PTR _strKey$[esp+40], 16 ; 00000010H
  00058	c7 06 00 00 00
	00		 mov	 DWORD PTR [esi], OFFSET FLAT:??_7CTBLChar@@6B@
  0005e	72 0d		 jb	 SHORT $L109744
  00060	8b 54 24 20	 mov	 edx, DWORD PTR _strKey$[esp+20]
  00064	52		 push	 edx
  00065	e8 00 00 00 00	 call	 ??3@YAXPAX@Z		; operator delete
  0006a	83 c4 04	 add	 esp, 4
$L109744:
  0006d	8b 4c 24 08	 mov	 ecx, DWORD PTR __$EHRec$[esp+20]
  00071	8b c6		 mov	 eax, esi
  00073	64 89 0d 00 00
	00 00		 mov	 DWORD PTR fs:__except_list, ecx
  0007a	5e		 pop	 esi
  0007b	83 c4 10	 add	 esp, 16			; 00000010H
  0007e	c2 20 00	 ret	 32			; 00000020H
_TEXT	ENDS
;	COMDAT text$x
text$x	SEGMENT
$L109572:
  00000	8d 4d 08	 lea	 ecx, DWORD PTR _strKey$[ebp-4]
  00003	e9 00 00 00 00	 jmp	 ??1?$basic_string@DU?$char_traits@D@std@@V?$allocator@D@2@@std@@QAE@XZ ; std::basic_string<char,std::char_traits<char>,std::allocator<char> >::~basic_string<char,std::char_traits<char>,std::allocator<char> >
__ehhandler$??0CTBLChar@@QAE@PAVCSqlDatabase@@V?$basic_string@DU?$char_traits@D@std@@V?$allocator@D@2@@std@@@Z:
  00008	b8 00 00 00 00	 mov	 eax, OFFSET FLAT:$T109743
  0000d	e9 00 00 00 00	 jmp	 ___CxxFrameHandler
text$x	ENDS
??0CTBLChar@@QAE@PAVCSqlDatabase@@V?$basic_string@DU?$char_traits@D@std@@V?$allocator@D@2@@std@@@Z ENDP ; CTBLChar::CTBLChar
; Function compile flags: /Ogty
;	COMDAT ?GetNumCol@CTBLChar@@UAEHXZ
_TEXT	SEGMENT
?GetNumCol@CTBLChar@@UAEHXZ PROC NEAR			; CTBLChar::GetNumCol, COMDAT
; _this$ = ecx

; 481  : BEGIN_COLUMN(16)

  00000	b8 10 00 00 00	 mov	 eax, 16			; 00000010H
  00005	c3		 ret	 0
?GetNumCol@CTBLChar@@UAEHXZ ENDP			; CTBLChar::GetNumCol
; Function compile flags: /Ogty
_TEXT	ENDS
;	COMDAT ?BindColumns@CTBLChar@@UAEFXZ
_TEXT	SEGMENT
?BindColumns@CTBLChar@@UAEFXZ PROC NEAR			; CTBLChar::BindColumns, COMDAT
; _this$ = ecx

; 481  : BEGIN_COLUMN(16)

  00000	56		 push	 esi
  00001	8b f1		 mov	 esi, ecx

; 482  : 	COLUMN_ENTRY_STR(m_szNAME)

  00003	6a 33		 push	 51			; 00000033H
  00005	8d 86 2c 0c 00
	00		 lea	 eax, DWORD PTR [esi+3116]
  0000b	50		 push	 eax
  0000c	6a 01		 push	 1
  0000e	e8 00 00 00 00	 call	 ?BindColStr@CSqlBase@@QAEFFPADJ@Z ; CSqlBase::BindColStr
  00013	66 85 c0	 test	 ax, ax
  00016	74 0a		 je	 SHORT $L95474
  00018	66 3d 01 00	 cmp	 ax, 1
  0001c	0f 85 ae 01 00
	00		 jne	 $L95470
$L95474:

; 483  : 	COLUMN_ENTRY(m_dwCharID)

  00022	8d 8e 64 0c 00
	00		 lea	 ecx, DWORD PTR [esi+3172]
  00028	51		 push	 ecx
  00029	6a 02		 push	 2
  0002b	8b ce		 mov	 ecx, esi
  0002d	e8 00 00 00 00	 call	 ?BindCol@CSqlBase@@QAEFFPAK@Z ; CSqlBase::BindCol
  00032	66 85 c0	 test	 ax, ax
  00035	74 0a		 je	 SHORT $L95475
  00037	66 3d 01 00	 cmp	 ax, 1
  0003b	0f 85 8f 01 00
	00		 jne	 $L95470
$L95475:

; 484  : 	COLUMN_ENTRY(m_bStartAct)

  00041	8d 96 6c 0c 00
	00		 lea	 edx, DWORD PTR [esi+3180]
  00047	52		 push	 edx
  00048	6a 03		 push	 3
  0004a	8b ce		 mov	 ecx, esi
  0004c	e8 00 00 00 00	 call	 ?BindCol@CSqlBase@@QAEFFPAE@Z ; CSqlBase::BindCol
  00051	66 85 c0	 test	 ax, ax
  00054	74 0a		 je	 SHORT $L95476
  00056	66 3d 01 00	 cmp	 ax, 1
  0005a	0f 85 70 01 00
	00		 jne	 $L95470
$L95476:

; 485  : 	COLUMN_ENTRY(m_bClass)

  00060	8d 86 6d 0c 00
	00		 lea	 eax, DWORD PTR [esi+3181]
  00066	50		 push	 eax
  00067	6a 04		 push	 4
  00069	8b ce		 mov	 ecx, esi
  0006b	e8 00 00 00 00	 call	 ?BindCol@CSqlBase@@QAEFFPAE@Z ; CSqlBase::BindCol
  00070	66 85 c0	 test	 ax, ax
  00073	74 0a		 je	 SHORT $L95477
  00075	66 3d 01 00	 cmp	 ax, 1
  00079	0f 85 51 01 00
	00		 jne	 $L95470
$L95477:

; 486  : 	COLUMN_ENTRY(m_bRace)

  0007f	8d 8e 6e 0c 00
	00		 lea	 ecx, DWORD PTR [esi+3182]
  00085	51		 push	 ecx
  00086	6a 05		 push	 5
  00088	8b ce		 mov	 ecx, esi
  0008a	e8 00 00 00 00	 call	 ?BindCol@CSqlBase@@QAEFFPAE@Z ; CSqlBase::BindCol
  0008f	66 85 c0	 test	 ax, ax
  00092	74 0a		 je	 SHORT $L95478
  00094	66 3d 01 00	 cmp	 ax, 1
  00098	0f 85 32 01 00
	00		 jne	 $L95470
$L95478:

; 487  : 	COLUMN_ENTRY(m_bCountry)

  0009e	8d 96 6f 0c 00
	00		 lea	 edx, DWORD PTR [esi+3183]
  000a4	52		 push	 edx
  000a5	6a 06		 push	 6
  000a7	8b ce		 mov	 ecx, esi
  000a9	e8 00 00 00 00	 call	 ?BindCol@CSqlBase@@QAEFFPAE@Z ; CSqlBase::BindCol
  000ae	66 85 c0	 test	 ax, ax
  000b1	74 0a		 je	 SHORT $L95479
  000b3	66 3d 01 00	 cmp	 ax, 1
  000b7	0f 85 13 01 00
	00		 jne	 $L95470
$L95479:

; 488  : 	COLUMN_ENTRY(m_bSex)

  000bd	8d 86 70 0c 00
	00		 lea	 eax, DWORD PTR [esi+3184]
  000c3	50		 push	 eax
  000c4	6a 07		 push	 7
  000c6	8b ce		 mov	 ecx, esi
  000c8	e8 00 00 00 00	 call	 ?BindCol@CSqlBase@@QAEFFPAE@Z ; CSqlBase::BindCol
  000cd	66 85 c0	 test	 ax, ax
  000d0	74 0a		 je	 SHORT $L95480
  000d2	66 3d 01 00	 cmp	 ax, 1
  000d6	0f 85 f4 00 00
	00		 jne	 $L95470
$L95480:

; 489  : 	COLUMN_ENTRY(m_bHair)

  000dc	8d 8e 71 0c 00
	00		 lea	 ecx, DWORD PTR [esi+3185]
  000e2	51		 push	 ecx
  000e3	6a 08		 push	 8
  000e5	8b ce		 mov	 ecx, esi
  000e7	e8 00 00 00 00	 call	 ?BindCol@CSqlBase@@QAEFFPAE@Z ; CSqlBase::BindCol
  000ec	66 85 c0	 test	 ax, ax
  000ef	74 0a		 je	 SHORT $L95481
  000f1	66 3d 01 00	 cmp	 ax, 1
  000f5	0f 85 d5 00 00
	00		 jne	 $L95470
$L95481:

; 490  : 	COLUMN_ENTRY(m_bFace)

  000fb	8d 96 72 0c 00
	00		 lea	 edx, DWORD PTR [esi+3186]
  00101	52		 push	 edx
  00102	6a 09		 push	 9
  00104	8b ce		 mov	 ecx, esi
  00106	e8 00 00 00 00	 call	 ?BindCol@CSqlBase@@QAEFFPAE@Z ; CSqlBase::BindCol
  0010b	66 85 c0	 test	 ax, ax
  0010e	74 0a		 je	 SHORT $L95482
  00110	66 3d 01 00	 cmp	 ax, 1
  00114	0f 85 b6 00 00
	00		 jne	 $L95470
$L95482:

; 491  : 	COLUMN_ENTRY(m_bBody)

  0011a	8d 86 73 0c 00
	00		 lea	 eax, DWORD PTR [esi+3187]
  00120	50		 push	 eax
  00121	6a 0a		 push	 10			; 0000000aH
  00123	8b ce		 mov	 ecx, esi
  00125	e8 00 00 00 00	 call	 ?BindCol@CSqlBase@@QAEFFPAE@Z ; CSqlBase::BindCol
  0012a	66 85 c0	 test	 ax, ax
  0012d	74 0a		 je	 SHORT $L95483
  0012f	66 3d 01 00	 cmp	 ax, 1
  00133	0f 85 97 00 00
	00		 jne	 $L95470
$L95483:

; 492  : 	COLUMN_ENTRY(m_bPants)

  00139	8d 8e 74 0c 00
	00		 lea	 ecx, DWORD PTR [esi+3188]
  0013f	51		 push	 ecx
  00140	6a 0b		 push	 11			; 0000000bH
  00142	8b ce		 mov	 ecx, esi
  00144	e8 00 00 00 00	 call	 ?BindCol@CSqlBase@@QAEFFPAE@Z ; CSqlBase::BindCol
  00149	66 85 c0	 test	 ax, ax
  0014c	74 06		 je	 SHORT $L95484
  0014e	66 3d 01 00	 cmp	 ax, 1
  00152	75 7c		 jne	 SHORT $L95470
$L95484:

; 493  : 	COLUMN_ENTRY(m_bHand)

  00154	8d 96 75 0c 00
	00		 lea	 edx, DWORD PTR [esi+3189]
  0015a	52		 push	 edx
  0015b	6a 0c		 push	 12			; 0000000cH
  0015d	8b ce		 mov	 ecx, esi
  0015f	e8 00 00 00 00	 call	 ?BindCol@CSqlBase@@QAEFFPAE@Z ; CSqlBase::BindCol
  00164	66 85 c0	 test	 ax, ax
  00167	74 06		 je	 SHORT $L95485
  00169	66 3d 01 00	 cmp	 ax, 1
  0016d	75 61		 jne	 SHORT $L95470
$L95485:

; 494  : 	COLUMN_ENTRY(m_bFoot)

  0016f	8d 86 76 0c 00
	00		 lea	 eax, DWORD PTR [esi+3190]
  00175	50		 push	 eax
  00176	6a 0d		 push	 13			; 0000000dH
  00178	8b ce		 mov	 ecx, esi
  0017a	e8 00 00 00 00	 call	 ?BindCol@CSqlBase@@QAEFFPAE@Z ; CSqlBase::BindCol
  0017f	66 85 c0	 test	 ax, ax
  00182	74 06		 je	 SHORT $L95486
  00184	66 3d 01 00	 cmp	 ax, 1
  00188	75 46		 jne	 SHORT $L95470
$L95486:

; 495  : 	COLUMN_ENTRY(m_bSlot)

  0018a	8d 8e 77 0c 00
	00		 lea	 ecx, DWORD PTR [esi+3191]
  00190	51		 push	 ecx
  00191	6a 0e		 push	 14			; 0000000eH
  00193	8b ce		 mov	 ecx, esi
  00195	e8 00 00 00 00	 call	 ?BindCol@CSqlBase@@QAEFFPAE@Z ; CSqlBase::BindCol
  0019a	66 85 c0	 test	 ax, ax
  0019d	74 06		 je	 SHORT $L95487
  0019f	66 3d 01 00	 cmp	 ax, 1
  001a3	75 2b		 jne	 SHORT $L95470
$L95487:

; 496  : 	COLUMN_ENTRY(m_bLevel)

  001a5	8d 96 78 0c 00
	00		 lea	 edx, DWORD PTR [esi+3192]
  001ab	52		 push	 edx
  001ac	6a 0f		 push	 15			; 0000000fH
  001ae	8b ce		 mov	 ecx, esi
  001b0	e8 00 00 00 00	 call	 ?BindCol@CSqlBase@@QAEFFPAE@Z ; CSqlBase::BindCol
  001b5	66 85 c0	 test	 ax, ax
  001b8	74 06		 je	 SHORT $L95488
  001ba	66 3d 01 00	 cmp	 ax, 1
  001be	75 10		 jne	 SHORT $L95470
$L95488:

; 497  : 	COLUMN_ENTRY(m_dwRegion)

  001c0	8d 86 68 0c 00
	00		 lea	 eax, DWORD PTR [esi+3176]
  001c6	50		 push	 eax
  001c7	6a 10		 push	 16			; 00000010H
  001c9	8b ce		 mov	 ecx, esi
  001cb	e8 00 00 00 00	 call	 ?BindCol@CSqlBase@@QAEFFPAK@Z ; CSqlBase::BindCol
$L95470:
  001d0	5e		 pop	 esi

; 498  : END_COL()

  001d1	c3		 ret	 0
?BindColumns@CTBLChar@@UAEFXZ ENDP			; CTBLChar::BindColumns
; Function compile flags: /Ogty
_TEXT	ENDS
;	COMDAT ?GetNumParam@CTBLChar@@UAEHXZ
_TEXT	SEGMENT
?GetNumParam@CTBLChar@@UAEHXZ PROC NEAR			; CTBLChar::GetNumParam, COMDAT
; _this$ = ecx

; 500  : BEGIN_PARAM(1)

  00000	b8 01 00 00 00	 mov	 eax, 1
  00005	c3		 ret	 0
?GetNumParam@CTBLChar@@UAEHXZ ENDP			; CTBLChar::GetNumParam
; Function compile flags: /Ogty
_TEXT	ENDS
;	COMDAT ?BindParameters@CTBLChar@@UAEFH@Z
_TEXT	SEGMENT
_bRewind$ = 8						; size = 4
?BindParameters@CTBLChar@@UAEFH@Z PROC NEAR		; CTBLChar::BindParameters, COMDAT
; _this$ = ecx

; 501  : 	PARAM_ENTRY( SQL_PARAM_INPUT, m_dwUserID)

  00000	8b 54 24 04	 mov	 edx, DWORD PTR _bRewind$[esp-4]
  00004	33 c0		 xor	 eax, eax
  00006	85 d2		 test	 edx, edx
  00008	89 81 10 08 00
	00		 mov	 DWORD PTR [ecx+2064], eax
  0000e	75 10		 jne	 SHORT $L95494
  00010	8d 81 60 0c 00
	00		 lea	 eax, DWORD PTR [ecx+3168]
  00016	50		 push	 eax
  00017	6a 01		 push	 1
  00019	6a 01		 push	 1
  0001b	e8 00 00 00 00	 call	 ?BindParam@CSqlBase@@QAEFFFPAK@Z ; CSqlBase::BindParam
$L95494:

; 502  : END_PARAM()

  00020	c2 04 00	 ret	 4
?BindParameters@CTBLChar@@UAEFH@Z ENDP			; CTBLChar::BindParameters
_TEXT	ENDS
PUBLIC	??1CTBLChar@@UAE@XZ				; CTBLChar::~CTBLChar
; Function compile flags: /Ogty
;	COMDAT ??_GCTBLChar@@UAEPAXI@Z
_TEXT	SEGMENT
___flags$ = 8						; size = 4
??_GCTBLChar@@UAEPAXI@Z PROC NEAR			; CTBLChar::`scalar deleting destructor', COMDAT
; _this$ = ecx
  00000	56		 push	 esi
  00001	8b f1		 mov	 esi, ecx
  00003	e8 00 00 00 00	 call	 ??1CTBLChar@@UAE@XZ
  00008	f6 44 24 08 01	 test	 BYTE PTR ___flags$[esp], 1
  0000d	74 09		 je	 SHORT $L109764
  0000f	56		 push	 esi
  00010	e8 00 00 00 00	 call	 ??3@YAXPAX@Z		; operator delete
  00015	83 c4 04	 add	 esp, 4
$L109764:
  00018	8b c6		 mov	 eax, esi
  0001a	5e		 pop	 esi
  0001b	c2 04 00	 ret	 4
??_GCTBLChar@@UAEPAXI@Z ENDP				; CTBLChar::`scalar deleting destructor'
; Function compile flags: /Ogty
_TEXT	ENDS
;	COMDAT ??1CTBLChar@@UAE@XZ
_TEXT	SEGMENT
??1CTBLChar@@UAE@XZ PROC NEAR				; CTBLChar::~CTBLChar, COMDAT
; _this$ = ecx
  00000	e9 00 00 00 00	 jmp	 ??1CSqlQuery@@UAE@XZ	; CSqlQuery::~CSqlQuery
??1CTBLChar@@UAE@XZ ENDP				; CTBLChar::~CTBLChar
_TEXT	ENDS
PUBLIC	??0CTBLItem@@QAE@PAVCSqlDatabase@@V?$basic_string@DU?$char_traits@D@std@@V?$allocator@D@2@@std@@@Z ; CTBLItem::CTBLItem
PUBLIC	?GetNumCol@CTBLItem@@UAEHXZ			; CTBLItem::GetNumCol
PUBLIC	?BindColumns@CTBLItem@@UAEFXZ			; CTBLItem::BindColumns
PUBLIC	?GetNumParam@CTBLItem@@UAEHXZ			; CTBLItem::GetNumParam
PUBLIC	?BindParameters@CTBLItem@@UAEFH@Z		; CTBLItem::BindParameters
PUBLIC	??_7CTBLItem@@6B@				; CTBLItem::`vftable'
PUBLIC	??_GCTBLItem@@UAEPAXI@Z				; CTBLItem::`scalar deleting destructor'
PUBLIC	??_C@_0KD@GFNFKGDN@SELECT?5?7bItemID?0?5?7wItemID?0?5?7bLev@ ; `string'
EXTRN	??_ECTBLItem@@UAEPAXI@Z:NEAR			; CTBLItem::`vector deleting destructor'
;	COMDAT xdata$x
; File c:\program files (x86)\microsoft visual studio .net 2003\vc7\include\iosfwd
xdata$x	SEGMENT
$T109947 DD	0ffffffffH
	DD	FLAT:$L109773
$T109944 DD	019930520H
	DD	01H
	DD	FLAT:$T109947
	DD	2 DUP(00H)
	DD	2 DUP(00H)
xdata$x	ENDS
;	COMDAT ??_C@_0KD@GFNFKGDN@SELECT?5?7bItemID?0?5?7wItemID?0?5?7bLev@
CONST	SEGMENT
??_C@_0KD@GFNFKGDN@SELECT?5?7bItemID?0?5?7wItemID?0?5?7bLev@ DB 'SELECT ', 09H
	DB	'bItemID, ', 09H, 'wItemID, ', 09H, 'bLevel, ', 09H, 'bGradeEf'
	DB	'fect, ', 09H, 'dwTime3, ', 09H, 'dwTime4 ', 09H, 'FROM TITEMT'
	DB	'ABLE ', 09H, 'WHERE dwOwnerID =? AND bOwnerType=? AND bStorag'
	DB	'eType=? AND dwStorageID = ?', 00H		; `string'
CONST	ENDS
;	COMDAT ??_7CTBLItem@@6B@
CONST	SEGMENT
??_7CTBLItem@@6B@ DD FLAT:??_ECTBLItem@@UAEPAXI@Z	; CTBLItem::`vftable'
	DD	FLAT:?GetNumCol@CTBLItem@@UAEHXZ
	DD	FLAT:?GetNumParam@CTBLItem@@UAEHXZ
	DD	FLAT:?AllocStatement@CSqlQuery@@UAEHXZ
	DD	FLAT:?BindColumns@CTBLItem@@UAEFXZ
	DD	FLAT:?BindParameters@CTBLItem@@UAEFH@Z
; Function compile flags: /Ogty
; File c:\users\pierr\desktop\4story - oldschool\sources\tserver\tloginsvr\dbaccess.h
CONST	ENDS
;	COMDAT ??0CTBLItem@@QAE@PAVCSqlDatabase@@V?$basic_string@DU?$char_traits@D@std@@V?$allocator@D@2@@std@@@Z
_TEXT	SEGMENT
$T109772 = -16						; size = 4
__$EHRec$ = -12						; size = 12
_pdb$ = 8						; size = 4
_strKey$ = 12						; size = 28
??0CTBLItem@@QAE@PAVCSqlDatabase@@V?$basic_string@DU?$char_traits@D@std@@V?$allocator@D@2@@std@@@Z PROC NEAR ; CTBLItem::CTBLItem, COMDAT
; _this$ = ecx

; 530  : 	WHERE dwOwnerID =? AND bOwnerType=? AND bStorageType=? AND dwStorageID = ?"))

  00000	6a ff		 push	 -1
  00002	68 00 00 00 00	 push	 __ehhandler$??0CTBLItem@@QAE@PAVCSqlDatabase@@V?$basic_string@DU?$char_traits@D@std@@V?$allocator@D@2@@std@@@Z
  00007	64 a1 00 00 00
	00		 mov	 eax, DWORD PTR fs:__except_list
  0000d	50		 push	 eax
  0000e	64 89 25 00 00
	00 00		 mov	 DWORD PTR fs:__except_list, esp
  00015	51		 push	 ecx
  00016	56		 push	 esi
  00017	8b f1		 mov	 esi, ecx
  00019	68 00 00 00 00	 push	 OFFSET FLAT:??_C@_0KD@GFNFKGDN@SELECT?5?7bItemID?0?5?7wItemID?0?5?7bLev@
  0001e	83 ec 1c	 sub	 esp, 28			; 0000001cH
  00021	8b cc		 mov	 ecx, esp
  00023	33 c0		 xor	 eax, eax
  00025	89 64 24 24	 mov	 DWORD PTR $T109772[esp+52], esp
  00029	6a ff		 push	 -1
  0002b	89 41 14	 mov	 DWORD PTR [ecx+20], eax
  0002e	c7 41 18 0f 00
	00 00		 mov	 DWORD PTR [ecx+24], 15	; 0000000fH
  00035	50		 push	 eax
  00036	89 44 24 38	 mov	 DWORD PTR __$EHRec$[esp+68], eax
  0003a	88 41 04	 mov	 BYTE PTR [ecx+4], al
  0003d	8d 44 24 44	 lea	 eax, DWORD PTR _strKey$[esp+56]
  00041	50		 push	 eax
  00042	e8 00 00 00 00	 call	 ?assign@?$basic_string@DU?$char_traits@D@std@@V?$allocator@D@2@@std@@QAEAAV12@ABV12@II@Z ; std::basic_string<char,std::char_traits<char>,std::allocator<char> >::assign
  00047	8b 4c 24 38	 mov	 ecx, DWORD PTR _pdb$[esp+48]
  0004b	51		 push	 ecx
  0004c	8b ce		 mov	 ecx, esi
  0004e	e8 00 00 00 00	 call	 ??0CSqlQuery@@QAE@PAVCSqlDatabase@@V?$basic_string@DU?$char_traits@D@std@@V?$allocator@D@2@@std@@PBD@Z ; CSqlQuery::CSqlQuery
  00053	83 7c 24 34 10	 cmp	 DWORD PTR _strKey$[esp+40], 16 ; 00000010H
  00058	c7 06 00 00 00
	00		 mov	 DWORD PTR [esi], OFFSET FLAT:??_7CTBLItem@@6B@
  0005e	72 0d		 jb	 SHORT $L109945
  00060	8b 54 24 20	 mov	 edx, DWORD PTR _strKey$[esp+20]
  00064	52		 push	 edx
  00065	e8 00 00 00 00	 call	 ??3@YAXPAX@Z		; operator delete
  0006a	83 c4 04	 add	 esp, 4
$L109945:
  0006d	8b 4c 24 08	 mov	 ecx, DWORD PTR __$EHRec$[esp+20]
  00071	8b c6		 mov	 eax, esi
  00073	64 89 0d 00 00
	00 00		 mov	 DWORD PTR fs:__except_list, ecx
  0007a	5e		 pop	 esi
  0007b	83 c4 10	 add	 esp, 16			; 00000010H
  0007e	c2 20 00	 ret	 32			; 00000020H
_TEXT	ENDS
;	COMDAT text$x
text$x	SEGMENT
$L109773:
  00000	8d 4d 08	 lea	 ecx, DWORD PTR _strKey$[ebp-4]
  00003	e9 00 00 00 00	 jmp	 ??1?$basic_string@DU?$char_traits@D@std@@V?$allocator@D@2@@std@@QAE@XZ ; std::basic_string<char,std::char_traits<char>,std::allocator<char> >::~basic_string<char,std::char_traits<char>,std::allocator<char> >
__ehhandler$??0CTBLItem@@QAE@PAVCSqlDatabase@@V?$basic_string@DU?$char_traits@D@std@@V?$allocator@D@2@@std@@@Z:
  00008	b8 00 00 00 00	 mov	 eax, OFFSET FLAT:$T109944
  0000d	e9 00 00 00 00	 jmp	 ___CxxFrameHandler
text$x	ENDS
??0CTBLItem@@QAE@PAVCSqlDatabase@@V?$basic_string@DU?$char_traits@D@std@@V?$allocator@D@2@@std@@@Z ENDP ; CTBLItem::CTBLItem
; Function compile flags: /Ogty
;	COMDAT ?GetNumCol@CTBLItem@@UAEHXZ
_TEXT	SEGMENT
?GetNumCol@CTBLItem@@UAEHXZ PROC NEAR			; CTBLItem::GetNumCol, COMDAT
; _this$ = ecx

; 532  : BEGIN_COLUMN(6)

  00000	b8 06 00 00 00	 mov	 eax, 6
  00005	c3		 ret	 0
?GetNumCol@CTBLItem@@UAEHXZ ENDP			; CTBLItem::GetNumCol
; Function compile flags: /Ogty
_TEXT	ENDS
;	COMDAT ?BindColumns@CTBLItem@@UAEFXZ
_TEXT	SEGMENT
?BindColumns@CTBLItem@@UAEFXZ PROC NEAR			; CTBLItem::BindColumns, COMDAT
; _this$ = ecx

; 532  : BEGIN_COLUMN(6)

  00000	56		 push	 esi
  00001	8b f1		 mov	 esi, ecx

; 533  : 	COLUMN_ENTRY(m_bItemID)

  00003	8d 86 3d 0c 00
	00		 lea	 eax, DWORD PTR [esi+3133]
  00009	50		 push	 eax
  0000a	6a 01		 push	 1
  0000c	e8 00 00 00 00	 call	 ?BindCol@CSqlBase@@QAEFFPAE@Z ; CSqlBase::BindCol
  00011	66 85 c0	 test	 ax, ax
  00014	74 06		 je	 SHORT $L95553
  00016	66 3d 01 00	 cmp	 ax, 1
  0001a	75 7c		 jne	 SHORT $L95549
$L95553:

; 534  : 	COLUMN_ENTRY(m_wItemID)

  0001c	8d 8e 3e 0c 00
	00		 lea	 ecx, DWORD PTR [esi+3134]
  00022	51		 push	 ecx
  00023	6a 02		 push	 2
  00025	8b ce		 mov	 ecx, esi
  00027	e8 00 00 00 00	 call	 ?BindCol@CSqlBase@@QAEFFPAG@Z ; CSqlBase::BindCol
  0002c	66 85 c0	 test	 ax, ax
  0002f	74 06		 je	 SHORT $L95554
  00031	66 3d 01 00	 cmp	 ax, 1
  00035	75 61		 jne	 SHORT $L95549
$L95554:

; 535  : 	COLUMN_ENTRY(m_bLevel)

  00037	8d 96 40 0c 00
	00		 lea	 edx, DWORD PTR [esi+3136]
  0003d	52		 push	 edx
  0003e	6a 03		 push	 3
  00040	8b ce		 mov	 ecx, esi
  00042	e8 00 00 00 00	 call	 ?BindCol@CSqlBase@@QAEFFPAE@Z ; CSqlBase::BindCol
  00047	66 85 c0	 test	 ax, ax
  0004a	74 06		 je	 SHORT $L95555
  0004c	66 3d 01 00	 cmp	 ax, 1
  00050	75 46		 jne	 SHORT $L95549
$L95555:

; 536  : 	COLUMN_ENTRY(m_bGradeEffect)

  00052	8d 86 41 0c 00
	00		 lea	 eax, DWORD PTR [esi+3137]
  00058	50		 push	 eax
  00059	6a 04		 push	 4
  0005b	8b ce		 mov	 ecx, esi
  0005d	e8 00 00 00 00	 call	 ?BindCol@CSqlBase@@QAEFFPAE@Z ; CSqlBase::BindCol
  00062	66 85 c0	 test	 ax, ax
  00065	74 06		 je	 SHORT $L95556
  00067	66 3d 01 00	 cmp	 ax, 1
  0006b	75 2b		 jne	 SHORT $L95549
$L95556:

; 537  : 	COLUMN_ENTRY(m_dwColor)

  0006d	8d 8e 44 0c 00
	00		 lea	 ecx, DWORD PTR [esi+3140]
  00073	51		 push	 ecx
  00074	6a 05		 push	 5
  00076	8b ce		 mov	 ecx, esi
  00078	e8 00 00 00 00	 call	 ?BindCol@CSqlBase@@QAEFFPAK@Z ; CSqlBase::BindCol
  0007d	66 85 c0	 test	 ax, ax
  00080	74 06		 je	 SHORT $L95557
  00082	66 3d 01 00	 cmp	 ax, 1
  00086	75 10		 jne	 SHORT $L95549
$L95557:

; 538  : 	COLUMN_ENTRY(m_dwRegGuild)

  00088	8d 96 48 0c 00
	00		 lea	 edx, DWORD PTR [esi+3144]
  0008e	52		 push	 edx
  0008f	6a 06		 push	 6
  00091	8b ce		 mov	 ecx, esi
  00093	e8 00 00 00 00	 call	 ?BindCol@CSqlBase@@QAEFFPAK@Z ; CSqlBase::BindCol
$L95549:
  00098	5e		 pop	 esi

; 539  : END_COL()

  00099	c3		 ret	 0
?BindColumns@CTBLItem@@UAEFXZ ENDP			; CTBLItem::BindColumns
; Function compile flags: /Ogty
_TEXT	ENDS
;	COMDAT ?GetNumParam@CTBLItem@@UAEHXZ
_TEXT	SEGMENT
?GetNumParam@CTBLItem@@UAEHXZ PROC NEAR			; CTBLItem::GetNumParam, COMDAT
; _this$ = ecx

; 541  : BEGIN_PARAM(4)

  00000	b8 04 00 00 00	 mov	 eax, 4
  00005	c3		 ret	 0
?GetNumParam@CTBLItem@@UAEHXZ ENDP			; CTBLItem::GetNumParam
; Function compile flags: /Ogty
_TEXT	ENDS
;	COMDAT ?BindParameters@CTBLItem@@UAEFH@Z
_TEXT	SEGMENT
_bRewind$ = 8						; size = 4
?BindParameters@CTBLItem@@UAEFH@Z PROC NEAR		; CTBLItem::BindParameters, COMDAT
; _this$ = ecx

; 541  : BEGIN_PARAM(4)

  00000	53		 push	 ebx
  00001	56		 push	 esi
  00002	57		 push	 edi

; 542  : 	PARAM_ENTRY( SQL_PARAM_INPUT, m_dwOwnerID)

  00003	8b 7c 24 10	 mov	 edi, DWORD PTR _bRewind$[esp+8]
  00007	33 db		 xor	 ebx, ebx
  00009	8b f1		 mov	 esi, ecx
  0000b	33 c0		 xor	 eax, eax
  0000d	3b fb		 cmp	 edi, ebx
  0000f	89 9e 10 08 00
	00		 mov	 DWORD PTR [esi+2064], ebx
  00015	75 1b		 jne	 SHORT $L95568
  00017	8d 86 38 0c 00
	00		 lea	 eax, DWORD PTR [esi+3128]
  0001d	50		 push	 eax
  0001e	6a 01		 push	 1
  00020	6a 01		 push	 1
  00022	e8 00 00 00 00	 call	 ?BindParam@CSqlBase@@QAEFFFPAK@Z ; CSqlBase::BindParam
  00027	66 3b c3	 cmp	 ax, bx
  0002a	74 06		 je	 SHORT $L95568
  0002c	66 3d 01 00	 cmp	 ax, 1
  00030	75 6a		 jne	 SHORT $L95563
$L95568:

; 543  : 	PARAM_ENTRY( SQL_PARAM_INPUT, m_bOwnerType)

  00032	3b fb		 cmp	 edi, ebx
  00034	89 9e 14 08 00
	00		 mov	 DWORD PTR [esi+2068], ebx
  0003a	75 12		 jne	 SHORT $L95569
  0003c	8d 8e 34 0c 00
	00		 lea	 ecx, DWORD PTR [esi+3124]
  00042	51		 push	 ecx
  00043	6a 02		 push	 2
  00045	6a 01		 push	 1
  00047	8b ce		 mov	 ecx, esi
  00049	e8 00 00 00 00	 call	 ?BindParam@CSqlBase@@QAEFFFPAE@Z ; CSqlBase::BindParam
$L95569:
  0004e	66 3b c3	 cmp	 ax, bx
  00051	74 06		 je	 SHORT $L95570
  00053	66 3d 01 00	 cmp	 ax, 1
  00057	75 43		 jne	 SHORT $L95563
$L95570:

; 544  : 	PARAM_ENTRY( SQL_PARAM_INPUT, m_bStorageType)

  00059	3b fb		 cmp	 edi, ebx
  0005b	89 9e 18 08 00
	00		 mov	 DWORD PTR [esi+2072], ebx
  00061	75 12		 jne	 SHORT $L95571
  00063	8d 96 2c 0c 00
	00		 lea	 edx, DWORD PTR [esi+3116]
  00069	52		 push	 edx
  0006a	6a 03		 push	 3
  0006c	6a 01		 push	 1
  0006e	8b ce		 mov	 ecx, esi
  00070	e8 00 00 00 00	 call	 ?BindParam@CSqlBase@@QAEFFFPAE@Z ; CSqlBase::BindParam
$L95571:
  00075	66 3b c3	 cmp	 ax, bx
  00078	74 06		 je	 SHORT $L95572
  0007a	66 3d 01 00	 cmp	 ax, 1
  0007e	75 1c		 jne	 SHORT $L95563
$L95572:

; 545  : 	PARAM_ENTRY( SQL_PARAM_INPUT, m_dwStorageID)

  00080	3b fb		 cmp	 edi, ebx
  00082	89 9e 1c 08 00
	00		 mov	 DWORD PTR [esi+2076], ebx
  00088	75 12		 jne	 SHORT $L95563
  0008a	8d 86 30 0c 00
	00		 lea	 eax, DWORD PTR [esi+3120]
  00090	50		 push	 eax
  00091	6a 04		 push	 4
  00093	6a 01		 push	 1
  00095	8b ce		 mov	 ecx, esi
  00097	e8 00 00 00 00	 call	 ?BindParam@CSqlBase@@QAEFFFPAK@Z ; CSqlBase::BindParam
$L95563:
  0009c	5f		 pop	 edi
  0009d	5e		 pop	 esi
  0009e	5b		 pop	 ebx

; 546  : END_PARAM()

  0009f	c2 04 00	 ret	 4
?BindParameters@CTBLItem@@UAEFH@Z ENDP			; CTBLItem::BindParameters
_TEXT	ENDS
PUBLIC	??1CTBLItem@@UAE@XZ				; CTBLItem::~CTBLItem
; Function compile flags: /Ogty
;	COMDAT ??_GCTBLItem@@UAEPAXI@Z
_TEXT	SEGMENT
___flags$ = 8						; size = 4
??_GCTBLItem@@UAEPAXI@Z PROC NEAR			; CTBLItem::`scalar deleting destructor', COMDAT
; _this$ = ecx
  00000	56		 push	 esi
  00001	8b f1		 mov	 esi, ecx
  00003	e8 00 00 00 00	 call	 ??1CTBLItem@@UAE@XZ
  00008	f6 44 24 08 01	 test	 BYTE PTR ___flags$[esp], 1
  0000d	74 09		 je	 SHORT $L109965
  0000f	56		 push	 esi
  00010	e8 00 00 00 00	 call	 ??3@YAXPAX@Z		; operator delete
  00015	83 c4 04	 add	 esp, 4
$L109965:
  00018	8b c6		 mov	 eax, esi
  0001a	5e		 pop	 esi
  0001b	c2 04 00	 ret	 4
??_GCTBLItem@@UAEPAXI@Z ENDP				; CTBLItem::`scalar deleting destructor'
; Function compile flags: /Ogty
_TEXT	ENDS
;	COMDAT ??1CTBLItem@@UAE@XZ
_TEXT	SEGMENT
??1CTBLItem@@UAE@XZ PROC NEAR				; CTBLItem::~CTBLItem, COMDAT
; _this$ = ecx
  00000	e9 00 00 00 00	 jmp	 ??1CSqlQuery@@UAE@XZ	; CSqlQuery::~CSqlQuery
??1CTBLItem@@UAE@XZ ENDP				; CTBLItem::~CTBLItem
_TEXT	ENDS
PUBLIC	??0CSPLoadService@@QAE@PAVCSqlDatabase@@V?$basic_string@DU?$char_traits@D@std@@V?$allocator@D@2@@std@@@Z ; CSPLoadService::CSPLoadService
PUBLIC	?GetNumParam@CSPLoadService@@UAEHXZ		; CSPLoadService::GetNumParam
PUBLIC	?BindParameters@CSPLoadService@@UAEFH@Z		; CSPLoadService::BindParameters
PUBLIC	??_7CSPLoadService@@6B@				; CSPLoadService::`vftable'
PUBLIC	??_GCSPLoadService@@UAEPAXI@Z			; CSPLoadService::`scalar deleting destructor'
PUBLIC	??_C@_0BN@FKLLIGDD@?$HLCALL?5TLoadService?$CI?$DP?0?$DP?0?$DP?0?$DP?$CJ?$HN?$AA@ ; `string'
EXTRN	??_ECSPLoadService@@UAEPAXI@Z:NEAR		; CSPLoadService::`vector deleting destructor'
;	COMDAT xdata$x
; File c:\program files (x86)\microsoft visual studio .net 2003\vc7\include\iosfwd
xdata$x	SEGMENT
$T110148 DD	0ffffffffH
	DD	FLAT:$L109974
$T110145 DD	019930520H
	DD	01H
	DD	FLAT:$T110148
	DD	2 DUP(00H)
	DD	2 DUP(00H)
xdata$x	ENDS
;	COMDAT ??_C@_0BN@FKLLIGDD@?$HLCALL?5TLoadService?$CI?$DP?0?$DP?0?$DP?0?$DP?$CJ?$HN?$AA@
CONST	SEGMENT
??_C@_0BN@FKLLIGDD@?$HLCALL?5TLoadService?$CI?$DP?0?$DP?0?$DP?0?$DP?$CJ?$HN?$AA@ DB '{'
	DB	'CALL TLoadService(?,?,?,?)}', 00H		; `string'
CONST	ENDS
;	COMDAT ??_7CSPLoadService@@6B@
CONST	SEGMENT
??_7CSPLoadService@@6B@ DD FLAT:??_ECSPLoadService@@UAEPAXI@Z ; CSPLoadService::`vftable'
	DD	FLAT:?GetNumCol@CSqlBase@@UAEHXZ
	DD	FLAT:?GetNumParam@CSPLoadService@@UAEHXZ
	DD	FLAT:?AllocStatement@CSqlQuery@@UAEHXZ
	DD	FLAT:?BindColumns@CSqlQuery@@UAEFXZ
	DD	FLAT:?BindParameters@CSPLoadService@@UAEFH@Z
; Function compile flags: /Ogty
; File c:\users\pierr\desktop\4story - oldschool\sources\tserver\tloginsvr\dbaccess.h
CONST	ENDS
;	COMDAT ??0CSPLoadService@@QAE@PAVCSqlDatabase@@V?$basic_string@DU?$char_traits@D@std@@V?$allocator@D@2@@std@@@Z
_TEXT	SEGMENT
$T109973 = -16						; size = 4
__$EHRec$ = -12						; size = 12
_pdb$ = 8						; size = 4
_strKey$ = 12						; size = 28
??0CSPLoadService@@QAE@PAVCSqlDatabase@@V?$basic_string@DU?$char_traits@D@std@@V?$allocator@D@2@@std@@@Z PROC NEAR ; CSPLoadService::CSPLoadService, COMDAT
; _this$ = ecx

; 557  : DEF_QUERY(CSPLoadService, _T("{CALL TLoadService(?,?,?,?)}"))

  00000	6a ff		 push	 -1
  00002	68 00 00 00 00	 push	 __ehhandler$??0CSPLoadService@@QAE@PAVCSqlDatabase@@V?$basic_string@DU?$char_traits@D@std@@V?$allocator@D@2@@std@@@Z
  00007	64 a1 00 00 00
	00		 mov	 eax, DWORD PTR fs:__except_list
  0000d	50		 push	 eax
  0000e	64 89 25 00 00
	00 00		 mov	 DWORD PTR fs:__except_list, esp
  00015	51		 push	 ecx
  00016	56		 push	 esi
  00017	8b f1		 mov	 esi, ecx
  00019	68 00 00 00 00	 push	 OFFSET FLAT:??_C@_0BN@FKLLIGDD@?$HLCALL?5TLoadService?$CI?$DP?0?$DP?0?$DP?0?$DP?$CJ?$HN?$AA@
  0001e	83 ec 1c	 sub	 esp, 28			; 0000001cH
  00021	8b cc		 mov	 ecx, esp
  00023	33 c0		 xor	 eax, eax
  00025	89 64 24 24	 mov	 DWORD PTR $T109973[esp+52], esp
  00029	6a ff		 push	 -1
  0002b	89 41 14	 mov	 DWORD PTR [ecx+20], eax
  0002e	c7 41 18 0f 00
	00 00		 mov	 DWORD PTR [ecx+24], 15	; 0000000fH
  00035	50		 push	 eax
  00036	89 44 24 38	 mov	 DWORD PTR __$EHRec$[esp+68], eax
  0003a	88 41 04	 mov	 BYTE PTR [ecx+4], al
  0003d	8d 44 24 44	 lea	 eax, DWORD PTR _strKey$[esp+56]
  00041	50		 push	 eax
  00042	e8 00 00 00 00	 call	 ?assign@?$basic_string@DU?$char_traits@D@std@@V?$allocator@D@2@@std@@QAEAAV12@ABV12@II@Z ; std::basic_string<char,std::char_traits<char>,std::allocator<char> >::assign
  00047	8b 4c 24 38	 mov	 ecx, DWORD PTR _pdb$[esp+48]
  0004b	51		 push	 ecx
  0004c	8b ce		 mov	 ecx, esi
  0004e	e8 00 00 00 00	 call	 ??0CSqlQuery@@QAE@PAVCSqlDatabase@@V?$basic_string@DU?$char_traits@D@std@@V?$allocator@D@2@@std@@PBD@Z ; CSqlQuery::CSqlQuery
  00053	83 7c 24 34 10	 cmp	 DWORD PTR _strKey$[esp+40], 16 ; 00000010H
  00058	c7 06 00 00 00
	00		 mov	 DWORD PTR [esi], OFFSET FLAT:??_7CSPLoadService@@6B@
  0005e	72 0d		 jb	 SHORT $L110146
  00060	8b 54 24 20	 mov	 edx, DWORD PTR _strKey$[esp+20]
  00064	52		 push	 edx
  00065	e8 00 00 00 00	 call	 ??3@YAXPAX@Z		; operator delete
  0006a	83 c4 04	 add	 esp, 4
$L110146:
  0006d	8b 4c 24 08	 mov	 ecx, DWORD PTR __$EHRec$[esp+20]
  00071	8b c6		 mov	 eax, esi
  00073	64 89 0d 00 00
	00 00		 mov	 DWORD PTR fs:__except_list, ecx
  0007a	5e		 pop	 esi
  0007b	83 c4 10	 add	 esp, 16			; 00000010H
  0007e	c2 20 00	 ret	 32			; 00000020H
_TEXT	ENDS
;	COMDAT text$x
text$x	SEGMENT
$L109974:
  00000	8d 4d 08	 lea	 ecx, DWORD PTR _strKey$[ebp-4]
  00003	e9 00 00 00 00	 jmp	 ??1?$basic_string@DU?$char_traits@D@std@@V?$allocator@D@2@@std@@QAE@XZ ; std::basic_string<char,std::char_traits<char>,std::allocator<char> >::~basic_string<char,std::char_traits<char>,std::allocator<char> >
__ehhandler$??0CSPLoadService@@QAE@PAVCSqlDatabase@@V?$basic_string@DU?$char_traits@D@std@@V?$allocator@D@2@@std@@@Z:
  00008	b8 00 00 00 00	 mov	 eax, OFFSET FLAT:$T110145
  0000d	e9 00 00 00 00	 jmp	 ___CxxFrameHandler
text$x	ENDS
??0CSPLoadService@@QAE@PAVCSqlDatabase@@V?$basic_string@DU?$char_traits@D@std@@V?$allocator@D@2@@std@@@Z ENDP ; CSPLoadService::CSPLoadService
; Function compile flags: /Ogty
;	COMDAT ?GetNumParam@CSPLoadService@@UAEHXZ
_TEXT	SEGMENT
?GetNumParam@CSPLoadService@@UAEHXZ PROC NEAR		; CSPLoadService::GetNumParam, COMDAT
; _this$ = ecx

; 559  : BEGIN_PARAM(4)

  00000	b8 04 00 00 00	 mov	 eax, 4
  00005	c3		 ret	 0
?GetNumParam@CSPLoadService@@UAEHXZ ENDP		; CSPLoadService::GetNumParam
; Function compile flags: /Ogty
_TEXT	ENDS
;	COMDAT ?BindParameters@CSPLoadService@@UAEFH@Z
_TEXT	SEGMENT
_bRewind$ = 8						; size = 4
?BindParameters@CSPLoadService@@UAEFH@Z PROC NEAR	; CSPLoadService::BindParameters, COMDAT
; _this$ = ecx

; 559  : BEGIN_PARAM(4)

  00000	56		 push	 esi
  00001	57		 push	 edi

; 560  : 	PARAM_ENTRY(SQL_PARAM_INPUT, m_bWorld)

  00002	8b 7c 24 0c	 mov	 edi, DWORD PTR _bRewind$[esp+4]
  00006	33 c0		 xor	 eax, eax
  00008	85 ff		 test	 edi, edi
  0000a	8b f1		 mov	 esi, ecx
  0000c	89 86 10 08 00
	00		 mov	 DWORD PTR [esi+2064], eax
  00012	75 1b		 jne	 SHORT $L95620
  00014	8d 86 2c 0c 00
	00		 lea	 eax, DWORD PTR [esi+3116]
  0001a	50		 push	 eax
  0001b	6a 01		 push	 1
  0001d	6a 01		 push	 1
  0001f	e8 00 00 00 00	 call	 ?BindParam@CSqlBase@@QAEFFFPAE@Z ; CSqlBase::BindParam
  00024	66 85 c0	 test	 ax, ax
  00027	74 06		 je	 SHORT $L95620
  00029	66 3d 01 00	 cmp	 ax, 1
  0002d	75 78		 jne	 SHORT $L95615
$L95620:

; 561  : 	PARAM_ENTRY(SQL_PARAM_INPUT, m_bServiceGroup)

  0002f	85 ff		 test	 edi, edi
  00031	c7 86 14 08 00
	00 00 00 00 00	 mov	 DWORD PTR [esi+2068], 0
  0003b	75 12		 jne	 SHORT $L95621
  0003d	8d 8e 2d 0c 00
	00		 lea	 ecx, DWORD PTR [esi+3117]
  00043	51		 push	 ecx
  00044	6a 02		 push	 2
  00046	6a 01		 push	 1
  00048	8b ce		 mov	 ecx, esi
  0004a	e8 00 00 00 00	 call	 ?BindParam@CSqlBase@@QAEFFFPAE@Z ; CSqlBase::BindParam
$L95621:
  0004f	66 85 c0	 test	 ax, ax
  00052	74 06		 je	 SHORT $L95622
  00054	66 3d 01 00	 cmp	 ax, 1
  00058	75 4d		 jne	 SHORT $L95615
$L95622:

; 562  : 	PARAM_ENTRY_STR(SQL_PARAM_OUTPUT, m_szIP)

  0005a	85 ff		 test	 edi, edi
  0005c	c7 86 18 08 00
	00 fd ff ff ff	 mov	 DWORD PTR [esi+2072], -3 ; fffffffdH
  00066	75 14		 jne	 SHORT $L95623
  00068	6a 33		 push	 51			; 00000033H
  0006a	8d 96 2e 0c 00
	00		 lea	 edx, DWORD PTR [esi+3118]
  00070	52		 push	 edx
  00071	6a 03		 push	 3
  00073	6a 04		 push	 4
  00075	8b ce		 mov	 ecx, esi
  00077	e8 00 00 00 00	 call	 ?BindParamStr@CSqlBase@@QAEFFFPADJ@Z ; CSqlBase::BindParamStr
$L95623:
  0007c	66 85 c0	 test	 ax, ax
  0007f	74 06		 je	 SHORT $L95624
  00081	66 3d 01 00	 cmp	 ax, 1
  00085	75 20		 jne	 SHORT $L95615
$L95624:

; 563  : 	PARAM_ENTRY(SQL_PARAM_OUTPUT, m_wPort)

  00087	85 ff		 test	 edi, edi
  00089	c7 86 1c 08 00
	00 00 00 00 00	 mov	 DWORD PTR [esi+2076], 0
  00093	75 12		 jne	 SHORT $L95615
  00095	8d 86 62 0c 00
	00		 lea	 eax, DWORD PTR [esi+3170]
  0009b	50		 push	 eax
  0009c	6a 04		 push	 4
  0009e	6a 04		 push	 4
  000a0	8b ce		 mov	 ecx, esi
  000a2	e8 00 00 00 00	 call	 ?BindParam@CSqlBase@@QAEFFFPAG@Z ; CSqlBase::BindParam
$L95615:
  000a7	5f		 pop	 edi
  000a8	5e		 pop	 esi

; 564  : END_PARAM()

  000a9	c2 04 00	 ret	 4
?BindParameters@CSPLoadService@@UAEFH@Z ENDP		; CSPLoadService::BindParameters
_TEXT	ENDS
PUBLIC	??1CSPLoadService@@UAE@XZ			; CSPLoadService::~CSPLoadService
; Function compile flags: /Ogty
;	COMDAT ??_GCSPLoadService@@UAEPAXI@Z
_TEXT	SEGMENT
___flags$ = 8						; size = 4
??_GCSPLoadService@@UAEPAXI@Z PROC NEAR			; CSPLoadService::`scalar deleting destructor', COMDAT
; _this$ = ecx
  00000	56		 push	 esi
  00001	8b f1		 mov	 esi, ecx
  00003	e8 00 00 00 00	 call	 ??1CSPLoadService@@UAE@XZ
  00008	f6 44 24 08 01	 test	 BYTE PTR ___flags$[esp], 1
  0000d	74 09		 je	 SHORT $L110160
  0000f	56		 push	 esi
  00010	e8 00 00 00 00	 call	 ??3@YAXPAX@Z		; operator delete
  00015	83 c4 04	 add	 esp, 4
$L110160:
  00018	8b c6		 mov	 eax, esi
  0001a	5e		 pop	 esi
  0001b	c2 04 00	 ret	 4
??_GCSPLoadService@@UAEPAXI@Z ENDP			; CSPLoadService::`scalar deleting destructor'
; Function compile flags: /Ogty
_TEXT	ENDS
;	COMDAT ??1CSPLoadService@@UAE@XZ
_TEXT	SEGMENT
??1CSPLoadService@@UAE@XZ PROC NEAR			; CSPLoadService::~CSPLoadService, COMDAT
; _this$ = ecx
  00000	e9 00 00 00 00	 jmp	 ??1CSqlQuery@@UAE@XZ	; CSqlQuery::~CSqlQuery
??1CSPLoadService@@UAE@XZ ENDP				; CSPLoadService::~CSPLoadService
_TEXT	ENDS
PUBLIC	??0CSPAgreement@@QAE@PAVCSqlDatabase@@V?$basic_string@DU?$char_traits@D@std@@V?$allocator@D@2@@std@@@Z ; CSPAgreement::CSPAgreement
PUBLIC	?GetNumParam@CSPAgreement@@UAEHXZ		; CSPAgreement::GetNumParam
PUBLIC	?BindParameters@CSPAgreement@@UAEFH@Z		; CSPAgreement::BindParameters
PUBLIC	??_7CSPAgreement@@6B@				; CSPAgreement::`vftable'
PUBLIC	??_GCSPAgreement@@UAEPAXI@Z			; CSPAgreement::`scalar deleting destructor'
PUBLIC	??_C@_0BF@EOHCNCGK@?$HLCALL?5TAgreement?$CI?$DP?$CJ?$HN?$AA@ ; `string'
EXTRN	??_ECSPAgreement@@UAEPAXI@Z:NEAR		; CSPAgreement::`vector deleting destructor'
;	COMDAT xdata$x
; File c:\program files (x86)\microsoft visual studio .net 2003\vc7\include\iosfwd
xdata$x	SEGMENT
$T110343 DD	0ffffffffH
	DD	FLAT:$L110169
$T110340 DD	019930520H
	DD	01H
	DD	FLAT:$T110343
	DD	2 DUP(00H)
	DD	2 DUP(00H)
xdata$x	ENDS
;	COMDAT ??_C@_0BF@EOHCNCGK@?$HLCALL?5TAgreement?$CI?$DP?$CJ?$HN?$AA@
CONST	SEGMENT
??_C@_0BF@EOHCNCGK@?$HLCALL?5TAgreement?$CI?$DP?$CJ?$HN?$AA@ DB '{CALL TA'
	DB	'greement(?)}', 00H				; `string'
CONST	ENDS
;	COMDAT ??_7CSPAgreement@@6B@
CONST	SEGMENT
??_7CSPAgreement@@6B@ DD FLAT:??_ECSPAgreement@@UAEPAXI@Z ; CSPAgreement::`vftable'
	DD	FLAT:?GetNumCol@CSqlBase@@UAEHXZ
	DD	FLAT:?GetNumParam@CSPAgreement@@UAEHXZ
	DD	FLAT:?AllocStatement@CSqlQuery@@UAEHXZ
	DD	FLAT:?BindColumns@CSqlQuery@@UAEFXZ
	DD	FLAT:?BindParameters@CSPAgreement@@UAEFH@Z
; Function compile flags: /Ogty
; File c:\users\pierr\desktop\4story - oldschool\sources\tserver\tloginsvr\dbaccess.h
CONST	ENDS
;	COMDAT ??0CSPAgreement@@QAE@PAVCSqlDatabase@@V?$basic_string@DU?$char_traits@D@std@@V?$allocator@D@2@@std@@@Z
_TEXT	SEGMENT
$T110168 = -16						; size = 4
__$EHRec$ = -12						; size = 12
_pdb$ = 8						; size = 4
_strKey$ = 12						; size = 28
??0CSPAgreement@@QAE@PAVCSqlDatabase@@V?$basic_string@DU?$char_traits@D@std@@V?$allocator@D@2@@std@@@Z PROC NEAR ; CSPAgreement::CSPAgreement, COMDAT
; _this$ = ecx

; 572  : 	DEF_QUERY(CSPAgreement, _T("{CALL TAgreement(?)}"))

  00000	6a ff		 push	 -1
  00002	68 00 00 00 00	 push	 __ehhandler$??0CSPAgreement@@QAE@PAVCSqlDatabase@@V?$basic_string@DU?$char_traits@D@std@@V?$allocator@D@2@@std@@@Z
  00007	64 a1 00 00 00
	00		 mov	 eax, DWORD PTR fs:__except_list
  0000d	50		 push	 eax
  0000e	64 89 25 00 00
	00 00		 mov	 DWORD PTR fs:__except_list, esp
  00015	51		 push	 ecx
  00016	56		 push	 esi
  00017	8b f1		 mov	 esi, ecx
  00019	68 00 00 00 00	 push	 OFFSET FLAT:??_C@_0BF@EOHCNCGK@?$HLCALL?5TAgreement?$CI?$DP?$CJ?$HN?$AA@
  0001e	83 ec 1c	 sub	 esp, 28			; 0000001cH
  00021	8b cc		 mov	 ecx, esp
  00023	33 c0		 xor	 eax, eax
  00025	89 64 24 24	 mov	 DWORD PTR $T110168[esp+52], esp
  00029	6a ff		 push	 -1
  0002b	89 41 14	 mov	 DWORD PTR [ecx+20], eax
  0002e	c7 41 18 0f 00
	00 00		 mov	 DWORD PTR [ecx+24], 15	; 0000000fH
  00035	50		 push	 eax
  00036	89 44 24 38	 mov	 DWORD PTR __$EHRec$[esp+68], eax
  0003a	88 41 04	 mov	 BYTE PTR [ecx+4], al
  0003d	8d 44 24 44	 lea	 eax, DWORD PTR _strKey$[esp+56]
  00041	50		 push	 eax
  00042	e8 00 00 00 00	 call	 ?assign@?$basic_string@DU?$char_traits@D@std@@V?$allocator@D@2@@std@@QAEAAV12@ABV12@II@Z ; std::basic_string<char,std::char_traits<char>,std::allocator<char> >::assign
  00047	8b 4c 24 38	 mov	 ecx, DWORD PTR _pdb$[esp+48]
  0004b	51		 push	 ecx
  0004c	8b ce		 mov	 ecx, esi
  0004e	e8 00 00 00 00	 call	 ??0CSqlQuery@@QAE@PAVCSqlDatabase@@V?$basic_string@DU?$char_traits@D@std@@V?$allocator@D@2@@std@@PBD@Z ; CSqlQuery::CSqlQuery
  00053	83 7c 24 34 10	 cmp	 DWORD PTR _strKey$[esp+40], 16 ; 00000010H
  00058	c7 06 00 00 00
	00		 mov	 DWORD PTR [esi], OFFSET FLAT:??_7CSPAgreement@@6B@
  0005e	72 0d		 jb	 SHORT $L110341
  00060	8b 54 24 20	 mov	 edx, DWORD PTR _strKey$[esp+20]
  00064	52		 push	 edx
  00065	e8 00 00 00 00	 call	 ??3@YAXPAX@Z		; operator delete
  0006a	83 c4 04	 add	 esp, 4
$L110341:
  0006d	8b 4c 24 08	 mov	 ecx, DWORD PTR __$EHRec$[esp+20]
  00071	8b c6		 mov	 eax, esi
  00073	64 89 0d 00 00
	00 00		 mov	 DWORD PTR fs:__except_list, ecx
  0007a	5e		 pop	 esi
  0007b	83 c4 10	 add	 esp, 16			; 00000010H
  0007e	c2 20 00	 ret	 32			; 00000020H
_TEXT	ENDS
;	COMDAT text$x
text$x	SEGMENT
$L110169:
  00000	8d 4d 08	 lea	 ecx, DWORD PTR _strKey$[ebp-4]
  00003	e9 00 00 00 00	 jmp	 ??1?$basic_string@DU?$char_traits@D@std@@V?$allocator@D@2@@std@@QAE@XZ ; std::basic_string<char,std::char_traits<char>,std::allocator<char> >::~basic_string<char,std::char_traits<char>,std::allocator<char> >
__ehhandler$??0CSPAgreement@@QAE@PAVCSqlDatabase@@V?$basic_string@DU?$char_traits@D@std@@V?$allocator@D@2@@std@@@Z:
  00008	b8 00 00 00 00	 mov	 eax, OFFSET FLAT:$T110340
  0000d	e9 00 00 00 00	 jmp	 ___CxxFrameHandler
text$x	ENDS
??0CSPAgreement@@QAE@PAVCSqlDatabase@@V?$basic_string@DU?$char_traits@D@std@@V?$allocator@D@2@@std@@@Z ENDP ; CSPAgreement::CSPAgreement
; Function compile flags: /Ogty
;	COMDAT ?GetNumParam@CSPAgreement@@UAEHXZ
_TEXT	SEGMENT
?GetNumParam@CSPAgreement@@UAEHXZ PROC NEAR		; CSPAgreement::GetNumParam, COMDAT
; _this$ = ecx

; 574  : BEGIN_PARAM(1)

  00000	b8 01 00 00 00	 mov	 eax, 1
  00005	c3		 ret	 0
?GetNumParam@CSPAgreement@@UAEHXZ ENDP			; CSPAgreement::GetNumParam
; Function compile flags: /Ogty
_TEXT	ENDS
;	COMDAT ?BindParameters@CSPAgreement@@UAEFH@Z
_TEXT	SEGMENT
_bRewind$ = 8						; size = 4
?BindParameters@CSPAgreement@@UAEFH@Z PROC NEAR		; CSPAgreement::BindParameters, COMDAT
; _this$ = ecx

; 575  : 	PARAM_ENTRY(SQL_PARAM_INPUT, m_dwUserID)

  00000	8b 54 24 04	 mov	 edx, DWORD PTR _bRewind$[esp-4]
  00004	33 c0		 xor	 eax, eax
  00006	85 d2		 test	 edx, edx
  00008	89 81 10 08 00
	00		 mov	 DWORD PTR [ecx+2064], eax
  0000e	75 10		 jne	 SHORT $L95664
  00010	8d 81 2c 0c 00
	00		 lea	 eax, DWORD PTR [ecx+3116]
  00016	50		 push	 eax
  00017	6a 01		 push	 1
  00019	6a 01		 push	 1
  0001b	e8 00 00 00 00	 call	 ?BindParam@CSqlBase@@QAEFFFPAK@Z ; CSqlBase::BindParam
$L95664:

; 576  : END_PARAM()

  00020	c2 04 00	 ret	 4
?BindParameters@CSPAgreement@@UAEFH@Z ENDP		; CSPAgreement::BindParameters
_TEXT	ENDS
PUBLIC	??1CSPAgreement@@UAE@XZ				; CSPAgreement::~CSPAgreement
; Function compile flags: /Ogty
;	COMDAT ??_GCSPAgreement@@UAEPAXI@Z
_TEXT	SEGMENT
___flags$ = 8						; size = 4
??_GCSPAgreement@@UAEPAXI@Z PROC NEAR			; CSPAgreement::`scalar deleting destructor', COMDAT
; _this$ = ecx
  00000	56		 push	 esi
  00001	8b f1		 mov	 esi, ecx
  00003	e8 00 00 00 00	 call	 ??1CSPAgreement@@UAE@XZ
  00008	f6 44 24 08 01	 test	 BYTE PTR ___flags$[esp], 1
  0000d	74 09		 je	 SHORT $L110355
  0000f	56		 push	 esi
  00010	e8 00 00 00 00	 call	 ??3@YAXPAX@Z		; operator delete
  00015	83 c4 04	 add	 esp, 4
$L110355:
  00018	8b c6		 mov	 eax, esi
  0001a	5e		 pop	 esi
  0001b	c2 04 00	 ret	 4
??_GCSPAgreement@@UAEPAXI@Z ENDP			; CSPAgreement::`scalar deleting destructor'
; Function compile flags: /Ogty
_TEXT	ENDS
;	COMDAT ??1CSPAgreement@@UAE@XZ
_TEXT	SEGMENT
??1CSPAgreement@@UAE@XZ PROC NEAR			; CSPAgreement::~CSPAgreement, COMDAT
; _this$ = ecx
  00000	e9 00 00 00 00	 jmp	 ??1CSqlQuery@@UAE@XZ	; CSqlQuery::~CSqlQuery
??1CSPAgreement@@UAE@XZ ENDP				; CSPAgreement::~CSPAgreement
_TEXT	ENDS
PUBLIC	??0CSPClearLoginUser@@QAE@PAVCSqlDatabase@@V?$basic_string@DU?$char_traits@D@std@@V?$allocator@D@2@@std@@@Z ; CSPClearLoginUser::CSPClearLoginUser
PUBLIC	??_7CSPClearLoginUser@@6B@			; CSPClearLoginUser::`vftable'
PUBLIC	??_GCSPClearLoginUser@@UAEPAXI@Z		; CSPClearLoginUser::`scalar deleting destructor'
PUBLIC	??_C@_0BO@FHFPIHDG@?$HLCALL?5TClearLoginCurrentUser?$HN?$AA@ ; `string'
EXTRN	??_ECSPClearLoginUser@@UAEPAXI@Z:NEAR		; CSPClearLoginUser::`vector deleting destructor'
;	COMDAT xdata$x
; File c:\program files (x86)\microsoft visual studio .net 2003\vc7\include\iosfwd
xdata$x	SEGMENT
$T110538 DD	0ffffffffH
	DD	FLAT:$L110364
$T110535 DD	019930520H
	DD	01H
	DD	FLAT:$T110538
	DD	2 DUP(00H)
	DD	2 DUP(00H)
xdata$x	ENDS
;	COMDAT ??_C@_0BO@FHFPIHDG@?$HLCALL?5TClearLoginCurrentUser?$HN?$AA@
CONST	SEGMENT
??_C@_0BO@FHFPIHDG@?$HLCALL?5TClearLoginCurrentUser?$HN?$AA@ DB '{CALL TC'
	DB	'learLoginCurrentUser}', 00H			; `string'
CONST	ENDS
;	COMDAT ??_7CSPClearLoginUser@@6B@
CONST	SEGMENT
??_7CSPClearLoginUser@@6B@ DD FLAT:??_ECSPClearLoginUser@@UAEPAXI@Z ; CSPClearLoginUser::`vftable'
	DD	FLAT:?GetNumCol@CSqlBase@@UAEHXZ
	DD	FLAT:?GetNumParam@CSqlBase@@UAEHXZ
	DD	FLAT:?AllocStatement@CSqlQuery@@UAEHXZ
	DD	FLAT:?BindColumns@CSqlQuery@@UAEFXZ
	DD	FLAT:?BindParameters@CSqlQuery@@UAEFH@Z
; Function compile flags: /Ogty
; File c:\users\pierr\desktop\4story - oldschool\sources\tserver\tloginsvr\dbaccess.h
CONST	ENDS
;	COMDAT ??0CSPClearLoginUser@@QAE@PAVCSqlDatabase@@V?$basic_string@DU?$char_traits@D@std@@V?$allocator@D@2@@std@@@Z
_TEXT	SEGMENT
$T110363 = -16						; size = 4
__$EHRec$ = -12						; size = 12
_pdb$ = 8						; size = 4
_strKey$ = 12						; size = 28
??0CSPClearLoginUser@@QAE@PAVCSqlDatabase@@V?$basic_string@DU?$char_traits@D@std@@V?$allocator@D@2@@std@@@Z PROC NEAR ; CSPClearLoginUser::CSPClearLoginUser, COMDAT
; _this$ = ecx

; 582  : 	DEF_QUERY(CSPClearLoginUser, _T("{CALL TClearLoginCurrentUser}"))

  00000	6a ff		 push	 -1
  00002	68 00 00 00 00	 push	 __ehhandler$??0CSPClearLoginUser@@QAE@PAVCSqlDatabase@@V?$basic_string@DU?$char_traits@D@std@@V?$allocator@D@2@@std@@@Z
  00007	64 a1 00 00 00
	00		 mov	 eax, DWORD PTR fs:__except_list
  0000d	50		 push	 eax
  0000e	64 89 25 00 00
	00 00		 mov	 DWORD PTR fs:__except_list, esp
  00015	51		 push	 ecx
  00016	56		 push	 esi
  00017	8b f1		 mov	 esi, ecx
  00019	68 00 00 00 00	 push	 OFFSET FLAT:??_C@_0BO@FHFPIHDG@?$HLCALL?5TClearLoginCurrentUser?$HN?$AA@
  0001e	83 ec 1c	 sub	 esp, 28			; 0000001cH
  00021	8b cc		 mov	 ecx, esp
  00023	33 c0		 xor	 eax, eax
  00025	89 64 24 24	 mov	 DWORD PTR $T110363[esp+52], esp
  00029	6a ff		 push	 -1
  0002b	89 41 14	 mov	 DWORD PTR [ecx+20], eax
  0002e	c7 41 18 0f 00
	00 00		 mov	 DWORD PTR [ecx+24], 15	; 0000000fH
  00035	50		 push	 eax
  00036	89 44 24 38	 mov	 DWORD PTR __$EHRec$[esp+68], eax
  0003a	88 41 04	 mov	 BYTE PTR [ecx+4], al
  0003d	8d 44 24 44	 lea	 eax, DWORD PTR _strKey$[esp+56]
  00041	50		 push	 eax
  00042	e8 00 00 00 00	 call	 ?assign@?$basic_string@DU?$char_traits@D@std@@V?$allocator@D@2@@std@@QAEAAV12@ABV12@II@Z ; std::basic_string<char,std::char_traits<char>,std::allocator<char> >::assign
  00047	8b 4c 24 38	 mov	 ecx, DWORD PTR _pdb$[esp+48]
  0004b	51		 push	 ecx
  0004c	8b ce		 mov	 ecx, esi
  0004e	e8 00 00 00 00	 call	 ??0CSqlQuery@@QAE@PAVCSqlDatabase@@V?$basic_string@DU?$char_traits@D@std@@V?$allocator@D@2@@std@@PBD@Z ; CSqlQuery::CSqlQuery
  00053	83 7c 24 34 10	 cmp	 DWORD PTR _strKey$[esp+40], 16 ; 00000010H
  00058	c7 06 00 00 00
	00		 mov	 DWORD PTR [esi], OFFSET FLAT:??_7CSPClearLoginUser@@6B@
  0005e	72 0d		 jb	 SHORT $L110536
  00060	8b 54 24 20	 mov	 edx, DWORD PTR _strKey$[esp+20]
  00064	52		 push	 edx
  00065	e8 00 00 00 00	 call	 ??3@YAXPAX@Z		; operator delete
  0006a	83 c4 04	 add	 esp, 4
$L110536:
  0006d	8b 4c 24 08	 mov	 ecx, DWORD PTR __$EHRec$[esp+20]
  00071	8b c6		 mov	 eax, esi
  00073	64 89 0d 00 00
	00 00		 mov	 DWORD PTR fs:__except_list, ecx
  0007a	5e		 pop	 esi
  0007b	83 c4 10	 add	 esp, 16			; 00000010H
  0007e	c2 20 00	 ret	 32			; 00000020H
_TEXT	ENDS
;	COMDAT text$x
text$x	SEGMENT
$L110364:
  00000	8d 4d 08	 lea	 ecx, DWORD PTR _strKey$[ebp-4]
  00003	e9 00 00 00 00	 jmp	 ??1?$basic_string@DU?$char_traits@D@std@@V?$allocator@D@2@@std@@QAE@XZ ; std::basic_string<char,std::char_traits<char>,std::allocator<char> >::~basic_string<char,std::char_traits<char>,std::allocator<char> >
__ehhandler$??0CSPClearLoginUser@@QAE@PAVCSqlDatabase@@V?$basic_string@DU?$char_traits@D@std@@V?$allocator@D@2@@std@@@Z:
  00008	b8 00 00 00 00	 mov	 eax, OFFSET FLAT:$T110535
  0000d	e9 00 00 00 00	 jmp	 ___CxxFrameHandler
text$x	ENDS
??0CSPClearLoginUser@@QAE@PAVCSqlDatabase@@V?$basic_string@DU?$char_traits@D@std@@V?$allocator@D@2@@std@@@Z ENDP ; CSPClearLoginUser::CSPClearLoginUser
PUBLIC	??1CSPClearLoginUser@@UAE@XZ			; CSPClearLoginUser::~CSPClearLoginUser
; Function compile flags: /Ogty
;	COMDAT ??_GCSPClearLoginUser@@UAEPAXI@Z
_TEXT	SEGMENT
___flags$ = 8						; size = 4
??_GCSPClearLoginUser@@UAEPAXI@Z PROC NEAR		; CSPClearLoginUser::`scalar deleting destructor', COMDAT
; _this$ = ecx
  00000	56		 push	 esi
  00001	8b f1		 mov	 esi, ecx
  00003	e8 00 00 00 00	 call	 ??1CSPClearLoginUser@@UAE@XZ
  00008	f6 44 24 08 01	 test	 BYTE PTR ___flags$[esp], 1
  0000d	74 09		 je	 SHORT $L110544
  0000f	56		 push	 esi
  00010	e8 00 00 00 00	 call	 ??3@YAXPAX@Z		; operator delete
  00015	83 c4 04	 add	 esp, 4
$L110544:
  00018	8b c6		 mov	 eax, esi
  0001a	5e		 pop	 esi
  0001b	c2 04 00	 ret	 4
??_GCSPClearLoginUser@@UAEPAXI@Z ENDP			; CSPClearLoginUser::`scalar deleting destructor'
; Function compile flags: /Ogty
_TEXT	ENDS
;	COMDAT ??1CSPClearLoginUser@@UAE@XZ
_TEXT	SEGMENT
??1CSPClearLoginUser@@UAE@XZ PROC NEAR			; CSPClearLoginUser::~CSPClearLoginUser, COMDAT
; _this$ = ecx
  00000	e9 00 00 00 00	 jmp	 ??1CSqlQuery@@UAE@XZ	; CSqlQuery::~CSqlQuery
??1CSPClearLoginUser@@UAE@XZ ENDP			; CSPClearLoginUser::~CSPClearLoginUser
_TEXT	ENDS
PUBLIC	??0CSPGetNation@@QAE@PAVCSqlDatabase@@V?$basic_string@DU?$char_traits@D@std@@V?$allocator@D@2@@std@@@Z ; CSPGetNation::CSPGetNation
PUBLIC	?GetNumParam@CSPGetNation@@UAEHXZ		; CSPGetNation::GetNumParam
PUBLIC	?BindParameters@CSPGetNation@@UAEFH@Z		; CSPGetNation::BindParameters
PUBLIC	??_7CSPGetNation@@6B@				; CSPGetNation::`vftable'
PUBLIC	??_GCSPGetNation@@UAEPAXI@Z			; CSPGetNation::`scalar deleting destructor'
PUBLIC	??_C@_0BF@MGHBOKLC@?$HLCALL?5TGetNation?$CI?$DP?$CJ?$HN?$AA@ ; `string'
EXTRN	??_ECSPGetNation@@UAEPAXI@Z:NEAR		; CSPGetNation::`vector deleting destructor'
;	COMDAT xdata$x
; File c:\program files (x86)\microsoft visual studio .net 2003\vc7\include\iosfwd
xdata$x	SEGMENT
$T110727 DD	0ffffffffH
	DD	FLAT:$L110553
$T110724 DD	019930520H
	DD	01H
	DD	FLAT:$T110727
	DD	2 DUP(00H)
	DD	2 DUP(00H)
xdata$x	ENDS
;	COMDAT ??_C@_0BF@MGHBOKLC@?$HLCALL?5TGetNation?$CI?$DP?$CJ?$HN?$AA@
CONST	SEGMENT
??_C@_0BF@MGHBOKLC@?$HLCALL?5TGetNation?$CI?$DP?$CJ?$HN?$AA@ DB '{CALL TG'
	DB	'etNation(?)}', 00H				; `string'
CONST	ENDS
;	COMDAT ??_7CSPGetNation@@6B@
CONST	SEGMENT
??_7CSPGetNation@@6B@ DD FLAT:??_ECSPGetNation@@UAEPAXI@Z ; CSPGetNation::`vftable'
	DD	FLAT:?GetNumCol@CSqlBase@@UAEHXZ
	DD	FLAT:?GetNumParam@CSPGetNation@@UAEHXZ
	DD	FLAT:?AllocStatement@CSqlQuery@@UAEHXZ
	DD	FLAT:?BindColumns@CSqlQuery@@UAEFXZ
	DD	FLAT:?BindParameters@CSPGetNation@@UAEFH@Z
; Function compile flags: /Ogty
; File c:\users\pierr\desktop\4story - oldschool\sources\tserver\tloginsvr\dbaccess.h
CONST	ENDS
;	COMDAT ??0CSPGetNation@@QAE@PAVCSqlDatabase@@V?$basic_string@DU?$char_traits@D@std@@V?$allocator@D@2@@std@@@Z
_TEXT	SEGMENT
$T110552 = -16						; size = 4
__$EHRec$ = -12						; size = 12
_pdb$ = 8						; size = 4
_strKey$ = 12						; size = 28
??0CSPGetNation@@QAE@PAVCSqlDatabase@@V?$basic_string@DU?$char_traits@D@std@@V?$allocator@D@2@@std@@@Z PROC NEAR ; CSPGetNation::CSPGetNation, COMDAT
; _this$ = ecx

; 590  : DEF_QUERY(CSPGetNation, _T("{CALL TGetNation(?)}"))

  00000	6a ff		 push	 -1
  00002	68 00 00 00 00	 push	 __ehhandler$??0CSPGetNation@@QAE@PAVCSqlDatabase@@V?$basic_string@DU?$char_traits@D@std@@V?$allocator@D@2@@std@@@Z
  00007	64 a1 00 00 00
	00		 mov	 eax, DWORD PTR fs:__except_list
  0000d	50		 push	 eax
  0000e	64 89 25 00 00
	00 00		 mov	 DWORD PTR fs:__except_list, esp
  00015	51		 push	 ecx
  00016	56		 push	 esi
  00017	8b f1		 mov	 esi, ecx
  00019	68 00 00 00 00	 push	 OFFSET FLAT:??_C@_0BF@MGHBOKLC@?$HLCALL?5TGetNation?$CI?$DP?$CJ?$HN?$AA@
  0001e	83 ec 1c	 sub	 esp, 28			; 0000001cH
  00021	8b cc		 mov	 ecx, esp
  00023	33 c0		 xor	 eax, eax
  00025	89 64 24 24	 mov	 DWORD PTR $T110552[esp+52], esp
  00029	6a ff		 push	 -1
  0002b	89 41 14	 mov	 DWORD PTR [ecx+20], eax
  0002e	c7 41 18 0f 00
	00 00		 mov	 DWORD PTR [ecx+24], 15	; 0000000fH
  00035	50		 push	 eax
  00036	89 44 24 38	 mov	 DWORD PTR __$EHRec$[esp+68], eax
  0003a	88 41 04	 mov	 BYTE PTR [ecx+4], al
  0003d	8d 44 24 44	 lea	 eax, DWORD PTR _strKey$[esp+56]
  00041	50		 push	 eax
  00042	e8 00 00 00 00	 call	 ?assign@?$basic_string@DU?$char_traits@D@std@@V?$allocator@D@2@@std@@QAEAAV12@ABV12@II@Z ; std::basic_string<char,std::char_traits<char>,std::allocator<char> >::assign
  00047	8b 4c 24 38	 mov	 ecx, DWORD PTR _pdb$[esp+48]
  0004b	51		 push	 ecx
  0004c	8b ce		 mov	 ecx, esi
  0004e	e8 00 00 00 00	 call	 ??0CSqlQuery@@QAE@PAVCSqlDatabase@@V?$basic_string@DU?$char_traits@D@std@@V?$allocator@D@2@@std@@PBD@Z ; CSqlQuery::CSqlQuery
  00053	83 7c 24 34 10	 cmp	 DWORD PTR _strKey$[esp+40], 16 ; 00000010H
  00058	c7 06 00 00 00
	00		 mov	 DWORD PTR [esi], OFFSET FLAT:??_7CSPGetNation@@6B@
  0005e	72 0d		 jb	 SHORT $L110725
  00060	8b 54 24 20	 mov	 edx, DWORD PTR _strKey$[esp+20]
  00064	52		 push	 edx
  00065	e8 00 00 00 00	 call	 ??3@YAXPAX@Z		; operator delete
  0006a	83 c4 04	 add	 esp, 4
$L110725:
  0006d	8b 4c 24 08	 mov	 ecx, DWORD PTR __$EHRec$[esp+20]
  00071	8b c6		 mov	 eax, esi
  00073	64 89 0d 00 00
	00 00		 mov	 DWORD PTR fs:__except_list, ecx
  0007a	5e		 pop	 esi
  0007b	83 c4 10	 add	 esp, 16			; 00000010H
  0007e	c2 20 00	 ret	 32			; 00000020H
_TEXT	ENDS
;	COMDAT text$x
text$x	SEGMENT
$L110553:
  00000	8d 4d 08	 lea	 ecx, DWORD PTR _strKey$[ebp-4]
  00003	e9 00 00 00 00	 jmp	 ??1?$basic_string@DU?$char_traits@D@std@@V?$allocator@D@2@@std@@QAE@XZ ; std::basic_string<char,std::char_traits<char>,std::allocator<char> >::~basic_string<char,std::char_traits<char>,std::allocator<char> >
__ehhandler$??0CSPGetNation@@QAE@PAVCSqlDatabase@@V?$basic_string@DU?$char_traits@D@std@@V?$allocator@D@2@@std@@@Z:
  00008	b8 00 00 00 00	 mov	 eax, OFFSET FLAT:$T110724
  0000d	e9 00 00 00 00	 jmp	 ___CxxFrameHandler
text$x	ENDS
??0CSPGetNation@@QAE@PAVCSqlDatabase@@V?$basic_string@DU?$char_traits@D@std@@V?$allocator@D@2@@std@@@Z ENDP ; CSPGetNation::CSPGetNation
; Function compile flags: /Ogty
;	COMDAT ?GetNumParam@CSPGetNation@@UAEHXZ
_TEXT	SEGMENT
?GetNumParam@CSPGetNation@@UAEHXZ PROC NEAR		; CSPGetNation::GetNumParam, COMDAT
; _this$ = ecx

; 592  : BEGIN_PARAM(1)

  00000	b8 01 00 00 00	 mov	 eax, 1
  00005	c3		 ret	 0
?GetNumParam@CSPGetNation@@UAEHXZ ENDP			; CSPGetNation::GetNumParam
; Function compile flags: /Ogty
_TEXT	ENDS
;	COMDAT ?BindParameters@CSPGetNation@@UAEFH@Z
_TEXT	SEGMENT
_bRewind$ = 8						; size = 4
?BindParameters@CSPGetNation@@UAEFH@Z PROC NEAR		; CSPGetNation::BindParameters, COMDAT
; _this$ = ecx

; 593  : 	PARAM_ENTRY(SQL_PARAM_OUTPUT, m_bNation)

  00000	8b 54 24 04	 mov	 edx, DWORD PTR _bRewind$[esp-4]
  00004	33 c0		 xor	 eax, eax
  00006	85 d2		 test	 edx, edx
  00008	89 81 10 08 00
	00		 mov	 DWORD PTR [ecx+2064], eax
  0000e	75 10		 jne	 SHORT $L95736
  00010	8d 81 2c 0c 00
	00		 lea	 eax, DWORD PTR [ecx+3116]
  00016	50		 push	 eax
  00017	6a 01		 push	 1
  00019	6a 04		 push	 4
  0001b	e8 00 00 00 00	 call	 ?BindParam@CSqlBase@@QAEFFFPAE@Z ; CSqlBase::BindParam
$L95736:

; 594  : END_PARAM()

  00020	c2 04 00	 ret	 4
?BindParameters@CSPGetNation@@UAEFH@Z ENDP		; CSPGetNation::BindParameters
_TEXT	ENDS
PUBLIC	??1CSPGetNation@@UAE@XZ				; CSPGetNation::~CSPGetNation
; Function compile flags: /Ogty
;	COMDAT ??_GCSPGetNation@@UAEPAXI@Z
_TEXT	SEGMENT
___flags$ = 8						; size = 4
??_GCSPGetNation@@UAEPAXI@Z PROC NEAR			; CSPGetNation::`scalar deleting destructor', COMDAT
; _this$ = ecx
  00000	56		 push	 esi
  00001	8b f1		 mov	 esi, ecx
  00003	e8 00 00 00 00	 call	 ??1CSPGetNation@@UAE@XZ
  00008	f6 44 24 08 01	 test	 BYTE PTR ___flags$[esp], 1
  0000d	74 09		 je	 SHORT $L110739
  0000f	56		 push	 esi
  00010	e8 00 00 00 00	 call	 ??3@YAXPAX@Z		; operator delete
  00015	83 c4 04	 add	 esp, 4
$L110739:
  00018	8b c6		 mov	 eax, esi
  0001a	5e		 pop	 esi
  0001b	c2 04 00	 ret	 4
??_GCSPGetNation@@UAEPAXI@Z ENDP			; CSPGetNation::`scalar deleting destructor'
; Function compile flags: /Ogty
_TEXT	ENDS
;	COMDAT ??1CSPGetNation@@UAE@XZ
_TEXT	SEGMENT
??1CSPGetNation@@UAE@XZ PROC NEAR			; CSPGetNation::~CSPGetNation, COMDAT
; _this$ = ecx
  00000	e9 00 00 00 00	 jmp	 ??1CSqlQuery@@UAE@XZ	; CSqlQuery::~CSqlQuery
??1CSPGetNation@@UAE@XZ ENDP				; CSPGetNation::~CSPGetNation
_TEXT	ENDS
PUBLIC	??0CSPGetGuildInfo@@QAE@PAVCSqlDatabase@@V?$basic_string@DU?$char_traits@D@std@@V?$allocator@D@2@@std@@@Z ; CSPGetGuildInfo::CSPGetGuildInfo
PUBLIC	?GetNumParam@CSPGetGuildInfo@@UAEHXZ		; CSPGetGuildInfo::GetNumParam
PUBLIC	?BindParameters@CSPGetGuildInfo@@UAEFH@Z	; CSPGetGuildInfo::BindParameters
PUBLIC	??_7CSPGetGuildInfo@@6B@			; CSPGetGuildInfo::`vftable'
PUBLIC	??_GCSPGetGuildInfo@@UAEPAXI@Z			; CSPGetGuildInfo::`scalar deleting destructor'
PUBLIC	??_C@_0BO@CHEFPEBD@?$HLCALL?5TGetGuildInfo?$CI?$DP?0?$DP?0?$DP?0?$DP?$CJ?$HN?$AA@ ; `string'
EXTRN	??_ECSPGetGuildInfo@@UAEPAXI@Z:NEAR		; CSPGetGuildInfo::`vector deleting destructor'
;	COMDAT xdata$x
; File c:\program files (x86)\microsoft visual studio .net 2003\vc7\include\iosfwd
xdata$x	SEGMENT
$T110922 DD	0ffffffffH
	DD	FLAT:$L110748
$T110919 DD	019930520H
	DD	01H
	DD	FLAT:$T110922
	DD	2 DUP(00H)
	DD	2 DUP(00H)
xdata$x	ENDS
;	COMDAT ??_C@_0BO@CHEFPEBD@?$HLCALL?5TGetGuildInfo?$CI?$DP?0?$DP?0?$DP?0?$DP?$CJ?$HN?$AA@
CONST	SEGMENT
??_C@_0BO@CHEFPEBD@?$HLCALL?5TGetGuildInfo?$CI?$DP?0?$DP?0?$DP?0?$DP?$CJ?$HN?$AA@ DB '{'
	DB	'CALL TGetGuildInfo(?,?,?,?)}', 00H		; `string'
CONST	ENDS
;	COMDAT ??_7CSPGetGuildInfo@@6B@
CONST	SEGMENT
??_7CSPGetGuildInfo@@6B@ DD FLAT:??_ECSPGetGuildInfo@@UAEPAXI@Z ; CSPGetGuildInfo::`vftable'
	DD	FLAT:?GetNumCol@CSqlBase@@UAEHXZ
	DD	FLAT:?GetNumParam@CSPGetGuildInfo@@UAEHXZ
	DD	FLAT:?AllocStatement@CSqlQuery@@UAEHXZ
	DD	FLAT:?BindColumns@CSqlQuery@@UAEFXZ
	DD	FLAT:?BindParameters@CSPGetGuildInfo@@UAEFH@Z
; Function compile flags: /Ogty
; File c:\users\pierr\desktop\4story - oldschool\sources\tserver\tloginsvr\dbaccess.h
CONST	ENDS
;	COMDAT ??0CSPGetGuildInfo@@QAE@PAVCSqlDatabase@@V?$basic_string@DU?$char_traits@D@std@@V?$allocator@D@2@@std@@@Z
_TEXT	SEGMENT
$T110747 = -16						; size = 4
__$EHRec$ = -12						; size = 12
_pdb$ = 8						; size = 4
_strKey$ = 12						; size = 28
??0CSPGetGuildInfo@@QAE@PAVCSqlDatabase@@V?$basic_string@DU?$char_traits@D@std@@V?$allocator@D@2@@std@@@Z PROC NEAR ; CSPGetGuildInfo::CSPGetGuildInfo, COMDAT
; _this$ = ecx

; 605  : 	DEF_QUERY(CSPGetGuildInfo, _T("{CALL TGetGuildInfo(?,?,?,?)}"))

  00000	6a ff		 push	 -1
  00002	68 00 00 00 00	 push	 __ehhandler$??0CSPGetGuildInfo@@QAE@PAVCSqlDatabase@@V?$basic_string@DU?$char_traits@D@std@@V?$allocator@D@2@@std@@@Z
  00007	64 a1 00 00 00
	00		 mov	 eax, DWORD PTR fs:__except_list
  0000d	50		 push	 eax
  0000e	64 89 25 00 00
	00 00		 mov	 DWORD PTR fs:__except_list, esp
  00015	51		 push	 ecx
  00016	56		 push	 esi
  00017	8b f1		 mov	 esi, ecx
  00019	68 00 00 00 00	 push	 OFFSET FLAT:??_C@_0BO@CHEFPEBD@?$HLCALL?5TGetGuildInfo?$CI?$DP?0?$DP?0?$DP?0?$DP?$CJ?$HN?$AA@
  0001e	83 ec 1c	 sub	 esp, 28			; 0000001cH
  00021	8b cc		 mov	 ecx, esp
  00023	33 c0		 xor	 eax, eax
  00025	89 64 24 24	 mov	 DWORD PTR $T110747[esp+52], esp
  00029	6a ff		 push	 -1
  0002b	89 41 14	 mov	 DWORD PTR [ecx+20], eax
  0002e	c7 41 18 0f 00
	00 00		 mov	 DWORD PTR [ecx+24], 15	; 0000000fH
  00035	50		 push	 eax
  00036	89 44 24 38	 mov	 DWORD PTR __$EHRec$[esp+68], eax
  0003a	88 41 04	 mov	 BYTE PTR [ecx+4], al
  0003d	8d 44 24 44	 lea	 eax, DWORD PTR _strKey$[esp+56]
  00041	50		 push	 eax
  00042	e8 00 00 00 00	 call	 ?assign@?$basic_string@DU?$char_traits@D@std@@V?$allocator@D@2@@std@@QAEAAV12@ABV12@II@Z ; std::basic_string<char,std::char_traits<char>,std::allocator<char> >::assign
  00047	8b 4c 24 38	 mov	 ecx, DWORD PTR _pdb$[esp+48]
  0004b	51		 push	 ecx
  0004c	8b ce		 mov	 ecx, esi
  0004e	e8 00 00 00 00	 call	 ??0CSqlQuery@@QAE@PAVCSqlDatabase@@V?$basic_string@DU?$char_traits@D@std@@V?$allocator@D@2@@std@@PBD@Z ; CSqlQuery::CSqlQuery
  00053	83 7c 24 34 10	 cmp	 DWORD PTR _strKey$[esp+40], 16 ; 00000010H
  00058	c7 06 00 00 00
	00		 mov	 DWORD PTR [esi], OFFSET FLAT:??_7CSPGetGuildInfo@@6B@
  0005e	72 0d		 jb	 SHORT $L110920
  00060	8b 54 24 20	 mov	 edx, DWORD PTR _strKey$[esp+20]
  00064	52		 push	 edx
  00065	e8 00 00 00 00	 call	 ??3@YAXPAX@Z		; operator delete
  0006a	83 c4 04	 add	 esp, 4
$L110920:
  0006d	8b 4c 24 08	 mov	 ecx, DWORD PTR __$EHRec$[esp+20]
  00071	8b c6		 mov	 eax, esi
  00073	64 89 0d 00 00
	00 00		 mov	 DWORD PTR fs:__except_list, ecx
  0007a	5e		 pop	 esi
  0007b	83 c4 10	 add	 esp, 16			; 00000010H
  0007e	c2 20 00	 ret	 32			; 00000020H
_TEXT	ENDS
;	COMDAT text$x
text$x	SEGMENT
$L110748:
  00000	8d 4d 08	 lea	 ecx, DWORD PTR _strKey$[ebp-4]
  00003	e9 00 00 00 00	 jmp	 ??1?$basic_string@DU?$char_traits@D@std@@V?$allocator@D@2@@std@@QAE@XZ ; std::basic_string<char,std::char_traits<char>,std::allocator<char> >::~basic_string<char,std::char_traits<char>,std::allocator<char> >
__ehhandler$??0CSPGetGuildInfo@@QAE@PAVCSqlDatabase@@V?$basic_string@DU?$char_traits@D@std@@V?$allocator@D@2@@std@@@Z:
  00008	b8 00 00 00 00	 mov	 eax, OFFSET FLAT:$T110919
  0000d	e9 00 00 00 00	 jmp	 ___CxxFrameHandler
text$x	ENDS
??0CSPGetGuildInfo@@QAE@PAVCSqlDatabase@@V?$basic_string@DU?$char_traits@D@std@@V?$allocator@D@2@@std@@@Z ENDP ; CSPGetGuildInfo::CSPGetGuildInfo
; Function compile flags: /Ogty
;	COMDAT ?GetNumParam@CSPGetGuildInfo@@UAEHXZ
_TEXT	SEGMENT
?GetNumParam@CSPGetGuildInfo@@UAEHXZ PROC NEAR		; CSPGetGuildInfo::GetNumParam, COMDAT
; _this$ = ecx

; 607  : BEGIN_PARAM(4)

  00000	b8 04 00 00 00	 mov	 eax, 4
  00005	c3		 ret	 0
?GetNumParam@CSPGetGuildInfo@@UAEHXZ ENDP		; CSPGetGuildInfo::GetNumParam
; Function compile flags: /Ogty
_TEXT	ENDS
;	COMDAT ?BindParameters@CSPGetGuildInfo@@UAEFH@Z
_TEXT	SEGMENT
_bRewind$ = 8						; size = 4
?BindParameters@CSPGetGuildInfo@@UAEFH@Z PROC NEAR	; CSPGetGuildInfo::BindParameters, COMDAT
; _this$ = ecx

; 607  : BEGIN_PARAM(4)

  00000	56		 push	 esi
  00001	57		 push	 edi

; 608  : 	PARAM_ENTRY(SQL_PARAM_INPUT, m_dwCharID)

  00002	8b 7c 24 0c	 mov	 edi, DWORD PTR _bRewind$[esp+4]
  00006	33 c0		 xor	 eax, eax
  00008	85 ff		 test	 edi, edi
  0000a	8b f1		 mov	 esi, ecx
  0000c	89 86 10 08 00
	00		 mov	 DWORD PTR [esi+2064], eax
  00012	75 1b		 jne	 SHORT $L95787
  00014	8d 86 2c 0c 00
	00		 lea	 eax, DWORD PTR [esi+3116]
  0001a	50		 push	 eax
  0001b	6a 01		 push	 1
  0001d	6a 01		 push	 1
  0001f	e8 00 00 00 00	 call	 ?BindParam@CSqlBase@@QAEFFFPAK@Z ; CSqlBase::BindParam
  00024	66 85 c0	 test	 ax, ax
  00027	74 06		 je	 SHORT $L95787
  00029	66 3d 01 00	 cmp	 ax, 1
  0002d	75 78		 jne	 SHORT $L95782
$L95787:

; 609  : 	PARAM_ENTRY_STR(SQL_PARAM_OUTPUT, m_szName)

  0002f	85 ff		 test	 edi, edi
  00031	c7 86 14 08 00
	00 fd ff ff ff	 mov	 DWORD PTR [esi+2068], -3 ; fffffffdH
  0003b	75 14		 jne	 SHORT $L95788
  0003d	6a 33		 push	 51			; 00000033H
  0003f	8d 8e 30 0c 00
	00		 lea	 ecx, DWORD PTR [esi+3120]
  00045	51		 push	 ecx
  00046	6a 02		 push	 2
  00048	6a 04		 push	 4
  0004a	8b ce		 mov	 ecx, esi
  0004c	e8 00 00 00 00	 call	 ?BindParamStr@CSqlBase@@QAEFFFPADJ@Z ; CSqlBase::BindParamStr
$L95788:
  00051	66 85 c0	 test	 ax, ax
  00054	74 06		 je	 SHORT $L95789
  00056	66 3d 01 00	 cmp	 ax, 1
  0005a	75 4b		 jne	 SHORT $L95782
$L95789:

; 610  : 	PARAM_ENTRY(SQL_PARAM_OUTPUT, m_dwFame)

  0005c	85 ff		 test	 edi, edi
  0005e	c7 86 18 08 00
	00 00 00 00 00	 mov	 DWORD PTR [esi+2072], 0
  00068	75 12		 jne	 SHORT $L95790
  0006a	8d 96 64 0c 00
	00		 lea	 edx, DWORD PTR [esi+3172]
  00070	52		 push	 edx
  00071	6a 03		 push	 3
  00073	6a 04		 push	 4
  00075	8b ce		 mov	 ecx, esi
  00077	e8 00 00 00 00	 call	 ?BindParam@CSqlBase@@QAEFFFPAK@Z ; CSqlBase::BindParam
$L95790:
  0007c	66 85 c0	 test	 ax, ax
  0007f	74 06		 je	 SHORT $L95791
  00081	66 3d 01 00	 cmp	 ax, 1
  00085	75 20		 jne	 SHORT $L95782
$L95791:

; 611  : 	PARAM_ENTRY(SQL_PARAM_OUTPUT, m_dwFameColor)

  00087	85 ff		 test	 edi, edi
  00089	c7 86 1c 08 00
	00 00 00 00 00	 mov	 DWORD PTR [esi+2076], 0
  00093	75 12		 jne	 SHORT $L95782
  00095	8d 86 68 0c 00
	00		 lea	 eax, DWORD PTR [esi+3176]
  0009b	50		 push	 eax
  0009c	6a 04		 push	 4
  0009e	6a 04		 push	 4
  000a0	8b ce		 mov	 ecx, esi
  000a2	e8 00 00 00 00	 call	 ?BindParam@CSqlBase@@QAEFFFPAK@Z ; CSqlBase::BindParam
$L95782:
  000a7	5f		 pop	 edi
  000a8	5e		 pop	 esi

; 612  : END_PARAM()

  000a9	c2 04 00	 ret	 4
?BindParameters@CSPGetGuildInfo@@UAEFH@Z ENDP		; CSPGetGuildInfo::BindParameters
_TEXT	ENDS
PUBLIC	??1CSPGetGuildInfo@@UAE@XZ			; CSPGetGuildInfo::~CSPGetGuildInfo
; Function compile flags: /Ogty
;	COMDAT ??_GCSPGetGuildInfo@@UAEPAXI@Z
_TEXT	SEGMENT
___flags$ = 8						; size = 4
??_GCSPGetGuildInfo@@UAEPAXI@Z PROC NEAR		; CSPGetGuildInfo::`scalar deleting destructor', COMDAT
; _this$ = ecx
  00000	56		 push	 esi
  00001	8b f1		 mov	 esi, ecx
  00003	e8 00 00 00 00	 call	 ??1CSPGetGuildInfo@@UAE@XZ
  00008	f6 44 24 08 01	 test	 BYTE PTR ___flags$[esp], 1
  0000d	74 09		 je	 SHORT $L110934
  0000f	56		 push	 esi
  00010	e8 00 00 00 00	 call	 ??3@YAXPAX@Z		; operator delete
  00015	83 c4 04	 add	 esp, 4
$L110934:
  00018	8b c6		 mov	 eax, esi
  0001a	5e		 pop	 esi
  0001b	c2 04 00	 ret	 4
??_GCSPGetGuildInfo@@UAEPAXI@Z ENDP			; CSPGetGuildInfo::`scalar deleting destructor'
; Function compile flags: /Ogty
_TEXT	ENDS
;	COMDAT ??1CSPGetGuildInfo@@UAE@XZ
_TEXT	SEGMENT
??1CSPGetGuildInfo@@UAE@XZ PROC NEAR			; CSPGetGuildInfo::~CSPGetGuildInfo, COMDAT
; _this$ = ecx
  00000	e9 00 00 00 00	 jmp	 ??1CSqlQuery@@UAE@XZ	; CSqlQuery::~CSqlQuery
??1CSPGetGuildInfo@@UAE@XZ ENDP				; CSPGetGuildInfo::~CSPGetGuildInfo
_TEXT	ENDS
PUBLIC	??_C@_0M@PBFKKLH@CTBLChannel?$AA@		; `string'
PUBLIC	??_C@_09CBFKFMKO@CTBLGroup?$AA@			; `string'
PUBLIC	??_C@_0O@COGHLFI@CTBLGroupList?$AA@		; `string'
PUBLIC	??_C@_0P@KEKLJILN@CSPCheckPasswd?$AA@		; `string'
PUBLIC	??_C@_09FMDGFNJM@CSPLogout?$AA@			; `string'
PUBLIC	??_C@_08HPOEJKLG@CSPLogin?$AA@			; `string'
PUBLIC	??_C@_0L@ELJEICCB@CSPCheckIP?$AA@		; `string'
PUBLIC	??_C@_08ELCCIPKB@CSPRoute?$AA@			; `string'
PUBLIC	??_C@_0P@EOMPGPJC@CSPLoadService?$AA@		; `string'
PUBLIC	??_C@_0N@CGBFMCOF@CSPTestLogin?$AA@		; `string'
PUBLIC	??_C@_0N@IBGPBEGA@CSPAgreement?$AA@		; `string'
PUBLIC	??_C@_0O@GIBPOEFL@CTBLUserCount?$AA@		; `string'
PUBLIC	??_C@_0BC@EJDOGFFC@CSPClearLoginUser?$AA@	; `string'
PUBLIC	??_C@_0N@KEAKLAPB@CSPGetNation?$AA@		; `string'
PUBLIC	??_C@_0L@GFPDFJMC@CSPLoginJP?$AA@		; `string'
PUBLIC	?InitQueryTLoginSvr@@YAHPAVCSqlDatabase@@@Z	; InitQueryTLoginSvr
;	COMDAT xdata$x
; File c:\program files (x86)\microsoft visual studio .net 2003\vc7\include\iosfwd
xdata$x	SEGMENT
$T111263 DD	0ffffffffH
	DD	FLAT:$L111017
	DD	0ffffffffH
	DD	FLAT:$L111019
	DD	0ffffffffH
	DD	FLAT:$L111021
	DD	0ffffffffH
	DD	FLAT:$L111023
	DD	0ffffffffH
	DD	FLAT:$L111025
	DD	0ffffffffH
	DD	FLAT:$L111027
	DD	0ffffffffH
	DD	FLAT:$L111029
	DD	0ffffffffH
	DD	FLAT:$L111031
	DD	0ffffffffH
	DD	FLAT:$L111033
	DD	0ffffffffH
	DD	FLAT:$L111035
	DD	0ffffffffH
	DD	FLAT:$L111037
	DD	0ffffffffH
	DD	FLAT:$L111039
	DD	0ffffffffH
	DD	FLAT:$L111041
	DD	0ffffffffH
	DD	FLAT:$L111043
	DD	0ffffffffH
	DD	FLAT:$L111045
$T111260 DD	019930520H
	DD	0fH
	DD	FLAT:$T111263
	DD	2 DUP(00H)
	DD	2 DUP(00H)
xdata$x	ENDS
;	COMDAT ??_C@_0M@PBFKKLH@CTBLChannel?$AA@
CONST	SEGMENT
??_C@_0M@PBFKKLH@CTBLChannel?$AA@ DB 'CTBLChannel', 00H	; `string'
CONST	ENDS
;	COMDAT ??_C@_09CBFKFMKO@CTBLGroup?$AA@
CONST	SEGMENT
??_C@_09CBFKFMKO@CTBLGroup?$AA@ DB 'CTBLGroup', 00H	; `string'
CONST	ENDS
;	COMDAT ??_C@_0O@COGHLFI@CTBLGroupList?$AA@
CONST	SEGMENT
??_C@_0O@COGHLFI@CTBLGroupList?$AA@ DB 'CTBLGroupList', 00H ; `string'
CONST	ENDS
;	COMDAT ??_C@_0P@KEKLJILN@CSPCheckPasswd?$AA@
CONST	SEGMENT
??_C@_0P@KEKLJILN@CSPCheckPasswd?$AA@ DB 'CSPCheckPasswd', 00H ; `string'
CONST	ENDS
;	COMDAT ??_C@_09FMDGFNJM@CSPLogout?$AA@
CONST	SEGMENT
??_C@_09FMDGFNJM@CSPLogout?$AA@ DB 'CSPLogout', 00H	; `string'
CONST	ENDS
;	COMDAT ??_C@_08HPOEJKLG@CSPLogin?$AA@
CONST	SEGMENT
??_C@_08HPOEJKLG@CSPLogin?$AA@ DB 'CSPLogin', 00H	; `string'
CONST	ENDS
;	COMDAT ??_C@_0L@ELJEICCB@CSPCheckIP?$AA@
CONST	SEGMENT
??_C@_0L@ELJEICCB@CSPCheckIP?$AA@ DB 'CSPCheckIP', 00H	; `string'
CONST	ENDS
;	COMDAT ??_C@_08ELCCIPKB@CSPRoute?$AA@
CONST	SEGMENT
??_C@_08ELCCIPKB@CSPRoute?$AA@ DB 'CSPRoute', 00H	; `string'
CONST	ENDS
;	COMDAT ??_C@_0P@EOMPGPJC@CSPLoadService?$AA@
CONST	SEGMENT
??_C@_0P@EOMPGPJC@CSPLoadService?$AA@ DB 'CSPLoadService', 00H ; `string'
CONST	ENDS
;	COMDAT ??_C@_0N@CGBFMCOF@CSPTestLogin?$AA@
CONST	SEGMENT
??_C@_0N@CGBFMCOF@CSPTestLogin?$AA@ DB 'CSPTestLogin', 00H ; `string'
CONST	ENDS
;	COMDAT ??_C@_0N@IBGPBEGA@CSPAgreement?$AA@
CONST	SEGMENT
??_C@_0N@IBGPBEGA@CSPAgreement?$AA@ DB 'CSPAgreement', 00H ; `string'
CONST	ENDS
;	COMDAT ??_C@_0O@GIBPOEFL@CTBLUserCount?$AA@
CONST	SEGMENT
??_C@_0O@GIBPOEFL@CTBLUserCount?$AA@ DB 'CTBLUserCount', 00H ; `string'
CONST	ENDS
;	COMDAT ??_C@_0BC@EJDOGFFC@CSPClearLoginUser?$AA@
CONST	SEGMENT
??_C@_0BC@EJDOGFFC@CSPClearLoginUser?$AA@ DB 'CSPClearLoginUser', 00H ; `string'
CONST	ENDS
;	COMDAT ??_C@_0N@KEAKLAPB@CSPGetNation?$AA@
CONST	SEGMENT
??_C@_0N@KEAKLAPB@CSPGetNation?$AA@ DB 'CSPGetNation', 00H ; `string'
CONST	ENDS
;	COMDAT ??_C@_0L@GFPDFJMC@CSPLoginJP?$AA@
CONST	SEGMENT
??_C@_0L@GFPDFJMC@CSPLoginJP?$AA@ DB 'CSPLoginJP', 00H	; `string'
; Function compile flags: /Ogty
; File c:\users\pierr\desktop\4story - oldschool\sources\tserver\tloginsvr\dbaccess.cpp
CONST	ENDS
;	COMDAT ?InitQueryTLoginSvr@@YAHPAVCSqlDatabase@@@Z
_TEXT	SEGMENT
$T111014 = -20						; size = 4
$T111009 = -20						; size = 4
$T111004 = -20						; size = 4
$T110999 = -20						; size = 4
$T110994 = -20						; size = 4
$T110989 = -20						; size = 4
$T110984 = -20						; size = 4
$T110979 = -20						; size = 4
$T110974 = -20						; size = 4
$T110969 = -20						; size = 4
$T110964 = -20						; size = 4
$T110959 = -20						; size = 4
$T110954 = -20						; size = 4
$T110949 = -20						; size = 4
$T110943 = -20						; size = 4
$T111013 = -16						; size = 4
$T111008 = -16						; size = 4
$T111003 = -16						; size = 4
$T110998 = -16						; size = 4
$T110993 = -16						; size = 4
$T110988 = -16						; size = 4
$T110983 = -16						; size = 4
$T110978 = -16						; size = 4
$T110973 = -16						; size = 4
$T110968 = -16						; size = 4
$T110963 = -16						; size = 4
$T110958 = -16						; size = 4
$T110953 = -16						; size = 4
$T110948 = -16						; size = 4
$T110944 = -16						; size = 4
__$EHRec$ = -12						; size = 12
_pdb$ = 8						; size = 4
?InitQueryTLoginSvr@@YAHPAVCSqlDatabase@@@Z PROC NEAR	; InitQueryTLoginSvr, COMDAT

; 3    : BEGIN_INIT_QUERY(TLoginSvr)

  00000	6a ff		 push	 -1
  00002	68 00 00 00 00	 push	 __ehhandler$?InitQueryTLoginSvr@@YAHPAVCSqlDatabase@@@Z
  00007	64 a1 00 00 00
	00		 mov	 eax, DWORD PTR fs:__except_list
  0000d	50		 push	 eax
  0000e	64 89 25 00 00
	00 00		 mov	 DWORD PTR fs:__except_list, esp
  00015	83 ec 08	 sub	 esp, 8
  00018	53		 push	 ebx
  00019	55		 push	 ebp
  0001a	56		 push	 esi
  0001b	57		 push	 edi

; 4    : 	PREDEFINE_QUERY(CTBLChannel)

  0001c	68 6c 0c 00 00	 push	 3180			; 00000c6cH
  00021	e8 00 00 00 00	 call	 ??2@YAPAXI@Z		; operator new
  00026	8b f0		 mov	 esi, eax
  00028	83 c4 04	 add	 esp, 4
  0002b	89 74 24 10	 mov	 DWORD PTR $T110943[esp+36], esi
  0002f	8b 6c 24 28	 mov	 ebp, DWORD PTR _pdb$[esp+32]
  00033	33 db		 xor	 ebx, ebx
  00035	3b f3		 cmp	 esi, ebx
  00037	89 5c 24 20	 mov	 DWORD PTR __$EHRec$[esp+44], ebx
  0003b	bf 0f 00 00 00	 mov	 edi, 15			; 0000000fH
  00040	74 28		 je	 SHORT $L110945
  00042	83 ec 1c	 sub	 esp, 28			; 0000001cH
  00045	8b cc		 mov	 ecx, esp
  00047	89 64 24 30	 mov	 DWORD PTR $T110944[esp+64], esp
  0004b	6a 0b		 push	 11			; 0000000bH
  0004d	89 79 18	 mov	 DWORD PTR [ecx+24], edi
  00050	89 59 14	 mov	 DWORD PTR [ecx+20], ebx
  00053	68 00 00 00 00	 push	 OFFSET FLAT:??_C@_0M@PBFKKLH@CTBLChannel?$AA@
  00058	88 59 04	 mov	 BYTE PTR [ecx+4], bl
  0005b	e8 00 00 00 00	 call	 ?assign@?$basic_string@DU?$char_traits@D@std@@V?$allocator@D@2@@std@@QAEAAV12@PBDI@Z ; std::basic_string<char,std::char_traits<char>,std::allocator<char> >::assign
  00060	55		 push	 ebp
  00061	8b ce		 mov	 ecx, esi
  00063	e8 00 00 00 00	 call	 ??0CTBLChannel@@QAE@PAVCSqlDatabase@@V?$basic_string@DU?$char_traits@D@std@@V?$allocator@D@2@@std@@@Z ; CTBLChannel::CTBLChannel
  00068	eb 02		 jmp	 SHORT $L110946
$L110945:
  0006a	33 c0		 xor	 eax, eax
$L110946:
  0006c	3b c3		 cmp	 eax, ebx
  0006e	c7 44 24 20 ff
	ff ff ff	 mov	 DWORD PTR __$EHRec$[esp+44], -1
  00076	0f 84 0a 04 00
	00		 je	 $L111261

; 5    : 	PREDEFINE_QUERY(CTBLGroup)

  0007c	68 fc 0c 00 00	 push	 3324			; 00000cfcH
  00081	e8 00 00 00 00	 call	 ??2@YAPAXI@Z		; operator new
  00086	8b f0		 mov	 esi, eax
  00088	83 c4 04	 add	 esp, 4
  0008b	89 74 24 14	 mov	 DWORD PTR $T110948[esp+36], esi
  0008f	3b f3		 cmp	 esi, ebx
  00091	c7 44 24 20 01
	00 00 00	 mov	 DWORD PTR __$EHRec$[esp+44], 1
  00099	74 28		 je	 SHORT $L110950
  0009b	83 ec 1c	 sub	 esp, 28			; 0000001cH
  0009e	8b cc		 mov	 ecx, esp
  000a0	89 64 24 2c	 mov	 DWORD PTR $T110949[esp+64], esp
  000a4	6a 09		 push	 9
  000a6	89 79 18	 mov	 DWORD PTR [ecx+24], edi
  000a9	89 59 14	 mov	 DWORD PTR [ecx+20], ebx
  000ac	68 00 00 00 00	 push	 OFFSET FLAT:??_C@_09CBFKFMKO@CTBLGroup?$AA@
  000b1	88 59 04	 mov	 BYTE PTR [ecx+4], bl
  000b4	e8 00 00 00 00	 call	 ?assign@?$basic_string@DU?$char_traits@D@std@@V?$allocator@D@2@@std@@QAEAAV12@PBDI@Z ; std::basic_string<char,std::char_traits<char>,std::allocator<char> >::assign
  000b9	55		 push	 ebp
  000ba	8b ce		 mov	 ecx, esi
  000bc	e8 00 00 00 00	 call	 ??0CTBLGroup@@QAE@PAVCSqlDatabase@@V?$basic_string@DU?$char_traits@D@std@@V?$allocator@D@2@@std@@@Z ; CTBLGroup::CTBLGroup
  000c1	eb 02		 jmp	 SHORT $L110951
$L110950:
  000c3	33 c0		 xor	 eax, eax
$L110951:
  000c5	83 cf ff	 or	 edi, -1
  000c8	3b c3		 cmp	 eax, ebx
  000ca	89 7c 24 20	 mov	 DWORD PTR __$EHRec$[esp+44], edi
  000ce	0f 84 b2 03 00
	00		 je	 $L111261

; 6    : 	PREDEFINE_QUERY(CTBLGroupList)

  000d4	68 74 0c 00 00	 push	 3188			; 00000c74H
  000d9	e8 00 00 00 00	 call	 ??2@YAPAXI@Z		; operator new
  000de	8b f0		 mov	 esi, eax
  000e0	83 c4 04	 add	 esp, 4
  000e3	89 74 24 14	 mov	 DWORD PTR $T110953[esp+36], esi
  000e7	3b f3		 cmp	 esi, ebx
  000e9	c7 44 24 20 02
	00 00 00	 mov	 DWORD PTR __$EHRec$[esp+44], 2
  000f1	74 1d		 je	 SHORT $L110955
  000f3	83 ec 1c	 sub	 esp, 28			; 0000001cH
  000f6	8b cc		 mov	 ecx, esp
  000f8	89 64 24 2c	 mov	 DWORD PTR $T110954[esp+64], esp
  000fc	68 00 00 00 00	 push	 OFFSET FLAT:??_C@_0O@COGHLFI@CTBLGroupList?$AA@
  00101	e8 00 00 00 00	 call	 ??0?$basic_string@DU?$char_traits@D@std@@V?$allocator@D@2@@std@@QAE@PBD@Z ; std::basic_string<char,std::char_traits<char>,std::allocator<char> >::basic_string<char,std::char_traits<char>,std::allocator<char> >
  00106	55		 push	 ebp
  00107	8b ce		 mov	 ecx, esi
  00109	e8 00 00 00 00	 call	 ??0CTBLGroupList@@QAE@PAVCSqlDatabase@@V?$basic_string@DU?$char_traits@D@std@@V?$allocator@D@2@@std@@@Z ; CTBLGroupList::CTBLGroupList
  0010e	eb 02		 jmp	 SHORT $L110956
$L110955:
  00110	33 c0		 xor	 eax, eax
$L110956:
  00112	3b c3		 cmp	 eax, ebx
  00114	89 7c 24 20	 mov	 DWORD PTR __$EHRec$[esp+44], edi
  00118	0f 84 68 03 00
	00		 je	 $L111261

; 7    : 
; 8    : 	PREDEFINE_QUERY(CSPCheckPasswd)

  0011e	68 68 0c 00 00	 push	 3176			; 00000c68H
  00123	e8 00 00 00 00	 call	 ??2@YAPAXI@Z		; operator new
  00128	8b f0		 mov	 esi, eax
  0012a	83 c4 04	 add	 esp, 4
  0012d	89 74 24 14	 mov	 DWORD PTR $T110958[esp+36], esi
  00131	3b f3		 cmp	 esi, ebx
  00133	c7 44 24 20 03
	00 00 00	 mov	 DWORD PTR __$EHRec$[esp+44], 3
  0013b	74 1d		 je	 SHORT $L110960
  0013d	83 ec 1c	 sub	 esp, 28			; 0000001cH
  00140	8b cc		 mov	 ecx, esp
  00142	89 64 24 2c	 mov	 DWORD PTR $T110959[esp+64], esp
  00146	68 00 00 00 00	 push	 OFFSET FLAT:??_C@_0P@KEKLJILN@CSPCheckPasswd?$AA@
  0014b	e8 00 00 00 00	 call	 ??0?$basic_string@DU?$char_traits@D@std@@V?$allocator@D@2@@std@@QAE@PBD@Z ; std::basic_string<char,std::char_traits<char>,std::allocator<char> >::basic_string<char,std::char_traits<char>,std::allocator<char> >
  00150	55		 push	 ebp
  00151	8b ce		 mov	 ecx, esi
  00153	e8 00 00 00 00	 call	 ??0CSPCheckPasswd@@QAE@PAVCSqlDatabase@@V?$basic_string@DU?$char_traits@D@std@@V?$allocator@D@2@@std@@@Z ; CSPCheckPasswd::CSPCheckPasswd
  00158	eb 02		 jmp	 SHORT $L110961
$L110960:
  0015a	33 c0		 xor	 eax, eax
$L110961:
  0015c	3b c3		 cmp	 eax, ebx
  0015e	89 7c 24 20	 mov	 DWORD PTR __$EHRec$[esp+44], edi
  00162	0f 84 1e 03 00
	00		 je	 $L111261

; 9    : 	PREDEFINE_QUERY(CSPLogout)

  00168	68 40 0c 00 00	 push	 3136			; 00000c40H
  0016d	e8 00 00 00 00	 call	 ??2@YAPAXI@Z		; operator new
  00172	8b f0		 mov	 esi, eax
  00174	83 c4 04	 add	 esp, 4
  00177	89 74 24 14	 mov	 DWORD PTR $T110963[esp+36], esi
  0017b	3b f3		 cmp	 esi, ebx
  0017d	c7 44 24 20 04
	00 00 00	 mov	 DWORD PTR __$EHRec$[esp+44], 4
  00185	74 1d		 je	 SHORT $L110965
  00187	83 ec 1c	 sub	 esp, 28			; 0000001cH
  0018a	8b cc		 mov	 ecx, esp
  0018c	89 64 24 2c	 mov	 DWORD PTR $T110964[esp+64], esp
  00190	68 00 00 00 00	 push	 OFFSET FLAT:??_C@_09FMDGFNJM@CSPLogout?$AA@
  00195	e8 00 00 00 00	 call	 ??0?$basic_string@DU?$char_traits@D@std@@V?$allocator@D@2@@std@@QAE@PBD@Z ; std::basic_string<char,std::char_traits<char>,std::allocator<char> >::basic_string<char,std::char_traits<char>,std::allocator<char> >
  0019a	55		 push	 ebp
  0019b	8b ce		 mov	 ecx, esi
  0019d	e8 00 00 00 00	 call	 ??0CSPLogout@@QAE@PAVCSqlDatabase@@V?$basic_string@DU?$char_traits@D@std@@V?$allocator@D@2@@std@@@Z ; CSPLogout::CSPLogout
  001a2	eb 02		 jmp	 SHORT $L110966
$L110965:
  001a4	33 c0		 xor	 eax, eax
$L110966:
  001a6	3b c3		 cmp	 eax, ebx
  001a8	89 7c 24 20	 mov	 DWORD PTR __$EHRec$[esp+44], edi
  001ac	0f 84 d4 02 00
	00		 je	 $L111261

; 10   : 	PREDEFINE_QUERY(CSPLogin)

  001b2	68 14 0d 00 00	 push	 3348			; 00000d14H
  001b7	e8 00 00 00 00	 call	 ??2@YAPAXI@Z		; operator new
  001bc	8b f0		 mov	 esi, eax
  001be	83 c4 04	 add	 esp, 4
  001c1	89 74 24 14	 mov	 DWORD PTR $T110968[esp+36], esi
  001c5	3b f3		 cmp	 esi, ebx
  001c7	c7 44 24 20 05
	00 00 00	 mov	 DWORD PTR __$EHRec$[esp+44], 5
  001cf	74 1d		 je	 SHORT $L110970
  001d1	83 ec 1c	 sub	 esp, 28			; 0000001cH
  001d4	8b cc		 mov	 ecx, esp
  001d6	89 64 24 2c	 mov	 DWORD PTR $T110969[esp+64], esp
  001da	68 00 00 00 00	 push	 OFFSET FLAT:??_C@_08HPOEJKLG@CSPLogin?$AA@
  001df	e8 00 00 00 00	 call	 ??0?$basic_string@DU?$char_traits@D@std@@V?$allocator@D@2@@std@@QAE@PBD@Z ; std::basic_string<char,std::char_traits<char>,std::allocator<char> >::basic_string<char,std::char_traits<char>,std::allocator<char> >
  001e4	55		 push	 ebp
  001e5	8b ce		 mov	 ecx, esi
  001e7	e8 00 00 00 00	 call	 ??0CSPLogin@@QAE@PAVCSqlDatabase@@V?$basic_string@DU?$char_traits@D@std@@V?$allocator@D@2@@std@@@Z ; CSPLogin::CSPLogin
  001ec	eb 02		 jmp	 SHORT $L110971
$L110970:
  001ee	33 c0		 xor	 eax, eax
$L110971:
  001f0	3b c3		 cmp	 eax, ebx
  001f2	89 7c 24 20	 mov	 DWORD PTR __$EHRec$[esp+44], edi
  001f6	0f 84 8a 02 00
	00		 je	 $L111261

; 11   : 	PREDEFINE_QUERY(CSPCheckIP)

  001fc	68 64 0c 00 00	 push	 3172			; 00000c64H
  00201	e8 00 00 00 00	 call	 ??2@YAPAXI@Z		; operator new
  00206	8b f0		 mov	 esi, eax
  00208	83 c4 04	 add	 esp, 4
  0020b	89 74 24 14	 mov	 DWORD PTR $T110973[esp+36], esi
  0020f	3b f3		 cmp	 esi, ebx
  00211	c7 44 24 20 06
	00 00 00	 mov	 DWORD PTR __$EHRec$[esp+44], 6
  00219	74 1d		 je	 SHORT $L110975
  0021b	83 ec 1c	 sub	 esp, 28			; 0000001cH
  0021e	8b cc		 mov	 ecx, esp
  00220	89 64 24 2c	 mov	 DWORD PTR $T110974[esp+64], esp
  00224	68 00 00 00 00	 push	 OFFSET FLAT:??_C@_0L@ELJEICCB@CSPCheckIP?$AA@
  00229	e8 00 00 00 00	 call	 ??0?$basic_string@DU?$char_traits@D@std@@V?$allocator@D@2@@std@@QAE@PBD@Z ; std::basic_string<char,std::char_traits<char>,std::allocator<char> >::basic_string<char,std::char_traits<char>,std::allocator<char> >
  0022e	55		 push	 ebp
  0022f	8b ce		 mov	 ecx, esi
  00231	e8 00 00 00 00	 call	 ??0CSPCheckIP@@QAE@PAVCSqlDatabase@@V?$basic_string@DU?$char_traits@D@std@@V?$allocator@D@2@@std@@@Z ; CSPCheckIP::CSPCheckIP
  00236	eb 02		 jmp	 SHORT $L110976
$L110975:
  00238	33 c0		 xor	 eax, eax
$L110976:
  0023a	3b c3		 cmp	 eax, ebx
  0023c	89 7c 24 20	 mov	 DWORD PTR __$EHRec$[esp+44], edi
  00240	0f 84 40 02 00
	00		 je	 $L111261

; 12   : 	PREDEFINE_QUERY(CSPRoute)	

  00246	68 68 0c 00 00	 push	 3176			; 00000c68H
  0024b	e8 00 00 00 00	 call	 ??2@YAPAXI@Z		; operator new
  00250	8b f0		 mov	 esi, eax
  00252	83 c4 04	 add	 esp, 4
  00255	89 74 24 14	 mov	 DWORD PTR $T110978[esp+36], esi
  00259	3b f3		 cmp	 esi, ebx
  0025b	c7 44 24 20 07
	00 00 00	 mov	 DWORD PTR __$EHRec$[esp+44], 7
  00263	74 1d		 je	 SHORT $L110980
  00265	83 ec 1c	 sub	 esp, 28			; 0000001cH
  00268	8b cc		 mov	 ecx, esp
  0026a	89 64 24 2c	 mov	 DWORD PTR $T110979[esp+64], esp
  0026e	68 00 00 00 00	 push	 OFFSET FLAT:??_C@_08ELCCIPKB@CSPRoute?$AA@
  00273	e8 00 00 00 00	 call	 ??0?$basic_string@DU?$char_traits@D@std@@V?$allocator@D@2@@std@@QAE@PBD@Z ; std::basic_string<char,std::char_traits<char>,std::allocator<char> >::basic_string<char,std::char_traits<char>,std::allocator<char> >
  00278	55		 push	 ebp
  00279	8b ce		 mov	 ecx, esi
  0027b	e8 00 00 00 00	 call	 ??0CSPRoute@@QAE@PAVCSqlDatabase@@V?$basic_string@DU?$char_traits@D@std@@V?$allocator@D@2@@std@@@Z ; CSPRoute::CSPRoute
  00280	eb 02		 jmp	 SHORT $L110981
$L110980:
  00282	33 c0		 xor	 eax, eax
$L110981:
  00284	3b c3		 cmp	 eax, ebx
  00286	89 7c 24 20	 mov	 DWORD PTR __$EHRec$[esp+44], edi
  0028a	0f 84 f6 01 00
	00		 je	 $L111261

; 13   : 	PREDEFINE_QUERY(CSPLoadService)

  00290	68 64 0c 00 00	 push	 3172			; 00000c64H
  00295	e8 00 00 00 00	 call	 ??2@YAPAXI@Z		; operator new
  0029a	8b f0		 mov	 esi, eax
  0029c	83 c4 04	 add	 esp, 4
  0029f	89 74 24 14	 mov	 DWORD PTR $T110983[esp+36], esi
  002a3	3b f3		 cmp	 esi, ebx
  002a5	c7 44 24 20 08
	00 00 00	 mov	 DWORD PTR __$EHRec$[esp+44], 8
  002ad	74 1d		 je	 SHORT $L110985
  002af	83 ec 1c	 sub	 esp, 28			; 0000001cH
  002b2	8b cc		 mov	 ecx, esp
  002b4	89 64 24 2c	 mov	 DWORD PTR $T110984[esp+64], esp
  002b8	68 00 00 00 00	 push	 OFFSET FLAT:??_C@_0P@EOMPGPJC@CSPLoadService?$AA@
  002bd	e8 00 00 00 00	 call	 ??0?$basic_string@DU?$char_traits@D@std@@V?$allocator@D@2@@std@@QAE@PBD@Z ; std::basic_string<char,std::char_traits<char>,std::allocator<char> >::basic_string<char,std::char_traits<char>,std::allocator<char> >
  002c2	55		 push	 ebp
  002c3	8b ce		 mov	 ecx, esi
  002c5	e8 00 00 00 00	 call	 ??0CSPLoadService@@QAE@PAVCSqlDatabase@@V?$basic_string@DU?$char_traits@D@std@@V?$allocator@D@2@@std@@@Z ; CSPLoadService::CSPLoadService
  002ca	eb 02		 jmp	 SHORT $L110986
$L110985:
  002cc	33 c0		 xor	 eax, eax
$L110986:
  002ce	3b c3		 cmp	 eax, ebx
  002d0	89 7c 24 20	 mov	 DWORD PTR __$EHRec$[esp+44], edi
  002d4	0f 84 ac 01 00
	00		 je	 $L111261

; 14   : 	PREDEFINE_QUERY(CSPTestLogin) //  CS_TESTLOGIN_REQ

  002da	68 dc 0c 00 00	 push	 3292			; 00000cdcH
  002df	e8 00 00 00 00	 call	 ??2@YAPAXI@Z		; operator new
  002e4	8b f0		 mov	 esi, eax
  002e6	83 c4 04	 add	 esp, 4
  002e9	89 74 24 14	 mov	 DWORD PTR $T110988[esp+36], esi
  002ed	3b f3		 cmp	 esi, ebx
  002ef	c7 44 24 20 09
	00 00 00	 mov	 DWORD PTR __$EHRec$[esp+44], 9
  002f7	74 1d		 je	 SHORT $L110990
  002f9	83 ec 1c	 sub	 esp, 28			; 0000001cH
  002fc	8b cc		 mov	 ecx, esp
  002fe	89 64 24 2c	 mov	 DWORD PTR $T110989[esp+64], esp
  00302	68 00 00 00 00	 push	 OFFSET FLAT:??_C@_0N@CGBFMCOF@CSPTestLogin?$AA@
  00307	e8 00 00 00 00	 call	 ??0?$basic_string@DU?$char_traits@D@std@@V?$allocator@D@2@@std@@QAE@PBD@Z ; std::basic_string<char,std::char_traits<char>,std::allocator<char> >::basic_string<char,std::char_traits<char>,std::allocator<char> >
  0030c	55		 push	 ebp
  0030d	8b ce		 mov	 ecx, esi
  0030f	e8 00 00 00 00	 call	 ??0CSPTestLogin@@QAE@PAVCSqlDatabase@@V?$basic_string@DU?$char_traits@D@std@@V?$allocator@D@2@@std@@@Z ; CSPTestLogin::CSPTestLogin
  00314	eb 02		 jmp	 SHORT $L110991
$L110990:
  00316	33 c0		 xor	 eax, eax
$L110991:
  00318	3b c3		 cmp	 eax, ebx
  0031a	89 7c 24 20	 mov	 DWORD PTR __$EHRec$[esp+44], edi
  0031e	0f 84 62 01 00
	00		 je	 $L111261

; 15   : 	PREDEFINE_QUERY(CSPAgreement)

  00324	68 30 0c 00 00	 push	 3120			; 00000c30H
  00329	e8 00 00 00 00	 call	 ??2@YAPAXI@Z		; operator new
  0032e	8b f0		 mov	 esi, eax
  00330	83 c4 04	 add	 esp, 4
  00333	89 74 24 14	 mov	 DWORD PTR $T110993[esp+36], esi
  00337	3b f3		 cmp	 esi, ebx
  00339	c7 44 24 20 0a
	00 00 00	 mov	 DWORD PTR __$EHRec$[esp+44], 10 ; 0000000aH
  00341	74 1d		 je	 SHORT $L110995
  00343	83 ec 1c	 sub	 esp, 28			; 0000001cH
  00346	8b cc		 mov	 ecx, esp
  00348	89 64 24 2c	 mov	 DWORD PTR $T110994[esp+64], esp
  0034c	68 00 00 00 00	 push	 OFFSET FLAT:??_C@_0N@IBGPBEGA@CSPAgreement?$AA@
  00351	e8 00 00 00 00	 call	 ??0?$basic_string@DU?$char_traits@D@std@@V?$allocator@D@2@@std@@QAE@PBD@Z ; std::basic_string<char,std::char_traits<char>,std::allocator<char> >::basic_string<char,std::char_traits<char>,std::allocator<char> >
  00356	55		 push	 ebp
  00357	8b ce		 mov	 ecx, esi
  00359	e8 00 00 00 00	 call	 ??0CSPAgreement@@QAE@PAVCSqlDatabase@@V?$basic_string@DU?$char_traits@D@std@@V?$allocator@D@2@@std@@@Z ; CSPAgreement::CSPAgreement
  0035e	eb 02		 jmp	 SHORT $L110996
$L110995:
  00360	33 c0		 xor	 eax, eax
$L110996:
  00362	3b c3		 cmp	 eax, ebx
  00364	89 7c 24 20	 mov	 DWORD PTR __$EHRec$[esp+44], edi
  00368	0f 84 18 01 00
	00		 je	 $L111261

; 16   : 	PREDEFINE_QUERY(CTBLUserCount)

  0036e	68 34 0c 00 00	 push	 3124			; 00000c34H
  00373	e8 00 00 00 00	 call	 ??2@YAPAXI@Z		; operator new
  00378	8b f0		 mov	 esi, eax
  0037a	83 c4 04	 add	 esp, 4
  0037d	89 74 24 14	 mov	 DWORD PTR $T110998[esp+36], esi
  00381	3b f3		 cmp	 esi, ebx
  00383	c7 44 24 20 0b
	00 00 00	 mov	 DWORD PTR __$EHRec$[esp+44], 11 ; 0000000bH
  0038b	74 1d		 je	 SHORT $L111000
  0038d	83 ec 1c	 sub	 esp, 28			; 0000001cH
  00390	8b cc		 mov	 ecx, esp
  00392	89 64 24 2c	 mov	 DWORD PTR $T110999[esp+64], esp
  00396	68 00 00 00 00	 push	 OFFSET FLAT:??_C@_0O@GIBPOEFL@CTBLUserCount?$AA@
  0039b	e8 00 00 00 00	 call	 ??0?$basic_string@DU?$char_traits@D@std@@V?$allocator@D@2@@std@@QAE@PBD@Z ; std::basic_string<char,std::char_traits<char>,std::allocator<char> >::basic_string<char,std::char_traits<char>,std::allocator<char> >
  003a0	55		 push	 ebp
  003a1	8b ce		 mov	 ecx, esi
  003a3	e8 00 00 00 00	 call	 ??0CTBLUserCount@@QAE@PAVCSqlDatabase@@V?$basic_string@DU?$char_traits@D@std@@V?$allocator@D@2@@std@@@Z ; CTBLUserCount::CTBLUserCount
  003a8	eb 02		 jmp	 SHORT $L111001
$L111000:
  003aa	33 c0		 xor	 eax, eax
$L111001:
  003ac	3b c3		 cmp	 eax, ebx
  003ae	89 7c 24 20	 mov	 DWORD PTR __$EHRec$[esp+44], edi
  003b2	0f 84 ce 00 00
	00		 je	 $L111261

; 17   : 	PREDEFINE_QUERY(CSPClearLoginUser)

  003b8	68 2c 0c 00 00	 push	 3116			; 00000c2cH
  003bd	e8 00 00 00 00	 call	 ??2@YAPAXI@Z		; operator new
  003c2	8b f0		 mov	 esi, eax
  003c4	83 c4 04	 add	 esp, 4
  003c7	89 74 24 14	 mov	 DWORD PTR $T111003[esp+36], esi
  003cb	3b f3		 cmp	 esi, ebx
  003cd	c7 44 24 20 0c
	00 00 00	 mov	 DWORD PTR __$EHRec$[esp+44], 12 ; 0000000cH
  003d5	74 1d		 je	 SHORT $L111005
  003d7	83 ec 1c	 sub	 esp, 28			; 0000001cH
  003da	8b cc		 mov	 ecx, esp
  003dc	89 64 24 2c	 mov	 DWORD PTR $T111004[esp+64], esp
  003e0	68 00 00 00 00	 push	 OFFSET FLAT:??_C@_0BC@EJDOGFFC@CSPClearLoginUser?$AA@
  003e5	e8 00 00 00 00	 call	 ??0?$basic_string@DU?$char_traits@D@std@@V?$allocator@D@2@@std@@QAE@PBD@Z ; std::basic_string<char,std::char_traits<char>,std::allocator<char> >::basic_string<char,std::char_traits<char>,std::allocator<char> >
  003ea	55		 push	 ebp
  003eb	8b ce		 mov	 ecx, esi
  003ed	e8 00 00 00 00	 call	 ??0CSPClearLoginUser@@QAE@PAVCSqlDatabase@@V?$basic_string@DU?$char_traits@D@std@@V?$allocator@D@2@@std@@@Z ; CSPClearLoginUser::CSPClearLoginUser
  003f2	eb 02		 jmp	 SHORT $L111006
$L111005:
  003f4	33 c0		 xor	 eax, eax
$L111006:
  003f6	3b c3		 cmp	 eax, ebx
  003f8	89 7c 24 20	 mov	 DWORD PTR __$EHRec$[esp+44], edi
  003fc	0f 84 84 00 00
	00		 je	 $L111261

; 18   : 	PREDEFINE_QUERY(CSPGetNation)

  00402	68 30 0c 00 00	 push	 3120			; 00000c30H
  00407	e8 00 00 00 00	 call	 ??2@YAPAXI@Z		; operator new
  0040c	8b f0		 mov	 esi, eax
  0040e	83 c4 04	 add	 esp, 4
  00411	89 74 24 14	 mov	 DWORD PTR $T111008[esp+36], esi
  00415	3b f3		 cmp	 esi, ebx
  00417	c7 44 24 20 0d
	00 00 00	 mov	 DWORD PTR __$EHRec$[esp+44], 13 ; 0000000dH
  0041f	74 1d		 je	 SHORT $L111010
  00421	83 ec 1c	 sub	 esp, 28			; 0000001cH
  00424	8b cc		 mov	 ecx, esp
  00426	89 64 24 2c	 mov	 DWORD PTR $T111009[esp+64], esp
  0042a	68 00 00 00 00	 push	 OFFSET FLAT:??_C@_0N@KEAKLAPB@CSPGetNation?$AA@
  0042f	e8 00 00 00 00	 call	 ??0?$basic_string@DU?$char_traits@D@std@@V?$allocator@D@2@@std@@QAE@PBD@Z ; std::basic_string<char,std::char_traits<char>,std::allocator<char> >::basic_string<char,std::char_traits<char>,std::allocator<char> >
  00434	55		 push	 ebp
  00435	8b ce		 mov	 ecx, esi
  00437	e8 00 00 00 00	 call	 ??0CSPGetNation@@QAE@PAVCSqlDatabase@@V?$basic_string@DU?$char_traits@D@std@@V?$allocator@D@2@@std@@@Z ; CSPGetNation::CSPGetNation
  0043c	eb 02		 jmp	 SHORT $L111011
$L111010:
  0043e	33 c0		 xor	 eax, eax
$L111011:
  00440	3b c3		 cmp	 eax, ebx
  00442	89 7c 24 20	 mov	 DWORD PTR __$EHRec$[esp+44], edi
  00446	74 3e		 je	 SHORT $L111261

; 19   : 	PREDEFINE_QUERY(CSPLoginJP)

  00448	68 18 0d 00 00	 push	 3352			; 00000d18H
  0044d	e8 00 00 00 00	 call	 ??2@YAPAXI@Z		; operator new
  00452	8b f0		 mov	 esi, eax
  00454	83 c4 04	 add	 esp, 4
  00457	89 74 24 14	 mov	 DWORD PTR $T111013[esp+36], esi
  0045b	3b f3		 cmp	 esi, ebx
  0045d	c7 44 24 20 0e
	00 00 00	 mov	 DWORD PTR __$EHRec$[esp+44], 14 ; 0000000eH
  00465	74 1f		 je	 SHORT $L111261
  00467	83 ec 1c	 sub	 esp, 28			; 0000001cH
  0046a	8b cc		 mov	 ecx, esp
  0046c	89 64 24 2c	 mov	 DWORD PTR $T111014[esp+64], esp
  00470	68 00 00 00 00	 push	 OFFSET FLAT:??_C@_0L@GFPDFJMC@CSPLoginJP?$AA@
  00475	e8 00 00 00 00	 call	 ??0?$basic_string@DU?$char_traits@D@std@@V?$allocator@D@2@@std@@QAE@PBD@Z ; std::basic_string<char,std::char_traits<char>,std::allocator<char> >::basic_string<char,std::char_traits<char>,std::allocator<char> >
  0047a	55		 push	 ebp
  0047b	8b ce		 mov	 ecx, esi
  0047d	e8 00 00 00 00	 call	 ??0CSPLoginJP@@QAE@PAVCSqlDatabase@@V?$basic_string@DU?$char_traits@D@std@@V?$allocator@D@2@@std@@@Z ; CSPLoginJP::CSPLoginJP
  00482	3b c3		 cmp	 eax, ebx
  00484	75 15		 jne	 SHORT $L105070
$L111261:
  00486	33 c0		 xor	 eax, eax

; 20   : END_INIT_QUERY()

  00488	8b 4c 24 18	 mov	 ecx, DWORD PTR __$EHRec$[esp+36]
  0048c	64 89 0d 00 00
	00 00		 mov	 DWORD PTR fs:__except_list, ecx
  00493	5f		 pop	 edi
  00494	5e		 pop	 esi
  00495	5d		 pop	 ebp
  00496	5b		 pop	 ebx
  00497	83 c4 14	 add	 esp, 20			; 00000014H
  0049a	c3		 ret	 0
$L105070:
  0049b	8b 4c 24 18	 mov	 ecx, DWORD PTR __$EHRec$[esp+36]
  0049f	5f		 pop	 edi
  004a0	5e		 pop	 esi
  004a1	5d		 pop	 ebp
  004a2	b8 01 00 00 00	 mov	 eax, 1
  004a7	64 89 0d 00 00
	00 00		 mov	 DWORD PTR fs:__except_list, ecx
  004ae	5b		 pop	 ebx
  004af	83 c4 14	 add	 esp, 20			; 00000014H
  004b2	c3		 ret	 0
_TEXT	ENDS
;	COMDAT text$x
text$x	SEGMENT
$L111017:
  00000	8b 45 ec	 mov	 eax, DWORD PTR $T110943[ebp]
  00003	50		 push	 eax
  00004	e8 00 00 00 00	 call	 ??3@YAXPAX@Z		; operator delete
  00009	59		 pop	 ecx
  0000a	c3		 ret	 0
$L111019:
  0000b	8b 45 f0	 mov	 eax, DWORD PTR $T110948[ebp]
  0000e	50		 push	 eax
  0000f	e8 00 00 00 00	 call	 ??3@YAXPAX@Z		; operator delete
  00014	59		 pop	 ecx
  00015	c3		 ret	 0
$L111021:
  00016	8b 45 f0	 mov	 eax, DWORD PTR $T110953[ebp]
  00019	50		 push	 eax
  0001a	e8 00 00 00 00	 call	 ??3@YAXPAX@Z		; operator delete
  0001f	59		 pop	 ecx
  00020	c3		 ret	 0
$L111023:
  00021	8b 45 f0	 mov	 eax, DWORD PTR $T110958[ebp]
  00024	50		 push	 eax
  00025	e8 00 00 00 00	 call	 ??3@YAXPAX@Z		; operator delete
  0002a	59		 pop	 ecx
  0002b	c3		 ret	 0
$L111025:
  0002c	8b 45 f0	 mov	 eax, DWORD PTR $T110963[ebp]
  0002f	50		 push	 eax
  00030	e8 00 00 00 00	 call	 ??3@YAXPAX@Z		; operator delete
  00035	59		 pop	 ecx
  00036	c3		 ret	 0
$L111027:
  00037	8b 45 f0	 mov	 eax, DWORD PTR $T110968[ebp]
  0003a	50		 push	 eax
  0003b	e8 00 00 00 00	 call	 ??3@YAXPAX@Z		; operator delete
  00040	59		 pop	 ecx
  00041	c3		 ret	 0
$L111029:
  00042	8b 45 f0	 mov	 eax, DWORD PTR $T110973[ebp]
  00045	50		 push	 eax
  00046	e8 00 00 00 00	 call	 ??3@YAXPAX@Z		; operator delete
  0004b	59		 pop	 ecx
  0004c	c3		 ret	 0
$L111031:
  0004d	8b 45 f0	 mov	 eax, DWORD PTR $T110978[ebp]
  00050	50		 push	 eax
  00051	e8 00 00 00 00	 call	 ??3@YAXPAX@Z		; operator delete
  00056	59		 pop	 ecx
  00057	c3		 ret	 0
$L111033:
  00058	8b 45 f0	 mov	 eax, DWORD PTR $T110983[ebp]
  0005b	50		 push	 eax
  0005c	e8 00 00 00 00	 call	 ??3@YAXPAX@Z		; operator delete
  00061	59		 pop	 ecx
  00062	c3		 ret	 0
$L111035:
  00063	8b 45 f0	 mov	 eax, DWORD PTR $T110988[ebp]
  00066	50		 push	 eax
  00067	e8 00 00 00 00	 call	 ??3@YAXPAX@Z		; operator delete
  0006c	59		 pop	 ecx
  0006d	c3		 ret	 0
$L111037:
  0006e	8b 45 f0	 mov	 eax, DWORD PTR $T110993[ebp]
  00071	50		 push	 eax
  00072	e8 00 00 00 00	 call	 ??3@YAXPAX@Z		; operator delete
  00077	59		 pop	 ecx
  00078	c3		 ret	 0
$L111039:
  00079	8b 45 f0	 mov	 eax, DWORD PTR $T110998[ebp]
  0007c	50		 push	 eax
  0007d	e8 00 00 00 00	 call	 ??3@YAXPAX@Z		; operator delete
  00082	59		 pop	 ecx
  00083	c3		 ret	 0
$L111041:
  00084	8b 45 f0	 mov	 eax, DWORD PTR $T111003[ebp]
  00087	50		 push	 eax
  00088	e8 00 00 00 00	 call	 ??3@YAXPAX@Z		; operator delete
  0008d	59		 pop	 ecx
  0008e	c3		 ret	 0
$L111043:
  0008f	8b 45 f0	 mov	 eax, DWORD PTR $T111008[ebp]
  00092	50		 push	 eax
  00093	e8 00 00 00 00	 call	 ??3@YAXPAX@Z		; operator delete
  00098	59		 pop	 ecx
  00099	c3		 ret	 0
$L111045:
  0009a	8b 45 f0	 mov	 eax, DWORD PTR $T111013[ebp]
  0009d	50		 push	 eax
  0009e	e8 00 00 00 00	 call	 ??3@YAXPAX@Z		; operator delete
  000a3	59		 pop	 ecx
  000a4	c3		 ret	 0
__ehhandler$?InitQueryTLoginSvr@@YAHPAVCSqlDatabase@@@Z:
  000a5	b8 00 00 00 00	 mov	 eax, OFFSET FLAT:$T111260
  000aa	e9 00 00 00 00	 jmp	 ___CxxFrameHandler
text$x	ENDS
?InitQueryTLoginSvr@@YAHPAVCSqlDatabase@@@Z ENDP	; InitQueryTLoginSvr
PUBLIC	?InitQueryTGameSvr@@YAHPAVCSqlDatabase@@@Z	; InitQueryTGameSvr
PUBLIC	??_C@_08DBFGMAPO@CTBLChar?$AA@			; `string'
PUBLIC	??_C@_08KLHKJGDK@CTBLItem?$AA@			; `string'
PUBLIC	??_C@_0BA@GEEJCOBC@CSPGetGuildInfo?$AA@		; `string'
PUBLIC	??_C@_0BA@NAMCOCHJ@CSPFindServerID?$AA@		; `string'
PUBLIC	??_C@_0O@NJMHDGOD@CSPCreateChar?$AA@		; `string'
PUBLIC	??_C@_0O@BNGHABFA@CSPDeleteChar?$AA@		; `string'
;	COMDAT xdata$x
; File c:\program files (x86)\microsoft visual studio .net 2003\vc7\include\iosfwd
xdata$x	SEGMENT
$T111527 DD	0ffffffffH
	DD	FLAT:$L111299
	DD	0ffffffffH
	DD	FLAT:$L111301
	DD	0ffffffffH
	DD	FLAT:$L111303
	DD	0ffffffffH
	DD	FLAT:$L111305
	DD	0ffffffffH
	DD	FLAT:$L111307
	DD	0ffffffffH
	DD	FLAT:$L111309
$T111524 DD	019930520H
	DD	06H
	DD	FLAT:$T111527
	DD	2 DUP(00H)
	DD	2 DUP(00H)
xdata$x	ENDS
;	COMDAT ??_C@_08DBFGMAPO@CTBLChar?$AA@
CONST	SEGMENT
??_C@_08DBFGMAPO@CTBLChar?$AA@ DB 'CTBLChar', 00H	; `string'
CONST	ENDS
;	COMDAT ??_C@_08KLHKJGDK@CTBLItem?$AA@
CONST	SEGMENT
??_C@_08KLHKJGDK@CTBLItem?$AA@ DB 'CTBLItem', 00H	; `string'
CONST	ENDS
;	COMDAT ??_C@_0BA@GEEJCOBC@CSPGetGuildInfo?$AA@
CONST	SEGMENT
??_C@_0BA@GEEJCOBC@CSPGetGuildInfo?$AA@ DB 'CSPGetGuildInfo', 00H ; `string'
CONST	ENDS
;	COMDAT ??_C@_0BA@NAMCOCHJ@CSPFindServerID?$AA@
CONST	SEGMENT
??_C@_0BA@NAMCOCHJ@CSPFindServerID?$AA@ DB 'CSPFindServerID', 00H ; `string'
CONST	ENDS
;	COMDAT ??_C@_0O@NJMHDGOD@CSPCreateChar?$AA@
CONST	SEGMENT
??_C@_0O@NJMHDGOD@CSPCreateChar?$AA@ DB 'CSPCreateChar', 00H ; `string'
CONST	ENDS
;	COMDAT ??_C@_0O@BNGHABFA@CSPDeleteChar?$AA@
CONST	SEGMENT
??_C@_0O@BNGHABFA@CSPDeleteChar?$AA@ DB 'CSPDeleteChar', 00H ; `string'
; Function compile flags: /Ogty
; File c:\users\pierr\desktop\4story - oldschool\sources\tserver\tloginsvr\dbaccess.cpp
CONST	ENDS
;	COMDAT ?InitQueryTGameSvr@@YAHPAVCSqlDatabase@@@Z
_TEXT	SEGMENT
$T111296 = -20						; size = 4
$T111291 = -20						; size = 4
$T111286 = -20						; size = 4
$T111281 = -20						; size = 4
$T111276 = -20						; size = 4
$T111270 = -20						; size = 4
$T111295 = -16						; size = 4
$T111290 = -16						; size = 4
$T111285 = -16						; size = 4
$T111280 = -16						; size = 4
$T111275 = -16						; size = 4
$T111271 = -16						; size = 4
__$EHRec$ = -12						; size = 12
_pdb$ = 8						; size = 4
?InitQueryTGameSvr@@YAHPAVCSqlDatabase@@@Z PROC NEAR	; InitQueryTGameSvr, COMDAT

; 22   : BEGIN_INIT_QUERY(TGameSvr)

  00000	6a ff		 push	 -1
  00002	68 00 00 00 00	 push	 __ehhandler$?InitQueryTGameSvr@@YAHPAVCSqlDatabase@@@Z
  00007	64 a1 00 00 00
	00		 mov	 eax, DWORD PTR fs:__except_list
  0000d	50		 push	 eax
  0000e	64 89 25 00 00
	00 00		 mov	 DWORD PTR fs:__except_list, esp
  00015	83 ec 08	 sub	 esp, 8
  00018	53		 push	 ebx
  00019	55		 push	 ebp
  0001a	56		 push	 esi
  0001b	57		 push	 edi

; 23   : 	PREDEFINE_QUERY(CTBLChar)

  0001c	68 7c 0c 00 00	 push	 3196			; 00000c7cH
  00021	e8 00 00 00 00	 call	 ??2@YAPAXI@Z		; operator new
  00026	8b f0		 mov	 esi, eax
  00028	83 c4 04	 add	 esp, 4
  0002b	89 74 24 10	 mov	 DWORD PTR $T111270[esp+36], esi
  0002f	8b 7c 24 28	 mov	 edi, DWORD PTR _pdb$[esp+32]
  00033	33 db		 xor	 ebx, ebx
  00035	3b f3		 cmp	 esi, ebx
  00037	89 5c 24 20	 mov	 DWORD PTR __$EHRec$[esp+44], ebx
  0003b	bd 0f 00 00 00	 mov	 ebp, 15			; 0000000fH
  00040	74 28		 je	 SHORT $L111272
  00042	83 ec 1c	 sub	 esp, 28			; 0000001cH
  00045	8b cc		 mov	 ecx, esp
  00047	89 64 24 30	 mov	 DWORD PTR $T111271[esp+64], esp
  0004b	6a 08		 push	 8
  0004d	89 69 18	 mov	 DWORD PTR [ecx+24], ebp
  00050	89 59 14	 mov	 DWORD PTR [ecx+20], ebx
  00053	68 00 00 00 00	 push	 OFFSET FLAT:??_C@_08DBFGMAPO@CTBLChar?$AA@
  00058	88 59 04	 mov	 BYTE PTR [ecx+4], bl
  0005b	e8 00 00 00 00	 call	 ?assign@?$basic_string@DU?$char_traits@D@std@@V?$allocator@D@2@@std@@QAEAAV12@PBDI@Z ; std::basic_string<char,std::char_traits<char>,std::allocator<char> >::assign
  00060	57		 push	 edi
  00061	8b ce		 mov	 ecx, esi
  00063	e8 00 00 00 00	 call	 ??0CTBLChar@@QAE@PAVCSqlDatabase@@V?$basic_string@DU?$char_traits@D@std@@V?$allocator@D@2@@std@@@Z ; CTBLChar::CTBLChar
  00068	eb 02		 jmp	 SHORT $L111273
$L111272:
  0006a	33 c0		 xor	 eax, eax
$L111273:
  0006c	3b c3		 cmp	 eax, ebx
  0006e	c7 44 24 20 ff
	ff ff ff	 mov	 DWORD PTR __$EHRec$[esp+44], -1
  00076	0f 84 70 01 00
	00		 je	 $L111525

; 24   : 	PREDEFINE_QUERY(CTBLItem)

  0007c	68 4c 0c 00 00	 push	 3148			; 00000c4cH
  00081	e8 00 00 00 00	 call	 ??2@YAPAXI@Z		; operator new
  00086	8b f0		 mov	 esi, eax
  00088	83 c4 04	 add	 esp, 4
  0008b	89 74 24 14	 mov	 DWORD PTR $T111275[esp+36], esi
  0008f	3b f3		 cmp	 esi, ebx
  00091	c7 44 24 20 01
	00 00 00	 mov	 DWORD PTR __$EHRec$[esp+44], 1
  00099	74 28		 je	 SHORT $L111277
  0009b	83 ec 1c	 sub	 esp, 28			; 0000001cH
  0009e	8b cc		 mov	 ecx, esp
  000a0	89 64 24 2c	 mov	 DWORD PTR $T111276[esp+64], esp
  000a4	6a 08		 push	 8
  000a6	89 69 18	 mov	 DWORD PTR [ecx+24], ebp
  000a9	89 59 14	 mov	 DWORD PTR [ecx+20], ebx
  000ac	68 00 00 00 00	 push	 OFFSET FLAT:??_C@_08KLHKJGDK@CTBLItem?$AA@
  000b1	88 59 04	 mov	 BYTE PTR [ecx+4], bl
  000b4	e8 00 00 00 00	 call	 ?assign@?$basic_string@DU?$char_traits@D@std@@V?$allocator@D@2@@std@@QAEAAV12@PBDI@Z ; std::basic_string<char,std::char_traits<char>,std::allocator<char> >::assign
  000b9	57		 push	 edi
  000ba	8b ce		 mov	 ecx, esi
  000bc	e8 00 00 00 00	 call	 ??0CTBLItem@@QAE@PAVCSqlDatabase@@V?$basic_string@DU?$char_traits@D@std@@V?$allocator@D@2@@std@@@Z ; CTBLItem::CTBLItem
  000c1	eb 02		 jmp	 SHORT $L111278
$L111277:
  000c3	33 c0		 xor	 eax, eax
$L111278:
  000c5	83 cd ff	 or	 ebp, -1
  000c8	3b c3		 cmp	 eax, ebx
  000ca	89 6c 24 20	 mov	 DWORD PTR __$EHRec$[esp+44], ebp
  000ce	0f 84 18 01 00
	00		 je	 $L111525

; 25   : 
; 26   : 	PREDEFINE_QUERY(CSPGetGuildInfo)

  000d4	68 6c 0c 00 00	 push	 3180			; 00000c6cH
  000d9	e8 00 00 00 00	 call	 ??2@YAPAXI@Z		; operator new
  000de	8b f0		 mov	 esi, eax
  000e0	83 c4 04	 add	 esp, 4
  000e3	89 74 24 14	 mov	 DWORD PTR $T111280[esp+36], esi
  000e7	3b f3		 cmp	 esi, ebx
  000e9	c7 44 24 20 02
	00 00 00	 mov	 DWORD PTR __$EHRec$[esp+44], 2
  000f1	74 1d		 je	 SHORT $L111282
  000f3	83 ec 1c	 sub	 esp, 28			; 0000001cH
  000f6	8b cc		 mov	 ecx, esp
  000f8	89 64 24 2c	 mov	 DWORD PTR $T111281[esp+64], esp
  000fc	68 00 00 00 00	 push	 OFFSET FLAT:??_C@_0BA@GEEJCOBC@CSPGetGuildInfo?$AA@
  00101	e8 00 00 00 00	 call	 ??0?$basic_string@DU?$char_traits@D@std@@V?$allocator@D@2@@std@@QAE@PBD@Z ; std::basic_string<char,std::char_traits<char>,std::allocator<char> >::basic_string<char,std::char_traits<char>,std::allocator<char> >
  00106	57		 push	 edi
  00107	8b ce		 mov	 ecx, esi
  00109	e8 00 00 00 00	 call	 ??0CSPGetGuildInfo@@QAE@PAVCSqlDatabase@@V?$basic_string@DU?$char_traits@D@std@@V?$allocator@D@2@@std@@@Z ; CSPGetGuildInfo::CSPGetGuildInfo
  0010e	eb 02		 jmp	 SHORT $L111283
$L111282:
  00110	33 c0		 xor	 eax, eax
$L111283:
  00112	3b c3		 cmp	 eax, ebx
  00114	89 6c 24 20	 mov	 DWORD PTR __$EHRec$[esp+44], ebp
  00118	0f 84 ce 00 00
	00		 je	 $L111525

; 27   : 	PREDEFINE_QUERY(CSPFindServerID)

  0011e	68 38 0c 00 00	 push	 3128			; 00000c38H
  00123	e8 00 00 00 00	 call	 ??2@YAPAXI@Z		; operator new
  00128	8b f0		 mov	 esi, eax
  0012a	83 c4 04	 add	 esp, 4
  0012d	89 74 24 14	 mov	 DWORD PTR $T111285[esp+36], esi
  00131	3b f3		 cmp	 esi, ebx
  00133	c7 44 24 20 03
	00 00 00	 mov	 DWORD PTR __$EHRec$[esp+44], 3
  0013b	74 1d		 je	 SHORT $L111287
  0013d	83 ec 1c	 sub	 esp, 28			; 0000001cH
  00140	8b cc		 mov	 ecx, esp
  00142	89 64 24 2c	 mov	 DWORD PTR $T111286[esp+64], esp
  00146	68 00 00 00 00	 push	 OFFSET FLAT:??_C@_0BA@NAMCOCHJ@CSPFindServerID?$AA@
  0014b	e8 00 00 00 00	 call	 ??0?$basic_string@DU?$char_traits@D@std@@V?$allocator@D@2@@std@@QAE@PBD@Z ; std::basic_string<char,std::char_traits<char>,std::allocator<char> >::basic_string<char,std::char_traits<char>,std::allocator<char> >
  00150	57		 push	 edi
  00151	8b ce		 mov	 ecx, esi
  00153	e8 00 00 00 00	 call	 ??0CSPFindServerID@@QAE@PAVCSqlDatabase@@V?$basic_string@DU?$char_traits@D@std@@V?$allocator@D@2@@std@@@Z ; CSPFindServerID::CSPFindServerID
  00158	eb 02		 jmp	 SHORT $L111288
$L111287:
  0015a	33 c0		 xor	 eax, eax
$L111288:
  0015c	3b c3		 cmp	 eax, ebx
  0015e	89 6c 24 20	 mov	 DWORD PTR __$EHRec$[esp+44], ebp
  00162	0f 84 84 00 00
	00		 je	 $L111525

; 28   : 	PREDEFINE_QUERY(CSPCreateChar)

  00168	68 7c 0c 00 00	 push	 3196			; 00000c7cH
  0016d	e8 00 00 00 00	 call	 ??2@YAPAXI@Z		; operator new
  00172	8b f0		 mov	 esi, eax
  00174	83 c4 04	 add	 esp, 4
  00177	89 74 24 14	 mov	 DWORD PTR $T111290[esp+36], esi
  0017b	3b f3		 cmp	 esi, ebx
  0017d	c7 44 24 20 04
	00 00 00	 mov	 DWORD PTR __$EHRec$[esp+44], 4
  00185	74 1d		 je	 SHORT $L111292
  00187	83 ec 1c	 sub	 esp, 28			; 0000001cH
  0018a	8b cc		 mov	 ecx, esp
  0018c	89 64 24 2c	 mov	 DWORD PTR $T111291[esp+64], esp
  00190	68 00 00 00 00	 push	 OFFSET FLAT:??_C@_0O@NJMHDGOD@CSPCreateChar?$AA@
  00195	e8 00 00 00 00	 call	 ??0?$basic_string@DU?$char_traits@D@std@@V?$allocator@D@2@@std@@QAE@PBD@Z ; std::basic_string<char,std::char_traits<char>,std::allocator<char> >::basic_string<char,std::char_traits<char>,std::allocator<char> >
  0019a	57		 push	 edi
  0019b	8b ce		 mov	 ecx, esi
  0019d	e8 00 00 00 00	 call	 ??0CSPCreateChar@@QAE@PAVCSqlDatabase@@V?$basic_string@DU?$char_traits@D@std@@V?$allocator@D@2@@std@@@Z ; CSPCreateChar::CSPCreateChar
  001a2	eb 02		 jmp	 SHORT $L111293
$L111292:
  001a4	33 c0		 xor	 eax, eax
$L111293:
  001a6	3b c3		 cmp	 eax, ebx
  001a8	89 6c 24 20	 mov	 DWORD PTR __$EHRec$[esp+44], ebp
  001ac	74 3e		 je	 SHORT $L111525

; 29   : 	PREDEFINE_QUERY(CSPDeleteChar)

  001ae	68 40 0c 00 00	 push	 3136			; 00000c40H
  001b3	e8 00 00 00 00	 call	 ??2@YAPAXI@Z		; operator new
  001b8	8b f0		 mov	 esi, eax
  001ba	83 c4 04	 add	 esp, 4
  001bd	89 74 24 14	 mov	 DWORD PTR $T111295[esp+36], esi
  001c1	3b f3		 cmp	 esi, ebx
  001c3	c7 44 24 20 05
	00 00 00	 mov	 DWORD PTR __$EHRec$[esp+44], 5
  001cb	74 1f		 je	 SHORT $L111525
  001cd	83 ec 1c	 sub	 esp, 28			; 0000001cH
  001d0	8b cc		 mov	 ecx, esp
  001d2	89 64 24 2c	 mov	 DWORD PTR $T111296[esp+64], esp
  001d6	68 00 00 00 00	 push	 OFFSET FLAT:??_C@_0O@BNGHABFA@CSPDeleteChar?$AA@
  001db	e8 00 00 00 00	 call	 ??0?$basic_string@DU?$char_traits@D@std@@V?$allocator@D@2@@std@@QAE@PBD@Z ; std::basic_string<char,std::char_traits<char>,std::allocator<char> >::basic_string<char,std::char_traits<char>,std::allocator<char> >
  001e0	57		 push	 edi
  001e1	8b ce		 mov	 ecx, esi
  001e3	e8 00 00 00 00	 call	 ??0CSPDeleteChar@@QAE@PAVCSqlDatabase@@V?$basic_string@DU?$char_traits@D@std@@V?$allocator@D@2@@std@@@Z ; CSPDeleteChar::CSPDeleteChar
  001e8	3b c3		 cmp	 eax, ebx
  001ea	75 15		 jne	 SHORT $L105122
$L111525:
  001ec	33 c0		 xor	 eax, eax

; 30   : END_INIT_QUERY()

  001ee	8b 4c 24 18	 mov	 ecx, DWORD PTR __$EHRec$[esp+36]
  001f2	64 89 0d 00 00
	00 00		 mov	 DWORD PTR fs:__except_list, ecx
  001f9	5f		 pop	 edi
  001fa	5e		 pop	 esi
  001fb	5d		 pop	 ebp
  001fc	5b		 pop	 ebx
  001fd	83 c4 14	 add	 esp, 20			; 00000014H
  00200	c3		 ret	 0
$L105122:
  00201	8b 4c 24 18	 mov	 ecx, DWORD PTR __$EHRec$[esp+36]
  00205	5f		 pop	 edi
  00206	5e		 pop	 esi
  00207	5d		 pop	 ebp
  00208	b8 01 00 00 00	 mov	 eax, 1
  0020d	64 89 0d 00 00
	00 00		 mov	 DWORD PTR fs:__except_list, ecx
  00214	5b		 pop	 ebx
  00215	83 c4 14	 add	 esp, 20			; 00000014H
  00218	c3		 ret	 0
_TEXT	ENDS
;	COMDAT text$x
text$x	SEGMENT
$L111299:
  00000	8b 45 ec	 mov	 eax, DWORD PTR $T111270[ebp]
  00003	50		 push	 eax
  00004	e8 00 00 00 00	 call	 ??3@YAXPAX@Z		; operator delete
  00009	59		 pop	 ecx
  0000a	c3		 ret	 0
$L111301:
  0000b	8b 45 f0	 mov	 eax, DWORD PTR $T111275[ebp]
  0000e	50		 push	 eax
  0000f	e8 00 00 00 00	 call	 ??3@YAXPAX@Z		; operator delete
  00014	59		 pop	 ecx
  00015	c3		 ret	 0
$L111303:
  00016	8b 45 f0	 mov	 eax, DWORD PTR $T111280[ebp]
  00019	50		 push	 eax
  0001a	e8 00 00 00 00	 call	 ??3@YAXPAX@Z		; operator delete
  0001f	59		 pop	 ecx
  00020	c3		 ret	 0
$L111305:
  00021	8b 45 f0	 mov	 eax, DWORD PTR $T111285[ebp]
  00024	50		 push	 eax
  00025	e8 00 00 00 00	 call	 ??3@YAXPAX@Z		; operator delete
  0002a	59		 pop	 ecx
  0002b	c3		 ret	 0
$L111307:
  0002c	8b 45 f0	 mov	 eax, DWORD PTR $T111290[ebp]
  0002f	50		 push	 eax
  00030	e8 00 00 00 00	 call	 ??3@YAXPAX@Z		; operator delete
  00035	59		 pop	 ecx
  00036	c3		 ret	 0
$L111309:
  00037	8b 45 f0	 mov	 eax, DWORD PTR $T111295[ebp]
  0003a	50		 push	 eax
  0003b	e8 00 00 00 00	 call	 ??3@YAXPAX@Z		; operator delete
  00040	59		 pop	 ecx
  00041	c3		 ret	 0
__ehhandler$?InitQueryTGameSvr@@YAHPAVCSqlDatabase@@@Z:
  00042	b8 00 00 00 00	 mov	 eax, OFFSET FLAT:$T111524
  00047	e9 00 00 00 00	 jmp	 ___CxxFrameHandler
text$x	ENDS
?InitQueryTGameSvr@@YAHPAVCSqlDatabase@@@Z ENDP		; InitQueryTGameSvr
END
