; Listing generated by Microsoft (R) Optimizing Compiler Version 13.10.3077 

	TITLE	.\SSSender.cpp
	.386P
include listing.inc
if @Version gt 510
.model FLAT
else
_TEXT	SEGMENT PARA USE32 PUBLIC 'CODE'
_TEXT	ENDS
_DATA	SEGMENT DWORD USE32 PUBLIC 'DATA'
_DATA	ENDS
CONST	SEGMENT DWORD USE32 PUBLIC 'CONST'
CONST	ENDS
_BSS	SEGMENT DWORD USE32 PUBLIC 'BSS'
_BSS	ENDS
$$SYMBOLS	SEGMENT BYTE USE32 'DEBSYM'
$$SYMBOLS	ENDS
$$TYPES	SEGMENT BYTE USE32 'DEBTYP'
$$TYPES	ENDS
_TLS	SEGMENT DWORD USE32 PUBLIC 'TLS'
_TLS	ENDS
;	COMDAT ??_C@_0BM@NMJKDPPO@invalid?5vector?$DMT?$DO?5subscript?$AA@
CONST	SEGMENT DWORD USE32 PUBLIC 'CONST'
CONST	ENDS
text$yc	SEGMENT PARA USE32 PUBLIC 'CODE'
text$yc	ENDS
CRT$XCA	SEGMENT DWORD USE32 PUBLIC 'DATA'
CRT$XCA	ENDS
CRT$XCU	SEGMENT DWORD USE32 PUBLIC 'DATA'
CRT$XCU	ENDS
CRT$XCL	SEGMENT DWORD USE32 PUBLIC 'DATA'
CRT$XCL	ENDS
CRT$XCC	SEGMENT DWORD USE32 PUBLIC 'DATA'
CRT$XCC	ENDS
CRT$XCZ	SEGMENT DWORD USE32 PUBLIC 'DATA'
CRT$XCZ	ENDS
text$yd	SEGMENT PARA USE32 PUBLIC 'CODE'
text$yd	ENDS
ATL$__m	SEGMENT DWORD USE32 PUBLIC ''
ATL$__m	ENDS
ATL$__z	SEGMENT DWORD USE32 PUBLIC ''
ATL$__z	ENDS
ATL$__a	SEGMENT DWORD USE32 PUBLIC ''
ATL$__a	ENDS
xdata$x	SEGMENT DWORD USE32 PUBLIC 'CONST'
xdata$x	ENDS
;	COMDAT ?RelayCorpsMsg@CTServer@@QAEXKKPAVCPacket@@G@Z
_TEXT	SEGMENT PARA USE32 PUBLIC 'CODE'
_TEXT	ENDS
;	COMDAT ?SendCT_SERVICEMONITOR_REQ@CTServer@@QAEXKKKK@Z
_TEXT	SEGMENT PARA USE32 PUBLIC 'CODE'
_TEXT	ENDS
;	COMDAT ?SendCT_USERMOVE_ACK@CTServer@@QAEXKKEGMMMG@Z
_TEXT	SEGMENT PARA USE32 PUBLIC 'CODE'
_TEXT	ENDS
;	COMDAT ?SendCT_CASHITEMSALE_ACK@CTServer@@QAEXKG@Z
_TEXT	SEGMENT PARA USE32 PUBLIC 'CODE'
_TEXT	ENDS
;	COMDAT ?SendCT_RPSGAMEDATA_ACK@CTServer@@QAEXEEPAV?$map@GUtagTRPSGAME@@U?$less@G@std@@V?$allocator@U?$pair@$$CBGUtagTRPSGAME@@@std@@@3@@std@@@Z
_TEXT	SEGMENT PARA USE32 PUBLIC 'CODE'
_TEXT	ENDS
;	COMDAT ??0tagTRPSGAME@@QAE@ABU0@@Z
_TEXT	SEGMENT PARA USE32 PUBLIC 'CODE'
_TEXT	ENDS
;	COMDAT ??1tagTRPSGAME@@QAE@XZ
_TEXT	SEGMENT PARA USE32 PUBLIC 'CODE'
_TEXT	ENDS
;	COMDAT ?SendMW_HELPMESSAGE_REQ@CTServer@@QAEXE_J0V?$CStringT@DV?$StrTraitATL@DV?$ChTraitsCRT@D@ATL@@@ATL@@@ATL@@@Z
_TEXT	SEGMENT PARA USE32 PUBLIC 'CODE'
_TEXT	ENDS
;	COMDAT ?SendMW_USERPOSITION_REQ@CTServer@@QAEXKKV?$CStringT@DV?$StrTraitATL@DV?$ChTraitsCRT@D@ATL@@@ATL@@@ATL@@@Z
_TEXT	SEGMENT PARA USE32 PUBLIC 'CODE'
_TEXT	ENDS
;	COMDAT ?SendMW_ENTERSVR_REQ@CTServer@@QAEXEKK@Z
_TEXT	SEGMENT PARA USE32 PUBLIC 'CODE'
_TEXT	ENDS
;	COMDAT ?SendMW_ENTERSVR_REQ@CTServer@@QAEXPAUtagPACKETBUF@@@Z
_TEXT	SEGMENT PARA USE32 PUBLIC 'CODE'
_TEXT	ENDS
;	COMDAT ?SendMW_RELEASEMAIN_REQ@CTServer@@QAEXKKEGMMM@Z
_TEXT	SEGMENT PARA USE32 PUBLIC 'CODE'
_TEXT	ENDS
;	COMDAT ?SendMW_MAPSVRLIST_REQ@CTServer@@QAEXKKEGMMM@Z
_TEXT	SEGMENT PARA USE32 PUBLIC 'CODE'
_TEXT	ENDS
;	COMDAT ?SendMW_INVALIDCHAR_REQ@CTServer@@QAEXKKE@Z
_TEXT	SEGMENT PARA USE32 PUBLIC 'CODE'
_TEXT	ENDS
;	COMDAT ?SendMW_CHARDATA_REQ@CTServer@@QAEXKK@Z
_TEXT	SEGMENT PARA USE32 PUBLIC 'CODE'
_TEXT	ENDS
;	COMDAT ?SendMW_ENTERCHAR_REQ@CTServer@@QAEXKKEV?$CStringT@DV?$StrTraitATL@DV?$ChTraitsCRT@D@ATL@@@ATL@@@ATL@@GMMMKKK0EEGEK0GEKGEEEEEK_JKK0EPAVCPacket@@@Z
_TEXT	SEGMENT PARA USE32 PUBLIC 'CODE'
_TEXT	ENDS
;	COMDAT ?SendMW_CONRESULT_REQ@CTServer@@QAEXKKEV?$map@EPAUtagTCHARCON@@U?$less@E@std@@V?$allocator@U?$pair@$$CBEPAUtagTCHARCON@@@std@@@3@@std@@@Z
_TEXT	SEGMENT PARA USE32 PUBLIC 'CODE'
_TEXT	ENDS
;	COMDAT ?SendMW_CLOSECHAR_REQ@CTServer@@QAEXKK@Z
_TEXT	SEGMENT PARA USE32 PUBLIC 'CODE'
_TEXT	ENDS
;	COMDAT ?SendMW_CHECKMAIN_REQ@CTServer@@QAEXKKEGMMM@Z
_TEXT	SEGMENT PARA USE32 PUBLIC 'CODE'
_TEXT	ENDS
;	COMDAT ?SendMW_DELCHAR_REQ@CTServer@@QAEXKKEE@Z
_TEXT	SEGMENT PARA USE32 PUBLIC 'CODE'
_TEXT	ENDS
;	COMDAT ?SendMW_CHARINFO_REQ@CTServer@@QAEXKKPAVCTGuild@@0PAVCTParty@@EEGE@Z
_TEXT	SEGMENT PARA USE32 PUBLIC 'CODE'
_TEXT	ENDS
;	COMDAT ?SendMW_CONLIST_REQ@CTServer@@QAEXKKEGMMM@Z
_TEXT	SEGMENT PARA USE32 PUBLIC 'CODE'
_TEXT	ENDS
;	COMDAT ?SendMW_TELEPORT_REQ@CTServer@@QAEXKKEGMMME@Z
_TEXT	SEGMENT PARA USE32 PUBLIC 'CODE'
_TEXT	ENDS
;	COMDAT ?SendMW_ROUTE_REQ@CTServer@@QAEXKKEGMMM@Z
_TEXT	SEGMENT PARA USE32 PUBLIC 'CODE'
_TEXT	ENDS
;	COMDAT ?SendMW_ENTERSOLOMAP_REQ@CTServer@@QAEXKKGEK@Z
_TEXT	SEGMENT PARA USE32 PUBLIC 'CODE'
_TEXT	ENDS
;	COMDAT ?SendMW_CHGPARTYTYPE_REQ@CTServer@@QAEXKKEE@Z
_TEXT	SEGMENT PARA USE32 PUBLIC 'CODE'
_TEXT	ENDS
;	COMDAT ?SendMW_PARTYADD_REQ@CTServer@@QAEXKKV?$CStringT@DV?$StrTraitATL@DV?$ChTraitsCRT@D@ATL@@@ATL@@@ATL@@0EEK@Z
_TEXT	SEGMENT PARA USE32 PUBLIC 'CODE'
_TEXT	ENDS
;	COMDAT ?SendMW_PARTYJOIN_REQ@CTServer@@QAEXKKGKGPAUtagTCHARACTER@@E@Z
_TEXT	SEGMENT PARA USE32 PUBLIC 'CODE'
_TEXT	ENDS
;	COMDAT ?SendMW_PARTYDEL_REQ@CTServer@@QAEXKKKKGGE@Z
_TEXT	SEGMENT PARA USE32 PUBLIC 'CODE'
_TEXT	ENDS
;	COMDAT ?SendMW_PARTYMANSTAT_REQ@CTServer@@QAEXKKKEEKKKK@Z
_TEXT	SEGMENT PARA USE32 PUBLIC 'CODE'
_TEXT	ENDS
;	COMDAT ?SendMW_LEVELUP_REQ@CTServer@@QAEXKKE@Z
_TEXT	SEGMENT PARA USE32 PUBLIC 'CODE'
_TEXT	ENDS
;	COMDAT ?SendMW_EVENTMSGLOTTERY_REQ@CTServer@@QAEXV?$CStringT@DV?$StrTraitATL@DV?$ChTraitsCRT@D@ATL@@@ATL@@@ATL@@AAV?$vector@ULOTPACKET@@V?$allocator@ULOTPACKET@@@std@@@std@@@Z
_TEXT	SEGMENT PARA USE32 PUBLIC 'CODE'
_TEXT	ENDS
;	COMDAT ?SendMW_GUILDESTABLISH_REQ@CTServer@@QAEXKKEKV?$CStringT@DV?$StrTraitATL@DV?$ChTraitsCRT@D@ATL@@@ATL@@@ATL@@E@Z
_TEXT	SEGMENT PARA USE32 PUBLIC 'CODE'
_TEXT	ENDS
;	COMDAT ?SendMW_GUILDDISORGANIZATION_REQ@CTServer@@QAEXKKE@Z
_TEXT	SEGMENT PARA USE32 PUBLIC 'CODE'
_TEXT	ENDS
;	COMDAT ?SendMW_GUILDINVITE_REQ@CTServer@@QAEXKKV?$CStringT@DV?$StrTraitATL@DV?$ChTraitsCRT@D@ATL@@@ATL@@@ATL@@K0@Z
_TEXT	SEGMENT PARA USE32 PUBLIC 'CODE'
_TEXT	ENDS
;	COMDAT ?SendMW_GUILDJOIN_REQ@CTServer@@QAEXKKEKKKV?$CStringT@DV?$StrTraitATL@DV?$ChTraitsCRT@D@ATL@@@ATL@@@ATL@@K0E@Z
_TEXT	SEGMENT PARA USE32 PUBLIC 'CODE'
_TEXT	ENDS
;	COMDAT ?SendMW_GUILDLEAVE_REQ@CTServer@@QAEXKKV?$CStringT@DV?$StrTraitATL@DV?$ChTraitsCRT@D@ATL@@@ATL@@@ATL@@EK@Z
_TEXT	SEGMENT PARA USE32 PUBLIC 'CODE'
_TEXT	ENDS
;	COMDAT ?SendMW_GUILDDUTY_REQ@CTServer@@QAEXKKV?$CStringT@DV?$StrTraitATL@DV?$ChTraitsCRT@D@ATL@@@ATL@@@ATL@@E@Z
_TEXT	SEGMENT PARA USE32 PUBLIC 'CODE'
_TEXT	ENDS
;	COMDAT ?SendMW_GUILDPEER_REQ@CTServer@@QAEXKKEV?$CStringT@DV?$StrTraitATL@DV?$ChTraitsCRT@D@ATL@@@ATL@@@ATL@@EE@Z
_TEXT	SEGMENT PARA USE32 PUBLIC 'CODE'
_TEXT	ENDS
;	COMDAT ?SendMW_GUILDMEMBERLIST_REQ@CTServer@@QAEXKKEPAVCTGuild@@@Z
_TEXT	SEGMENT PARA USE32 PUBLIC 'CODE'
_TEXT	ENDS
;	COMDAT ?SendMW_GUILDINFO_REQ@CTServer@@QAEXKKEPAUtagTGUILDMEMBER@@PAVCTGuild@@EE@Z
_TEXT	SEGMENT PARA USE32 PUBLIC 'CODE'
_TEXT	ENDS
;	COMDAT ?SendMW_GUILDCABINETLIST_REQ@CTServer@@QAEXKKPAVCTGuild@@@Z
_TEXT	SEGMENT PARA USE32 PUBLIC 'CODE'
_TEXT	ENDS
;	COMDAT ?SendMW_GUILDCONTRIBUTION_REQ@CTServer@@QAEXKKEKKKKK@Z
_TEXT	SEGMENT PARA USE32 PUBLIC 'CODE'
_TEXT	ENDS
;	COMDAT ?SendMW_GUILDARTICLELIST_REQ@CTServer@@QAEXKKPAVCTGuild@@@Z
_TEXT	SEGMENT PARA USE32 PUBLIC 'CODE'
_TEXT	ENDS
;	COMDAT ?SendMW_GUILDARTICLEADD_REQ@CTServer@@QAEXKKE@Z
_TEXT	SEGMENT PARA USE32 PUBLIC 'CODE'
_TEXT	ENDS
;	COMDAT ?SendMW_GUILDARTICLEDEL_REQ@CTServer@@QAEXKKE@Z
_TEXT	SEGMENT PARA USE32 PUBLIC 'CODE'
_TEXT	ENDS
;	COMDAT ?SendMW_GUILDARTICLEUPDATE_REQ@CTServer@@QAEXKKE@Z
_TEXT	SEGMENT PARA USE32 PUBLIC 'CODE'
_TEXT	ENDS
;	COMDAT ?SendMW_GUILDFAME_REQ@CTServer@@QAEXKKEKKK@Z
_TEXT	SEGMENT PARA USE32 PUBLIC 'CODE'
_TEXT	ENDS
;	COMDAT ?SendMW_GUILDWANTEDADD_REQ@CTServer@@QAEXKKE@Z
_TEXT	SEGMENT PARA USE32 PUBLIC 'CODE'
_TEXT	ENDS
;	COMDAT ?SendMW_GUILDWANTEDDEL_REQ@CTServer@@QAEXKKE@Z
_TEXT	SEGMENT PARA USE32 PUBLIC 'CODE'
_TEXT	ENDS
;	COMDAT ?SendMW_GUILDWANTEDLIST_REQ@CTServer@@QAEXKKEPAUtagTGUILDWANTEDAPP@@PAV?$map@KUtagTGUILDWANTED@@U?$less@K@std@@V?$allocator@U?$pair@$$CBKUtagTGUILDWANTED@@@std@@@3@@std@@@Z
_TEXT	SEGMENT PARA USE32 PUBLIC 'CODE'
_TEXT	ENDS
;	COMDAT ?SendMW_GUILDVOLUNTEERING_REQ@CTServer@@QAEXKKE@Z
_TEXT	SEGMENT PARA USE32 PUBLIC 'CODE'
_TEXT	ENDS
;	COMDAT ?SendMW_GUILDVOLUNTEERINGDEL_REQ@CTServer@@QAEXKKE@Z
_TEXT	SEGMENT PARA USE32 PUBLIC 'CODE'
_TEXT	ENDS
;	COMDAT ?SendMW_GUILDVOLUNTEERLIST_REQ@CTServer@@QAEXKKPAV?$map@KPAUtagTGUILDWANTEDAPP@@U?$less@K@std@@V?$allocator@U?$pair@$$CBKPAUtagTGUILDWANTEDAPP@@@std@@@3@@std@@@Z
_TEXT	SEGMENT PARA USE32 PUBLIC 'CODE'
_TEXT	ENDS
;	COMDAT ?SendMW_GUILDVOLUNTEERREPLY_REQ@CTServer@@QAEXKKE@Z
_TEXT	SEGMENT PARA USE32 PUBLIC 'CODE'
_TEXT	ENDS
;	COMDAT ?SendMW_GUILDTACTICSWANTEDADD_REQ@CTServer@@QAEXKKE@Z
_TEXT	SEGMENT PARA USE32 PUBLIC 'CODE'
_TEXT	ENDS
;	COMDAT ?SendMW_GUILDTACTICSWANTEDDEL_REQ@CTServer@@QAEXKKE@Z
_TEXT	SEGMENT PARA USE32 PUBLIC 'CODE'
_TEXT	ENDS
;	COMDAT ?SendMW_GUILDTACTICSWANTEDLIST_REQ@CTServer@@QAEXKKEPAUtagTGUILDTACTICSWANTEDAPP@@PAV?$map@KV?$vector@UtagTGUILDTACTICSWANTED@@V?$allocator@UtagTGUILDTACTICSWANTED@@@std@@@std@@U?$less@K@2@V?$allocator@U?$pair@$$CBKV?$vector@UtagTGUILDTACTICSWANTED@@V?$allocator@UtagTGUILDTACTICSWANTED@@@std@@@std@@@std@@@2@@std@@@Z
_TEXT	SEGMENT PARA USE32 PUBLIC 'CODE'
_TEXT	ENDS
;	COMDAT ?SendMW_GUILDTACTICSVOLUNTEERING_REQ@CTServer@@QAEXKKE@Z
_TEXT	SEGMENT PARA USE32 PUBLIC 'CODE'
_TEXT	ENDS
;	COMDAT ?SendMW_GUILDTACTICSVOLUNTEERINGDEL_REQ@CTServer@@QAEXKKE@Z
_TEXT	SEGMENT PARA USE32 PUBLIC 'CODE'
_TEXT	ENDS
;	COMDAT ?SendMW_GUILDTACTICSVOLUNTEERLIST_REQ@CTServer@@QAEXKKPAV?$map@KPAUtagTGUILDTACTICSWANTEDAPP@@U?$less@K@std@@V?$allocator@U?$pair@$$CBKPAUtagTGUILDTACTICSWANTEDAPP@@@std@@@3@@std@@@Z
_TEXT	SEGMENT PARA USE32 PUBLIC 'CODE'
_TEXT	ENDS
;	COMDAT ?SendMW_GUILDTACTICSREPLY_REQ@CTServer@@QAEXKKEKKV?$CStringT@DV?$StrTraitATL@DV?$ChTraitsCRT@D@ATL@@@ATL@@@ATL@@0KKK@Z
_TEXT	SEGMENT PARA USE32 PUBLIC 'CODE'
_TEXT	ENDS
;	COMDAT ?SendMW_GUILDTACTICSKICKOUT_REQ@CTServer@@QAEXKKEKE@Z
_TEXT	SEGMENT PARA USE32 PUBLIC 'CODE'
_TEXT	ENDS
;	COMDAT ?SendMW_GUILDTACTICSINVITE_REQ@CTServer@@QAEXKKV?$CStringT@DV?$StrTraitATL@DV?$ChTraitsCRT@D@ATL@@@ATL@@@ATL@@0EKKKK@Z
_TEXT	SEGMENT PARA USE32 PUBLIC 'CODE'
_TEXT	ENDS
;	COMDAT ?SendMW_GUILDTACTICSANSWER_REQ@CTServer@@QAEXKKEKV?$CStringT@DV?$StrTraitATL@DV?$ChTraitsCRT@D@ATL@@@ATL@@@ATL@@K0KKK@Z
_TEXT	SEGMENT PARA USE32 PUBLIC 'CODE'
_TEXT	ENDS
;	COMDAT ?SendMW_GUILDTACTICSLIST_REQ@CTServer@@QAEXKKPAVCTGuild@@@Z
_TEXT	SEGMENT PARA USE32 PUBLIC 'CODE'
_TEXT	ENDS
;	COMDAT ?SendMW_CHAT_REQ@CTServer@@QAEXKKEKV?$CStringT@DV?$StrTraitATL@DV?$ChTraitsCRT@D@ATL@@@ATL@@@ATL@@EEEEK0@Z
_TEXT	SEGMENT PARA USE32 PUBLIC 'CODE'
_TEXT	ENDS
;	COMDAT ?SendMW_TAKEMONMONEY_REQ@CTServer@@QAEXPAUtagPACKETBUF@@@Z
_TEXT	SEGMENT PARA USE32 PUBLIC 'CODE'
_TEXT	ENDS
;	COMDAT ?SendMW_MONSTERDIE_REQ@CTServer@@QAEXPAUtagPACKETBUF@@@Z
_TEXT	SEGMENT PARA USE32 PUBLIC 'CODE'
_TEXT	ENDS
;	COMDAT ?SendMW_ADDITEM_REQ@CTServer@@QAEXPAVCPacket@@@Z
_TEXT	SEGMENT PARA USE32 PUBLIC 'CODE'
_TEXT	ENDS
;	COMDAT ?SendMW_PARTYORDERTAKEITEM_REQ@CTServer@@QAEXKKEEGKGPAUtagTITEM@@@Z
_TEXT	SEGMENT PARA USE32 PUBLIC 'CODE'
_TEXT	ENDS
;	COMDAT ?SendMW_FRIENDLIST_REQ@CTServer@@QAEXPAUtagTCHARACTER@@@Z
_TEXT	SEGMENT PARA USE32 PUBLIC 'CODE'
_TEXT	ENDS
;	COMDAT ?SendMW_FRIENDADD_REQ@CTServer@@QAEXKKEKV?$CStringT@DV?$StrTraitATL@DV?$ChTraitsCRT@D@ATL@@@ATL@@@ATL@@EEEK@Z
_TEXT	SEGMENT PARA USE32 PUBLIC 'CODE'
_TEXT	ENDS
;	COMDAT ?SendMW_FRIENDASK_REQ@CTServer@@QAEXKKV?$CStringT@DV?$StrTraitATL@DV?$ChTraitsCRT@D@ATL@@@ATL@@@ATL@@K@Z
_TEXT	SEGMENT PARA USE32 PUBLIC 'CODE'
_TEXT	ENDS
;	COMDAT ?SendMW_FRIENDERASE_REQ@CTServer@@QAEXKKEK@Z
_TEXT	SEGMENT PARA USE32 PUBLIC 'CODE'
_TEXT	ENDS
;	COMDAT ?SendMW_CHGPARTYCHIEF_REQ@CTServer@@QAEXKKE@Z
_TEXT	SEGMENT PARA USE32 PUBLIC 'CODE'
_TEXT	ENDS
;	COMDAT ?SendMW_PARTYATTR_REQ@CTServer@@QAEXKKGEKG@Z
_TEXT	SEGMENT PARA USE32 PUBLIC 'CODE'
_TEXT	ENDS
;	COMDAT ?SendMW_CHGSQUADCHIEF_REQ@CTServer@@QAEXKKGK@Z
_TEXT	SEGMENT PARA USE32 PUBLIC 'CODE'
_TEXT	ENDS
;	COMDAT ?SendMW_ADDITEMRESULT_REQ@CTServer@@QAEXKKEGKEE@Z
_TEXT	SEGMENT PARA USE32 PUBLIC 'CODE'
_TEXT	ENDS
;	COMDAT ?SendMW_CHARSTATINFO_REQ@CTServer@@QAEXPAVCPacket@@@Z
_TEXT	SEGMENT PARA USE32 PUBLIC 'CODE'
_TEXT	ENDS
;	COMDAT ?SendMW_CHARSTATINFOANS_REQ@CTServer@@QAEXKK@Z
_TEXT	SEGMENT PARA USE32 PUBLIC 'CODE'
_TEXT	ENDS
;	COMDAT ?SendMW_LOCALENABLE_REQ@CTServer@@QAEXEKKEK@Z
_TEXT	SEGMENT PARA USE32 PUBLIC 'CODE'
_TEXT	ENDS
;	COMDAT ?SendMW_CHGCORPSCOMMANDER_REQ@CTServer@@QAEXKKE@Z
_TEXT	SEGMENT PARA USE32 PUBLIC 'CODE'
_TEXT	ENDS
;	COMDAT ?SendMW_CORPSREPLY_REQ@CTServer@@QAEXKKEV?$CStringT@DV?$StrTraitATL@DV?$ChTraitsCRT@D@ATL@@@ATL@@@ATL@@@Z
_TEXT	SEGMENT PARA USE32 PUBLIC 'CODE'
_TEXT	ENDS
;	COMDAT ?SendMW_ADDSQUAD_REQ@CTServer@@QAEXKKPAVCTParty@@@Z
_TEXT	SEGMENT PARA USE32 PUBLIC 'CODE'
_TEXT	ENDS
;	COMDAT ?SendMW_DELSQUAD_REQ@CTServer@@QAEXKKG@Z
_TEXT	SEGMENT PARA USE32 PUBLIC 'CODE'
_TEXT	ENDS
;	COMDAT ?SendMW_CORPSASK_REQ@CTServer@@QAEXKKKV?$CStringT@DV?$StrTraitATL@DV?$ChTraitsCRT@D@ATL@@@ATL@@@ATL@@@Z
_TEXT	SEGMENT PARA USE32 PUBLIC 'CODE'
_TEXT	ENDS
;	COMDAT ?SendMW_CORPSJOIN_REQ@CTServer@@QAEXKKGG@Z
_TEXT	SEGMENT PARA USE32 PUBLIC 'CODE'
_TEXT	ENDS
;	COMDAT ?SendMW_ADDCORPSUNIT_REQ@CTServer@@QAEXKKGKV?$CStringT@DV?$StrTraitATL@DV?$ChTraitsCRT@D@ATL@@@ATL@@@ATL@@MKKKGGGGGGEEEEEEEE@Z
_TEXT	SEGMENT PARA USE32 PUBLIC 'CODE'
_TEXT	ENDS
;	COMDAT ?SendMW_DELCORPSUNIT_REQ@CTServer@@QAEXKKGK@Z
_TEXT	SEGMENT PARA USE32 PUBLIC 'CODE'
_TEXT	ENDS
;	COMDAT ?SendMW_CORPSCMD_REQ@CTServer@@QAEXKKGKGEKEGG@Z
_TEXT	SEGMENT PARA USE32 PUBLIC 'CODE'
_TEXT	ENDS
;	COMDAT ?SendMW_REPORTENEMYLIST_REQ@CTServer@@QAEXKKGK@Z
_TEXT	SEGMENT PARA USE32 PUBLIC 'CODE'
_TEXT	ENDS
;	COMDAT ?SendMW_PARTYMOVE_REQ@CTServer@@QAEXKKE@Z
_TEXT	SEGMENT PARA USE32 PUBLIC 'CODE'
_TEXT	ENDS
;	COMDAT ?SendMW_TMSRECV_REQ@CTServer@@QAEXKKKV?$CStringT@DV?$StrTraitATL@DV?$ChTraitsCRT@D@ATL@@@ATL@@@ATL@@0@Z
_TEXT	SEGMENT PARA USE32 PUBLIC 'CODE'
_TEXT	ENDS
;	COMDAT ?SendMW_TMSINVITEASK_REQ@CTServer@@QAEXKKKKKV?$CStringT@DV?$StrTraitATL@DV?$ChTraitsCRT@D@ATL@@@ATL@@@ATL@@@Z
_TEXT	SEGMENT PARA USE32 PUBLIC 'CODE'
_TEXT	ENDS
;	COMDAT ?SendMW_TMSINVITE_REQ@CTServer@@QAEXKKKPAUtagTMS@@@Z
_TEXT	SEGMENT PARA USE32 PUBLIC 'CODE'
_TEXT	ENDS
;	COMDAT ?SendMW_TMSOUT_REQ@CTServer@@QAEXKKKV?$CStringT@DV?$StrTraitATL@DV?$ChTraitsCRT@D@ATL@@@ATL@@@ATL@@@Z
_TEXT	SEGMENT PARA USE32 PUBLIC 'CODE'
_TEXT	ENDS
;	COMDAT ?SendMW_POSTRECV_REQ@CTServer@@QAEXPAVCPacket@@@Z
_TEXT	SEGMENT PARA USE32 PUBLIC 'CODE'
_TEXT	ENDS
;	COMDAT ?SendMW_LOCALOCCUPY_REQ@CTServer@@QAEXEGEKV?$CStringT@DV?$StrTraitATL@DV?$ChTraitsCRT@D@ATL@@@ATL@@@ATL@@@Z
_TEXT	SEGMENT PARA USE32 PUBLIC 'CODE'
_TEXT	ENDS
;	COMDAT ?SendMW_CASTLEOCCUPY_REQ@CTServer@@QAEXEGKEV?$CStringT@DV?$StrTraitATL@DV?$ChTraitsCRT@D@ATL@@@ATL@@@ATL@@@Z
_TEXT	SEGMENT PARA USE32 PUBLIC 'CODE'
_TEXT	ENDS
;	COMDAT ?SendMW_MISSIONOCCUPY_REQ@CTServer@@QAEXEGE@Z
_TEXT	SEGMENT PARA USE32 PUBLIC 'CODE'
_TEXT	ENDS
;	COMDAT ?SendMW_CASTLEENABLE_REQ@CTServer@@QAEXEK@Z
_TEXT	SEGMENT PARA USE32 PUBLIC 'CODE'
_TEXT	ENDS
;	COMDAT ?SendMW_CASTLEAPPLY_REQ@CTServer@@QAEXKKEGKE@Z
_TEXT	SEGMENT PARA USE32 PUBLIC 'CODE'
_TEXT	ENDS
;	COMDAT ?SendMW_CASTLEJOIN_REQ@CTServer@@QAEXKKKG@Z
_TEXT	SEGMENT PARA USE32 PUBLIC 'CODE'
_TEXT	ENDS
;	COMDAT ?SendMW_MONTEMPT_REQ@CTServer@@QAEXKKG@Z
_TEXT	SEGMENT PARA USE32 PUBLIC 'CODE'
_TEXT	ENDS
;	COMDAT ?SendMW_GETBLOOD_REQ@CTServer@@QAEXKKKEEK@Z
_TEXT	SEGMENT PARA USE32 PUBLIC 'CODE'
_TEXT	ENDS
;	COMDAT ?SendMW_FRIENDGROUPMAKE_REQ@CTServer@@QAEXKKEEV?$CStringT@DV?$StrTraitATL@DV?$ChTraitsCRT@D@ATL@@@ATL@@@ATL@@@Z
_TEXT	SEGMENT PARA USE32 PUBLIC 'CODE'
_TEXT	ENDS
;	COMDAT ?SendMW_FRIENDGROUPDELETE_REQ@CTServer@@QAEXKKEE@Z
_TEXT	SEGMENT PARA USE32 PUBLIC 'CODE'
_TEXT	ENDS
;	COMDAT ?SendMW_FRIENDGROUPCHANGE_REQ@CTServer@@QAEXKKEEK@Z
_TEXT	SEGMENT PARA USE32 PUBLIC 'CODE'
_TEXT	ENDS
;	COMDAT ?SendMW_FRIENDGROUPNAME_REQ@CTServer@@QAEXKKEEV?$CStringT@DV?$StrTraitATL@DV?$ChTraitsCRT@D@ATL@@@ATL@@@ATL@@@Z
_TEXT	SEGMENT PARA USE32 PUBLIC 'CODE'
_TEXT	ENDS
;	COMDAT ?SendMW_FRIENDCONNECTION_REQ@CTServer@@QAEXKKEV?$CStringT@DV?$StrTraitATL@DV?$ChTraitsCRT@D@ATL@@@ATL@@@ATL@@K@Z
_TEXT	SEGMENT PARA USE32 PUBLIC 'CODE'
_TEXT	ENDS
;	COMDAT ?SendMW_DEALITEMERROR_REQ@CTServer@@QAEXV?$CStringT@DV?$StrTraitATL@DV?$ChTraitsCRT@D@ATL@@@ATL@@@ATL@@0E@Z
_TEXT	SEGMENT PARA USE32 PUBLIC 'CODE'
_TEXT	ENDS
;	COMDAT ?SendMW_MAGICMIRROR_REQ@CTServer@@QAEXPAVCPacket@@@Z
_TEXT	SEGMENT PARA USE32 PUBLIC 'CODE'
_TEXT	ENDS
;	COMDAT ?SendMW_CREATERECALLMON_REQ@CTServer@@QAEXKKKGKGV?$CStringT@DV?$StrTraitATL@DV?$ChTraitsCRT@D@ATL@@@ATL@@@ATL@@KEEEEEEKKKKEEMMMGV?$vector@GV?$allocator@G@std@@@std@@@Z
_TEXT	SEGMENT PARA USE32 PUBLIC 'CODE'
_TEXT	ENDS
;	COMDAT ?SendMW_RECALLMONDEL_REQ@CTServer@@QAEXKKK@Z
_TEXT	SEGMENT PARA USE32 PUBLIC 'CODE'
_TEXT	ENDS
;	COMDAT ?SendMW_FRIENDREGION_REQ@CTServer@@QAEXKKV?$CStringT@DV?$StrTraitATL@DV?$ChTraitsCRT@D@ATL@@@ATL@@@ATL@@K@Z
_TEXT	SEGMENT PARA USE32 PUBLIC 'CODE'
_TEXT	ENDS
;	COMDAT ?SendMW_STARTTELEPORT_REQ@CTServer@@QAEXKKEGMMM@Z
_TEXT	SEGMENT PARA USE32 PUBLIC 'CODE'
_TEXT	ENDS
;	COMDAT ?SendMW_PETRIDING_REQ@CTServer@@QAEXKKK@Z
_TEXT	SEGMENT PARA USE32 PUBLIC 'CODE'
_TEXT	ENDS
;	COMDAT ?SendMW_EVENTQUARTER_REQ@CTServer@@QAEXEEEEV?$CStringT@DV?$StrTraitATL@DV?$ChTraitsCRT@D@ATL@@@ATL@@@ATL@@@Z
_TEXT	SEGMENT PARA USE32 PUBLIC 'CODE'
_TEXT	ENDS
;	COMDAT ?SendMW_HELMETHIDE_REQ@CTServer@@QAEXKKE@Z
_TEXT	SEGMENT PARA USE32 PUBLIC 'CODE'
_TEXT	ENDS
;	COMDAT ?SendMW_PARTYMEMBERRECALL_REQ@CTServer@@QAEXKKEV?$CStringT@DV?$StrTraitATL@DV?$ChTraitsCRT@D@ATL@@@ATL@@@ATL@@EEEEGMMM@Z
_TEXT	SEGMENT PARA USE32 PUBLIC 'CODE'
_TEXT	ENDS
;	COMDAT ?SendMW_PARTYMEMBERRECALLANS_REQ@CTServer@@QAEXKKV?$CStringT@DV?$StrTraitATL@DV?$ChTraitsCRT@D@ATL@@@ATL@@@ATL@@EEE@Z
_TEXT	SEGMENT PARA USE32 PUBLIC 'CODE'
_TEXT	ENDS
;	COMDAT ?SendMW_SOULMATE_REQ@CTServer@@QAEXKKKV?$CStringT@DV?$StrTraitATL@DV?$ChTraitsCRT@D@ATL@@@ATL@@@ATL@@K@Z
_TEXT	SEGMENT PARA USE32 PUBLIC 'CODE'
_TEXT	ENDS
;	COMDAT ?SendMW_SOULMATESEARCH_REQ@CTServer@@QAEXKKEKV?$CStringT@DV?$StrTraitATL@DV?$ChTraitsCRT@D@ATL@@@ATL@@@ATL@@KEE@Z
_TEXT	SEGMENT PARA USE32 PUBLIC 'CODE'
_TEXT	ENDS
;	COMDAT ?SendMW_SOULMATEREG_REQ@CTServer@@QAEXKKEEEEKV?$CStringT@DV?$StrTraitATL@DV?$ChTraitsCRT@D@ATL@@@ATL@@@ATL@@K@Z
_TEXT	SEGMENT PARA USE32 PUBLIC 'CODE'
_TEXT	ENDS
;	COMDAT ?SendMW_SOULMATEEND_REQ@CTServer@@QAEXKKEK@Z
_TEXT	SEGMENT PARA USE32 PUBLIC 'CODE'
_TEXT	ENDS
;	COMDAT ?SendMW_CASTLEWARINFO_REQ@CTServer@@QAEXPAUtagCASTLEWARINFO@@KV?$CStringT@DV?$StrTraitATL@DV?$ChTraitsCRT@D@ATL@@@ATL@@@ATL@@EK1@Z
_TEXT	SEGMENT PARA USE32 PUBLIC 'CODE'
_TEXT	ENDS
;	COMDAT ?SendMW_ENDWAR_REQ@CTServer@@QAEXG@Z
_TEXT	SEGMENT PARA USE32 PUBLIC 'CODE'
_TEXT	ENDS
;	COMDAT ?SendMW_CHATBAN_REQ@CTServer@@QAEXV?$CStringT@DV?$StrTraitATL@DV?$ChTraitsCRT@D@ATL@@@ATL@@@ATL@@_JEKK@Z
_TEXT	SEGMENT PARA USE32 PUBLIC 'CODE'
_TEXT	ENDS
;	COMDAT ?SendMW_CHARMSG_REQ@CTServer@@QAEXV?$CStringT@DV?$StrTraitATL@DV?$ChTraitsCRT@D@ATL@@@ATL@@@ATL@@0@Z
_TEXT	SEGMENT PARA USE32 PUBLIC 'CODE'
_TEXT	ENDS
;	COMDAT ?SendMW_RECALLMONDATA_REQ@CTServer@@QAEXPAVCPacket@@@Z
_TEXT	SEGMENT PARA USE32 PUBLIC 'CODE'
_TEXT	ENDS
;	COMDAT ?SendMW_CHANGECHARBASE_REQ@CTServer@@QAEXKKEEV?$CStringT@DV?$StrTraitATL@DV?$ChTraitsCRT@D@ATL@@@ATL@@@ATL@@@Z
_TEXT	SEGMENT PARA USE32 PUBLIC 'CODE'
_TEXT	ENDS
;	COMDAT ?SendMW_HEROSELECT_REQ@CTServer@@QAEXGV?$CStringT@DV?$StrTraitATL@DV?$ChTraitsCRT@D@ATL@@@ATL@@@ATL@@_J@Z
_TEXT	SEGMENT PARA USE32 PUBLIC 'CODE'
_TEXT	ENDS
;	COMDAT ?SendMW_RELAYCONNECT_REQ@CTServer@@QAEXKE@Z
_TEXT	SEGMENT PARA USE32 PUBLIC 'CODE'
_TEXT	ENDS
;	COMDAT ?SendCT_CHATBAN_ACK@CTServer@@QAEXEKK@Z
_TEXT	SEGMENT PARA USE32 PUBLIC 'CODE'
_TEXT	ENDS
;	COMDAT ?SendMW_ITEMSTATE_REQ@CTServer@@QAEXPAVCPacket@@@Z
_TEXT	SEGMENT PARA USE32 PUBLIC 'CODE'
_TEXT	ENDS
;	COMDAT ?SendCT_ITEMSTATE_ACK@CTServer@@QAEXPAVCPacket@@@Z
_TEXT	SEGMENT PARA USE32 PUBLIC 'CODE'
_TEXT	ENDS
;	COMDAT ?SendCT_CASTLEGUILDCHG_ACK@CTServer@@QAEXKEGKV?$CStringT@DV?$StrTraitATL@DV?$ChTraitsCRT@D@ATL@@@ATL@@@ATL@@K0_J@Z
_TEXT	SEGMENT PARA USE32 PUBLIC 'CODE'
_TEXT	ENDS
;	COMDAT ?SendMW_GAINPVPPOINT_REQ@CTServer@@QAEXKKEEEV?$CStringT@DV?$StrTraitATL@DV?$ChTraitsCRT@D@ATL@@@ATL@@@ATL@@EE@Z
_TEXT	SEGMENT PARA USE32 PUBLIC 'CODE'
_TEXT	ENDS
;	COMDAT ?SendMW_GUILDPOINTLOG_REQ@CTServer@@QAEXKKPAVCTGuild@@@Z
_TEXT	SEGMENT PARA USE32 PUBLIC 'CODE'
_TEXT	ENDS
;	COMDAT ?SendMW_GUILDPOINTREWARD_REQ@CTServer@@QAEXEKKKKKV?$CStringT@DV?$StrTraitATL@DV?$ChTraitsCRT@D@ATL@@@ATL@@@ATL@@0@Z
_TEXT	SEGMENT PARA USE32 PUBLIC 'CODE'
_TEXT	ENDS
;	COMDAT ?SendMW_GUILDPVPRECORD_REQ@CTServer@@QAEXKKPAVCTGuild@@K@Z
_TEXT	SEGMENT PARA USE32 PUBLIC 'CODE'
_TEXT	ENDS
;	COMDAT ?SendMW_MONSTERBUY_REQ@CTServer@@QAEXEKKKGGK@Z
_TEXT	SEGMENT PARA USE32 PUBLIC 'CODE'
_TEXT	ENDS
;	COMDAT ?SendMW_CASTLEGUILDCHG_REQ@CTServer@@QAEXGKV?$CStringT@DV?$StrTraitATL@DV?$ChTraitsCRT@D@ATL@@@ATL@@@ATL@@K0_J@Z
_TEXT	SEGMENT PARA USE32 PUBLIC 'CODE'
_TEXT	ENDS
;	COMDAT ?SendMW_EVENTUPDATE_REQ@CTServer@@QAEXEGPAUtagEVENTINFO@@@Z
_TEXT	SEGMENT PARA USE32 PUBLIC 'CODE'
_TEXT	ENDS
;	COMDAT ?SendMW_EVENTMSG_REQ@CTServer@@QAEXEEV?$CStringT@DV?$StrTraitATL@DV?$ChTraitsCRT@D@ATL@@@ATL@@@ATL@@@Z
_TEXT	SEGMENT PARA USE32 PUBLIC 'CODE'
_TEXT	ENDS
;	COMDAT ?SendMW_CASHSHOPSTOP_REQ@CTServer@@QAEXEE@Z
_TEXT	SEGMENT PARA USE32 PUBLIC 'CODE'
_TEXT	ENDS
;	COMDAT ?SendMW_CASHITEMSALE_REQ@CTServer@@QAEXKGPAV?$vector@UtagTCASHITMSALE@@V?$allocator@UtagTCASHITMSALE@@@std@@@std@@@Z
_TEXT	SEGMENT PARA USE32 PUBLIC 'CODE'
_TEXT	ENDS
;	COMDAT ?SendMW_WORLDPOSTSEND_REQ@CTServer@@QAEXEKV?$CStringT@DV?$StrTraitATL@DV?$ChTraitsCRT@D@ATL@@@ATL@@@ATL@@00GEG@Z
_TEXT	SEGMENT PARA USE32 PUBLIC 'CODE'
_TEXT	ENDS
;	COMDAT ?SendMW_WORLDPOSTSEND_REQ@CTServer@@QAEXEKKV?$CStringT@DV?$StrTraitATL@DV?$ChTraitsCRT@D@ATL@@@ATL@@@ATL@@K0_J@Z
_TEXT	SEGMENT PARA USE32 PUBLIC 'CODE'
_TEXT	ENDS
;	COMDAT ?SendMW_CASTLEAPPLICANTCOUNT_REQ@CTServer@@QAEXGKEE@Z
_TEXT	SEGMENT PARA USE32 PUBLIC 'CODE'
_TEXT	ENDS
;	COMDAT ?SendMW_MONTHRANKLIST_REQ@CTServer@@QAEXQAY0CB@UtagMONTHRANKER@@E@Z
_TEXT	SEGMENT PARA USE32 PUBLIC 'CODE'
_TEXT	ENDS
;	COMDAT ?SendMW_MONTHRANKRESET_REQ@CTServer@@QAEXQAUtagMONTHRANKER@@E@Z
_TEXT	SEGMENT PARA USE32 PUBLIC 'CODE'
_TEXT	ENDS
;	COMDAT ?SendMW_FAMERANKUPDATE_REQ@CTServer@@QAEXPAUtagPACKETBUF@@@Z
_TEXT	SEGMENT PARA USE32 PUBLIC 'CODE'
_TEXT	ENDS
;	COMDAT ?SendMW_MONTHRANKUPDATE_REQ@CTServer@@QAEXEEEEQAY0CB@UtagMONTHRANKER@@E@Z
_TEXT	SEGMENT PARA USE32 PUBLIC 'CODE'
_TEXT	ENDS
;	COMDAT ?SendMW_WARLORDSAY_REQ@CTServer@@QAEXEEKV?$CStringT@DV?$StrTraitATL@DV?$ChTraitsCRT@D@ATL@@@ATL@@@ATL@@@Z
_TEXT	SEGMENT PARA USE32 PUBLIC 'CODE'
_TEXT	ENDS
;	COMDAT ?SendMW_FIRSTGRADEGROUP_REQ@CTServer@@QAEXQAY0BB@UtagMONTHRANKER@@E@Z
_TEXT	SEGMENT PARA USE32 PUBLIC 'CODE'
_TEXT	ENDS
;	COMDAT ?SendMW_TERMINATE_REQ@CTServer@@QAEXK@Z
_TEXT	SEGMENT PARA USE32 PUBLIC 'CODE'
_TEXT	ENDS
;	COMDAT ?SendMW_TOURNAMENTENABLE_REQ@CTServer@@QAEXEEK_J@Z
_TEXT	SEGMENT PARA USE32 PUBLIC 'CODE'
_TEXT	ENDS
;	COMDAT ?SendMW_TOURNAMENT_REQ@CTServer@@QAEXPAVCPacket@@@Z
_TEXT	SEGMENT PARA USE32 PUBLIC 'CODE'
_TEXT	ENDS
;	COMDAT ?SendMW_TOURNAMENT_REQ@CTServer@@QAEXKKGE@Z
_TEXT	SEGMENT PARA USE32 PUBLIC 'CODE'
_TEXT	ENDS
;	COMDAT ?SendMW_TOURNAMENTINFO_REQ@CTServer@@QAEXEPAV?$map@EPAUtagTOURNAMENTENTRY@@U?$less@E@std@@V?$allocator@U?$pair@$$CBEPAUtagTOURNAMENTENTRY@@@std@@@3@@std@@EEE@Z
_TEXT	SEGMENT PARA USE32 PUBLIC 'CODE'
_TEXT	ENDS
;	COMDAT ?SendMW_TOURNAMENTMATCH_REQ@CTServer@@QAEXPAV?$map@KPAUtagTNMTPLAYER@@U?$less@K@std@@V?$allocator@U?$pair@$$CBKPAUtagTNMTPLAYER@@@std@@@3@@std@@@Z
_TEXT	SEGMENT PARA USE32 PUBLIC 'CODE'
_TEXT	ENDS
;	COMDAT ?SendMW_TOURNAMENTRESULT_REQ@CTServer@@QAEXGEEKKKKAAV?$vector@KV?$allocator@K@std@@@std@@@Z
_TEXT	SEGMENT PARA USE32 PUBLIC 'CODE'
_TEXT	ENDS
;	COMDAT ?SendMW_TOURNAMENTBATPOINT_REQ@CTServer@@QAEXKV?$CStringT@DV?$StrTraitATL@DV?$ChTraitsCRT@D@ATL@@@ATL@@@ATL@@K@Z
_TEXT	SEGMENT PARA USE32 PUBLIC 'CODE'
_TEXT	ENDS
;	COMDAT ?SendMW_MISSIONENABLE_REQ@CTServer@@QAEXEKK@Z
_TEXT	SEGMENT PARA USE32 PUBLIC 'CODE'
_TEXT	ENDS
;	COMDAT ?SendMW_RPSGAME_REQ@CTServer@@QAEXKKEE@Z
_TEXT	SEGMENT PARA USE32 PUBLIC 'CODE'
_TEXT	ENDS
;	COMDAT ?SendMW_RPSGAMECHANGE_REQ@CTServer@@QAEXPAUtagPACKETBUF@@@Z
_TEXT	SEGMENT PARA USE32 PUBLIC 'CODE'
_TEXT	ENDS
;	COMDAT ?SendMW_APEXDATA_REQ@CTServer@@QAEXKKPADH@Z
_TEXT	SEGMENT PARA USE32 PUBLIC 'CODE'
_TEXT	ENDS
;	COMDAT ?begin@?$_Tree@V?$_Tmap_traits@KPAUtagTCHARACTER@@U?$less@K@std@@V?$allocator@U?$pair@$$CBKPAUtagTCHARACTER@@@std@@@3@$0A@@std@@@std@@QAE?AViterator@12@XZ
_TEXT	SEGMENT PARA USE32 PUBLIC 'CODE'
_TEXT	ENDS
;	COMDAT ?end@?$_Tree@V?$_Tmap_traits@KPAUtagTCHARACTER@@U?$less@K@std@@V?$allocator@U?$pair@$$CBKPAUtagTCHARACTER@@@std@@@3@$0A@@std@@@std@@QAE?AViterator@12@XZ
_TEXT	SEGMENT PARA USE32 PUBLIC 'CODE'
_TEXT	ENDS
;	COMDAT ?size@?$_Tree@V?$_Tmap_traits@KPAUtagTCHARACTER@@U?$less@K@std@@V?$allocator@U?$pair@$$CBKPAUtagTCHARACTER@@@std@@@3@$0A@@std@@@std@@QBEIXZ
_TEXT	SEGMENT PARA USE32 PUBLIC 'CODE'
_TEXT	ENDS
;	COMDAT ?size@?$vector@UtagTENTRYRECORD@@V?$allocator@UtagTENTRYRECORD@@@std@@@std@@QBEIXZ
_TEXT	SEGMENT PARA USE32 PUBLIC 'CODE'
_TEXT	ENDS
;	COMDAT ?back@?$vector@UtagTENTRYRECORD@@V?$allocator@UtagTENTRYRECORD@@@std@@@std@@QAEAAUtagTENTRYRECORD@@XZ
_TEXT	SEGMENT PARA USE32 PUBLIC 'CODE'
_TEXT	ENDS
;	COMDAT ?begin@?$_Tree@V?$_Tmap_traits@KPAUtagTGUILDWANTEDAPP@@U?$less@K@std@@V?$allocator@U?$pair@$$CBKPAUtagTGUILDWANTEDAPP@@@std@@@3@$0A@@std@@@std@@QAE?AViterator@12@XZ
_TEXT	SEGMENT PARA USE32 PUBLIC 'CODE'
_TEXT	ENDS
;	COMDAT ?end@?$_Tree@V?$_Tmap_traits@KPAUtagTGUILDWANTEDAPP@@U?$less@K@std@@V?$allocator@U?$pair@$$CBKPAUtagTGUILDWANTEDAPP@@@std@@@3@$0A@@std@@@std@@QAE?AViterator@12@XZ
_TEXT	SEGMENT PARA USE32 PUBLIC 'CODE'
_TEXT	ENDS
;	COMDAT ?size@?$_Tree@V?$_Tmap_traits@KPAUtagTGUILDWANTEDAPP@@U?$less@K@std@@V?$allocator@U?$pair@$$CBKPAUtagTGUILDWANTEDAPP@@@std@@@3@$0A@@std@@@std@@QBEIXZ
_TEXT	SEGMENT PARA USE32 PUBLIC 'CODE'
_TEXT	ENDS
;	COMDAT ?begin@?$_Tree@V?$_Tmap_traits@KPAUtagTGUILDTACTICSWANTEDAPP@@U?$less@K@std@@V?$allocator@U?$pair@$$CBKPAUtagTGUILDTACTICSWANTEDAPP@@@std@@@3@$0A@@std@@@std@@QAE?AViterator@12@XZ
_TEXT	SEGMENT PARA USE32 PUBLIC 'CODE'
_TEXT	ENDS
;	COMDAT ?end@?$_Tree@V?$_Tmap_traits@KPAUtagTGUILDTACTICSWANTEDAPP@@U?$less@K@std@@V?$allocator@U?$pair@$$CBKPAUtagTGUILDTACTICSWANTEDAPP@@@std@@@3@$0A@@std@@@std@@QAE?AViterator@12@XZ
_TEXT	SEGMENT PARA USE32 PUBLIC 'CODE'
_TEXT	ENDS
;	COMDAT ?size@?$_Tree@V?$_Tmap_traits@KPAUtagTGUILDTACTICSWANTEDAPP@@U?$less@K@std@@V?$allocator@U?$pair@$$CBKPAUtagTGUILDTACTICSWANTEDAPP@@@std@@@3@$0A@@std@@@std@@QBEIXZ
_TEXT	SEGMENT PARA USE32 PUBLIC 'CODE'
_TEXT	ENDS
;	COMDAT ?size@?$_Tree@V?$_Tmap_traits@EPAUtagTCHARCON@@U?$less@E@std@@V?$allocator@U?$pair@$$CBEPAUtagTCHARCON@@@std@@@3@$0A@@std@@@std@@QBEIXZ
_TEXT	SEGMENT PARA USE32 PUBLIC 'CODE'
_TEXT	ENDS
;	COMDAT ?size@?$_Tree@V?$_Tmap_traits@KPAUtagTFRIEND@@U?$less@K@std@@V?$allocator@U?$pair@$$CBKPAUtagTFRIEND@@@std@@@3@$0A@@std@@@std@@QBEIXZ
_TEXT	SEGMENT PARA USE32 PUBLIC 'CODE'
_TEXT	ENDS
;	COMDAT ?find@?$_Tree@V?$_Tmap_traits@KPAUtagTSOULMATE@@U?$less@K@std@@V?$allocator@U?$pair@$$CBKPAUtagTSOULMATE@@@std@@@3@$0A@@std@@@std@@QAE?AViterator@12@ABK@Z
_TEXT	SEGMENT PARA USE32 PUBLIC 'CODE'
_TEXT	ENDS
;	COMDAT ?size@?$_Tree@V?$_Tmap_traits@KPAUtagTNMTPLAYER@@U?$less@K@std@@V?$allocator@U?$pair@$$CBKPAUtagTNMTPLAYER@@@std@@@3@$0A@@std@@@std@@QBEIXZ
_TEXT	SEGMENT PARA USE32 PUBLIC 'CODE'
_TEXT	ENDS
;	COMDAT ?size@?$_Tree@V?$_Tmap_traits@EV?$CStringT@DV?$StrTraitATL@DV?$ChTraitsCRT@D@ATL@@@ATL@@@ATL@@U?$less@E@std@@V?$allocator@U?$pair@$$CBEV?$CStringT@DV?$StrTraitATL@DV?$ChTraitsCRT@D@ATL@@@ATL@@@ATL@@@std@@@4@$0A@@std@@@std@@QBEIXZ
_TEXT	SEGMENT PARA USE32 PUBLIC 'CODE'
_TEXT	ENDS
;	COMDAT ?size@?$_Tree@V?$_Tmap_traits@KKU?$less@K@std@@V?$allocator@U?$pair@$$CBKK@std@@@2@$0A@@std@@@std@@QBEIXZ
_TEXT	SEGMENT PARA USE32 PUBLIC 'CODE'
_TEXT	ENDS
;	COMDAT ?at@?$vector@UtagTCASHITMSALE@@V?$allocator@UtagTCASHITMSALE@@@std@@@std@@QAEAAUtagTCASHITMSALE@@I@Z
_TEXT	SEGMENT PARA USE32 PUBLIC 'CODE'
_TEXT	ENDS
;	COMDAT ??1?$vector@GV?$allocator@G@std@@@std@@QAE@XZ
_TEXT	SEGMENT PARA USE32 PUBLIC 'CODE'
_TEXT	ENDS
;	COMDAT ?size@?$vector@PAUtagTCHARACTER@@V?$allocator@PAUtagTCHARACTER@@@std@@@std@@QBEIXZ
_TEXT	SEGMENT PARA USE32 PUBLIC 'CODE'
_TEXT	ENDS
;	COMDAT ??A?$vector@PAUtagTCHARACTER@@V?$allocator@PAUtagTCHARACTER@@@std@@@std@@QAEAAPAUtagTCHARACTER@@I@Z
_TEXT	SEGMENT PARA USE32 PUBLIC 'CODE'
_TEXT	ENDS
;	COMDAT ?size@?$vector@UtagTNMTREWARD@@V?$allocator@UtagTNMTREWARD@@@std@@@std@@QBEIXZ
_TEXT	SEGMENT PARA USE32 PUBLIC 'CODE'
_TEXT	ENDS
;	COMDAT ??A?$vector@UtagTNMTREWARD@@V?$allocator@UtagTNMTREWARD@@@std@@@std@@QAEAAUtagTNMTREWARD@@I@Z
_TEXT	SEGMENT PARA USE32 PUBLIC 'CODE'
_TEXT	ENDS
;	COMDAT ??0?$vector@_JV?$allocator@_J@std@@@std@@QAE@ABV01@@Z
_TEXT	SEGMENT PARA USE32 PUBLIC 'CODE'
_TEXT	ENDS
;	COMDAT ??1?$vector@_JV?$allocator@_J@std@@@std@@QAE@XZ
_TEXT	SEGMENT PARA USE32 PUBLIC 'CODE'
_TEXT	ENDS
;	COMDAT ?size@?$_Tree@V?$_Tmap_traits@EUtagCASTLETOP3@@U?$less@E@std@@V?$allocator@U?$pair@$$CBEUtagCASTLETOP3@@@std@@@3@$0A@@std@@@std@@QBEIXZ
_TEXT	SEGMENT PARA USE32 PUBLIC 'CODE'
_TEXT	ENDS
;	COMDAT ?begin@?$_Tree@V?$_Tmap_traits@KPAUtagTITEM@@U?$less@K@std@@V?$allocator@U?$pair@$$CBKPAUtagTITEM@@@std@@@3@$0A@@std@@@std@@QAE?AViterator@12@XZ
_TEXT	SEGMENT PARA USE32 PUBLIC 'CODE'
_TEXT	ENDS
;	COMDAT ?end@?$_Tree@V?$_Tmap_traits@KPAUtagTITEM@@U?$less@K@std@@V?$allocator@U?$pair@$$CBKPAUtagTITEM@@@std@@@3@$0A@@std@@@std@@QAE?AViterator@12@XZ
_TEXT	SEGMENT PARA USE32 PUBLIC 'CODE'
_TEXT	ENDS
;	COMDAT ?begin@?$_Tree@V?$_Tmap_traits@KPAUtagTGUILDMEMBER@@U?$less@K@std@@V?$allocator@U?$pair@$$CBKPAUtagTGUILDMEMBER@@@std@@@3@$0A@@std@@@std@@QAE?AViterator@12@XZ
_TEXT	SEGMENT PARA USE32 PUBLIC 'CODE'
_TEXT	ENDS
;	COMDAT ?end@?$_Tree@V?$_Tmap_traits@KPAUtagTGUILDMEMBER@@U?$less@K@std@@V?$allocator@U?$pair@$$CBKPAUtagTGUILDMEMBER@@@std@@@3@$0A@@std@@@std@@QAE?AViterator@12@XZ
_TEXT	SEGMENT PARA USE32 PUBLIC 'CODE'
_TEXT	ENDS
;	COMDAT ?size@?$_Tree@V?$_Tmap_traits@KPAUtagTGUILDMEMBER@@U?$less@K@std@@V?$allocator@U?$pair@$$CBKPAUtagTGUILDMEMBER@@@std@@@3@$0A@@std@@@std@@QBEIXZ
_TEXT	SEGMENT PARA USE32 PUBLIC 'CODE'
_TEXT	ENDS
;	COMDAT ?begin@?$_Tree@V?$_Tmap_traits@KPAUtagTTACTICSMEMBER@@U?$less@K@std@@V?$allocator@U?$pair@$$CBKPAUtagTTACTICSMEMBER@@@std@@@3@$0A@@std@@@std@@QAE?AViterator@12@XZ
_TEXT	SEGMENT PARA USE32 PUBLIC 'CODE'
_TEXT	ENDS
;	COMDAT ?end@?$_Tree@V?$_Tmap_traits@KPAUtagTTACTICSMEMBER@@U?$less@K@std@@V?$allocator@U?$pair@$$CBKPAUtagTTACTICSMEMBER@@@std@@@3@$0A@@std@@@std@@QAE?AViterator@12@XZ
_TEXT	SEGMENT PARA USE32 PUBLIC 'CODE'
_TEXT	ENDS
;	COMDAT ?size@?$_Tree@V?$_Tmap_traits@KPAUtagTTACTICSMEMBER@@U?$less@K@std@@V?$allocator@U?$pair@$$CBKPAUtagTTACTICSMEMBER@@@std@@@3@$0A@@std@@@std@@QBEIXZ
_TEXT	SEGMENT PARA USE32 PUBLIC 'CODE'
_TEXT	ENDS
;	COMDAT ?begin@?$_Tree@V?$_Tmap_traits@KPAUtagTGUILDARTICLE@@U?$less@K@std@@V?$allocator@U?$pair@$$CBKPAUtagTGUILDARTICLE@@@std@@@3@$0A@@std@@@std@@QAE?AViterator@12@XZ
_TEXT	SEGMENT PARA USE32 PUBLIC 'CODE'
_TEXT	ENDS
;	COMDAT ?end@?$_Tree@V?$_Tmap_traits@KPAUtagTGUILDARTICLE@@U?$less@K@std@@V?$allocator@U?$pair@$$CBKPAUtagTGUILDARTICLE@@@std@@@3@$0A@@std@@@std@@QAE?AViterator@12@XZ
_TEXT	SEGMENT PARA USE32 PUBLIC 'CODE'
_TEXT	ENDS
;	COMDAT ?size@?$vector@KV?$allocator@K@std@@@std@@QBEIXZ
_TEXT	SEGMENT PARA USE32 PUBLIC 'CODE'
_TEXT	ENDS
;	COMDAT ??A?$vector@KV?$allocator@K@std@@@std@@QAEAAKI@Z
_TEXT	SEGMENT PARA USE32 PUBLIC 'CODE'
_TEXT	ENDS
;	COMDAT ?size@?$vector@UtagTGUILDPOINTREWARD@@V?$allocator@UtagTGUILDPOINTREWARD@@@std@@@std@@QBEIXZ
_TEXT	SEGMENT PARA USE32 PUBLIC 'CODE'
_TEXT	ENDS
;	COMDAT ??A?$vector@UtagTGUILDPOINTREWARD@@V?$allocator@UtagTGUILDPOINTREWARD@@@std@@@std@@QAEAAUtagTGUILDPOINTREWARD@@I@Z
_TEXT	SEGMENT PARA USE32 PUBLIC 'CODE'
_TEXT	ENDS
;	COMDAT ??0iterator@?$_Tree@V?$_Tmap_traits@KPAUtagTNMTPLAYER@@U?$less@K@std@@V?$allocator@U?$pair@$$CBKPAUtagTNMTPLAYER@@@std@@@3@$0A@@std@@@std@@QAE@XZ
_TEXT	SEGMENT PARA USE32 PUBLIC 'CODE'
_TEXT	ENDS
;	COMDAT ??Diterator@?$_Tree@V?$_Tmap_traits@KPAUtagTNMTPLAYER@@U?$less@K@std@@V?$allocator@U?$pair@$$CBKPAUtagTNMTPLAYER@@@std@@@3@$0A@@std@@@std@@QBEAAU?$pair@$$CBKPAUtagTNMTPLAYER@@@2@XZ
_TEXT	SEGMENT PARA USE32 PUBLIC 'CODE'
_TEXT	ENDS
;	COMDAT ??0iterator@?$_Tree@V?$_Tmap_traits@EV?$CStringT@DV?$StrTraitATL@DV?$ChTraitsCRT@D@ATL@@@ATL@@@ATL@@U?$less@E@std@@V?$allocator@U?$pair@$$CBEV?$CStringT@DV?$StrTraitATL@DV?$ChTraitsCRT@D@ATL@@@ATL@@@ATL@@@std@@@4@$0A@@std@@@std@@QAE@XZ
_TEXT	SEGMENT PARA USE32 PUBLIC 'CODE'
_TEXT	ENDS
;	COMDAT ??Diterator@?$_Tree@V?$_Tmap_traits@EV?$CStringT@DV?$StrTraitATL@DV?$ChTraitsCRT@D@ATL@@@ATL@@@ATL@@U?$less@E@std@@V?$allocator@U?$pair@$$CBEV?$CStringT@DV?$StrTraitATL@DV?$ChTraitsCRT@D@ATL@@@ATL@@@ATL@@@std@@@4@$0A@@std@@@std@@QBEAAU?$pair@$$CBEV?$CStringT@DV?$StrTraitATL@DV?$ChTraitsCRT@D@ATL@@@ATL@@@ATL@@@2@XZ
_TEXT	SEGMENT PARA USE32 PUBLIC 'CODE'
_TEXT	ENDS
;	COMDAT ??0iterator@?$_Tree@V?$_Tmap_traits@KKU?$less@K@std@@V?$allocator@U?$pair@$$CBKK@std@@@2@$0A@@std@@@std@@QAE@XZ
_TEXT	SEGMENT PARA USE32 PUBLIC 'CODE'
_TEXT	ENDS
;	COMDAT ??Diterator@?$_Tree@V?$_Tmap_traits@KKU?$less@K@std@@V?$allocator@U?$pair@$$CBKK@std@@@2@$0A@@std@@@std@@QBEAAU?$pair@$$CBKK@2@XZ
_TEXT	SEGMENT PARA USE32 PUBLIC 'CODE'
_TEXT	ENDS
;	COMDAT ??0iterator@?$_Tree@V?$_Tmap_traits@EUtagCASTLETOP3@@U?$less@E@std@@V?$allocator@U?$pair@$$CBEUtagCASTLETOP3@@@std@@@3@$0A@@std@@@std@@QAE@XZ
_TEXT	SEGMENT PARA USE32 PUBLIC 'CODE'
_TEXT	ENDS
;	COMDAT ??Citerator@?$_Tree@V?$_Tmap_traits@EUtagCASTLETOP3@@U?$less@E@std@@V?$allocator@U?$pair@$$CBEUtagCASTLETOP3@@@std@@@3@$0A@@std@@@std@@QBEPAU?$pair@$$CBEUtagCASTLETOP3@@@2@XZ
_TEXT	SEGMENT PARA USE32 PUBLIC 'CODE'
_TEXT	ENDS
;	COMDAT ?begin@?$_Tree@V?$_Tmap_traits@GUtagTRPSGAME@@U?$less@G@std@@V?$allocator@U?$pair@$$CBGUtagTRPSGAME@@@std@@@3@$0A@@std@@@std@@QAE?AViterator@12@XZ
_TEXT	SEGMENT PARA USE32 PUBLIC 'CODE'
_TEXT	ENDS
;	COMDAT ?end@?$_Tree@V?$_Tmap_traits@GUtagTRPSGAME@@U?$less@G@std@@V?$allocator@U?$pair@$$CBGUtagTRPSGAME@@@std@@@3@$0A@@std@@@std@@QAE?AViterator@12@XZ
_TEXT	SEGMENT PARA USE32 PUBLIC 'CODE'
_TEXT	ENDS
;	COMDAT ?size@?$_Tree@V?$_Tmap_traits@GUtagTRPSGAME@@U?$less@G@std@@V?$allocator@U?$pair@$$CBGUtagTRPSGAME@@@std@@@3@$0A@@std@@@std@@QBEIXZ
_TEXT	SEGMENT PARA USE32 PUBLIC 'CODE'
_TEXT	ENDS
;	COMDAT ??0iterator@?$_Tree@V?$_Tmap_traits@GUtagTRPSGAME@@U?$less@G@std@@V?$allocator@U?$pair@$$CBGUtagTRPSGAME@@@std@@@3@$0A@@std@@@std@@QAE@XZ
_TEXT	SEGMENT PARA USE32 PUBLIC 'CODE'
_TEXT	ENDS
;	COMDAT ??Diterator@?$_Tree@V?$_Tmap_traits@GUtagTRPSGAME@@U?$less@G@std@@V?$allocator@U?$pair@$$CBGUtagTRPSGAME@@@std@@@3@$0A@@std@@@std@@QBEAAU?$pair@$$CBGUtagTRPSGAME@@@2@XZ
_TEXT	SEGMENT PARA USE32 PUBLIC 'CODE'
_TEXT	ENDS
;	COMDAT ??Eiterator@?$_Tree@V?$_Tmap_traits@GUtagTRPSGAME@@U?$less@G@std@@V?$allocator@U?$pair@$$CBGUtagTRPSGAME@@@std@@@3@$0A@@std@@@std@@QAE?AV012@H@Z
_TEXT	SEGMENT PARA USE32 PUBLIC 'CODE'
_TEXT	ENDS
;	COMDAT ??9const_iterator@?$_Tree@V?$_Tmap_traits@GUtagTRPSGAME@@U?$less@G@std@@V?$allocator@U?$pair@$$CBGUtagTRPSGAME@@@std@@@3@$0A@@std@@@std@@QBE_NABV012@@Z
_TEXT	SEGMENT PARA USE32 PUBLIC 'CODE'
_TEXT	ENDS
;	COMDAT ?size@?$vector@ULOTPACKET@@V?$allocator@ULOTPACKET@@@std@@@std@@QBEIXZ
_TEXT	SEGMENT PARA USE32 PUBLIC 'CODE'
_TEXT	ENDS
;	COMDAT ??A?$vector@ULOTPACKET@@V?$allocator@ULOTPACKET@@@std@@@std@@QAEAAULOTPACKET@@I@Z
_TEXT	SEGMENT PARA USE32 PUBLIC 'CODE'
_TEXT	ENDS
;	COMDAT ??0iterator@?$_Tree@V?$_Tmap_traits@KPAUtagTGUILDMEMBER@@U?$less@K@std@@V?$allocator@U?$pair@$$CBKPAUtagTGUILDMEMBER@@@std@@@3@$0A@@std@@@std@@QAE@XZ
_TEXT	SEGMENT PARA USE32 PUBLIC 'CODE'
_TEXT	ENDS
;	COMDAT ??Diterator@?$_Tree@V?$_Tmap_traits@KPAUtagTGUILDMEMBER@@U?$less@K@std@@V?$allocator@U?$pair@$$CBKPAUtagTGUILDMEMBER@@@std@@@3@$0A@@std@@@std@@QBEAAU?$pair@$$CBKPAUtagTGUILDMEMBER@@@2@XZ
_TEXT	SEGMENT PARA USE32 PUBLIC 'CODE'
_TEXT	ENDS
;	COMDAT ??Eiterator@?$_Tree@V?$_Tmap_traits@KPAUtagTGUILDMEMBER@@U?$less@K@std@@V?$allocator@U?$pair@$$CBKPAUtagTGUILDMEMBER@@@std@@@3@$0A@@std@@@std@@QAE?AV012@H@Z
_TEXT	SEGMENT PARA USE32 PUBLIC 'CODE'
_TEXT	ENDS
;	COMDAT ??9const_iterator@?$_Tree@V?$_Tmap_traits@KPAUtagTGUILDMEMBER@@U?$less@K@std@@V?$allocator@U?$pair@$$CBKPAUtagTGUILDMEMBER@@@std@@@3@$0A@@std@@@std@@QBE_NABV012@@Z
_TEXT	SEGMENT PARA USE32 PUBLIC 'CODE'
_TEXT	ENDS
;	COMDAT ??0iterator@?$_Tree@V?$_Tmap_traits@KPAUtagTITEM@@U?$less@K@std@@V?$allocator@U?$pair@$$CBKPAUtagTITEM@@@std@@@3@$0A@@std@@@std@@QAE@XZ
_TEXT	SEGMENT PARA USE32 PUBLIC 'CODE'
_TEXT	ENDS
;	COMDAT ??Diterator@?$_Tree@V?$_Tmap_traits@KPAUtagTITEM@@U?$less@K@std@@V?$allocator@U?$pair@$$CBKPAUtagTITEM@@@std@@@3@$0A@@std@@@std@@QBEAAU?$pair@$$CBKPAUtagTITEM@@@2@XZ
_TEXT	SEGMENT PARA USE32 PUBLIC 'CODE'
_TEXT	ENDS
;	COMDAT ??Eiterator@?$_Tree@V?$_Tmap_traits@KPAUtagTITEM@@U?$less@K@std@@V?$allocator@U?$pair@$$CBKPAUtagTITEM@@@std@@@3@$0A@@std@@@std@@QAE?AV012@H@Z
_TEXT	SEGMENT PARA USE32 PUBLIC 'CODE'
_TEXT	ENDS
;	COMDAT ??9const_iterator@?$_Tree@V?$_Tmap_traits@KPAUtagTITEM@@U?$less@K@std@@V?$allocator@U?$pair@$$CBKPAUtagTITEM@@@std@@@3@$0A@@std@@@std@@QBE_NABV012@@Z
_TEXT	SEGMENT PARA USE32 PUBLIC 'CODE'
_TEXT	ENDS
;	COMDAT ??0iterator@?$_Tree@V?$_Tmap_traits@KPAUtagTGUILDARTICLE@@U?$less@K@std@@V?$allocator@U?$pair@$$CBKPAUtagTGUILDARTICLE@@@std@@@3@$0A@@std@@@std@@QAE@XZ
_TEXT	SEGMENT PARA USE32 PUBLIC 'CODE'
_TEXT	ENDS
;	COMDAT ??Diterator@?$_Tree@V?$_Tmap_traits@KPAUtagTGUILDARTICLE@@U?$less@K@std@@V?$allocator@U?$pair@$$CBKPAUtagTGUILDARTICLE@@@std@@@3@$0A@@std@@@std@@QBEAAU?$pair@$$CBKPAUtagTGUILDARTICLE@@@2@XZ
_TEXT	SEGMENT PARA USE32 PUBLIC 'CODE'
_TEXT	ENDS
;	COMDAT ??Eiterator@?$_Tree@V?$_Tmap_traits@KPAUtagTGUILDARTICLE@@U?$less@K@std@@V?$allocator@U?$pair@$$CBKPAUtagTGUILDARTICLE@@@std@@@3@$0A@@std@@@std@@QAE?AV012@H@Z
_TEXT	SEGMENT PARA USE32 PUBLIC 'CODE'
_TEXT	ENDS
;	COMDAT ??9const_iterator@?$_Tree@V?$_Tmap_traits@KPAUtagTGUILDARTICLE@@U?$less@K@std@@V?$allocator@U?$pair@$$CBKPAUtagTGUILDARTICLE@@@std@@@3@$0A@@std@@@std@@QBE_NABV012@@Z
_TEXT	SEGMENT PARA USE32 PUBLIC 'CODE'
_TEXT	ENDS
;	COMDAT ?begin@?$_Tree@V?$_Tmap_traits@KUtagTGUILDWANTED@@U?$less@K@std@@V?$allocator@U?$pair@$$CBKUtagTGUILDWANTED@@@std@@@3@$0A@@std@@@std@@QAE?AViterator@12@XZ
_TEXT	SEGMENT PARA USE32 PUBLIC 'CODE'
_TEXT	ENDS
;	COMDAT ?end@?$_Tree@V?$_Tmap_traits@KUtagTGUILDWANTED@@U?$less@K@std@@V?$allocator@U?$pair@$$CBKUtagTGUILDWANTED@@@std@@@3@$0A@@std@@@std@@QAE?AViterator@12@XZ
_TEXT	SEGMENT PARA USE32 PUBLIC 'CODE'
_TEXT	ENDS
;	COMDAT ??0iterator@?$_Tree@V?$_Tmap_traits@KUtagTGUILDWANTED@@U?$less@K@std@@V?$allocator@U?$pair@$$CBKUtagTGUILDWANTED@@@std@@@3@$0A@@std@@@std@@QAE@XZ
_TEXT	SEGMENT PARA USE32 PUBLIC 'CODE'
_TEXT	ENDS
;	COMDAT ??Diterator@?$_Tree@V?$_Tmap_traits@KUtagTGUILDWANTED@@U?$less@K@std@@V?$allocator@U?$pair@$$CBKUtagTGUILDWANTED@@@std@@@3@$0A@@std@@@std@@QBEAAU?$pair@$$CBKUtagTGUILDWANTED@@@2@XZ
_TEXT	SEGMENT PARA USE32 PUBLIC 'CODE'
_TEXT	ENDS
;	COMDAT ??Eiterator@?$_Tree@V?$_Tmap_traits@KUtagTGUILDWANTED@@U?$less@K@std@@V?$allocator@U?$pair@$$CBKUtagTGUILDWANTED@@@std@@@3@$0A@@std@@@std@@QAE?AV012@H@Z
_TEXT	SEGMENT PARA USE32 PUBLIC 'CODE'
_TEXT	ENDS
;	COMDAT ??9const_iterator@?$_Tree@V?$_Tmap_traits@KUtagTGUILDWANTED@@U?$less@K@std@@V?$allocator@U?$pair@$$CBKUtagTGUILDWANTED@@@std@@@3@$0A@@std@@@std@@QBE_NABV012@@Z
_TEXT	SEGMENT PARA USE32 PUBLIC 'CODE'
_TEXT	ENDS
;	COMDAT ??0iterator@?$_Tree@V?$_Tmap_traits@KPAUtagTGUILDWANTEDAPP@@U?$less@K@std@@V?$allocator@U?$pair@$$CBKPAUtagTGUILDWANTEDAPP@@@std@@@3@$0A@@std@@@std@@QAE@XZ
_TEXT	SEGMENT PARA USE32 PUBLIC 'CODE'
_TEXT	ENDS
;	COMDAT ??Diterator@?$_Tree@V?$_Tmap_traits@KPAUtagTGUILDWANTEDAPP@@U?$less@K@std@@V?$allocator@U?$pair@$$CBKPAUtagTGUILDWANTEDAPP@@@std@@@3@$0A@@std@@@std@@QBEAAU?$pair@$$CBKPAUtagTGUILDWANTEDAPP@@@2@XZ
_TEXT	SEGMENT PARA USE32 PUBLIC 'CODE'
_TEXT	ENDS
;	COMDAT ??Eiterator@?$_Tree@V?$_Tmap_traits@KPAUtagTGUILDWANTEDAPP@@U?$less@K@std@@V?$allocator@U?$pair@$$CBKPAUtagTGUILDWANTEDAPP@@@std@@@3@$0A@@std@@@std@@QAE?AV012@H@Z
_TEXT	SEGMENT PARA USE32 PUBLIC 'CODE'
_TEXT	ENDS
;	COMDAT ??9const_iterator@?$_Tree@V?$_Tmap_traits@KPAUtagTGUILDWANTEDAPP@@U?$less@K@std@@V?$allocator@U?$pair@$$CBKPAUtagTGUILDWANTEDAPP@@@std@@@3@$0A@@std@@@std@@QBE_NABV012@@Z
_TEXT	SEGMENT PARA USE32 PUBLIC 'CODE'
_TEXT	ENDS
;	COMDAT ?begin@?$_Tree@V?$_Tmap_traits@KV?$vector@UtagTGUILDTACTICSWANTED@@V?$allocator@UtagTGUILDTACTICSWANTED@@@std@@@std@@U?$less@K@2@V?$allocator@U?$pair@$$CBKV?$vector@UtagTGUILDTACTICSWANTED@@V?$allocator@UtagTGUILDTACTICSWANTED@@@std@@@std@@@std@@@2@$0A@@std@@@std@@QAE?AViterator@12@XZ
_TEXT	SEGMENT PARA USE32 PUBLIC 'CODE'
_TEXT	ENDS
;	COMDAT ?end@?$_Tree@V?$_Tmap_traits@KV?$vector@UtagTGUILDTACTICSWANTED@@V?$allocator@UtagTGUILDTACTICSWANTED@@@std@@@std@@U?$less@K@2@V?$allocator@U?$pair@$$CBKV?$vector@UtagTGUILDTACTICSWANTED@@V?$allocator@UtagTGUILDTACTICSWANTED@@@std@@@std@@@std@@@2@$0A@@std@@@std@@QAE?AViterator@12@XZ
_TEXT	SEGMENT PARA USE32 PUBLIC 'CODE'
_TEXT	ENDS
;	COMDAT ??0iterator@?$_Tree@V?$_Tmap_traits@KV?$vector@UtagTGUILDTACTICSWANTED@@V?$allocator@UtagTGUILDTACTICSWANTED@@@std@@@std@@U?$less@K@2@V?$allocator@U?$pair@$$CBKV?$vector@UtagTGUILDTACTICSWANTED@@V?$allocator@UtagTGUILDTACTICSWANTED@@@std@@@std@@@std@@@2@$0A@@std@@@std@@QAE@XZ
_TEXT	SEGMENT PARA USE32 PUBLIC 'CODE'
_TEXT	ENDS
;	COMDAT ??Diterator@?$_Tree@V?$_Tmap_traits@KV?$vector@UtagTGUILDTACTICSWANTED@@V?$allocator@UtagTGUILDTACTICSWANTED@@@std@@@std@@U?$less@K@2@V?$allocator@U?$pair@$$CBKV?$vector@UtagTGUILDTACTICSWANTED@@V?$allocator@UtagTGUILDTACTICSWANTED@@@std@@@std@@@std@@@2@$0A@@std@@@std@@QBEAAU?$pair@$$CBKV?$vector@UtagTGUILDTACTICSWANTED@@V?$allocator@UtagTGUILDTACTICSWANTED@@@std@@@std@@@2@XZ
_TEXT	SEGMENT PARA USE32 PUBLIC 'CODE'
_TEXT	ENDS
;	COMDAT ??Eiterator@?$_Tree@V?$_Tmap_traits@KV?$vector@UtagTGUILDTACTICSWANTED@@V?$allocator@UtagTGUILDTACTICSWANTED@@@std@@@std@@U?$less@K@2@V?$allocator@U?$pair@$$CBKV?$vector@UtagTGUILDTACTICSWANTED@@V?$allocator@UtagTGUILDTACTICSWANTED@@@std@@@std@@@std@@@2@$0A@@std@@@std@@QAE?AV012@H@Z
_TEXT	SEGMENT PARA USE32 PUBLIC 'CODE'
_TEXT	ENDS
;	COMDAT ??9const_iterator@?$_Tree@V?$_Tmap_traits@KV?$vector@UtagTGUILDTACTICSWANTED@@V?$allocator@UtagTGUILDTACTICSWANTED@@@std@@@std@@U?$less@K@2@V?$allocator@U?$pair@$$CBKV?$vector@UtagTGUILDTACTICSWANTED@@V?$allocator@UtagTGUILDTACTICSWANTED@@@std@@@std@@@std@@@2@$0A@@std@@@std@@QBE_NABV012@@Z
_TEXT	SEGMENT PARA USE32 PUBLIC 'CODE'
_TEXT	ENDS
;	COMDAT ?size@?$vector@UtagTGUILDTACTICSWANTED@@V?$allocator@UtagTGUILDTACTICSWANTED@@@std@@@std@@QBEIXZ
_TEXT	SEGMENT PARA USE32 PUBLIC 'CODE'
_TEXT	ENDS
;	COMDAT ??A?$vector@UtagTGUILDTACTICSWANTED@@V?$allocator@UtagTGUILDTACTICSWANTED@@@std@@@std@@QAEAAUtagTGUILDTACTICSWANTED@@I@Z
_TEXT	SEGMENT PARA USE32 PUBLIC 'CODE'
_TEXT	ENDS
;	COMDAT ??0iterator@?$_Tree@V?$_Tmap_traits@KPAUtagTGUILDTACTICSWANTEDAPP@@U?$less@K@std@@V?$allocator@U?$pair@$$CBKPAUtagTGUILDTACTICSWANTEDAPP@@@std@@@3@$0A@@std@@@std@@QAE@XZ
_TEXT	SEGMENT PARA USE32 PUBLIC 'CODE'
_TEXT	ENDS
;	COMDAT ??Diterator@?$_Tree@V?$_Tmap_traits@KPAUtagTGUILDTACTICSWANTEDAPP@@U?$less@K@std@@V?$allocator@U?$pair@$$CBKPAUtagTGUILDTACTICSWANTEDAPP@@@std@@@3@$0A@@std@@@std@@QBEAAU?$pair@$$CBKPAUtagTGUILDTACTICSWANTEDAPP@@@2@XZ
_TEXT	SEGMENT PARA USE32 PUBLIC 'CODE'
_TEXT	ENDS
;	COMDAT ??Eiterator@?$_Tree@V?$_Tmap_traits@KPAUtagTGUILDTACTICSWANTEDAPP@@U?$less@K@std@@V?$allocator@U?$pair@$$CBKPAUtagTGUILDTACTICSWANTEDAPP@@@std@@@3@$0A@@std@@@std@@QAE?AV012@H@Z
_TEXT	SEGMENT PARA USE32 PUBLIC 'CODE'
_TEXT	ENDS
;	COMDAT ??9const_iterator@?$_Tree@V?$_Tmap_traits@KPAUtagTGUILDTACTICSWANTEDAPP@@U?$less@K@std@@V?$allocator@U?$pair@$$CBKPAUtagTGUILDTACTICSWANTEDAPP@@@std@@@3@$0A@@std@@@std@@QBE_NABV012@@Z
_TEXT	SEGMENT PARA USE32 PUBLIC 'CODE'
_TEXT	ENDS
;	COMDAT ??0iterator@?$_Tree@V?$_Tmap_traits@KPAUtagTTACTICSMEMBER@@U?$less@K@std@@V?$allocator@U?$pair@$$CBKPAUtagTTACTICSMEMBER@@@std@@@3@$0A@@std@@@std@@QAE@XZ
_TEXT	SEGMENT PARA USE32 PUBLIC 'CODE'
_TEXT	ENDS
;	COMDAT ??Diterator@?$_Tree@V?$_Tmap_traits@KPAUtagTTACTICSMEMBER@@U?$less@K@std@@V?$allocator@U?$pair@$$CBKPAUtagTTACTICSMEMBER@@@std@@@3@$0A@@std@@@std@@QBEAAU?$pair@$$CBKPAUtagTTACTICSMEMBER@@@2@XZ
_TEXT	SEGMENT PARA USE32 PUBLIC 'CODE'
_TEXT	ENDS
;	COMDAT ??Eiterator@?$_Tree@V?$_Tmap_traits@KPAUtagTTACTICSMEMBER@@U?$less@K@std@@V?$allocator@U?$pair@$$CBKPAUtagTTACTICSMEMBER@@@std@@@3@$0A@@std@@@std@@QAE?AV012@H@Z
_TEXT	SEGMENT PARA USE32 PUBLIC 'CODE'
_TEXT	ENDS
;	COMDAT ??9const_iterator@?$_Tree@V?$_Tmap_traits@KPAUtagTTACTICSMEMBER@@U?$less@K@std@@V?$allocator@U?$pair@$$CBKPAUtagTTACTICSMEMBER@@@std@@@3@$0A@@std@@@std@@QBE_NABV012@@Z
_TEXT	SEGMENT PARA USE32 PUBLIC 'CODE'
_TEXT	ENDS
;	COMDAT ??0iterator@?$_Tree@V?$_Tmap_traits@KPAUtagTCHARACTER@@U?$less@K@std@@V?$allocator@U?$pair@$$CBKPAUtagTCHARACTER@@@std@@@3@$0A@@std@@@std@@QAE@XZ
_TEXT	SEGMENT PARA USE32 PUBLIC 'CODE'
_TEXT	ENDS
;	COMDAT ??Diterator@?$_Tree@V?$_Tmap_traits@KPAUtagTCHARACTER@@U?$less@K@std@@V?$allocator@U?$pair@$$CBKPAUtagTCHARACTER@@@std@@@3@$0A@@std@@@std@@QBEAAU?$pair@$$CBKPAUtagTCHARACTER@@@2@XZ
_TEXT	SEGMENT PARA USE32 PUBLIC 'CODE'
_TEXT	ENDS
;	COMDAT ??Eiterator@?$_Tree@V?$_Tmap_traits@KPAUtagTCHARACTER@@U?$less@K@std@@V?$allocator@U?$pair@$$CBKPAUtagTCHARACTER@@@std@@@3@$0A@@std@@@std@@QAE?AV012@H@Z
_TEXT	SEGMENT PARA USE32 PUBLIC 'CODE'
_TEXT	ENDS
;	COMDAT ??9const_iterator@?$_Tree@V?$_Tmap_traits@KPAUtagTCHARACTER@@U?$less@K@std@@V?$allocator@U?$pair@$$CBKPAUtagTCHARACTER@@@std@@@3@$0A@@std@@@std@@QBE_NABV012@@Z
_TEXT	SEGMENT PARA USE32 PUBLIC 'CODE'
_TEXT	ENDS
;	COMDAT ?begin@?$_Tree@V?$_Tmap_traits@EPAUtagTOURNAMENTENTRY@@U?$less@E@std@@V?$allocator@U?$pair@$$CBEPAUtagTOURNAMENTENTRY@@@std@@@3@$0A@@std@@@std@@QAE?AViterator@12@XZ
_TEXT	SEGMENT PARA USE32 PUBLIC 'CODE'
_TEXT	ENDS
;	COMDAT ?end@?$_Tree@V?$_Tmap_traits@EPAUtagTOURNAMENTENTRY@@U?$less@E@std@@V?$allocator@U?$pair@$$CBEPAUtagTOURNAMENTENTRY@@@std@@@3@$0A@@std@@@std@@QAE?AViterator@12@XZ
_TEXT	SEGMENT PARA USE32 PUBLIC 'CODE'
_TEXT	ENDS
;	COMDAT ?size@?$_Tree@V?$_Tmap_traits@EPAUtagTOURNAMENTENTRY@@U?$less@E@std@@V?$allocator@U?$pair@$$CBEPAUtagTOURNAMENTENTRY@@@std@@@3@$0A@@std@@@std@@QBEIXZ
_TEXT	SEGMENT PARA USE32 PUBLIC 'CODE'
_TEXT	ENDS
;	COMDAT ??0iterator@?$_Tree@V?$_Tmap_traits@EPAUtagTOURNAMENTENTRY@@U?$less@E@std@@V?$allocator@U?$pair@$$CBEPAUtagTOURNAMENTENTRY@@@std@@@3@$0A@@std@@@std@@QAE@XZ
_TEXT	SEGMENT PARA USE32 PUBLIC 'CODE'
_TEXT	ENDS
;	COMDAT ??Diterator@?$_Tree@V?$_Tmap_traits@EPAUtagTOURNAMENTENTRY@@U?$less@E@std@@V?$allocator@U?$pair@$$CBEPAUtagTOURNAMENTENTRY@@@std@@@3@$0A@@std@@@std@@QBEAAU?$pair@$$CBEPAUtagTOURNAMENTENTRY@@@2@XZ
_TEXT	SEGMENT PARA USE32 PUBLIC 'CODE'
_TEXT	ENDS
;	COMDAT ??Eiterator@?$_Tree@V?$_Tmap_traits@EPAUtagTOURNAMENTENTRY@@U?$less@E@std@@V?$allocator@U?$pair@$$CBEPAUtagTOURNAMENTENTRY@@@std@@@3@$0A@@std@@@std@@QAE?AV012@H@Z
_TEXT	SEGMENT PARA USE32 PUBLIC 'CODE'
_TEXT	ENDS
;	COMDAT ??9const_iterator@?$_Tree@V?$_Tmap_traits@EPAUtagTOURNAMENTENTRY@@U?$less@E@std@@V?$allocator@U?$pair@$$CBEPAUtagTOURNAMENTENTRY@@@std@@@3@$0A@@std@@@std@@QBE_NABV012@@Z
_TEXT	SEGMENT PARA USE32 PUBLIC 'CODE'
_TEXT	ENDS
;	COMDAT ?_Lmost@?$_Tree@V?$_Tmap_traits@KPAUtagTCHARACTER@@U?$less@K@std@@V?$allocator@U?$pair@$$CBKPAUtagTCHARACTER@@@std@@@3@$0A@@std@@@std@@IAEAAPAU_Node@?$_Tree_nod@V?$_Tmap_traits@KPAUtagTCHARACTER@@U?$less@K@std@@V?$allocator@U?$pair@$$CBKPAUtagTCHARACTER@@@std@@@3@$0A@@std@@@2@XZ
_TEXT	SEGMENT PARA USE32 PUBLIC 'CODE'
_TEXT	ENDS
;	COMDAT ??R?$less@K@std@@QBE_NABK0@Z
_TEXT	SEGMENT PARA USE32 PUBLIC 'CODE'
_TEXT	ENDS
;	COMDAT ?end@?$vector@UtagTENTRYRECORD@@V?$allocator@UtagTENTRYRECORD@@@std@@@std@@QAE?AViterator@12@XZ
_TEXT	SEGMENT PARA USE32 PUBLIC 'CODE'
_TEXT	ENDS
;	COMDAT ?_Lmost@?$_Tree@V?$_Tmap_traits@KPAUtagTGUILDWANTEDAPP@@U?$less@K@std@@V?$allocator@U?$pair@$$CBKPAUtagTGUILDWANTEDAPP@@@std@@@3@$0A@@std@@@std@@IAEAAPAU_Node@?$_Tree_nod@V?$_Tmap_traits@KPAUtagTGUILDWANTEDAPP@@U?$less@K@std@@V?$allocator@U?$pair@$$CBKPAUtagTGUILDWANTEDAPP@@@std@@@3@$0A@@std@@@2@XZ
_TEXT	SEGMENT PARA USE32 PUBLIC 'CODE'
_TEXT	ENDS
;	COMDAT ?_Lmost@?$_Tree@V?$_Tmap_traits@KPAUtagTGUILDTACTICSWANTEDAPP@@U?$less@K@std@@V?$allocator@U?$pair@$$CBKPAUtagTGUILDTACTICSWANTEDAPP@@@std@@@3@$0A@@std@@@std@@IAEAAPAU_Node@?$_Tree_nod@V?$_Tmap_traits@KPAUtagTGUILDTACTICSWANTEDAPP@@U?$less@K@std@@V?$allocator@U?$pair@$$CBKPAUtagTGUILDTACTICSWANTEDAPP@@@std@@@3@$0A@@std@@@2@XZ
_TEXT	SEGMENT PARA USE32 PUBLIC 'CODE'
_TEXT	ENDS
;	COMDAT ?_Key@?$_Tree@V?$_Tmap_traits@KPAUtagTSOULMATE@@U?$less@K@std@@V?$allocator@U?$pair@$$CBKPAUtagTSOULMATE@@@std@@@3@$0A@@std@@@std@@KAABKPAU_Node@?$_Tree_nod@V?$_Tmap_traits@KPAUtagTSOULMATE@@U?$less@K@std@@V?$allocator@U?$pair@$$CBKPAUtagTSOULMATE@@@std@@@3@$0A@@std@@@2@@Z
_TEXT	SEGMENT PARA USE32 PUBLIC 'CODE'
_TEXT	ENDS
;	COMDAT ?lower_bound@?$_Tree@V?$_Tmap_traits@KPAUtagTSOULMATE@@U?$less@K@std@@V?$allocator@U?$pair@$$CBKPAUtagTSOULMATE@@@std@@@3@$0A@@std@@@std@@QAE?AViterator@12@ABK@Z
_TEXT	SEGMENT PARA USE32 PUBLIC 'CODE'
_TEXT	ENDS
;	COMDAT ?_Xran@?$vector@UtagTCASHITMSALE@@V?$allocator@UtagTCASHITMSALE@@@std@@@std@@IBEXXZ
_TEXT	SEGMENT PARA USE32 PUBLIC 'CODE'
_TEXT	ENDS
;	COMDAT ?begin@?$vector@PAUtagTCHARACTER@@V?$allocator@PAUtagTCHARACTER@@@std@@@std@@QAE?AViterator@12@XZ
_TEXT	SEGMENT PARA USE32 PUBLIC 'CODE'
_TEXT	ENDS
;	COMDAT ?begin@?$vector@UtagTNMTREWARD@@V?$allocator@UtagTNMTREWARD@@@std@@@std@@QAE?AViterator@12@XZ
_TEXT	SEGMENT PARA USE32 PUBLIC 'CODE'
_TEXT	ENDS
;	COMDAT ?begin@?$vector@_JV?$allocator@_J@std@@@std@@QBE?AVconst_iterator@12@XZ
_TEXT	SEGMENT PARA USE32 PUBLIC 'CODE'
_TEXT	ENDS
;	COMDAT ?end@?$vector@_JV?$allocator@_J@std@@@std@@QBE?AVconst_iterator@12@XZ
_TEXT	SEGMENT PARA USE32 PUBLIC 'CODE'
_TEXT	ENDS
;	COMDAT ?size@?$vector@_JV?$allocator@_J@std@@@std@@QBEIXZ
_TEXT	SEGMENT PARA USE32 PUBLIC 'CODE'
_TEXT	ENDS
;	COMDAT ?_Buy@?$vector@_JV?$allocator@_J@std@@@std@@IAE_NI@Z
_TEXT	SEGMENT PARA USE32 PUBLIC 'CODE'
_TEXT	ENDS
;	COMDAT ?_Tidy@?$vector@_JV?$allocator@_J@std@@@std@@IAEXXZ
_TEXT	SEGMENT PARA USE32 PUBLIC 'CODE'
_TEXT	ENDS
;	COMDAT ??0?$_Vector_val@_JV?$allocator@_J@std@@@std@@IAE@V?$allocator@_J@1@@Z
_TEXT	SEGMENT PARA USE32 PUBLIC 'CODE'
_TEXT	ENDS
;	COMDAT ??0?$allocator@_J@std@@QAE@ABV01@@Z
_TEXT	SEGMENT PARA USE32 PUBLIC 'CODE'
_TEXT	ENDS
;	COMDAT ?_Lmost@?$_Tree@V?$_Tmap_traits@KPAUtagTITEM@@U?$less@K@std@@V?$allocator@U?$pair@$$CBKPAUtagTITEM@@@std@@@3@$0A@@std@@@std@@IAEAAPAU_Node@?$_Tree_nod@V?$_Tmap_traits@KPAUtagTITEM@@U?$less@K@std@@V?$allocator@U?$pair@$$CBKPAUtagTITEM@@@std@@@3@$0A@@std@@@2@XZ
_TEXT	SEGMENT PARA USE32 PUBLIC 'CODE'
_TEXT	ENDS
;	COMDAT ?_Lmost@?$_Tree@V?$_Tmap_traits@KPAUtagTGUILDMEMBER@@U?$less@K@std@@V?$allocator@U?$pair@$$CBKPAUtagTGUILDMEMBER@@@std@@@3@$0A@@std@@@std@@IAEAAPAU_Node@?$_Tree_nod@V?$_Tmap_traits@KPAUtagTGUILDMEMBER@@U?$less@K@std@@V?$allocator@U?$pair@$$CBKPAUtagTGUILDMEMBER@@@std@@@3@$0A@@std@@@2@XZ
_TEXT	SEGMENT PARA USE32 PUBLIC 'CODE'
_TEXT	ENDS
;	COMDAT ?_Lmost@?$_Tree@V?$_Tmap_traits@KPAUtagTTACTICSMEMBER@@U?$less@K@std@@V?$allocator@U?$pair@$$CBKPAUtagTTACTICSMEMBER@@@std@@@3@$0A@@std@@@std@@IAEAAPAU_Node@?$_Tree_nod@V?$_Tmap_traits@KPAUtagTTACTICSMEMBER@@U?$less@K@std@@V?$allocator@U?$pair@$$CBKPAUtagTTACTICSMEMBER@@@std@@@3@$0A@@std@@@2@XZ
_TEXT	SEGMENT PARA USE32 PUBLIC 'CODE'
_TEXT	ENDS
;	COMDAT ?_Lmost@?$_Tree@V?$_Tmap_traits@KPAUtagTGUILDARTICLE@@U?$less@K@std@@V?$allocator@U?$pair@$$CBKPAUtagTGUILDARTICLE@@@std@@@3@$0A@@std@@@std@@IAEAAPAU_Node@?$_Tree_nod@V?$_Tmap_traits@KPAUtagTGUILDARTICLE@@U?$less@K@std@@V?$allocator@U?$pair@$$CBKPAUtagTGUILDARTICLE@@@std@@@3@$0A@@std@@@2@XZ
_TEXT	SEGMENT PARA USE32 PUBLIC 'CODE'
_TEXT	ENDS
;	COMDAT ?begin@?$vector@KV?$allocator@K@std@@@std@@QAE?AViterator@12@XZ
_TEXT	SEGMENT PARA USE32 PUBLIC 'CODE'
_TEXT	ENDS
;	COMDAT ?begin@?$vector@UtagTGUILDPOINTREWARD@@V?$allocator@UtagTGUILDPOINTREWARD@@@std@@@std@@QAE?AViterator@12@XZ
_TEXT	SEGMENT PARA USE32 PUBLIC 'CODE'
_TEXT	ENDS
;	COMDAT ??0const_iterator@?$_Tree@V?$_Tmap_traits@KPAUtagTNMTPLAYER@@U?$less@K@std@@V?$allocator@U?$pair@$$CBKPAUtagTNMTPLAYER@@@std@@@3@$0A@@std@@@std@@QAE@XZ
_TEXT	SEGMENT PARA USE32 PUBLIC 'CODE'
_TEXT	ENDS
;	COMDAT ??Dconst_iterator@?$_Tree@V?$_Tmap_traits@KPAUtagTNMTPLAYER@@U?$less@K@std@@V?$allocator@U?$pair@$$CBKPAUtagTNMTPLAYER@@@std@@@3@$0A@@std@@@std@@QBEABU?$pair@$$CBKPAUtagTNMTPLAYER@@@2@XZ
_TEXT	SEGMENT PARA USE32 PUBLIC 'CODE'
_TEXT	ENDS
;	COMDAT ??0const_iterator@?$_Tree@V?$_Tmap_traits@EV?$CStringT@DV?$StrTraitATL@DV?$ChTraitsCRT@D@ATL@@@ATL@@@ATL@@U?$less@E@std@@V?$allocator@U?$pair@$$CBEV?$CStringT@DV?$StrTraitATL@DV?$ChTraitsCRT@D@ATL@@@ATL@@@ATL@@@std@@@4@$0A@@std@@@std@@QAE@XZ
_TEXT	SEGMENT PARA USE32 PUBLIC 'CODE'
_TEXT	ENDS
;	COMDAT ??Dconst_iterator@?$_Tree@V?$_Tmap_traits@EV?$CStringT@DV?$StrTraitATL@DV?$ChTraitsCRT@D@ATL@@@ATL@@@ATL@@U?$less@E@std@@V?$allocator@U?$pair@$$CBEV?$CStringT@DV?$StrTraitATL@DV?$ChTraitsCRT@D@ATL@@@ATL@@@ATL@@@std@@@4@$0A@@std@@@std@@QBEABU?$pair@$$CBEV?$CStringT@DV?$StrTraitATL@DV?$ChTraitsCRT@D@ATL@@@ATL@@@ATL@@@2@XZ
_TEXT	SEGMENT PARA USE32 PUBLIC 'CODE'
_TEXT	ENDS
;	COMDAT ??0const_iterator@?$_Tree@V?$_Tmap_traits@KKU?$less@K@std@@V?$allocator@U?$pair@$$CBKK@std@@@2@$0A@@std@@@std@@QAE@XZ
_TEXT	SEGMENT PARA USE32 PUBLIC 'CODE'
_TEXT	ENDS
;	COMDAT ??Dconst_iterator@?$_Tree@V?$_Tmap_traits@KKU?$less@K@std@@V?$allocator@U?$pair@$$CBKK@std@@@2@$0A@@std@@@std@@QBEABU?$pair@$$CBKK@2@XZ
_TEXT	SEGMENT PARA USE32 PUBLIC 'CODE'
_TEXT	ENDS
;	COMDAT ??Diterator@?$_Tree@V?$_Tmap_traits@EUtagCASTLETOP3@@U?$less@E@std@@V?$allocator@U?$pair@$$CBEUtagCASTLETOP3@@@std@@@3@$0A@@std@@@std@@QBEAAU?$pair@$$CBEUtagCASTLETOP3@@@2@XZ
_TEXT	SEGMENT PARA USE32 PUBLIC 'CODE'
_TEXT	ENDS
;	COMDAT ??0const_iterator@?$_Tree@V?$_Tmap_traits@EUtagCASTLETOP3@@U?$less@E@std@@V?$allocator@U?$pair@$$CBEUtagCASTLETOP3@@@std@@@3@$0A@@std@@@std@@QAE@XZ
_TEXT	SEGMENT PARA USE32 PUBLIC 'CODE'
_TEXT	ENDS
;	COMDAT ?_Lmost@?$_Tree@V?$_Tmap_traits@GUtagTRPSGAME@@U?$less@G@std@@V?$allocator@U?$pair@$$CBGUtagTRPSGAME@@@std@@@3@$0A@@std@@@std@@IAEAAPAU_Node@?$_Tree_nod@V?$_Tmap_traits@GUtagTRPSGAME@@U?$less@G@std@@V?$allocator@U?$pair@$$CBGUtagTRPSGAME@@@std@@@3@$0A@@std@@@2@XZ
_TEXT	SEGMENT PARA USE32 PUBLIC 'CODE'
_TEXT	ENDS
;	COMDAT ??0iterator@?$_Tree@V?$_Tmap_traits@GUtagTRPSGAME@@U?$less@G@std@@V?$allocator@U?$pair@$$CBGUtagTRPSGAME@@@std@@@3@$0A@@std@@@std@@QAE@PAU_Node@?$_Tree_nod@V?$_Tmap_traits@GUtagTRPSGAME@@U?$less@G@std@@V?$allocator@U?$pair@$$CBGUtagTRPSGAME@@@std@@@3@$0A@@std@@@2@@Z
_TEXT	SEGMENT PARA USE32 PUBLIC 'CODE'
_TEXT	ENDS
;	COMDAT ??Eiterator@?$_Tree@V?$_Tmap_traits@GUtagTRPSGAME@@U?$less@G@std@@V?$allocator@U?$pair@$$CBGUtagTRPSGAME@@@std@@@3@$0A@@std@@@std@@QAEAAV012@XZ
_TEXT	SEGMENT PARA USE32 PUBLIC 'CODE'
_TEXT	ENDS
;	COMDAT ??0const_iterator@?$_Tree@V?$_Tmap_traits@GUtagTRPSGAME@@U?$less@G@std@@V?$allocator@U?$pair@$$CBGUtagTRPSGAME@@@std@@@3@$0A@@std@@@std@@QAE@XZ
_TEXT	SEGMENT PARA USE32 PUBLIC 'CODE'
_TEXT	ENDS
;	COMDAT ??Dconst_iterator@?$_Tree@V?$_Tmap_traits@GUtagTRPSGAME@@U?$less@G@std@@V?$allocator@U?$pair@$$CBGUtagTRPSGAME@@@std@@@3@$0A@@std@@@std@@QBEABU?$pair@$$CBGUtagTRPSGAME@@@2@XZ
_TEXT	SEGMENT PARA USE32 PUBLIC 'CODE'
_TEXT	ENDS
;	COMDAT ??8const_iterator@?$_Tree@V?$_Tmap_traits@GUtagTRPSGAME@@U?$less@G@std@@V?$allocator@U?$pair@$$CBGUtagTRPSGAME@@@std@@@3@$0A@@std@@@std@@QBE_NABV012@@Z
_TEXT	SEGMENT PARA USE32 PUBLIC 'CODE'
_TEXT	ENDS
;	COMDAT ?begin@?$vector@ULOTPACKET@@V?$allocator@ULOTPACKET@@@std@@@std@@QAE?AViterator@12@XZ
_TEXT	SEGMENT PARA USE32 PUBLIC 'CODE'
_TEXT	ENDS
;	COMDAT ??0iterator@?$_Tree@V?$_Tmap_traits@KPAUtagTGUILDMEMBER@@U?$less@K@std@@V?$allocator@U?$pair@$$CBKPAUtagTGUILDMEMBER@@@std@@@3@$0A@@std@@@std@@QAE@PAU_Node@?$_Tree_nod@V?$_Tmap_traits@KPAUtagTGUILDMEMBER@@U?$less@K@std@@V?$allocator@U?$pair@$$CBKPAUtagTGUILDMEMBER@@@std@@@3@$0A@@std@@@2@@Z
_TEXT	SEGMENT PARA USE32 PUBLIC 'CODE'
_TEXT	ENDS
;	COMDAT ??Eiterator@?$_Tree@V?$_Tmap_traits@KPAUtagTGUILDMEMBER@@U?$less@K@std@@V?$allocator@U?$pair@$$CBKPAUtagTGUILDMEMBER@@@std@@@3@$0A@@std@@@std@@QAEAAV012@XZ
_TEXT	SEGMENT PARA USE32 PUBLIC 'CODE'
_TEXT	ENDS
;	COMDAT ??0const_iterator@?$_Tree@V?$_Tmap_traits@KPAUtagTGUILDMEMBER@@U?$less@K@std@@V?$allocator@U?$pair@$$CBKPAUtagTGUILDMEMBER@@@std@@@3@$0A@@std@@@std@@QAE@XZ
_TEXT	SEGMENT PARA USE32 PUBLIC 'CODE'
_TEXT	ENDS
;	COMDAT ??Dconst_iterator@?$_Tree@V?$_Tmap_traits@KPAUtagTGUILDMEMBER@@U?$less@K@std@@V?$allocator@U?$pair@$$CBKPAUtagTGUILDMEMBER@@@std@@@3@$0A@@std@@@std@@QBEABU?$pair@$$CBKPAUtagTGUILDMEMBER@@@2@XZ
_TEXT	SEGMENT PARA USE32 PUBLIC 'CODE'
_TEXT	ENDS
;	COMDAT ??8const_iterator@?$_Tree@V?$_Tmap_traits@KPAUtagTGUILDMEMBER@@U?$less@K@std@@V?$allocator@U?$pair@$$CBKPAUtagTGUILDMEMBER@@@std@@@3@$0A@@std@@@std@@QBE_NABV012@@Z
_TEXT	SEGMENT PARA USE32 PUBLIC 'CODE'
_TEXT	ENDS
;	COMDAT ??0iterator@?$_Tree@V?$_Tmap_traits@KPAUtagTITEM@@U?$less@K@std@@V?$allocator@U?$pair@$$CBKPAUtagTITEM@@@std@@@3@$0A@@std@@@std@@QAE@PAU_Node@?$_Tree_nod@V?$_Tmap_traits@KPAUtagTITEM@@U?$less@K@std@@V?$allocator@U?$pair@$$CBKPAUtagTITEM@@@std@@@3@$0A@@std@@@2@@Z
_TEXT	SEGMENT PARA USE32 PUBLIC 'CODE'
_TEXT	ENDS
;	COMDAT ??Eiterator@?$_Tree@V?$_Tmap_traits@KPAUtagTITEM@@U?$less@K@std@@V?$allocator@U?$pair@$$CBKPAUtagTITEM@@@std@@@3@$0A@@std@@@std@@QAEAAV012@XZ
_TEXT	SEGMENT PARA USE32 PUBLIC 'CODE'
_TEXT	ENDS
;	COMDAT ??0const_iterator@?$_Tree@V?$_Tmap_traits@KPAUtagTITEM@@U?$less@K@std@@V?$allocator@U?$pair@$$CBKPAUtagTITEM@@@std@@@3@$0A@@std@@@std@@QAE@XZ
_TEXT	SEGMENT PARA USE32 PUBLIC 'CODE'
_TEXT	ENDS
;	COMDAT ??Dconst_iterator@?$_Tree@V?$_Tmap_traits@KPAUtagTITEM@@U?$less@K@std@@V?$allocator@U?$pair@$$CBKPAUtagTITEM@@@std@@@3@$0A@@std@@@std@@QBEABU?$pair@$$CBKPAUtagTITEM@@@2@XZ
_TEXT	SEGMENT PARA USE32 PUBLIC 'CODE'
_TEXT	ENDS
;	COMDAT ??8const_iterator@?$_Tree@V?$_Tmap_traits@KPAUtagTITEM@@U?$less@K@std@@V?$allocator@U?$pair@$$CBKPAUtagTITEM@@@std@@@3@$0A@@std@@@std@@QBE_NABV012@@Z
_TEXT	SEGMENT PARA USE32 PUBLIC 'CODE'
_TEXT	ENDS
;	COMDAT ??0iterator@?$_Tree@V?$_Tmap_traits@KPAUtagTGUILDARTICLE@@U?$less@K@std@@V?$allocator@U?$pair@$$CBKPAUtagTGUILDARTICLE@@@std@@@3@$0A@@std@@@std@@QAE@PAU_Node@?$_Tree_nod@V?$_Tmap_traits@KPAUtagTGUILDARTICLE@@U?$less@K@std@@V?$allocator@U?$pair@$$CBKPAUtagTGUILDARTICLE@@@std@@@3@$0A@@std@@@2@@Z
_TEXT	SEGMENT PARA USE32 PUBLIC 'CODE'
_TEXT	ENDS
;	COMDAT ??Eiterator@?$_Tree@V?$_Tmap_traits@KPAUtagTGUILDARTICLE@@U?$less@K@std@@V?$allocator@U?$pair@$$CBKPAUtagTGUILDARTICLE@@@std@@@3@$0A@@std@@@std@@QAEAAV012@XZ
_TEXT	SEGMENT PARA USE32 PUBLIC 'CODE'
_TEXT	ENDS
;	COMDAT ??0const_iterator@?$_Tree@V?$_Tmap_traits@KPAUtagTGUILDARTICLE@@U?$less@K@std@@V?$allocator@U?$pair@$$CBKPAUtagTGUILDARTICLE@@@std@@@3@$0A@@std@@@std@@QAE@XZ
_TEXT	SEGMENT PARA USE32 PUBLIC 'CODE'
_TEXT	ENDS
;	COMDAT ??Dconst_iterator@?$_Tree@V?$_Tmap_traits@KPAUtagTGUILDARTICLE@@U?$less@K@std@@V?$allocator@U?$pair@$$CBKPAUtagTGUILDARTICLE@@@std@@@3@$0A@@std@@@std@@QBEABU?$pair@$$CBKPAUtagTGUILDARTICLE@@@2@XZ
_TEXT	SEGMENT PARA USE32 PUBLIC 'CODE'
_TEXT	ENDS
;	COMDAT ??8const_iterator@?$_Tree@V?$_Tmap_traits@KPAUtagTGUILDARTICLE@@U?$less@K@std@@V?$allocator@U?$pair@$$CBKPAUtagTGUILDARTICLE@@@std@@@3@$0A@@std@@@std@@QBE_NABV012@@Z
_TEXT	SEGMENT PARA USE32 PUBLIC 'CODE'
_TEXT	ENDS
;	COMDAT ?_Lmost@?$_Tree@V?$_Tmap_traits@KUtagTGUILDWANTED@@U?$less@K@std@@V?$allocator@U?$pair@$$CBKUtagTGUILDWANTED@@@std@@@3@$0A@@std@@@std@@IAEAAPAU_Node@?$_Tree_nod@V?$_Tmap_traits@KUtagTGUILDWANTED@@U?$less@K@std@@V?$allocator@U?$pair@$$CBKUtagTGUILDWANTED@@@std@@@3@$0A@@std@@@2@XZ
_TEXT	SEGMENT PARA USE32 PUBLIC 'CODE'
_TEXT	ENDS
;	COMDAT ??0iterator@?$_Tree@V?$_Tmap_traits@KUtagTGUILDWANTED@@U?$less@K@std@@V?$allocator@U?$pair@$$CBKUtagTGUILDWANTED@@@std@@@3@$0A@@std@@@std@@QAE@PAU_Node@?$_Tree_nod@V?$_Tmap_traits@KUtagTGUILDWANTED@@U?$less@K@std@@V?$allocator@U?$pair@$$CBKUtagTGUILDWANTED@@@std@@@3@$0A@@std@@@2@@Z
_TEXT	SEGMENT PARA USE32 PUBLIC 'CODE'
_TEXT	ENDS
;	COMDAT ??Eiterator@?$_Tree@V?$_Tmap_traits@KUtagTGUILDWANTED@@U?$less@K@std@@V?$allocator@U?$pair@$$CBKUtagTGUILDWANTED@@@std@@@3@$0A@@std@@@std@@QAEAAV012@XZ
_TEXT	SEGMENT PARA USE32 PUBLIC 'CODE'
_TEXT	ENDS
;	COMDAT ??0const_iterator@?$_Tree@V?$_Tmap_traits@KUtagTGUILDWANTED@@U?$less@K@std@@V?$allocator@U?$pair@$$CBKUtagTGUILDWANTED@@@std@@@3@$0A@@std@@@std@@QAE@XZ
_TEXT	SEGMENT PARA USE32 PUBLIC 'CODE'
_TEXT	ENDS
;	COMDAT ??Dconst_iterator@?$_Tree@V?$_Tmap_traits@KUtagTGUILDWANTED@@U?$less@K@std@@V?$allocator@U?$pair@$$CBKUtagTGUILDWANTED@@@std@@@3@$0A@@std@@@std@@QBEABU?$pair@$$CBKUtagTGUILDWANTED@@@2@XZ
_TEXT	SEGMENT PARA USE32 PUBLIC 'CODE'
_TEXT	ENDS
;	COMDAT ??8const_iterator@?$_Tree@V?$_Tmap_traits@KUtagTGUILDWANTED@@U?$less@K@std@@V?$allocator@U?$pair@$$CBKUtagTGUILDWANTED@@@std@@@3@$0A@@std@@@std@@QBE_NABV012@@Z
_TEXT	SEGMENT PARA USE32 PUBLIC 'CODE'
_TEXT	ENDS
;	COMDAT ??0iterator@?$_Tree@V?$_Tmap_traits@KPAUtagTGUILDWANTEDAPP@@U?$less@K@std@@V?$allocator@U?$pair@$$CBKPAUtagTGUILDWANTEDAPP@@@std@@@3@$0A@@std@@@std@@QAE@PAU_Node@?$_Tree_nod@V?$_Tmap_traits@KPAUtagTGUILDWANTEDAPP@@U?$less@K@std@@V?$allocator@U?$pair@$$CBKPAUtagTGUILDWANTEDAPP@@@std@@@3@$0A@@std@@@2@@Z
_TEXT	SEGMENT PARA USE32 PUBLIC 'CODE'
_TEXT	ENDS
;	COMDAT ??Eiterator@?$_Tree@V?$_Tmap_traits@KPAUtagTGUILDWANTEDAPP@@U?$less@K@std@@V?$allocator@U?$pair@$$CBKPAUtagTGUILDWANTEDAPP@@@std@@@3@$0A@@std@@@std@@QAEAAV012@XZ
_TEXT	SEGMENT PARA USE32 PUBLIC 'CODE'
_TEXT	ENDS
;	COMDAT ??0const_iterator@?$_Tree@V?$_Tmap_traits@KPAUtagTGUILDWANTEDAPP@@U?$less@K@std@@V?$allocator@U?$pair@$$CBKPAUtagTGUILDWANTEDAPP@@@std@@@3@$0A@@std@@@std@@QAE@XZ
_TEXT	SEGMENT PARA USE32 PUBLIC 'CODE'
_TEXT	ENDS
;	COMDAT ??Dconst_iterator@?$_Tree@V?$_Tmap_traits@KPAUtagTGUILDWANTEDAPP@@U?$less@K@std@@V?$allocator@U?$pair@$$CBKPAUtagTGUILDWANTEDAPP@@@std@@@3@$0A@@std@@@std@@QBEABU?$pair@$$CBKPAUtagTGUILDWANTEDAPP@@@2@XZ
_TEXT	SEGMENT PARA USE32 PUBLIC 'CODE'
_TEXT	ENDS
;	COMDAT ??8const_iterator@?$_Tree@V?$_Tmap_traits@KPAUtagTGUILDWANTEDAPP@@U?$less@K@std@@V?$allocator@U?$pair@$$CBKPAUtagTGUILDWANTEDAPP@@@std@@@3@$0A@@std@@@std@@QBE_NABV012@@Z
_TEXT	SEGMENT PARA USE32 PUBLIC 'CODE'
_TEXT	ENDS
;	COMDAT ?_Lmost@?$_Tree@V?$_Tmap_traits@KV?$vector@UtagTGUILDTACTICSWANTED@@V?$allocator@UtagTGUILDTACTICSWANTED@@@std@@@std@@U?$less@K@2@V?$allocator@U?$pair@$$CBKV?$vector@UtagTGUILDTACTICSWANTED@@V?$allocator@UtagTGUILDTACTICSWANTED@@@std@@@std@@@std@@@2@$0A@@std@@@std@@IAEAAPAU_Node@?$_Tree_nod@V?$_Tmap_traits@KV?$vector@UtagTGUILDTACTICSWANTED@@V?$allocator@UtagTGUILDTACTICSWANTED@@@std@@@std@@U?$less@K@2@V?$allocator@U?$pair@$$CBKV?$vector@UtagTGUILDTACTICSWANTED@@V?$allocator@UtagTGUILDTACTICSWANTED@@@std@@@std@@@std@@@2@$0A@@std@@@2@XZ
_TEXT	SEGMENT PARA USE32 PUBLIC 'CODE'
_TEXT	ENDS
;	COMDAT ??0iterator@?$_Tree@V?$_Tmap_traits@KV?$vector@UtagTGUILDTACTICSWANTED@@V?$allocator@UtagTGUILDTACTICSWANTED@@@std@@@std@@U?$less@K@2@V?$allocator@U?$pair@$$CBKV?$vector@UtagTGUILDTACTICSWANTED@@V?$allocator@UtagTGUILDTACTICSWANTED@@@std@@@std@@@std@@@2@$0A@@std@@@std@@QAE@PAU_Node@?$_Tree_nod@V?$_Tmap_traits@KV?$vector@UtagTGUILDTACTICSWANTED@@V?$allocator@UtagTGUILDTACTICSWANTED@@@std@@@std@@U?$less@K@2@V?$allocator@U?$pair@$$CBKV?$vector@UtagTGUILDTACTICSWANTED@@V?$allocator@UtagTGUILDTACTICSWANTED@@@std@@@std@@@std@@@2@$0A@@std@@@2@@Z
_TEXT	SEGMENT PARA USE32 PUBLIC 'CODE'
_TEXT	ENDS
;	COMDAT ??Eiterator@?$_Tree@V?$_Tmap_traits@KV?$vector@UtagTGUILDTACTICSWANTED@@V?$allocator@UtagTGUILDTACTICSWANTED@@@std@@@std@@U?$less@K@2@V?$allocator@U?$pair@$$CBKV?$vector@UtagTGUILDTACTICSWANTED@@V?$allocator@UtagTGUILDTACTICSWANTED@@@std@@@std@@@std@@@2@$0A@@std@@@std@@QAEAAV012@XZ
_TEXT	SEGMENT PARA USE32 PUBLIC 'CODE'
_TEXT	ENDS
;	COMDAT ??0const_iterator@?$_Tree@V?$_Tmap_traits@KV?$vector@UtagTGUILDTACTICSWANTED@@V?$allocator@UtagTGUILDTACTICSWANTED@@@std@@@std@@U?$less@K@2@V?$allocator@U?$pair@$$CBKV?$vector@UtagTGUILDTACTICSWANTED@@V?$allocator@UtagTGUILDTACTICSWANTED@@@std@@@std@@@std@@@2@$0A@@std@@@std@@QAE@XZ
_TEXT	SEGMENT PARA USE32 PUBLIC 'CODE'
_TEXT	ENDS
;	COMDAT ??Dconst_iterator@?$_Tree@V?$_Tmap_traits@KV?$vector@UtagTGUILDTACTICSWANTED@@V?$allocator@UtagTGUILDTACTICSWANTED@@@std@@@std@@U?$less@K@2@V?$allocator@U?$pair@$$CBKV?$vector@UtagTGUILDTACTICSWANTED@@V?$allocator@UtagTGUILDTACTICSWANTED@@@std@@@std@@@std@@@2@$0A@@std@@@std@@QBEABU?$pair@$$CBKV?$vector@UtagTGUILDTACTICSWANTED@@V?$allocator@UtagTGUILDTACTICSWANTED@@@std@@@std@@@2@XZ
_TEXT	SEGMENT PARA USE32 PUBLIC 'CODE'
_TEXT	ENDS
;	COMDAT ??8const_iterator@?$_Tree@V?$_Tmap_traits@KV?$vector@UtagTGUILDTACTICSWANTED@@V?$allocator@UtagTGUILDTACTICSWANTED@@@std@@@std@@U?$less@K@2@V?$allocator@U?$pair@$$CBKV?$vector@UtagTGUILDTACTICSWANTED@@V?$allocator@UtagTGUILDTACTICSWANTED@@@std@@@std@@@std@@@2@$0A@@std@@@std@@QBE_NABV012@@Z
_TEXT	SEGMENT PARA USE32 PUBLIC 'CODE'
_TEXT	ENDS
;	COMDAT ?begin@?$vector@UtagTGUILDTACTICSWANTED@@V?$allocator@UtagTGUILDTACTICSWANTED@@@std@@@std@@QAE?AViterator@12@XZ
_TEXT	SEGMENT PARA USE32 PUBLIC 'CODE'
_TEXT	ENDS
;	COMDAT ??0iterator@?$_Tree@V?$_Tmap_traits@KPAUtagTGUILDTACTICSWANTEDAPP@@U?$less@K@std@@V?$allocator@U?$pair@$$CBKPAUtagTGUILDTACTICSWANTEDAPP@@@std@@@3@$0A@@std@@@std@@QAE@PAU_Node@?$_Tree_nod@V?$_Tmap_traits@KPAUtagTGUILDTACTICSWANTEDAPP@@U?$less@K@std@@V?$allocator@U?$pair@$$CBKPAUtagTGUILDTACTICSWANTEDAPP@@@std@@@3@$0A@@std@@@2@@Z
_TEXT	SEGMENT PARA USE32 PUBLIC 'CODE'
_TEXT	ENDS
;	COMDAT ??Eiterator@?$_Tree@V?$_Tmap_traits@KPAUtagTGUILDTACTICSWANTEDAPP@@U?$less@K@std@@V?$allocator@U?$pair@$$CBKPAUtagTGUILDTACTICSWANTEDAPP@@@std@@@3@$0A@@std@@@std@@QAEAAV012@XZ
_TEXT	SEGMENT PARA USE32 PUBLIC 'CODE'
_TEXT	ENDS
;	COMDAT ??0const_iterator@?$_Tree@V?$_Tmap_traits@KPAUtagTGUILDTACTICSWANTEDAPP@@U?$less@K@std@@V?$allocator@U?$pair@$$CBKPAUtagTGUILDTACTICSWANTEDAPP@@@std@@@3@$0A@@std@@@std@@QAE@XZ
_TEXT	SEGMENT PARA USE32 PUBLIC 'CODE'
_TEXT	ENDS
;	COMDAT ??Dconst_iterator@?$_Tree@V?$_Tmap_traits@KPAUtagTGUILDTACTICSWANTEDAPP@@U?$less@K@std@@V?$allocator@U?$pair@$$CBKPAUtagTGUILDTACTICSWANTEDAPP@@@std@@@3@$0A@@std@@@std@@QBEABU?$pair@$$CBKPAUtagTGUILDTACTICSWANTEDAPP@@@2@XZ
_TEXT	SEGMENT PARA USE32 PUBLIC 'CODE'
_TEXT	ENDS
;	COMDAT ??8const_iterator@?$_Tree@V?$_Tmap_traits@KPAUtagTGUILDTACTICSWANTEDAPP@@U?$less@K@std@@V?$allocator@U?$pair@$$CBKPAUtagTGUILDTACTICSWANTEDAPP@@@std@@@3@$0A@@std@@@std@@QBE_NABV012@@Z
_TEXT	SEGMENT PARA USE32 PUBLIC 'CODE'
_TEXT	ENDS
;	COMDAT ??0iterator@?$_Tree@V?$_Tmap_traits@KPAUtagTTACTICSMEMBER@@U?$less@K@std@@V?$allocator@U?$pair@$$CBKPAUtagTTACTICSMEMBER@@@std@@@3@$0A@@std@@@std@@QAE@PAU_Node@?$_Tree_nod@V?$_Tmap_traits@KPAUtagTTACTICSMEMBER@@U?$less@K@std@@V?$allocator@U?$pair@$$CBKPAUtagTTACTICSMEMBER@@@std@@@3@$0A@@std@@@2@@Z
_TEXT	SEGMENT PARA USE32 PUBLIC 'CODE'
_TEXT	ENDS
;	COMDAT ??Eiterator@?$_Tree@V?$_Tmap_traits@KPAUtagTTACTICSMEMBER@@U?$less@K@std@@V?$allocator@U?$pair@$$CBKPAUtagTTACTICSMEMBER@@@std@@@3@$0A@@std@@@std@@QAEAAV012@XZ
_TEXT	SEGMENT PARA USE32 PUBLIC 'CODE'
_TEXT	ENDS
;	COMDAT ??0const_iterator@?$_Tree@V?$_Tmap_traits@KPAUtagTTACTICSMEMBER@@U?$less@K@std@@V?$allocator@U?$pair@$$CBKPAUtagTTACTICSMEMBER@@@std@@@3@$0A@@std@@@std@@QAE@XZ
_TEXT	SEGMENT PARA USE32 PUBLIC 'CODE'
_TEXT	ENDS
;	COMDAT ??Dconst_iterator@?$_Tree@V?$_Tmap_traits@KPAUtagTTACTICSMEMBER@@U?$less@K@std@@V?$allocator@U?$pair@$$CBKPAUtagTTACTICSMEMBER@@@std@@@3@$0A@@std@@@std@@QBEABU?$pair@$$CBKPAUtagTTACTICSMEMBER@@@2@XZ
_TEXT	SEGMENT PARA USE32 PUBLIC 'CODE'
_TEXT	ENDS
;	COMDAT ??8const_iterator@?$_Tree@V?$_Tmap_traits@KPAUtagTTACTICSMEMBER@@U?$less@K@std@@V?$allocator@U?$pair@$$CBKPAUtagTTACTICSMEMBER@@@std@@@3@$0A@@std@@@std@@QBE_NABV012@@Z
_TEXT	SEGMENT PARA USE32 PUBLIC 'CODE'
_TEXT	ENDS
;	COMDAT ??0iterator@?$_Tree@V?$_Tmap_traits@KPAUtagTCHARACTER@@U?$less@K@std@@V?$allocator@U?$pair@$$CBKPAUtagTCHARACTER@@@std@@@3@$0A@@std@@@std@@QAE@PAU_Node@?$_Tree_nod@V?$_Tmap_traits@KPAUtagTCHARACTER@@U?$less@K@std@@V?$allocator@U?$pair@$$CBKPAUtagTCHARACTER@@@std@@@3@$0A@@std@@@2@@Z
_TEXT	SEGMENT PARA USE32 PUBLIC 'CODE'
_TEXT	ENDS
;	COMDAT ??Eiterator@?$_Tree@V?$_Tmap_traits@KPAUtagTCHARACTER@@U?$less@K@std@@V?$allocator@U?$pair@$$CBKPAUtagTCHARACTER@@@std@@@3@$0A@@std@@@std@@QAEAAV012@XZ
_TEXT	SEGMENT PARA USE32 PUBLIC 'CODE'
_TEXT	ENDS
;	COMDAT ??0const_iterator@?$_Tree@V?$_Tmap_traits@KPAUtagTCHARACTER@@U?$less@K@std@@V?$allocator@U?$pair@$$CBKPAUtagTCHARACTER@@@std@@@3@$0A@@std@@@std@@QAE@XZ
_TEXT	SEGMENT PARA USE32 PUBLIC 'CODE'
_TEXT	ENDS
;	COMDAT ??Dconst_iterator@?$_Tree@V?$_Tmap_traits@KPAUtagTCHARACTER@@U?$less@K@std@@V?$allocator@U?$pair@$$CBKPAUtagTCHARACTER@@@std@@@3@$0A@@std@@@std@@QBEABU?$pair@$$CBKPAUtagTCHARACTER@@@2@XZ
_TEXT	SEGMENT PARA USE32 PUBLIC 'CODE'
_TEXT	ENDS
;	COMDAT ??8const_iterator@?$_Tree@V?$_Tmap_traits@KPAUtagTCHARACTER@@U?$less@K@std@@V?$allocator@U?$pair@$$CBKPAUtagTCHARACTER@@@std@@@3@$0A@@std@@@std@@QBE_NABV012@@Z
_TEXT	SEGMENT PARA USE32 PUBLIC 'CODE'
_TEXT	ENDS
;	COMDAT ?_Lmost@?$_Tree@V?$_Tmap_traits@EPAUtagTOURNAMENTENTRY@@U?$less@E@std@@V?$allocator@U?$pair@$$CBEPAUtagTOURNAMENTENTRY@@@std@@@3@$0A@@std@@@std@@IAEAAPAU_Node@?$_Tree_nod@V?$_Tmap_traits@EPAUtagTOURNAMENTENTRY@@U?$less@E@std@@V?$allocator@U?$pair@$$CBEPAUtagTOURNAMENTENTRY@@@std@@@3@$0A@@std@@@2@XZ
_TEXT	SEGMENT PARA USE32 PUBLIC 'CODE'
_TEXT	ENDS
;	COMDAT ??0iterator@?$_Tree@V?$_Tmap_traits@EPAUtagTOURNAMENTENTRY@@U?$less@E@std@@V?$allocator@U?$pair@$$CBEPAUtagTOURNAMENTENTRY@@@std@@@3@$0A@@std@@@std@@QAE@PAU_Node@?$_Tree_nod@V?$_Tmap_traits@EPAUtagTOURNAMENTENTRY@@U?$less@E@std@@V?$allocator@U?$pair@$$CBEPAUtagTOURNAMENTENTRY@@@std@@@3@$0A@@std@@@2@@Z
_TEXT	SEGMENT PARA USE32 PUBLIC 'CODE'
_TEXT	ENDS
;	COMDAT ??Eiterator@?$_Tree@V?$_Tmap_traits@EPAUtagTOURNAMENTENTRY@@U?$less@E@std@@V?$allocator@U?$pair@$$CBEPAUtagTOURNAMENTENTRY@@@std@@@3@$0A@@std@@@std@@QAEAAV012@XZ
_TEXT	SEGMENT PARA USE32 PUBLIC 'CODE'
_TEXT	ENDS
;	COMDAT ??0const_iterator@?$_Tree@V?$_Tmap_traits@EPAUtagTOURNAMENTENTRY@@U?$less@E@std@@V?$allocator@U?$pair@$$CBEPAUtagTOURNAMENTENTRY@@@std@@@3@$0A@@std@@@std@@QAE@XZ
_TEXT	SEGMENT PARA USE32 PUBLIC 'CODE'
_TEXT	ENDS
;	COMDAT ??Dconst_iterator@?$_Tree@V?$_Tmap_traits@EPAUtagTOURNAMENTENTRY@@U?$less@E@std@@V?$allocator@U?$pair@$$CBEPAUtagTOURNAMENTENTRY@@@std@@@3@$0A@@std@@@std@@QBEABU?$pair@$$CBEPAUtagTOURNAMENTENTRY@@@2@XZ
_TEXT	SEGMENT PARA USE32 PUBLIC 'CODE'
_TEXT	ENDS
;	COMDAT ??8const_iterator@?$_Tree@V?$_Tmap_traits@EPAUtagTOURNAMENTENTRY@@U?$less@E@std@@V?$allocator@U?$pair@$$CBEPAUtagTOURNAMENTENTRY@@@std@@@3@$0A@@std@@@std@@QBE_NABV012@@Z
_TEXT	SEGMENT PARA USE32 PUBLIC 'CODE'
_TEXT	ENDS
;	COMDAT ??Diterator@?$vector@UtagTENTRYRECORD@@V?$allocator@UtagTENTRYRECORD@@@std@@@std@@QBEAAUtagTENTRYRECORD@@XZ
_TEXT	SEGMENT PARA USE32 PUBLIC 'CODE'
_TEXT	ENDS
;	COMDAT ??Giterator@?$vector@UtagTENTRYRECORD@@V?$allocator@UtagTENTRYRECORD@@@std@@@std@@QBE?AV012@H@Z
_TEXT	SEGMENT PARA USE32 PUBLIC 'CODE'
_TEXT	ENDS
;	COMDAT ??Diterator@?$vector@PAUtagTCHARACTER@@V?$allocator@PAUtagTCHARACTER@@@std@@@std@@QBEAAPAUtagTCHARACTER@@XZ
_TEXT	SEGMENT PARA USE32 PUBLIC 'CODE'
_TEXT	ENDS
;	COMDAT ??Hiterator@?$vector@PAUtagTCHARACTER@@V?$allocator@PAUtagTCHARACTER@@@std@@@std@@QBE?AV012@H@Z
_TEXT	SEGMENT PARA USE32 PUBLIC 'CODE'
_TEXT	ENDS
;	COMDAT ??Diterator@?$vector@UtagTNMTREWARD@@V?$allocator@UtagTNMTREWARD@@@std@@@std@@QBEAAUtagTNMTREWARD@@XZ
_TEXT	SEGMENT PARA USE32 PUBLIC 'CODE'
_TEXT	ENDS
;	COMDAT ??Hiterator@?$vector@UtagTNMTREWARD@@V?$allocator@UtagTNMTREWARD@@@std@@@std@@QBE?AV012@H@Z
_TEXT	SEGMENT PARA USE32 PUBLIC 'CODE'
_TEXT	ENDS
;	COMDAT ??Diterator@?$vector@KV?$allocator@K@std@@@std@@QBEAAKXZ
_TEXT	SEGMENT PARA USE32 PUBLIC 'CODE'
_TEXT	ENDS
;	COMDAT ??Hiterator@?$vector@KV?$allocator@K@std@@@std@@QBE?AV012@H@Z
_TEXT	SEGMENT PARA USE32 PUBLIC 'CODE'
_TEXT	ENDS
;	COMDAT ??Diterator@?$vector@UtagTGUILDPOINTREWARD@@V?$allocator@UtagTGUILDPOINTREWARD@@@std@@@std@@QBEAAUtagTGUILDPOINTREWARD@@XZ
_TEXT	SEGMENT PARA USE32 PUBLIC 'CODE'
_TEXT	ENDS
;	COMDAT ??Hiterator@?$vector@UtagTGUILDPOINTREWARD@@V?$allocator@UtagTGUILDPOINTREWARD@@@std@@@std@@QBE?AV012@H@Z
_TEXT	SEGMENT PARA USE32 PUBLIC 'CODE'
_TEXT	ENDS
;	COMDAT ??Diterator@?$vector@ULOTPACKET@@V?$allocator@ULOTPACKET@@@std@@@std@@QBEAAULOTPACKET@@XZ
_TEXT	SEGMENT PARA USE32 PUBLIC 'CODE'
_TEXT	ENDS
;	COMDAT ??Hiterator@?$vector@ULOTPACKET@@V?$allocator@ULOTPACKET@@@std@@@std@@QBE?AV012@H@Z
_TEXT	SEGMENT PARA USE32 PUBLIC 'CODE'
_TEXT	ENDS
;	COMDAT ??Diterator@?$vector@UtagTGUILDTACTICSWANTED@@V?$allocator@UtagTGUILDTACTICSWANTED@@@std@@@std@@QBEAAUtagTGUILDTACTICSWANTED@@XZ
_TEXT	SEGMENT PARA USE32 PUBLIC 'CODE'
_TEXT	ENDS
;	COMDAT ??Hiterator@?$vector@UtagTGUILDTACTICSWANTED@@V?$allocator@UtagTGUILDTACTICSWANTED@@@std@@@std@@QBE?AV012@H@Z
_TEXT	SEGMENT PARA USE32 PUBLIC 'CODE'
_TEXT	ENDS
;	COMDAT ?_Left@?$_Tree@V?$_Tmap_traits@KPAUtagTCHARACTER@@U?$less@K@std@@V?$allocator@U?$pair@$$CBKPAUtagTCHARACTER@@@std@@@3@$0A@@std@@@std@@KAAAPAU_Node@?$_Tree_nod@V?$_Tmap_traits@KPAUtagTCHARACTER@@U?$less@K@std@@V?$allocator@U?$pair@$$CBKPAUtagTCHARACTER@@@std@@@3@$0A@@std@@@2@PAU342@@Z
_TEXT	SEGMENT PARA USE32 PUBLIC 'CODE'
_TEXT	ENDS
;	COMDAT ?_Myval@?$_Tree@V?$_Tmap_traits@KPAUtagTCHARACTER@@U?$less@K@std@@V?$allocator@U?$pair@$$CBKPAUtagTCHARACTER@@@std@@@3@$0A@@std@@@std@@KAAAU?$pair@$$CBKPAUtagTCHARACTER@@@2@PAU_Node@?$_Tree_nod@V?$_Tmap_traits@KPAUtagTCHARACTER@@U?$less@K@std@@V?$allocator@U?$pair@$$CBKPAUtagTCHARACTER@@@std@@@3@$0A@@std@@@2@@Z
_TEXT	SEGMENT PARA USE32 PUBLIC 'CODE'
_TEXT	ENDS
;	COMDAT ?_Left@?$_Tree@V?$_Tmap_traits@KPAUtagTGUILDWANTEDAPP@@U?$less@K@std@@V?$allocator@U?$pair@$$CBKPAUtagTGUILDWANTEDAPP@@@std@@@3@$0A@@std@@@std@@KAAAPAU_Node@?$_Tree_nod@V?$_Tmap_traits@KPAUtagTGUILDWANTEDAPP@@U?$less@K@std@@V?$allocator@U?$pair@$$CBKPAUtagTGUILDWANTEDAPP@@@std@@@3@$0A@@std@@@2@PAU342@@Z
_TEXT	SEGMENT PARA USE32 PUBLIC 'CODE'
_TEXT	ENDS
;	COMDAT ?_Myval@?$_Tree@V?$_Tmap_traits@KPAUtagTGUILDWANTEDAPP@@U?$less@K@std@@V?$allocator@U?$pair@$$CBKPAUtagTGUILDWANTEDAPP@@@std@@@3@$0A@@std@@@std@@KAAAU?$pair@$$CBKPAUtagTGUILDWANTEDAPP@@@2@PAU_Node@?$_Tree_nod@V?$_Tmap_traits@KPAUtagTGUILDWANTEDAPP@@U?$less@K@std@@V?$allocator@U?$pair@$$CBKPAUtagTGUILDWANTEDAPP@@@std@@@3@$0A@@std@@@2@@Z
_TEXT	SEGMENT PARA USE32 PUBLIC 'CODE'
_TEXT	ENDS
;	COMDAT ?_Left@?$_Tree@V?$_Tmap_traits@KPAUtagTGUILDTACTICSWANTEDAPP@@U?$less@K@std@@V?$allocator@U?$pair@$$CBKPAUtagTGUILDTACTICSWANTEDAPP@@@std@@@3@$0A@@std@@@std@@KAAAPAU_Node@?$_Tree_nod@V?$_Tmap_traits@KPAUtagTGUILDTACTICSWANTEDAPP@@U?$less@K@std@@V?$allocator@U?$pair@$$CBKPAUtagTGUILDTACTICSWANTEDAPP@@@std@@@3@$0A@@std@@@2@PAU342@@Z
_TEXT	SEGMENT PARA USE32 PUBLIC 'CODE'
_TEXT	ENDS
;	COMDAT ?_Myval@?$_Tree@V?$_Tmap_traits@KPAUtagTGUILDTACTICSWANTEDAPP@@U?$less@K@std@@V?$allocator@U?$pair@$$CBKPAUtagTGUILDTACTICSWANTEDAPP@@@std@@@3@$0A@@std@@@std@@KAAAU?$pair@$$CBKPAUtagTGUILDTACTICSWANTEDAPP@@@2@PAU_Node@?$_Tree_nod@V?$_Tmap_traits@KPAUtagTGUILDTACTICSWANTEDAPP@@U?$less@K@std@@V?$allocator@U?$pair@$$CBKPAUtagTGUILDTACTICSWANTEDAPP@@@std@@@3@$0A@@std@@@2@@Z
_TEXT	SEGMENT PARA USE32 PUBLIC 'CODE'
_TEXT	ENDS
;	COMDAT ?_Lbound@?$_Tree@V?$_Tmap_traits@KPAUtagTSOULMATE@@U?$less@K@std@@V?$allocator@U?$pair@$$CBKPAUtagTSOULMATE@@@std@@@3@$0A@@std@@@std@@IBEPAU_Node@?$_Tree_nod@V?$_Tmap_traits@KPAUtagTSOULMATE@@U?$less@K@std@@V?$allocator@U?$pair@$$CBKPAUtagTSOULMATE@@@std@@@3@$0A@@std@@@2@ABK@Z
_TEXT	SEGMENT PARA USE32 PUBLIC 'CODE'
_TEXT	ENDS
;	COMDAT ?_Kfn@?$_Tmap_traits@KPAUtagTSOULMATE@@U?$less@K@std@@V?$allocator@U?$pair@$$CBKPAUtagTSOULMATE@@@std@@@3@$0A@@std@@SAABKABU?$pair@$$CBKPAUtagTSOULMATE@@@2@@Z
_TEXT	SEGMENT PARA USE32 PUBLIC 'CODE'
_TEXT	ENDS
;	COMDAT ?_Myval@?$_Tree@V?$_Tmap_traits@KPAUtagTNMTPLAYER@@U?$less@K@std@@V?$allocator@U?$pair@$$CBKPAUtagTNMTPLAYER@@@std@@@3@$0A@@std@@@std@@KAAAU?$pair@$$CBKPAUtagTNMTPLAYER@@@2@PAU_Node@?$_Tree_nod@V?$_Tmap_traits@KPAUtagTNMTPLAYER@@U?$less@K@std@@V?$allocator@U?$pair@$$CBKPAUtagTNMTPLAYER@@@std@@@3@$0A@@std@@@2@@Z
_TEXT	SEGMENT PARA USE32 PUBLIC 'CODE'
_TEXT	ENDS
;	COMDAT ?_Myval@?$_Tree@V?$_Tmap_traits@EV?$CStringT@DV?$StrTraitATL@DV?$ChTraitsCRT@D@ATL@@@ATL@@@ATL@@U?$less@E@std@@V?$allocator@U?$pair@$$CBEV?$CStringT@DV?$StrTraitATL@DV?$ChTraitsCRT@D@ATL@@@ATL@@@ATL@@@std@@@4@$0A@@std@@@std@@KAAAU?$pair@$$CBEV?$CStringT@DV?$StrTraitATL@DV?$ChTraitsCRT@D@ATL@@@ATL@@@ATL@@@2@PAU_Node@?$_Tree_nod@V?$_Tmap_traits@EV?$CStringT@DV?$StrTraitATL@DV?$ChTraitsCRT@D@ATL@@@ATL@@@ATL@@U?$less@E@std@@V?$allocator@U?$pair@$$CBEV?$CStringT@DV?$StrTraitATL@DV?$ChTraitsCRT@D@ATL@@@ATL@@@ATL@@@std@@@4@$0A@@std@@@2@@Z
_TEXT	SEGMENT PARA USE32 PUBLIC 'CODE'
_TEXT	ENDS
;	COMDAT ?_Myval@?$_Tree@V?$_Tmap_traits@KKU?$less@K@std@@V?$allocator@U?$pair@$$CBKK@std@@@2@$0A@@std@@@std@@KAAAU?$pair@$$CBKK@2@PAU_Node@?$_Tree_nod@V?$_Tmap_traits@KKU?$less@K@std@@V?$allocator@U?$pair@$$CBKK@std@@@2@$0A@@std@@@2@@Z
_TEXT	SEGMENT PARA USE32 PUBLIC 'CODE'
_TEXT	ENDS
;	COMDAT ?max_size@?$vector@_JV?$allocator@_J@std@@@std@@QBEIXZ
_TEXT	SEGMENT PARA USE32 PUBLIC 'CODE'
_TEXT	ENDS
;	COMDAT ?_Destroy@?$vector@_JV?$allocator@_J@std@@@std@@IAEXPA_J0@Z
_TEXT	SEGMENT PARA USE32 PUBLIC 'CODE'
_TEXT	ENDS
;	COMDAT ?_Xlen@?$vector@_JV?$allocator@_J@std@@@std@@IBEXXZ
_TEXT	SEGMENT PARA USE32 PUBLIC 'CODE'
_TEXT	ENDS
;	COMDAT ?deallocate@?$allocator@_J@std@@QAEXPA_JI@Z
_TEXT	SEGMENT PARA USE32 PUBLIC 'CODE'
_TEXT	ENDS
;	COMDAT ?allocate@?$allocator@_J@std@@QAEPA_JI@Z
_TEXT	SEGMENT PARA USE32 PUBLIC 'CODE'
_TEXT	ENDS
;	COMDAT ?_Left@?$_Tree@V?$_Tmap_traits@KPAUtagTITEM@@U?$less@K@std@@V?$allocator@U?$pair@$$CBKPAUtagTITEM@@@std@@@3@$0A@@std@@@std@@KAAAPAU_Node@?$_Tree_nod@V?$_Tmap_traits@KPAUtagTITEM@@U?$less@K@std@@V?$allocator@U?$pair@$$CBKPAUtagTITEM@@@std@@@3@$0A@@std@@@2@PAU342@@Z
_TEXT	SEGMENT PARA USE32 PUBLIC 'CODE'
_TEXT	ENDS
;	COMDAT ?_Myval@?$_Tree@V?$_Tmap_traits@KPAUtagTITEM@@U?$less@K@std@@V?$allocator@U?$pair@$$CBKPAUtagTITEM@@@std@@@3@$0A@@std@@@std@@KAAAU?$pair@$$CBKPAUtagTITEM@@@2@PAU_Node@?$_Tree_nod@V?$_Tmap_traits@KPAUtagTITEM@@U?$less@K@std@@V?$allocator@U?$pair@$$CBKPAUtagTITEM@@@std@@@3@$0A@@std@@@2@@Z
_TEXT	SEGMENT PARA USE32 PUBLIC 'CODE'
_TEXT	ENDS
;	COMDAT ?_Left@?$_Tree@V?$_Tmap_traits@KPAUtagTGUILDMEMBER@@U?$less@K@std@@V?$allocator@U?$pair@$$CBKPAUtagTGUILDMEMBER@@@std@@@3@$0A@@std@@@std@@KAAAPAU_Node@?$_Tree_nod@V?$_Tmap_traits@KPAUtagTGUILDMEMBER@@U?$less@K@std@@V?$allocator@U?$pair@$$CBKPAUtagTGUILDMEMBER@@@std@@@3@$0A@@std@@@2@PAU342@@Z
_TEXT	SEGMENT PARA USE32 PUBLIC 'CODE'
_TEXT	ENDS
;	COMDAT ?_Myval@?$_Tree@V?$_Tmap_traits@KPAUtagTGUILDMEMBER@@U?$less@K@std@@V?$allocator@U?$pair@$$CBKPAUtagTGUILDMEMBER@@@std@@@3@$0A@@std@@@std@@KAAAU?$pair@$$CBKPAUtagTGUILDMEMBER@@@2@PAU_Node@?$_Tree_nod@V?$_Tmap_traits@KPAUtagTGUILDMEMBER@@U?$less@K@std@@V?$allocator@U?$pair@$$CBKPAUtagTGUILDMEMBER@@@std@@@3@$0A@@std@@@2@@Z
_TEXT	SEGMENT PARA USE32 PUBLIC 'CODE'
_TEXT	ENDS
;	COMDAT ?_Left@?$_Tree@V?$_Tmap_traits@KPAUtagTTACTICSMEMBER@@U?$less@K@std@@V?$allocator@U?$pair@$$CBKPAUtagTTACTICSMEMBER@@@std@@@3@$0A@@std@@@std@@KAAAPAU_Node@?$_Tree_nod@V?$_Tmap_traits@KPAUtagTTACTICSMEMBER@@U?$less@K@std@@V?$allocator@U?$pair@$$CBKPAUtagTTACTICSMEMBER@@@std@@@3@$0A@@std@@@2@PAU342@@Z
_TEXT	SEGMENT PARA USE32 PUBLIC 'CODE'
_TEXT	ENDS
;	COMDAT ?_Myval@?$_Tree@V?$_Tmap_traits@KPAUtagTTACTICSMEMBER@@U?$less@K@std@@V?$allocator@U?$pair@$$CBKPAUtagTTACTICSMEMBER@@@std@@@3@$0A@@std@@@std@@KAAAU?$pair@$$CBKPAUtagTTACTICSMEMBER@@@2@PAU_Node@?$_Tree_nod@V?$_Tmap_traits@KPAUtagTTACTICSMEMBER@@U?$less@K@std@@V?$allocator@U?$pair@$$CBKPAUtagTTACTICSMEMBER@@@std@@@3@$0A@@std@@@2@@Z
_TEXT	SEGMENT PARA USE32 PUBLIC 'CODE'
_TEXT	ENDS
;	COMDAT ?_Left@?$_Tree@V?$_Tmap_traits@KPAUtagTGUILDARTICLE@@U?$less@K@std@@V?$allocator@U?$pair@$$CBKPAUtagTGUILDARTICLE@@@std@@@3@$0A@@std@@@std@@KAAAPAU_Node@?$_Tree_nod@V?$_Tmap_traits@KPAUtagTGUILDARTICLE@@U?$less@K@std@@V?$allocator@U?$pair@$$CBKPAUtagTGUILDARTICLE@@@std@@@3@$0A@@std@@@2@PAU342@@Z
_TEXT	SEGMENT PARA USE32 PUBLIC 'CODE'
_TEXT	ENDS
;	COMDAT ?_Myval@?$_Tree@V?$_Tmap_traits@KPAUtagTGUILDARTICLE@@U?$less@K@std@@V?$allocator@U?$pair@$$CBKPAUtagTGUILDARTICLE@@@std@@@3@$0A@@std@@@std@@KAAAU?$pair@$$CBKPAUtagTGUILDARTICLE@@@2@PAU_Node@?$_Tree_nod@V?$_Tmap_traits@KPAUtagTGUILDARTICLE@@U?$less@K@std@@V?$allocator@U?$pair@$$CBKPAUtagTGUILDARTICLE@@@std@@@3@$0A@@std@@@2@@Z
_TEXT	SEGMENT PARA USE32 PUBLIC 'CODE'
_TEXT	ENDS
;	COMDAT ??Dconst_iterator@?$_Tree@V?$_Tmap_traits@EUtagCASTLETOP3@@U?$less@E@std@@V?$allocator@U?$pair@$$CBEUtagCASTLETOP3@@@std@@@3@$0A@@std@@@std@@QBEABU?$pair@$$CBEUtagCASTLETOP3@@@2@XZ
_TEXT	SEGMENT PARA USE32 PUBLIC 'CODE'
_TEXT	ENDS
;	COMDAT ?_Left@?$_Tree@V?$_Tmap_traits@GUtagTRPSGAME@@U?$less@G@std@@V?$allocator@U?$pair@$$CBGUtagTRPSGAME@@@std@@@3@$0A@@std@@@std@@KAAAPAU_Node@?$_Tree_nod@V?$_Tmap_traits@GUtagTRPSGAME@@U?$less@G@std@@V?$allocator@U?$pair@$$CBGUtagTRPSGAME@@@std@@@3@$0A@@std@@@2@PAU342@@Z
_TEXT	SEGMENT PARA USE32 PUBLIC 'CODE'
_TEXT	ENDS
;	COMDAT ?_Myval@?$_Tree@V?$_Tmap_traits@GUtagTRPSGAME@@U?$less@G@std@@V?$allocator@U?$pair@$$CBGUtagTRPSGAME@@@std@@@3@$0A@@std@@@std@@KAAAU?$pair@$$CBGUtagTRPSGAME@@@2@PAU_Node@?$_Tree_nod@V?$_Tmap_traits@GUtagTRPSGAME@@U?$less@G@std@@V?$allocator@U?$pair@$$CBGUtagTRPSGAME@@@std@@@3@$0A@@std@@@2@@Z
_TEXT	SEGMENT PARA USE32 PUBLIC 'CODE'
_TEXT	ENDS
;	COMDAT ??0const_iterator@?$_Tree@V?$_Tmap_traits@GUtagTRPSGAME@@U?$less@G@std@@V?$allocator@U?$pair@$$CBGUtagTRPSGAME@@@std@@@3@$0A@@std@@@std@@QAE@PAU_Node@?$_Tree_nod@V?$_Tmap_traits@GUtagTRPSGAME@@U?$less@G@std@@V?$allocator@U?$pair@$$CBGUtagTRPSGAME@@@std@@@3@$0A@@std@@@2@@Z
_TEXT	SEGMENT PARA USE32 PUBLIC 'CODE'
_TEXT	ENDS
;	COMDAT ??Econst_iterator@?$_Tree@V?$_Tmap_traits@GUtagTRPSGAME@@U?$less@G@std@@V?$allocator@U?$pair@$$CBGUtagTRPSGAME@@@std@@@3@$0A@@std@@@std@@QAEAAV012@XZ
_TEXT	SEGMENT PARA USE32 PUBLIC 'CODE'
_TEXT	ENDS
;	COMDAT ??0const_iterator@?$_Tree@V?$_Tmap_traits@KPAUtagTGUILDMEMBER@@U?$less@K@std@@V?$allocator@U?$pair@$$CBKPAUtagTGUILDMEMBER@@@std@@@3@$0A@@std@@@std@@QAE@PAU_Node@?$_Tree_nod@V?$_Tmap_traits@KPAUtagTGUILDMEMBER@@U?$less@K@std@@V?$allocator@U?$pair@$$CBKPAUtagTGUILDMEMBER@@@std@@@3@$0A@@std@@@2@@Z
_TEXT	SEGMENT PARA USE32 PUBLIC 'CODE'
_TEXT	ENDS
;	COMDAT ??Econst_iterator@?$_Tree@V?$_Tmap_traits@KPAUtagTGUILDMEMBER@@U?$less@K@std@@V?$allocator@U?$pair@$$CBKPAUtagTGUILDMEMBER@@@std@@@3@$0A@@std@@@std@@QAEAAV012@XZ
_TEXT	SEGMENT PARA USE32 PUBLIC 'CODE'
_TEXT	ENDS
;	COMDAT ??0const_iterator@?$_Tree@V?$_Tmap_traits@KPAUtagTITEM@@U?$less@K@std@@V?$allocator@U?$pair@$$CBKPAUtagTITEM@@@std@@@3@$0A@@std@@@std@@QAE@PAU_Node@?$_Tree_nod@V?$_Tmap_traits@KPAUtagTITEM@@U?$less@K@std@@V?$allocator@U?$pair@$$CBKPAUtagTITEM@@@std@@@3@$0A@@std@@@2@@Z
_TEXT	SEGMENT PARA USE32 PUBLIC 'CODE'
_TEXT	ENDS
;	COMDAT ??Econst_iterator@?$_Tree@V?$_Tmap_traits@KPAUtagTITEM@@U?$less@K@std@@V?$allocator@U?$pair@$$CBKPAUtagTITEM@@@std@@@3@$0A@@std@@@std@@QAEAAV012@XZ
_TEXT	SEGMENT PARA USE32 PUBLIC 'CODE'
_TEXT	ENDS
;	COMDAT ??0const_iterator@?$_Tree@V?$_Tmap_traits@KPAUtagTGUILDARTICLE@@U?$less@K@std@@V?$allocator@U?$pair@$$CBKPAUtagTGUILDARTICLE@@@std@@@3@$0A@@std@@@std@@QAE@PAU_Node@?$_Tree_nod@V?$_Tmap_traits@KPAUtagTGUILDARTICLE@@U?$less@K@std@@V?$allocator@U?$pair@$$CBKPAUtagTGUILDARTICLE@@@std@@@3@$0A@@std@@@2@@Z
_TEXT	SEGMENT PARA USE32 PUBLIC 'CODE'
_TEXT	ENDS
;	COMDAT ??Econst_iterator@?$_Tree@V?$_Tmap_traits@KPAUtagTGUILDARTICLE@@U?$less@K@std@@V?$allocator@U?$pair@$$CBKPAUtagTGUILDARTICLE@@@std@@@3@$0A@@std@@@std@@QAEAAV012@XZ
_TEXT	SEGMENT PARA USE32 PUBLIC 'CODE'
_TEXT	ENDS
;	COMDAT ?_Left@?$_Tree@V?$_Tmap_traits@KUtagTGUILDWANTED@@U?$less@K@std@@V?$allocator@U?$pair@$$CBKUtagTGUILDWANTED@@@std@@@3@$0A@@std@@@std@@KAAAPAU_Node@?$_Tree_nod@V?$_Tmap_traits@KUtagTGUILDWANTED@@U?$less@K@std@@V?$allocator@U?$pair@$$CBKUtagTGUILDWANTED@@@std@@@3@$0A@@std@@@2@PAU342@@Z
_TEXT	SEGMENT PARA USE32 PUBLIC 'CODE'
_TEXT	ENDS
;	COMDAT ?_Myval@?$_Tree@V?$_Tmap_traits@KUtagTGUILDWANTED@@U?$less@K@std@@V?$allocator@U?$pair@$$CBKUtagTGUILDWANTED@@@std@@@3@$0A@@std@@@std@@KAAAU?$pair@$$CBKUtagTGUILDWANTED@@@2@PAU_Node@?$_Tree_nod@V?$_Tmap_traits@KUtagTGUILDWANTED@@U?$less@K@std@@V?$allocator@U?$pair@$$CBKUtagTGUILDWANTED@@@std@@@3@$0A@@std@@@2@@Z
_TEXT	SEGMENT PARA USE32 PUBLIC 'CODE'
_TEXT	ENDS
;	COMDAT ??0const_iterator@?$_Tree@V?$_Tmap_traits@KUtagTGUILDWANTED@@U?$less@K@std@@V?$allocator@U?$pair@$$CBKUtagTGUILDWANTED@@@std@@@3@$0A@@std@@@std@@QAE@PAU_Node@?$_Tree_nod@V?$_Tmap_traits@KUtagTGUILDWANTED@@U?$less@K@std@@V?$allocator@U?$pair@$$CBKUtagTGUILDWANTED@@@std@@@3@$0A@@std@@@2@@Z
_TEXT	SEGMENT PARA USE32 PUBLIC 'CODE'
_TEXT	ENDS
;	COMDAT ??Econst_iterator@?$_Tree@V?$_Tmap_traits@KUtagTGUILDWANTED@@U?$less@K@std@@V?$allocator@U?$pair@$$CBKUtagTGUILDWANTED@@@std@@@3@$0A@@std@@@std@@QAEAAV012@XZ
_TEXT	SEGMENT PARA USE32 PUBLIC 'CODE'
_TEXT	ENDS
;	COMDAT ??0const_iterator@?$_Tree@V?$_Tmap_traits@KPAUtagTGUILDWANTEDAPP@@U?$less@K@std@@V?$allocator@U?$pair@$$CBKPAUtagTGUILDWANTEDAPP@@@std@@@3@$0A@@std@@@std@@QAE@PAU_Node@?$_Tree_nod@V?$_Tmap_traits@KPAUtagTGUILDWANTEDAPP@@U?$less@K@std@@V?$allocator@U?$pair@$$CBKPAUtagTGUILDWANTEDAPP@@@std@@@3@$0A@@std@@@2@@Z
_TEXT	SEGMENT PARA USE32 PUBLIC 'CODE'
_TEXT	ENDS
;	COMDAT ??Econst_iterator@?$_Tree@V?$_Tmap_traits@KPAUtagTGUILDWANTEDAPP@@U?$less@K@std@@V?$allocator@U?$pair@$$CBKPAUtagTGUILDWANTEDAPP@@@std@@@3@$0A@@std@@@std@@QAEAAV012@XZ
_TEXT	SEGMENT PARA USE32 PUBLIC 'CODE'
_TEXT	ENDS
;	COMDAT ?_Left@?$_Tree@V?$_Tmap_traits@KV?$vector@UtagTGUILDTACTICSWANTED@@V?$allocator@UtagTGUILDTACTICSWANTED@@@std@@@std@@U?$less@K@2@V?$allocator@U?$pair@$$CBKV?$vector@UtagTGUILDTACTICSWANTED@@V?$allocator@UtagTGUILDTACTICSWANTED@@@std@@@std@@@std@@@2@$0A@@std@@@std@@KAAAPAU_Node@?$_Tree_nod@V?$_Tmap_traits@KV?$vector@UtagTGUILDTACTICSWANTED@@V?$allocator@UtagTGUILDTACTICSWANTED@@@std@@@std@@U?$less@K@2@V?$allocator@U?$pair@$$CBKV?$vector@UtagTGUILDTACTICSWANTED@@V?$allocator@UtagTGUILDTACTICSWANTED@@@std@@@std@@@std@@@2@$0A@@std@@@2@PAU342@@Z
_TEXT	SEGMENT PARA USE32 PUBLIC 'CODE'
_TEXT	ENDS
;	COMDAT ?_Myval@?$_Tree@V?$_Tmap_traits@KV?$vector@UtagTGUILDTACTICSWANTED@@V?$allocator@UtagTGUILDTACTICSWANTED@@@std@@@std@@U?$less@K@2@V?$allocator@U?$pair@$$CBKV?$vector@UtagTGUILDTACTICSWANTED@@V?$allocator@UtagTGUILDTACTICSWANTED@@@std@@@std@@@std@@@2@$0A@@std@@@std@@KAAAU?$pair@$$CBKV?$vector@UtagTGUILDTACTICSWANTED@@V?$allocator@UtagTGUILDTACTICSWANTED@@@std@@@std@@@2@PAU_Node@?$_Tree_nod@V?$_Tmap_traits@KV?$vector@UtagTGUILDTACTICSWANTED@@V?$allocator@UtagTGUILDTACTICSWANTED@@@std@@@std@@U?$less@K@2@V?$allocator@U?$pair@$$CBKV?$vector@UtagTGUILDTACTICSWANTED@@V?$allocator@UtagTGUILDTACTICSWANTED@@@std@@@std@@@std@@@2@$0A@@std@@@2@@Z
_TEXT	SEGMENT PARA USE32 PUBLIC 'CODE'
_TEXT	ENDS
;	COMDAT ??0const_iterator@?$_Tree@V?$_Tmap_traits@KV?$vector@UtagTGUILDTACTICSWANTED@@V?$allocator@UtagTGUILDTACTICSWANTED@@@std@@@std@@U?$less@K@2@V?$allocator@U?$pair@$$CBKV?$vector@UtagTGUILDTACTICSWANTED@@V?$allocator@UtagTGUILDTACTICSWANTED@@@std@@@std@@@std@@@2@$0A@@std@@@std@@QAE@PAU_Node@?$_Tree_nod@V?$_Tmap_traits@KV?$vector@UtagTGUILDTACTICSWANTED@@V?$allocator@UtagTGUILDTACTICSWANTED@@@std@@@std@@U?$less@K@2@V?$allocator@U?$pair@$$CBKV?$vector@UtagTGUILDTACTICSWANTED@@V?$allocator@UtagTGUILDTACTICSWANTED@@@std@@@std@@@std@@@2@$0A@@std@@@2@@Z
_TEXT	SEGMENT PARA USE32 PUBLIC 'CODE'
_TEXT	ENDS
;	COMDAT ??Econst_iterator@?$_Tree@V?$_Tmap_traits@KV?$vector@UtagTGUILDTACTICSWANTED@@V?$allocator@UtagTGUILDTACTICSWANTED@@@std@@@std@@U?$less@K@2@V?$allocator@U?$pair@$$CBKV?$vector@UtagTGUILDTACTICSWANTED@@V?$allocator@UtagTGUILDTACTICSWANTED@@@std@@@std@@@std@@@2@$0A@@std@@@std@@QAEAAV012@XZ
_TEXT	SEGMENT PARA USE32 PUBLIC 'CODE'
_TEXT	ENDS
;	COMDAT ??0const_iterator@?$_Tree@V?$_Tmap_traits@KPAUtagTGUILDTACTICSWANTEDAPP@@U?$less@K@std@@V?$allocator@U?$pair@$$CBKPAUtagTGUILDTACTICSWANTEDAPP@@@std@@@3@$0A@@std@@@std@@QAE@PAU_Node@?$_Tree_nod@V?$_Tmap_traits@KPAUtagTGUILDTACTICSWANTEDAPP@@U?$less@K@std@@V?$allocator@U?$pair@$$CBKPAUtagTGUILDTACTICSWANTEDAPP@@@std@@@3@$0A@@std@@@2@@Z
_TEXT	SEGMENT PARA USE32 PUBLIC 'CODE'
_TEXT	ENDS
;	COMDAT ??Econst_iterator@?$_Tree@V?$_Tmap_traits@KPAUtagTGUILDTACTICSWANTEDAPP@@U?$less@K@std@@V?$allocator@U?$pair@$$CBKPAUtagTGUILDTACTICSWANTEDAPP@@@std@@@3@$0A@@std@@@std@@QAEAAV012@XZ
_TEXT	SEGMENT PARA USE32 PUBLIC 'CODE'
_TEXT	ENDS
;	COMDAT ??0const_iterator@?$_Tree@V?$_Tmap_traits@KPAUtagTTACTICSMEMBER@@U?$less@K@std@@V?$allocator@U?$pair@$$CBKPAUtagTTACTICSMEMBER@@@std@@@3@$0A@@std@@@std@@QAE@PAU_Node@?$_Tree_nod@V?$_Tmap_traits@KPAUtagTTACTICSMEMBER@@U?$less@K@std@@V?$allocator@U?$pair@$$CBKPAUtagTTACTICSMEMBER@@@std@@@3@$0A@@std@@@2@@Z
_TEXT	SEGMENT PARA USE32 PUBLIC 'CODE'
_TEXT	ENDS
;	COMDAT ??Econst_iterator@?$_Tree@V?$_Tmap_traits@KPAUtagTTACTICSMEMBER@@U?$less@K@std@@V?$allocator@U?$pair@$$CBKPAUtagTTACTICSMEMBER@@@std@@@3@$0A@@std@@@std@@QAEAAV012@XZ
_TEXT	SEGMENT PARA USE32 PUBLIC 'CODE'
_TEXT	ENDS
;	COMDAT ??0const_iterator@?$_Tree@V?$_Tmap_traits@KPAUtagTCHARACTER@@U?$less@K@std@@V?$allocator@U?$pair@$$CBKPAUtagTCHARACTER@@@std@@@3@$0A@@std@@@std@@QAE@PAU_Node@?$_Tree_nod@V?$_Tmap_traits@KPAUtagTCHARACTER@@U?$less@K@std@@V?$allocator@U?$pair@$$CBKPAUtagTCHARACTER@@@std@@@3@$0A@@std@@@2@@Z
_TEXT	SEGMENT PARA USE32 PUBLIC 'CODE'
_TEXT	ENDS
;	COMDAT ??Econst_iterator@?$_Tree@V?$_Tmap_traits@KPAUtagTCHARACTER@@U?$less@K@std@@V?$allocator@U?$pair@$$CBKPAUtagTCHARACTER@@@std@@@3@$0A@@std@@@std@@QAEAAV012@XZ
_TEXT	SEGMENT PARA USE32 PUBLIC 'CODE'
_TEXT	ENDS
;	COMDAT ?_Left@?$_Tree@V?$_Tmap_traits@EPAUtagTOURNAMENTENTRY@@U?$less@E@std@@V?$allocator@U?$pair@$$CBEPAUtagTOURNAMENTENTRY@@@std@@@3@$0A@@std@@@std@@KAAAPAU_Node@?$_Tree_nod@V?$_Tmap_traits@EPAUtagTOURNAMENTENTRY@@U?$less@E@std@@V?$allocator@U?$pair@$$CBEPAUtagTOURNAMENTENTRY@@@std@@@3@$0A@@std@@@2@PAU342@@Z
_TEXT	SEGMENT PARA USE32 PUBLIC 'CODE'
_TEXT	ENDS
;	COMDAT ?_Myval@?$_Tree@V?$_Tmap_traits@EPAUtagTOURNAMENTENTRY@@U?$less@E@std@@V?$allocator@U?$pair@$$CBEPAUtagTOURNAMENTENTRY@@@std@@@3@$0A@@std@@@std@@KAAAU?$pair@$$CBEPAUtagTOURNAMENTENTRY@@@2@PAU_Node@?$_Tree_nod@V?$_Tmap_traits@EPAUtagTOURNAMENTENTRY@@U?$less@E@std@@V?$allocator@U?$pair@$$CBEPAUtagTOURNAMENTENTRY@@@std@@@3@$0A@@std@@@2@@Z
_TEXT	SEGMENT PARA USE32 PUBLIC 'CODE'
_TEXT	ENDS
;	COMDAT ??0const_iterator@?$_Tree@V?$_Tmap_traits@EPAUtagTOURNAMENTENTRY@@U?$less@E@std@@V?$allocator@U?$pair@$$CBEPAUtagTOURNAMENTENTRY@@@std@@@3@$0A@@std@@@std@@QAE@PAU_Node@?$_Tree_nod@V?$_Tmap_traits@EPAUtagTOURNAMENTENTRY@@U?$less@E@std@@V?$allocator@U?$pair@$$CBEPAUtagTOURNAMENTENTRY@@@std@@@3@$0A@@std@@@2@@Z
_TEXT	SEGMENT PARA USE32 PUBLIC 'CODE'
_TEXT	ENDS
;	COMDAT ??Econst_iterator@?$_Tree@V?$_Tmap_traits@EPAUtagTOURNAMENTENTRY@@U?$less@E@std@@V?$allocator@U?$pair@$$CBEPAUtagTOURNAMENTENTRY@@@std@@@3@$0A@@std@@@std@@QAEAAV012@XZ
_TEXT	SEGMENT PARA USE32 PUBLIC 'CODE'
_TEXT	ENDS
;	COMDAT ??0iterator@?$vector@UtagTENTRYRECORD@@V?$allocator@UtagTENTRYRECORD@@@std@@@std@@QAE@PAUtagTENTRYRECORD@@@Z
_TEXT	SEGMENT PARA USE32 PUBLIC 'CODE'
_TEXT	ENDS
;	COMDAT ??Ziterator@?$vector@UtagTENTRYRECORD@@V?$allocator@UtagTENTRYRECORD@@@std@@@std@@QAEAAV012@H@Z
_TEXT	SEGMENT PARA USE32 PUBLIC 'CODE'
_TEXT	ENDS
;	COMDAT ??Dconst_iterator@?$vector@UtagTENTRYRECORD@@V?$allocator@UtagTENTRYRECORD@@@std@@@std@@QBEABUtagTENTRYRECORD@@XZ
_TEXT	SEGMENT PARA USE32 PUBLIC 'CODE'
_TEXT	ENDS
;	COMDAT ??0iterator@?$vector@PAUtagTCHARACTER@@V?$allocator@PAUtagTCHARACTER@@@std@@@std@@QAE@PAPAUtagTCHARACTER@@@Z
_TEXT	SEGMENT PARA USE32 PUBLIC 'CODE'
_TEXT	ENDS
;	COMDAT ??Yiterator@?$vector@PAUtagTCHARACTER@@V?$allocator@PAUtagTCHARACTER@@@std@@@std@@QAEAAV012@H@Z
_TEXT	SEGMENT PARA USE32 PUBLIC 'CODE'
_TEXT	ENDS
;	COMDAT ??Dconst_iterator@?$vector@PAUtagTCHARACTER@@V?$allocator@PAUtagTCHARACTER@@@std@@@std@@QBEABQAUtagTCHARACTER@@XZ
_TEXT	SEGMENT PARA USE32 PUBLIC 'CODE'
_TEXT	ENDS
;	COMDAT ??0iterator@?$vector@UtagTNMTREWARD@@V?$allocator@UtagTNMTREWARD@@@std@@@std@@QAE@PAUtagTNMTREWARD@@@Z
_TEXT	SEGMENT PARA USE32 PUBLIC 'CODE'
_TEXT	ENDS
;	COMDAT ??Yiterator@?$vector@UtagTNMTREWARD@@V?$allocator@UtagTNMTREWARD@@@std@@@std@@QAEAAV012@H@Z
_TEXT	SEGMENT PARA USE32 PUBLIC 'CODE'
_TEXT	ENDS
;	COMDAT ??Dconst_iterator@?$vector@UtagTNMTREWARD@@V?$allocator@UtagTNMTREWARD@@@std@@@std@@QBEABUtagTNMTREWARD@@XZ
_TEXT	SEGMENT PARA USE32 PUBLIC 'CODE'
_TEXT	ENDS
;	COMDAT ??0const_iterator@?$vector@_JV?$allocator@_J@std@@@std@@QAE@PA_J@Z
_TEXT	SEGMENT PARA USE32 PUBLIC 'CODE'
_TEXT	ENDS
;	COMDAT ??0iterator@?$vector@KV?$allocator@K@std@@@std@@QAE@PAK@Z
_TEXT	SEGMENT PARA USE32 PUBLIC 'CODE'
_TEXT	ENDS
;	COMDAT ??Yiterator@?$vector@KV?$allocator@K@std@@@std@@QAEAAV012@H@Z
_TEXT	SEGMENT PARA USE32 PUBLIC 'CODE'
_TEXT	ENDS
;	COMDAT ??Dconst_iterator@?$vector@KV?$allocator@K@std@@@std@@QBEABKXZ
_TEXT	SEGMENT PARA USE32 PUBLIC 'CODE'
_TEXT	ENDS
;	COMDAT ??0iterator@?$vector@UtagTGUILDPOINTREWARD@@V?$allocator@UtagTGUILDPOINTREWARD@@@std@@@std@@QAE@PAUtagTGUILDPOINTREWARD@@@Z
_TEXT	SEGMENT PARA USE32 PUBLIC 'CODE'
_TEXT	ENDS
;	COMDAT ??Yiterator@?$vector@UtagTGUILDPOINTREWARD@@V?$allocator@UtagTGUILDPOINTREWARD@@@std@@@std@@QAEAAV012@H@Z
_TEXT	SEGMENT PARA USE32 PUBLIC 'CODE'
_TEXT	ENDS
;	COMDAT ??Dconst_iterator@?$vector@UtagTGUILDPOINTREWARD@@V?$allocator@UtagTGUILDPOINTREWARD@@@std@@@std@@QBEABUtagTGUILDPOINTREWARD@@XZ
_TEXT	SEGMENT PARA USE32 PUBLIC 'CODE'
_TEXT	ENDS
;	COMDAT ??0iterator@?$vector@ULOTPACKET@@V?$allocator@ULOTPACKET@@@std@@@std@@QAE@PAULOTPACKET@@@Z
_TEXT	SEGMENT PARA USE32 PUBLIC 'CODE'
_TEXT	ENDS
;	COMDAT ??Yiterator@?$vector@ULOTPACKET@@V?$allocator@ULOTPACKET@@@std@@@std@@QAEAAV012@H@Z
_TEXT	SEGMENT PARA USE32 PUBLIC 'CODE'
_TEXT	ENDS
;	COMDAT ??Dconst_iterator@?$vector@ULOTPACKET@@V?$allocator@ULOTPACKET@@@std@@@std@@QBEABULOTPACKET@@XZ
_TEXT	SEGMENT PARA USE32 PUBLIC 'CODE'
_TEXT	ENDS
;	COMDAT ??0iterator@?$vector@UtagTGUILDTACTICSWANTED@@V?$allocator@UtagTGUILDTACTICSWANTED@@@std@@@std@@QAE@PAUtagTGUILDTACTICSWANTED@@@Z
_TEXT	SEGMENT PARA USE32 PUBLIC 'CODE'
_TEXT	ENDS
;	COMDAT ??Yiterator@?$vector@UtagTGUILDTACTICSWANTED@@V?$allocator@UtagTGUILDTACTICSWANTED@@@std@@@std@@QAEAAV012@H@Z
_TEXT	SEGMENT PARA USE32 PUBLIC 'CODE'
_TEXT	ENDS
;	COMDAT ??Dconst_iterator@?$vector@UtagTGUILDTACTICSWANTED@@V?$allocator@UtagTGUILDTACTICSWANTED@@@std@@@std@@QBEABUtagTGUILDTACTICSWANTED@@XZ
_TEXT	SEGMENT PARA USE32 PUBLIC 'CODE'
_TEXT	ENDS
;	COMDAT ?_Root@?$_Tree@V?$_Tmap_traits@KPAUtagTSOULMATE@@U?$less@K@std@@V?$allocator@U?$pair@$$CBKPAUtagTSOULMATE@@@std@@@3@$0A@@std@@@std@@IBEAAPAU_Node@?$_Tree_nod@V?$_Tmap_traits@KPAUtagTSOULMATE@@U?$less@K@std@@V?$allocator@U?$pair@$$CBKPAUtagTSOULMATE@@@std@@@3@$0A@@std@@@2@XZ
_TEXT	SEGMENT PARA USE32 PUBLIC 'CODE'
_TEXT	ENDS
;	COMDAT ?max_size@?$allocator@_J@std@@QBEIXZ
_TEXT	SEGMENT PARA USE32 PUBLIC 'CODE'
_TEXT	ENDS
;	COMDAT ?_Myval@?$_Tree@V?$_Tmap_traits@EUtagCASTLETOP3@@U?$less@E@std@@V?$allocator@U?$pair@$$CBEUtagCASTLETOP3@@@std@@@3@$0A@@std@@@std@@KAAAU?$pair@$$CBEUtagCASTLETOP3@@@2@PAU_Node@?$_Tree_nod@V?$_Tmap_traits@EUtagCASTLETOP3@@U?$less@E@std@@V?$allocator@U?$pair@$$CBEUtagCASTLETOP3@@@std@@@3@$0A@@std@@@2@@Z
_TEXT	SEGMENT PARA USE32 PUBLIC 'CODE'
_TEXT	ENDS
;	COMDAT ?_Inc@const_iterator@?$_Tree@V?$_Tmap_traits@GUtagTRPSGAME@@U?$less@G@std@@V?$allocator@U?$pair@$$CBGUtagTRPSGAME@@@std@@@3@$0A@@std@@@std@@QAEXXZ
_TEXT	SEGMENT PARA USE32 PUBLIC 'CODE'
_TEXT	ENDS
;	COMDAT ?_Inc@const_iterator@?$_Tree@V?$_Tmap_traits@KPAUtagTGUILDMEMBER@@U?$less@K@std@@V?$allocator@U?$pair@$$CBKPAUtagTGUILDMEMBER@@@std@@@3@$0A@@std@@@std@@QAEXXZ
_TEXT	SEGMENT PARA USE32 PUBLIC 'CODE'
_TEXT	ENDS
;	COMDAT ?_Inc@const_iterator@?$_Tree@V?$_Tmap_traits@KPAUtagTITEM@@U?$less@K@std@@V?$allocator@U?$pair@$$CBKPAUtagTITEM@@@std@@@3@$0A@@std@@@std@@QAEXXZ
_TEXT	SEGMENT PARA USE32 PUBLIC 'CODE'
_TEXT	ENDS
;	COMDAT ?_Inc@const_iterator@?$_Tree@V?$_Tmap_traits@KPAUtagTGUILDARTICLE@@U?$less@K@std@@V?$allocator@U?$pair@$$CBKPAUtagTGUILDARTICLE@@@std@@@3@$0A@@std@@@std@@QAEXXZ
_TEXT	SEGMENT PARA USE32 PUBLIC 'CODE'
_TEXT	ENDS
;	COMDAT ?_Inc@const_iterator@?$_Tree@V?$_Tmap_traits@KUtagTGUILDWANTED@@U?$less@K@std@@V?$allocator@U?$pair@$$CBKUtagTGUILDWANTED@@@std@@@3@$0A@@std@@@std@@QAEXXZ
_TEXT	SEGMENT PARA USE32 PUBLIC 'CODE'
_TEXT	ENDS
;	COMDAT ?_Inc@const_iterator@?$_Tree@V?$_Tmap_traits@KPAUtagTGUILDWANTEDAPP@@U?$less@K@std@@V?$allocator@U?$pair@$$CBKPAUtagTGUILDWANTEDAPP@@@std@@@3@$0A@@std@@@std@@QAEXXZ
_TEXT	SEGMENT PARA USE32 PUBLIC 'CODE'
_TEXT	ENDS
;	COMDAT ?_Inc@const_iterator@?$_Tree@V?$_Tmap_traits@KV?$vector@UtagTGUILDTACTICSWANTED@@V?$allocator@UtagTGUILDTACTICSWANTED@@@std@@@std@@U?$less@K@2@V?$allocator@U?$pair@$$CBKV?$vector@UtagTGUILDTACTICSWANTED@@V?$allocator@UtagTGUILDTACTICSWANTED@@@std@@@std@@@std@@@2@$0A@@std@@@std@@QAEXXZ
_TEXT	SEGMENT PARA USE32 PUBLIC 'CODE'
_TEXT	ENDS
;	COMDAT ?_Inc@const_iterator@?$_Tree@V?$_Tmap_traits@KPAUtagTGUILDTACTICSWANTEDAPP@@U?$less@K@std@@V?$allocator@U?$pair@$$CBKPAUtagTGUILDTACTICSWANTEDAPP@@@std@@@3@$0A@@std@@@std@@QAEXXZ
_TEXT	SEGMENT PARA USE32 PUBLIC 'CODE'
_TEXT	ENDS
;	COMDAT ?_Inc@const_iterator@?$_Tree@V?$_Tmap_traits@KPAUtagTTACTICSMEMBER@@U?$less@K@std@@V?$allocator@U?$pair@$$CBKPAUtagTTACTICSMEMBER@@@std@@@3@$0A@@std@@@std@@QAEXXZ
_TEXT	SEGMENT PARA USE32 PUBLIC 'CODE'
_TEXT	ENDS
;	COMDAT ?_Inc@const_iterator@?$_Tree@V?$_Tmap_traits@KPAUtagTCHARACTER@@U?$less@K@std@@V?$allocator@U?$pair@$$CBKPAUtagTCHARACTER@@@std@@@3@$0A@@std@@@std@@QAEXXZ
_TEXT	SEGMENT PARA USE32 PUBLIC 'CODE'
_TEXT	ENDS
;	COMDAT ?_Inc@const_iterator@?$_Tree@V?$_Tmap_traits@EPAUtagTOURNAMENTENTRY@@U?$less@E@std@@V?$allocator@U?$pair@$$CBEPAUtagTOURNAMENTENTRY@@@std@@@3@$0A@@std@@@std@@QAEXXZ
_TEXT	SEGMENT PARA USE32 PUBLIC 'CODE'
_TEXT	ENDS
;	COMDAT ??Yiterator@?$vector@UtagTENTRYRECORD@@V?$allocator@UtagTENTRYRECORD@@@std@@@std@@QAEAAV012@H@Z
_TEXT	SEGMENT PARA USE32 PUBLIC 'CODE'
_TEXT	ENDS
;	COMDAT ??0const_iterator@?$vector@UtagTENTRYRECORD@@V?$allocator@UtagTENTRYRECORD@@@std@@@std@@QAE@PAUtagTENTRYRECORD@@@Z
_TEXT	SEGMENT PARA USE32 PUBLIC 'CODE'
_TEXT	ENDS
;	COMDAT ??0const_iterator@?$vector@PAUtagTCHARACTER@@V?$allocator@PAUtagTCHARACTER@@@std@@@std@@QAE@PAPAUtagTCHARACTER@@@Z
_TEXT	SEGMENT PARA USE32 PUBLIC 'CODE'
_TEXT	ENDS
;	COMDAT ??0const_iterator@?$vector@UtagTNMTREWARD@@V?$allocator@UtagTNMTREWARD@@@std@@@std@@QAE@PAUtagTNMTREWARD@@@Z
_TEXT	SEGMENT PARA USE32 PUBLIC 'CODE'
_TEXT	ENDS
;	COMDAT ??0const_iterator@?$vector@KV?$allocator@K@std@@@std@@QAE@PAK@Z
_TEXT	SEGMENT PARA USE32 PUBLIC 'CODE'
_TEXT	ENDS
;	COMDAT ??0const_iterator@?$vector@UtagTGUILDPOINTREWARD@@V?$allocator@UtagTGUILDPOINTREWARD@@@std@@@std@@QAE@PAUtagTGUILDPOINTREWARD@@@Z
_TEXT	SEGMENT PARA USE32 PUBLIC 'CODE'
_TEXT	ENDS
;	COMDAT ??0const_iterator@?$vector@ULOTPACKET@@V?$allocator@ULOTPACKET@@@std@@@std@@QAE@PAULOTPACKET@@@Z
_TEXT	SEGMENT PARA USE32 PUBLIC 'CODE'
_TEXT	ENDS
;	COMDAT ??0const_iterator@?$vector@UtagTGUILDTACTICSWANTED@@V?$allocator@UtagTGUILDTACTICSWANTED@@@std@@@std@@QAE@PAUtagTGUILDTACTICSWANTED@@@Z
_TEXT	SEGMENT PARA USE32 PUBLIC 'CODE'
_TEXT	ENDS
;	COMDAT ?_Isnil@?$_Tree@V?$_Tmap_traits@KPAUtagTCHARACTER@@U?$less@K@std@@V?$allocator@U?$pair@$$CBKPAUtagTCHARACTER@@@std@@@3@$0A@@std@@@std@@KAAADPAU_Node@?$_Tree_nod@V?$_Tmap_traits@KPAUtagTCHARACTER@@U?$less@K@std@@V?$allocator@U?$pair@$$CBKPAUtagTCHARACTER@@@std@@@3@$0A@@std@@@2@@Z
_TEXT	SEGMENT PARA USE32 PUBLIC 'CODE'
_TEXT	ENDS
;	COMDAT ?_Parent@?$_Tree@V?$_Tmap_traits@KPAUtagTCHARACTER@@U?$less@K@std@@V?$allocator@U?$pair@$$CBKPAUtagTCHARACTER@@@std@@@3@$0A@@std@@@std@@KAAAPAU_Node@?$_Tree_nod@V?$_Tmap_traits@KPAUtagTCHARACTER@@U?$less@K@std@@V?$allocator@U?$pair@$$CBKPAUtagTCHARACTER@@@std@@@3@$0A@@std@@@2@PAU342@@Z
_TEXT	SEGMENT PARA USE32 PUBLIC 'CODE'
_TEXT	ENDS
;	COMDAT ?_Right@?$_Tree@V?$_Tmap_traits@KPAUtagTCHARACTER@@U?$less@K@std@@V?$allocator@U?$pair@$$CBKPAUtagTCHARACTER@@@std@@@3@$0A@@std@@@std@@KAAAPAU_Node@?$_Tree_nod@V?$_Tmap_traits@KPAUtagTCHARACTER@@U?$less@K@std@@V?$allocator@U?$pair@$$CBKPAUtagTCHARACTER@@@std@@@3@$0A@@std@@@2@PAU342@@Z
_TEXT	SEGMENT PARA USE32 PUBLIC 'CODE'
_TEXT	ENDS
;	COMDAT ?_Min@?$_Tree@V?$_Tmap_traits@KPAUtagTCHARACTER@@U?$less@K@std@@V?$allocator@U?$pair@$$CBKPAUtagTCHARACTER@@@std@@@3@$0A@@std@@@std@@KAPAU_Node@?$_Tree_nod@V?$_Tmap_traits@KPAUtagTCHARACTER@@U?$less@K@std@@V?$allocator@U?$pair@$$CBKPAUtagTCHARACTER@@@std@@@3@$0A@@std@@@2@PAU342@@Z
_TEXT	SEGMENT PARA USE32 PUBLIC 'CODE'
_TEXT	ENDS
;	COMDAT ?_Isnil@?$_Tree@V?$_Tmap_traits@KPAUtagTGUILDWANTEDAPP@@U?$less@K@std@@V?$allocator@U?$pair@$$CBKPAUtagTGUILDWANTEDAPP@@@std@@@3@$0A@@std@@@std@@KAAADPAU_Node@?$_Tree_nod@V?$_Tmap_traits@KPAUtagTGUILDWANTEDAPP@@U?$less@K@std@@V?$allocator@U?$pair@$$CBKPAUtagTGUILDWANTEDAPP@@@std@@@3@$0A@@std@@@2@@Z
_TEXT	SEGMENT PARA USE32 PUBLIC 'CODE'
_TEXT	ENDS
;	COMDAT ?_Parent@?$_Tree@V?$_Tmap_traits@KPAUtagTGUILDWANTEDAPP@@U?$less@K@std@@V?$allocator@U?$pair@$$CBKPAUtagTGUILDWANTEDAPP@@@std@@@3@$0A@@std@@@std@@KAAAPAU_Node@?$_Tree_nod@V?$_Tmap_traits@KPAUtagTGUILDWANTEDAPP@@U?$less@K@std@@V?$allocator@U?$pair@$$CBKPAUtagTGUILDWANTEDAPP@@@std@@@3@$0A@@std@@@2@PAU342@@Z
_TEXT	SEGMENT PARA USE32 PUBLIC 'CODE'
_TEXT	ENDS
;	COMDAT ?_Right@?$_Tree@V?$_Tmap_traits@KPAUtagTGUILDWANTEDAPP@@U?$less@K@std@@V?$allocator@U?$pair@$$CBKPAUtagTGUILDWANTEDAPP@@@std@@@3@$0A@@std@@@std@@KAAAPAU_Node@?$_Tree_nod@V?$_Tmap_traits@KPAUtagTGUILDWANTEDAPP@@U?$less@K@std@@V?$allocator@U?$pair@$$CBKPAUtagTGUILDWANTEDAPP@@@std@@@3@$0A@@std@@@2@PAU342@@Z
_TEXT	SEGMENT PARA USE32 PUBLIC 'CODE'
_TEXT	ENDS
;	COMDAT ?_Min@?$_Tree@V?$_Tmap_traits@KPAUtagTGUILDWANTEDAPP@@U?$less@K@std@@V?$allocator@U?$pair@$$CBKPAUtagTGUILDWANTEDAPP@@@std@@@3@$0A@@std@@@std@@KAPAU_Node@?$_Tree_nod@V?$_Tmap_traits@KPAUtagTGUILDWANTEDAPP@@U?$less@K@std@@V?$allocator@U?$pair@$$CBKPAUtagTGUILDWANTEDAPP@@@std@@@3@$0A@@std@@@2@PAU342@@Z
_TEXT	SEGMENT PARA USE32 PUBLIC 'CODE'
_TEXT	ENDS
;	COMDAT ?_Isnil@?$_Tree@V?$_Tmap_traits@KPAUtagTGUILDTACTICSWANTEDAPP@@U?$less@K@std@@V?$allocator@U?$pair@$$CBKPAUtagTGUILDTACTICSWANTEDAPP@@@std@@@3@$0A@@std@@@std@@KAAADPAU_Node@?$_Tree_nod@V?$_Tmap_traits@KPAUtagTGUILDTACTICSWANTEDAPP@@U?$less@K@std@@V?$allocator@U?$pair@$$CBKPAUtagTGUILDTACTICSWANTEDAPP@@@std@@@3@$0A@@std@@@2@@Z
_TEXT	SEGMENT PARA USE32 PUBLIC 'CODE'
_TEXT	ENDS
;	COMDAT ?_Parent@?$_Tree@V?$_Tmap_traits@KPAUtagTGUILDTACTICSWANTEDAPP@@U?$less@K@std@@V?$allocator@U?$pair@$$CBKPAUtagTGUILDTACTICSWANTEDAPP@@@std@@@3@$0A@@std@@@std@@KAAAPAU_Node@?$_Tree_nod@V?$_Tmap_traits@KPAUtagTGUILDTACTICSWANTEDAPP@@U?$less@K@std@@V?$allocator@U?$pair@$$CBKPAUtagTGUILDTACTICSWANTEDAPP@@@std@@@3@$0A@@std@@@2@PAU342@@Z
_TEXT	SEGMENT PARA USE32 PUBLIC 'CODE'
_TEXT	ENDS
;	COMDAT ?_Right@?$_Tree@V?$_Tmap_traits@KPAUtagTGUILDTACTICSWANTEDAPP@@U?$less@K@std@@V?$allocator@U?$pair@$$CBKPAUtagTGUILDTACTICSWANTEDAPP@@@std@@@3@$0A@@std@@@std@@KAAAPAU_Node@?$_Tree_nod@V?$_Tmap_traits@KPAUtagTGUILDTACTICSWANTEDAPP@@U?$less@K@std@@V?$allocator@U?$pair@$$CBKPAUtagTGUILDTACTICSWANTEDAPP@@@std@@@3@$0A@@std@@@2@PAU342@@Z
_TEXT	SEGMENT PARA USE32 PUBLIC 'CODE'
_TEXT	ENDS
;	COMDAT ?_Min@?$_Tree@V?$_Tmap_traits@KPAUtagTGUILDTACTICSWANTEDAPP@@U?$less@K@std@@V?$allocator@U?$pair@$$CBKPAUtagTGUILDTACTICSWANTEDAPP@@@std@@@3@$0A@@std@@@std@@KAPAU_Node@?$_Tree_nod@V?$_Tmap_traits@KPAUtagTGUILDTACTICSWANTEDAPP@@U?$less@K@std@@V?$allocator@U?$pair@$$CBKPAUtagTGUILDTACTICSWANTEDAPP@@@std@@@3@$0A@@std@@@2@PAU342@@Z
_TEXT	SEGMENT PARA USE32 PUBLIC 'CODE'
_TEXT	ENDS
;	COMDAT ?_Isnil@?$_Tree@V?$_Tmap_traits@KPAUtagTITEM@@U?$less@K@std@@V?$allocator@U?$pair@$$CBKPAUtagTITEM@@@std@@@3@$0A@@std@@@std@@KAAADPAU_Node@?$_Tree_nod@V?$_Tmap_traits@KPAUtagTITEM@@U?$less@K@std@@V?$allocator@U?$pair@$$CBKPAUtagTITEM@@@std@@@3@$0A@@std@@@2@@Z
_TEXT	SEGMENT PARA USE32 PUBLIC 'CODE'
_TEXT	ENDS
;	COMDAT ?_Parent@?$_Tree@V?$_Tmap_traits@KPAUtagTITEM@@U?$less@K@std@@V?$allocator@U?$pair@$$CBKPAUtagTITEM@@@std@@@3@$0A@@std@@@std@@KAAAPAU_Node@?$_Tree_nod@V?$_Tmap_traits@KPAUtagTITEM@@U?$less@K@std@@V?$allocator@U?$pair@$$CBKPAUtagTITEM@@@std@@@3@$0A@@std@@@2@PAU342@@Z
_TEXT	SEGMENT PARA USE32 PUBLIC 'CODE'
_TEXT	ENDS
;	COMDAT ?_Right@?$_Tree@V?$_Tmap_traits@KPAUtagTITEM@@U?$less@K@std@@V?$allocator@U?$pair@$$CBKPAUtagTITEM@@@std@@@3@$0A@@std@@@std@@KAAAPAU_Node@?$_Tree_nod@V?$_Tmap_traits@KPAUtagTITEM@@U?$less@K@std@@V?$allocator@U?$pair@$$CBKPAUtagTITEM@@@std@@@3@$0A@@std@@@2@PAU342@@Z
_TEXT	SEGMENT PARA USE32 PUBLIC 'CODE'
_TEXT	ENDS
;	COMDAT ?_Min@?$_Tree@V?$_Tmap_traits@KPAUtagTITEM@@U?$less@K@std@@V?$allocator@U?$pair@$$CBKPAUtagTITEM@@@std@@@3@$0A@@std@@@std@@KAPAU_Node@?$_Tree_nod@V?$_Tmap_traits@KPAUtagTITEM@@U?$less@K@std@@V?$allocator@U?$pair@$$CBKPAUtagTITEM@@@std@@@3@$0A@@std@@@2@PAU342@@Z
_TEXT	SEGMENT PARA USE32 PUBLIC 'CODE'
_TEXT	ENDS
;	COMDAT ?_Isnil@?$_Tree@V?$_Tmap_traits@KPAUtagTGUILDMEMBER@@U?$less@K@std@@V?$allocator@U?$pair@$$CBKPAUtagTGUILDMEMBER@@@std@@@3@$0A@@std@@@std@@KAAADPAU_Node@?$_Tree_nod@V?$_Tmap_traits@KPAUtagTGUILDMEMBER@@U?$less@K@std@@V?$allocator@U?$pair@$$CBKPAUtagTGUILDMEMBER@@@std@@@3@$0A@@std@@@2@@Z
_TEXT	SEGMENT PARA USE32 PUBLIC 'CODE'
_TEXT	ENDS
;	COMDAT ?_Parent@?$_Tree@V?$_Tmap_traits@KPAUtagTGUILDMEMBER@@U?$less@K@std@@V?$allocator@U?$pair@$$CBKPAUtagTGUILDMEMBER@@@std@@@3@$0A@@std@@@std@@KAAAPAU_Node@?$_Tree_nod@V?$_Tmap_traits@KPAUtagTGUILDMEMBER@@U?$less@K@std@@V?$allocator@U?$pair@$$CBKPAUtagTGUILDMEMBER@@@std@@@3@$0A@@std@@@2@PAU342@@Z
_TEXT	SEGMENT PARA USE32 PUBLIC 'CODE'
_TEXT	ENDS
;	COMDAT ?_Right@?$_Tree@V?$_Tmap_traits@KPAUtagTGUILDMEMBER@@U?$less@K@std@@V?$allocator@U?$pair@$$CBKPAUtagTGUILDMEMBER@@@std@@@3@$0A@@std@@@std@@KAAAPAU_Node@?$_Tree_nod@V?$_Tmap_traits@KPAUtagTGUILDMEMBER@@U?$less@K@std@@V?$allocator@U?$pair@$$CBKPAUtagTGUILDMEMBER@@@std@@@3@$0A@@std@@@2@PAU342@@Z
_TEXT	SEGMENT PARA USE32 PUBLIC 'CODE'
_TEXT	ENDS
;	COMDAT ?_Min@?$_Tree@V?$_Tmap_traits@KPAUtagTGUILDMEMBER@@U?$less@K@std@@V?$allocator@U?$pair@$$CBKPAUtagTGUILDMEMBER@@@std@@@3@$0A@@std@@@std@@KAPAU_Node@?$_Tree_nod@V?$_Tmap_traits@KPAUtagTGUILDMEMBER@@U?$less@K@std@@V?$allocator@U?$pair@$$CBKPAUtagTGUILDMEMBER@@@std@@@3@$0A@@std@@@2@PAU342@@Z
_TEXT	SEGMENT PARA USE32 PUBLIC 'CODE'
_TEXT	ENDS
;	COMDAT ?_Isnil@?$_Tree@V?$_Tmap_traits@KPAUtagTTACTICSMEMBER@@U?$less@K@std@@V?$allocator@U?$pair@$$CBKPAUtagTTACTICSMEMBER@@@std@@@3@$0A@@std@@@std@@KAAADPAU_Node@?$_Tree_nod@V?$_Tmap_traits@KPAUtagTTACTICSMEMBER@@U?$less@K@std@@V?$allocator@U?$pair@$$CBKPAUtagTTACTICSMEMBER@@@std@@@3@$0A@@std@@@2@@Z
_TEXT	SEGMENT PARA USE32 PUBLIC 'CODE'
_TEXT	ENDS
;	COMDAT ?_Parent@?$_Tree@V?$_Tmap_traits@KPAUtagTTACTICSMEMBER@@U?$less@K@std@@V?$allocator@U?$pair@$$CBKPAUtagTTACTICSMEMBER@@@std@@@3@$0A@@std@@@std@@KAAAPAU_Node@?$_Tree_nod@V?$_Tmap_traits@KPAUtagTTACTICSMEMBER@@U?$less@K@std@@V?$allocator@U?$pair@$$CBKPAUtagTTACTICSMEMBER@@@std@@@3@$0A@@std@@@2@PAU342@@Z
_TEXT	SEGMENT PARA USE32 PUBLIC 'CODE'
_TEXT	ENDS
;	COMDAT ?_Right@?$_Tree@V?$_Tmap_traits@KPAUtagTTACTICSMEMBER@@U?$less@K@std@@V?$allocator@U?$pair@$$CBKPAUtagTTACTICSMEMBER@@@std@@@3@$0A@@std@@@std@@KAAAPAU_Node@?$_Tree_nod@V?$_Tmap_traits@KPAUtagTTACTICSMEMBER@@U?$less@K@std@@V?$allocator@U?$pair@$$CBKPAUtagTTACTICSMEMBER@@@std@@@3@$0A@@std@@@2@PAU342@@Z
_TEXT	SEGMENT PARA USE32 PUBLIC 'CODE'
_TEXT	ENDS
;	COMDAT ?_Min@?$_Tree@V?$_Tmap_traits@KPAUtagTTACTICSMEMBER@@U?$less@K@std@@V?$allocator@U?$pair@$$CBKPAUtagTTACTICSMEMBER@@@std@@@3@$0A@@std@@@std@@KAPAU_Node@?$_Tree_nod@V?$_Tmap_traits@KPAUtagTTACTICSMEMBER@@U?$less@K@std@@V?$allocator@U?$pair@$$CBKPAUtagTTACTICSMEMBER@@@std@@@3@$0A@@std@@@2@PAU342@@Z
_TEXT	SEGMENT PARA USE32 PUBLIC 'CODE'
_TEXT	ENDS
;	COMDAT ?_Isnil@?$_Tree@V?$_Tmap_traits@KPAUtagTGUILDARTICLE@@U?$less@K@std@@V?$allocator@U?$pair@$$CBKPAUtagTGUILDARTICLE@@@std@@@3@$0A@@std@@@std@@KAAADPAU_Node@?$_Tree_nod@V?$_Tmap_traits@KPAUtagTGUILDARTICLE@@U?$less@K@std@@V?$allocator@U?$pair@$$CBKPAUtagTGUILDARTICLE@@@std@@@3@$0A@@std@@@2@@Z
_TEXT	SEGMENT PARA USE32 PUBLIC 'CODE'
_TEXT	ENDS
;	COMDAT ?_Parent@?$_Tree@V?$_Tmap_traits@KPAUtagTGUILDARTICLE@@U?$less@K@std@@V?$allocator@U?$pair@$$CBKPAUtagTGUILDARTICLE@@@std@@@3@$0A@@std@@@std@@KAAAPAU_Node@?$_Tree_nod@V?$_Tmap_traits@KPAUtagTGUILDARTICLE@@U?$less@K@std@@V?$allocator@U?$pair@$$CBKPAUtagTGUILDARTICLE@@@std@@@3@$0A@@std@@@2@PAU342@@Z
_TEXT	SEGMENT PARA USE32 PUBLIC 'CODE'
_TEXT	ENDS
;	COMDAT ?_Right@?$_Tree@V?$_Tmap_traits@KPAUtagTGUILDARTICLE@@U?$less@K@std@@V?$allocator@U?$pair@$$CBKPAUtagTGUILDARTICLE@@@std@@@3@$0A@@std@@@std@@KAAAPAU_Node@?$_Tree_nod@V?$_Tmap_traits@KPAUtagTGUILDARTICLE@@U?$less@K@std@@V?$allocator@U?$pair@$$CBKPAUtagTGUILDARTICLE@@@std@@@3@$0A@@std@@@2@PAU342@@Z
_TEXT	SEGMENT PARA USE32 PUBLIC 'CODE'
_TEXT	ENDS
;	COMDAT ?_Min@?$_Tree@V?$_Tmap_traits@KPAUtagTGUILDARTICLE@@U?$less@K@std@@V?$allocator@U?$pair@$$CBKPAUtagTGUILDARTICLE@@@std@@@3@$0A@@std@@@std@@KAPAU_Node@?$_Tree_nod@V?$_Tmap_traits@KPAUtagTGUILDARTICLE@@U?$less@K@std@@V?$allocator@U?$pair@$$CBKPAUtagTGUILDARTICLE@@@std@@@3@$0A@@std@@@2@PAU342@@Z
_TEXT	SEGMENT PARA USE32 PUBLIC 'CODE'
_TEXT	ENDS
;	COMDAT ?_Isnil@?$_Tree@V?$_Tmap_traits@GUtagTRPSGAME@@U?$less@G@std@@V?$allocator@U?$pair@$$CBGUtagTRPSGAME@@@std@@@3@$0A@@std@@@std@@KAAADPAU_Node@?$_Tree_nod@V?$_Tmap_traits@GUtagTRPSGAME@@U?$less@G@std@@V?$allocator@U?$pair@$$CBGUtagTRPSGAME@@@std@@@3@$0A@@std@@@2@@Z
_TEXT	SEGMENT PARA USE32 PUBLIC 'CODE'
_TEXT	ENDS
;	COMDAT ?_Parent@?$_Tree@V?$_Tmap_traits@GUtagTRPSGAME@@U?$less@G@std@@V?$allocator@U?$pair@$$CBGUtagTRPSGAME@@@std@@@3@$0A@@std@@@std@@KAAAPAU_Node@?$_Tree_nod@V?$_Tmap_traits@GUtagTRPSGAME@@U?$less@G@std@@V?$allocator@U?$pair@$$CBGUtagTRPSGAME@@@std@@@3@$0A@@std@@@2@PAU342@@Z
_TEXT	SEGMENT PARA USE32 PUBLIC 'CODE'
_TEXT	ENDS
;	COMDAT ?_Right@?$_Tree@V?$_Tmap_traits@GUtagTRPSGAME@@U?$less@G@std@@V?$allocator@U?$pair@$$CBGUtagTRPSGAME@@@std@@@3@$0A@@std@@@std@@KAAAPAU_Node@?$_Tree_nod@V?$_Tmap_traits@GUtagTRPSGAME@@U?$less@G@std@@V?$allocator@U?$pair@$$CBGUtagTRPSGAME@@@std@@@3@$0A@@std@@@2@PAU342@@Z
_TEXT	SEGMENT PARA USE32 PUBLIC 'CODE'
_TEXT	ENDS
;	COMDAT ?_Min@?$_Tree@V?$_Tmap_traits@GUtagTRPSGAME@@U?$less@G@std@@V?$allocator@U?$pair@$$CBGUtagTRPSGAME@@@std@@@3@$0A@@std@@@std@@KAPAU_Node@?$_Tree_nod@V?$_Tmap_traits@GUtagTRPSGAME@@U?$less@G@std@@V?$allocator@U?$pair@$$CBGUtagTRPSGAME@@@std@@@3@$0A@@std@@@2@PAU342@@Z
_TEXT	SEGMENT PARA USE32 PUBLIC 'CODE'
_TEXT	ENDS
;	COMDAT ?_Isnil@?$_Tree@V?$_Tmap_traits@KUtagTGUILDWANTED@@U?$less@K@std@@V?$allocator@U?$pair@$$CBKUtagTGUILDWANTED@@@std@@@3@$0A@@std@@@std@@KAAADPAU_Node@?$_Tree_nod@V?$_Tmap_traits@KUtagTGUILDWANTED@@U?$less@K@std@@V?$allocator@U?$pair@$$CBKUtagTGUILDWANTED@@@std@@@3@$0A@@std@@@2@@Z
_TEXT	SEGMENT PARA USE32 PUBLIC 'CODE'
_TEXT	ENDS
;	COMDAT ?_Parent@?$_Tree@V?$_Tmap_traits@KUtagTGUILDWANTED@@U?$less@K@std@@V?$allocator@U?$pair@$$CBKUtagTGUILDWANTED@@@std@@@3@$0A@@std@@@std@@KAAAPAU_Node@?$_Tree_nod@V?$_Tmap_traits@KUtagTGUILDWANTED@@U?$less@K@std@@V?$allocator@U?$pair@$$CBKUtagTGUILDWANTED@@@std@@@3@$0A@@std@@@2@PAU342@@Z
_TEXT	SEGMENT PARA USE32 PUBLIC 'CODE'
_TEXT	ENDS
;	COMDAT ?_Right@?$_Tree@V?$_Tmap_traits@KUtagTGUILDWANTED@@U?$less@K@std@@V?$allocator@U?$pair@$$CBKUtagTGUILDWANTED@@@std@@@3@$0A@@std@@@std@@KAAAPAU_Node@?$_Tree_nod@V?$_Tmap_traits@KUtagTGUILDWANTED@@U?$less@K@std@@V?$allocator@U?$pair@$$CBKUtagTGUILDWANTED@@@std@@@3@$0A@@std@@@2@PAU342@@Z
_TEXT	SEGMENT PARA USE32 PUBLIC 'CODE'
_TEXT	ENDS
;	COMDAT ?_Min@?$_Tree@V?$_Tmap_traits@KUtagTGUILDWANTED@@U?$less@K@std@@V?$allocator@U?$pair@$$CBKUtagTGUILDWANTED@@@std@@@3@$0A@@std@@@std@@KAPAU_Node@?$_Tree_nod@V?$_Tmap_traits@KUtagTGUILDWANTED@@U?$less@K@std@@V?$allocator@U?$pair@$$CBKUtagTGUILDWANTED@@@std@@@3@$0A@@std@@@2@PAU342@@Z
_TEXT	SEGMENT PARA USE32 PUBLIC 'CODE'
_TEXT	ENDS
;	COMDAT ?_Isnil@?$_Tree@V?$_Tmap_traits@KV?$vector@UtagTGUILDTACTICSWANTED@@V?$allocator@UtagTGUILDTACTICSWANTED@@@std@@@std@@U?$less@K@2@V?$allocator@U?$pair@$$CBKV?$vector@UtagTGUILDTACTICSWANTED@@V?$allocator@UtagTGUILDTACTICSWANTED@@@std@@@std@@@std@@@2@$0A@@std@@@std@@KAAADPAU_Node@?$_Tree_nod@V?$_Tmap_traits@KV?$vector@UtagTGUILDTACTICSWANTED@@V?$allocator@UtagTGUILDTACTICSWANTED@@@std@@@std@@U?$less@K@2@V?$allocator@U?$pair@$$CBKV?$vector@UtagTGUILDTACTICSWANTED@@V?$allocator@UtagTGUILDTACTICSWANTED@@@std@@@std@@@std@@@2@$0A@@std@@@2@@Z
_TEXT	SEGMENT PARA USE32 PUBLIC 'CODE'
_TEXT	ENDS
;	COMDAT ?_Parent@?$_Tree@V?$_Tmap_traits@KV?$vector@UtagTGUILDTACTICSWANTED@@V?$allocator@UtagTGUILDTACTICSWANTED@@@std@@@std@@U?$less@K@2@V?$allocator@U?$pair@$$CBKV?$vector@UtagTGUILDTACTICSWANTED@@V?$allocator@UtagTGUILDTACTICSWANTED@@@std@@@std@@@std@@@2@$0A@@std@@@std@@KAAAPAU_Node@?$_Tree_nod@V?$_Tmap_traits@KV?$vector@UtagTGUILDTACTICSWANTED@@V?$allocator@UtagTGUILDTACTICSWANTED@@@std@@@std@@U?$less@K@2@V?$allocator@U?$pair@$$CBKV?$vector@UtagTGUILDTACTICSWANTED@@V?$allocator@UtagTGUILDTACTICSWANTED@@@std@@@std@@@std@@@2@$0A@@std@@@2@PAU342@@Z
_TEXT	SEGMENT PARA USE32 PUBLIC 'CODE'
_TEXT	ENDS
;	COMDAT ?_Right@?$_Tree@V?$_Tmap_traits@KV?$vector@UtagTGUILDTACTICSWANTED@@V?$allocator@UtagTGUILDTACTICSWANTED@@@std@@@std@@U?$less@K@2@V?$allocator@U?$pair@$$CBKV?$vector@UtagTGUILDTACTICSWANTED@@V?$allocator@UtagTGUILDTACTICSWANTED@@@std@@@std@@@std@@@2@$0A@@std@@@std@@KAAAPAU_Node@?$_Tree_nod@V?$_Tmap_traits@KV?$vector@UtagTGUILDTACTICSWANTED@@V?$allocator@UtagTGUILDTACTICSWANTED@@@std@@@std@@U?$less@K@2@V?$allocator@U?$pair@$$CBKV?$vector@UtagTGUILDTACTICSWANTED@@V?$allocator@UtagTGUILDTACTICSWANTED@@@std@@@std@@@std@@@2@$0A@@std@@@2@PAU342@@Z
_TEXT	SEGMENT PARA USE32 PUBLIC 'CODE'
_TEXT	ENDS
;	COMDAT ?_Min@?$_Tree@V?$_Tmap_traits@KV?$vector@UtagTGUILDTACTICSWANTED@@V?$allocator@UtagTGUILDTACTICSWANTED@@@std@@@std@@U?$less@K@2@V?$allocator@U?$pair@$$CBKV?$vector@UtagTGUILDTACTICSWANTED@@V?$allocator@UtagTGUILDTACTICSWANTED@@@std@@@std@@@std@@@2@$0A@@std@@@std@@KAPAU_Node@?$_Tree_nod@V?$_Tmap_traits@KV?$vector@UtagTGUILDTACTICSWANTED@@V?$allocator@UtagTGUILDTACTICSWANTED@@@std@@@std@@U?$less@K@2@V?$allocator@U?$pair@$$CBKV?$vector@UtagTGUILDTACTICSWANTED@@V?$allocator@UtagTGUILDTACTICSWANTED@@@std@@@std@@@std@@@2@$0A@@std@@@2@PAU342@@Z
_TEXT	SEGMENT PARA USE32 PUBLIC 'CODE'
_TEXT	ENDS
;	COMDAT ?_Isnil@?$_Tree@V?$_Tmap_traits@EPAUtagTOURNAMENTENTRY@@U?$less@E@std@@V?$allocator@U?$pair@$$CBEPAUtagTOURNAMENTENTRY@@@std@@@3@$0A@@std@@@std@@KAAADPAU_Node@?$_Tree_nod@V?$_Tmap_traits@EPAUtagTOURNAMENTENTRY@@U?$less@E@std@@V?$allocator@U?$pair@$$CBEPAUtagTOURNAMENTENTRY@@@std@@@3@$0A@@std@@@2@@Z
_TEXT	SEGMENT PARA USE32 PUBLIC 'CODE'
_TEXT	ENDS
;	COMDAT ?_Parent@?$_Tree@V?$_Tmap_traits@EPAUtagTOURNAMENTENTRY@@U?$less@E@std@@V?$allocator@U?$pair@$$CBEPAUtagTOURNAMENTENTRY@@@std@@@3@$0A@@std@@@std@@KAAAPAU_Node@?$_Tree_nod@V?$_Tmap_traits@EPAUtagTOURNAMENTENTRY@@U?$less@E@std@@V?$allocator@U?$pair@$$CBEPAUtagTOURNAMENTENTRY@@@std@@@3@$0A@@std@@@2@PAU342@@Z
_TEXT	SEGMENT PARA USE32 PUBLIC 'CODE'
_TEXT	ENDS
;	COMDAT ?_Right@?$_Tree@V?$_Tmap_traits@EPAUtagTOURNAMENTENTRY@@U?$less@E@std@@V?$allocator@U?$pair@$$CBEPAUtagTOURNAMENTENTRY@@@std@@@3@$0A@@std@@@std@@KAAAPAU_Node@?$_Tree_nod@V?$_Tmap_traits@EPAUtagTOURNAMENTENTRY@@U?$less@E@std@@V?$allocator@U?$pair@$$CBEPAUtagTOURNAMENTENTRY@@@std@@@3@$0A@@std@@@2@PAU342@@Z
_TEXT	SEGMENT PARA USE32 PUBLIC 'CODE'
_TEXT	ENDS
;	COMDAT ?_Min@?$_Tree@V?$_Tmap_traits@EPAUtagTOURNAMENTENTRY@@U?$less@E@std@@V?$allocator@U?$pair@$$CBEPAUtagTOURNAMENTENTRY@@@std@@@3@$0A@@std@@@std@@KAPAU_Node@?$_Tree_nod@V?$_Tmap_traits@EPAUtagTOURNAMENTENTRY@@U?$less@E@std@@V?$allocator@U?$pair@$$CBEPAUtagTOURNAMENTENTRY@@@std@@@3@$0A@@std@@@2@PAU342@@Z
_TEXT	SEGMENT PARA USE32 PUBLIC 'CODE'
_TEXT	ENDS
;	COMDAT ?Unlock@?$CComCritSecLock@VCComCriticalSection@ATL@@@ATL@@QAEXXZ
_TEXT	SEGMENT PARA USE32 PUBLIC 'CODE'
_TEXT	ENDS
;	COMDAT ??$_Ptr_cat@PAUtagTCASHITMSALE@@PAU1@@std@@YA?AU_Nonscalar_ptr_iterator_tag@0@AAPAUtagTCASHITMSALE@@0@Z
_TEXT	SEGMENT PARA USE32 PUBLIC 'CODE'
_TEXT	ENDS
;	COMDAT ??$_Uninit_fill_n@PAUtagTCASHITMSALE@@IU1@V?$allocator@UtagTCASHITMSALE@@@std@@@std@@YAXPAUtagTCASHITMSALE@@IABU1@AAV?$allocator@UtagTCASHITMSALE@@@0@U_Nonscalar_ptr_iterator_tag@0@@Z
_TEXT	SEGMENT PARA USE32 PUBLIC 'CODE'
_TEXT	ENDS
;	COMDAT ??$_Uninit_fill_n@GIG@std@@YAXPAGIABGAAV?$allocator@G@0@U_Scalar_ptr_iterator_tag@0@@Z
_TEXT	SEGMENT PARA USE32 PUBLIC 'CODE'
_TEXT	ENDS
;	COMDAT ??$_Ptr_cat@PAUtagMONREGEN@@PAU1@@std@@YA?AU_Nonscalar_ptr_iterator_tag@0@AAPAUtagMONREGEN@@0@Z
_TEXT	SEGMENT PARA USE32 PUBLIC 'CODE'
_TEXT	ENDS
;	COMDAT ??$_Uninit_fill_n@PAUtagMONREGEN@@IU1@V?$allocator@UtagMONREGEN@@@std@@@std@@YAXPAUtagMONREGEN@@IABU1@AAV?$allocator@UtagMONREGEN@@@0@U_Nonscalar_ptr_iterator_tag@0@@Z
_TEXT	SEGMENT PARA USE32 PUBLIC 'CODE'
_TEXT	ENDS
;	COMDAT ??$_Ptr_cat@PAUtagLOTTERY@@PAU1@@std@@YA?AU_Nonscalar_ptr_iterator_tag@0@AAPAUtagLOTTERY@@0@Z
_TEXT	SEGMENT PARA USE32 PUBLIC 'CODE'
_TEXT	ENDS
;	COMDAT ??$_Uninit_fill_n@PAUtagLOTTERY@@IU1@V?$allocator@UtagLOTTERY@@@std@@@std@@YAXPAUtagLOTTERY@@IABU1@AAV?$allocator@UtagLOTTERY@@@0@U_Nonscalar_ptr_iterator_tag@0@@Z
_TEXT	SEGMENT PARA USE32 PUBLIC 'CODE'
_TEXT	ENDS
;	COMDAT ??$_Ptr_cat@PAUtagTENTRYRECORD@@PAU1@@std@@YA?AU_Nonscalar_ptr_iterator_tag@0@AAPAUtagTENTRYRECORD@@0@Z
_TEXT	SEGMENT PARA USE32 PUBLIC 'CODE'
_TEXT	ENDS
;	COMDAT ??$_Destroy_range@UtagTENTRYRECORD@@V?$allocator@UtagTENTRYRECORD@@@std@@@std@@YAXPAUtagTENTRYRECORD@@0AAV?$allocator@UtagTENTRYRECORD@@@0@U_Nonscalar_ptr_iterator_tag@0@@Z
_TEXT	SEGMENT PARA USE32 PUBLIC 'CODE'
_TEXT	ENDS
;	COMDAT ??$_Destroy_range@EV?$allocator@E@std@@@std@@YAXPAE0AAV?$allocator@E@0@U_Scalar_ptr_iterator_tag@0@@Z
_TEXT	SEGMENT PARA USE32 PUBLIC 'CODE'
_TEXT	ENDS
;	COMDAT ??$_Destroy_range@UtagTCASHITMSALE@@V?$allocator@UtagTCASHITMSALE@@@std@@@std@@YAXPAUtagTCASHITMSALE@@0AAV?$allocator@UtagTCASHITMSALE@@@0@U_Nonscalar_ptr_iterator_tag@0@@Z
_TEXT	SEGMENT PARA USE32 PUBLIC 'CODE'
_TEXT	ENDS
;	COMDAT ??$_Uninitialized_copy@PAUtagTCASHITMSALE@@PAU1@V?$allocator@UtagTCASHITMSALE@@@std@@@std@@YAPAUtagTCASHITMSALE@@PAU1@00AAV?$allocator@UtagTCASHITMSALE@@@0@@Z
_TEXT	SEGMENT PARA USE32 PUBLIC 'CODE'
_TEXT	ENDS
;	COMDAT ??$_Copy_backward_opt@PAUtagTCASHITMSALE@@PAU1@@std@@YAPAUtagTCASHITMSALE@@PAU1@00U_Nonscalar_ptr_iterator_tag@0@@Z
_TEXT	SEGMENT PARA USE32 PUBLIC 'CODE'
_TEXT	ENDS
;	COMDAT ??$_Destroy_range@GV?$allocator@G@std@@@std@@YAXPAG0AAV?$allocator@G@0@U_Scalar_ptr_iterator_tag@0@@Z
_TEXT	SEGMENT PARA USE32 PUBLIC 'CODE'
_TEXT	ENDS
;	COMDAT ??$_Uninitialized_copy@PAGPAGV?$allocator@G@std@@@std@@YAPAGPAG00AAV?$allocator@G@0@@Z
_TEXT	SEGMENT PARA USE32 PUBLIC 'CODE'
_TEXT	ENDS
;	COMDAT ??$_Copy_backward_opt@PAGPAG@std@@YAPAGPAG00U_Scalar_ptr_iterator_tag@0@@Z
_TEXT	SEGMENT PARA USE32 PUBLIC 'CODE'
_TEXT	ENDS
;	COMDAT ??$_Destroy_range@UtagMONREGEN@@V?$allocator@UtagMONREGEN@@@std@@@std@@YAXPAUtagMONREGEN@@0AAV?$allocator@UtagMONREGEN@@@0@U_Nonscalar_ptr_iterator_tag@0@@Z
_TEXT	SEGMENT PARA USE32 PUBLIC 'CODE'
_TEXT	ENDS
;	COMDAT ??$_Uninitialized_copy@PAUtagMONREGEN@@PAU1@V?$allocator@UtagMONREGEN@@@std@@@std@@YAPAUtagMONREGEN@@PAU1@00AAV?$allocator@UtagMONREGEN@@@0@@Z
_TEXT	SEGMENT PARA USE32 PUBLIC 'CODE'
_TEXT	ENDS
;	COMDAT ??$_Copy_backward_opt@PAUtagMONREGEN@@PAU1@@std@@YAPAUtagMONREGEN@@PAU1@00U_Nonscalar_ptr_iterator_tag@0@@Z
_TEXT	SEGMENT PARA USE32 PUBLIC 'CODE'
_TEXT	ENDS
;	COMDAT ??$_Destroy_range@UtagLOTTERY@@V?$allocator@UtagLOTTERY@@@std@@@std@@YAXPAUtagLOTTERY@@0AAV?$allocator@UtagLOTTERY@@@0@U_Nonscalar_ptr_iterator_tag@0@@Z
_TEXT	SEGMENT PARA USE32 PUBLIC 'CODE'
_TEXT	ENDS
;	COMDAT ??$_Uninitialized_copy@PAUtagLOTTERY@@PAU1@V?$allocator@UtagLOTTERY@@@std@@@std@@YAPAUtagLOTTERY@@PAU1@00AAV?$allocator@UtagLOTTERY@@@0@@Z
_TEXT	SEGMENT PARA USE32 PUBLIC 'CODE'
_TEXT	ENDS
;	COMDAT ??$_Copy_backward_opt@PAUtagLOTTERY@@PAU1@@std@@YAPAUtagLOTTERY@@PAU1@00U_Nonscalar_ptr_iterator_tag@0@@Z
_TEXT	SEGMENT PARA USE32 PUBLIC 'CODE'
_TEXT	ENDS
;	COMDAT ??$_Ptr_cat@PAUtagTNMTREWARD@@PAU1@@std@@YA?AU_Nonscalar_ptr_iterator_tag@0@AAPAUtagTNMTREWARD@@0@Z
_TEXT	SEGMENT PARA USE32 PUBLIC 'CODE'
_TEXT	ENDS
;	COMDAT ??$_Destroy_range@UtagTNMTREWARD@@V?$allocator@UtagTNMTREWARD@@@std@@@std@@YAXPAUtagTNMTREWARD@@0AAV?$allocator@UtagTNMTREWARD@@@0@U_Nonscalar_ptr_iterator_tag@0@@Z
_TEXT	SEGMENT PARA USE32 PUBLIC 'CODE'
_TEXT	ENDS
;	COMDAT ??$_Ucopy@Vconst_iterator@?$vector@_JV?$allocator@_J@std@@@std@@@?$vector@_JV?$allocator@_J@std@@@std@@IAEPA_JVconst_iterator@01@0PA_J@Z
_TEXT	SEGMENT PARA USE32 PUBLIC 'CODE'
_TEXT	ENDS
;	COMDAT ??$_Destroy_range@_JV?$allocator@_J@std@@@std@@YAXPA_J0AAV?$allocator@_J@0@@Z
_TEXT	SEGMENT PARA USE32 PUBLIC 'CODE'
_TEXT	ENDS
;	COMDAT ??$_Allocate@_J@std@@YAPA_JIPA_J@Z
_TEXT	SEGMENT PARA USE32 PUBLIC 'CODE'
_TEXT	ENDS
;	COMDAT ?destroy@?$allocator@UtagTENTRYRECORD@@@std@@QAEXPAUtagTENTRYRECORD@@@Z
_TEXT	SEGMENT PARA USE32 PUBLIC 'CODE'
_TEXT	ENDS
;	COMDAT ?construct@?$allocator@UtagTCASHITMSALE@@@std@@QAEXPAUtagTCASHITMSALE@@ABU3@@Z
_TEXT	SEGMENT PARA USE32 PUBLIC 'CODE'
_TEXT	ENDS
;	COMDAT ?destroy@?$allocator@UtagTCASHITMSALE@@@std@@QAEXPAUtagTCASHITMSALE@@@Z
_TEXT	SEGMENT PARA USE32 PUBLIC 'CODE'
_TEXT	ENDS
;	COMDAT ?construct@?$allocator@UtagMONREGEN@@@std@@QAEXPAUtagMONREGEN@@ABU3@@Z
_TEXT	SEGMENT PARA USE32 PUBLIC 'CODE'
_TEXT	ENDS
;	COMDAT ?destroy@?$allocator@UtagMONREGEN@@@std@@QAEXPAUtagMONREGEN@@@Z
_TEXT	SEGMENT PARA USE32 PUBLIC 'CODE'
_TEXT	ENDS
;	COMDAT ?construct@?$allocator@UtagLOTTERY@@@std@@QAEXPAUtagLOTTERY@@ABU3@@Z
_TEXT	SEGMENT PARA USE32 PUBLIC 'CODE'
_TEXT	ENDS
;	COMDAT ?destroy@?$allocator@UtagLOTTERY@@@std@@QAEXPAUtagLOTTERY@@@Z
_TEXT	SEGMENT PARA USE32 PUBLIC 'CODE'
_TEXT	ENDS
;	COMDAT ?destroy@?$allocator@UtagTNMTREWARD@@@std@@QAEXPAUtagTNMTREWARD@@@Z
_TEXT	SEGMENT PARA USE32 PUBLIC 'CODE'
_TEXT	ENDS
;	COMDAT ??$fill_n@PAGIG@std@@YAXPAGIABG@Z
_TEXT	SEGMENT PARA USE32 PUBLIC 'CODE'
_TEXT	ENDS
;	COMDAT ??$_Uninit_copy@PAUtagTCASHITMSALE@@PAU1@V?$allocator@UtagTCASHITMSALE@@@std@@@std@@YAPAUtagTCASHITMSALE@@PAU1@00AAV?$allocator@UtagTCASHITMSALE@@@0@U_Nonscalar_ptr_iterator_tag@0@@Z
_TEXT	SEGMENT PARA USE32 PUBLIC 'CODE'
_TEXT	ENDS
;	COMDAT ??$_Uninit_copy@GG@std@@YAPAGPAG00AAV?$allocator@G@0@U_Scalar_ptr_iterator_tag@0@@Z
_TEXT	SEGMENT PARA USE32 PUBLIC 'CODE'
_TEXT	ENDS
;	COMDAT ??$_Uninit_copy@PAUtagMONREGEN@@PAU1@V?$allocator@UtagMONREGEN@@@std@@@std@@YAPAUtagMONREGEN@@PAU1@00AAV?$allocator@UtagMONREGEN@@@0@U_Nonscalar_ptr_iterator_tag@0@@Z
_TEXT	SEGMENT PARA USE32 PUBLIC 'CODE'
_TEXT	ENDS
;	COMDAT ??$_Uninit_copy@PAUtagLOTTERY@@PAU1@V?$allocator@UtagLOTTERY@@@std@@@std@@YAPAUtagLOTTERY@@PAU1@00AAV?$allocator@UtagLOTTERY@@@0@U_Nonscalar_ptr_iterator_tag@0@@Z
_TEXT	SEGMENT PARA USE32 PUBLIC 'CODE'
_TEXT	ENDS
;	COMDAT ??$_Uninitialized_copy@Vconst_iterator@?$vector@_JV?$allocator@_J@std@@@std@@PA_JV?$allocator@_J@3@@std@@YAPA_JVconst_iterator@?$vector@_JV?$allocator@_J@std@@@0@0PA_JAAV?$allocator@_J@0@@Z
_TEXT	SEGMENT PARA USE32 PUBLIC 'CODE'
_TEXT	ENDS
;	COMDAT ??$_Destroy_range@_JV?$allocator@_J@std@@@std@@YAXPA_J0AAV?$allocator@_J@0@U_Scalar_ptr_iterator_tag@0@@Z
_TEXT	SEGMENT PARA USE32 PUBLIC 'CODE'
_TEXT	ENDS
;	COMDAT ??$_Destroy@UtagTENTRYRECORD@@@std@@YAXPAUtagTENTRYRECORD@@@Z
_TEXT	SEGMENT PARA USE32 PUBLIC 'CODE'
_TEXT	ENDS
;	COMDAT ??$_Construct@UtagTCASHITMSALE@@U1@@std@@YAXPAUtagTCASHITMSALE@@ABU1@@Z
_TEXT	SEGMENT PARA USE32 PUBLIC 'CODE'
_TEXT	ENDS
;	COMDAT ??$_Destroy@UtagTCASHITMSALE@@@std@@YAXPAUtagTCASHITMSALE@@@Z
_TEXT	SEGMENT PARA USE32 PUBLIC 'CODE'
_TEXT	ENDS
;	COMDAT ??$_Construct@UtagMONREGEN@@U1@@std@@YAXPAUtagMONREGEN@@ABU1@@Z
_TEXT	SEGMENT PARA USE32 PUBLIC 'CODE'
_TEXT	ENDS
;	COMDAT ??$_Destroy@UtagMONREGEN@@@std@@YAXPAUtagMONREGEN@@@Z
_TEXT	SEGMENT PARA USE32 PUBLIC 'CODE'
_TEXT	ENDS
;	COMDAT ??$_Construct@UtagLOTTERY@@U1@@std@@YAXPAUtagLOTTERY@@ABU1@@Z
_TEXT	SEGMENT PARA USE32 PUBLIC 'CODE'
_TEXT	ENDS
;	COMDAT ??$_Destroy@UtagLOTTERY@@@std@@YAXPAUtagLOTTERY@@@Z
_TEXT	SEGMENT PARA USE32 PUBLIC 'CODE'
_TEXT	ENDS
;	COMDAT ??$_Destroy@UtagTNMTREWARD@@@std@@YAXPAUtagTNMTREWARD@@@Z
_TEXT	SEGMENT PARA USE32 PUBLIC 'CODE'
_TEXT	ENDS
;	COMDAT ??$_Ptr_cat@Vconst_iterator@?$vector@_JV?$allocator@_J@std@@@std@@PA_J@std@@YA?AU_Nonscalar_ptr_iterator_tag@0@AAVconst_iterator@?$vector@_JV?$allocator@_J@std@@@0@AAPA_J@Z
_TEXT	SEGMENT PARA USE32 PUBLIC 'CODE'
_TEXT	ENDS
;	COMDAT ??$_Uninit_copy@Vconst_iterator@?$vector@_JV?$allocator@_J@std@@@std@@PA_JV?$allocator@_J@3@@std@@YAPA_JVconst_iterator@?$vector@_JV?$allocator@_J@std@@@0@0PA_JAAV?$allocator@_J@0@U_Nonscalar_ptr_iterator_tag@0@@Z
_TEXT	SEGMENT PARA USE32 PUBLIC 'CODE'
_TEXT	ENDS
;	COMDAT ?construct@?$allocator@_J@std@@QAEXPA_JAB_J@Z
_TEXT	SEGMENT PARA USE32 PUBLIC 'CODE'
_TEXT	ENDS
;	COMDAT ?destroy@?$allocator@_J@std@@QAEXPA_J@Z
_TEXT	SEGMENT PARA USE32 PUBLIC 'CODE'
_TEXT	ENDS
;	COMDAT ??Dconst_iterator@?$vector@_JV?$allocator@_J@std@@@std@@QBEAB_JXZ
_TEXT	SEGMENT PARA USE32 PUBLIC 'CODE'
_TEXT	ENDS
;	COMDAT ??Econst_iterator@?$vector@_JV?$allocator@_J@std@@@std@@QAEAAV012@XZ
_TEXT	SEGMENT PARA USE32 PUBLIC 'CODE'
_TEXT	ENDS
;	COMDAT ??9const_iterator@?$vector@_JV?$allocator@_J@std@@@std@@QBE_NABV012@@Z
_TEXT	SEGMENT PARA USE32 PUBLIC 'CODE'
_TEXT	ENDS
;	COMDAT ??8const_iterator@?$vector@_JV?$allocator@_J@std@@@std@@QBE_NABV012@@Z
_TEXT	SEGMENT PARA USE32 PUBLIC 'CODE'
_TEXT	ENDS
;	COMDAT ??$_Construct@_J_J@std@@YAXPA_JAB_J@Z
_TEXT	SEGMENT PARA USE32 PUBLIC 'CODE'
_TEXT	ENDS
;	COMDAT ??$_Destroy@_J@std@@YAXPA_J@Z
_TEXT	SEGMENT PARA USE32 PUBLIC 'CODE'
_TEXT	ENDS
;	COMDAT ??2@YAPAXIPAX@Z
_TEXT	SEGMENT PARA USE32 PUBLIC 'CODE'
_TEXT	ENDS
;	COMDAT ?_Ptr_cat@std@@YA?AU_Scalar_ptr_iterator_tag@1@PA_J0@Z
_TEXT	SEGMENT PARA USE32 PUBLIC 'CODE'
_TEXT	ENDS
;	COMDAT ?_Ptr_cat@std@@YA?AU_Scalar_ptr_iterator_tag@1@PAG0@Z
_TEXT	SEGMENT PARA USE32 PUBLIC 'CODE'
_TEXT	ENDS
;	COMDAT ?_Psave@?$_Facetptr@V?$ctype@G@std@@@std@@2PBVfacet@locale@2@B
_DATA	SEGMENT DWORD USE32 PUBLIC 'DATA'
_DATA	ENDS
;	COMDAT ?_Psave@?$_Facetptr@V?$ctype@D@std@@@std@@2PBVfacet@locale@2@B
_DATA	SEGMENT DWORD USE32 PUBLIC 'DATA'
_DATA	ENDS
;	COMDAT ?Unlock@CComCriticalSection@ATL@@QAEJXZ
_TEXT	SEGMENT PARA USE32 PUBLIC 'CODE'
_TEXT	ENDS
;	COMDAT ?_Parent@?$_Tree@V?$_Tmap_traits@KPAUtagTSOULMATE@@U?$less@K@std@@V?$allocator@U?$pair@$$CBKPAUtagTSOULMATE@@@std@@@3@$0A@@std@@@std@@KAAAPAU_Node@?$_Tree_nod@V?$_Tmap_traits@KPAUtagTSOULMATE@@U?$less@K@std@@V?$allocator@U?$pair@$$CBKPAUtagTSOULMATE@@@std@@@3@$0A@@std@@@2@PAU342@@Z
_TEXT	SEGMENT PARA USE32 PUBLIC 'CODE'
_TEXT	ENDS
;	COMDAT __TI3?AVlength_error@std@@
xdata$x	SEGMENT DWORD USE32 PUBLIC 'CONST'
xdata$x	ENDS
;	COMDAT ??1length_error@std@@UAE@XZ
_TEXT	SEGMENT PARA USE32 PUBLIC 'CODE'
_TEXT	ENDS
;	COMDAT ??_7length_error@std@@6B@
CONST	SEGMENT DWORD USE32 PUBLIC 'CONST'
CONST	ENDS
;	COMDAT ??_Glength_error@std@@UAEPAXI@Z
_TEXT	SEGMENT PARA USE32 PUBLIC 'CODE'
_TEXT	ENDS
;	COMDAT ?what@logic_error@std@@UBEPBDXZ
_TEXT	SEGMENT PARA USE32 PUBLIC 'CODE'
_TEXT	ENDS
;	COMDAT ?c_str@?$basic_string@DU?$char_traits@D@std@@V?$allocator@D@2@@std@@QBEPBDXZ
_TEXT	SEGMENT PARA USE32 PUBLIC 'CODE'
_TEXT	ENDS
;	COMDAT ?_Myptr@?$basic_string@DU?$char_traits@D@std@@V?$allocator@D@2@@std@@QBEPBDXZ
_TEXT	SEGMENT PARA USE32 PUBLIC 'CODE'
_TEXT	ENDS
;	COMDAT ??1logic_error@std@@UAE@XZ
_TEXT	SEGMENT PARA USE32 PUBLIC 'CODE'
_TEXT	ENDS
;	COMDAT ??_7logic_error@std@@6B@
CONST	SEGMENT DWORD USE32 PUBLIC 'CONST'
CONST	ENDS
;	COMDAT ??_Glogic_error@std@@UAEPAXI@Z
_TEXT	SEGMENT PARA USE32 PUBLIC 'CODE'
_TEXT	ENDS
;	COMDAT __CTA3?AVlength_error@std@@
xdata$x	SEGMENT DWORD USE32 PUBLIC 'CONST'
xdata$x	ENDS
;	COMDAT __CT??_R0?AVlength_error@std@@@8??0length_error@std@@QAE@ABV01@@Z40
xdata$x	SEGMENT DWORD USE32 PUBLIC 'CONST'
xdata$x	ENDS
;	COMDAT ??_R0?AVlength_error@std@@@8
_DATA	SEGMENT DWORD USE32 PUBLIC 'DATA'
_DATA	ENDS
;	COMDAT ??0length_error@std@@QAE@ABV01@@Z
_TEXT	SEGMENT PARA USE32 PUBLIC 'CODE'
_TEXT	ENDS
;	COMDAT ??0logic_error@std@@QAE@ABV01@@Z
_TEXT	SEGMENT PARA USE32 PUBLIC 'CODE'
_TEXT	ENDS
;	COMDAT ??0?$basic_string@DU?$char_traits@D@std@@V?$allocator@D@2@@std@@QAE@ABV01@@Z
_TEXT	SEGMENT PARA USE32 PUBLIC 'CODE'
_TEXT	ENDS
;	COMDAT ??0?$_String_val@DV?$allocator@D@std@@@std@@IAE@V?$allocator@D@1@@Z
_TEXT	SEGMENT PARA USE32 PUBLIC 'CODE'
_TEXT	ENDS
;	COMDAT ??0?$allocator@D@std@@QAE@ABV01@@Z
_TEXT	SEGMENT PARA USE32 PUBLIC 'CODE'
_TEXT	ENDS
;	COMDAT ?_Tidy@?$basic_string@DU?$char_traits@D@std@@V?$allocator@D@2@@std@@IAEX_NI@Z
_TEXT	SEGMENT PARA USE32 PUBLIC 'CODE'
_TEXT	ENDS
;	COMDAT ?copy@?$char_traits@D@std@@SAPADPADPBDI@Z
_TEXT	SEGMENT PARA USE32 PUBLIC 'CODE'
_TEXT	ENDS
;	COMDAT ?deallocate@?$allocator@D@std@@QAEXPADI@Z
_TEXT	SEGMENT PARA USE32 PUBLIC 'CODE'
_TEXT	ENDS
;	COMDAT ?_Eos@?$basic_string@DU?$char_traits@D@std@@V?$allocator@D@2@@std@@IAEXI@Z
_TEXT	SEGMENT PARA USE32 PUBLIC 'CODE'
_TEXT	ENDS
;	COMDAT ?assign@?$char_traits@D@std@@SAXAADABD@Z
_TEXT	SEGMENT PARA USE32 PUBLIC 'CODE'
_TEXT	ENDS
;	COMDAT ?_Myptr@?$basic_string@DU?$char_traits@D@std@@V?$allocator@D@2@@std@@QAEPADXZ
_TEXT	SEGMENT PARA USE32 PUBLIC 'CODE'
_TEXT	ENDS
;	COMDAT ?assign@?$basic_string@DU?$char_traits@D@std@@V?$allocator@D@2@@std@@QAEAAV12@ABV12@II@Z
_TEXT	SEGMENT PARA USE32 PUBLIC 'CODE'
_TEXT	ENDS
;	COMDAT ?size@?$basic_string@DU?$char_traits@D@std@@V?$allocator@D@2@@std@@QBEIXZ
_TEXT	SEGMENT PARA USE32 PUBLIC 'CODE'
_TEXT	ENDS
;	COMDAT ?erase@?$basic_string@DU?$char_traits@D@std@@V?$allocator@D@2@@std@@QAEAAV12@II@Z
_TEXT	SEGMENT PARA USE32 PUBLIC 'CODE'
_TEXT	ENDS
;	COMDAT ?move@?$char_traits@D@std@@SAPADPADPBDI@Z
_TEXT	SEGMENT PARA USE32 PUBLIC 'CODE'
_TEXT	ENDS
;	COMDAT ?_Grow@?$basic_string@DU?$char_traits@D@std@@V?$allocator@D@2@@std@@IAE_NI_N@Z
_TEXT	SEGMENT PARA USE32 PUBLIC 'CODE'
_TEXT	ENDS
;	COMDAT ?max_size@?$basic_string@DU?$char_traits@D@std@@V?$allocator@D@2@@std@@QBEIXZ
_TEXT	SEGMENT PARA USE32 PUBLIC 'CODE'
_TEXT	ENDS
;	COMDAT ?max_size@?$allocator@D@std@@QBEIXZ
_TEXT	SEGMENT PARA USE32 PUBLIC 'CODE'
_TEXT	ENDS
;	COMDAT ?_Copy@?$basic_string@DU?$char_traits@D@std@@V?$allocator@D@2@@std@@IAEXII@Z
_TEXT	SEGMENT PARA USE32 PUBLIC 'CODE'
_TEXT	ENDS
;	COMDAT ?allocate@?$allocator@D@std@@QAEPADI@Z
_TEXT	SEGMENT PARA USE32 PUBLIC 'CODE'
_TEXT	ENDS
;	COMDAT ??$_Allocate@D@std@@YAPADIPAD@Z
_TEXT	SEGMENT PARA USE32 PUBLIC 'CODE'
_TEXT	ENDS
;	COMDAT ?npos@?$basic_string@DU?$char_traits@D@std@@V?$allocator@D@2@@std@@2IB
CONST	SEGMENT DWORD USE32 PUBLIC 'CONST'
CONST	ENDS
;	COMDAT __CT??_R0?AVlogic_error@std@@@8??0logic_error@std@@QAE@ABV01@@Z40
xdata$x	SEGMENT DWORD USE32 PUBLIC 'CONST'
xdata$x	ENDS
;	COMDAT ??_R0?AVlogic_error@std@@@8
_DATA	SEGMENT DWORD USE32 PUBLIC 'DATA'
_DATA	ENDS
;	COMDAT __CT??_R0?AVexception@@@8??0exception@@QAE@ABV0@@Z12
xdata$x	SEGMENT DWORD USE32 PUBLIC 'CONST'
xdata$x	ENDS
;	COMDAT ??_R0?AVexception@@@8
_DATA	SEGMENT DWORD USE32 PUBLIC 'DATA'
_DATA	ENDS
;	COMDAT ??_C@_0BD@OLBABOEK@vector?$DMT?$DO?5too?5long?$AA@
CONST	SEGMENT DWORD USE32 PUBLIC 'CONST'
CONST	ENDS
;	COMDAT ??0length_error@std@@QAE@ABV?$basic_string@DU?$char_traits@D@std@@V?$allocator@D@2@@1@@Z
_TEXT	SEGMENT PARA USE32 PUBLIC 'CODE'
_TEXT	ENDS
;	COMDAT ??0logic_error@std@@QAE@ABV?$basic_string@DU?$char_traits@D@std@@V?$allocator@D@2@@1@@Z
_TEXT	SEGMENT PARA USE32 PUBLIC 'CODE'
_TEXT	ENDS
;	COMDAT ?_Left@?$_Tree@V?$_Tmap_traits@KPAUtagTSOULMATE@@U?$less@K@std@@V?$allocator@U?$pair@$$CBKPAUtagTSOULMATE@@@std@@@3@$0A@@std@@@std@@KAAAPAU_Node@?$_Tree_nod@V?$_Tmap_traits@KPAUtagTSOULMATE@@U?$less@K@std@@V?$allocator@U?$pair@$$CBKPAUtagTSOULMATE@@@std@@@3@$0A@@std@@@2@PAU342@@Z
_TEXT	SEGMENT PARA USE32 PUBLIC 'CODE'
_TEXT	ENDS
;	COMDAT ?_Right@?$_Tree@V?$_Tmap_traits@KPAUtagTSOULMATE@@U?$less@K@std@@V?$allocator@U?$pair@$$CBKPAUtagTSOULMATE@@@std@@@3@$0A@@std@@@std@@KAAAPAU_Node@?$_Tree_nod@V?$_Tmap_traits@KPAUtagTSOULMATE@@U?$less@K@std@@V?$allocator@U?$pair@$$CBKPAUtagTSOULMATE@@@std@@@3@$0A@@std@@@2@PAU342@@Z
_TEXT	SEGMENT PARA USE32 PUBLIC 'CODE'
_TEXT	ENDS
;	COMDAT ?_Isnil@?$_Tree@V?$_Tmap_traits@KPAUtagTSOULMATE@@U?$less@K@std@@V?$allocator@U?$pair@$$CBKPAUtagTSOULMATE@@@std@@@3@$0A@@std@@@std@@KAAADPAU_Node@?$_Tree_nod@V?$_Tmap_traits@KPAUtagTSOULMATE@@U?$less@K@std@@V?$allocator@U?$pair@$$CBKPAUtagTSOULMATE@@@std@@@3@$0A@@std@@@2@@Z
_TEXT	SEGMENT PARA USE32 PUBLIC 'CODE'
_TEXT	ENDS
;	COMDAT __TI3?AVout_of_range@std@@
xdata$x	SEGMENT DWORD USE32 PUBLIC 'CONST'
xdata$x	ENDS
;	COMDAT ??1out_of_range@std@@UAE@XZ
_TEXT	SEGMENT PARA USE32 PUBLIC 'CODE'
_TEXT	ENDS
;	COMDAT ??_7out_of_range@std@@6B@
CONST	SEGMENT DWORD USE32 PUBLIC 'CONST'
CONST	ENDS
;	COMDAT ??_Gout_of_range@std@@UAEPAXI@Z
_TEXT	SEGMENT PARA USE32 PUBLIC 'CODE'
_TEXT	ENDS
;	COMDAT __CTA3?AVout_of_range@std@@
xdata$x	SEGMENT DWORD USE32 PUBLIC 'CONST'
xdata$x	ENDS
;	COMDAT __CT??_R0?AVout_of_range@std@@@8??0out_of_range@std@@QAE@ABV01@@Z40
xdata$x	SEGMENT DWORD USE32 PUBLIC 'CONST'
xdata$x	ENDS
;	COMDAT ??_R0?AVout_of_range@std@@@8
_DATA	SEGMENT DWORD USE32 PUBLIC 'DATA'
_DATA	ENDS
;	COMDAT ??0out_of_range@std@@QAE@ABV01@@Z
_TEXT	SEGMENT PARA USE32 PUBLIC 'CODE'
_TEXT	ENDS
;	COMDAT ??1?$basic_string@DU?$char_traits@D@std@@V?$allocator@D@2@@std@@QAE@XZ
_TEXT	SEGMENT PARA USE32 PUBLIC 'CODE'
_TEXT	ENDS
;	COMDAT ??0?$basic_string@DU?$char_traits@D@std@@V?$allocator@D@2@@std@@QAE@PBD@Z
_TEXT	SEGMENT PARA USE32 PUBLIC 'CODE'
_TEXT	ENDS
;	COMDAT ??0?$allocator@D@std@@QAE@XZ
_TEXT	SEGMENT PARA USE32 PUBLIC 'CODE'
_TEXT	ENDS
;	COMDAT ?assign@?$basic_string@DU?$char_traits@D@std@@V?$allocator@D@2@@std@@QAEAAV12@PBD@Z
_TEXT	SEGMENT PARA USE32 PUBLIC 'CODE'
_TEXT	ENDS
;	COMDAT ?assign@?$basic_string@DU?$char_traits@D@std@@V?$allocator@D@2@@std@@QAEAAV12@PBDI@Z
_TEXT	SEGMENT PARA USE32 PUBLIC 'CODE'
_TEXT	ENDS
;	COMDAT ?_Inside@?$basic_string@DU?$char_traits@D@std@@V?$allocator@D@2@@std@@IAE_NPBD@Z
_TEXT	SEGMENT PARA USE32 PUBLIC 'CODE'
_TEXT	ENDS
;	COMDAT ?length@?$char_traits@D@std@@SAIPBD@Z
_TEXT	SEGMENT PARA USE32 PUBLIC 'CODE'
_TEXT	ENDS
;	COMDAT ??0out_of_range@std@@QAE@ABV?$basic_string@DU?$char_traits@D@std@@V?$allocator@D@2@@1@@Z
_TEXT	SEGMENT PARA USE32 PUBLIC 'CODE'
_TEXT	ENDS
;	COMDAT ??0iterator@?$_Tree@V?$_Tmap_traits@KPAUtagTSOULMATE@@U?$less@K@std@@V?$allocator@U?$pair@$$CBKPAUtagTSOULMATE@@@std@@@3@$0A@@std@@@std@@QAE@PAU_Node@?$_Tree_nod@V?$_Tmap_traits@KPAUtagTSOULMATE@@U?$less@K@std@@V?$allocator@U?$pair@$$CBKPAUtagTSOULMATE@@@std@@@3@$0A@@std@@@2@@Z
_TEXT	SEGMENT PARA USE32 PUBLIC 'CODE'
_TEXT	ENDS
;	COMDAT ??0const_iterator@?$_Tree@V?$_Tmap_traits@KPAUtagTSOULMATE@@U?$less@K@std@@V?$allocator@U?$pair@$$CBKPAUtagTSOULMATE@@@std@@@3@$0A@@std@@@std@@QAE@PAU_Node@?$_Tree_nod@V?$_Tmap_traits@KPAUtagTSOULMATE@@U?$less@K@std@@V?$allocator@U?$pair@$$CBKPAUtagTSOULMATE@@@std@@@3@$0A@@std@@@2@@Z
_TEXT	SEGMENT PARA USE32 PUBLIC 'CODE'
_TEXT	ENDS
;	COMDAT ?_Myval@?$_Tree@V?$_Tmap_traits@KPAUtagTSOULMATE@@U?$less@K@std@@V?$allocator@U?$pair@$$CBKPAUtagTSOULMATE@@@std@@@3@$0A@@std@@@std@@KAAAU?$pair@$$CBKPAUtagTSOULMATE@@@2@PAU_Node@?$_Tree_nod@V?$_Tmap_traits@KPAUtagTSOULMATE@@U?$less@K@std@@V?$allocator@U?$pair@$$CBKPAUtagTSOULMATE@@@std@@@3@$0A@@std@@@2@@Z
_TEXT	SEGMENT PARA USE32 PUBLIC 'CODE'
_TEXT	ENDS
;	COMDAT ?_Tidy@?$vector@GV?$allocator@G@std@@@std@@IAEXXZ
_TEXT	SEGMENT PARA USE32 PUBLIC 'CODE'
_TEXT	ENDS
;	COMDAT ?_Destroy@?$vector@GV?$allocator@G@std@@@std@@IAEXPAG0@Z
_TEXT	SEGMENT PARA USE32 PUBLIC 'CODE'
_TEXT	ENDS
;	COMDAT ??$_Destroy_range@GV?$allocator@G@std@@@std@@YAXPAG0AAV?$allocator@G@0@@Z
_TEXT	SEGMENT PARA USE32 PUBLIC 'CODE'
_TEXT	ENDS
;	COMDAT ?deallocate@?$allocator@G@std@@QAEXPAGI@Z
_TEXT	SEGMENT PARA USE32 PUBLIC 'CODE'
_TEXT	ENDS
;	COMDAT ?begin@?$vector@UtagTCASHITMSALE@@V?$allocator@UtagTCASHITMSALE@@@std@@@std@@QAE?AViterator@12@XZ
_TEXT	SEGMENT PARA USE32 PUBLIC 'CODE'
_TEXT	ENDS
;	COMDAT ??0iterator@?$vector@UtagTCASHITMSALE@@V?$allocator@UtagTCASHITMSALE@@@std@@@std@@QAE@PAUtagTCASHITMSALE@@@Z
_TEXT	SEGMENT PARA USE32 PUBLIC 'CODE'
_TEXT	ENDS
;	COMDAT ??0const_iterator@?$vector@UtagTCASHITMSALE@@V?$allocator@UtagTCASHITMSALE@@@std@@@std@@QAE@PAUtagTCASHITMSALE@@@Z
_TEXT	SEGMENT PARA USE32 PUBLIC 'CODE'
_TEXT	ENDS
;	COMDAT ??Hiterator@?$vector@UtagTCASHITMSALE@@V?$allocator@UtagTCASHITMSALE@@@std@@@std@@QBE?AV012@H@Z
_TEXT	SEGMENT PARA USE32 PUBLIC 'CODE'
_TEXT	ENDS
;	COMDAT ??Yiterator@?$vector@UtagTCASHITMSALE@@V?$allocator@UtagTCASHITMSALE@@@std@@@std@@QAEAAV012@H@Z
_TEXT	SEGMENT PARA USE32 PUBLIC 'CODE'
_TEXT	ENDS
;	COMDAT ??Diterator@?$vector@UtagTCASHITMSALE@@V?$allocator@UtagTCASHITMSALE@@@std@@@std@@QBEAAUtagTCASHITMSALE@@XZ
_TEXT	SEGMENT PARA USE32 PUBLIC 'CODE'
_TEXT	ENDS
;	COMDAT ??Dconst_iterator@?$vector@UtagTCASHITMSALE@@V?$allocator@UtagTCASHITMSALE@@@std@@@std@@QBEABUtagTCASHITMSALE@@XZ
_TEXT	SEGMENT PARA USE32 PUBLIC 'CODE'
_TEXT	ENDS
;	COMDAT ?_Mynode@const_iterator@?$_Tree@V?$_Tmap_traits@KPAUtagTSOULMATE@@U?$less@K@std@@V?$allocator@U?$pair@$$CBKPAUtagTSOULMATE@@@std@@@3@$0A@@std@@@std@@QBEPAU_Node@?$_Tree_nod@V?$_Tmap_traits@KPAUtagTSOULMATE@@U?$less@K@std@@V?$allocator@U?$pair@$$CBKPAUtagTSOULMATE@@@std@@@3@$0A@@std@@@3@XZ
_TEXT	SEGMENT PARA USE32 PUBLIC 'CODE'
_TEXT	ENDS
;	COMDAT ??8const_iterator@?$_Tree@V?$_Tmap_traits@KPAUtagTSOULMATE@@U?$less@K@std@@V?$allocator@U?$pair@$$CBKPAUtagTSOULMATE@@@std@@@3@$0A@@std@@@std@@QBE_NABV012@@Z
_TEXT	SEGMENT PARA USE32 PUBLIC 'CODE'
_TEXT	ENDS
;	COMDAT ?end@?$_Tree@V?$_Tmap_traits@KPAUtagTNMTPLAYER@@U?$less@K@std@@V?$allocator@U?$pair@$$CBKPAUtagTNMTPLAYER@@@std@@@3@$0A@@std@@@std@@QAE?AViterator@12@XZ
_TEXT	SEGMENT PARA USE32 PUBLIC 'CODE'
_TEXT	ENDS
;	COMDAT ??0iterator@?$_Tree@V?$_Tmap_traits@KPAUtagTNMTPLAYER@@U?$less@K@std@@V?$allocator@U?$pair@$$CBKPAUtagTNMTPLAYER@@@std@@@3@$0A@@std@@@std@@QAE@PAU_Node@?$_Tree_nod@V?$_Tmap_traits@KPAUtagTNMTPLAYER@@U?$less@K@std@@V?$allocator@U?$pair@$$CBKPAUtagTNMTPLAYER@@@std@@@3@$0A@@std@@@2@@Z
_TEXT	SEGMENT PARA USE32 PUBLIC 'CODE'
_TEXT	ENDS
;	COMDAT ??0const_iterator@?$_Tree@V?$_Tmap_traits@KPAUtagTNMTPLAYER@@U?$less@K@std@@V?$allocator@U?$pair@$$CBKPAUtagTNMTPLAYER@@@std@@@3@$0A@@std@@@std@@QAE@PAU_Node@?$_Tree_nod@V?$_Tmap_traits@KPAUtagTNMTPLAYER@@U?$less@K@std@@V?$allocator@U?$pair@$$CBKPAUtagTNMTPLAYER@@@std@@@3@$0A@@std@@@2@@Z
_TEXT	SEGMENT PARA USE32 PUBLIC 'CODE'
_TEXT	ENDS
;	COMDAT ??9const_iterator@?$_Tree@V?$_Tmap_traits@KPAUtagTNMTPLAYER@@U?$less@K@std@@V?$allocator@U?$pair@$$CBKPAUtagTNMTPLAYER@@@std@@@3@$0A@@std@@@std@@QBE_NABV012@@Z
_TEXT	SEGMENT PARA USE32 PUBLIC 'CODE'
_TEXT	ENDS
;	COMDAT ??8const_iterator@?$_Tree@V?$_Tmap_traits@KPAUtagTNMTPLAYER@@U?$less@K@std@@V?$allocator@U?$pair@$$CBKPAUtagTNMTPLAYER@@@std@@@3@$0A@@std@@@std@@QBE_NABV012@@Z
_TEXT	SEGMENT PARA USE32 PUBLIC 'CODE'
_TEXT	ENDS
;	COMDAT ??Eiterator@?$_Tree@V?$_Tmap_traits@KPAUtagTNMTPLAYER@@U?$less@K@std@@V?$allocator@U?$pair@$$CBKPAUtagTNMTPLAYER@@@std@@@3@$0A@@std@@@std@@QAE?AV012@H@Z
_TEXT	SEGMENT PARA USE32 PUBLIC 'CODE'
_TEXT	ENDS
;	COMDAT ??Eiterator@?$_Tree@V?$_Tmap_traits@KPAUtagTNMTPLAYER@@U?$less@K@std@@V?$allocator@U?$pair@$$CBKPAUtagTNMTPLAYER@@@std@@@3@$0A@@std@@@std@@QAEAAV012@XZ
_TEXT	SEGMENT PARA USE32 PUBLIC 'CODE'
_TEXT	ENDS
;	COMDAT ??Econst_iterator@?$_Tree@V?$_Tmap_traits@KPAUtagTNMTPLAYER@@U?$less@K@std@@V?$allocator@U?$pair@$$CBKPAUtagTNMTPLAYER@@@std@@@3@$0A@@std@@@std@@QAEAAV012@XZ
_TEXT	SEGMENT PARA USE32 PUBLIC 'CODE'
_TEXT	ENDS
;	COMDAT ?_Inc@const_iterator@?$_Tree@V?$_Tmap_traits@KPAUtagTNMTPLAYER@@U?$less@K@std@@V?$allocator@U?$pair@$$CBKPAUtagTNMTPLAYER@@@std@@@3@$0A@@std@@@std@@QAEXXZ
_TEXT	SEGMENT PARA USE32 PUBLIC 'CODE'
_TEXT	ENDS
;	COMDAT ?_Min@?$_Tree@V?$_Tmap_traits@KPAUtagTNMTPLAYER@@U?$less@K@std@@V?$allocator@U?$pair@$$CBKPAUtagTNMTPLAYER@@@std@@@3@$0A@@std@@@std@@KAPAU_Node@?$_Tree_nod@V?$_Tmap_traits@KPAUtagTNMTPLAYER@@U?$less@K@std@@V?$allocator@U?$pair@$$CBKPAUtagTNMTPLAYER@@@std@@@3@$0A@@std@@@2@PAU342@@Z
_TEXT	SEGMENT PARA USE32 PUBLIC 'CODE'
_TEXT	ENDS
;	COMDAT ?_Left@?$_Tree@V?$_Tmap_traits@KPAUtagTNMTPLAYER@@U?$less@K@std@@V?$allocator@U?$pair@$$CBKPAUtagTNMTPLAYER@@@std@@@3@$0A@@std@@@std@@KAAAPAU_Node@?$_Tree_nod@V?$_Tmap_traits@KPAUtagTNMTPLAYER@@U?$less@K@std@@V?$allocator@U?$pair@$$CBKPAUtagTNMTPLAYER@@@std@@@3@$0A@@std@@@2@PAU342@@Z
_TEXT	SEGMENT PARA USE32 PUBLIC 'CODE'
_TEXT	ENDS
;	COMDAT ?_Isnil@?$_Tree@V?$_Tmap_traits@KPAUtagTNMTPLAYER@@U?$less@K@std@@V?$allocator@U?$pair@$$CBKPAUtagTNMTPLAYER@@@std@@@3@$0A@@std@@@std@@KAAADPAU_Node@?$_Tree_nod@V?$_Tmap_traits@KPAUtagTNMTPLAYER@@U?$less@K@std@@V?$allocator@U?$pair@$$CBKPAUtagTNMTPLAYER@@@std@@@3@$0A@@std@@@2@@Z
_TEXT	SEGMENT PARA USE32 PUBLIC 'CODE'
_TEXT	ENDS
;	COMDAT ?_Parent@?$_Tree@V?$_Tmap_traits@KPAUtagTNMTPLAYER@@U?$less@K@std@@V?$allocator@U?$pair@$$CBKPAUtagTNMTPLAYER@@@std@@@3@$0A@@std@@@std@@KAAAPAU_Node@?$_Tree_nod@V?$_Tmap_traits@KPAUtagTNMTPLAYER@@U?$less@K@std@@V?$allocator@U?$pair@$$CBKPAUtagTNMTPLAYER@@@std@@@3@$0A@@std@@@2@PAU342@@Z
_TEXT	SEGMENT PARA USE32 PUBLIC 'CODE'
_TEXT	ENDS
;	COMDAT ?_Right@?$_Tree@V?$_Tmap_traits@KPAUtagTNMTPLAYER@@U?$less@K@std@@V?$allocator@U?$pair@$$CBKPAUtagTNMTPLAYER@@@std@@@3@$0A@@std@@@std@@KAAAPAU_Node@?$_Tree_nod@V?$_Tmap_traits@KPAUtagTNMTPLAYER@@U?$less@K@std@@V?$allocator@U?$pair@$$CBKPAUtagTNMTPLAYER@@@std@@@3@$0A@@std@@@2@PAU342@@Z
_TEXT	SEGMENT PARA USE32 PUBLIC 'CODE'
_TEXT	ENDS
;	COMDAT ?begin@?$_Tree@V?$_Tmap_traits@KPAUtagTNMTPLAYER@@U?$less@K@std@@V?$allocator@U?$pair@$$CBKPAUtagTNMTPLAYER@@@std@@@3@$0A@@std@@@std@@QAE?AViterator@12@XZ
_TEXT	SEGMENT PARA USE32 PUBLIC 'CODE'
_TEXT	ENDS
;	COMDAT ?_Lmost@?$_Tree@V?$_Tmap_traits@KPAUtagTNMTPLAYER@@U?$less@K@std@@V?$allocator@U?$pair@$$CBKPAUtagTNMTPLAYER@@@std@@@3@$0A@@std@@@std@@IAEAAPAU_Node@?$_Tree_nod@V?$_Tmap_traits@KPAUtagTNMTPLAYER@@U?$less@K@std@@V?$allocator@U?$pair@$$CBKPAUtagTNMTPLAYER@@@std@@@3@$0A@@std@@@2@XZ
_TEXT	SEGMENT PARA USE32 PUBLIC 'CODE'
_TEXT	ENDS
;	COMDAT ?WrapPacketIn@tagMONTHRANKER@@QAEXPAVCPacket@@@Z
_TEXT	SEGMENT PARA USE32 PUBLIC 'CODE'
_TEXT	ENDS
;	COMDAT ?size@?$vector@UtagTCASHITMSALE@@V?$allocator@UtagTCASHITMSALE@@@std@@@std@@QBEIXZ
_TEXT	SEGMENT PARA USE32 PUBLIC 'CODE'
_TEXT	ENDS
;	COMDAT ?WrapPacketIn@tagEVENTINFO@@QAEXPAVCPacket@@@Z
_TEXT	SEGMENT PARA USE32 PUBLIC 'CODE'
_TEXT	ENDS
;	COMDAT ??A?$vector@UtagTCASHITMSALE@@V?$allocator@UtagTCASHITMSALE@@@std@@@std@@QAEAAUtagTCASHITMSALE@@I@Z
_TEXT	SEGMENT PARA USE32 PUBLIC 'CODE'
_TEXT	ENDS
;	COMDAT ?size@?$vector@UtagMONREGEN@@V?$allocator@UtagMONREGEN@@@std@@@std@@QBEIXZ
_TEXT	SEGMENT PARA USE32 PUBLIC 'CODE'
_TEXT	ENDS
;	COMDAT ??A?$vector@UtagMONREGEN@@V?$allocator@UtagMONREGEN@@@std@@@std@@QAEAAUtagMONREGEN@@I@Z
_TEXT	SEGMENT PARA USE32 PUBLIC 'CODE'
_TEXT	ENDS
;	COMDAT ??Diterator@?$vector@UtagMONREGEN@@V?$allocator@UtagMONREGEN@@@std@@@std@@QBEAAUtagMONREGEN@@XZ
_TEXT	SEGMENT PARA USE32 PUBLIC 'CODE'
_TEXT	ENDS
;	COMDAT ??Dconst_iterator@?$vector@UtagMONREGEN@@V?$allocator@UtagMONREGEN@@@std@@@std@@QBEABUtagMONREGEN@@XZ
_TEXT	SEGMENT PARA USE32 PUBLIC 'CODE'
_TEXT	ENDS
;	COMDAT ??Hiterator@?$vector@UtagMONREGEN@@V?$allocator@UtagMONREGEN@@@std@@@std@@QBE?AV012@H@Z
_TEXT	SEGMENT PARA USE32 PUBLIC 'CODE'
_TEXT	ENDS
;	COMDAT ??Yiterator@?$vector@UtagMONREGEN@@V?$allocator@UtagMONREGEN@@@std@@@std@@QAEAAV012@H@Z
_TEXT	SEGMENT PARA USE32 PUBLIC 'CODE'
_TEXT	ENDS
;	COMDAT ?begin@?$vector@UtagMONREGEN@@V?$allocator@UtagMONREGEN@@@std@@@std@@QAE?AViterator@12@XZ
_TEXT	SEGMENT PARA USE32 PUBLIC 'CODE'
_TEXT	ENDS
;	COMDAT ??0iterator@?$vector@UtagMONREGEN@@V?$allocator@UtagMONREGEN@@@std@@@std@@QAE@PAUtagMONREGEN@@@Z
_TEXT	SEGMENT PARA USE32 PUBLIC 'CODE'
_TEXT	ENDS
;	COMDAT ??0const_iterator@?$vector@UtagMONREGEN@@V?$allocator@UtagMONREGEN@@@std@@@std@@QAE@PAUtagMONREGEN@@@Z
_TEXT	SEGMENT PARA USE32 PUBLIC 'CODE'
_TEXT	ENDS
;	COMDAT ?size@?$vector@UtagLOTTERY@@V?$allocator@UtagLOTTERY@@@std@@@std@@QBEIXZ
_TEXT	SEGMENT PARA USE32 PUBLIC 'CODE'
_TEXT	ENDS
;	COMDAT ??A?$vector@UtagLOTTERY@@V?$allocator@UtagLOTTERY@@@std@@@std@@QAEAAUtagLOTTERY@@I@Z
_TEXT	SEGMENT PARA USE32 PUBLIC 'CODE'
_TEXT	ENDS
;	COMDAT ??Diterator@?$vector@UtagLOTTERY@@V?$allocator@UtagLOTTERY@@@std@@@std@@QBEAAUtagLOTTERY@@XZ
_TEXT	SEGMENT PARA USE32 PUBLIC 'CODE'
_TEXT	ENDS
;	COMDAT ??Dconst_iterator@?$vector@UtagLOTTERY@@V?$allocator@UtagLOTTERY@@@std@@@std@@QBEABUtagLOTTERY@@XZ
_TEXT	SEGMENT PARA USE32 PUBLIC 'CODE'
_TEXT	ENDS
;	COMDAT ??Hiterator@?$vector@UtagLOTTERY@@V?$allocator@UtagLOTTERY@@@std@@@std@@QBE?AV012@H@Z
_TEXT	SEGMENT PARA USE32 PUBLIC 'CODE'
_TEXT	ENDS
;	COMDAT ??Yiterator@?$vector@UtagLOTTERY@@V?$allocator@UtagLOTTERY@@@std@@@std@@QAEAAV012@H@Z
_TEXT	SEGMENT PARA USE32 PUBLIC 'CODE'
_TEXT	ENDS
;	COMDAT ?begin@?$vector@UtagLOTTERY@@V?$allocator@UtagLOTTERY@@@std@@@std@@QAE?AViterator@12@XZ
_TEXT	SEGMENT PARA USE32 PUBLIC 'CODE'
_TEXT	ENDS
;	COMDAT ??0iterator@?$vector@UtagLOTTERY@@V?$allocator@UtagLOTTERY@@@std@@@std@@QAE@PAUtagLOTTERY@@@Z
_TEXT	SEGMENT PARA USE32 PUBLIC 'CODE'
_TEXT	ENDS
;	COMDAT ??0const_iterator@?$vector@UtagLOTTERY@@V?$allocator@UtagLOTTERY@@@std@@@std@@QAE@PAUtagLOTTERY@@@Z
_TEXT	SEGMENT PARA USE32 PUBLIC 'CODE'
_TEXT	ENDS
;	COMDAT ?end@?$_Tree@V?$_Tmap_traits@EUtagCASTLETOP3@@U?$less@E@std@@V?$allocator@U?$pair@$$CBEUtagCASTLETOP3@@@std@@@3@$0A@@std@@@std@@QAE?AViterator@12@XZ
_TEXT	SEGMENT PARA USE32 PUBLIC 'CODE'
_TEXT	ENDS
;	COMDAT ??0iterator@?$_Tree@V?$_Tmap_traits@EUtagCASTLETOP3@@U?$less@E@std@@V?$allocator@U?$pair@$$CBEUtagCASTLETOP3@@@std@@@3@$0A@@std@@@std@@QAE@PAU_Node@?$_Tree_nod@V?$_Tmap_traits@EUtagCASTLETOP3@@U?$less@E@std@@V?$allocator@U?$pair@$$CBEUtagCASTLETOP3@@@std@@@3@$0A@@std@@@2@@Z
_TEXT	SEGMENT PARA USE32 PUBLIC 'CODE'
_TEXT	ENDS
;	COMDAT ??0const_iterator@?$_Tree@V?$_Tmap_traits@EUtagCASTLETOP3@@U?$less@E@std@@V?$allocator@U?$pair@$$CBEUtagCASTLETOP3@@@std@@@3@$0A@@std@@@std@@QAE@PAU_Node@?$_Tree_nod@V?$_Tmap_traits@EUtagCASTLETOP3@@U?$less@E@std@@V?$allocator@U?$pair@$$CBEUtagCASTLETOP3@@@std@@@3@$0A@@std@@@2@@Z
_TEXT	SEGMENT PARA USE32 PUBLIC 'CODE'
_TEXT	ENDS
;	COMDAT ??9const_iterator@?$_Tree@V?$_Tmap_traits@EUtagCASTLETOP3@@U?$less@E@std@@V?$allocator@U?$pair@$$CBEUtagCASTLETOP3@@@std@@@3@$0A@@std@@@std@@QBE_NABV012@@Z
_TEXT	SEGMENT PARA USE32 PUBLIC 'CODE'
_TEXT	ENDS
;	COMDAT ??8const_iterator@?$_Tree@V?$_Tmap_traits@EUtagCASTLETOP3@@U?$less@E@std@@V?$allocator@U?$pair@$$CBEUtagCASTLETOP3@@@std@@@3@$0A@@std@@@std@@QBE_NABV012@@Z
_TEXT	SEGMENT PARA USE32 PUBLIC 'CODE'
_TEXT	ENDS
;	COMDAT ??Eiterator@?$_Tree@V?$_Tmap_traits@EUtagCASTLETOP3@@U?$less@E@std@@V?$allocator@U?$pair@$$CBEUtagCASTLETOP3@@@std@@@3@$0A@@std@@@std@@QAE?AV012@H@Z
_TEXT	SEGMENT PARA USE32 PUBLIC 'CODE'
_TEXT	ENDS
;	COMDAT ??Eiterator@?$_Tree@V?$_Tmap_traits@EUtagCASTLETOP3@@U?$less@E@std@@V?$allocator@U?$pair@$$CBEUtagCASTLETOP3@@@std@@@3@$0A@@std@@@std@@QAEAAV012@XZ
_TEXT	SEGMENT PARA USE32 PUBLIC 'CODE'
_TEXT	ENDS
;	COMDAT ??Econst_iterator@?$_Tree@V?$_Tmap_traits@EUtagCASTLETOP3@@U?$less@E@std@@V?$allocator@U?$pair@$$CBEUtagCASTLETOP3@@@std@@@3@$0A@@std@@@std@@QAEAAV012@XZ
_TEXT	SEGMENT PARA USE32 PUBLIC 'CODE'
_TEXT	ENDS
;	COMDAT ?_Inc@const_iterator@?$_Tree@V?$_Tmap_traits@EUtagCASTLETOP3@@U?$less@E@std@@V?$allocator@U?$pair@$$CBEUtagCASTLETOP3@@@std@@@3@$0A@@std@@@std@@QAEXXZ
_TEXT	SEGMENT PARA USE32 PUBLIC 'CODE'
_TEXT	ENDS
;	COMDAT ?_Min@?$_Tree@V?$_Tmap_traits@EUtagCASTLETOP3@@U?$less@E@std@@V?$allocator@U?$pair@$$CBEUtagCASTLETOP3@@@std@@@3@$0A@@std@@@std@@KAPAU_Node@?$_Tree_nod@V?$_Tmap_traits@EUtagCASTLETOP3@@U?$less@E@std@@V?$allocator@U?$pair@$$CBEUtagCASTLETOP3@@@std@@@3@$0A@@std@@@2@PAU342@@Z
_TEXT	SEGMENT PARA USE32 PUBLIC 'CODE'
_TEXT	ENDS
;	COMDAT ?_Left@?$_Tree@V?$_Tmap_traits@EUtagCASTLETOP3@@U?$less@E@std@@V?$allocator@U?$pair@$$CBEUtagCASTLETOP3@@@std@@@3@$0A@@std@@@std@@KAAAPAU_Node@?$_Tree_nod@V?$_Tmap_traits@EUtagCASTLETOP3@@U?$less@E@std@@V?$allocator@U?$pair@$$CBEUtagCASTLETOP3@@@std@@@3@$0A@@std@@@2@PAU342@@Z
_TEXT	SEGMENT PARA USE32 PUBLIC 'CODE'
_TEXT	ENDS
;	COMDAT ?_Isnil@?$_Tree@V?$_Tmap_traits@EUtagCASTLETOP3@@U?$less@E@std@@V?$allocator@U?$pair@$$CBEUtagCASTLETOP3@@@std@@@3@$0A@@std@@@std@@KAAADPAU_Node@?$_Tree_nod@V?$_Tmap_traits@EUtagCASTLETOP3@@U?$less@E@std@@V?$allocator@U?$pair@$$CBEUtagCASTLETOP3@@@std@@@3@$0A@@std@@@2@@Z
_TEXT	SEGMENT PARA USE32 PUBLIC 'CODE'
_TEXT	ENDS
;	COMDAT ?_Parent@?$_Tree@V?$_Tmap_traits@EUtagCASTLETOP3@@U?$less@E@std@@V?$allocator@U?$pair@$$CBEUtagCASTLETOP3@@@std@@@3@$0A@@std@@@std@@KAAAPAU_Node@?$_Tree_nod@V?$_Tmap_traits@EUtagCASTLETOP3@@U?$less@E@std@@V?$allocator@U?$pair@$$CBEUtagCASTLETOP3@@@std@@@3@$0A@@std@@@2@PAU342@@Z
_TEXT	SEGMENT PARA USE32 PUBLIC 'CODE'
_TEXT	ENDS
;	COMDAT ?_Right@?$_Tree@V?$_Tmap_traits@EUtagCASTLETOP3@@U?$less@E@std@@V?$allocator@U?$pair@$$CBEUtagCASTLETOP3@@@std@@@3@$0A@@std@@@std@@KAAAPAU_Node@?$_Tree_nod@V?$_Tmap_traits@EUtagCASTLETOP3@@U?$less@E@std@@V?$allocator@U?$pair@$$CBEUtagCASTLETOP3@@@std@@@3@$0A@@std@@@2@PAU342@@Z
_TEXT	SEGMENT PARA USE32 PUBLIC 'CODE'
_TEXT	ENDS
;	COMDAT ?begin@?$_Tree@V?$_Tmap_traits@EUtagCASTLETOP3@@U?$less@E@std@@V?$allocator@U?$pair@$$CBEUtagCASTLETOP3@@@std@@@3@$0A@@std@@@std@@QAE?AViterator@12@XZ
_TEXT	SEGMENT PARA USE32 PUBLIC 'CODE'
_TEXT	ENDS
;	COMDAT ?_Lmost@?$_Tree@V?$_Tmap_traits@EUtagCASTLETOP3@@U?$less@E@std@@V?$allocator@U?$pair@$$CBEUtagCASTLETOP3@@@std@@@3@$0A@@std@@@std@@IAEAAPAU_Node@?$_Tree_nod@V?$_Tmap_traits@EUtagCASTLETOP3@@U?$less@E@std@@V?$allocator@U?$pair@$$CBEUtagCASTLETOP3@@@std@@@3@$0A@@std@@@2@XZ
_TEXT	SEGMENT PARA USE32 PUBLIC 'CODE'
_TEXT	ENDS
;	COMDAT ?end@?$_Tree@V?$_Tmap_traits@KKU?$less@K@std@@V?$allocator@U?$pair@$$CBKK@std@@@2@$0A@@std@@@std@@QAE?AViterator@12@XZ
_TEXT	SEGMENT PARA USE32 PUBLIC 'CODE'
_TEXT	ENDS
;	COMDAT ??0iterator@?$_Tree@V?$_Tmap_traits@KKU?$less@K@std@@V?$allocator@U?$pair@$$CBKK@std@@@2@$0A@@std@@@std@@QAE@PAU_Node@?$_Tree_nod@V?$_Tmap_traits@KKU?$less@K@std@@V?$allocator@U?$pair@$$CBKK@std@@@2@$0A@@std@@@2@@Z
_TEXT	SEGMENT PARA USE32 PUBLIC 'CODE'
_TEXT	ENDS
;	COMDAT ??0const_iterator@?$_Tree@V?$_Tmap_traits@KKU?$less@K@std@@V?$allocator@U?$pair@$$CBKK@std@@@2@$0A@@std@@@std@@QAE@PAU_Node@?$_Tree_nod@V?$_Tmap_traits@KKU?$less@K@std@@V?$allocator@U?$pair@$$CBKK@std@@@2@$0A@@std@@@2@@Z
_TEXT	SEGMENT PARA USE32 PUBLIC 'CODE'
_TEXT	ENDS
;	COMDAT ??9const_iterator@?$_Tree@V?$_Tmap_traits@KKU?$less@K@std@@V?$allocator@U?$pair@$$CBKK@std@@@2@$0A@@std@@@std@@QBE_NABV012@@Z
_TEXT	SEGMENT PARA USE32 PUBLIC 'CODE'
_TEXT	ENDS
;	COMDAT ??8const_iterator@?$_Tree@V?$_Tmap_traits@KKU?$less@K@std@@V?$allocator@U?$pair@$$CBKK@std@@@2@$0A@@std@@@std@@QBE_NABV012@@Z
_TEXT	SEGMENT PARA USE32 PUBLIC 'CODE'
_TEXT	ENDS
;	COMDAT ??Eiterator@?$_Tree@V?$_Tmap_traits@KKU?$less@K@std@@V?$allocator@U?$pair@$$CBKK@std@@@2@$0A@@std@@@std@@QAE?AV012@H@Z
_TEXT	SEGMENT PARA USE32 PUBLIC 'CODE'
_TEXT	ENDS
;	COMDAT ??Eiterator@?$_Tree@V?$_Tmap_traits@KKU?$less@K@std@@V?$allocator@U?$pair@$$CBKK@std@@@2@$0A@@std@@@std@@QAEAAV012@XZ
_TEXT	SEGMENT PARA USE32 PUBLIC 'CODE'
_TEXT	ENDS
;	COMDAT ??Econst_iterator@?$_Tree@V?$_Tmap_traits@KKU?$less@K@std@@V?$allocator@U?$pair@$$CBKK@std@@@2@$0A@@std@@@std@@QAEAAV012@XZ
_TEXT	SEGMENT PARA USE32 PUBLIC 'CODE'
_TEXT	ENDS
;	COMDAT ?_Inc@const_iterator@?$_Tree@V?$_Tmap_traits@KKU?$less@K@std@@V?$allocator@U?$pair@$$CBKK@std@@@2@$0A@@std@@@std@@QAEXXZ
_TEXT	SEGMENT PARA USE32 PUBLIC 'CODE'
_TEXT	ENDS
;	COMDAT ?_Min@?$_Tree@V?$_Tmap_traits@KKU?$less@K@std@@V?$allocator@U?$pair@$$CBKK@std@@@2@$0A@@std@@@std@@KAPAU_Node@?$_Tree_nod@V?$_Tmap_traits@KKU?$less@K@std@@V?$allocator@U?$pair@$$CBKK@std@@@2@$0A@@std@@@2@PAU342@@Z
_TEXT	SEGMENT PARA USE32 PUBLIC 'CODE'
_TEXT	ENDS
;	COMDAT ?_Left@?$_Tree@V?$_Tmap_traits@KKU?$less@K@std@@V?$allocator@U?$pair@$$CBKK@std@@@2@$0A@@std@@@std@@KAAAPAU_Node@?$_Tree_nod@V?$_Tmap_traits@KKU?$less@K@std@@V?$allocator@U?$pair@$$CBKK@std@@@2@$0A@@std@@@2@PAU342@@Z
_TEXT	SEGMENT PARA USE32 PUBLIC 'CODE'
_TEXT	ENDS
;	COMDAT ?_Isnil@?$_Tree@V?$_Tmap_traits@KKU?$less@K@std@@V?$allocator@U?$pair@$$CBKK@std@@@2@$0A@@std@@@std@@KAAADPAU_Node@?$_Tree_nod@V?$_Tmap_traits@KKU?$less@K@std@@V?$allocator@U?$pair@$$CBKK@std@@@2@$0A@@std@@@2@@Z
_TEXT	SEGMENT PARA USE32 PUBLIC 'CODE'
_TEXT	ENDS
;	COMDAT ?_Parent@?$_Tree@V?$_Tmap_traits@KKU?$less@K@std@@V?$allocator@U?$pair@$$CBKK@std@@@2@$0A@@std@@@std@@KAAAPAU_Node@?$_Tree_nod@V?$_Tmap_traits@KKU?$less@K@std@@V?$allocator@U?$pair@$$CBKK@std@@@2@$0A@@std@@@2@PAU342@@Z
_TEXT	SEGMENT PARA USE32 PUBLIC 'CODE'
_TEXT	ENDS
;	COMDAT ?_Right@?$_Tree@V?$_Tmap_traits@KKU?$less@K@std@@V?$allocator@U?$pair@$$CBKK@std@@@2@$0A@@std@@@std@@KAAAPAU_Node@?$_Tree_nod@V?$_Tmap_traits@KKU?$less@K@std@@V?$allocator@U?$pair@$$CBKK@std@@@2@$0A@@std@@@2@PAU342@@Z
_TEXT	SEGMENT PARA USE32 PUBLIC 'CODE'
_TEXT	ENDS
;	COMDAT ?begin@?$_Tree@V?$_Tmap_traits@KKU?$less@K@std@@V?$allocator@U?$pair@$$CBKK@std@@@2@$0A@@std@@@std@@QAE?AViterator@12@XZ
_TEXT	SEGMENT PARA USE32 PUBLIC 'CODE'
_TEXT	ENDS
;	COMDAT ?_Lmost@?$_Tree@V?$_Tmap_traits@KKU?$less@K@std@@V?$allocator@U?$pair@$$CBKK@std@@@2@$0A@@std@@@std@@IAEAAPAU_Node@?$_Tree_nod@V?$_Tmap_traits@KKU?$less@K@std@@V?$allocator@U?$pair@$$CBKK@std@@@2@$0A@@std@@@2@XZ
_TEXT	SEGMENT PARA USE32 PUBLIC 'CODE'
_TEXT	ENDS
;	COMDAT ??A?$vector@GV?$allocator@G@std@@@std@@QAEAAGI@Z
_TEXT	SEGMENT PARA USE32 PUBLIC 'CODE'
_TEXT	ENDS
;	COMDAT ??Diterator@?$vector@GV?$allocator@G@std@@@std@@QBEAAGXZ
_TEXT	SEGMENT PARA USE32 PUBLIC 'CODE'
_TEXT	ENDS
;	COMDAT ??Dconst_iterator@?$vector@GV?$allocator@G@std@@@std@@QBEABGXZ
_TEXT	SEGMENT PARA USE32 PUBLIC 'CODE'
_TEXT	ENDS
;	COMDAT ??Hiterator@?$vector@GV?$allocator@G@std@@@std@@QBE?AV012@H@Z
_TEXT	SEGMENT PARA USE32 PUBLIC 'CODE'
_TEXT	ENDS
;	COMDAT ??Yiterator@?$vector@GV?$allocator@G@std@@@std@@QAEAAV012@H@Z
_TEXT	SEGMENT PARA USE32 PUBLIC 'CODE'
_TEXT	ENDS
;	COMDAT ?begin@?$vector@GV?$allocator@G@std@@@std@@QAE?AViterator@12@XZ
_TEXT	SEGMENT PARA USE32 PUBLIC 'CODE'
_TEXT	ENDS
;	COMDAT ??0iterator@?$vector@GV?$allocator@G@std@@@std@@QAE@PAG@Z
_TEXT	SEGMENT PARA USE32 PUBLIC 'CODE'
_TEXT	ENDS
;	COMDAT ??0const_iterator@?$vector@GV?$allocator@G@std@@@std@@QAE@PAG@Z
_TEXT	SEGMENT PARA USE32 PUBLIC 'CODE'
_TEXT	ENDS
;	COMDAT ?size@?$vector@GV?$allocator@G@std@@@std@@QBEIXZ
_TEXT	SEGMENT PARA USE32 PUBLIC 'CODE'
_TEXT	ENDS
;	COMDAT ??Diterator@?$_Tree@V?$_Tmap_traits@KPAUtagTFRIEND@@U?$less@K@std@@V?$allocator@U?$pair@$$CBKPAUtagTFRIEND@@@std@@@3@$0A@@std@@@std@@QBEAAU?$pair@$$CBKPAUtagTFRIEND@@@2@XZ
_TEXT	SEGMENT PARA USE32 PUBLIC 'CODE'
_TEXT	ENDS
;	COMDAT ??Dconst_iterator@?$_Tree@V?$_Tmap_traits@KPAUtagTFRIEND@@U?$less@K@std@@V?$allocator@U?$pair@$$CBKPAUtagTFRIEND@@@std@@@3@$0A@@std@@@std@@QBEABU?$pair@$$CBKPAUtagTFRIEND@@@2@XZ
_TEXT	SEGMENT PARA USE32 PUBLIC 'CODE'
_TEXT	ENDS
;	COMDAT ?_Myval@?$_Tree@V?$_Tmap_traits@KPAUtagTFRIEND@@U?$less@K@std@@V?$allocator@U?$pair@$$CBKPAUtagTFRIEND@@@std@@@3@$0A@@std@@@std@@KAAAU?$pair@$$CBKPAUtagTFRIEND@@@2@PAU_Node@?$_Tree_nod@V?$_Tmap_traits@KPAUtagTFRIEND@@U?$less@K@std@@V?$allocator@U?$pair@$$CBKPAUtagTFRIEND@@@std@@@3@$0A@@std@@@2@@Z
_TEXT	SEGMENT PARA USE32 PUBLIC 'CODE'
_TEXT	ENDS
;	COMDAT ?end@?$_Tree@V?$_Tmap_traits@KPAUtagTFRIEND@@U?$less@K@std@@V?$allocator@U?$pair@$$CBKPAUtagTFRIEND@@@std@@@3@$0A@@std@@@std@@QAE?AViterator@12@XZ
_TEXT	SEGMENT PARA USE32 PUBLIC 'CODE'
_TEXT	ENDS
;	COMDAT ??0iterator@?$_Tree@V?$_Tmap_traits@KPAUtagTFRIEND@@U?$less@K@std@@V?$allocator@U?$pair@$$CBKPAUtagTFRIEND@@@std@@@3@$0A@@std@@@std@@QAE@PAU_Node@?$_Tree_nod@V?$_Tmap_traits@KPAUtagTFRIEND@@U?$less@K@std@@V?$allocator@U?$pair@$$CBKPAUtagTFRIEND@@@std@@@3@$0A@@std@@@2@@Z
_TEXT	SEGMENT PARA USE32 PUBLIC 'CODE'
_TEXT	ENDS
;	COMDAT ??0const_iterator@?$_Tree@V?$_Tmap_traits@KPAUtagTFRIEND@@U?$less@K@std@@V?$allocator@U?$pair@$$CBKPAUtagTFRIEND@@@std@@@3@$0A@@std@@@std@@QAE@PAU_Node@?$_Tree_nod@V?$_Tmap_traits@KPAUtagTFRIEND@@U?$less@K@std@@V?$allocator@U?$pair@$$CBKPAUtagTFRIEND@@@std@@@3@$0A@@std@@@2@@Z
_TEXT	SEGMENT PARA USE32 PUBLIC 'CODE'
_TEXT	ENDS
;	COMDAT ??9const_iterator@?$_Tree@V?$_Tmap_traits@KPAUtagTFRIEND@@U?$less@K@std@@V?$allocator@U?$pair@$$CBKPAUtagTFRIEND@@@std@@@3@$0A@@std@@@std@@QBE_NABV012@@Z
_TEXT	SEGMENT PARA USE32 PUBLIC 'CODE'
_TEXT	ENDS
;	COMDAT ??8const_iterator@?$_Tree@V?$_Tmap_traits@KPAUtagTFRIEND@@U?$less@K@std@@V?$allocator@U?$pair@$$CBKPAUtagTFRIEND@@@std@@@3@$0A@@std@@@std@@QBE_NABV012@@Z
_TEXT	SEGMENT PARA USE32 PUBLIC 'CODE'
_TEXT	ENDS
;	COMDAT ??Eiterator@?$_Tree@V?$_Tmap_traits@KPAUtagTFRIEND@@U?$less@K@std@@V?$allocator@U?$pair@$$CBKPAUtagTFRIEND@@@std@@@3@$0A@@std@@@std@@QAE?AV012@H@Z
_TEXT	SEGMENT PARA USE32 PUBLIC 'CODE'
_TEXT	ENDS
;	COMDAT ??Eiterator@?$_Tree@V?$_Tmap_traits@KPAUtagTFRIEND@@U?$less@K@std@@V?$allocator@U?$pair@$$CBKPAUtagTFRIEND@@@std@@@3@$0A@@std@@@std@@QAEAAV012@XZ
_TEXT	SEGMENT PARA USE32 PUBLIC 'CODE'
_TEXT	ENDS
;	COMDAT ??Econst_iterator@?$_Tree@V?$_Tmap_traits@KPAUtagTFRIEND@@U?$less@K@std@@V?$allocator@U?$pair@$$CBKPAUtagTFRIEND@@@std@@@3@$0A@@std@@@std@@QAEAAV012@XZ
_TEXT	SEGMENT PARA USE32 PUBLIC 'CODE'
_TEXT	ENDS
;	COMDAT ?_Inc@const_iterator@?$_Tree@V?$_Tmap_traits@KPAUtagTFRIEND@@U?$less@K@std@@V?$allocator@U?$pair@$$CBKPAUtagTFRIEND@@@std@@@3@$0A@@std@@@std@@QAEXXZ
_TEXT	SEGMENT PARA USE32 PUBLIC 'CODE'
_TEXT	ENDS
;	COMDAT ?_Min@?$_Tree@V?$_Tmap_traits@KPAUtagTFRIEND@@U?$less@K@std@@V?$allocator@U?$pair@$$CBKPAUtagTFRIEND@@@std@@@3@$0A@@std@@@std@@KAPAU_Node@?$_Tree_nod@V?$_Tmap_traits@KPAUtagTFRIEND@@U?$less@K@std@@V?$allocator@U?$pair@$$CBKPAUtagTFRIEND@@@std@@@3@$0A@@std@@@2@PAU342@@Z
_TEXT	SEGMENT PARA USE32 PUBLIC 'CODE'
_TEXT	ENDS
;	COMDAT ?_Left@?$_Tree@V?$_Tmap_traits@KPAUtagTFRIEND@@U?$less@K@std@@V?$allocator@U?$pair@$$CBKPAUtagTFRIEND@@@std@@@3@$0A@@std@@@std@@KAAAPAU_Node@?$_Tree_nod@V?$_Tmap_traits@KPAUtagTFRIEND@@U?$less@K@std@@V?$allocator@U?$pair@$$CBKPAUtagTFRIEND@@@std@@@3@$0A@@std@@@2@PAU342@@Z
_TEXT	SEGMENT PARA USE32 PUBLIC 'CODE'
_TEXT	ENDS
;	COMDAT ?_Isnil@?$_Tree@V?$_Tmap_traits@KPAUtagTFRIEND@@U?$less@K@std@@V?$allocator@U?$pair@$$CBKPAUtagTFRIEND@@@std@@@3@$0A@@std@@@std@@KAAADPAU_Node@?$_Tree_nod@V?$_Tmap_traits@KPAUtagTFRIEND@@U?$less@K@std@@V?$allocator@U?$pair@$$CBKPAUtagTFRIEND@@@std@@@3@$0A@@std@@@2@@Z
_TEXT	SEGMENT PARA USE32 PUBLIC 'CODE'
_TEXT	ENDS
;	COMDAT ?_Parent@?$_Tree@V?$_Tmap_traits@KPAUtagTFRIEND@@U?$less@K@std@@V?$allocator@U?$pair@$$CBKPAUtagTFRIEND@@@std@@@3@$0A@@std@@@std@@KAAAPAU_Node@?$_Tree_nod@V?$_Tmap_traits@KPAUtagTFRIEND@@U?$less@K@std@@V?$allocator@U?$pair@$$CBKPAUtagTFRIEND@@@std@@@3@$0A@@std@@@2@PAU342@@Z
_TEXT	SEGMENT PARA USE32 PUBLIC 'CODE'
_TEXT	ENDS
;	COMDAT ?_Right@?$_Tree@V?$_Tmap_traits@KPAUtagTFRIEND@@U?$less@K@std@@V?$allocator@U?$pair@$$CBKPAUtagTFRIEND@@@std@@@3@$0A@@std@@@std@@KAAAPAU_Node@?$_Tree_nod@V?$_Tmap_traits@KPAUtagTFRIEND@@U?$less@K@std@@V?$allocator@U?$pair@$$CBKPAUtagTFRIEND@@@std@@@3@$0A@@std@@@2@PAU342@@Z
_TEXT	SEGMENT PARA USE32 PUBLIC 'CODE'
_TEXT	ENDS
;	COMDAT ?begin@?$_Tree@V?$_Tmap_traits@KPAUtagTFRIEND@@U?$less@K@std@@V?$allocator@U?$pair@$$CBKPAUtagTFRIEND@@@std@@@3@$0A@@std@@@std@@QAE?AViterator@12@XZ
_TEXT	SEGMENT PARA USE32 PUBLIC 'CODE'
_TEXT	ENDS
;	COMDAT ?_Lmost@?$_Tree@V?$_Tmap_traits@KPAUtagTFRIEND@@U?$less@K@std@@V?$allocator@U?$pair@$$CBKPAUtagTFRIEND@@@std@@@3@$0A@@std@@@std@@IAEAAPAU_Node@?$_Tree_nod@V?$_Tmap_traits@KPAUtagTFRIEND@@U?$less@K@std@@V?$allocator@U?$pair@$$CBKPAUtagTFRIEND@@@std@@@3@$0A@@std@@@2@XZ
_TEXT	SEGMENT PARA USE32 PUBLIC 'CODE'
_TEXT	ENDS
;	COMDAT ??0iterator@?$_Tree@V?$_Tmap_traits@KPAUtagTFRIEND@@U?$less@K@std@@V?$allocator@U?$pair@$$CBKPAUtagTFRIEND@@@std@@@3@$0A@@std@@@std@@QAE@XZ
_TEXT	SEGMENT PARA USE32 PUBLIC 'CODE'
_TEXT	ENDS
;	COMDAT ??0const_iterator@?$_Tree@V?$_Tmap_traits@KPAUtagTFRIEND@@U?$less@K@std@@V?$allocator@U?$pair@$$CBKPAUtagTFRIEND@@@std@@@3@$0A@@std@@@std@@QAE@XZ
_TEXT	SEGMENT PARA USE32 PUBLIC 'CODE'
_TEXT	ENDS
;	COMDAT ?end@?$_Tree@V?$_Tmap_traits@EV?$CStringT@DV?$StrTraitATL@DV?$ChTraitsCRT@D@ATL@@@ATL@@@ATL@@U?$less@E@std@@V?$allocator@U?$pair@$$CBEV?$CStringT@DV?$StrTraitATL@DV?$ChTraitsCRT@D@ATL@@@ATL@@@ATL@@@std@@@4@$0A@@std@@@std@@QAE?AViterator@12@XZ
_TEXT	SEGMENT PARA USE32 PUBLIC 'CODE'
_TEXT	ENDS
;	COMDAT ??0iterator@?$_Tree@V?$_Tmap_traits@EV?$CStringT@DV?$StrTraitATL@DV?$ChTraitsCRT@D@ATL@@@ATL@@@ATL@@U?$less@E@std@@V?$allocator@U?$pair@$$CBEV?$CStringT@DV?$StrTraitATL@DV?$ChTraitsCRT@D@ATL@@@ATL@@@ATL@@@std@@@4@$0A@@std@@@std@@QAE@PAU_Node@?$_Tree_nod@V?$_Tmap_traits@EV?$CStringT@DV?$StrTraitATL@DV?$ChTraitsCRT@D@ATL@@@ATL@@@ATL@@U?$less@E@std@@V?$allocator@U?$pair@$$CBEV?$CStringT@DV?$StrTraitATL@DV?$ChTraitsCRT@D@ATL@@@ATL@@@ATL@@@std@@@4@$0A@@std@@@2@@Z
_TEXT	SEGMENT PARA USE32 PUBLIC 'CODE'
_TEXT	ENDS
;	COMDAT ??0const_iterator@?$_Tree@V?$_Tmap_traits@EV?$CStringT@DV?$StrTraitATL@DV?$ChTraitsCRT@D@ATL@@@ATL@@@ATL@@U?$less@E@std@@V?$allocator@U?$pair@$$CBEV?$CStringT@DV?$StrTraitATL@DV?$ChTraitsCRT@D@ATL@@@ATL@@@ATL@@@std@@@4@$0A@@std@@@std@@QAE@PAU_Node@?$_Tree_nod@V?$_Tmap_traits@EV?$CStringT@DV?$StrTraitATL@DV?$ChTraitsCRT@D@ATL@@@ATL@@@ATL@@U?$less@E@std@@V?$allocator@U?$pair@$$CBEV?$CStringT@DV?$StrTraitATL@DV?$ChTraitsCRT@D@ATL@@@ATL@@@ATL@@@std@@@4@$0A@@std@@@2@@Z
_TEXT	SEGMENT PARA USE32 PUBLIC 'CODE'
_TEXT	ENDS
;	COMDAT ??9const_iterator@?$_Tree@V?$_Tmap_traits@EV?$CStringT@DV?$StrTraitATL@DV?$ChTraitsCRT@D@ATL@@@ATL@@@ATL@@U?$less@E@std@@V?$allocator@U?$pair@$$CBEV?$CStringT@DV?$StrTraitATL@DV?$ChTraitsCRT@D@ATL@@@ATL@@@ATL@@@std@@@4@$0A@@std@@@std@@QBE_NABV012@@Z
_TEXT	SEGMENT PARA USE32 PUBLIC 'CODE'
_TEXT	ENDS
;	COMDAT ??8const_iterator@?$_Tree@V?$_Tmap_traits@EV?$CStringT@DV?$StrTraitATL@DV?$ChTraitsCRT@D@ATL@@@ATL@@@ATL@@U?$less@E@std@@V?$allocator@U?$pair@$$CBEV?$CStringT@DV?$StrTraitATL@DV?$ChTraitsCRT@D@ATL@@@ATL@@@ATL@@@std@@@4@$0A@@std@@@std@@QBE_NABV012@@Z
_TEXT	SEGMENT PARA USE32 PUBLIC 'CODE'
_TEXT	ENDS
;	COMDAT ??Eiterator@?$_Tree@V?$_Tmap_traits@EV?$CStringT@DV?$StrTraitATL@DV?$ChTraitsCRT@D@ATL@@@ATL@@@ATL@@U?$less@E@std@@V?$allocator@U?$pair@$$CBEV?$CStringT@DV?$StrTraitATL@DV?$ChTraitsCRT@D@ATL@@@ATL@@@ATL@@@std@@@4@$0A@@std@@@std@@QAE?AV012@H@Z
_TEXT	SEGMENT PARA USE32 PUBLIC 'CODE'
_TEXT	ENDS
;	COMDAT ??Eiterator@?$_Tree@V?$_Tmap_traits@EV?$CStringT@DV?$StrTraitATL@DV?$ChTraitsCRT@D@ATL@@@ATL@@@ATL@@U?$less@E@std@@V?$allocator@U?$pair@$$CBEV?$CStringT@DV?$StrTraitATL@DV?$ChTraitsCRT@D@ATL@@@ATL@@@ATL@@@std@@@4@$0A@@std@@@std@@QAEAAV012@XZ
_TEXT	SEGMENT PARA USE32 PUBLIC 'CODE'
_TEXT	ENDS
;	COMDAT ??Econst_iterator@?$_Tree@V?$_Tmap_traits@EV?$CStringT@DV?$StrTraitATL@DV?$ChTraitsCRT@D@ATL@@@ATL@@@ATL@@U?$less@E@std@@V?$allocator@U?$pair@$$CBEV?$CStringT@DV?$StrTraitATL@DV?$ChTraitsCRT@D@ATL@@@ATL@@@ATL@@@std@@@4@$0A@@std@@@std@@QAEAAV012@XZ
_TEXT	SEGMENT PARA USE32 PUBLIC 'CODE'
_TEXT	ENDS
;	COMDAT ?_Inc@const_iterator@?$_Tree@V?$_Tmap_traits@EV?$CStringT@DV?$StrTraitATL@DV?$ChTraitsCRT@D@ATL@@@ATL@@@ATL@@U?$less@E@std@@V?$allocator@U?$pair@$$CBEV?$CStringT@DV?$StrTraitATL@DV?$ChTraitsCRT@D@ATL@@@ATL@@@ATL@@@std@@@4@$0A@@std@@@std@@QAEXXZ
_TEXT	SEGMENT PARA USE32 PUBLIC 'CODE'
_TEXT	ENDS
;	COMDAT ?_Min@?$_Tree@V?$_Tmap_traits@EV?$CStringT@DV?$StrTraitATL@DV?$ChTraitsCRT@D@ATL@@@ATL@@@ATL@@U?$less@E@std@@V?$allocator@U?$pair@$$CBEV?$CStringT@DV?$StrTraitATL@DV?$ChTraitsCRT@D@ATL@@@ATL@@@ATL@@@std@@@4@$0A@@std@@@std@@KAPAU_Node@?$_Tree_nod@V?$_Tmap_traits@EV?$CStringT@DV?$StrTraitATL@DV?$ChTraitsCRT@D@ATL@@@ATL@@@ATL@@U?$less@E@std@@V?$allocator@U?$pair@$$CBEV?$CStringT@DV?$StrTraitATL@DV?$ChTraitsCRT@D@ATL@@@ATL@@@ATL@@@std@@@4@$0A@@std@@@2@PAU342@@Z
_TEXT	SEGMENT PARA USE32 PUBLIC 'CODE'
_TEXT	ENDS
;	COMDAT ?_Left@?$_Tree@V?$_Tmap_traits@EV?$CStringT@DV?$StrTraitATL@DV?$ChTraitsCRT@D@ATL@@@ATL@@@ATL@@U?$less@E@std@@V?$allocator@U?$pair@$$CBEV?$CStringT@DV?$StrTraitATL@DV?$ChTraitsCRT@D@ATL@@@ATL@@@ATL@@@std@@@4@$0A@@std@@@std@@KAAAPAU_Node@?$_Tree_nod@V?$_Tmap_traits@EV?$CStringT@DV?$StrTraitATL@DV?$ChTraitsCRT@D@ATL@@@ATL@@@ATL@@U?$less@E@std@@V?$allocator@U?$pair@$$CBEV?$CStringT@DV?$StrTraitATL@DV?$ChTraitsCRT@D@ATL@@@ATL@@@ATL@@@std@@@4@$0A@@std@@@2@PAU342@@Z
_TEXT	SEGMENT PARA USE32 PUBLIC 'CODE'
_TEXT	ENDS
;	COMDAT ?_Isnil@?$_Tree@V?$_Tmap_traits@EV?$CStringT@DV?$StrTraitATL@DV?$ChTraitsCRT@D@ATL@@@ATL@@@ATL@@U?$less@E@std@@V?$allocator@U?$pair@$$CBEV?$CStringT@DV?$StrTraitATL@DV?$ChTraitsCRT@D@ATL@@@ATL@@@ATL@@@std@@@4@$0A@@std@@@std@@KAAADPAU_Node@?$_Tree_nod@V?$_Tmap_traits@EV?$CStringT@DV?$StrTraitATL@DV?$ChTraitsCRT@D@ATL@@@ATL@@@ATL@@U?$less@E@std@@V?$allocator@U?$pair@$$CBEV?$CStringT@DV?$StrTraitATL@DV?$ChTraitsCRT@D@ATL@@@ATL@@@ATL@@@std@@@4@$0A@@std@@@2@@Z
_TEXT	SEGMENT PARA USE32 PUBLIC 'CODE'
_TEXT	ENDS
;	COMDAT ?_Parent@?$_Tree@V?$_Tmap_traits@EV?$CStringT@DV?$StrTraitATL@DV?$ChTraitsCRT@D@ATL@@@ATL@@@ATL@@U?$less@E@std@@V?$allocator@U?$pair@$$CBEV?$CStringT@DV?$StrTraitATL@DV?$ChTraitsCRT@D@ATL@@@ATL@@@ATL@@@std@@@4@$0A@@std@@@std@@KAAAPAU_Node@?$_Tree_nod@V?$_Tmap_traits@EV?$CStringT@DV?$StrTraitATL@DV?$ChTraitsCRT@D@ATL@@@ATL@@@ATL@@U?$less@E@std@@V?$allocator@U?$pair@$$CBEV?$CStringT@DV?$StrTraitATL@DV?$ChTraitsCRT@D@ATL@@@ATL@@@ATL@@@std@@@4@$0A@@std@@@2@PAU342@@Z
_TEXT	SEGMENT PARA USE32 PUBLIC 'CODE'
_TEXT	ENDS
;	COMDAT ?_Right@?$_Tree@V?$_Tmap_traits@EV?$CStringT@DV?$StrTraitATL@DV?$ChTraitsCRT@D@ATL@@@ATL@@@ATL@@U?$less@E@std@@V?$allocator@U?$pair@$$CBEV?$CStringT@DV?$StrTraitATL@DV?$ChTraitsCRT@D@ATL@@@ATL@@@ATL@@@std@@@4@$0A@@std@@@std@@KAAAPAU_Node@?$_Tree_nod@V?$_Tmap_traits@EV?$CStringT@DV?$StrTraitATL@DV?$ChTraitsCRT@D@ATL@@@ATL@@@ATL@@U?$less@E@std@@V?$allocator@U?$pair@$$CBEV?$CStringT@DV?$StrTraitATL@DV?$ChTraitsCRT@D@ATL@@@ATL@@@ATL@@@std@@@4@$0A@@std@@@2@PAU342@@Z
_TEXT	SEGMENT PARA USE32 PUBLIC 'CODE'
_TEXT	ENDS
;	COMDAT ?begin@?$_Tree@V?$_Tmap_traits@EV?$CStringT@DV?$StrTraitATL@DV?$ChTraitsCRT@D@ATL@@@ATL@@@ATL@@U?$less@E@std@@V?$allocator@U?$pair@$$CBEV?$CStringT@DV?$StrTraitATL@DV?$ChTraitsCRT@D@ATL@@@ATL@@@ATL@@@std@@@4@$0A@@std@@@std@@QAE?AViterator@12@XZ
_TEXT	SEGMENT PARA USE32 PUBLIC 'CODE'
_TEXT	ENDS
;	COMDAT ?_Lmost@?$_Tree@V?$_Tmap_traits@EV?$CStringT@DV?$StrTraitATL@DV?$ChTraitsCRT@D@ATL@@@ATL@@@ATL@@U?$less@E@std@@V?$allocator@U?$pair@$$CBEV?$CStringT@DV?$StrTraitATL@DV?$ChTraitsCRT@D@ATL@@@ATL@@@ATL@@@std@@@4@$0A@@std@@@std@@IAEAAPAU_Node@?$_Tree_nod@V?$_Tmap_traits@EV?$CStringT@DV?$StrTraitATL@DV?$ChTraitsCRT@D@ATL@@@ATL@@@ATL@@U?$less@E@std@@V?$allocator@U?$pair@$$CBEV?$CStringT@DV?$StrTraitATL@DV?$ChTraitsCRT@D@ATL@@@ATL@@@ATL@@@std@@@4@$0A@@std@@@2@XZ
_TEXT	SEGMENT PARA USE32 PUBLIC 'CODE'
_TEXT	ENDS
;	COMDAT ??Diterator@?$_Tree@V?$_Tmap_traits@KPAUtagTSOULMATE@@U?$less@K@std@@V?$allocator@U?$pair@$$CBKPAUtagTSOULMATE@@@std@@@3@$0A@@std@@@std@@QBEAAU?$pair@$$CBKPAUtagTSOULMATE@@@2@XZ
_TEXT	SEGMENT PARA USE32 PUBLIC 'CODE'
_TEXT	ENDS
;	COMDAT ??Dconst_iterator@?$_Tree@V?$_Tmap_traits@KPAUtagTSOULMATE@@U?$less@K@std@@V?$allocator@U?$pair@$$CBKPAUtagTSOULMATE@@@std@@@3@$0A@@std@@@std@@QBEABU?$pair@$$CBKPAUtagTSOULMATE@@@2@XZ
_TEXT	SEGMENT PARA USE32 PUBLIC 'CODE'
_TEXT	ENDS
;	COMDAT ?end@?$_Tree@V?$_Tmap_traits@KPAUtagTSOULMATE@@U?$less@K@std@@V?$allocator@U?$pair@$$CBKPAUtagTSOULMATE@@@std@@@3@$0A@@std@@@std@@QAE?AViterator@12@XZ
_TEXT	SEGMENT PARA USE32 PUBLIC 'CODE'
_TEXT	ENDS
;	COMDAT ??9const_iterator@?$_Tree@V?$_Tmap_traits@KPAUtagTSOULMATE@@U?$less@K@std@@V?$allocator@U?$pair@$$CBKPAUtagTSOULMATE@@@std@@@3@$0A@@std@@@std@@QBE_NABV012@@Z
_TEXT	SEGMENT PARA USE32 PUBLIC 'CODE'
_TEXT	ENDS
;	COMDAT ??0?$CStringT@DV?$StrTraitATL@DV?$ChTraitsCRT@D@ATL@@@ATL@@@ATL@@QAE@PBD@Z
_TEXT	SEGMENT PARA USE32 PUBLIC 'CODE'
_TEXT	ENDS
;	COMDAT ??0?$CSimpleStringT@D$0A@@ATL@@QAE@PAUIAtlStringMgr@1@@Z
_TEXT	SEGMENT PARA USE32 PUBLIC 'CODE'
_TEXT	ENDS
;	COMDAT ?Attach@?$CSimpleStringT@D$0A@@ATL@@AAEXPAUCStringData@2@@Z
_TEXT	SEGMENT PARA USE32 PUBLIC 'CODE'
_TEXT	ENDS
;	COMDAT ?data@CStringData@ATL@@QAEPAXXZ
_TEXT	SEGMENT PARA USE32 PUBLIC 'CODE'
_TEXT	ENDS
;	COMDAT ?GetDefaultManager@?$StrTraitATL@DV?$ChTraitsCRT@D@ATL@@@ATL@@SAPAUIAtlStringMgr@2@XZ
_TEXT	SEGMENT PARA USE32 PUBLIC 'CODE'
_TEXT	ENDS
;	COMDAT ??1?$CSimpleStringT@D$0A@@ATL@@QAE@XZ
_TEXT	SEGMENT PARA USE32 PUBLIC 'CODE'
_TEXT	ENDS
;	COMDAT ?GetData@?$CSimpleStringT@D$0A@@ATL@@ABEPAUCStringData@2@XZ
_TEXT	SEGMENT PARA USE32 PUBLIC 'CODE'
_TEXT	ENDS
;	COMDAT ?Release@CStringData@ATL@@QAEXXZ
_TEXT	SEGMENT PARA USE32 PUBLIC 'CODE'
_TEXT	ENDS
;	COMDAT ?CheckImplicitLoad@?$CStringT@DV?$StrTraitATL@DV?$ChTraitsCRT@D@ATL@@@ATL@@@ATL@@AAE_NPBX@Z
_TEXT	SEGMENT PARA USE32 PUBLIC 'CODE'
_TEXT	ENDS
;	COMDAT ?LoadStringA@?$CStringT@DV?$StrTraitATL@DV?$ChTraitsCRT@D@ATL@@@ATL@@@ATL@@QAEHI@Z
_TEXT	SEGMENT PARA USE32 PUBLIC 'CODE'
_TEXT	ENDS
;	COMDAT ?FindStringResourceInstance@?$StrTraitATL@DV?$ChTraitsCRT@D@ATL@@@ATL@@SAPAUHINSTANCE__@@I@Z
_TEXT	SEGMENT PARA USE32 PUBLIC 'CODE'
_TEXT	ENDS
;	COMDAT ?AtlFindStringResourceInstance@ATL@@YAPAUHINSTANCE__@@IG@Z
_TEXT	SEGMENT PARA USE32 PUBLIC 'CODE'
_TEXT	ENDS
;	COMDAT ?AtlGetStringResourceImage@ATL@@YAPBUATLSTRINGRESOURCEIMAGE@1@PAUHINSTANCE__@@IG@Z
_TEXT	SEGMENT PARA USE32 PUBLIC 'CODE'
_TEXT	ENDS
;	COMDAT ?_AtlGetStringResourceImage@ATL@@YAPBUATLSTRINGRESOURCEIMAGE@1@PAUHINSTANCE__@@PAUHRSRC__@@I@Z
_TEXT	SEGMENT PARA USE32 PUBLIC 'CODE'
_TEXT	ENDS
;	COMDAT ?LoadStringA@?$CStringT@DV?$StrTraitATL@DV?$ChTraitsCRT@D@ATL@@@ATL@@@ATL@@QAEHPAUHINSTANCE__@@I@Z
_TEXT	SEGMENT PARA USE32 PUBLIC 'CODE'
_TEXT	ENDS
;	COMDAT ?AtlGetStringResourceImage@ATL@@YAPBUATLSTRINGRESOURCEIMAGE@1@PAUHINSTANCE__@@I@Z
_TEXT	SEGMENT PARA USE32 PUBLIC 'CODE'
_TEXT	ENDS
;	COMDAT ?GetBaseTypeLength@?$ChTraitsCRT@D@ATL@@SAHPBGH@Z
_TEXT	SEGMENT PARA USE32 PUBLIC 'CODE'
_TEXT	ENDS
;	COMDAT ?_AtlGetConversionACP@ATL@@YGIXZ
_TEXT	SEGMENT PARA USE32 PUBLIC 'CODE'
_TEXT	ENDS
;	COMDAT ?g_pfnGetThreadACP@ATL@@3P6GIXZA
_DATA	SEGMENT DWORD USE32 PUBLIC 'DATA'
_DATA	ENDS
;	COMDAT ?_AtlGetThreadACPThunk@ATL@@YGIXZ
_TEXT	SEGMENT PARA USE32 PUBLIC 'CODE'
_TEXT	ENDS
;	COMDAT ?_AtlGetThreadACPReal@ATL@@YGIXZ
_TEXT	SEGMENT PARA USE32 PUBLIC 'CODE'
_TEXT	ENDS
;	COMDAT ?_AtlGetThreadACPFake@ATL@@YGIXZ
_TEXT	SEGMENT PARA USE32 PUBLIC 'CODE'
_TEXT	ENDS
;	COMDAT ?InterlockedExchangePointer@@YGPAXPAPAXPAX@Z
_TEXT	SEGMENT PARA USE32 PUBLIC 'CODE'
_TEXT	ENDS
;	COMDAT ?GetBuffer@?$CSimpleStringT@D$0A@@ATL@@QAEPADH@Z
_TEXT	SEGMENT PARA USE32 PUBLIC 'CODE'
_TEXT	ENDS
;	COMDAT ?PrepareWrite@?$CSimpleStringT@D$0A@@ATL@@AAEPADH@Z
_TEXT	SEGMENT PARA USE32 PUBLIC 'CODE'
_TEXT	ENDS
;	COMDAT ?PrepareWrite2@?$CSimpleStringT@D$0A@@ATL@@AAEXH@Z
_TEXT	SEGMENT PARA USE32 PUBLIC 'CODE'
_TEXT	ENDS
;	COMDAT ?IsShared@CStringData@ATL@@QBE_NXZ
_TEXT	SEGMENT PARA USE32 PUBLIC 'CODE'
_TEXT	ENDS
;	COMDAT ?Fork@?$CSimpleStringT@D$0A@@ATL@@AAEXH@Z
_TEXT	SEGMENT PARA USE32 PUBLIC 'CODE'
_TEXT	ENDS
;	COMDAT ?ThrowMemoryException@?$CSimpleStringT@D$0A@@ATL@@KAXXZ
_TEXT	SEGMENT PARA USE32 PUBLIC 'CODE'
_TEXT	ENDS
;	COMDAT ?AtlThrow@ATL@@YGXJ@Z
_TEXT	SEGMENT PARA USE32 PUBLIC 'CODE'
_TEXT	ENDS
;	COMDAT ??0CAtlException@ATL@@QAE@J@Z
_TEXT	SEGMENT PARA USE32 PUBLIC 'CODE'
_TEXT	ENDS
;	COMDAT __TI1?AVCAtlException@ATL@@
xdata$x	SEGMENT DWORD USE32 PUBLIC 'CONST'
xdata$x	ENDS
;	COMDAT __CTA1?AVCAtlException@ATL@@
xdata$x	SEGMENT DWORD USE32 PUBLIC 'CONST'
xdata$x	ENDS
;	COMDAT __CT??_R0?AVCAtlException@ATL@@@84
xdata$x	SEGMENT DWORD USE32 PUBLIC 'CONST'
xdata$x	ENDS
;	COMDAT ??_R0?AVCAtlException@ATL@@@8
_DATA	SEGMENT DWORD USE32 PUBLIC 'DATA'
_DATA	ENDS
;	COMDAT ?CopyChars@?$CSimpleStringT@D$0A@@ATL@@SAXPADPBDH@Z
_TEXT	SEGMENT PARA USE32 PUBLIC 'CODE'
_TEXT	ENDS
;	COMDAT ?Reallocate@?$CSimpleStringT@D$0A@@ATL@@AAEXH@Z
_TEXT	SEGMENT PARA USE32 PUBLIC 'CODE'
_TEXT	ENDS
;	COMDAT ?ConvertToBaseType@?$ChTraitsCRT@D@ATL@@SAXPADHPBGH@Z
_TEXT	SEGMENT PARA USE32 PUBLIC 'CODE'
_TEXT	ENDS
;	COMDAT ?ReleaseBufferSetLength@?$CSimpleStringT@D$0A@@ATL@@QAEXH@Z
_TEXT	SEGMENT PARA USE32 PUBLIC 'CODE'
_TEXT	ENDS
;	COMDAT ?SetLength@?$CSimpleStringT@D$0A@@ATL@@AAEXH@Z
_TEXT	SEGMENT PARA USE32 PUBLIC 'CODE'
_TEXT	ENDS
;	COMDAT ??4?$CStringT@DV?$StrTraitATL@DV?$ChTraitsCRT@D@ATL@@@ATL@@@ATL@@QAEAAV01@PBD@Z
_TEXT	SEGMENT PARA USE32 PUBLIC 'CODE'
_TEXT	ENDS
;	COMDAT ??4?$CSimpleStringT@D$0A@@ATL@@QAEAAV01@PBD@Z
_TEXT	SEGMENT PARA USE32 PUBLIC 'CODE'
_TEXT	ENDS
;	COMDAT ?SetString@?$CSimpleStringT@D$0A@@ATL@@QAEXPBD@Z
_TEXT	SEGMENT PARA USE32 PUBLIC 'CODE'
_TEXT	ENDS
;	COMDAT ?SetString@?$CSimpleStringT@D$0A@@ATL@@QAEXPBDH@Z
_TEXT	SEGMENT PARA USE32 PUBLIC 'CODE'
_TEXT	ENDS
;	COMDAT ?Empty@?$CSimpleStringT@D$0A@@ATL@@QAEXXZ
_TEXT	SEGMENT PARA USE32 PUBLIC 'CODE'
_TEXT	ENDS
;	COMDAT ?IsLocked@CStringData@ATL@@QBE_NXZ
_TEXT	SEGMENT PARA USE32 PUBLIC 'CODE'
_TEXT	ENDS
;	COMDAT ?GetLength@?$CSimpleStringT@D$0A@@ATL@@QBEHXZ
_TEXT	SEGMENT PARA USE32 PUBLIC 'CODE'
_TEXT	ENDS
;	COMDAT ?GetString@?$CSimpleStringT@D$0A@@ATL@@QBEPBDXZ
_TEXT	SEGMENT PARA USE32 PUBLIC 'CODE'
_TEXT	ENDS
;	COMDAT ?CopyCharsOverlapped@?$CSimpleStringT@D$0A@@ATL@@SAXPADPBDH@Z
_TEXT	SEGMENT PARA USE32 PUBLIC 'CODE'
_TEXT	ENDS
;	COMDAT ?StringLength@?$CSimpleStringT@D$0A@@ATL@@SAHPBD@Z
_TEXT	SEGMENT PARA USE32 PUBLIC 'CODE'
_TEXT	ENDS
;	COMDAT ??_C@_00CNPNBAHC@?$AA@
CONST	SEGMENT DWORD USE32 PUBLIC 'CONST'
CONST	ENDS
;	COMDAT ??Diterator@?$_Tree@V?$_Tmap_traits@EPAUtagTCHARCON@@U?$less@E@std@@V?$allocator@U?$pair@$$CBEPAUtagTCHARCON@@@std@@@3@$0A@@std@@@std@@QBEAAU?$pair@$$CBEPAUtagTCHARCON@@@2@XZ
_TEXT	SEGMENT PARA USE32 PUBLIC 'CODE'
_TEXT	ENDS
;	COMDAT ??Dconst_iterator@?$_Tree@V?$_Tmap_traits@EPAUtagTCHARCON@@U?$less@E@std@@V?$allocator@U?$pair@$$CBEPAUtagTCHARCON@@@std@@@3@$0A@@std@@@std@@QBEABU?$pair@$$CBEPAUtagTCHARCON@@@2@XZ
_TEXT	SEGMENT PARA USE32 PUBLIC 'CODE'
_TEXT	ENDS
;	COMDAT ?_Myval@?$_Tree@V?$_Tmap_traits@EPAUtagTCHARCON@@U?$less@E@std@@V?$allocator@U?$pair@$$CBEPAUtagTCHARCON@@@std@@@3@$0A@@std@@@std@@KAAAU?$pair@$$CBEPAUtagTCHARCON@@@2@PAU_Node@?$_Tree_nod@V?$_Tmap_traits@EPAUtagTCHARCON@@U?$less@E@std@@V?$allocator@U?$pair@$$CBEPAUtagTCHARCON@@@std@@@3@$0A@@std@@@2@@Z
_TEXT	SEGMENT PARA USE32 PUBLIC 'CODE'
_TEXT	ENDS
;	COMDAT ?end@?$_Tree@V?$_Tmap_traits@EPAUtagTCHARCON@@U?$less@E@std@@V?$allocator@U?$pair@$$CBEPAUtagTCHARCON@@@std@@@3@$0A@@std@@@std@@QAE?AViterator@12@XZ
_TEXT	SEGMENT PARA USE32 PUBLIC 'CODE'
_TEXT	ENDS
;	COMDAT ??0iterator@?$_Tree@V?$_Tmap_traits@EPAUtagTCHARCON@@U?$less@E@std@@V?$allocator@U?$pair@$$CBEPAUtagTCHARCON@@@std@@@3@$0A@@std@@@std@@QAE@PAU_Node@?$_Tree_nod@V?$_Tmap_traits@EPAUtagTCHARCON@@U?$less@E@std@@V?$allocator@U?$pair@$$CBEPAUtagTCHARCON@@@std@@@3@$0A@@std@@@2@@Z
_TEXT	SEGMENT PARA USE32 PUBLIC 'CODE'
_TEXT	ENDS
;	COMDAT ??0const_iterator@?$_Tree@V?$_Tmap_traits@EPAUtagTCHARCON@@U?$less@E@std@@V?$allocator@U?$pair@$$CBEPAUtagTCHARCON@@@std@@@3@$0A@@std@@@std@@QAE@PAU_Node@?$_Tree_nod@V?$_Tmap_traits@EPAUtagTCHARCON@@U?$less@E@std@@V?$allocator@U?$pair@$$CBEPAUtagTCHARCON@@@std@@@3@$0A@@std@@@2@@Z
_TEXT	SEGMENT PARA USE32 PUBLIC 'CODE'
_TEXT	ENDS
;	COMDAT ??9const_iterator@?$_Tree@V?$_Tmap_traits@EPAUtagTCHARCON@@U?$less@E@std@@V?$allocator@U?$pair@$$CBEPAUtagTCHARCON@@@std@@@3@$0A@@std@@@std@@QBE_NABV012@@Z
_TEXT	SEGMENT PARA USE32 PUBLIC 'CODE'
_TEXT	ENDS
;	COMDAT ??8const_iterator@?$_Tree@V?$_Tmap_traits@EPAUtagTCHARCON@@U?$less@E@std@@V?$allocator@U?$pair@$$CBEPAUtagTCHARCON@@@std@@@3@$0A@@std@@@std@@QBE_NABV012@@Z
_TEXT	SEGMENT PARA USE32 PUBLIC 'CODE'
_TEXT	ENDS
;	COMDAT ??Eiterator@?$_Tree@V?$_Tmap_traits@EPAUtagTCHARCON@@U?$less@E@std@@V?$allocator@U?$pair@$$CBEPAUtagTCHARCON@@@std@@@3@$0A@@std@@@std@@QAE?AV012@H@Z
_TEXT	SEGMENT PARA USE32 PUBLIC 'CODE'
_TEXT	ENDS
;	COMDAT ??Eiterator@?$_Tree@V?$_Tmap_traits@EPAUtagTCHARCON@@U?$less@E@std@@V?$allocator@U?$pair@$$CBEPAUtagTCHARCON@@@std@@@3@$0A@@std@@@std@@QAEAAV012@XZ
_TEXT	SEGMENT PARA USE32 PUBLIC 'CODE'
_TEXT	ENDS
;	COMDAT ??Econst_iterator@?$_Tree@V?$_Tmap_traits@EPAUtagTCHARCON@@U?$less@E@std@@V?$allocator@U?$pair@$$CBEPAUtagTCHARCON@@@std@@@3@$0A@@std@@@std@@QAEAAV012@XZ
_TEXT	SEGMENT PARA USE32 PUBLIC 'CODE'
_TEXT	ENDS
;	COMDAT ?_Inc@const_iterator@?$_Tree@V?$_Tmap_traits@EPAUtagTCHARCON@@U?$less@E@std@@V?$allocator@U?$pair@$$CBEPAUtagTCHARCON@@@std@@@3@$0A@@std@@@std@@QAEXXZ
_TEXT	SEGMENT PARA USE32 PUBLIC 'CODE'
_TEXT	ENDS
;	COMDAT ?_Min@?$_Tree@V?$_Tmap_traits@EPAUtagTCHARCON@@U?$less@E@std@@V?$allocator@U?$pair@$$CBEPAUtagTCHARCON@@@std@@@3@$0A@@std@@@std@@KAPAU_Node@?$_Tree_nod@V?$_Tmap_traits@EPAUtagTCHARCON@@U?$less@E@std@@V?$allocator@U?$pair@$$CBEPAUtagTCHARCON@@@std@@@3@$0A@@std@@@2@PAU342@@Z
_TEXT	SEGMENT PARA USE32 PUBLIC 'CODE'
_TEXT	ENDS
;	COMDAT ?_Left@?$_Tree@V?$_Tmap_traits@EPAUtagTCHARCON@@U?$less@E@std@@V?$allocator@U?$pair@$$CBEPAUtagTCHARCON@@@std@@@3@$0A@@std@@@std@@KAAAPAU_Node@?$_Tree_nod@V?$_Tmap_traits@EPAUtagTCHARCON@@U?$less@E@std@@V?$allocator@U?$pair@$$CBEPAUtagTCHARCON@@@std@@@3@$0A@@std@@@2@PAU342@@Z
_TEXT	SEGMENT PARA USE32 PUBLIC 'CODE'
_TEXT	ENDS
;	COMDAT ?_Isnil@?$_Tree@V?$_Tmap_traits@EPAUtagTCHARCON@@U?$less@E@std@@V?$allocator@U?$pair@$$CBEPAUtagTCHARCON@@@std@@@3@$0A@@std@@@std@@KAAADPAU_Node@?$_Tree_nod@V?$_Tmap_traits@EPAUtagTCHARCON@@U?$less@E@std@@V?$allocator@U?$pair@$$CBEPAUtagTCHARCON@@@std@@@3@$0A@@std@@@2@@Z
_TEXT	SEGMENT PARA USE32 PUBLIC 'CODE'
_TEXT	ENDS
;	COMDAT ?_Parent@?$_Tree@V?$_Tmap_traits@EPAUtagTCHARCON@@U?$less@E@std@@V?$allocator@U?$pair@$$CBEPAUtagTCHARCON@@@std@@@3@$0A@@std@@@std@@KAAAPAU_Node@?$_Tree_nod@V?$_Tmap_traits@EPAUtagTCHARCON@@U?$less@E@std@@V?$allocator@U?$pair@$$CBEPAUtagTCHARCON@@@std@@@3@$0A@@std@@@2@PAU342@@Z
_TEXT	SEGMENT PARA USE32 PUBLIC 'CODE'
_TEXT	ENDS
;	COMDAT ?_Right@?$_Tree@V?$_Tmap_traits@EPAUtagTCHARCON@@U?$less@E@std@@V?$allocator@U?$pair@$$CBEPAUtagTCHARCON@@@std@@@3@$0A@@std@@@std@@KAAAPAU_Node@?$_Tree_nod@V?$_Tmap_traits@EPAUtagTCHARCON@@U?$less@E@std@@V?$allocator@U?$pair@$$CBEPAUtagTCHARCON@@@std@@@3@$0A@@std@@@2@PAU342@@Z
_TEXT	SEGMENT PARA USE32 PUBLIC 'CODE'
_TEXT	ENDS
;	COMDAT ?begin@?$_Tree@V?$_Tmap_traits@EPAUtagTCHARCON@@U?$less@E@std@@V?$allocator@U?$pair@$$CBEPAUtagTCHARCON@@@std@@@3@$0A@@std@@@std@@QAE?AViterator@12@XZ
_TEXT	SEGMENT PARA USE32 PUBLIC 'CODE'
_TEXT	ENDS
;	COMDAT ?_Lmost@?$_Tree@V?$_Tmap_traits@EPAUtagTCHARCON@@U?$less@E@std@@V?$allocator@U?$pair@$$CBEPAUtagTCHARCON@@@std@@@3@$0A@@std@@@std@@IAEAAPAU_Node@?$_Tree_nod@V?$_Tmap_traits@EPAUtagTCHARCON@@U?$less@E@std@@V?$allocator@U?$pair@$$CBEPAUtagTCHARCON@@@std@@@3@$0A@@std@@@2@XZ
_TEXT	SEGMENT PARA USE32 PUBLIC 'CODE'
_TEXT	ENDS
;	COMDAT ??0iterator@?$_Tree@V?$_Tmap_traits@EPAUtagTCHARCON@@U?$less@E@std@@V?$allocator@U?$pair@$$CBEPAUtagTCHARCON@@@std@@@3@$0A@@std@@@std@@QAE@XZ
_TEXT	SEGMENT PARA USE32 PUBLIC 'CODE'
_TEXT	ENDS
;	COMDAT ??0const_iterator@?$_Tree@V?$_Tmap_traits@EPAUtagTCHARCON@@U?$less@E@std@@V?$allocator@U?$pair@$$CBEPAUtagTCHARCON@@@std@@@3@$0A@@std@@@std@@QAE@XZ
_TEXT	SEGMENT PARA USE32 PUBLIC 'CODE'
_TEXT	ENDS
;	COMDAT ??1?$map@EPAUtagTCHARCON@@U?$less@E@std@@V?$allocator@U?$pair@$$CBEPAUtagTCHARCON@@@std@@@3@@std@@QAE@XZ
_TEXT	SEGMENT PARA USE32 PUBLIC 'CODE'
_TEXT	ENDS
;	COMDAT ??1?$_Tree@V?$_Tmap_traits@EPAUtagTCHARCON@@U?$less@E@std@@V?$allocator@U?$pair@$$CBEPAUtagTCHARCON@@@std@@@3@$0A@@std@@@std@@QAE@XZ
_TEXT	SEGMENT PARA USE32 PUBLIC 'CODE'
_TEXT	ENDS
;	COMDAT ?_Tidy@?$_Tree@V?$_Tmap_traits@EPAUtagTCHARCON@@U?$less@E@std@@V?$allocator@U?$pair@$$CBEPAUtagTCHARCON@@@std@@@3@$0A@@std@@@std@@IAEXXZ
_TEXT	SEGMENT PARA USE32 PUBLIC 'CODE'
_TEXT	ENDS
;	COMDAT ?erase@?$_Tree@V?$_Tmap_traits@EPAUtagTCHARCON@@U?$less@E@std@@V?$allocator@U?$pair@$$CBEPAUtagTCHARCON@@@std@@@3@$0A@@std@@@std@@QAE?AViterator@12@V312@0@Z
_TEXT	SEGMENT PARA USE32 PUBLIC 'CODE'
_TEXT	ENDS
;	COMDAT ?clear@?$_Tree@V?$_Tmap_traits@EPAUtagTCHARCON@@U?$less@E@std@@V?$allocator@U?$pair@$$CBEPAUtagTCHARCON@@@std@@@3@$0A@@std@@@std@@QAEXXZ
_TEXT	SEGMENT PARA USE32 PUBLIC 'CODE'
_TEXT	ENDS
;	COMDAT ?_Erase@?$_Tree@V?$_Tmap_traits@EPAUtagTCHARCON@@U?$less@E@std@@V?$allocator@U?$pair@$$CBEPAUtagTCHARCON@@@std@@@3@$0A@@std@@@std@@IAEXPAU_Node@?$_Tree_nod@V?$_Tmap_traits@EPAUtagTCHARCON@@U?$less@E@std@@V?$allocator@U?$pair@$$CBEPAUtagTCHARCON@@@std@@@3@$0A@@std@@@2@@Z
_TEXT	SEGMENT PARA USE32 PUBLIC 'CODE'
_TEXT	ENDS
;	COMDAT ?destroy@?$allocator@U_Node@?$_Tree_nod@V?$_Tmap_traits@EPAUtagTCHARCON@@U?$less@E@std@@V?$allocator@U?$pair@$$CBEPAUtagTCHARCON@@@std@@@3@$0A@@std@@@std@@@std@@QAEXPAU_Node@?$_Tree_nod@V?$_Tmap_traits@EPAUtagTCHARCON@@U?$less@E@std@@V?$allocator@U?$pair@$$CBEPAUtagTCHARCON@@@std@@@3@$0A@@std@@@2@@Z
_TEXT	SEGMENT PARA USE32 PUBLIC 'CODE'
_TEXT	ENDS
;	COMDAT ??$_Destroy@U_Node@?$_Tree_nod@V?$_Tmap_traits@EPAUtagTCHARCON@@U?$less@E@std@@V?$allocator@U?$pair@$$CBEPAUtagTCHARCON@@@std@@@3@$0A@@std@@@std@@@std@@YAXPAU_Node@?$_Tree_nod@V?$_Tmap_traits@EPAUtagTCHARCON@@U?$less@E@std@@V?$allocator@U?$pair@$$CBEPAUtagTCHARCON@@@std@@@3@$0A@@std@@@0@@Z
_TEXT	SEGMENT PARA USE32 PUBLIC 'CODE'
_TEXT	ENDS
;	COMDAT ?_Root@?$_Tree@V?$_Tmap_traits@EPAUtagTCHARCON@@U?$less@E@std@@V?$allocator@U?$pair@$$CBEPAUtagTCHARCON@@@std@@@3@$0A@@std@@@std@@IAEAAPAU_Node@?$_Tree_nod@V?$_Tmap_traits@EPAUtagTCHARCON@@U?$less@E@std@@V?$allocator@U?$pair@$$CBEPAUtagTCHARCON@@@std@@@3@$0A@@std@@@2@XZ
_TEXT	SEGMENT PARA USE32 PUBLIC 'CODE'
_TEXT	ENDS
;	COMDAT ?_Rmost@?$_Tree@V?$_Tmap_traits@EPAUtagTCHARCON@@U?$less@E@std@@V?$allocator@U?$pair@$$CBEPAUtagTCHARCON@@@std@@@3@$0A@@std@@@std@@IAEAAPAU_Node@?$_Tree_nod@V?$_Tmap_traits@EPAUtagTCHARCON@@U?$less@E@std@@V?$allocator@U?$pair@$$CBEPAUtagTCHARCON@@@std@@@3@$0A@@std@@@2@XZ
_TEXT	SEGMENT PARA USE32 PUBLIC 'CODE'
_TEXT	ENDS
;	COMDAT ?erase@?$_Tree@V?$_Tmap_traits@EPAUtagTCHARCON@@U?$less@E@std@@V?$allocator@U?$pair@$$CBEPAUtagTCHARCON@@@std@@@3@$0A@@std@@@std@@QAE?AViterator@12@V312@@Z
_TEXT	SEGMENT PARA USE32 PUBLIC 'CODE'
_TEXT	ENDS
;	COMDAT ??_C@_0BM@PAPJHAGI@invalid?5map?1set?$DMT?$DO?5iterator?$AA@
CONST	SEGMENT DWORD USE32 PUBLIC 'CONST'
CONST	ENDS
;	COMDAT ?_Mynode@const_iterator@?$_Tree@V?$_Tmap_traits@EPAUtagTCHARCON@@U?$less@E@std@@V?$allocator@U?$pair@$$CBEPAUtagTCHARCON@@@std@@@3@$0A@@std@@@std@@QBEPAU_Node@?$_Tree_nod@V?$_Tmap_traits@EPAUtagTCHARCON@@U?$less@E@std@@V?$allocator@U?$pair@$$CBEPAUtagTCHARCON@@@std@@@3@$0A@@std@@@3@XZ
_TEXT	SEGMENT PARA USE32 PUBLIC 'CODE'
_TEXT	ENDS
;	COMDAT ?_Max@?$_Tree@V?$_Tmap_traits@EPAUtagTCHARCON@@U?$less@E@std@@V?$allocator@U?$pair@$$CBEPAUtagTCHARCON@@@std@@@3@$0A@@std@@@std@@KAPAU_Node@?$_Tree_nod@V?$_Tmap_traits@EPAUtagTCHARCON@@U?$less@E@std@@V?$allocator@U?$pair@$$CBEPAUtagTCHARCON@@@std@@@3@$0A@@std@@@2@PAU342@@Z
_TEXT	SEGMENT PARA USE32 PUBLIC 'CODE'
_TEXT	ENDS
;	COMDAT ??$swap@D@std@@YAXAAD0@Z
_TEXT	SEGMENT PARA USE32 PUBLIC 'CODE'
_TEXT	ENDS
;	COMDAT ?_Lrotate@?$_Tree@V?$_Tmap_traits@EPAUtagTCHARCON@@U?$less@E@std@@V?$allocator@U?$pair@$$CBEPAUtagTCHARCON@@@std@@@3@$0A@@std@@@std@@IAEXPAU_Node@?$_Tree_nod@V?$_Tmap_traits@EPAUtagTCHARCON@@U?$less@E@std@@V?$allocator@U?$pair@$$CBEPAUtagTCHARCON@@@std@@@3@$0A@@std@@@2@@Z
_TEXT	SEGMENT PARA USE32 PUBLIC 'CODE'
_TEXT	ENDS
;	COMDAT ?_Rrotate@?$_Tree@V?$_Tmap_traits@EPAUtagTCHARCON@@U?$less@E@std@@V?$allocator@U?$pair@$$CBEPAUtagTCHARCON@@@std@@@3@$0A@@std@@@std@@IAEXPAU_Node@?$_Tree_nod@V?$_Tmap_traits@EPAUtagTCHARCON@@U?$less@E@std@@V?$allocator@U?$pair@$$CBEPAUtagTCHARCON@@@std@@@3@$0A@@std@@@2@@Z
_TEXT	SEGMENT PARA USE32 PUBLIC 'CODE'
_TEXT	ENDS
;	COMDAT ?_Color@?$_Tree@V?$_Tmap_traits@EPAUtagTCHARCON@@U?$less@E@std@@V?$allocator@U?$pair@$$CBEPAUtagTCHARCON@@@std@@@3@$0A@@std@@@std@@KAAADPAU_Node@?$_Tree_nod@V?$_Tmap_traits@EPAUtagTCHARCON@@U?$less@E@std@@V?$allocator@U?$pair@$$CBEPAUtagTCHARCON@@@std@@@3@$0A@@std@@@2@@Z
_TEXT	SEGMENT PARA USE32 PUBLIC 'CODE'
_TEXT	ENDS
;	COMDAT ?destroy@?$allocator@PAU_Node@?$_Tree_nod@V?$_Tmap_traits@EPAUtagTCHARCON@@U?$less@E@std@@V?$allocator@U?$pair@$$CBEPAUtagTCHARCON@@@std@@@3@$0A@@std@@@std@@@std@@QAEXPAPAU_Node@?$_Tree_nod@V?$_Tmap_traits@EPAUtagTCHARCON@@U?$less@E@std@@V?$allocator@U?$pair@$$CBEPAUtagTCHARCON@@@std@@@3@$0A@@std@@@2@@Z
_TEXT	SEGMENT PARA USE32 PUBLIC 'CODE'
_TEXT	ENDS
;	COMDAT ??$_Destroy@PAU_Node@?$_Tree_nod@V?$_Tmap_traits@EPAUtagTCHARCON@@U?$less@E@std@@V?$allocator@U?$pair@$$CBEPAUtagTCHARCON@@@std@@@3@$0A@@std@@@std@@@std@@YAXPAPAU_Node@?$_Tree_nod@V?$_Tmap_traits@EPAUtagTCHARCON@@U?$less@E@std@@V?$allocator@U?$pair@$$CBEPAUtagTCHARCON@@@std@@@3@$0A@@std@@@0@@Z
_TEXT	SEGMENT PARA USE32 PUBLIC 'CODE'
_TEXT	ENDS
;	COMDAT ?deallocate@?$allocator@U_Node@?$_Tree_nod@V?$_Tmap_traits@EPAUtagTCHARCON@@U?$less@E@std@@V?$allocator@U?$pair@$$CBEPAUtagTCHARCON@@@std@@@3@$0A@@std@@@std@@@std@@QAEXPAU_Node@?$_Tree_nod@V?$_Tmap_traits@EPAUtagTCHARCON@@U?$less@E@std@@V?$allocator@U?$pair@$$CBEPAUtagTCHARCON@@@std@@@3@$0A@@std@@@2@I@Z
_TEXT	SEGMENT PARA USE32 PUBLIC 'CODE'
_TEXT	ENDS
;	COMDAT ??0?$CStringT@DV?$StrTraitATL@DV?$ChTraitsCRT@D@ATL@@@ATL@@@ATL@@QAE@XZ
_TEXT	SEGMENT PARA USE32 PUBLIC 'CODE'
_TEXT	ENDS
;	COMDAT ??B?$CSimpleStringT@D$0A@@ATL@@QBEPBDXZ
_TEXT	SEGMENT PARA USE32 PUBLIC 'CODE'
_TEXT	ENDS
;	COMDAT ??1?$CStringT@DV?$StrTraitATL@DV?$ChTraitsCRT@D@ATL@@@ATL@@@ATL@@QAE@XZ
_TEXT	SEGMENT PARA USE32 PUBLIC 'CODE'
_TEXT	ENDS
sxdata	SEGMENT DWORD USE32 'SXDATA'
sxdata	ENDS
FLAT	GROUP _DATA, CONST, _BSS
	ASSUME	CS: FLAT, DS: FLAT, SS: FLAT
endif

INCLUDELIB LIBCMT
INCLUDELIB OLDNAMES

PUBLIC	?g_pfnGetThreadACP@ATL@@3P6GIXZA		; ATL::g_pfnGetThreadACP
PUBLIC	?_AtlGetThreadACPThunk@ATL@@YGIXZ		; ATL::_AtlGetThreadACPThunk
;	COMDAT ?g_pfnGetThreadACP@ATL@@3P6GIXZA
_DATA	SEGMENT
?g_pfnGetThreadACP@ATL@@3P6GIXZA DD FLAT:?_AtlGetThreadACPThunk@ATL@@YGIXZ ; ATL::g_pfnGetThreadACP
_DATA	ENDS
PUBLIC	?RelayCorpsMsg@CTServer@@QAEXKKPAVCPacket@@G@Z	; CTServer::RelayCorpsMsg
EXTRN	??2@YAPAXI@Z:NEAR				; operator new
EXTRN	??3@YAXPAX@Z:NEAR				; operator delete
EXTRN	__except_list:DWORD
EXTRN	___CxxFrameHandler:NEAR
EXTRN	??0CPacket@@QAE@XZ:NEAR				; CPacket::CPacket
EXTRN	?Rewind@CPacket@@QAEXH@Z:NEAR			; CPacket::Rewind
EXTRN	?SetID@CPacket@@QAEAAV1@G@Z:NEAR		; CPacket::SetID
EXTRN	??6CPacket@@QAEAAV0@K@Z:NEAR			; CPacket::operator<<
EXTRN	?Copy@CPacket@@QAEXPAV1@@Z:NEAR			; CPacket::Copy
;	COMDAT xdata$x
; File c:\users\pierr\desktop\4story - oldschool\sources\tserver\tworldsvr\sssender.cpp
xdata$x	SEGMENT
$T131769 DD	0ffffffffH
	DD	FLAT:$L131760
$T131764 DD	019930520H
	DD	01H
	DD	FLAT:$T131769
	DD	2 DUP(00H)
	DD	2 DUP(00H)
; Function compile flags: /Ogty
xdata$x	ENDS
;	COMDAT ?RelayCorpsMsg@CTServer@@QAEXKKPAVCPacket@@G@Z
_TEXT	SEGMENT
$T131757 = -16						; size = 4
__$EHRec$ = -12						; size = 12
_dwCharID$ = 8						; size = 4
_dwKey$ = 12						; size = 4
_pPacket$ = 16						; size = 4
_wMsgID$ = 20						; size = 2
?RelayCorpsMsg@CTServer@@QAEXKKPAVCPacket@@G@Z PROC NEAR ; CTServer::RelayCorpsMsg, COMDAT
; _this$ = ecx

; 7    : {

  00000	6a ff		 push	 -1
  00002	68 00 00 00 00	 push	 __ehhandler$?RelayCorpsMsg@CTServer@@QAEXKKPAVCPacket@@G@Z
  00007	64 a1 00 00 00
	00		 mov	 eax, DWORD PTR fs:__except_list
  0000d	50		 push	 eax
  0000e	64 89 25 00 00
	00 00		 mov	 DWORD PTR fs:__except_list, esp
  00015	51		 push	 ecx
  00016	56		 push	 esi
  00017	57		 push	 edi

; 8    : 	CPacket *pMSG = new CPacket();

  00018	6a 1c		 push	 28			; 0000001cH
  0001a	8b f9		 mov	 edi, ecx
  0001c	e8 00 00 00 00	 call	 ??2@YAPAXI@Z		; operator new
  00021	83 c4 04	 add	 esp, 4
  00024	89 44 24 08	 mov	 DWORD PTR $T131757[esp+24], eax
  00028	85 c0		 test	 eax, eax
  0002a	c7 44 24 14 00
	00 00 00	 mov	 DWORD PTR __$EHRec$[esp+32], 0
  00032	74 0b		 je	 SHORT $L131758
  00034	8b c8		 mov	 ecx, eax
  00036	e8 00 00 00 00	 call	 ??0CPacket@@QAE@XZ	; CPacket::CPacket
  0003b	8b f0		 mov	 esi, eax
  0003d	eb 02		 jmp	 SHORT $L131759
$L131758:
  0003f	33 f6		 xor	 esi, esi
$L131759:

; 9    : 	pMSG->Copy(pPacket);

  00041	8b 44 24 24	 mov	 eax, DWORD PTR _pPacket$[esp+20]
  00045	50		 push	 eax
  00046	8b ce		 mov	 ecx, esi
  00048	c7 44 24 18 ff
	ff ff ff	 mov	 DWORD PTR __$EHRec$[esp+36], -1
  00050	e8 00 00 00 00	 call	 ?Copy@CPacket@@QAEXPAV1@@Z ; CPacket::Copy

; 10   : 	pMSG->SetID(wMsgID);

  00055	8b 4c 24 28	 mov	 ecx, DWORD PTR _wMsgID$[esp+20]
  00059	51		 push	 ecx
  0005a	8b ce		 mov	 ecx, esi
  0005c	e8 00 00 00 00	 call	 ?SetID@CPacket@@QAEAAV1@G@Z ; CPacket::SetID

; 11   : 	pMSG->Rewind(FALSE);

  00061	6a 00		 push	 0
  00063	8b ce		 mov	 ecx, esi
  00065	e8 00 00 00 00	 call	 ?Rewind@CPacket@@QAEXH@Z ; CPacket::Rewind

; 12   : 
; 13   : 	(*pMSG)
; 14   : 		<< dwCharID
; 15   : 		<< dwKey;

  0006a	8b 54 24 20	 mov	 edx, DWORD PTR _dwKey$[esp+20]
  0006e	8b 44 24 1c	 mov	 eax, DWORD PTR _dwCharID$[esp+20]
  00072	52		 push	 edx
  00073	50		 push	 eax
  00074	8b ce		 mov	 ecx, esi
  00076	e8 00 00 00 00	 call	 ??6CPacket@@QAEAAV0@K@Z	; CPacket::operator<<
  0007b	8b c8		 mov	 ecx, eax
  0007d	e8 00 00 00 00	 call	 ??6CPacket@@QAEAAV0@K@Z	; CPacket::operator<<

; 16   : 
; 17   : 	Say(pMSG);

  00082	8b 17		 mov	 edx, DWORD PTR [edi]
  00084	56		 push	 esi
  00085	8b cf		 mov	 ecx, edi
  00087	ff 12		 call	 DWORD PTR [edx]

; 18   : }

  00089	8b 4c 24 0c	 mov	 ecx, DWORD PTR __$EHRec$[esp+24]
  0008d	5f		 pop	 edi
  0008e	5e		 pop	 esi
  0008f	64 89 0d 00 00
	00 00		 mov	 DWORD PTR fs:__except_list, ecx
  00096	83 c4 10	 add	 esp, 16			; 00000010H
  00099	c2 10 00	 ret	 16			; 00000010H
_TEXT	ENDS
;	COMDAT text$x
text$x	SEGMENT
$L131760:
  00000	8b 45 f0	 mov	 eax, DWORD PTR $T131757[ebp]
  00003	50		 push	 eax
  00004	e8 00 00 00 00	 call	 ??3@YAXPAX@Z		; operator delete
  00009	59		 pop	 ecx
  0000a	c3		 ret	 0
__ehhandler$?RelayCorpsMsg@CTServer@@QAEXKKPAVCPacket@@G@Z:
  0000b	b8 00 00 00 00	 mov	 eax, OFFSET FLAT:$T131764
  00010	e9 00 00 00 00	 jmp	 ___CxxFrameHandler
text$x	ENDS
?RelayCorpsMsg@CTServer@@QAEXKKPAVCPacket@@G@Z ENDP	; CTServer::RelayCorpsMsg
PUBLIC	?SendCT_SERVICEMONITOR_REQ@CTServer@@QAEXKKKK@Z	; CTServer::SendCT_SERVICEMONITOR_REQ
;	COMDAT xdata$x
xdata$x	SEGMENT
$T131784 DD	0ffffffffH
	DD	FLAT:$L131780
$T131782 DD	019930520H
	DD	01H
	DD	FLAT:$T131784
	DD	2 DUP(00H)
	DD	2 DUP(00H)
; Function compile flags: /Ogty
xdata$x	ENDS
;	COMDAT ?SendCT_SERVICEMONITOR_REQ@CTServer@@QAEXKKKK@Z
_TEXT	SEGMENT
$T131777 = -16						; size = 4
__$EHRec$ = -12						; size = 12
_dwTick$ = 8						; size = 4
_dwSession$ = 12					; size = 4
_dwUser$ = 16						; size = 4
_dwActiveUser$ = 20					; size = 4
?SendCT_SERVICEMONITOR_REQ@CTServer@@QAEXKKKK@Z PROC NEAR ; CTServer::SendCT_SERVICEMONITOR_REQ, COMDAT
; _this$ = ecx

; 24   : {

  00000	6a ff		 push	 -1
  00002	68 00 00 00 00	 push	 __ehhandler$?SendCT_SERVICEMONITOR_REQ@CTServer@@QAEXKKKK@Z
  00007	64 a1 00 00 00
	00		 mov	 eax, DWORD PTR fs:__except_list
  0000d	50		 push	 eax
  0000e	64 89 25 00 00
	00 00		 mov	 DWORD PTR fs:__except_list, esp
  00015	51		 push	 ecx
  00016	56		 push	 esi
  00017	57		 push	 edi

; 25   : 	CPacket *pMSG = new CPacket();

  00018	6a 1c		 push	 28			; 0000001cH
  0001a	8b f9		 mov	 edi, ecx
  0001c	e8 00 00 00 00	 call	 ??2@YAPAXI@Z		; operator new
  00021	83 c4 04	 add	 esp, 4
  00024	89 44 24 08	 mov	 DWORD PTR $T131777[esp+24], eax
  00028	33 f6		 xor	 esi, esi
  0002a	3b c6		 cmp	 eax, esi
  0002c	89 74 24 14	 mov	 DWORD PTR __$EHRec$[esp+32], esi
  00030	74 09		 je	 SHORT $L131779
  00032	8b c8		 mov	 ecx, eax
  00034	e8 00 00 00 00	 call	 ??0CPacket@@QAE@XZ	; CPacket::CPacket
  00039	8b f0		 mov	 esi, eax
$L131779:

; 26   : 
; 27   : 	pMSG->SetID(CT_SERVICEMONITOR_REQ)
; 28   : 		<< dwTick
; 29   : 		<< dwSession
; 30   : 		<< dwUser
; 31   : 		<< dwActiveUser;

  0003b	8b 44 24 28	 mov	 eax, DWORD PTR _dwActiveUser$[esp+20]
  0003f	8b 4c 24 24	 mov	 ecx, DWORD PTR _dwUser$[esp+20]
  00043	8b 54 24 20	 mov	 edx, DWORD PTR _dwSession$[esp+20]
  00047	50		 push	 eax
  00048	8b 44 24 20	 mov	 eax, DWORD PTR _dwTick$[esp+24]
  0004c	51		 push	 ecx
  0004d	52		 push	 edx
  0004e	50		 push	 eax
  0004f	68 1d 60 00 00	 push	 24605			; 0000601dH
  00054	8b ce		 mov	 ecx, esi
  00056	c7 44 24 28 ff
	ff ff ff	 mov	 DWORD PTR __$EHRec$[esp+52], -1
  0005e	e8 00 00 00 00	 call	 ?SetID@CPacket@@QAEAAV1@G@Z ; CPacket::SetID
  00063	8b c8		 mov	 ecx, eax
  00065	e8 00 00 00 00	 call	 ??6CPacket@@QAEAAV0@K@Z	; CPacket::operator<<
  0006a	8b c8		 mov	 ecx, eax
  0006c	e8 00 00 00 00	 call	 ??6CPacket@@QAEAAV0@K@Z	; CPacket::operator<<
  00071	8b c8		 mov	 ecx, eax
  00073	e8 00 00 00 00	 call	 ??6CPacket@@QAEAAV0@K@Z	; CPacket::operator<<
  00078	8b c8		 mov	 ecx, eax
  0007a	e8 00 00 00 00	 call	 ??6CPacket@@QAEAAV0@K@Z	; CPacket::operator<<

; 32   : 
; 33   : 	Say(pMSG);

  0007f	8b 17		 mov	 edx, DWORD PTR [edi]
  00081	56		 push	 esi
  00082	8b cf		 mov	 ecx, edi
  00084	ff 12		 call	 DWORD PTR [edx]

; 34   : }

  00086	8b 4c 24 0c	 mov	 ecx, DWORD PTR __$EHRec$[esp+24]
  0008a	5f		 pop	 edi
  0008b	5e		 pop	 esi
  0008c	64 89 0d 00 00
	00 00		 mov	 DWORD PTR fs:__except_list, ecx
  00093	83 c4 10	 add	 esp, 16			; 00000010H
  00096	c2 10 00	 ret	 16			; 00000010H
_TEXT	ENDS
;	COMDAT text$x
text$x	SEGMENT
$L131780:
  00000	8b 45 f0	 mov	 eax, DWORD PTR $T131777[ebp]
  00003	50		 push	 eax
  00004	e8 00 00 00 00	 call	 ??3@YAXPAX@Z		; operator delete
  00009	59		 pop	 ecx
  0000a	c3		 ret	 0
__ehhandler$?SendCT_SERVICEMONITOR_REQ@CTServer@@QAEXKKKK@Z:
  0000b	b8 00 00 00 00	 mov	 eax, OFFSET FLAT:$T131782
  00010	e9 00 00 00 00	 jmp	 ___CxxFrameHandler
text$x	ENDS
?SendCT_SERVICEMONITOR_REQ@CTServer@@QAEXKKKK@Z ENDP	; CTServer::SendCT_SERVICEMONITOR_REQ
PUBLIC	?SendCT_USERMOVE_ACK@CTServer@@QAEXKKEGMMMG@Z	; CTServer::SendCT_USERMOVE_ACK
EXTRN	__fltused:NEAR
EXTRN	??6CPacket@@QAEAAV0@G@Z:NEAR			; CPacket::operator<<
EXTRN	??6CPacket@@QAEAAV0@E@Z:NEAR			; CPacket::operator<<
EXTRN	??6CPacket@@QAEAAV0@M@Z:NEAR			; CPacket::operator<<
;	COMDAT xdata$x
xdata$x	SEGMENT
$T131799 DD	0ffffffffH
	DD	FLAT:$L131794
$T131796 DD	019930520H
	DD	01H
	DD	FLAT:$T131799
	DD	2 DUP(00H)
	DD	2 DUP(00H)
; Function compile flags: /Ogty
xdata$x	ENDS
;	COMDAT ?SendCT_USERMOVE_ACK@CTServer@@QAEXKKEGMMMG@Z
_TEXT	SEGMENT
$T131791 = -16						; size = 4
__$EHRec$ = -12						; size = 12
_dwCharID$ = 8						; size = 4
_dwKEY$ = 12						; size = 4
_bChannel$ = 16						; size = 1
_wMapID$ = 20						; size = 2
_fPosX$ = 24						; size = 4
_fPosY$ = 28						; size = 4
_fPosZ$ = 32						; size = 4
_wPartyID$ = 36						; size = 2
?SendCT_USERMOVE_ACK@CTServer@@QAEXKKEGMMMG@Z PROC NEAR	; CTServer::SendCT_USERMOVE_ACK, COMDAT
; _this$ = ecx

; 44   : {

  00000	6a ff		 push	 -1
  00002	68 00 00 00 00	 push	 __ehhandler$?SendCT_USERMOVE_ACK@CTServer@@QAEXKKEGMMMG@Z
  00007	64 a1 00 00 00
	00		 mov	 eax, DWORD PTR fs:__except_list
  0000d	50		 push	 eax
  0000e	64 89 25 00 00
	00 00		 mov	 DWORD PTR fs:__except_list, esp
  00015	51		 push	 ecx
  00016	56		 push	 esi
  00017	57		 push	 edi

; 45   : 	CPacket *pMSG = new CPacket();

  00018	6a 1c		 push	 28			; 0000001cH
  0001a	8b f9		 mov	 edi, ecx
  0001c	e8 00 00 00 00	 call	 ??2@YAPAXI@Z		; operator new
  00021	83 c4 04	 add	 esp, 4
  00024	89 44 24 08	 mov	 DWORD PTR $T131791[esp+24], eax
  00028	33 f6		 xor	 esi, esi
  0002a	3b c6		 cmp	 eax, esi
  0002c	89 74 24 14	 mov	 DWORD PTR __$EHRec$[esp+32], esi
  00030	74 09		 je	 SHORT $L131793
  00032	8b c8		 mov	 ecx, eax
  00034	e8 00 00 00 00	 call	 ??0CPacket@@QAE@XZ	; CPacket::CPacket
  00039	8b f0		 mov	 esi, eax
$L131793:

; 46   : 
; 47   : 	pMSG->SetID(CT_USERMOVE_ACK)
; 48   : 		<< dwCharID
; 49   : 		<< dwKEY
; 50   : 		<< bChannel
; 51   : 		<< wMapID
; 52   : 		<< fPosX
; 53   : 		<< fPosY
; 54   : 		<< fPosZ
; 55   : 		<< wPartyID;

  0003b	8b 44 24 38	 mov	 eax, DWORD PTR _wPartyID$[esp+20]
  0003f	8b 4c 24 34	 mov	 ecx, DWORD PTR _fPosZ$[esp+20]
  00043	8b 54 24 30	 mov	 edx, DWORD PTR _fPosY$[esp+20]
  00047	50		 push	 eax
  00048	8b 44 24 30	 mov	 eax, DWORD PTR _fPosX$[esp+24]
  0004c	51		 push	 ecx
  0004d	8b 4c 24 30	 mov	 ecx, DWORD PTR _wMapID$[esp+28]
  00051	52		 push	 edx
  00052	8b 54 24 30	 mov	 edx, DWORD PTR _bChannel$[esp+32]
  00056	50		 push	 eax
  00057	8b 44 24 30	 mov	 eax, DWORD PTR _dwKEY$[esp+36]
  0005b	51		 push	 ecx
  0005c	8b 4c 24 30	 mov	 ecx, DWORD PTR _dwCharID$[esp+40]
  00060	52		 push	 edx
  00061	50		 push	 eax
  00062	51		 push	 ecx
  00063	68 2e 60 00 00	 push	 24622			; 0000602eH
  00068	8b ce		 mov	 ecx, esi
  0006a	c7 44 24 38 ff
	ff ff ff	 mov	 DWORD PTR __$EHRec$[esp+68], -1
  00072	e8 00 00 00 00	 call	 ?SetID@CPacket@@QAEAAV1@G@Z ; CPacket::SetID
  00077	8b c8		 mov	 ecx, eax
  00079	e8 00 00 00 00	 call	 ??6CPacket@@QAEAAV0@K@Z	; CPacket::operator<<
  0007e	8b c8		 mov	 ecx, eax
  00080	e8 00 00 00 00	 call	 ??6CPacket@@QAEAAV0@K@Z	; CPacket::operator<<
  00085	8b c8		 mov	 ecx, eax
  00087	e8 00 00 00 00	 call	 ??6CPacket@@QAEAAV0@E@Z	; CPacket::operator<<
  0008c	8b c8		 mov	 ecx, eax
  0008e	e8 00 00 00 00	 call	 ??6CPacket@@QAEAAV0@G@Z	; CPacket::operator<<
  00093	8b c8		 mov	 ecx, eax
  00095	e8 00 00 00 00	 call	 ??6CPacket@@QAEAAV0@M@Z	; CPacket::operator<<
  0009a	8b c8		 mov	 ecx, eax
  0009c	e8 00 00 00 00	 call	 ??6CPacket@@QAEAAV0@M@Z	; CPacket::operator<<
  000a1	8b c8		 mov	 ecx, eax
  000a3	e8 00 00 00 00	 call	 ??6CPacket@@QAEAAV0@M@Z	; CPacket::operator<<
  000a8	8b c8		 mov	 ecx, eax
  000aa	e8 00 00 00 00	 call	 ??6CPacket@@QAEAAV0@G@Z	; CPacket::operator<<

; 56   : 
; 57   : 	Say(pMSG);

  000af	8b 17		 mov	 edx, DWORD PTR [edi]
  000b1	56		 push	 esi
  000b2	8b cf		 mov	 ecx, edi
  000b4	ff 12		 call	 DWORD PTR [edx]

; 58   : }

  000b6	8b 4c 24 0c	 mov	 ecx, DWORD PTR __$EHRec$[esp+24]
  000ba	5f		 pop	 edi
  000bb	5e		 pop	 esi
  000bc	64 89 0d 00 00
	00 00		 mov	 DWORD PTR fs:__except_list, ecx
  000c3	83 c4 10	 add	 esp, 16			; 00000010H
  000c6	c2 20 00	 ret	 32			; 00000020H
_TEXT	ENDS
;	COMDAT text$x
text$x	SEGMENT
$L131794:
  00000	8b 45 f0	 mov	 eax, DWORD PTR $T131791[ebp]
  00003	50		 push	 eax
  00004	e8 00 00 00 00	 call	 ??3@YAXPAX@Z		; operator delete
  00009	59		 pop	 ecx
  0000a	c3		 ret	 0
__ehhandler$?SendCT_USERMOVE_ACK@CTServer@@QAEXKKEGMMMG@Z:
  0000b	b8 00 00 00 00	 mov	 eax, OFFSET FLAT:$T131796
  00010	e9 00 00 00 00	 jmp	 ___CxxFrameHandler
text$x	ENDS
?SendCT_USERMOVE_ACK@CTServer@@QAEXKKEGMMMG@Z ENDP	; CTServer::SendCT_USERMOVE_ACK
PUBLIC	?SendCT_CASHITEMSALE_ACK@CTServer@@QAEXKG@Z	; CTServer::SendCT_CASHITEMSALE_ACK
;	COMDAT xdata$x
xdata$x	SEGMENT
$T131813 DD	0ffffffffH
	DD	FLAT:$L131809
$T131811 DD	019930520H
	DD	01H
	DD	FLAT:$T131813
	DD	2 DUP(00H)
	DD	2 DUP(00H)
; Function compile flags: /Ogty
xdata$x	ENDS
;	COMDAT ?SendCT_CASHITEMSALE_ACK@CTServer@@QAEXKG@Z
_TEXT	SEGMENT
$T131806 = -16						; size = 4
__$EHRec$ = -12						; size = 12
_dwIndex$ = 8						; size = 4
_wValue$ = 12						; size = 2
?SendCT_CASHITEMSALE_ACK@CTServer@@QAEXKG@Z PROC NEAR	; CTServer::SendCT_CASHITEMSALE_ACK, COMDAT
; _this$ = ecx

; 63   : {

  00000	6a ff		 push	 -1
  00002	68 00 00 00 00	 push	 __ehhandler$?SendCT_CASHITEMSALE_ACK@CTServer@@QAEXKG@Z
  00007	64 a1 00 00 00
	00		 mov	 eax, DWORD PTR fs:__except_list
  0000d	50		 push	 eax
  0000e	64 89 25 00 00
	00 00		 mov	 DWORD PTR fs:__except_list, esp
  00015	51		 push	 ecx
  00016	56		 push	 esi
  00017	57		 push	 edi

; 64   : 	CPacket *pMSG = new CPacket();

  00018	6a 1c		 push	 28			; 0000001cH
  0001a	8b f9		 mov	 edi, ecx
  0001c	e8 00 00 00 00	 call	 ??2@YAPAXI@Z		; operator new
  00021	83 c4 04	 add	 esp, 4
  00024	89 44 24 08	 mov	 DWORD PTR $T131806[esp+24], eax
  00028	33 f6		 xor	 esi, esi
  0002a	3b c6		 cmp	 eax, esi
  0002c	89 74 24 14	 mov	 DWORD PTR __$EHRec$[esp+32], esi
  00030	74 09		 je	 SHORT $L131808
  00032	8b c8		 mov	 ecx, eax
  00034	e8 00 00 00 00	 call	 ??0CPacket@@QAE@XZ	; CPacket::CPacket
  00039	8b f0		 mov	 esi, eax
$L131808:

; 65   : 	pMSG->SetID(CT_CASHITEMSALE_ACK)
; 66   : 		<< dwIndex
; 67   : 		<< wValue;

  0003b	8b 44 24 20	 mov	 eax, DWORD PTR _wValue$[esp+20]
  0003f	8b 4c 24 1c	 mov	 ecx, DWORD PTR _dwIndex$[esp+20]
  00043	50		 push	 eax
  00044	51		 push	 ecx
  00045	68 6a 60 00 00	 push	 24682			; 0000606aH
  0004a	8b ce		 mov	 ecx, esi
  0004c	c7 44 24 20 ff
	ff ff ff	 mov	 DWORD PTR __$EHRec$[esp+44], -1
  00054	e8 00 00 00 00	 call	 ?SetID@CPacket@@QAEAAV1@G@Z ; CPacket::SetID
  00059	8b c8		 mov	 ecx, eax
  0005b	e8 00 00 00 00	 call	 ??6CPacket@@QAEAAV0@K@Z	; CPacket::operator<<
  00060	8b c8		 mov	 ecx, eax
  00062	e8 00 00 00 00	 call	 ??6CPacket@@QAEAAV0@G@Z	; CPacket::operator<<

; 68   : 
; 69   : 	Say(pMSG);

  00067	8b 17		 mov	 edx, DWORD PTR [edi]
  00069	56		 push	 esi
  0006a	8b cf		 mov	 ecx, edi
  0006c	ff 12		 call	 DWORD PTR [edx]

; 70   : }

  0006e	8b 4c 24 0c	 mov	 ecx, DWORD PTR __$EHRec$[esp+24]
  00072	5f		 pop	 edi
  00073	5e		 pop	 esi
  00074	64 89 0d 00 00
	00 00		 mov	 DWORD PTR fs:__except_list, ecx
  0007b	83 c4 10	 add	 esp, 16			; 00000010H
  0007e	c2 08 00	 ret	 8
_TEXT	ENDS
;	COMDAT text$x
text$x	SEGMENT
$L131809:
  00000	8b 45 f0	 mov	 eax, DWORD PTR $T131806[ebp]
  00003	50		 push	 eax
  00004	e8 00 00 00 00	 call	 ??3@YAXPAX@Z		; operator delete
  00009	59		 pop	 ecx
  0000a	c3		 ret	 0
__ehhandler$?SendCT_CASHITEMSALE_ACK@CTServer@@QAEXKG@Z:
  0000b	b8 00 00 00 00	 mov	 eax, OFFSET FLAT:$T131811
  00010	e9 00 00 00 00	 jmp	 ___CxxFrameHandler
text$x	ENDS
?SendCT_CASHITEMSALE_ACK@CTServer@@QAEXKG@Z ENDP	; CTServer::SendCT_CASHITEMSALE_ACK
PUBLIC	?SendMW_ENTERSVR_REQ@CTServer@@QAEXEKK@Z	; CTServer::SendMW_ENTERSVR_REQ
;	COMDAT xdata$x
xdata$x	SEGMENT
$T131827 DD	0ffffffffH
	DD	FLAT:$L131823
$T131825 DD	019930520H
	DD	01H
	DD	FLAT:$T131827
	DD	2 DUP(00H)
	DD	2 DUP(00H)
; Function compile flags: /Ogty
xdata$x	ENDS
;	COMDAT ?SendMW_ENTERSVR_REQ@CTServer@@QAEXEKK@Z
_TEXT	SEGMENT
$T131820 = -16						; size = 4
__$EHRec$ = -12						; size = 12
_bDBLoad$ = 8						; size = 1
_dwCharID$ = 12						; size = 4
_dwKEY$ = 16						; size = 4
?SendMW_ENTERSVR_REQ@CTServer@@QAEXEKK@Z PROC NEAR	; CTServer::SendMW_ENTERSVR_REQ, COMDAT
; _this$ = ecx

; 130  : {

  00000	6a ff		 push	 -1
  00002	68 00 00 00 00	 push	 __ehhandler$?SendMW_ENTERSVR_REQ@CTServer@@QAEXEKK@Z
  00007	64 a1 00 00 00
	00		 mov	 eax, DWORD PTR fs:__except_list
  0000d	50		 push	 eax
  0000e	64 89 25 00 00
	00 00		 mov	 DWORD PTR fs:__except_list, esp
  00015	51		 push	 ecx
  00016	56		 push	 esi
  00017	57		 push	 edi

; 131  : 	CPacket *pMSG = new CPacket();

  00018	6a 1c		 push	 28			; 0000001cH
  0001a	8b f9		 mov	 edi, ecx
  0001c	e8 00 00 00 00	 call	 ??2@YAPAXI@Z		; operator new
  00021	83 c4 04	 add	 esp, 4
  00024	89 44 24 08	 mov	 DWORD PTR $T131820[esp+24], eax
  00028	33 f6		 xor	 esi, esi
  0002a	3b c6		 cmp	 eax, esi
  0002c	89 74 24 14	 mov	 DWORD PTR __$EHRec$[esp+32], esi
  00030	74 09		 je	 SHORT $L131822
  00032	8b c8		 mov	 ecx, eax
  00034	e8 00 00 00 00	 call	 ??0CPacket@@QAE@XZ	; CPacket::CPacket
  00039	8b f0		 mov	 esi, eax
$L131822:

; 132  : 
; 133  : 	pMSG->SetID(MW_ENTERSVR_REQ)
; 134  : 		<< bDBLoad
; 135  : 		<< dwCharID
; 136  : 		<< dwKEY;

  0003b	8b 44 24 24	 mov	 eax, DWORD PTR _dwKEY$[esp+20]
  0003f	8b 4c 24 20	 mov	 ecx, DWORD PTR _dwCharID$[esp+20]
  00043	8b 54 24 1c	 mov	 edx, DWORD PTR _bDBLoad$[esp+20]
  00047	50		 push	 eax
  00048	51		 push	 ecx
  00049	52		 push	 edx
  0004a	68 07 20 00 00	 push	 8199			; 00002007H
  0004f	8b ce		 mov	 ecx, esi
  00051	c7 44 24 24 ff
	ff ff ff	 mov	 DWORD PTR __$EHRec$[esp+48], -1
  00059	e8 00 00 00 00	 call	 ?SetID@CPacket@@QAEAAV1@G@Z ; CPacket::SetID
  0005e	8b c8		 mov	 ecx, eax
  00060	e8 00 00 00 00	 call	 ??6CPacket@@QAEAAV0@E@Z	; CPacket::operator<<
  00065	8b c8		 mov	 ecx, eax
  00067	e8 00 00 00 00	 call	 ??6CPacket@@QAEAAV0@K@Z	; CPacket::operator<<
  0006c	8b c8		 mov	 ecx, eax
  0006e	e8 00 00 00 00	 call	 ??6CPacket@@QAEAAV0@K@Z	; CPacket::operator<<

; 137  : 
; 138  : 	Say(pMSG);

  00073	8b 07		 mov	 eax, DWORD PTR [edi]
  00075	56		 push	 esi
  00076	8b cf		 mov	 ecx, edi
  00078	ff 10		 call	 DWORD PTR [eax]

; 139  : }

  0007a	8b 4c 24 0c	 mov	 ecx, DWORD PTR __$EHRec$[esp+24]
  0007e	5f		 pop	 edi
  0007f	5e		 pop	 esi
  00080	64 89 0d 00 00
	00 00		 mov	 DWORD PTR fs:__except_list, ecx
  00087	83 c4 10	 add	 esp, 16			; 00000010H
  0008a	c2 0c 00	 ret	 12			; 0000000cH
_TEXT	ENDS
;	COMDAT text$x
text$x	SEGMENT
$L131823:
  00000	8b 45 f0	 mov	 eax, DWORD PTR $T131820[ebp]
  00003	50		 push	 eax
  00004	e8 00 00 00 00	 call	 ??3@YAXPAX@Z		; operator delete
  00009	59		 pop	 ecx
  0000a	c3		 ret	 0
__ehhandler$?SendMW_ENTERSVR_REQ@CTServer@@QAEXEKK@Z:
  0000b	b8 00 00 00 00	 mov	 eax, OFFSET FLAT:$T131825
  00010	e9 00 00 00 00	 jmp	 ___CxxFrameHandler
text$x	ENDS
?SendMW_ENTERSVR_REQ@CTServer@@QAEXEKK@Z ENDP		; CTServer::SendMW_ENTERSVR_REQ
PUBLIC	?SendMW_ENTERSVR_REQ@CTServer@@QAEXPAUtagPACKETBUF@@@Z ; CTServer::SendMW_ENTERSVR_REQ
;	COMDAT xdata$x
xdata$x	SEGMENT
$T131841 DD	0ffffffffH
	DD	FLAT:$L131837
$T131839 DD	019930520H
	DD	01H
	DD	FLAT:$T131841
	DD	2 DUP(00H)
	DD	2 DUP(00H)
; Function compile flags: /Ogty
xdata$x	ENDS
;	COMDAT ?SendMW_ENTERSVR_REQ@CTServer@@QAEXPAUtagPACKETBUF@@@Z
_TEXT	SEGMENT
$T131834 = -16						; size = 4
__$EHRec$ = -12						; size = 12
_pBUF$ = 8						; size = 4
?SendMW_ENTERSVR_REQ@CTServer@@QAEXPAUtagPACKETBUF@@@Z PROC NEAR ; CTServer::SendMW_ENTERSVR_REQ, COMDAT
; _this$ = ecx

; 142  : {

  00000	6a ff		 push	 -1
  00002	68 00 00 00 00	 push	 __ehhandler$?SendMW_ENTERSVR_REQ@CTServer@@QAEXPAUtagPACKETBUF@@@Z
  00007	64 a1 00 00 00
	00		 mov	 eax, DWORD PTR fs:__except_list
  0000d	50		 push	 eax
  0000e	64 89 25 00 00
	00 00		 mov	 DWORD PTR fs:__except_list, esp
  00015	51		 push	 ecx
  00016	56		 push	 esi
  00017	57		 push	 edi

; 143  : 	CPacket *pMSG = new CPacket();

  00018	6a 1c		 push	 28			; 0000001cH
  0001a	8b f9		 mov	 edi, ecx
  0001c	e8 00 00 00 00	 call	 ??2@YAPAXI@Z		; operator new
  00021	83 c4 04	 add	 esp, 4
  00024	89 44 24 08	 mov	 DWORD PTR $T131834[esp+24], eax
  00028	33 f6		 xor	 esi, esi
  0002a	3b c6		 cmp	 eax, esi
  0002c	89 74 24 14	 mov	 DWORD PTR __$EHRec$[esp+32], esi
  00030	74 09		 je	 SHORT $L131836
  00032	8b c8		 mov	 ecx, eax
  00034	e8 00 00 00 00	 call	 ??0CPacket@@QAE@XZ	; CPacket::CPacket
  00039	8b f0		 mov	 esi, eax
$L131836:

; 144  : 
; 145  : 	pMSG->Copy(&pBUF->m_packet);

  0003b	8b 44 24 1c	 mov	 eax, DWORD PTR _pBUF$[esp+20]
  0003f	83 c0 04	 add	 eax, 4
  00042	50		 push	 eax
  00043	8b ce		 mov	 ecx, esi
  00045	c7 44 24 18 ff
	ff ff ff	 mov	 DWORD PTR __$EHRec$[esp+36], -1
  0004d	e8 00 00 00 00	 call	 ?Copy@CPacket@@QAEXPAV1@@Z ; CPacket::Copy

; 146  : 	pMSG->SetID(MW_ENTERSVR_REQ);

  00052	68 07 20 00 00	 push	 8199			; 00002007H
  00057	8b ce		 mov	 ecx, esi
  00059	e8 00 00 00 00	 call	 ?SetID@CPacket@@QAEAAV1@G@Z ; CPacket::SetID

; 147  : 
; 148  : 	Say(pMSG);

  0005e	8b 17		 mov	 edx, DWORD PTR [edi]
  00060	56		 push	 esi
  00061	8b cf		 mov	 ecx, edi
  00063	ff 12		 call	 DWORD PTR [edx]

; 149  : }

  00065	8b 4c 24 0c	 mov	 ecx, DWORD PTR __$EHRec$[esp+24]
  00069	5f		 pop	 edi
  0006a	5e		 pop	 esi
  0006b	64 89 0d 00 00
	00 00		 mov	 DWORD PTR fs:__except_list, ecx
  00072	83 c4 10	 add	 esp, 16			; 00000010H
  00075	c2 04 00	 ret	 4
_TEXT	ENDS
;	COMDAT text$x
text$x	SEGMENT
$L131837:
  00000	8b 45 f0	 mov	 eax, DWORD PTR $T131834[ebp]
  00003	50		 push	 eax
  00004	e8 00 00 00 00	 call	 ??3@YAXPAX@Z		; operator delete
  00009	59		 pop	 ecx
  0000a	c3		 ret	 0
__ehhandler$?SendMW_ENTERSVR_REQ@CTServer@@QAEXPAUtagPACKETBUF@@@Z:
  0000b	b8 00 00 00 00	 mov	 eax, OFFSET FLAT:$T131839
  00010	e9 00 00 00 00	 jmp	 ___CxxFrameHandler
text$x	ENDS
?SendMW_ENTERSVR_REQ@CTServer@@QAEXPAUtagPACKETBUF@@@Z ENDP ; CTServer::SendMW_ENTERSVR_REQ
PUBLIC	?SendMW_RELEASEMAIN_REQ@CTServer@@QAEXKKEGMMM@Z	; CTServer::SendMW_RELEASEMAIN_REQ
;	COMDAT xdata$x
xdata$x	SEGMENT
$T131855 DD	0ffffffffH
	DD	FLAT:$L131851
$T131853 DD	019930520H
	DD	01H
	DD	FLAT:$T131855
	DD	2 DUP(00H)
	DD	2 DUP(00H)
; Function compile flags: /Ogty
xdata$x	ENDS
;	COMDAT ?SendMW_RELEASEMAIN_REQ@CTServer@@QAEXKKEGMMM@Z
_TEXT	SEGMENT
$T131848 = -16						; size = 4
__$EHRec$ = -12						; size = 12
_dwCharID$ = 8						; size = 4
_dwKEY$ = 12						; size = 4
_bChannel$ = 16						; size = 1
_wMapID$ = 20						; size = 2
_fPosX$ = 24						; size = 4
_fPosY$ = 28						; size = 4
_fPosZ$ = 32						; size = 4
?SendMW_RELEASEMAIN_REQ@CTServer@@QAEXKKEGMMM@Z PROC NEAR ; CTServer::SendMW_RELEASEMAIN_REQ, COMDAT
; _this$ = ecx

; 158  : {

  00000	6a ff		 push	 -1
  00002	68 00 00 00 00	 push	 __ehhandler$?SendMW_RELEASEMAIN_REQ@CTServer@@QAEXKKEGMMM@Z
  00007	64 a1 00 00 00
	00		 mov	 eax, DWORD PTR fs:__except_list
  0000d	50		 push	 eax
  0000e	64 89 25 00 00
	00 00		 mov	 DWORD PTR fs:__except_list, esp
  00015	51		 push	 ecx
  00016	56		 push	 esi
  00017	57		 push	 edi

; 159  : 	CPacket *pMSG = new CPacket();

  00018	6a 1c		 push	 28			; 0000001cH
  0001a	8b f9		 mov	 edi, ecx
  0001c	e8 00 00 00 00	 call	 ??2@YAPAXI@Z		; operator new
  00021	83 c4 04	 add	 esp, 4
  00024	89 44 24 08	 mov	 DWORD PTR $T131848[esp+24], eax
  00028	33 f6		 xor	 esi, esi
  0002a	3b c6		 cmp	 eax, esi
  0002c	89 74 24 14	 mov	 DWORD PTR __$EHRec$[esp+32], esi
  00030	74 09		 je	 SHORT $L131850
  00032	8b c8		 mov	 ecx, eax
  00034	e8 00 00 00 00	 call	 ??0CPacket@@QAE@XZ	; CPacket::CPacket
  00039	8b f0		 mov	 esi, eax
$L131850:

; 160  : 
; 161  : 	pMSG->SetID(MW_RELEASEMAIN_REQ)
; 162  : 		<< dwCharID
; 163  : 		<< dwKEY
; 164  : 		<< bChannel
; 165  : 		<< wMapID
; 166  : 		<< fPosX
; 167  : 		<< fPosY
; 168  : 		<< fPosZ;

  0003b	8b 44 24 34	 mov	 eax, DWORD PTR _fPosZ$[esp+20]
  0003f	8b 4c 24 30	 mov	 ecx, DWORD PTR _fPosY$[esp+20]
  00043	8b 54 24 2c	 mov	 edx, DWORD PTR _fPosX$[esp+20]
  00047	50		 push	 eax
  00048	8b 44 24 2c	 mov	 eax, DWORD PTR _wMapID$[esp+24]
  0004c	51		 push	 ecx
  0004d	8b 4c 24 2c	 mov	 ecx, DWORD PTR _bChannel$[esp+28]
  00051	52		 push	 edx
  00052	8b 54 24 2c	 mov	 edx, DWORD PTR _dwKEY$[esp+32]
  00056	50		 push	 eax
  00057	8b 44 24 2c	 mov	 eax, DWORD PTR _dwCharID$[esp+36]
  0005b	51		 push	 ecx
  0005c	52		 push	 edx
  0005d	50		 push	 eax
  0005e	68 16 20 00 00	 push	 8214			; 00002016H
  00063	8b ce		 mov	 ecx, esi
  00065	c7 44 24 34 ff
	ff ff ff	 mov	 DWORD PTR __$EHRec$[esp+64], -1
  0006d	e8 00 00 00 00	 call	 ?SetID@CPacket@@QAEAAV1@G@Z ; CPacket::SetID
  00072	8b c8		 mov	 ecx, eax
  00074	e8 00 00 00 00	 call	 ??6CPacket@@QAEAAV0@K@Z	; CPacket::operator<<
  00079	8b c8		 mov	 ecx, eax
  0007b	e8 00 00 00 00	 call	 ??6CPacket@@QAEAAV0@K@Z	; CPacket::operator<<
  00080	8b c8		 mov	 ecx, eax
  00082	e8 00 00 00 00	 call	 ??6CPacket@@QAEAAV0@E@Z	; CPacket::operator<<
  00087	8b c8		 mov	 ecx, eax
  00089	e8 00 00 00 00	 call	 ??6CPacket@@QAEAAV0@G@Z	; CPacket::operator<<
  0008e	8b c8		 mov	 ecx, eax
  00090	e8 00 00 00 00	 call	 ??6CPacket@@QAEAAV0@M@Z	; CPacket::operator<<
  00095	8b c8		 mov	 ecx, eax
  00097	e8 00 00 00 00	 call	 ??6CPacket@@QAEAAV0@M@Z	; CPacket::operator<<
  0009c	8b c8		 mov	 ecx, eax
  0009e	e8 00 00 00 00	 call	 ??6CPacket@@QAEAAV0@M@Z	; CPacket::operator<<

; 169  : 
; 170  : 	Say(pMSG);

  000a3	8b 17		 mov	 edx, DWORD PTR [edi]
  000a5	56		 push	 esi
  000a6	8b cf		 mov	 ecx, edi
  000a8	ff 12		 call	 DWORD PTR [edx]

; 171  : }

  000aa	8b 4c 24 0c	 mov	 ecx, DWORD PTR __$EHRec$[esp+24]
  000ae	5f		 pop	 edi
  000af	5e		 pop	 esi
  000b0	64 89 0d 00 00
	00 00		 mov	 DWORD PTR fs:__except_list, ecx
  000b7	83 c4 10	 add	 esp, 16			; 00000010H
  000ba	c2 1c 00	 ret	 28			; 0000001cH
_TEXT	ENDS
;	COMDAT text$x
text$x	SEGMENT
$L131851:
  00000	8b 45 f0	 mov	 eax, DWORD PTR $T131848[ebp]
  00003	50		 push	 eax
  00004	e8 00 00 00 00	 call	 ??3@YAXPAX@Z		; operator delete
  00009	59		 pop	 ecx
  0000a	c3		 ret	 0
__ehhandler$?SendMW_RELEASEMAIN_REQ@CTServer@@QAEXKKEGMMM@Z:
  0000b	b8 00 00 00 00	 mov	 eax, OFFSET FLAT:$T131853
  00010	e9 00 00 00 00	 jmp	 ___CxxFrameHandler
text$x	ENDS
?SendMW_RELEASEMAIN_REQ@CTServer@@QAEXKKEGMMM@Z ENDP	; CTServer::SendMW_RELEASEMAIN_REQ
PUBLIC	?SendMW_MAPSVRLIST_REQ@CTServer@@QAEXKKEGMMM@Z	; CTServer::SendMW_MAPSVRLIST_REQ
;	COMDAT xdata$x
xdata$x	SEGMENT
$T131869 DD	0ffffffffH
	DD	FLAT:$L131865
$T131867 DD	019930520H
	DD	01H
	DD	FLAT:$T131869
	DD	2 DUP(00H)
	DD	2 DUP(00H)
; Function compile flags: /Ogty
xdata$x	ENDS
;	COMDAT ?SendMW_MAPSVRLIST_REQ@CTServer@@QAEXKKEGMMM@Z
_TEXT	SEGMENT
$T131862 = -16						; size = 4
__$EHRec$ = -12						; size = 12
_dwCharID$ = 8						; size = 4
_dwKEY$ = 12						; size = 4
_bChannel$ = 16						; size = 1
_wMapID$ = 20						; size = 2
_fPosX$ = 24						; size = 4
_fPosY$ = 28						; size = 4
_fPosZ$ = 32						; size = 4
?SendMW_MAPSVRLIST_REQ@CTServer@@QAEXKKEGMMM@Z PROC NEAR ; CTServer::SendMW_MAPSVRLIST_REQ, COMDAT
; _this$ = ecx

; 180  : {

  00000	6a ff		 push	 -1
  00002	68 00 00 00 00	 push	 __ehhandler$?SendMW_MAPSVRLIST_REQ@CTServer@@QAEXKKEGMMM@Z
  00007	64 a1 00 00 00
	00		 mov	 eax, DWORD PTR fs:__except_list
  0000d	50		 push	 eax
  0000e	64 89 25 00 00
	00 00		 mov	 DWORD PTR fs:__except_list, esp
  00015	51		 push	 ecx
  00016	56		 push	 esi
  00017	57		 push	 edi

; 181  : 	CPacket *pMSG = new CPacket();

  00018	6a 1c		 push	 28			; 0000001cH
  0001a	8b f9		 mov	 edi, ecx
  0001c	e8 00 00 00 00	 call	 ??2@YAPAXI@Z		; operator new
  00021	83 c4 04	 add	 esp, 4
  00024	89 44 24 08	 mov	 DWORD PTR $T131862[esp+24], eax
  00028	33 f6		 xor	 esi, esi
  0002a	3b c6		 cmp	 eax, esi
  0002c	89 74 24 14	 mov	 DWORD PTR __$EHRec$[esp+32], esi
  00030	74 09		 je	 SHORT $L131864
  00032	8b c8		 mov	 ecx, eax
  00034	e8 00 00 00 00	 call	 ??0CPacket@@QAE@XZ	; CPacket::CPacket
  00039	8b f0		 mov	 esi, eax
$L131864:

; 182  : 
; 183  : 	pMSG->SetID(MW_MAPSVRLIST_REQ)
; 184  : 		<< dwCharID
; 185  : 		<< dwKEY
; 186  : 		<< bChannel
; 187  : 		<< wMapID
; 188  : 		<< fPosX
; 189  : 		<< fPosY
; 190  : 		<< fPosZ;

  0003b	8b 44 24 34	 mov	 eax, DWORD PTR _fPosZ$[esp+20]
  0003f	8b 4c 24 30	 mov	 ecx, DWORD PTR _fPosY$[esp+20]
  00043	8b 54 24 2c	 mov	 edx, DWORD PTR _fPosX$[esp+20]
  00047	50		 push	 eax
  00048	8b 44 24 2c	 mov	 eax, DWORD PTR _wMapID$[esp+24]
  0004c	51		 push	 ecx
  0004d	8b 4c 24 2c	 mov	 ecx, DWORD PTR _bChannel$[esp+28]
  00051	52		 push	 edx
  00052	8b 54 24 2c	 mov	 edx, DWORD PTR _dwKEY$[esp+32]
  00056	50		 push	 eax
  00057	8b 44 24 2c	 mov	 eax, DWORD PTR _dwCharID$[esp+36]
  0005b	51		 push	 ecx
  0005c	52		 push	 edx
  0005d	50		 push	 eax
  0005e	68 12 20 00 00	 push	 8210			; 00002012H
  00063	8b ce		 mov	 ecx, esi
  00065	c7 44 24 34 ff
	ff ff ff	 mov	 DWORD PTR __$EHRec$[esp+64], -1
  0006d	e8 00 00 00 00	 call	 ?SetID@CPacket@@QAEAAV1@G@Z ; CPacket::SetID
  00072	8b c8		 mov	 ecx, eax
  00074	e8 00 00 00 00	 call	 ??6CPacket@@QAEAAV0@K@Z	; CPacket::operator<<
  00079	8b c8		 mov	 ecx, eax
  0007b	e8 00 00 00 00	 call	 ??6CPacket@@QAEAAV0@K@Z	; CPacket::operator<<
  00080	8b c8		 mov	 ecx, eax
  00082	e8 00 00 00 00	 call	 ??6CPacket@@QAEAAV0@E@Z	; CPacket::operator<<
  00087	8b c8		 mov	 ecx, eax
  00089	e8 00 00 00 00	 call	 ??6CPacket@@QAEAAV0@G@Z	; CPacket::operator<<
  0008e	8b c8		 mov	 ecx, eax
  00090	e8 00 00 00 00	 call	 ??6CPacket@@QAEAAV0@M@Z	; CPacket::operator<<
  00095	8b c8		 mov	 ecx, eax
  00097	e8 00 00 00 00	 call	 ??6CPacket@@QAEAAV0@M@Z	; CPacket::operator<<
  0009c	8b c8		 mov	 ecx, eax
  0009e	e8 00 00 00 00	 call	 ??6CPacket@@QAEAAV0@M@Z	; CPacket::operator<<

; 191  : 
; 192  : 	Say(pMSG);

  000a3	8b 17		 mov	 edx, DWORD PTR [edi]
  000a5	56		 push	 esi
  000a6	8b cf		 mov	 ecx, edi
  000a8	ff 12		 call	 DWORD PTR [edx]

; 193  : }

  000aa	8b 4c 24 0c	 mov	 ecx, DWORD PTR __$EHRec$[esp+24]
  000ae	5f		 pop	 edi
  000af	5e		 pop	 esi
  000b0	64 89 0d 00 00
	00 00		 mov	 DWORD PTR fs:__except_list, ecx
  000b7	83 c4 10	 add	 esp, 16			; 00000010H
  000ba	c2 1c 00	 ret	 28			; 0000001cH
_TEXT	ENDS
;	COMDAT text$x
text$x	SEGMENT
$L131865:
  00000	8b 45 f0	 mov	 eax, DWORD PTR $T131862[ebp]
  00003	50		 push	 eax
  00004	e8 00 00 00 00	 call	 ??3@YAXPAX@Z		; operator delete
  00009	59		 pop	 ecx
  0000a	c3		 ret	 0
__ehhandler$?SendMW_MAPSVRLIST_REQ@CTServer@@QAEXKKEGMMM@Z:
  0000b	b8 00 00 00 00	 mov	 eax, OFFSET FLAT:$T131867
  00010	e9 00 00 00 00	 jmp	 ___CxxFrameHandler
text$x	ENDS
?SendMW_MAPSVRLIST_REQ@CTServer@@QAEXKKEGMMM@Z ENDP	; CTServer::SendMW_MAPSVRLIST_REQ
PUBLIC	?SendMW_INVALIDCHAR_REQ@CTServer@@QAEXKKE@Z	; CTServer::SendMW_INVALIDCHAR_REQ
;	COMDAT xdata$x
xdata$x	SEGMENT
$T131883 DD	0ffffffffH
	DD	FLAT:$L131879
$T131881 DD	019930520H
	DD	01H
	DD	FLAT:$T131883
	DD	2 DUP(00H)
	DD	2 DUP(00H)
; Function compile flags: /Ogty
xdata$x	ENDS
;	COMDAT ?SendMW_INVALIDCHAR_REQ@CTServer@@QAEXKKE@Z
_TEXT	SEGMENT
$T131876 = -16						; size = 4
__$EHRec$ = -12						; size = 12
_dwCharID$ = 8						; size = 4
_dwKEY$ = 12						; size = 4
_bReleaseMain$ = 16					; size = 1
?SendMW_INVALIDCHAR_REQ@CTServer@@QAEXKKE@Z PROC NEAR	; CTServer::SendMW_INVALIDCHAR_REQ, COMDAT
; _this$ = ecx

; 198  : {

  00000	6a ff		 push	 -1
  00002	68 00 00 00 00	 push	 __ehhandler$?SendMW_INVALIDCHAR_REQ@CTServer@@QAEXKKE@Z
  00007	64 a1 00 00 00
	00		 mov	 eax, DWORD PTR fs:__except_list
  0000d	50		 push	 eax
  0000e	64 89 25 00 00
	00 00		 mov	 DWORD PTR fs:__except_list, esp
  00015	51		 push	 ecx
  00016	56		 push	 esi
  00017	57		 push	 edi

; 199  : 	CPacket *pMSG = new CPacket();

  00018	6a 1c		 push	 28			; 0000001cH
  0001a	8b f9		 mov	 edi, ecx
  0001c	e8 00 00 00 00	 call	 ??2@YAPAXI@Z		; operator new
  00021	83 c4 04	 add	 esp, 4
  00024	89 44 24 08	 mov	 DWORD PTR $T131876[esp+24], eax
  00028	33 f6		 xor	 esi, esi
  0002a	3b c6		 cmp	 eax, esi
  0002c	89 74 24 14	 mov	 DWORD PTR __$EHRec$[esp+32], esi
  00030	74 09		 je	 SHORT $L131878
  00032	8b c8		 mov	 ecx, eax
  00034	e8 00 00 00 00	 call	 ??0CPacket@@QAE@XZ	; CPacket::CPacket
  00039	8b f0		 mov	 esi, eax
$L131878:

; 200  : 
; 201  : 	pMSG->SetID(MW_INVALIDCHAR_REQ)
; 202  : 		<< dwCharID
; 203  : 		<< dwKEY
; 204  : 		<< bReleaseMain;

  0003b	8b 44 24 24	 mov	 eax, DWORD PTR _bReleaseMain$[esp+20]
  0003f	8b 4c 24 20	 mov	 ecx, DWORD PTR _dwKEY$[esp+20]
  00043	8b 54 24 1c	 mov	 edx, DWORD PTR _dwCharID$[esp+20]
  00047	50		 push	 eax
  00048	51		 push	 ecx
  00049	52		 push	 edx
  0004a	68 09 20 00 00	 push	 8201			; 00002009H
  0004f	8b ce		 mov	 ecx, esi
  00051	c7 44 24 24 ff
	ff ff ff	 mov	 DWORD PTR __$EHRec$[esp+48], -1
  00059	e8 00 00 00 00	 call	 ?SetID@CPacket@@QAEAAV1@G@Z ; CPacket::SetID
  0005e	8b c8		 mov	 ecx, eax
  00060	e8 00 00 00 00	 call	 ??6CPacket@@QAEAAV0@K@Z	; CPacket::operator<<
  00065	8b c8		 mov	 ecx, eax
  00067	e8 00 00 00 00	 call	 ??6CPacket@@QAEAAV0@K@Z	; CPacket::operator<<
  0006c	8b c8		 mov	 ecx, eax
  0006e	e8 00 00 00 00	 call	 ??6CPacket@@QAEAAV0@E@Z	; CPacket::operator<<

; 205  : 
; 206  : 	Say(pMSG);

  00073	8b 07		 mov	 eax, DWORD PTR [edi]
  00075	56		 push	 esi
  00076	8b cf		 mov	 ecx, edi
  00078	ff 10		 call	 DWORD PTR [eax]

; 207  : }

  0007a	8b 4c 24 0c	 mov	 ecx, DWORD PTR __$EHRec$[esp+24]
  0007e	5f		 pop	 edi
  0007f	5e		 pop	 esi
  00080	64 89 0d 00 00
	00 00		 mov	 DWORD PTR fs:__except_list, ecx
  00087	83 c4 10	 add	 esp, 16			; 00000010H
  0008a	c2 0c 00	 ret	 12			; 0000000cH
_TEXT	ENDS
;	COMDAT text$x
text$x	SEGMENT
$L131879:
  00000	8b 45 f0	 mov	 eax, DWORD PTR $T131876[ebp]
  00003	50		 push	 eax
  00004	e8 00 00 00 00	 call	 ??3@YAXPAX@Z		; operator delete
  00009	59		 pop	 ecx
  0000a	c3		 ret	 0
__ehhandler$?SendMW_INVALIDCHAR_REQ@CTServer@@QAEXKKE@Z:
  0000b	b8 00 00 00 00	 mov	 eax, OFFSET FLAT:$T131881
  00010	e9 00 00 00 00	 jmp	 ___CxxFrameHandler
text$x	ENDS
?SendMW_INVALIDCHAR_REQ@CTServer@@QAEXKKE@Z ENDP	; CTServer::SendMW_INVALIDCHAR_REQ
PUBLIC	?SendMW_CHARDATA_REQ@CTServer@@QAEXKK@Z		; CTServer::SendMW_CHARDATA_REQ
;	COMDAT xdata$x
xdata$x	SEGMENT
$T131897 DD	0ffffffffH
	DD	FLAT:$L131893
$T131895 DD	019930520H
	DD	01H
	DD	FLAT:$T131897
	DD	2 DUP(00H)
	DD	2 DUP(00H)
; Function compile flags: /Ogty
xdata$x	ENDS
;	COMDAT ?SendMW_CHARDATA_REQ@CTServer@@QAEXKK@Z
_TEXT	SEGMENT
$T131890 = -16						; size = 4
__$EHRec$ = -12						; size = 12
_dwCharID$ = 8						; size = 4
_dwKEY$ = 12						; size = 4
?SendMW_CHARDATA_REQ@CTServer@@QAEXKK@Z PROC NEAR	; CTServer::SendMW_CHARDATA_REQ, COMDAT
; _this$ = ecx

; 211  : {

  00000	6a ff		 push	 -1
  00002	68 00 00 00 00	 push	 __ehhandler$?SendMW_CHARDATA_REQ@CTServer@@QAEXKK@Z
  00007	64 a1 00 00 00
	00		 mov	 eax, DWORD PTR fs:__except_list
  0000d	50		 push	 eax
  0000e	64 89 25 00 00
	00 00		 mov	 DWORD PTR fs:__except_list, esp
  00015	51		 push	 ecx
  00016	56		 push	 esi
  00017	57		 push	 edi

; 212  : 	CPacket *pMSG = new CPacket();

  00018	6a 1c		 push	 28			; 0000001cH
  0001a	8b f9		 mov	 edi, ecx
  0001c	e8 00 00 00 00	 call	 ??2@YAPAXI@Z		; operator new
  00021	83 c4 04	 add	 esp, 4
  00024	89 44 24 08	 mov	 DWORD PTR $T131890[esp+24], eax
  00028	33 f6		 xor	 esi, esi
  0002a	3b c6		 cmp	 eax, esi
  0002c	89 74 24 14	 mov	 DWORD PTR __$EHRec$[esp+32], esi
  00030	74 09		 je	 SHORT $L131892
  00032	8b c8		 mov	 ecx, eax
  00034	e8 00 00 00 00	 call	 ??0CPacket@@QAE@XZ	; CPacket::CPacket
  00039	8b f0		 mov	 esi, eax
$L131892:

; 213  : 
; 214  : 	pMSG->SetID(MW_CHARDATA_REQ)
; 215  : 		<< dwCharID
; 216  : 		<< dwKEY;

  0003b	8b 44 24 20	 mov	 eax, DWORD PTR _dwKEY$[esp+20]
  0003f	8b 4c 24 1c	 mov	 ecx, DWORD PTR _dwCharID$[esp+20]
  00043	50		 push	 eax
  00044	51		 push	 ecx
  00045	68 03 20 00 00	 push	 8195			; 00002003H
  0004a	8b ce		 mov	 ecx, esi
  0004c	c7 44 24 20 ff
	ff ff ff	 mov	 DWORD PTR __$EHRec$[esp+44], -1
  00054	e8 00 00 00 00	 call	 ?SetID@CPacket@@QAEAAV1@G@Z ; CPacket::SetID
  00059	8b c8		 mov	 ecx, eax
  0005b	e8 00 00 00 00	 call	 ??6CPacket@@QAEAAV0@K@Z	; CPacket::operator<<
  00060	8b c8		 mov	 ecx, eax
  00062	e8 00 00 00 00	 call	 ??6CPacket@@QAEAAV0@K@Z	; CPacket::operator<<

; 217  : 
; 218  : 	Say(pMSG);

  00067	8b 17		 mov	 edx, DWORD PTR [edi]
  00069	56		 push	 esi
  0006a	8b cf		 mov	 ecx, edi
  0006c	ff 12		 call	 DWORD PTR [edx]

; 219  : }

  0006e	8b 4c 24 0c	 mov	 ecx, DWORD PTR __$EHRec$[esp+24]
  00072	5f		 pop	 edi
  00073	5e		 pop	 esi
  00074	64 89 0d 00 00
	00 00		 mov	 DWORD PTR fs:__except_list, ecx
  0007b	83 c4 10	 add	 esp, 16			; 00000010H
  0007e	c2 08 00	 ret	 8
_TEXT	ENDS
;	COMDAT text$x
text$x	SEGMENT
$L131893:
  00000	8b 45 f0	 mov	 eax, DWORD PTR $T131890[ebp]
  00003	50		 push	 eax
  00004	e8 00 00 00 00	 call	 ??3@YAXPAX@Z		; operator delete
  00009	59		 pop	 ecx
  0000a	c3		 ret	 0
__ehhandler$?SendMW_CHARDATA_REQ@CTServer@@QAEXKK@Z:
  0000b	b8 00 00 00 00	 mov	 eax, OFFSET FLAT:$T131895
  00010	e9 00 00 00 00	 jmp	 ___CxxFrameHandler
text$x	ENDS
?SendMW_CHARDATA_REQ@CTServer@@QAEXKK@Z ENDP		; CTServer::SendMW_CHARDATA_REQ
PUBLIC	?SendMW_CLOSECHAR_REQ@CTServer@@QAEXKK@Z	; CTServer::SendMW_CLOSECHAR_REQ
;	COMDAT xdata$x
xdata$x	SEGMENT
$T131911 DD	0ffffffffH
	DD	FLAT:$L131907
$T131909 DD	019930520H
	DD	01H
	DD	FLAT:$T131911
	DD	2 DUP(00H)
	DD	2 DUP(00H)
; Function compile flags: /Ogty
xdata$x	ENDS
;	COMDAT ?SendMW_CLOSECHAR_REQ@CTServer@@QAEXKK@Z
_TEXT	SEGMENT
$T131904 = -16						; size = 4
__$EHRec$ = -12						; size = 12
_dwCharID$ = 8						; size = 4
_dwKEY$ = 12						; size = 4
?SendMW_CLOSECHAR_REQ@CTServer@@QAEXKK@Z PROC NEAR	; CTServer::SendMW_CLOSECHAR_REQ, COMDAT
; _this$ = ecx

; 425  : {

  00000	6a ff		 push	 -1
  00002	68 00 00 00 00	 push	 __ehhandler$?SendMW_CLOSECHAR_REQ@CTServer@@QAEXKK@Z
  00007	64 a1 00 00 00
	00		 mov	 eax, DWORD PTR fs:__except_list
  0000d	50		 push	 eax
  0000e	64 89 25 00 00
	00 00		 mov	 DWORD PTR fs:__except_list, esp
  00015	51		 push	 ecx
  00016	56		 push	 esi
  00017	57		 push	 edi

; 426  : 	CPacket *pMSG = new CPacket();

  00018	6a 1c		 push	 28			; 0000001cH
  0001a	8b f9		 mov	 edi, ecx
  0001c	e8 00 00 00 00	 call	 ??2@YAPAXI@Z		; operator new
  00021	83 c4 04	 add	 esp, 4
  00024	89 44 24 08	 mov	 DWORD PTR $T131904[esp+24], eax
  00028	33 f6		 xor	 esi, esi
  0002a	3b c6		 cmp	 eax, esi
  0002c	89 74 24 14	 mov	 DWORD PTR __$EHRec$[esp+32], esi
  00030	74 09		 je	 SHORT $L131906
  00032	8b c8		 mov	 ecx, eax
  00034	e8 00 00 00 00	 call	 ??0CPacket@@QAE@XZ	; CPacket::CPacket
  00039	8b f0		 mov	 esi, eax
$L131906:

; 427  : 
; 428  : 	pMSG->SetID(MW_CLOSECHAR_REQ)
; 429  : 		<< dwCharID
; 430  : 		<< dwKEY;

  0003b	8b 44 24 20	 mov	 eax, DWORD PTR _dwKEY$[esp+20]
  0003f	8b 4c 24 1c	 mov	 ecx, DWORD PTR _dwCharID$[esp+20]
  00043	50		 push	 eax
  00044	51		 push	 ecx
  00045	68 0b 20 00 00	 push	 8203			; 0000200bH
  0004a	8b ce		 mov	 ecx, esi
  0004c	c7 44 24 20 ff
	ff ff ff	 mov	 DWORD PTR __$EHRec$[esp+44], -1
  00054	e8 00 00 00 00	 call	 ?SetID@CPacket@@QAEAAV1@G@Z ; CPacket::SetID
  00059	8b c8		 mov	 ecx, eax
  0005b	e8 00 00 00 00	 call	 ??6CPacket@@QAEAAV0@K@Z	; CPacket::operator<<
  00060	8b c8		 mov	 ecx, eax
  00062	e8 00 00 00 00	 call	 ??6CPacket@@QAEAAV0@K@Z	; CPacket::operator<<

; 431  : 
; 432  : 	Say(pMSG);

  00067	8b 17		 mov	 edx, DWORD PTR [edi]
  00069	56		 push	 esi
  0006a	8b cf		 mov	 ecx, edi
  0006c	ff 12		 call	 DWORD PTR [edx]

; 433  : }

  0006e	8b 4c 24 0c	 mov	 ecx, DWORD PTR __$EHRec$[esp+24]
  00072	5f		 pop	 edi
  00073	5e		 pop	 esi
  00074	64 89 0d 00 00
	00 00		 mov	 DWORD PTR fs:__except_list, ecx
  0007b	83 c4 10	 add	 esp, 16			; 00000010H
  0007e	c2 08 00	 ret	 8
_TEXT	ENDS
;	COMDAT text$x
text$x	SEGMENT
$L131907:
  00000	8b 45 f0	 mov	 eax, DWORD PTR $T131904[ebp]
  00003	50		 push	 eax
  00004	e8 00 00 00 00	 call	 ??3@YAXPAX@Z		; operator delete
  00009	59		 pop	 ecx
  0000a	c3		 ret	 0
__ehhandler$?SendMW_CLOSECHAR_REQ@CTServer@@QAEXKK@Z:
  0000b	b8 00 00 00 00	 mov	 eax, OFFSET FLAT:$T131909
  00010	e9 00 00 00 00	 jmp	 ___CxxFrameHandler
text$x	ENDS
?SendMW_CLOSECHAR_REQ@CTServer@@QAEXKK@Z ENDP		; CTServer::SendMW_CLOSECHAR_REQ
PUBLIC	?SendMW_CHECKMAIN_REQ@CTServer@@QAEXKKEGMMM@Z	; CTServer::SendMW_CHECKMAIN_REQ
;	COMDAT xdata$x
xdata$x	SEGMENT
$T131925 DD	0ffffffffH
	DD	FLAT:$L131921
$T131923 DD	019930520H
	DD	01H
	DD	FLAT:$T131925
	DD	2 DUP(00H)
	DD	2 DUP(00H)
; Function compile flags: /Ogty
xdata$x	ENDS
;	COMDAT ?SendMW_CHECKMAIN_REQ@CTServer@@QAEXKKEGMMM@Z
_TEXT	SEGMENT
$T131918 = -16						; size = 4
__$EHRec$ = -12						; size = 12
_dwCharID$ = 8						; size = 4
_dwKEY$ = 12						; size = 4
_bChannel$ = 16						; size = 1
_wMapID$ = 20						; size = 2
_fPosX$ = 24						; size = 4
_fPosY$ = 28						; size = 4
_fPosZ$ = 32						; size = 4
?SendMW_CHECKMAIN_REQ@CTServer@@QAEXKKEGMMM@Z PROC NEAR	; CTServer::SendMW_CHECKMAIN_REQ, COMDAT
; _this$ = ecx

; 442  : {

  00000	6a ff		 push	 -1
  00002	68 00 00 00 00	 push	 __ehhandler$?SendMW_CHECKMAIN_REQ@CTServer@@QAEXKKEGMMM@Z
  00007	64 a1 00 00 00
	00		 mov	 eax, DWORD PTR fs:__except_list
  0000d	50		 push	 eax
  0000e	64 89 25 00 00
	00 00		 mov	 DWORD PTR fs:__except_list, esp
  00015	51		 push	 ecx
  00016	56		 push	 esi
  00017	57		 push	 edi

; 443  : 	CPacket *pMSG = new CPacket();

  00018	6a 1c		 push	 28			; 0000001cH
  0001a	8b f9		 mov	 edi, ecx
  0001c	e8 00 00 00 00	 call	 ??2@YAPAXI@Z		; operator new
  00021	83 c4 04	 add	 esp, 4
  00024	89 44 24 08	 mov	 DWORD PTR $T131918[esp+24], eax
  00028	33 f6		 xor	 esi, esi
  0002a	3b c6		 cmp	 eax, esi
  0002c	89 74 24 14	 mov	 DWORD PTR __$EHRec$[esp+32], esi
  00030	74 09		 je	 SHORT $L131920
  00032	8b c8		 mov	 ecx, eax
  00034	e8 00 00 00 00	 call	 ??0CPacket@@QAE@XZ	; CPacket::CPacket
  00039	8b f0		 mov	 esi, eax
$L131920:

; 444  : 
; 445  : 	pMSG->SetID(MW_CHECKMAIN_REQ)
; 446  : 		<< dwCharID
; 447  : 		<< dwKEY
; 448  : 		<< bChannel
; 449  : 		<< wMapID
; 450  : 		<< fPosX
; 451  : 		<< fPosY
; 452  : 		<< fPosZ;

  0003b	8b 44 24 34	 mov	 eax, DWORD PTR _fPosZ$[esp+20]
  0003f	8b 4c 24 30	 mov	 ecx, DWORD PTR _fPosY$[esp+20]
  00043	8b 54 24 2c	 mov	 edx, DWORD PTR _fPosX$[esp+20]
  00047	50		 push	 eax
  00048	8b 44 24 2c	 mov	 eax, DWORD PTR _wMapID$[esp+24]
  0004c	51		 push	 ecx
  0004d	8b 4c 24 2c	 mov	 ecx, DWORD PTR _bChannel$[esp+28]
  00051	52		 push	 edx
  00052	8b 54 24 2c	 mov	 edx, DWORD PTR _dwKEY$[esp+32]
  00056	50		 push	 eax
  00057	8b 44 24 2c	 mov	 eax, DWORD PTR _dwCharID$[esp+36]
  0005b	51		 push	 ecx
  0005c	52		 push	 edx
  0005d	50		 push	 eax
  0005e	68 c4 20 00 00	 push	 8388			; 000020c4H
  00063	8b ce		 mov	 ecx, esi
  00065	c7 44 24 34 ff
	ff ff ff	 mov	 DWORD PTR __$EHRec$[esp+64], -1
  0006d	e8 00 00 00 00	 call	 ?SetID@CPacket@@QAEAAV1@G@Z ; CPacket::SetID
  00072	8b c8		 mov	 ecx, eax
  00074	e8 00 00 00 00	 call	 ??6CPacket@@QAEAAV0@K@Z	; CPacket::operator<<
  00079	8b c8		 mov	 ecx, eax
  0007b	e8 00 00 00 00	 call	 ??6CPacket@@QAEAAV0@K@Z	; CPacket::operator<<
  00080	8b c8		 mov	 ecx, eax
  00082	e8 00 00 00 00	 call	 ??6CPacket@@QAEAAV0@E@Z	; CPacket::operator<<
  00087	8b c8		 mov	 ecx, eax
  00089	e8 00 00 00 00	 call	 ??6CPacket@@QAEAAV0@G@Z	; CPacket::operator<<
  0008e	8b c8		 mov	 ecx, eax
  00090	e8 00 00 00 00	 call	 ??6CPacket@@QAEAAV0@M@Z	; CPacket::operator<<
  00095	8b c8		 mov	 ecx, eax
  00097	e8 00 00 00 00	 call	 ??6CPacket@@QAEAAV0@M@Z	; CPacket::operator<<
  0009c	8b c8		 mov	 ecx, eax
  0009e	e8 00 00 00 00	 call	 ??6CPacket@@QAEAAV0@M@Z	; CPacket::operator<<

; 453  : 
; 454  : 	Say(pMSG);

  000a3	8b 17		 mov	 edx, DWORD PTR [edi]
  000a5	56		 push	 esi
  000a6	8b cf		 mov	 ecx, edi
  000a8	ff 12		 call	 DWORD PTR [edx]

; 455  : }

  000aa	8b 4c 24 0c	 mov	 ecx, DWORD PTR __$EHRec$[esp+24]
  000ae	5f		 pop	 edi
  000af	5e		 pop	 esi
  000b0	64 89 0d 00 00
	00 00		 mov	 DWORD PTR fs:__except_list, ecx
  000b7	83 c4 10	 add	 esp, 16			; 00000010H
  000ba	c2 1c 00	 ret	 28			; 0000001cH
_TEXT	ENDS
;	COMDAT text$x
text$x	SEGMENT
$L131921:
  00000	8b 45 f0	 mov	 eax, DWORD PTR $T131918[ebp]
  00003	50		 push	 eax
  00004	e8 00 00 00 00	 call	 ??3@YAXPAX@Z		; operator delete
  00009	59		 pop	 ecx
  0000a	c3		 ret	 0
__ehhandler$?SendMW_CHECKMAIN_REQ@CTServer@@QAEXKKEGMMM@Z:
  0000b	b8 00 00 00 00	 mov	 eax, OFFSET FLAT:$T131923
  00010	e9 00 00 00 00	 jmp	 ___CxxFrameHandler
text$x	ENDS
?SendMW_CHECKMAIN_REQ@CTServer@@QAEXKKEGMMM@Z ENDP	; CTServer::SendMW_CHECKMAIN_REQ
PUBLIC	?SendMW_DELCHAR_REQ@CTServer@@QAEXKKEE@Z	; CTServer::SendMW_DELCHAR_REQ
;	COMDAT xdata$x
xdata$x	SEGMENT
$T131939 DD	0ffffffffH
	DD	FLAT:$L131935
$T131937 DD	019930520H
	DD	01H
	DD	FLAT:$T131939
	DD	2 DUP(00H)
	DD	2 DUP(00H)
; Function compile flags: /Ogty
xdata$x	ENDS
;	COMDAT ?SendMW_DELCHAR_REQ@CTServer@@QAEXKKEE@Z
_TEXT	SEGMENT
$T131932 = -16						; size = 4
__$EHRec$ = -12						; size = 12
_dwCharID$ = 8						; size = 4
_dwKEY$ = 12						; size = 4
_bLogout$ = 16						; size = 1
_bSave$ = 20						; size = 1
?SendMW_DELCHAR_REQ@CTServer@@QAEXKKEE@Z PROC NEAR	; CTServer::SendMW_DELCHAR_REQ, COMDAT
; _this$ = ecx

; 461  : {

  00000	6a ff		 push	 -1
  00002	68 00 00 00 00	 push	 __ehhandler$?SendMW_DELCHAR_REQ@CTServer@@QAEXKKEE@Z
  00007	64 a1 00 00 00
	00		 mov	 eax, DWORD PTR fs:__except_list
  0000d	50		 push	 eax
  0000e	64 89 25 00 00
	00 00		 mov	 DWORD PTR fs:__except_list, esp
  00015	51		 push	 ecx
  00016	56		 push	 esi
  00017	57		 push	 edi

; 462  : 	CPacket *pMSG = new CPacket();

  00018	6a 1c		 push	 28			; 0000001cH
  0001a	8b f9		 mov	 edi, ecx
  0001c	e8 00 00 00 00	 call	 ??2@YAPAXI@Z		; operator new
  00021	83 c4 04	 add	 esp, 4
  00024	89 44 24 08	 mov	 DWORD PTR $T131932[esp+24], eax
  00028	33 f6		 xor	 esi, esi
  0002a	3b c6		 cmp	 eax, esi
  0002c	89 74 24 14	 mov	 DWORD PTR __$EHRec$[esp+32], esi
  00030	74 09		 je	 SHORT $L131934
  00032	8b c8		 mov	 ecx, eax
  00034	e8 00 00 00 00	 call	 ??0CPacket@@QAE@XZ	; CPacket::CPacket
  00039	8b f0		 mov	 esi, eax
$L131934:

; 463  : 
; 464  : 	pMSG->SetID(MW_DELCHAR_REQ)
; 465  : 		<< dwCharID
; 466  : 		<< dwKEY
; 467  : 		<< bLogout
; 468  : 		<< bSave;

  0003b	8b 44 24 28	 mov	 eax, DWORD PTR _bSave$[esp+20]
  0003f	8b 4c 24 24	 mov	 ecx, DWORD PTR _bLogout$[esp+20]
  00043	8b 54 24 20	 mov	 edx, DWORD PTR _dwKEY$[esp+20]
  00047	50		 push	 eax
  00048	8b 44 24 20	 mov	 eax, DWORD PTR _dwCharID$[esp+24]
  0004c	51		 push	 ecx
  0004d	52		 push	 edx
  0004e	50		 push	 eax
  0004f	68 0d 20 00 00	 push	 8205			; 0000200dH
  00054	8b ce		 mov	 ecx, esi
  00056	c7 44 24 28 ff
	ff ff ff	 mov	 DWORD PTR __$EHRec$[esp+52], -1
  0005e	e8 00 00 00 00	 call	 ?SetID@CPacket@@QAEAAV1@G@Z ; CPacket::SetID
  00063	8b c8		 mov	 ecx, eax
  00065	e8 00 00 00 00	 call	 ??6CPacket@@QAEAAV0@K@Z	; CPacket::operator<<
  0006a	8b c8		 mov	 ecx, eax
  0006c	e8 00 00 00 00	 call	 ??6CPacket@@QAEAAV0@K@Z	; CPacket::operator<<
  00071	8b c8		 mov	 ecx, eax
  00073	e8 00 00 00 00	 call	 ??6CPacket@@QAEAAV0@E@Z	; CPacket::operator<<
  00078	8b c8		 mov	 ecx, eax
  0007a	e8 00 00 00 00	 call	 ??6CPacket@@QAEAAV0@E@Z	; CPacket::operator<<

; 469  : 
; 470  : 	Say(pMSG);

  0007f	8b 17		 mov	 edx, DWORD PTR [edi]
  00081	56		 push	 esi
  00082	8b cf		 mov	 ecx, edi
  00084	ff 12		 call	 DWORD PTR [edx]

; 471  : }

  00086	8b 4c 24 0c	 mov	 ecx, DWORD PTR __$EHRec$[esp+24]
  0008a	5f		 pop	 edi
  0008b	5e		 pop	 esi
  0008c	64 89 0d 00 00
	00 00		 mov	 DWORD PTR fs:__except_list, ecx
  00093	83 c4 10	 add	 esp, 16			; 00000010H
  00096	c2 10 00	 ret	 16			; 00000010H
_TEXT	ENDS
;	COMDAT text$x
text$x	SEGMENT
$L131935:
  00000	8b 45 f0	 mov	 eax, DWORD PTR $T131932[ebp]
  00003	50		 push	 eax
  00004	e8 00 00 00 00	 call	 ??3@YAXPAX@Z		; operator delete
  00009	59		 pop	 ecx
  0000a	c3		 ret	 0
__ehhandler$?SendMW_DELCHAR_REQ@CTServer@@QAEXKKEE@Z:
  0000b	b8 00 00 00 00	 mov	 eax, OFFSET FLAT:$T131937
  00010	e9 00 00 00 00	 jmp	 ___CxxFrameHandler
text$x	ENDS
?SendMW_DELCHAR_REQ@CTServer@@QAEXKKEE@Z ENDP		; CTServer::SendMW_DELCHAR_REQ
PUBLIC	?InterlockedExchangePointer@@YGPAXPAPAXPAX@Z	; InterlockedExchangePointer
EXTRN	__imp__InterlockedExchange@8:NEAR
; Function compile flags: /Ogty
; File c:\program files (x86)\microsoft visual studio .net 2003\vc7\atlmfc\include\atlconv.h
;	COMDAT ?InterlockedExchangePointer@@YGPAXPAPAXPAX@Z
_TEXT	SEGMENT
_pp$ = 8						; size = 4
_pNew$ = 12						; size = 4
?InterlockedExchangePointer@@YGPAXPAPAXPAX@Z PROC NEAR	; InterlockedExchangePointer, COMDAT

; 92   : 	return( reinterpret_cast<void*>(static_cast<LONG_PTR>(::InterlockedExchange(reinterpret_cast<LONG*>(pp), static_cast<LONG>(reinterpret_cast<LONG_PTR>(pNew))))) );

  00000	ff 25 00 00 00
	00		 jmp	 DWORD PTR __imp__InterlockedExchange@8
?InterlockedExchangePointer@@YGPAXPAPAXPAX@Z ENDP	; InterlockedExchangePointer
_TEXT	ENDS
PUBLIC	?_AtlGetThreadACPFake@ATL@@YGIXZ		; ATL::_AtlGetThreadACPFake
EXTRN	__imp__GetACP@0:NEAR
EXTRN	__imp__GetLocaleInfoA@16:NEAR
EXTRN	__imp__GetThreadLocale@0:NEAR
EXTRN	___security_cookie:DWORD
EXTRN	@__security_check_cookie@4:NEAR
; Function compile flags: /Ogty
;	COMDAT ?_AtlGetThreadACPFake@ATL@@YGIXZ
_TEXT	SEGMENT
_szACP$ = -12						; size = 7
__$ArrayPad$ = -4					; size = 4
__$ReturnAddr$ = 4					; size = 4
?_AtlGetThreadACPFake@ATL@@YGIXZ PROC NEAR		; ATL::_AtlGetThreadACPFake, COMDAT

; 101  : {

  00000	83 ec 0c	 sub	 esp, 12			; 0000000cH
  00003	a1 00 00 00 00	 mov	 eax, DWORD PTR ___security_cookie
  00008	56		 push	 esi
  00009	89 44 24 0c	 mov	 DWORD PTR __$ArrayPad$[esp+16], eax

; 102  : 	UINT nACP = 0;

  0000d	33 f6		 xor	 esi, esi

; 103  : 
; 104  : 	LCID lcidThread = ::GetThreadLocale();

  0000f	ff 15 00 00 00
	00		 call	 DWORD PTR __imp__GetThreadLocale@0

; 105  : 
; 106  : 	char szACP[7];
; 107  : 	// GetLocaleInfoA will fail for a Unicode-only LCID, but those are only supported on 
; 108  : 	// Windows 2000.  Since Windows 2000 supports CP_THREAD_ACP, this code path is never
; 109  : 	// executed on Windows 2000.
; 110  : 	if (::GetLocaleInfoA(lcidThread, LOCALE_IDEFAULTANSICODEPAGE, szACP, 7) != 0)

  00015	6a 07		 push	 7
  00017	8d 4c 24 08	 lea	 ecx, DWORD PTR _szACP$[esp+20]
  0001b	51		 push	 ecx
  0001c	68 04 10 00 00	 push	 4100			; 00001004H
  00021	50		 push	 eax
  00022	ff 15 00 00 00
	00		 call	 DWORD PTR __imp__GetLocaleInfoA@16
  00028	85 c0		 test	 eax, eax
  0002a	74 21		 je	 SHORT $L131952

; 111  : 	{
; 112  : 		char* pch = szACP;
; 113  : 		while (*pch != '\0')

  0002c	8a 44 24 04	 mov	 al, BYTE PTR _szACP$[esp+16]
  00030	84 c0		 test	 al, al
  00032	8d 4c 24 04	 lea	 ecx, DWORD PTR _szACP$[esp+16]
  00036	74 15		 je	 SHORT $L131952
$L58550:

; 114  : 		{
; 115  : 			nACP *= 10;
; 116  : 			nACP += *pch++ - '0';

  00038	0f be c0	 movsx	 eax, al
  0003b	8d 14 b6	 lea	 edx, DWORD PTR [esi+esi*4]
  0003e	41		 inc	 ecx
  0003f	8d 74 50 d0	 lea	 esi, DWORD PTR [eax+edx*2-48]
  00043	8a 01		 mov	 al, BYTE PTR [ecx]
  00045	84 c0		 test	 al, al
  00047	75 ef		 jne	 SHORT $L58550

; 117  : 		}
; 118  : 	}
; 119  : 	// Use the Default ANSI Code Page if we were unable to get the thread ACP or if one does not exist.
; 120  : 	if (nACP == 0)

  00049	85 f6		 test	 esi, esi
  0004b	75 14		 jne	 SHORT $L131953
$L131952:

; 121  : 		nACP = ::GetACP();

  0004d	ff 15 00 00 00
	00		 call	 DWORD PTR __imp__GetACP@0
  00053	5e		 pop	 esi

; 122  : 
; 123  : 	return nACP;
; 124  : }

  00054	8b 4c 24 08	 mov	 ecx, DWORD PTR __$ArrayPad$[esp+12]
  00058	e8 00 00 00 00	 call	 @__security_check_cookie@4
  0005d	83 c4 0c	 add	 esp, 12			; 0000000cH
  00060	c3		 ret	 0
$L131953:
  00061	8b 4c 24 0c	 mov	 ecx, DWORD PTR __$ArrayPad$[esp+16]
  00065	8b c6		 mov	 eax, esi
  00067	5e		 pop	 esi
  00068	e8 00 00 00 00	 call	 @__security_check_cookie@4
  0006d	83 c4 0c	 add	 esp, 12			; 0000000cH
  00070	c3		 ret	 0
?_AtlGetThreadACPFake@ATL@@YGIXZ ENDP			; ATL::_AtlGetThreadACPFake
_TEXT	ENDS
PUBLIC	?SendMW_CONLIST_REQ@CTServer@@QAEXKKEGMMM@Z	; CTServer::SendMW_CONLIST_REQ
;	COMDAT xdata$x
; File c:\users\pierr\desktop\4story - oldschool\sources\tserver\tworldsvr\sssender.cpp
xdata$x	SEGMENT
$T131968 DD	0ffffffffH
	DD	FLAT:$L131964
$T131966 DD	019930520H
	DD	01H
	DD	FLAT:$T131968
	DD	2 DUP(00H)
	DD	2 DUP(00H)
; Function compile flags: /Ogty
xdata$x	ENDS
;	COMDAT ?SendMW_CONLIST_REQ@CTServer@@QAEXKKEGMMM@Z
_TEXT	SEGMENT
$T131961 = -16						; size = 4
__$EHRec$ = -12						; size = 12
_dwCharID$ = 8						; size = 4
_dwKEY$ = 12						; size = 4
_bChannel$ = 16						; size = 1
_wMapID$ = 20						; size = 2
_fPosX$ = 24						; size = 4
_fPosY$ = 28						; size = 4
_fPosZ$ = 32						; size = 4
?SendMW_CONLIST_REQ@CTServer@@QAEXKKEGMMM@Z PROC NEAR	; CTServer::SendMW_CONLIST_REQ, COMDAT
; _this$ = ecx

; 538  : {

  00000	6a ff		 push	 -1
  00002	68 00 00 00 00	 push	 __ehhandler$?SendMW_CONLIST_REQ@CTServer@@QAEXKKEGMMM@Z
  00007	64 a1 00 00 00
	00		 mov	 eax, DWORD PTR fs:__except_list
  0000d	50		 push	 eax
  0000e	64 89 25 00 00
	00 00		 mov	 DWORD PTR fs:__except_list, esp
  00015	51		 push	 ecx
  00016	56		 push	 esi
  00017	57		 push	 edi

; 539  : 	CPacket *pMSG = new CPacket();

  00018	6a 1c		 push	 28			; 0000001cH
  0001a	8b f9		 mov	 edi, ecx
  0001c	e8 00 00 00 00	 call	 ??2@YAPAXI@Z		; operator new
  00021	83 c4 04	 add	 esp, 4
  00024	89 44 24 08	 mov	 DWORD PTR $T131961[esp+24], eax
  00028	33 f6		 xor	 esi, esi
  0002a	3b c6		 cmp	 eax, esi
  0002c	89 74 24 14	 mov	 DWORD PTR __$EHRec$[esp+32], esi
  00030	74 09		 je	 SHORT $L131963
  00032	8b c8		 mov	 ecx, eax
  00034	e8 00 00 00 00	 call	 ??0CPacket@@QAE@XZ	; CPacket::CPacket
  00039	8b f0		 mov	 esi, eax
$L131963:

; 540  : 
; 541  : 	pMSG->SetID(MW_CONLIST_REQ)
; 542  : 		<< dwCharID
; 543  : 		<< dwKEY
; 544  : 		<< bChannel
; 545  : 		<< wMapID
; 546  : 		<< fPosX
; 547  : 		<< fPosY
; 548  : 		<< fPosZ;

  0003b	8b 44 24 34	 mov	 eax, DWORD PTR _fPosZ$[esp+20]
  0003f	8b 4c 24 30	 mov	 ecx, DWORD PTR _fPosY$[esp+20]
  00043	8b 54 24 2c	 mov	 edx, DWORD PTR _fPosX$[esp+20]
  00047	50		 push	 eax
  00048	8b 44 24 2c	 mov	 eax, DWORD PTR _wMapID$[esp+24]
  0004c	51		 push	 ecx
  0004d	8b 4c 24 2c	 mov	 ecx, DWORD PTR _bChannel$[esp+28]
  00051	52		 push	 edx
  00052	8b 54 24 2c	 mov	 edx, DWORD PTR _dwKEY$[esp+32]
  00056	50		 push	 eax
  00057	8b 44 24 2c	 mov	 eax, DWORD PTR _dwCharID$[esp+36]
  0005b	51		 push	 ecx
  0005c	52		 push	 edx
  0005d	50		 push	 eax
  0005e	68 bf 20 00 00	 push	 8383			; 000020bfH
  00063	8b ce		 mov	 ecx, esi
  00065	c7 44 24 34 ff
	ff ff ff	 mov	 DWORD PTR __$EHRec$[esp+64], -1
  0006d	e8 00 00 00 00	 call	 ?SetID@CPacket@@QAEAAV1@G@Z ; CPacket::SetID
  00072	8b c8		 mov	 ecx, eax
  00074	e8 00 00 00 00	 call	 ??6CPacket@@QAEAAV0@K@Z	; CPacket::operator<<
  00079	8b c8		 mov	 ecx, eax
  0007b	e8 00 00 00 00	 call	 ??6CPacket@@QAEAAV0@K@Z	; CPacket::operator<<
  00080	8b c8		 mov	 ecx, eax
  00082	e8 00 00 00 00	 call	 ??6CPacket@@QAEAAV0@E@Z	; CPacket::operator<<
  00087	8b c8		 mov	 ecx, eax
  00089	e8 00 00 00 00	 call	 ??6CPacket@@QAEAAV0@G@Z	; CPacket::operator<<
  0008e	8b c8		 mov	 ecx, eax
  00090	e8 00 00 00 00	 call	 ??6CPacket@@QAEAAV0@M@Z	; CPacket::operator<<
  00095	8b c8		 mov	 ecx, eax
  00097	e8 00 00 00 00	 call	 ??6CPacket@@QAEAAV0@M@Z	; CPacket::operator<<
  0009c	8b c8		 mov	 ecx, eax
  0009e	e8 00 00 00 00	 call	 ??6CPacket@@QAEAAV0@M@Z	; CPacket::operator<<

; 549  : 
; 550  : 	Say(pMSG);

  000a3	8b 17		 mov	 edx, DWORD PTR [edi]
  000a5	56		 push	 esi
  000a6	8b cf		 mov	 ecx, edi
  000a8	ff 12		 call	 DWORD PTR [edx]

; 551  : }

  000aa	8b 4c 24 0c	 mov	 ecx, DWORD PTR __$EHRec$[esp+24]
  000ae	5f		 pop	 edi
  000af	5e		 pop	 esi
  000b0	64 89 0d 00 00
	00 00		 mov	 DWORD PTR fs:__except_list, ecx
  000b7	83 c4 10	 add	 esp, 16			; 00000010H
  000ba	c2 1c 00	 ret	 28			; 0000001cH
_TEXT	ENDS
;	COMDAT text$x
text$x	SEGMENT
$L131964:
  00000	8b 45 f0	 mov	 eax, DWORD PTR $T131961[ebp]
  00003	50		 push	 eax
  00004	e8 00 00 00 00	 call	 ??3@YAXPAX@Z		; operator delete
  00009	59		 pop	 ecx
  0000a	c3		 ret	 0
__ehhandler$?SendMW_CONLIST_REQ@CTServer@@QAEXKKEGMMM@Z:
  0000b	b8 00 00 00 00	 mov	 eax, OFFSET FLAT:$T131966
  00010	e9 00 00 00 00	 jmp	 ___CxxFrameHandler
text$x	ENDS
?SendMW_CONLIST_REQ@CTServer@@QAEXKKEGMMM@Z ENDP	; CTServer::SendMW_CONLIST_REQ
PUBLIC	?_AtlGetThreadACPReal@ATL@@YGIXZ		; ATL::_AtlGetThreadACPReal
; Function compile flags: /Ogty
; File c:\program files (x86)\microsoft visual studio .net 2003\vc7\atlmfc\include\atlconv.h
;	COMDAT ?_AtlGetThreadACPReal@ATL@@YGIXZ
_TEXT	SEGMENT
?_AtlGetThreadACPReal@ATL@@YGIXZ PROC NEAR		; ATL::_AtlGetThreadACPReal, COMDAT

; 128  : 	return( CP_THREAD_ACP );

  00000	b8 03 00 00 00	 mov	 eax, 3

; 129  : }

  00005	c3		 ret	 0
?_AtlGetThreadACPReal@ATL@@YGIXZ ENDP			; ATL::_AtlGetThreadACPReal
_TEXT	ENDS
EXTRN	__imp__GetVersionExA@4:NEAR
; Function compile flags: /Ogty
;	COMDAT ?_AtlGetThreadACPThunk@ATL@@YGIXZ
_TEXT	SEGMENT
_ver$ = -152						; size = 148
__$ArrayPad$ = -4					; size = 4
__$ReturnAddr$ = 4					; size = 4
?_AtlGetThreadACPThunk@ATL@@YGIXZ PROC NEAR		; ATL::_AtlGetThreadACPThunk, COMDAT

; 134  : {

  00000	81 ec 98 00 00
	00		 sub	 esp, 152		; 00000098H
  00006	a1 00 00 00 00	 mov	 eax, DWORD PTR ___security_cookie
  0000b	89 84 24 94 00
	00 00		 mov	 DWORD PTR __$ArrayPad$[esp+152], eax

; 135  : 	OSVERSIONINFO ver;
; 136  : 	ATLGETTHREADACP pfnGetThreadACP;
; 137  : 
; 138  : 	ver.dwOSVersionInfoSize = sizeof( ver );
; 139  : 	::GetVersionEx( &ver );

  00012	8d 04 24	 lea	 eax, DWORD PTR _ver$[esp+152]
  00015	50		 push	 eax
  00016	c7 44 24 04 94
	00 00 00	 mov	 DWORD PTR _ver$[esp+156], 148 ; 00000094H
  0001e	ff 15 00 00 00
	00		 call	 DWORD PTR __imp__GetVersionExA@4

; 140  : 	if( (ver.dwPlatformId == VER_PLATFORM_WIN32_NT) && (ver.dwMajorVersion >= 5) )

  00024	83 7c 24 10 02	 cmp	 DWORD PTR _ver$[esp+168], 2
  00029	75 0c		 jne	 SHORT $L58560
  0002b	83 7c 24 04 05	 cmp	 DWORD PTR _ver$[esp+156], 5

; 141  : 	{
; 142  : 		// On Win2K, CP_THREAD_ACP is supported
; 143  : 		pfnGetThreadACP = _AtlGetThreadACPReal;

  00030	b8 00 00 00 00	 mov	 eax, OFFSET FLAT:?_AtlGetThreadACPReal@ATL@@YGIXZ ; ATL::_AtlGetThreadACPReal
  00035	73 05		 jae	 SHORT $L58561
$L58560:

; 144  : 	}
; 145  : 	else
; 146  : 	{
; 147  : 		pfnGetThreadACP = _AtlGetThreadACPFake;

  00037	b8 00 00 00 00	 mov	 eax, OFFSET FLAT:?_AtlGetThreadACPFake@ATL@@YGIXZ ; ATL::_AtlGetThreadACPFake
$L58561:

; 148  : 	}
; 149  : 	InterlockedExchangePointer( reinterpret_cast< void** >(&g_pfnGetThreadACP), pfnGetThreadACP );

  0003c	50		 push	 eax
  0003d	68 00 00 00 00	 push	 OFFSET FLAT:?g_pfnGetThreadACP@ATL@@3P6GIXZA ; ATL::g_pfnGetThreadACP
  00042	ff 15 00 00 00
	00		 call	 DWORD PTR __imp__InterlockedExchange@8

; 150  : 
; 151  : 	return( g_pfnGetThreadACP() );

  00048	ff 15 00 00 00
	00		 call	 DWORD PTR ?g_pfnGetThreadACP@ATL@@3P6GIXZA ; ATL::g_pfnGetThreadACP

; 152  : }

  0004e	8b 8c 24 94 00
	00 00		 mov	 ecx, DWORD PTR __$ArrayPad$[esp+152]
  00055	e8 00 00 00 00	 call	 @__security_check_cookie@4
  0005a	81 c4 98 00 00
	00		 add	 esp, 152		; 00000098H
  00060	c3		 ret	 0
?_AtlGetThreadACPThunk@ATL@@YGIXZ ENDP			; ATL::_AtlGetThreadACPThunk
_TEXT	ENDS
PUBLIC	?SendMW_TELEPORT_REQ@CTServer@@QAEXKKEGMMME@Z	; CTServer::SendMW_TELEPORT_REQ
;	COMDAT xdata$x
; File c:\users\pierr\desktop\4story - oldschool\sources\tserver\tworldsvr\sssender.cpp
xdata$x	SEGMENT
$T131993 DD	0ffffffffH
	DD	FLAT:$L131989
$T131991 DD	019930520H
	DD	01H
	DD	FLAT:$T131993
	DD	2 DUP(00H)
	DD	2 DUP(00H)
; Function compile flags: /Ogty
xdata$x	ENDS
;	COMDAT ?SendMW_TELEPORT_REQ@CTServer@@QAEXKKEGMMME@Z
_TEXT	SEGMENT
$T131986 = -16						; size = 4
__$EHRec$ = -12						; size = 12
_dwCharID$ = 8						; size = 4
_dwKEY$ = 12						; size = 4
_bChannel$ = 16						; size = 1
_wMapID$ = 20						; size = 2
_fPosX$ = 24						; size = 4
_fPosY$ = 28						; size = 4
_fPosZ$ = 32						; size = 4
_bResult$ = 36						; size = 1
?SendMW_TELEPORT_REQ@CTServer@@QAEXKKEGMMME@Z PROC NEAR	; CTServer::SendMW_TELEPORT_REQ, COMDAT
; _this$ = ecx

; 561  : {

  00000	6a ff		 push	 -1
  00002	68 00 00 00 00	 push	 __ehhandler$?SendMW_TELEPORT_REQ@CTServer@@QAEXKKEGMMME@Z
  00007	64 a1 00 00 00
	00		 mov	 eax, DWORD PTR fs:__except_list
  0000d	50		 push	 eax
  0000e	64 89 25 00 00
	00 00		 mov	 DWORD PTR fs:__except_list, esp
  00015	51		 push	 ecx
  00016	56		 push	 esi
  00017	57		 push	 edi

; 562  : 	CPacket *pMSG = new CPacket();

  00018	6a 1c		 push	 28			; 0000001cH
  0001a	8b f9		 mov	 edi, ecx
  0001c	e8 00 00 00 00	 call	 ??2@YAPAXI@Z		; operator new
  00021	83 c4 04	 add	 esp, 4
  00024	89 44 24 08	 mov	 DWORD PTR $T131986[esp+24], eax
  00028	33 f6		 xor	 esi, esi
  0002a	3b c6		 cmp	 eax, esi
  0002c	89 74 24 14	 mov	 DWORD PTR __$EHRec$[esp+32], esi
  00030	74 09		 je	 SHORT $L131988
  00032	8b c8		 mov	 ecx, eax
  00034	e8 00 00 00 00	 call	 ??0CPacket@@QAE@XZ	; CPacket::CPacket
  00039	8b f0		 mov	 esi, eax
$L131988:

; 563  : 
; 564  : 	pMSG->SetID(MW_TELEPORT_REQ)
; 565  : 		<< dwCharID
; 566  : 		<< dwKEY
; 567  : 		<< bChannel
; 568  : 		<< wMapID
; 569  : 		<< fPosX
; 570  : 		<< fPosY
; 571  : 		<< fPosZ
; 572  : 		<< bResult;

  0003b	8b 44 24 38	 mov	 eax, DWORD PTR _bResult$[esp+20]
  0003f	8b 4c 24 34	 mov	 ecx, DWORD PTR _fPosZ$[esp+20]
  00043	8b 54 24 30	 mov	 edx, DWORD PTR _fPosY$[esp+20]
  00047	50		 push	 eax
  00048	8b 44 24 30	 mov	 eax, DWORD PTR _fPosX$[esp+24]
  0004c	51		 push	 ecx
  0004d	8b 4c 24 30	 mov	 ecx, DWORD PTR _wMapID$[esp+28]
  00051	52		 push	 edx
  00052	8b 54 24 30	 mov	 edx, DWORD PTR _bChannel$[esp+32]
  00056	50		 push	 eax
  00057	8b 44 24 30	 mov	 eax, DWORD PTR _dwKEY$[esp+36]
  0005b	51		 push	 ecx
  0005c	8b 4c 24 30	 mov	 ecx, DWORD PTR _dwCharID$[esp+40]
  00060	52		 push	 edx
  00061	50		 push	 eax
  00062	51		 push	 ecx
  00063	68 bd 20 00 00	 push	 8381			; 000020bdH
  00068	8b ce		 mov	 ecx, esi
  0006a	c7 44 24 38 ff
	ff ff ff	 mov	 DWORD PTR __$EHRec$[esp+68], -1
  00072	e8 00 00 00 00	 call	 ?SetID@CPacket@@QAEAAV1@G@Z ; CPacket::SetID
  00077	8b c8		 mov	 ecx, eax
  00079	e8 00 00 00 00	 call	 ??6CPacket@@QAEAAV0@K@Z	; CPacket::operator<<
  0007e	8b c8		 mov	 ecx, eax
  00080	e8 00 00 00 00	 call	 ??6CPacket@@QAEAAV0@K@Z	; CPacket::operator<<
  00085	8b c8		 mov	 ecx, eax
  00087	e8 00 00 00 00	 call	 ??6CPacket@@QAEAAV0@E@Z	; CPacket::operator<<
  0008c	8b c8		 mov	 ecx, eax
  0008e	e8 00 00 00 00	 call	 ??6CPacket@@QAEAAV0@G@Z	; CPacket::operator<<
  00093	8b c8		 mov	 ecx, eax
  00095	e8 00 00 00 00	 call	 ??6CPacket@@QAEAAV0@M@Z	; CPacket::operator<<
  0009a	8b c8		 mov	 ecx, eax
  0009c	e8 00 00 00 00	 call	 ??6CPacket@@QAEAAV0@M@Z	; CPacket::operator<<
  000a1	8b c8		 mov	 ecx, eax
  000a3	e8 00 00 00 00	 call	 ??6CPacket@@QAEAAV0@M@Z	; CPacket::operator<<
  000a8	8b c8		 mov	 ecx, eax
  000aa	e8 00 00 00 00	 call	 ??6CPacket@@QAEAAV0@E@Z	; CPacket::operator<<

; 573  : 
; 574  : 	Say(pMSG);

  000af	8b 17		 mov	 edx, DWORD PTR [edi]
  000b1	56		 push	 esi
  000b2	8b cf		 mov	 ecx, edi
  000b4	ff 12		 call	 DWORD PTR [edx]

; 575  : }

  000b6	8b 4c 24 0c	 mov	 ecx, DWORD PTR __$EHRec$[esp+24]
  000ba	5f		 pop	 edi
  000bb	5e		 pop	 esi
  000bc	64 89 0d 00 00
	00 00		 mov	 DWORD PTR fs:__except_list, ecx
  000c3	83 c4 10	 add	 esp, 16			; 00000010H
  000c6	c2 20 00	 ret	 32			; 00000020H
_TEXT	ENDS
;	COMDAT text$x
text$x	SEGMENT
$L131989:
  00000	8b 45 f0	 mov	 eax, DWORD PTR $T131986[ebp]
  00003	50		 push	 eax
  00004	e8 00 00 00 00	 call	 ??3@YAXPAX@Z		; operator delete
  00009	59		 pop	 ecx
  0000a	c3		 ret	 0
__ehhandler$?SendMW_TELEPORT_REQ@CTServer@@QAEXKKEGMMME@Z:
  0000b	b8 00 00 00 00	 mov	 eax, OFFSET FLAT:$T131991
  00010	e9 00 00 00 00	 jmp	 ___CxxFrameHandler
text$x	ENDS
?SendMW_TELEPORT_REQ@CTServer@@QAEXKKEGMMME@Z ENDP	; CTServer::SendMW_TELEPORT_REQ
PUBLIC	?_AtlGetConversionACP@ATL@@YGIXZ		; ATL::_AtlGetConversionACP
; Function compile flags: /Ogty
; File c:\program files (x86)\microsoft visual studio .net 2003\vc7\atlmfc\include\atlconv.h
;	COMDAT ?_AtlGetConversionACP@ATL@@YGIXZ
_TEXT	SEGMENT
?_AtlGetConversionACP@ATL@@YGIXZ PROC NEAR		; ATL::_AtlGetConversionACP, COMDAT

; 158  : 	return( g_pfnGetThreadACP() );

  00000	ff 25 00 00 00
	00		 jmp	 DWORD PTR ?g_pfnGetThreadACP@ATL@@3P6GIXZA ; ATL::g_pfnGetThreadACP
?_AtlGetConversionACP@ATL@@YGIXZ ENDP			; ATL::_AtlGetConversionACP
_TEXT	ENDS
PUBLIC	?SendMW_ROUTE_REQ@CTServer@@QAEXKKEGMMM@Z	; CTServer::SendMW_ROUTE_REQ
;	COMDAT xdata$x
; File c:\users\pierr\desktop\4story - oldschool\sources\tserver\tworldsvr\sssender.cpp
xdata$x	SEGMENT
$T132011 DD	0ffffffffH
	DD	FLAT:$L132007
$T132009 DD	019930520H
	DD	01H
	DD	FLAT:$T132011
	DD	2 DUP(00H)
	DD	2 DUP(00H)
; Function compile flags: /Ogty
xdata$x	ENDS
;	COMDAT ?SendMW_ROUTE_REQ@CTServer@@QAEXKKEGMMM@Z
_TEXT	SEGMENT
$T132004 = -16						; size = 4
__$EHRec$ = -12						; size = 12
_dwCharID$ = 8						; size = 4
_dwKEY$ = 12						; size = 4
_bChannel$ = 16						; size = 1
_wMapID$ = 20						; size = 2
_fPosX$ = 24						; size = 4
_fPosY$ = 28						; size = 4
_fPosZ$ = 32						; size = 4
?SendMW_ROUTE_REQ@CTServer@@QAEXKKEGMMM@Z PROC NEAR	; CTServer::SendMW_ROUTE_REQ, COMDAT
; _this$ = ecx

; 584  : {

  00000	6a ff		 push	 -1
  00002	68 00 00 00 00	 push	 __ehhandler$?SendMW_ROUTE_REQ@CTServer@@QAEXKKEGMMM@Z
  00007	64 a1 00 00 00
	00		 mov	 eax, DWORD PTR fs:__except_list
  0000d	50		 push	 eax
  0000e	64 89 25 00 00
	00 00		 mov	 DWORD PTR fs:__except_list, esp
  00015	51		 push	 ecx
  00016	56		 push	 esi
  00017	57		 push	 edi

; 585  : 	CPacket *pMSG = new CPacket();

  00018	6a 1c		 push	 28			; 0000001cH
  0001a	8b f9		 mov	 edi, ecx
  0001c	e8 00 00 00 00	 call	 ??2@YAPAXI@Z		; operator new
  00021	83 c4 04	 add	 esp, 4
  00024	89 44 24 08	 mov	 DWORD PTR $T132004[esp+24], eax
  00028	33 f6		 xor	 esi, esi
  0002a	3b c6		 cmp	 eax, esi
  0002c	89 74 24 14	 mov	 DWORD PTR __$EHRec$[esp+32], esi
