; Listing generated by Microsoft (R) Optimizing Compiler Version 13.10.3077 

	TITLE	.\TGuild.cpp
	.386P
include listing.inc
if @Version gt 510
.model FLAT
else
_TEXT	SEGMENT PARA USE32 PUBLIC 'CODE'
_TEXT	ENDS
_DATA	SEGMENT DWORD USE32 PUBLIC 'DATA'
_DATA	ENDS
CONST	SEGMENT DWORD USE32 PUBLIC 'CONST'
CONST	ENDS
_BSS	SEGMENT DWORD USE32 PUBLIC 'BSS'
_BSS	ENDS
$$SYMBOLS	SEGMENT BYTE USE32 'DEBSYM'
$$SYMBOLS	ENDS
$$TYPES	SEGMENT BYTE USE32 'DEBTYP'
$$TYPES	ENDS
_TLS	SEGMENT DWORD USE32 PUBLIC 'TLS'
_TLS	ENDS
;	COMDAT ??_C@_1EO@JCFHIKME@?$AA?$HL?$AA2?$AAD?$AAD?$AA0?$AA7?$AA5?$AA6?$AA6?$AA?9?$AA9?$AA2?$AA4?$AA8?$AA?9?$AA4?$AA7?$AA9?$AA8?$AA?9@
CONST	SEGMENT DWORD USE32 PUBLIC 'CONST'
CONST	ENDS
;	COMDAT ??_C@_0CH@IKEJHDDN@?$HL2DD07566?99248?94798?9A96F?9259263C@
CONST	SEGMENT DWORD USE32 PUBLIC 'CONST'
CONST	ENDS
;	COMDAT ??_C@_0N@OGFEPDED@LocalService?$AA@
CONST	SEGMENT DWORD USE32 PUBLIC 'CONST'
CONST	ENDS
;	COMDAT ??_C@_02CCDHMLDD@?9?1?$AA@
CONST	SEGMENT DWORD USE32 PUBLIC 'CONST'
CONST	ENDS
;	COMDAT ??_C@_0M@MIGBKCMN@UnregServer?$AA@
CONST	SEGMENT DWORD USE32 PUBLIC 'CONST'
CONST	ENDS
;	COMDAT ??_C@_09LJBJJPCG@RegServer?$AA@
CONST	SEGMENT DWORD USE32 PUBLIC 'CONST'
CONST	ENDS
;	COMDAT ??_C@_07LMLHFMEG@Service?$AA@
CONST	SEGMENT DWORD USE32 PUBLIC 'CONST'
CONST	ENDS
;	COMDAT ??_C@_07PNHNHBAB@Install?$AA@
CONST	SEGMENT DWORD USE32 PUBLIC 'CONST'
CONST	ENDS
;	COMDAT ??_C@_09LAEJNBCE@UnInstall?$AA@
CONST	SEGMENT DWORD USE32 PUBLIC 'CONST'
CONST	ENDS
;	COMDAT ??_C@_04FABLJDN@Name?$AA@
CONST	SEGMENT DWORD USE32 PUBLIC 'CONST'
CONST	ENDS
;	COMDAT ??_C@_01CLKCMJKC@?5?$AA@
CONST	SEGMENT DWORD USE32 PUBLIC 'CONST'
CONST	ENDS
;	COMDAT ??_C@_0M@DBFDLFJJ@?$CFs?5?9Name?5?$CFs?$AA@
CONST	SEGMENT DWORD USE32 PUBLIC 'CONST'
CONST	ENDS
;	COMDAT ??_C@_0BP@GECJKCAK@Could?5not?5open?5Service?5Manager?$AA@
CONST	SEGMENT DWORD USE32 PUBLIC 'CONST'
CONST	ENDS
;	COMDAT ??_C@_06HCEGMCNE@RPCSS?$AA?$AA@
CONST	SEGMENT DWORD USE32 PUBLIC 'CONST'
CONST	ENDS
;	COMDAT ??_C@_0BI@HDJFCBEP@Could?5not?5start?5service?$AA@
CONST	SEGMENT DWORD USE32 PUBLIC 'CONST'
CONST	ENDS
;	COMDAT ??_C@_08GOBPOGDO@?$CFY?9?$CFm?9?$CFd?$AA@
CONST	SEGMENT DWORD USE32 PUBLIC 'CONST'
CONST	ENDS
;	COMDAT ??_C@_0BH@JMOCNDDL@Could?5not?5open?5service?$AA@
CONST	SEGMENT DWORD USE32 PUBLIC 'CONST'
CONST	ENDS
;	COMDAT ??_C@_0BH@GKJBBOLK@Could?5not?5stop?5service?$AA@
CONST	SEGMENT DWORD USE32 PUBLIC 'CONST'
CONST	ENDS
;	COMDAT ??_C@_0BJ@NMBIIKKI@Could?5not?5delete?5service?$AA@
CONST	SEGMENT DWORD USE32 PUBLIC 'CONST'
CONST	ENDS
;	COMDAT ??_C@_0BE@JONHPENG@map?1set?$DMT?$DO?5too?5long?$AA@
CONST	SEGMENT DWORD USE32 PUBLIC 'CONST'
CONST	ENDS
text$yc	SEGMENT PARA USE32 PUBLIC 'CODE'
text$yc	ENDS
CRT$XCA	SEGMENT DWORD USE32 PUBLIC 'DATA'
CRT$XCA	ENDS
CRT$XCU	SEGMENT DWORD USE32 PUBLIC 'DATA'
CRT$XCU	ENDS
CRT$XCL	SEGMENT DWORD USE32 PUBLIC 'DATA'
CRT$XCL	ENDS
CRT$XCC	SEGMENT DWORD USE32 PUBLIC 'DATA'
CRT$XCC	ENDS
CRT$XCZ	SEGMENT DWORD USE32 PUBLIC 'DATA'
CRT$XCZ	ENDS
text$yd	SEGMENT PARA USE32 PUBLIC 'CODE'
text$yd	ENDS
ATL$__m	SEGMENT DWORD USE32 PUBLIC ''
ATL$__m	ENDS
ATL$__z	SEGMENT DWORD USE32 PUBLIC ''
ATL$__z	ENDS
ATL$__a	SEGMENT DWORD USE32 PUBLIC ''
ATL$__a	ENDS
xdata$x	SEGMENT DWORD USE32 PUBLIC 'CONST'
xdata$x	ENDS
;	COMDAT ?GetAppId@CTWorldSvrModule@@SAPBGXZ
_TEXT	SEGMENT PARA USE32 PUBLIC 'CODE'
_TEXT	ENDS
;	COMDAT ?GetAppIdT@CTWorldSvrModule@@SAPADXZ
_TEXT	SEGMENT PARA USE32 PUBLIC 'CODE'
_TEXT	ENDS
;	COMDAT ?UpdateRegistryAppId@CTWorldSvrModule@@SGJH@Z
_TEXT	SEGMENT PARA USE32 PUBLIC 'CODE'
_TEXT	ENDS
;	COMDAT ?RegisterAppId@CTWorldSvrModule@@QAEJ_N@Z
_TEXT	SEGMENT PARA USE32 PUBLIC 'CODE'
_TEXT	ENDS
;	COMDAT ?Install@CTWorldSvrModule@@QAEHXZ
_TEXT	SEGMENT PARA USE32 PUBLIC 'CODE'
_TEXT	ENDS
;	COMDAT ??0CTGuild@@QAE@XZ
_TEXT	SEGMENT PARA USE32 PUBLIC 'CODE'
_TEXT	ENDS
;	COMDAT ??1?$map@KPAUtagTITEM@@U?$less@K@std@@V?$allocator@U?$pair@$$CBKPAUtagTITEM@@@std@@@3@@std@@QAE@XZ
_TEXT	SEGMENT PARA USE32 PUBLIC 'CODE'
_TEXT	ENDS
;	COMDAT ??1?$map@KPAUtagTGUILDMEMBER@@U?$less@K@std@@V?$allocator@U?$pair@$$CBKPAUtagTGUILDMEMBER@@@std@@@3@@std@@QAE@XZ
_TEXT	SEGMENT PARA USE32 PUBLIC 'CODE'
_TEXT	ENDS
;	COMDAT ??1?$map@KPAUtagTTACTICSMEMBER@@U?$less@K@std@@V?$allocator@U?$pair@$$CBKPAUtagTTACTICSMEMBER@@@std@@@3@@std@@QAE@XZ
_TEXT	SEGMENT PARA USE32 PUBLIC 'CODE'
_TEXT	ENDS
;	COMDAT ??1?$map@KPAUtagTGUILDARTICLE@@U?$less@K@std@@V?$allocator@U?$pair@$$CBKPAUtagTGUILDARTICLE@@@std@@@3@@std@@QAE@XZ
_TEXT	SEGMENT PARA USE32 PUBLIC 'CODE'
_TEXT	ENDS
;	COMDAT ??1CTGuild@@QAE@XZ
_TEXT	SEGMENT PARA USE32 PUBLIC 'CODE'
_TEXT	ENDS
;	COMDAT ??_GtagTGUILDARTICLE@@QAEPAXI@Z
_TEXT	SEGMENT PARA USE32 PUBLIC 'CODE'
_TEXT	ENDS
;	COMDAT ??_GtagTGUILDMEMBER@@QAEPAXI@Z
_TEXT	SEGMENT PARA USE32 PUBLIC 'CODE'
_TEXT	ENDS
;	COMDAT ??_GtagTTACTICSMEMBER@@QAEPAXI@Z
_TEXT	SEGMENT PARA USE32 PUBLIC 'CODE'
_TEXT	ENDS
;	COMDAT ??1tagTGUILDARTICLE@@QAE@XZ
_TEXT	SEGMENT PARA USE32 PUBLIC 'CODE'
_TEXT	ENDS
;	COMDAT ??1tagTGUILDMEMBER@@QAE@XZ
_TEXT	SEGMENT PARA USE32 PUBLIC 'CODE'
_TEXT	ENDS
;	COMDAT ??1tagTTACTICSMEMBER@@QAE@XZ
_TEXT	SEGMENT PARA USE32 PUBLIC 'CODE'
_TEXT	ENDS
;	COMDAT ?AddMember@CTGuild@@QAEEPAUtagTGUILDMEMBER@@@Z
_TEXT	SEGMENT PARA USE32 PUBLIC 'CODE'
_TEXT	ENDS
;	COMDAT ?DelMember@CTGuild@@QAEXPAUtagTGUILDMEMBER@@@Z
_TEXT	SEGMENT PARA USE32 PUBLIC 'CODE'
_TEXT	ENDS
;	COMDAT ?Designate@CTGuild@@QAEPAUtagTCHARACTER@@KE@Z
_TEXT	SEGMENT PARA USE32 PUBLIC 'CODE'
_TEXT	ENDS
;	COMDAT ?CreatePeerage@CTGuild@@QAEPAUtagTCHARACTER@@KE@Z
_TEXT	SEGMENT PARA USE32 PUBLIC 'CODE'
_TEXT	ENDS
;	COMDAT ?FindMember@CTGuild@@QAEPAUtagTGUILDMEMBER@@K@Z
_TEXT	SEGMENT PARA USE32 PUBLIC 'CODE'
_TEXT	ENDS
;	COMDAT ?FindMember@CTGuild@@QAEPAUtagTGUILDMEMBER@@V?$CStringT@DV?$StrTraitATL@DV?$ChTraitsCRT@D@ATL@@@ATL@@@ATL@@@Z
_TEXT	SEGMENT PARA USE32 PUBLIC 'CODE'
_TEXT	ENDS
;	COMDAT ?FindDesignate@CTGuild@@QAEPAUtagTGUILDMEMBER@@E@Z
_TEXT	SEGMENT PARA USE32 PUBLIC 'CODE'
_TEXT	ENDS
;	COMDAT ?FindChief@CTGuild@@QAEPAUtagTGUILDMEMBER@@XZ
_TEXT	SEGMENT PARA USE32 PUBLIC 'CODE'
_TEXT	ENDS
;	COMDAT ?FindDuty@CTGuild@@QAEEK@Z
_TEXT	SEGMENT PARA USE32 PUBLIC 'CODE'
_TEXT	ENDS
;	COMDAT ?FindPeer@CTGuild@@QAEEK@Z
_TEXT	SEGMENT PARA USE32 PUBLIC 'CODE'
_TEXT	ENDS
;	COMDAT ?SetMemberConnection@CTGuild@@QAEXKPAUtagTCHARACTER@@_J@Z
_TEXT	SEGMENT PARA USE32 PUBLIC 'CODE'
_TEXT	ENDS
;	COMDAT ?SetMemberLevel@CTGuild@@QAEXKE@Z
_TEXT	SEGMENT PARA USE32 PUBLIC 'CODE'
_TEXT	ENDS
;	COMDAT ?CheckPeerage@CTGuild@@QAEEEE@Z
_TEXT	SEGMENT PARA USE32 PUBLIC 'CODE'
_TEXT	ENDS
;	COMDAT ?GetMaxMemberCnt@CTGuild@@QAEEXZ
_TEXT	SEGMENT PARA USE32 PUBLIC 'CODE'
_TEXT	ENDS
;	COMDAT ?GetMemberSize@CTGuild@@QAEEXZ
_TEXT	SEGMENT PARA USE32 PUBLIC 'CODE'
_TEXT	ENDS
;	COMDAT ?CanAddMember@CTGuild@@QAEEXZ
_TEXT	SEGMENT PARA USE32 PUBLIC 'CODE'
_TEXT	ENDS
;	COMDAT ?CanAddTactics@CTGuild@@QAEEXZ
_TEXT	SEGMENT PARA USE32 PUBLIC 'CODE'
_TEXT	ENDS
;	COMDAT ?UpdateLevel@CTGuild@@QAEXXZ
_TEXT	SEGMENT PARA USE32 PUBLIC 'CODE'
_TEXT	ENDS
;	COMDAT ?GainEXP@CTGuild@@QAEEPAUtagTGUILDMEMBER@@K@Z
_TEXT	SEGMENT PARA USE32 PUBLIC 'CODE'
_TEXT	ENDS
;	COMDAT ?GainMoney@CTGuild@@QAEEKKK@Z
_TEXT	SEGMENT PARA USE32 PUBLIC 'CODE'
_TEXT	ENDS
;	COMDAT ?UseMoney@CTGuild@@QAEE_JE@Z
_TEXT	SEGMENT PARA USE32 PUBLIC 'CODE'
_TEXT	ENDS
;	COMDAT ?UseMoney@CTGuild@@QAEEKKKE@Z
_TEXT	SEGMENT PARA USE32 PUBLIC 'CODE'
_TEXT	ENDS
;	COMDAT ?Contribution@CTGuild@@QAEEKKKKKK@Z
_TEXT	SEGMENT PARA USE32 PUBLIC 'CODE'
_TEXT	ENDS
;	COMDAT ?GetArticleSize@CTGuild@@QAEEXZ
_TEXT	SEGMENT PARA USE32 PUBLIC 'CODE'
_TEXT	ENDS
;	COMDAT ?AddArticle@CTGuild@@QAEXKEV?$CStringT@DV?$StrTraitATL@DV?$ChTraitsCRT@D@ATL@@@ATL@@@ATL@@00K@Z
_TEXT	SEGMENT PARA USE32 PUBLIC 'CODE'
_TEXT	ENDS
;	COMDAT ??0tagTGUILDARTICLE@@QAE@XZ
_TEXT	SEGMENT PARA USE32 PUBLIC 'CODE'
_TEXT	ENDS
;	COMDAT ?AddArticle@CTGuild@@QAEKEV?$CStringT@DV?$StrTraitATL@DV?$ChTraitsCRT@D@ATL@@@ATL@@@ATL@@00K@Z
_TEXT	SEGMENT PARA USE32 PUBLIC 'CODE'
_TEXT	ENDS
;	COMDAT ?DelArticle@CTGuild@@QAEEK@Z
_TEXT	SEGMENT PARA USE32 PUBLIC 'CODE'
_TEXT	ENDS
;	COMDAT ?UpdateArticle@CTGuild@@QAEEKV?$CStringT@DV?$StrTraitATL@DV?$ChTraitsCRT@D@ATL@@@ATL@@@ATL@@0@Z
_TEXT	SEGMENT PARA USE32 PUBLIC 'CODE'
_TEXT	ENDS
;	COMDAT ?SetFame@CTGuild@@QAEXKK@Z
_TEXT	SEGMENT PARA USE32 PUBLIC 'CODE'
_TEXT	ENDS
;	COMDAT ?GetCabinetSize@CTGuild@@QAEEXZ
_TEXT	SEGMENT PARA USE32 PUBLIC 'CODE'
_TEXT	ENDS
;	COMDAT ?PutInItem@CTGuild@@QAEXKPAUtagTITEM@@@Z
_TEXT	SEGMENT PARA USE32 PUBLIC 'CODE'
_TEXT	ENDS
;	COMDAT ?FindCabinetItem@CTGuild@@QAEPAUtagTITEM@@K@Z
_TEXT	SEGMENT PARA USE32 PUBLIC 'CODE'
_TEXT	ENDS
;	COMDAT ?TakeOutItem@CTGuild@@QAEEKE@Z
_TEXT	SEGMENT PARA USE32 PUBLIC 'CODE'
_TEXT	ENDS
;	COMDAT ?FindTactics@CTGuild@@QAEPAUtagTTACTICSMEMBER@@K@Z
_TEXT	SEGMENT PARA USE32 PUBLIC 'CODE'
_TEXT	ENDS
;	COMDAT ?FindTactics@CTGuild@@QAEPAUtagTTACTICSMEMBER@@V?$CStringT@DV?$StrTraitATL@DV?$ChTraitsCRT@D@ATL@@@ATL@@@ATL@@@Z
_TEXT	SEGMENT PARA USE32 PUBLIC 'CODE'
_TEXT	ENDS
;	COMDAT ?SetTacticsConnection@CTGuild@@QAEXKPAUtagTCHARACTER@@@Z
_TEXT	SEGMENT PARA USE32 PUBLIC 'CODE'
_TEXT	ENDS
;	COMDAT ?GainPvPoint@CTGuild@@QAEXKEE@Z
_TEXT	SEGMENT PARA USE32 PUBLIC 'CODE'
_TEXT	ENDS
;	COMDAT ?UsePvPoint@CTGuild@@QAEXKE@Z
_TEXT	SEGMENT PARA USE32 PUBLIC 'CODE'
_TEXT	ENDS
;	COMDAT ?PointLog@CTGuild@@QAEXKV?$CStringT@DV?$StrTraitATL@DV?$ChTraitsCRT@D@ATL@@@ATL@@@ATL@@_J@Z
_TEXT	SEGMENT PARA USE32 PUBLIC 'CODE'
_TEXT	ENDS
;	COMDAT ??0tagTGUILDPOINTREWARD@@QAE@XZ
_TEXT	SEGMENT PARA USE32 PUBLIC 'CODE'
_TEXT	ENDS
;	COMDAT ??1tagTGUILDPOINTREWARD@@QAE@XZ
_TEXT	SEGMENT PARA USE32 PUBLIC 'CODE'
_TEXT	ENDS
;	COMDAT ?CalcWeekRecord@CTGuild@@QAEXK@Z
_TEXT	SEGMENT PARA USE32 PUBLIC 'CODE'
_TEXT	ENDS
;	COMDAT ?CalcWeekRecord@CTGuild@@QAEXPAUtagTGUILDMEMBER@@K@Z
_TEXT	SEGMENT PARA USE32 PUBLIC 'CODE'
_TEXT	ENDS
;	COMDAT ?CanApplyWar@CTGuild@@QAEEG@Z
_TEXT	SEGMENT PARA USE32 PUBLIC 'CODE'
_TEXT	ENDS
;	COMDAT ?AddTactics@CTGuild@@QAEEPAUtagTTACTICSMEMBER@@@Z
_TEXT	SEGMENT PARA USE32 PUBLIC 'CODE'
_TEXT	ENDS
;	COMDAT ?DelTactics@CTGuild@@QAEEPAUtagTTACTICSMEMBER@@E@Z
_TEXT	SEGMENT PARA USE32 PUBLIC 'CODE'
_TEXT	ENDS
;	COMDAT ?GetCastleApplicantCount@CTGuild@@QAEGG@Z
_TEXT	SEGMENT PARA USE32 PUBLIC 'CODE'
_TEXT	ENDS
;	COMDAT ?GetCastleApplicantCount@CTGuild@@QAEXPAV?$map@GGU?$less@G@std@@V?$allocator@U?$pair@$$CBGG@std@@@2@@std@@@Z
_TEXT	SEGMENT PARA USE32 PUBLIC 'CODE'
_TEXT	ENDS
;	COMDAT ?Tokenize@?$CStringT@DV?$StrTraitATL@DV?$ChTraitsCRT@D@ATL@@@ATL@@@ATL@@QBE?AV12@PBDAAH@Z
_TEXT	SEGMENT PARA USE32 PUBLIC 'CODE'
_TEXT	ENDS
;	COMDAT ?Format@?$CStringT@DV?$StrTraitATL@DV?$ChTraitsCRT@D@ATL@@@ATL@@@ATL@@QAAXPBDZZ
_TEXT	SEGMENT PARA USE32 PUBLIC 'CODE'
_TEXT	ENDS
;	COMDAT ??8ATL@@YA_NABV?$CStringT@DV?$StrTraitATL@DV?$ChTraitsCRT@D@ATL@@@ATL@@@0@0@Z
_TEXT	SEGMENT PARA USE32 PUBLIC 'CODE'
_TEXT	ENDS
;	COMDAT ?begin@?$vector@UtagTENTRYRECORD@@V?$allocator@UtagTENTRYRECORD@@@std@@@std@@QAE?AViterator@12@XZ
_TEXT	SEGMENT PARA USE32 PUBLIC 'CODE'
_TEXT	ENDS
;	COMDAT ?size@?$vector@UtagTENTRYRECORD@@V?$allocator@UtagTENTRYRECORD@@@std@@@std@@QBEIXZ
_TEXT	SEGMENT PARA USE32 PUBLIC 'CODE'
_TEXT	ENDS
;	COMDAT ??A?$vector@UtagTENTRYRECORD@@V?$allocator@UtagTENTRYRECORD@@@std@@@std@@QAEAAUtagTENTRYRECORD@@I@Z
_TEXT	SEGMENT PARA USE32 PUBLIC 'CODE'
_TEXT	ENDS
;	COMDAT ?erase@?$vector@UtagTENTRYRECORD@@V?$allocator@UtagTENTRYRECORD@@@std@@@std@@QAE?AViterator@12@V312@@Z
_TEXT	SEGMENT PARA USE32 PUBLIC 'CODE'
_TEXT	ENDS
;	COMDAT ??1?$vector@GV?$allocator@G@std@@@std@@QAE@XZ
_TEXT	SEGMENT PARA USE32 PUBLIC 'CODE'
_TEXT	ENDS
;	COMDAT ??0?$map@KPAUtagTITEM@@U?$less@K@std@@V?$allocator@U?$pair@$$CBKPAUtagTITEM@@@std@@@3@@std@@QAE@XZ
_TEXT	SEGMENT PARA USE32 PUBLIC 'CODE'
_TEXT	ENDS
;	COMDAT ??1?$_Tree@V?$_Tmap_traits@KPAUtagTITEM@@U?$less@K@std@@V?$allocator@U?$pair@$$CBKPAUtagTITEM@@@std@@@3@$0A@@std@@@std@@QAE@XZ
_TEXT	SEGMENT PARA USE32 PUBLIC 'CODE'
_TEXT	ENDS
;	COMDAT ?begin@?$_Tree@V?$_Tmap_traits@KPAUtagTITEM@@U?$less@K@std@@V?$allocator@U?$pair@$$CBKPAUtagTITEM@@@std@@@3@$0A@@std@@@std@@QAE?AViterator@12@XZ
_TEXT	SEGMENT PARA USE32 PUBLIC 'CODE'
_TEXT	ENDS
;	COMDAT ?end@?$_Tree@V?$_Tmap_traits@KPAUtagTITEM@@U?$less@K@std@@V?$allocator@U?$pair@$$CBKPAUtagTITEM@@@std@@@3@$0A@@std@@@std@@QAE?AViterator@12@XZ
_TEXT	SEGMENT PARA USE32 PUBLIC 'CODE'
_TEXT	ENDS
;	COMDAT ?size@?$_Tree@V?$_Tmap_traits@KPAUtagTITEM@@U?$less@K@std@@V?$allocator@U?$pair@$$CBKPAUtagTITEM@@@std@@@3@$0A@@std@@@std@@QBEIXZ
_TEXT	SEGMENT PARA USE32 PUBLIC 'CODE'
_TEXT	ENDS
;	COMDAT ?insert@?$_Tree@V?$_Tmap_traits@KPAUtagTITEM@@U?$less@K@std@@V?$allocator@U?$pair@$$CBKPAUtagTITEM@@@std@@@3@$0A@@std@@@std@@QAE?AU?$pair@Viterator@?$_Tree@V?$_Tmap_traits@KPAUtagTITEM@@U?$less@K@std@@V?$allocator@U?$pair@$$CBKPAUtagTITEM@@@std@@@3@$0A@@std@@@std@@_N@2@ABU?$pair@$$CBKPAUtagTITEM@@@2@@Z
_TEXT	SEGMENT PARA USE32 PUBLIC 'CODE'
_TEXT	ENDS
;	COMDAT ?erase@?$_Tree@V?$_Tmap_traits@KPAUtagTITEM@@U?$less@K@std@@V?$allocator@U?$pair@$$CBKPAUtagTITEM@@@std@@@3@$0A@@std@@@std@@QAEIABK@Z
_TEXT	SEGMENT PARA USE32 PUBLIC 'CODE'
_TEXT	ENDS
;	COMDAT ?clear@?$_Tree@V?$_Tmap_traits@KPAUtagTITEM@@U?$less@K@std@@V?$allocator@U?$pair@$$CBKPAUtagTITEM@@@std@@@3@$0A@@std@@@std@@QAEXXZ
_TEXT	SEGMENT PARA USE32 PUBLIC 'CODE'
_TEXT	ENDS
;	COMDAT ?find@?$_Tree@V?$_Tmap_traits@KPAUtagTITEM@@U?$less@K@std@@V?$allocator@U?$pair@$$CBKPAUtagTITEM@@@std@@@3@$0A@@std@@@std@@QAE?AViterator@12@ABK@Z
_TEXT	SEGMENT PARA USE32 PUBLIC 'CODE'
_TEXT	ENDS
;	COMDAT ??0?$map@KPAUtagTGUILDMEMBER@@U?$less@K@std@@V?$allocator@U?$pair@$$CBKPAUtagTGUILDMEMBER@@@std@@@3@@std@@QAE@XZ
_TEXT	SEGMENT PARA USE32 PUBLIC 'CODE'
_TEXT	ENDS
;	COMDAT ??1?$_Tree@V?$_Tmap_traits@KPAUtagTGUILDMEMBER@@U?$less@K@std@@V?$allocator@U?$pair@$$CBKPAUtagTGUILDMEMBER@@@std@@@3@$0A@@std@@@std@@QAE@XZ
_TEXT	SEGMENT PARA USE32 PUBLIC 'CODE'
_TEXT	ENDS
;	COMDAT ?begin@?$_Tree@V?$_Tmap_traits@KPAUtagTGUILDMEMBER@@U?$less@K@std@@V?$allocator@U?$pair@$$CBKPAUtagTGUILDMEMBER@@@std@@@3@$0A@@std@@@std@@QAE?AViterator@12@XZ
_TEXT	SEGMENT PARA USE32 PUBLIC 'CODE'
_TEXT	ENDS
;	COMDAT ?end@?$_Tree@V?$_Tmap_traits@KPAUtagTGUILDMEMBER@@U?$less@K@std@@V?$allocator@U?$pair@$$CBKPAUtagTGUILDMEMBER@@@std@@@3@$0A@@std@@@std@@QAE?AViterator@12@XZ
_TEXT	SEGMENT PARA USE32 PUBLIC 'CODE'
_TEXT	ENDS
;	COMDAT ?size@?$_Tree@V?$_Tmap_traits@KPAUtagTGUILDMEMBER@@U?$less@K@std@@V?$allocator@U?$pair@$$CBKPAUtagTGUILDMEMBER@@@std@@@3@$0A@@std@@@std@@QBEIXZ
_TEXT	SEGMENT PARA USE32 PUBLIC 'CODE'
_TEXT	ENDS
;	COMDAT ?insert@?$_Tree@V?$_Tmap_traits@KPAUtagTGUILDMEMBER@@U?$less@K@std@@V?$allocator@U?$pair@$$CBKPAUtagTGUILDMEMBER@@@std@@@3@$0A@@std@@@std@@QAE?AU?$pair@Viterator@?$_Tree@V?$_Tmap_traits@KPAUtagTGUILDMEMBER@@U?$less@K@std@@V?$allocator@U?$pair@$$CBKPAUtagTGUILDMEMBER@@@std@@@3@$0A@@std@@@std@@_N@2@ABU?$pair@$$CBKPAUtagTGUILDMEMBER@@@2@@Z
_TEXT	SEGMENT PARA USE32 PUBLIC 'CODE'
_TEXT	ENDS
;	COMDAT ?erase@?$_Tree@V?$_Tmap_traits@KPAUtagTGUILDMEMBER@@U?$less@K@std@@V?$allocator@U?$pair@$$CBKPAUtagTGUILDMEMBER@@@std@@@3@$0A@@std@@@std@@QAEIABK@Z
_TEXT	SEGMENT PARA USE32 PUBLIC 'CODE'
_TEXT	ENDS
;	COMDAT ?clear@?$_Tree@V?$_Tmap_traits@KPAUtagTGUILDMEMBER@@U?$less@K@std@@V?$allocator@U?$pair@$$CBKPAUtagTGUILDMEMBER@@@std@@@3@$0A@@std@@@std@@QAEXXZ
_TEXT	SEGMENT PARA USE32 PUBLIC 'CODE'
_TEXT	ENDS
;	COMDAT ?find@?$_Tree@V?$_Tmap_traits@KPAUtagTGUILDMEMBER@@U?$less@K@std@@V?$allocator@U?$pair@$$CBKPAUtagTGUILDMEMBER@@@std@@@3@$0A@@std@@@std@@QAE?AViterator@12@ABK@Z
_TEXT	SEGMENT PARA USE32 PUBLIC 'CODE'
_TEXT	ENDS
;	COMDAT ??0?$map@KPAUtagTTACTICSMEMBER@@U?$less@K@std@@V?$allocator@U?$pair@$$CBKPAUtagTTACTICSMEMBER@@@std@@@3@@std@@QAE@XZ
_TEXT	SEGMENT PARA USE32 PUBLIC 'CODE'
_TEXT	ENDS
;	COMDAT ??1?$_Tree@V?$_Tmap_traits@KPAUtagTTACTICSMEMBER@@U?$less@K@std@@V?$allocator@U?$pair@$$CBKPAUtagTTACTICSMEMBER@@@std@@@3@$0A@@std@@@std@@QAE@XZ
_TEXT	SEGMENT PARA USE32 PUBLIC 'CODE'
_TEXT	ENDS
;	COMDAT ?begin@?$_Tree@V?$_Tmap_traits@KPAUtagTTACTICSMEMBER@@U?$less@K@std@@V?$allocator@U?$pair@$$CBKPAUtagTTACTICSMEMBER@@@std@@@3@$0A@@std@@@std@@QAE?AViterator@12@XZ
_TEXT	SEGMENT PARA USE32 PUBLIC 'CODE'
_TEXT	ENDS
;	COMDAT ?end@?$_Tree@V?$_Tmap_traits@KPAUtagTTACTICSMEMBER@@U?$less@K@std@@V?$allocator@U?$pair@$$CBKPAUtagTTACTICSMEMBER@@@std@@@3@$0A@@std@@@std@@QAE?AViterator@12@XZ
_TEXT	SEGMENT PARA USE32 PUBLIC 'CODE'
_TEXT	ENDS
;	COMDAT ?size@?$_Tree@V?$_Tmap_traits@KPAUtagTTACTICSMEMBER@@U?$less@K@std@@V?$allocator@U?$pair@$$CBKPAUtagTTACTICSMEMBER@@@std@@@3@$0A@@std@@@std@@QBEIXZ
_TEXT	SEGMENT PARA USE32 PUBLIC 'CODE'
_TEXT	ENDS
;	COMDAT ?insert@?$_Tree@V?$_Tmap_traits@KPAUtagTTACTICSMEMBER@@U?$less@K@std@@V?$allocator@U?$pair@$$CBKPAUtagTTACTICSMEMBER@@@std@@@3@$0A@@std@@@std@@QAE?AU?$pair@Viterator@?$_Tree@V?$_Tmap_traits@KPAUtagTTACTICSMEMBER@@U?$less@K@std@@V?$allocator@U?$pair@$$CBKPAUtagTTACTICSMEMBER@@@std@@@3@$0A@@std@@@std@@_N@2@ABU?$pair@$$CBKPAUtagTTACTICSMEMBER@@@2@@Z
_TEXT	SEGMENT PARA USE32 PUBLIC 'CODE'
_TEXT	ENDS
;	COMDAT ?erase@?$_Tree@V?$_Tmap_traits@KPAUtagTTACTICSMEMBER@@U?$less@K@std@@V?$allocator@U?$pair@$$CBKPAUtagTTACTICSMEMBER@@@std@@@3@$0A@@std@@@std@@QAEIABK@Z
_TEXT	SEGMENT PARA USE32 PUBLIC 'CODE'
_TEXT	ENDS
;	COMDAT ?clear@?$_Tree@V?$_Tmap_traits@KPAUtagTTACTICSMEMBER@@U?$less@K@std@@V?$allocator@U?$pair@$$CBKPAUtagTTACTICSMEMBER@@@std@@@3@$0A@@std@@@std@@QAEXXZ
_TEXT	SEGMENT PARA USE32 PUBLIC 'CODE'
_TEXT	ENDS
;	COMDAT ?find@?$_Tree@V?$_Tmap_traits@KPAUtagTTACTICSMEMBER@@U?$less@K@std@@V?$allocator@U?$pair@$$CBKPAUtagTTACTICSMEMBER@@@std@@@3@$0A@@std@@@std@@QAE?AViterator@12@ABK@Z
_TEXT	SEGMENT PARA USE32 PUBLIC 'CODE'
_TEXT	ENDS
;	COMDAT ??0?$map@KPAUtagTGUILDARTICLE@@U?$less@K@std@@V?$allocator@U?$pair@$$CBKPAUtagTGUILDARTICLE@@@std@@@3@@std@@QAE@XZ
_TEXT	SEGMENT PARA USE32 PUBLIC 'CODE'
_TEXT	ENDS
;	COMDAT ??1?$_Tree@V?$_Tmap_traits@KPAUtagTGUILDARTICLE@@U?$less@K@std@@V?$allocator@U?$pair@$$CBKPAUtagTGUILDARTICLE@@@std@@@3@$0A@@std@@@std@@QAE@XZ
_TEXT	SEGMENT PARA USE32 PUBLIC 'CODE'
_TEXT	ENDS
;	COMDAT ?begin@?$_Tree@V?$_Tmap_traits@KPAUtagTGUILDARTICLE@@U?$less@K@std@@V?$allocator@U?$pair@$$CBKPAUtagTGUILDARTICLE@@@std@@@3@$0A@@std@@@std@@QAE?AViterator@12@XZ
_TEXT	SEGMENT PARA USE32 PUBLIC 'CODE'
_TEXT	ENDS
;	COMDAT ?end@?$_Tree@V?$_Tmap_traits@KPAUtagTGUILDARTICLE@@U?$less@K@std@@V?$allocator@U?$pair@$$CBKPAUtagTGUILDARTICLE@@@std@@@3@$0A@@std@@@std@@QAE?AViterator@12@XZ
_TEXT	SEGMENT PARA USE32 PUBLIC 'CODE'
_TEXT	ENDS
;	COMDAT ?size@?$_Tree@V?$_Tmap_traits@KPAUtagTGUILDARTICLE@@U?$less@K@std@@V?$allocator@U?$pair@$$CBKPAUtagTGUILDARTICLE@@@std@@@3@$0A@@std@@@std@@QBEIXZ
_TEXT	SEGMENT PARA USE32 PUBLIC 'CODE'
_TEXT	ENDS
;	COMDAT ?insert@?$_Tree@V?$_Tmap_traits@KPAUtagTGUILDARTICLE@@U?$less@K@std@@V?$allocator@U?$pair@$$CBKPAUtagTGUILDARTICLE@@@std@@@3@$0A@@std@@@std@@QAE?AU?$pair@Viterator@?$_Tree@V?$_Tmap_traits@KPAUtagTGUILDARTICLE@@U?$less@K@std@@V?$allocator@U?$pair@$$CBKPAUtagTGUILDARTICLE@@@std@@@3@$0A@@std@@@std@@_N@2@ABU?$pair@$$CBKPAUtagTGUILDARTICLE@@@2@@Z
_TEXT	SEGMENT PARA USE32 PUBLIC 'CODE'
_TEXT	ENDS
;	COMDAT ?erase@?$_Tree@V?$_Tmap_traits@KPAUtagTGUILDARTICLE@@U?$less@K@std@@V?$allocator@U?$pair@$$CBKPAUtagTGUILDARTICLE@@@std@@@3@$0A@@std@@@std@@QAEIABK@Z
_TEXT	SEGMENT PARA USE32 PUBLIC 'CODE'
_TEXT	ENDS
;	COMDAT ?clear@?$_Tree@V?$_Tmap_traits@KPAUtagTGUILDARTICLE@@U?$less@K@std@@V?$allocator@U?$pair@$$CBKPAUtagTGUILDARTICLE@@@std@@@3@$0A@@std@@@std@@QAEXXZ
_TEXT	SEGMENT PARA USE32 PUBLIC 'CODE'
_TEXT	ENDS
;	COMDAT ?find@?$_Tree@V?$_Tmap_traits@KPAUtagTGUILDARTICLE@@U?$less@K@std@@V?$allocator@U?$pair@$$CBKPAUtagTGUILDARTICLE@@@std@@@3@$0A@@std@@@std@@QAE?AViterator@12@ABK@Z
_TEXT	SEGMENT PARA USE32 PUBLIC 'CODE'
_TEXT	ENDS
;	COMDAT ??0?$vector@KV?$allocator@K@std@@@std@@QAE@XZ
_TEXT	SEGMENT PARA USE32 PUBLIC 'CODE'
_TEXT	ENDS
;	COMDAT ??1?$vector@KV?$allocator@K@std@@@std@@QAE@XZ
_TEXT	SEGMENT PARA USE32 PUBLIC 'CODE'
_TEXT	ENDS
;	COMDAT ?clear@?$vector@KV?$allocator@K@std@@@std@@QAEXXZ
_TEXT	SEGMENT PARA USE32 PUBLIC 'CODE'
_TEXT	ENDS
;	COMDAT ??0?$vector@UtagTGUILDPOINTREWARD@@V?$allocator@UtagTGUILDPOINTREWARD@@@std@@@std@@QAE@XZ
_TEXT	SEGMENT PARA USE32 PUBLIC 'CODE'
_TEXT	ENDS
;	COMDAT ??1?$vector@UtagTGUILDPOINTREWARD@@V?$allocator@UtagTGUILDPOINTREWARD@@@std@@@std@@QAE@XZ
_TEXT	SEGMENT PARA USE32 PUBLIC 'CODE'
_TEXT	ENDS
;	COMDAT ?begin@?$vector@UtagTGUILDPOINTREWARD@@V?$allocator@UtagTGUILDPOINTREWARD@@@std@@@std@@QAE?AViterator@12@XZ
_TEXT	SEGMENT PARA USE32 PUBLIC 'CODE'
_TEXT	ENDS
;	COMDAT ?size@?$vector@UtagTGUILDPOINTREWARD@@V?$allocator@UtagTGUILDPOINTREWARD@@@std@@@std@@QBEIXZ
_TEXT	SEGMENT PARA USE32 PUBLIC 'CODE'
_TEXT	ENDS
;	COMDAT ?pop_back@?$vector@UtagTGUILDPOINTREWARD@@V?$allocator@UtagTGUILDPOINTREWARD@@@std@@@std@@QAEXXZ
_TEXT	SEGMENT PARA USE32 PUBLIC 'CODE'
_TEXT	ENDS
;	COMDAT ?insert@?$vector@UtagTGUILDPOINTREWARD@@V?$allocator@UtagTGUILDPOINTREWARD@@@std@@@std@@QAE?AViterator@12@V312@ABUtagTGUILDPOINTREWARD@@@Z
_TEXT	SEGMENT PARA USE32 PUBLIC 'CODE'
_TEXT	ENDS
;	COMDAT ?clear@?$vector@UtagTGUILDPOINTREWARD@@V?$allocator@UtagTGUILDPOINTREWARD@@@std@@@std@@QAEXXZ
_TEXT	SEGMENT PARA USE32 PUBLIC 'CODE'
_TEXT	ENDS
;	COMDAT ?UnregisterAppId@?$CAtlServiceModuleT@VCTWorldSvrModule@@$0GE@@ATL@@QAEJXZ
_TEXT	SEGMENT PARA USE32 PUBLIC 'CODE'
_TEXT	ENDS
;	COMDAT ?IsInstalled@?$CAtlServiceModuleT@VCTWorldSvrModule@@$0GE@@ATL@@QAEHXZ
_TEXT	SEGMENT PARA USE32 PUBLIC 'CODE'
_TEXT	ENDS
;	COMDAT ?Uninstall@?$CAtlServiceModuleT@VCTWorldSvrModule@@$0GE@@ATL@@QAEHXZ
_TEXT	SEGMENT PARA USE32 PUBLIC 'CODE'
_TEXT	ENDS
;	COMDAT ??1?$CAtlExeModuleT@VCTWorldSvrModule@@@ATL@@UAE@XZ
_TEXT	SEGMENT PARA USE32 PUBLIC 'CODE'
_TEXT	ENDS
;	COMDAT ?Unlock@?$CAtlExeModuleT@VCTWorldSvrModule@@@ATL@@UAEJXZ
_TEXT	SEGMENT PARA USE32 PUBLIC 'CODE'
_TEXT	ENDS
;	COMDAT ?RegisterServer@?$CAtlModuleT@VCTWorldSvrModule@@@ATL@@QAEJHPBU_GUID@@@Z
_TEXT	SEGMENT PARA USE32 PUBLIC 'CODE'
_TEXT	ENDS
;	COMDAT ?UnregisterServer@?$CAtlModuleT@VCTWorldSvrModule@@@ATL@@QAEJHPBU_GUID@@@Z
_TEXT	SEGMENT PARA USE32 PUBLIC 'CODE'
_TEXT	ENDS
;	COMDAT ?AddCommonRGSReplacements@?$CAtlModuleT@VCTWorldSvrModule@@@ATL@@UAEJPAUIRegistrarBase@@@Z
_TEXT	SEGMENT PARA USE32 PUBLIC 'CODE'
_TEXT	ENDS
;	COMDAT ??0iterator@?$_Tree@V?$_Tmap_traits@KPAUtagTGUILDARTICLE@@U?$less@K@std@@V?$allocator@U?$pair@$$CBKPAUtagTGUILDARTICLE@@@std@@@3@$0A@@std@@@std@@QAE@XZ
_TEXT	SEGMENT PARA USE32 PUBLIC 'CODE'
_TEXT	ENDS
;	COMDAT ??Diterator@?$_Tree@V?$_Tmap_traits@KPAUtagTGUILDARTICLE@@U?$less@K@std@@V?$allocator@U?$pair@$$CBKPAUtagTGUILDARTICLE@@@std@@@3@$0A@@std@@@std@@QBEAAU?$pair@$$CBKPAUtagTGUILDARTICLE@@@2@XZ
_TEXT	SEGMENT PARA USE32 PUBLIC 'CODE'
_TEXT	ENDS
;	COMDAT ??Eiterator@?$_Tree@V?$_Tmap_traits@KPAUtagTGUILDARTICLE@@U?$less@K@std@@V?$allocator@U?$pair@$$CBKPAUtagTGUILDARTICLE@@@std@@@3@$0A@@std@@@std@@QAE?AV012@H@Z
_TEXT	SEGMENT PARA USE32 PUBLIC 'CODE'
_TEXT	ENDS
;	COMDAT ??9const_iterator@?$_Tree@V?$_Tmap_traits@KPAUtagTGUILDARTICLE@@U?$less@K@std@@V?$allocator@U?$pair@$$CBKPAUtagTGUILDARTICLE@@@std@@@3@$0A@@std@@@std@@QBE_NABV012@@Z
_TEXT	SEGMENT PARA USE32 PUBLIC 'CODE'
_TEXT	ENDS
;	COMDAT ??0iterator@?$_Tree@V?$_Tmap_traits@KPAUtagTITEM@@U?$less@K@std@@V?$allocator@U?$pair@$$CBKPAUtagTITEM@@@std@@@3@$0A@@std@@@std@@QAE@XZ
_TEXT	SEGMENT PARA USE32 PUBLIC 'CODE'
_TEXT	ENDS
;	COMDAT ??Diterator@?$_Tree@V?$_Tmap_traits@KPAUtagTITEM@@U?$less@K@std@@V?$allocator@U?$pair@$$CBKPAUtagTITEM@@@std@@@3@$0A@@std@@@std@@QBEAAU?$pair@$$CBKPAUtagTITEM@@@2@XZ
_TEXT	SEGMENT PARA USE32 PUBLIC 'CODE'
_TEXT	ENDS
;	COMDAT ??Eiterator@?$_Tree@V?$_Tmap_traits@KPAUtagTITEM@@U?$less@K@std@@V?$allocator@U?$pair@$$CBKPAUtagTITEM@@@std@@@3@$0A@@std@@@std@@QAE?AV012@H@Z
_TEXT	SEGMENT PARA USE32 PUBLIC 'CODE'
_TEXT	ENDS
;	COMDAT ??8const_iterator@?$_Tree@V?$_Tmap_traits@KPAUtagTITEM@@U?$less@K@std@@V?$allocator@U?$pair@$$CBKPAUtagTITEM@@@std@@@3@$0A@@std@@@std@@QBE_NABV012@@Z
_TEXT	SEGMENT PARA USE32 PUBLIC 'CODE'
_TEXT	ENDS
;	COMDAT ??9const_iterator@?$_Tree@V?$_Tmap_traits@KPAUtagTITEM@@U?$less@K@std@@V?$allocator@U?$pair@$$CBKPAUtagTITEM@@@std@@@3@$0A@@std@@@std@@QBE_NABV012@@Z
_TEXT	SEGMENT PARA USE32 PUBLIC 'CODE'
_TEXT	ENDS
;	COMDAT ??0iterator@?$_Tree@V?$_Tmap_traits@KPAUtagTTACTICSMEMBER@@U?$less@K@std@@V?$allocator@U?$pair@$$CBKPAUtagTTACTICSMEMBER@@@std@@@3@$0A@@std@@@std@@QAE@XZ
_TEXT	SEGMENT PARA USE32 PUBLIC 'CODE'
_TEXT	ENDS
;	COMDAT ??Diterator@?$_Tree@V?$_Tmap_traits@KPAUtagTTACTICSMEMBER@@U?$less@K@std@@V?$allocator@U?$pair@$$CBKPAUtagTTACTICSMEMBER@@@std@@@3@$0A@@std@@@std@@QBEAAU?$pair@$$CBKPAUtagTTACTICSMEMBER@@@2@XZ
_TEXT	SEGMENT PARA USE32 PUBLIC 'CODE'
_TEXT	ENDS
;	COMDAT ??Eiterator@?$_Tree@V?$_Tmap_traits@KPAUtagTTACTICSMEMBER@@U?$less@K@std@@V?$allocator@U?$pair@$$CBKPAUtagTTACTICSMEMBER@@@std@@@3@$0A@@std@@@std@@QAE?AV012@H@Z
_TEXT	SEGMENT PARA USE32 PUBLIC 'CODE'
_TEXT	ENDS
;	COMDAT ??8const_iterator@?$_Tree@V?$_Tmap_traits@KPAUtagTTACTICSMEMBER@@U?$less@K@std@@V?$allocator@U?$pair@$$CBKPAUtagTTACTICSMEMBER@@@std@@@3@$0A@@std@@@std@@QBE_NABV012@@Z
_TEXT	SEGMENT PARA USE32 PUBLIC 'CODE'
_TEXT	ENDS
;	COMDAT ??9const_iterator@?$_Tree@V?$_Tmap_traits@KPAUtagTTACTICSMEMBER@@U?$less@K@std@@V?$allocator@U?$pair@$$CBKPAUtagTTACTICSMEMBER@@@std@@@3@$0A@@std@@@std@@QBE_NABV012@@Z
_TEXT	SEGMENT PARA USE32 PUBLIC 'CODE'
_TEXT	ENDS
;	COMDAT ??0iterator@?$_Tree@V?$_Tmap_traits@KPAUtagTGUILDMEMBER@@U?$less@K@std@@V?$allocator@U?$pair@$$CBKPAUtagTGUILDMEMBER@@@std@@@3@$0A@@std@@@std@@QAE@XZ
_TEXT	SEGMENT PARA USE32 PUBLIC 'CODE'
_TEXT	ENDS
;	COMDAT ??Diterator@?$_Tree@V?$_Tmap_traits@KPAUtagTGUILDMEMBER@@U?$less@K@std@@V?$allocator@U?$pair@$$CBKPAUtagTGUILDMEMBER@@@std@@@3@$0A@@std@@@std@@QBEAAU?$pair@$$CBKPAUtagTGUILDMEMBER@@@2@XZ
_TEXT	SEGMENT PARA USE32 PUBLIC 'CODE'
_TEXT	ENDS
;	COMDAT ??Eiterator@?$_Tree@V?$_Tmap_traits@KPAUtagTGUILDMEMBER@@U?$less@K@std@@V?$allocator@U?$pair@$$CBKPAUtagTGUILDMEMBER@@@std@@@3@$0A@@std@@@std@@QAE?AV012@H@Z
_TEXT	SEGMENT PARA USE32 PUBLIC 'CODE'
_TEXT	ENDS
;	COMDAT ??8const_iterator@?$_Tree@V?$_Tmap_traits@KPAUtagTGUILDMEMBER@@U?$less@K@std@@V?$allocator@U?$pair@$$CBKPAUtagTGUILDMEMBER@@@std@@@3@$0A@@std@@@std@@QBE_NABV012@@Z
_TEXT	SEGMENT PARA USE32 PUBLIC 'CODE'
_TEXT	ENDS
;	COMDAT ??9const_iterator@?$_Tree@V?$_Tmap_traits@KPAUtagTGUILDMEMBER@@U?$less@K@std@@V?$allocator@U?$pair@$$CBKPAUtagTGUILDMEMBER@@@std@@@3@$0A@@std@@@std@@QBE_NABV012@@Z
_TEXT	SEGMENT PARA USE32 PUBLIC 'CODE'
_TEXT	ENDS
;	COMDAT ??0?$pair@$$CBKPAUtagTGUILDARTICLE@@@std@@QAE@ABKABQAUtagTGUILDARTICLE@@@Z
_TEXT	SEGMENT PARA USE32 PUBLIC 'CODE'
_TEXT	ENDS
;	COMDAT ??0?$pair@$$CBKPAUtagTITEM@@@std@@QAE@ABKABQAUtagTITEM@@@Z
_TEXT	SEGMENT PARA USE32 PUBLIC 'CODE'
_TEXT	ENDS
;	COMDAT ??0?$pair@$$CBKPAUtagTGUILDMEMBER@@@std@@QAE@ABKABQAUtagTGUILDMEMBER@@@Z
_TEXT	SEGMENT PARA USE32 PUBLIC 'CODE'
_TEXT	ENDS
;	COMDAT ??0?$pair@$$CBKPAUtagTTACTICSMEMBER@@@std@@QAE@ABKABQAUtagTTACTICSMEMBER@@@Z
_TEXT	SEGMENT PARA USE32 PUBLIC 'CODE'
_TEXT	ENDS
;	COMDAT ??Hiterator@?$vector@UtagTENTRYRECORD@@V?$allocator@UtagTENTRYRECORD@@@std@@@std@@QBE?AV012@H@Z
_TEXT	SEGMENT PARA USE32 PUBLIC 'CODE'
_TEXT	ENDS
;	COMDAT ?end@?$_Tree@V?$_Tmap_traits@GGU?$less@G@std@@V?$allocator@U?$pair@$$CBGG@std@@@2@$0A@@std@@@std@@QAE?AViterator@12@XZ
_TEXT	SEGMENT PARA USE32 PUBLIC 'CODE'
_TEXT	ENDS
;	COMDAT ?insert@?$_Tree@V?$_Tmap_traits@GGU?$less@G@std@@V?$allocator@U?$pair@$$CBGG@std@@@2@$0A@@std@@@std@@QAE?AU?$pair@Viterator@?$_Tree@V?$_Tmap_traits@GGU?$less@G@std@@V?$allocator@U?$pair@$$CBGG@std@@@2@$0A@@std@@@std@@_N@2@ABU?$pair@$$CBGG@2@@Z
_TEXT	SEGMENT PARA USE32 PUBLIC 'CODE'
_TEXT	ENDS
;	COMDAT ?find@?$_Tree@V?$_Tmap_traits@GGU?$less@G@std@@V?$allocator@U?$pair@$$CBGG@std@@@2@$0A@@std@@@std@@QAE?AViterator@12@ABG@Z
_TEXT	SEGMENT PARA USE32 PUBLIC 'CODE'
_TEXT	ENDS
;	COMDAT ??Diterator@?$_Tree@V?$_Tmap_traits@GGU?$less@G@std@@V?$allocator@U?$pair@$$CBGG@std@@@2@$0A@@std@@@std@@QBEAAU?$pair@$$CBGG@2@XZ
_TEXT	SEGMENT PARA USE32 PUBLIC 'CODE'
_TEXT	ENDS
;	COMDAT ??8const_iterator@?$_Tree@V?$_Tmap_traits@GGU?$less@G@std@@V?$allocator@U?$pair@$$CBGG@std@@@2@$0A@@std@@@std@@QBE_NABV012@@Z
_TEXT	SEGMENT PARA USE32 PUBLIC 'CODE'
_TEXT	ENDS
;	COMDAT ??0?$pair@$$CBGG@std@@QAE@ABG0@Z
_TEXT	SEGMENT PARA USE32 PUBLIC 'CODE'
_TEXT	ENDS
;	COMDAT ??_G?$CAtlExeModuleT@VCTWorldSvrModule@@@ATL@@UAEPAXI@Z
_TEXT	SEGMENT PARA USE32 PUBLIC 'CODE'
_TEXT	ENDS
;	COMDAT ??1?$CAtlModuleT@VCTWorldSvrModule@@@ATL@@UAE@XZ
_TEXT	SEGMENT PARA USE32 PUBLIC 'CODE'
_TEXT	ENDS
;	COMDAT ??0?$CStringT@DV?$StrTraitATL@DV?$ChTraitsCRT@D@ATL@@@ATL@@@ATL@@QAE@PAUIAtlStringMgr@1@@Z
_TEXT	SEGMENT PARA USE32 PUBLIC 'CODE'
_TEXT	ENDS
;	COMDAT ?Compare@?$CStringT@DV?$StrTraitATL@DV?$ChTraitsCRT@D@ATL@@@ATL@@@ATL@@QBEHPBD@Z
_TEXT	SEGMENT PARA USE32 PUBLIC 'CODE'
_TEXT	ENDS
;	COMDAT ?Mid@?$CStringT@DV?$StrTraitATL@DV?$ChTraitsCRT@D@ATL@@@ATL@@@ATL@@QBE?AV12@HH@Z
_TEXT	SEGMENT PARA USE32 PUBLIC 'CODE'
_TEXT	ENDS
;	COMDAT ?FormatV@?$CStringT@DV?$StrTraitATL@DV?$ChTraitsCRT@D@ATL@@@ATL@@@ATL@@QAEXPBDPAD@Z
_TEXT	SEGMENT PARA USE32 PUBLIC 'CODE'
_TEXT	ENDS
;	COMDAT ?GetManager@?$CSimpleStringT@D$0A@@ATL@@QBEPAUIAtlStringMgr@2@XZ
_TEXT	SEGMENT PARA USE32 PUBLIC 'CODE'
_TEXT	ENDS
;	COMDAT ?StringSpanIncluding@?$ChTraitsCRT@D@ATL@@SAHPBD0@Z
_TEXT	SEGMENT PARA USE32 PUBLIC 'CODE'
_TEXT	ENDS
;	COMDAT ?StringSpanExcluding@?$ChTraitsCRT@D@ATL@@SAHPBD0@Z
_TEXT	SEGMENT PARA USE32 PUBLIC 'CODE'
_TEXT	ENDS
;	COMDAT ??R?$less@K@std@@QBE_NABK0@Z
_TEXT	SEGMENT PARA USE32 PUBLIC 'CODE'
_TEXT	ENDS
;	COMDAT ??0?$allocator@K@std@@QAE@XZ
_TEXT	SEGMENT PARA USE32 PUBLIC 'CODE'
_TEXT	ENDS
;	COMDAT ??R?$less@G@std@@QBE_NABG0@Z
_TEXT	SEGMENT PARA USE32 PUBLIC 'CODE'
_TEXT	ENDS
;	COMDAT ?_Isnil@?$_Tree@V?$_Tmap_traits@KPAUtagTITEM@@U?$less@K@std@@V?$allocator@U?$pair@$$CBKPAUtagTITEM@@@std@@@3@$0A@@std@@@std@@KAAADPAU_Node@?$_Tree_nod@V?$_Tmap_traits@KPAUtagTITEM@@U?$less@K@std@@V?$allocator@U?$pair@$$CBKPAUtagTITEM@@@std@@@3@$0A@@std@@@2@@Z
_TEXT	SEGMENT PARA USE32 PUBLIC 'CODE'
_TEXT	ENDS
;	COMDAT ?_Key@?$_Tree@V?$_Tmap_traits@KPAUtagTITEM@@U?$less@K@std@@V?$allocator@U?$pair@$$CBKPAUtagTITEM@@@std@@@3@$0A@@std@@@std@@KAABKPAU_Node@?$_Tree_nod@V?$_Tmap_traits@KPAUtagTITEM@@U?$less@K@std@@V?$allocator@U?$pair@$$CBKPAUtagTITEM@@@std@@@3@$0A@@std@@@2@@Z
_TEXT	SEGMENT PARA USE32 PUBLIC 'CODE'
_TEXT	ENDS
;	COMDAT ?_Left@?$_Tree@V?$_Tmap_traits@KPAUtagTITEM@@U?$less@K@std@@V?$allocator@U?$pair@$$CBKPAUtagTITEM@@@std@@@3@$0A@@std@@@std@@KAAAPAU_Node@?$_Tree_nod@V?$_Tmap_traits@KPAUtagTITEM@@U?$less@K@std@@V?$allocator@U?$pair@$$CBKPAUtagTITEM@@@std@@@3@$0A@@std@@@2@PAU342@@Z
_TEXT	SEGMENT PARA USE32 PUBLIC 'CODE'
_TEXT	ENDS
;	COMDAT ?_Right@?$_Tree@V?$_Tmap_traits@KPAUtagTITEM@@U?$less@K@std@@V?$allocator@U?$pair@$$CBKPAUtagTITEM@@@std@@@3@$0A@@std@@@std@@KAAAPAU_Node@?$_Tree_nod@V?$_Tmap_traits@KPAUtagTITEM@@U?$less@K@std@@V?$allocator@U?$pair@$$CBKPAUtagTITEM@@@std@@@3@$0A@@std@@@2@PAU342@@Z
_TEXT	SEGMENT PARA USE32 PUBLIC 'CODE'
_TEXT	ENDS
;	COMDAT ??0?$_Tree@V?$_Tmap_traits@KPAUtagTITEM@@U?$less@K@std@@V?$allocator@U?$pair@$$CBKPAUtagTITEM@@@std@@@3@$0A@@std@@@std@@QAE@ABU?$less@K@1@ABV?$allocator@U?$pair@$$CBKPAUtagTITEM@@@std@@@1@@Z
_TEXT	SEGMENT PARA USE32 PUBLIC 'CODE'
_TEXT	ENDS
;	COMDAT ?erase@?$_Tree@V?$_Tmap_traits@KPAUtagTITEM@@U?$less@K@std@@V?$allocator@U?$pair@$$CBKPAUtagTITEM@@@std@@@3@$0A@@std@@@std@@QAE?AViterator@12@V312@0@Z
_TEXT	SEGMENT PARA USE32 PUBLIC 'CODE'
_TEXT	ENDS
;	COMDAT ?lower_bound@?$_Tree@V?$_Tmap_traits@KPAUtagTITEM@@U?$less@K@std@@V?$allocator@U?$pair@$$CBKPAUtagTITEM@@@std@@@3@$0A@@std@@@std@@QAE?AViterator@12@ABK@Z
_TEXT	SEGMENT PARA USE32 PUBLIC 'CODE'
_TEXT	ENDS
;	COMDAT ?equal_range@?$_Tree@V?$_Tmap_traits@KPAUtagTITEM@@U?$less@K@std@@V?$allocator@U?$pair@$$CBKPAUtagTITEM@@@std@@@3@$0A@@std@@@std@@QAE?AU?$pair@Viterator@?$_Tree@V?$_Tmap_traits@KPAUtagTITEM@@U?$less@K@std@@V?$allocator@U?$pair@$$CBKPAUtagTITEM@@@std@@@3@$0A@@std@@@std@@V123@@2@ABK@Z
_TEXT	SEGMENT PARA USE32 PUBLIC 'CODE'
_TEXT	ENDS
;	COMDAT ?_Erase@?$_Tree@V?$_Tmap_traits@KPAUtagTITEM@@U?$less@K@std@@V?$allocator@U?$pair@$$CBKPAUtagTITEM@@@std@@@3@$0A@@std@@@std@@IAEXPAU_Node@?$_Tree_nod@V?$_Tmap_traits@KPAUtagTITEM@@U?$less@K@std@@V?$allocator@U?$pair@$$CBKPAUtagTITEM@@@std@@@3@$0A@@std@@@2@@Z
_TEXT	SEGMENT PARA USE32 PUBLIC 'CODE'
_TEXT	ENDS
;	COMDAT ?_Insert@?$_Tree@V?$_Tmap_traits@KPAUtagTITEM@@U?$less@K@std@@V?$allocator@U?$pair@$$CBKPAUtagTITEM@@@std@@@3@$0A@@std@@@std@@IAE?AViterator@12@_NPAU_Node@?$_Tree_nod@V?$_Tmap_traits@KPAUtagTITEM@@U?$less@K@std@@V?$allocator@U?$pair@$$CBKPAUtagTITEM@@@std@@@3@$0A@@std@@@2@ABU?$pair@$$CBKPAUtagTITEM@@@2@@Z
_TEXT	SEGMENT PARA USE32 PUBLIC 'CODE'
_TEXT	ENDS
;	COMDAT ?_Lmost@?$_Tree@V?$_Tmap_traits@KPAUtagTITEM@@U?$less@K@std@@V?$allocator@U?$pair@$$CBKPAUtagTITEM@@@std@@@3@$0A@@std@@@std@@IAEAAPAU_Node@?$_Tree_nod@V?$_Tmap_traits@KPAUtagTITEM@@U?$less@K@std@@V?$allocator@U?$pair@$$CBKPAUtagTITEM@@@std@@@3@$0A@@std@@@2@XZ
_TEXT	SEGMENT PARA USE32 PUBLIC 'CODE'
_TEXT	ENDS
;	COMDAT ?_Rmost@?$_Tree@V?$_Tmap_traits@KPAUtagTITEM@@U?$less@K@std@@V?$allocator@U?$pair@$$CBKPAUtagTITEM@@@std@@@3@$0A@@std@@@std@@IAEAAPAU_Node@?$_Tree_nod@V?$_Tmap_traits@KPAUtagTITEM@@U?$less@K@std@@V?$allocator@U?$pair@$$CBKPAUtagTITEM@@@std@@@3@$0A@@std@@@2@XZ
_TEXT	SEGMENT PARA USE32 PUBLIC 'CODE'
_TEXT	ENDS
;	COMDAT ?_Root@?$_Tree@V?$_Tmap_traits@KPAUtagTITEM@@U?$less@K@std@@V?$allocator@U?$pair@$$CBKPAUtagTITEM@@@std@@@3@$0A@@std@@@std@@IAEAAPAU_Node@?$_Tree_nod@V?$_Tmap_traits@KPAUtagTITEM@@U?$less@K@std@@V?$allocator@U?$pair@$$CBKPAUtagTITEM@@@std@@@3@$0A@@std@@@2@XZ
_TEXT	SEGMENT PARA USE32 PUBLIC 'CODE'
_TEXT	ENDS
;	COMDAT ?_Tidy@?$_Tree@V?$_Tmap_traits@KPAUtagTITEM@@U?$less@K@std@@V?$allocator@U?$pair@$$CBKPAUtagTITEM@@@std@@@3@$0A@@std@@@std@@IAEXXZ
_TEXT	SEGMENT PARA USE32 PUBLIC 'CODE'
_TEXT	ENDS
;	COMDAT ?_Kfn@?$_Tmap_traits@KPAUtagTITEM@@U?$less@K@std@@V?$allocator@U?$pair@$$CBKPAUtagTITEM@@@std@@@3@$0A@@std@@SAABKABU?$pair@$$CBKPAUtagTITEM@@@2@@Z
_TEXT	SEGMENT PARA USE32 PUBLIC 'CODE'
_TEXT	ENDS
;	COMDAT ??0?$allocator@U?$pair@$$CBKPAUtagTITEM@@@std@@@std@@QAE@XZ
_TEXT	SEGMENT PARA USE32 PUBLIC 'CODE'
_TEXT	ENDS
;	COMDAT ?_Isnil@?$_Tree@V?$_Tmap_traits@KPAUtagTGUILDMEMBER@@U?$less@K@std@@V?$allocator@U?$pair@$$CBKPAUtagTGUILDMEMBER@@@std@@@3@$0A@@std@@@std@@KAAADPAU_Node@?$_Tree_nod@V?$_Tmap_traits@KPAUtagTGUILDMEMBER@@U?$less@K@std@@V?$allocator@U?$pair@$$CBKPAUtagTGUILDMEMBER@@@std@@@3@$0A@@std@@@2@@Z
_TEXT	SEGMENT PARA USE32 PUBLIC 'CODE'
_TEXT	ENDS
;	COMDAT ?_Key@?$_Tree@V?$_Tmap_traits@KPAUtagTGUILDMEMBER@@U?$less@K@std@@V?$allocator@U?$pair@$$CBKPAUtagTGUILDMEMBER@@@std@@@3@$0A@@std@@@std@@KAABKPAU_Node@?$_Tree_nod@V?$_Tmap_traits@KPAUtagTGUILDMEMBER@@U?$less@K@std@@V?$allocator@U?$pair@$$CBKPAUtagTGUILDMEMBER@@@std@@@3@$0A@@std@@@2@@Z
_TEXT	SEGMENT PARA USE32 PUBLIC 'CODE'
_TEXT	ENDS
;	COMDAT ?_Left@?$_Tree@V?$_Tmap_traits@KPAUtagTGUILDMEMBER@@U?$less@K@std@@V?$allocator@U?$pair@$$CBKPAUtagTGUILDMEMBER@@@std@@@3@$0A@@std@@@std@@KAAAPAU_Node@?$_Tree_nod@V?$_Tmap_traits@KPAUtagTGUILDMEMBER@@U?$less@K@std@@V?$allocator@U?$pair@$$CBKPAUtagTGUILDMEMBER@@@std@@@3@$0A@@std@@@2@PAU342@@Z
_TEXT	SEGMENT PARA USE32 PUBLIC 'CODE'
_TEXT	ENDS
;	COMDAT ?_Right@?$_Tree@V?$_Tmap_traits@KPAUtagTGUILDMEMBER@@U?$less@K@std@@V?$allocator@U?$pair@$$CBKPAUtagTGUILDMEMBER@@@std@@@3@$0A@@std@@@std@@KAAAPAU_Node@?$_Tree_nod@V?$_Tmap_traits@KPAUtagTGUILDMEMBER@@U?$less@K@std@@V?$allocator@U?$pair@$$CBKPAUtagTGUILDMEMBER@@@std@@@3@$0A@@std@@@2@PAU342@@Z
_TEXT	SEGMENT PARA USE32 PUBLIC 'CODE'
_TEXT	ENDS
;	COMDAT ??0?$_Tree@V?$_Tmap_traits@KPAUtagTGUILDMEMBER@@U?$less@K@std@@V?$allocator@U?$pair@$$CBKPAUtagTGUILDMEMBER@@@std@@@3@$0A@@std@@@std@@QAE@ABU?$less@K@1@ABV?$allocator@U?$pair@$$CBKPAUtagTGUILDMEMBER@@@std@@@1@@Z
_TEXT	SEGMENT PARA USE32 PUBLIC 'CODE'
_TEXT	ENDS
;	COMDAT ?erase@?$_Tree@V?$_Tmap_traits@KPAUtagTGUILDMEMBER@@U?$less@K@std@@V?$allocator@U?$pair@$$CBKPAUtagTGUILDMEMBER@@@std@@@3@$0A@@std@@@std@@QAE?AViterator@12@V312@0@Z
_TEXT	SEGMENT PARA USE32 PUBLIC 'CODE'
_TEXT	ENDS
;	COMDAT ?lower_bound@?$_Tree@V?$_Tmap_traits@KPAUtagTGUILDMEMBER@@U?$less@K@std@@V?$allocator@U?$pair@$$CBKPAUtagTGUILDMEMBER@@@std@@@3@$0A@@std@@@std@@QAE?AViterator@12@ABK@Z
_TEXT	SEGMENT PARA USE32 PUBLIC 'CODE'
_TEXT	ENDS
;	COMDAT ?equal_range@?$_Tree@V?$_Tmap_traits@KPAUtagTGUILDMEMBER@@U?$less@K@std@@V?$allocator@U?$pair@$$CBKPAUtagTGUILDMEMBER@@@std@@@3@$0A@@std@@@std@@QAE?AU?$pair@Viterator@?$_Tree@V?$_Tmap_traits@KPAUtagTGUILDMEMBER@@U?$less@K@std@@V?$allocator@U?$pair@$$CBKPAUtagTGUILDMEMBER@@@std@@@3@$0A@@std@@@std@@V123@@2@ABK@Z
_TEXT	SEGMENT PARA USE32 PUBLIC 'CODE'
_TEXT	ENDS
;	COMDAT ?_Erase@?$_Tree@V?$_Tmap_traits@KPAUtagTGUILDMEMBER@@U?$less@K@std@@V?$allocator@U?$pair@$$CBKPAUtagTGUILDMEMBER@@@std@@@3@$0A@@std@@@std@@IAEXPAU_Node@?$_Tree_nod@V?$_Tmap_traits@KPAUtagTGUILDMEMBER@@U?$less@K@std@@V?$allocator@U?$pair@$$CBKPAUtagTGUILDMEMBER@@@std@@@3@$0A@@std@@@2@@Z
_TEXT	SEGMENT PARA USE32 PUBLIC 'CODE'
_TEXT	ENDS
;	COMDAT ?_Insert@?$_Tree@V?$_Tmap_traits@KPAUtagTGUILDMEMBER@@U?$less@K@std@@V?$allocator@U?$pair@$$CBKPAUtagTGUILDMEMBER@@@std@@@3@$0A@@std@@@std@@IAE?AViterator@12@_NPAU_Node@?$_Tree_nod@V?$_Tmap_traits@KPAUtagTGUILDMEMBER@@U?$less@K@std@@V?$allocator@U?$pair@$$CBKPAUtagTGUILDMEMBER@@@std@@@3@$0A@@std@@@2@ABU?$pair@$$CBKPAUtagTGUILDMEMBER@@@2@@Z
_TEXT	SEGMENT PARA USE32 PUBLIC 'CODE'
_TEXT	ENDS
;	COMDAT ?_Lmost@?$_Tree@V?$_Tmap_traits@KPAUtagTGUILDMEMBER@@U?$less@K@std@@V?$allocator@U?$pair@$$CBKPAUtagTGUILDMEMBER@@@std@@@3@$0A@@std@@@std@@IAEAAPAU_Node@?$_Tree_nod@V?$_Tmap_traits@KPAUtagTGUILDMEMBER@@U?$less@K@std@@V?$allocator@U?$pair@$$CBKPAUtagTGUILDMEMBER@@@std@@@3@$0A@@std@@@2@XZ
_TEXT	SEGMENT PARA USE32 PUBLIC 'CODE'
_TEXT	ENDS
;	COMDAT ?_Rmost@?$_Tree@V?$_Tmap_traits@KPAUtagTGUILDMEMBER@@U?$less@K@std@@V?$allocator@U?$pair@$$CBKPAUtagTGUILDMEMBER@@@std@@@3@$0A@@std@@@std@@IAEAAPAU_Node@?$_Tree_nod@V?$_Tmap_traits@KPAUtagTGUILDMEMBER@@U?$less@K@std@@V?$allocator@U?$pair@$$CBKPAUtagTGUILDMEMBER@@@std@@@3@$0A@@std@@@2@XZ
_TEXT	SEGMENT PARA USE32 PUBLIC 'CODE'
_TEXT	ENDS
;	COMDAT ?_Root@?$_Tree@V?$_Tmap_traits@KPAUtagTGUILDMEMBER@@U?$less@K@std@@V?$allocator@U?$pair@$$CBKPAUtagTGUILDMEMBER@@@std@@@3@$0A@@std@@@std@@IAEAAPAU_Node@?$_Tree_nod@V?$_Tmap_traits@KPAUtagTGUILDMEMBER@@U?$less@K@std@@V?$allocator@U?$pair@$$CBKPAUtagTGUILDMEMBER@@@std@@@3@$0A@@std@@@2@XZ
_TEXT	SEGMENT PARA USE32 PUBLIC 'CODE'
_TEXT	ENDS
;	COMDAT ?_Tidy@?$_Tree@V?$_Tmap_traits@KPAUtagTGUILDMEMBER@@U?$less@K@std@@V?$allocator@U?$pair@$$CBKPAUtagTGUILDMEMBER@@@std@@@3@$0A@@std@@@std@@IAEXXZ
_TEXT	SEGMENT PARA USE32 PUBLIC 'CODE'
_TEXT	ENDS
;	COMDAT ?_Kfn@?$_Tmap_traits@KPAUtagTGUILDMEMBER@@U?$less@K@std@@V?$allocator@U?$pair@$$CBKPAUtagTGUILDMEMBER@@@std@@@3@$0A@@std@@SAABKABU?$pair@$$CBKPAUtagTGUILDMEMBER@@@2@@Z
_TEXT	SEGMENT PARA USE32 PUBLIC 'CODE'
_TEXT	ENDS
;	COMDAT ??0?$allocator@U?$pair@$$CBKPAUtagTGUILDMEMBER@@@std@@@std@@QAE@XZ
_TEXT	SEGMENT PARA USE32 PUBLIC 'CODE'
_TEXT	ENDS
;	COMDAT ?_Isnil@?$_Tree@V?$_Tmap_traits@KPAUtagTTACTICSMEMBER@@U?$less@K@std@@V?$allocator@U?$pair@$$CBKPAUtagTTACTICSMEMBER@@@std@@@3@$0A@@std@@@std@@KAAADPAU_Node@?$_Tree_nod@V?$_Tmap_traits@KPAUtagTTACTICSMEMBER@@U?$less@K@std@@V?$allocator@U?$pair@$$CBKPAUtagTTACTICSMEMBER@@@std@@@3@$0A@@std@@@2@@Z
_TEXT	SEGMENT PARA USE32 PUBLIC 'CODE'
_TEXT	ENDS
;	COMDAT ?_Key@?$_Tree@V?$_Tmap_traits@KPAUtagTTACTICSMEMBER@@U?$less@K@std@@V?$allocator@U?$pair@$$CBKPAUtagTTACTICSMEMBER@@@std@@@3@$0A@@std@@@std@@KAABKPAU_Node@?$_Tree_nod@V?$_Tmap_traits@KPAUtagTTACTICSMEMBER@@U?$less@K@std@@V?$allocator@U?$pair@$$CBKPAUtagTTACTICSMEMBER@@@std@@@3@$0A@@std@@@2@@Z
_TEXT	SEGMENT PARA USE32 PUBLIC 'CODE'
_TEXT	ENDS
;	COMDAT ?_Left@?$_Tree@V?$_Tmap_traits@KPAUtagTTACTICSMEMBER@@U?$less@K@std@@V?$allocator@U?$pair@$$CBKPAUtagTTACTICSMEMBER@@@std@@@3@$0A@@std@@@std@@KAAAPAU_Node@?$_Tree_nod@V?$_Tmap_traits@KPAUtagTTACTICSMEMBER@@U?$less@K@std@@V?$allocator@U?$pair@$$CBKPAUtagTTACTICSMEMBER@@@std@@@3@$0A@@std@@@2@PAU342@@Z
_TEXT	SEGMENT PARA USE32 PUBLIC 'CODE'
_TEXT	ENDS
;	COMDAT ?_Right@?$_Tree@V?$_Tmap_traits@KPAUtagTTACTICSMEMBER@@U?$less@K@std@@V?$allocator@U?$pair@$$CBKPAUtagTTACTICSMEMBER@@@std@@@3@$0A@@std@@@std@@KAAAPAU_Node@?$_Tree_nod@V?$_Tmap_traits@KPAUtagTTACTICSMEMBER@@U?$less@K@std@@V?$allocator@U?$pair@$$CBKPAUtagTTACTICSMEMBER@@@std@@@3@$0A@@std@@@2@PAU342@@Z
_TEXT	SEGMENT PARA USE32 PUBLIC 'CODE'
_TEXT	ENDS
;	COMDAT ??0?$_Tree@V?$_Tmap_traits@KPAUtagTTACTICSMEMBER@@U?$less@K@std@@V?$allocator@U?$pair@$$CBKPAUtagTTACTICSMEMBER@@@std@@@3@$0A@@std@@@std@@QAE@ABU?$less@K@1@ABV?$allocator@U?$pair@$$CBKPAUtagTTACTICSMEMBER@@@std@@@1@@Z
_TEXT	SEGMENT PARA USE32 PUBLIC 'CODE'
_TEXT	ENDS
;	COMDAT ?erase@?$_Tree@V?$_Tmap_traits@KPAUtagTTACTICSMEMBER@@U?$less@K@std@@V?$allocator@U?$pair@$$CBKPAUtagTTACTICSMEMBER@@@std@@@3@$0A@@std@@@std@@QAE?AViterator@12@V312@0@Z
_TEXT	SEGMENT PARA USE32 PUBLIC 'CODE'
_TEXT	ENDS
;	COMDAT ?lower_bound@?$_Tree@V?$_Tmap_traits@KPAUtagTTACTICSMEMBER@@U?$less@K@std@@V?$allocator@U?$pair@$$CBKPAUtagTTACTICSMEMBER@@@std@@@3@$0A@@std@@@std@@QAE?AViterator@12@ABK@Z
_TEXT	SEGMENT PARA USE32 PUBLIC 'CODE'
_TEXT	ENDS
;	COMDAT ?equal_range@?$_Tree@V?$_Tmap_traits@KPAUtagTTACTICSMEMBER@@U?$less@K@std@@V?$allocator@U?$pair@$$CBKPAUtagTTACTICSMEMBER@@@std@@@3@$0A@@std@@@std@@QAE?AU?$pair@Viterator@?$_Tree@V?$_Tmap_traits@KPAUtagTTACTICSMEMBER@@U?$less@K@std@@V?$allocator@U?$pair@$$CBKPAUtagTTACTICSMEMBER@@@std@@@3@$0A@@std@@@std@@V123@@2@ABK@Z
_TEXT	SEGMENT PARA USE32 PUBLIC 'CODE'
_TEXT	ENDS
;	COMDAT ?_Erase@?$_Tree@V?$_Tmap_traits@KPAUtagTTACTICSMEMBER@@U?$less@K@std@@V?$allocator@U?$pair@$$CBKPAUtagTTACTICSMEMBER@@@std@@@3@$0A@@std@@@std@@IAEXPAU_Node@?$_Tree_nod@V?$_Tmap_traits@KPAUtagTTACTICSMEMBER@@U?$less@K@std@@V?$allocator@U?$pair@$$CBKPAUtagTTACTICSMEMBER@@@std@@@3@$0A@@std@@@2@@Z
_TEXT	SEGMENT PARA USE32 PUBLIC 'CODE'
_TEXT	ENDS
;	COMDAT ?_Insert@?$_Tree@V?$_Tmap_traits@KPAUtagTTACTICSMEMBER@@U?$less@K@std@@V?$allocator@U?$pair@$$CBKPAUtagTTACTICSMEMBER@@@std@@@3@$0A@@std@@@std@@IAE?AViterator@12@_NPAU_Node@?$_Tree_nod@V?$_Tmap_traits@KPAUtagTTACTICSMEMBER@@U?$less@K@std@@V?$allocator@U?$pair@$$CBKPAUtagTTACTICSMEMBER@@@std@@@3@$0A@@std@@@2@ABU?$pair@$$CBKPAUtagTTACTICSMEMBER@@@2@@Z
_TEXT	SEGMENT PARA USE32 PUBLIC 'CODE'
_TEXT	ENDS
;	COMDAT ?_Lmost@?$_Tree@V?$_Tmap_traits@KPAUtagTTACTICSMEMBER@@U?$less@K@std@@V?$allocator@U?$pair@$$CBKPAUtagTTACTICSMEMBER@@@std@@@3@$0A@@std@@@std@@IAEAAPAU_Node@?$_Tree_nod@V?$_Tmap_traits@KPAUtagTTACTICSMEMBER@@U?$less@K@std@@V?$allocator@U?$pair@$$CBKPAUtagTTACTICSMEMBER@@@std@@@3@$0A@@std@@@2@XZ
_TEXT	SEGMENT PARA USE32 PUBLIC 'CODE'
_TEXT	ENDS
;	COMDAT ?_Rmost@?$_Tree@V?$_Tmap_traits@KPAUtagTTACTICSMEMBER@@U?$less@K@std@@V?$allocator@U?$pair@$$CBKPAUtagTTACTICSMEMBER@@@std@@@3@$0A@@std@@@std@@IAEAAPAU_Node@?$_Tree_nod@V?$_Tmap_traits@KPAUtagTTACTICSMEMBER@@U?$less@K@std@@V?$allocator@U?$pair@$$CBKPAUtagTTACTICSMEMBER@@@std@@@3@$0A@@std@@@2@XZ
_TEXT	SEGMENT PARA USE32 PUBLIC 'CODE'
_TEXT	ENDS
;	COMDAT ?_Root@?$_Tree@V?$_Tmap_traits@KPAUtagTTACTICSMEMBER@@U?$less@K@std@@V?$allocator@U?$pair@$$CBKPAUtagTTACTICSMEMBER@@@std@@@3@$0A@@std@@@std@@IAEAAPAU_Node@?$_Tree_nod@V?$_Tmap_traits@KPAUtagTTACTICSMEMBER@@U?$less@K@std@@V?$allocator@U?$pair@$$CBKPAUtagTTACTICSMEMBER@@@std@@@3@$0A@@std@@@2@XZ
_TEXT	SEGMENT PARA USE32 PUBLIC 'CODE'
_TEXT	ENDS
;	COMDAT ?_Tidy@?$_Tree@V?$_Tmap_traits@KPAUtagTTACTICSMEMBER@@U?$less@K@std@@V?$allocator@U?$pair@$$CBKPAUtagTTACTICSMEMBER@@@std@@@3@$0A@@std@@@std@@IAEXXZ
_TEXT	SEGMENT PARA USE32 PUBLIC 'CODE'
_TEXT	ENDS
;	COMDAT ?_Kfn@?$_Tmap_traits@KPAUtagTTACTICSMEMBER@@U?$less@K@std@@V?$allocator@U?$pair@$$CBKPAUtagTTACTICSMEMBER@@@std@@@3@$0A@@std@@SAABKABU?$pair@$$CBKPAUtagTTACTICSMEMBER@@@2@@Z
_TEXT	SEGMENT PARA USE32 PUBLIC 'CODE'
_TEXT	ENDS
;	COMDAT ??0?$allocator@U?$pair@$$CBKPAUtagTTACTICSMEMBER@@@std@@@std@@QAE@XZ
_TEXT	SEGMENT PARA USE32 PUBLIC 'CODE'
_TEXT	ENDS
;	COMDAT ?_Isnil@?$_Tree@V?$_Tmap_traits@KPAUtagTGUILDARTICLE@@U?$less@K@std@@V?$allocator@U?$pair@$$CBKPAUtagTGUILDARTICLE@@@std@@@3@$0A@@std@@@std@@KAAADPAU_Node@?$_Tree_nod@V?$_Tmap_traits@KPAUtagTGUILDARTICLE@@U?$less@K@std@@V?$allocator@U?$pair@$$CBKPAUtagTGUILDARTICLE@@@std@@@3@$0A@@std@@@2@@Z
_TEXT	SEGMENT PARA USE32 PUBLIC 'CODE'
_TEXT	ENDS
;	COMDAT ?_Key@?$_Tree@V?$_Tmap_traits@KPAUtagTGUILDARTICLE@@U?$less@K@std@@V?$allocator@U?$pair@$$CBKPAUtagTGUILDARTICLE@@@std@@@3@$0A@@std@@@std@@KAABKPAU_Node@?$_Tree_nod@V?$_Tmap_traits@KPAUtagTGUILDARTICLE@@U?$less@K@std@@V?$allocator@U?$pair@$$CBKPAUtagTGUILDARTICLE@@@std@@@3@$0A@@std@@@2@@Z
_TEXT	SEGMENT PARA USE32 PUBLIC 'CODE'
_TEXT	ENDS
;	COMDAT ?_Left@?$_Tree@V?$_Tmap_traits@KPAUtagTGUILDARTICLE@@U?$less@K@std@@V?$allocator@U?$pair@$$CBKPAUtagTGUILDARTICLE@@@std@@@3@$0A@@std@@@std@@KAAAPAU_Node@?$_Tree_nod@V?$_Tmap_traits@KPAUtagTGUILDARTICLE@@U?$less@K@std@@V?$allocator@U?$pair@$$CBKPAUtagTGUILDARTICLE@@@std@@@3@$0A@@std@@@2@PAU342@@Z
_TEXT	SEGMENT PARA USE32 PUBLIC 'CODE'
_TEXT	ENDS
;	COMDAT ?_Right@?$_Tree@V?$_Tmap_traits@KPAUtagTGUILDARTICLE@@U?$less@K@std@@V?$allocator@U?$pair@$$CBKPAUtagTGUILDARTICLE@@@std@@@3@$0A@@std@@@std@@KAAAPAU_Node@?$_Tree_nod@V?$_Tmap_traits@KPAUtagTGUILDARTICLE@@U?$less@K@std@@V?$allocator@U?$pair@$$CBKPAUtagTGUILDARTICLE@@@std@@@3@$0A@@std@@@2@PAU342@@Z
_TEXT	SEGMENT PARA USE32 PUBLIC 'CODE'
_TEXT	ENDS
;	COMDAT ??0?$_Tree@V?$_Tmap_traits@KPAUtagTGUILDARTICLE@@U?$less@K@std@@V?$allocator@U?$pair@$$CBKPAUtagTGUILDARTICLE@@@std@@@3@$0A@@std@@@std@@QAE@ABU?$less@K@1@ABV?$allocator@U?$pair@$$CBKPAUtagTGUILDARTICLE@@@std@@@1@@Z
_TEXT	SEGMENT PARA USE32 PUBLIC 'CODE'
_TEXT	ENDS
;	COMDAT ?erase@?$_Tree@V?$_Tmap_traits@KPAUtagTGUILDARTICLE@@U?$less@K@std@@V?$allocator@U?$pair@$$CBKPAUtagTGUILDARTICLE@@@std@@@3@$0A@@std@@@std@@QAE?AViterator@12@V312@0@Z
_TEXT	SEGMENT PARA USE32 PUBLIC 'CODE'
_TEXT	ENDS
;	COMDAT ?lower_bound@?$_Tree@V?$_Tmap_traits@KPAUtagTGUILDARTICLE@@U?$less@K@std@@V?$allocator@U?$pair@$$CBKPAUtagTGUILDARTICLE@@@std@@@3@$0A@@std@@@std@@QAE?AViterator@12@ABK@Z
_TEXT	SEGMENT PARA USE32 PUBLIC 'CODE'
_TEXT	ENDS
;	COMDAT ?equal_range@?$_Tree@V?$_Tmap_traits@KPAUtagTGUILDARTICLE@@U?$less@K@std@@V?$allocator@U?$pair@$$CBKPAUtagTGUILDARTICLE@@@std@@@3@$0A@@std@@@std@@QAE?AU?$pair@Viterator@?$_Tree@V?$_Tmap_traits@KPAUtagTGUILDARTICLE@@U?$less@K@std@@V?$allocator@U?$pair@$$CBKPAUtagTGUILDARTICLE@@@std@@@3@$0A@@std@@@std@@V123@@2@ABK@Z
_TEXT	SEGMENT PARA USE32 PUBLIC 'CODE'
_TEXT	ENDS
;	COMDAT ?_Erase@?$_Tree@V?$_Tmap_traits@KPAUtagTGUILDARTICLE@@U?$less@K@std@@V?$allocator@U?$pair@$$CBKPAUtagTGUILDARTICLE@@@std@@@3@$0A@@std@@@std@@IAEXPAU_Node@?$_Tree_nod@V?$_Tmap_traits@KPAUtagTGUILDARTICLE@@U?$less@K@std@@V?$allocator@U?$pair@$$CBKPAUtagTGUILDARTICLE@@@std@@@3@$0A@@std@@@2@@Z
_TEXT	SEGMENT PARA USE32 PUBLIC 'CODE'
_TEXT	ENDS
;	COMDAT ?_Insert@?$_Tree@V?$_Tmap_traits@KPAUtagTGUILDARTICLE@@U?$less@K@std@@V?$allocator@U?$pair@$$CBKPAUtagTGUILDARTICLE@@@std@@@3@$0A@@std@@@std@@IAE?AViterator@12@_NPAU_Node@?$_Tree_nod@V?$_Tmap_traits@KPAUtagTGUILDARTICLE@@U?$less@K@std@@V?$allocator@U?$pair@$$CBKPAUtagTGUILDARTICLE@@@std@@@3@$0A@@std@@@2@ABU?$pair@$$CBKPAUtagTGUILDARTICLE@@@2@@Z
_TEXT	SEGMENT PARA USE32 PUBLIC 'CODE'
_TEXT	ENDS
;	COMDAT ?_Lmost@?$_Tree@V?$_Tmap_traits@KPAUtagTGUILDARTICLE@@U?$less@K@std@@V?$allocator@U?$pair@$$CBKPAUtagTGUILDARTICLE@@@std@@@3@$0A@@std@@@std@@IAEAAPAU_Node@?$_Tree_nod@V?$_Tmap_traits@KPAUtagTGUILDARTICLE@@U?$less@K@std@@V?$allocator@U?$pair@$$CBKPAUtagTGUILDARTICLE@@@std@@@3@$0A@@std@@@2@XZ
_TEXT	SEGMENT PARA USE32 PUBLIC 'CODE'
_TEXT	ENDS
;	COMDAT ?_Rmost@?$_Tree@V?$_Tmap_traits@KPAUtagTGUILDARTICLE@@U?$less@K@std@@V?$allocator@U?$pair@$$CBKPAUtagTGUILDARTICLE@@@std@@@3@$0A@@std@@@std@@IAEAAPAU_Node@?$_Tree_nod@V?$_Tmap_traits@KPAUtagTGUILDARTICLE@@U?$less@K@std@@V?$allocator@U?$pair@$$CBKPAUtagTGUILDARTICLE@@@std@@@3@$0A@@std@@@2@XZ
_TEXT	SEGMENT PARA USE32 PUBLIC 'CODE'
_TEXT	ENDS
;	COMDAT ?_Root@?$_Tree@V?$_Tmap_traits@KPAUtagTGUILDARTICLE@@U?$less@K@std@@V?$allocator@U?$pair@$$CBKPAUtagTGUILDARTICLE@@@std@@@3@$0A@@std@@@std@@IAEAAPAU_Node@?$_Tree_nod@V?$_Tmap_traits@KPAUtagTGUILDARTICLE@@U?$less@K@std@@V?$allocator@U?$pair@$$CBKPAUtagTGUILDARTICLE@@@std@@@3@$0A@@std@@@2@XZ
_TEXT	SEGMENT PARA USE32 PUBLIC 'CODE'
_TEXT	ENDS
;	COMDAT ?_Tidy@?$_Tree@V?$_Tmap_traits@KPAUtagTGUILDARTICLE@@U?$less@K@std@@V?$allocator@U?$pair@$$CBKPAUtagTGUILDARTICLE@@@std@@@3@$0A@@std@@@std@@IAEXXZ
_TEXT	SEGMENT PARA USE32 PUBLIC 'CODE'
_TEXT	ENDS
;	COMDAT ?_Kfn@?$_Tmap_traits@KPAUtagTGUILDARTICLE@@U?$less@K@std@@V?$allocator@U?$pair@$$CBKPAUtagTGUILDARTICLE@@@std@@@3@$0A@@std@@SAABKABU?$pair@$$CBKPAUtagTGUILDARTICLE@@@2@@Z
_TEXT	SEGMENT PARA USE32 PUBLIC 'CODE'
_TEXT	ENDS
;	COMDAT ??0?$allocator@U?$pair@$$CBKPAUtagTGUILDARTICLE@@@std@@@std@@QAE@XZ
_TEXT	SEGMENT PARA USE32 PUBLIC 'CODE'
_TEXT	ENDS
;	COMDAT ?_Buy@?$vector@KV?$allocator@K@std@@@std@@IAE_NI@Z
_TEXT	SEGMENT PARA USE32 PUBLIC 'CODE'
_TEXT	ENDS
;	COMDAT ?_Tidy@?$vector@KV?$allocator@K@std@@@std@@IAEXXZ
_TEXT	SEGMENT PARA USE32 PUBLIC 'CODE'
_TEXT	ENDS
;	COMDAT ??0?$_Vector_val@KV?$allocator@K@std@@@std@@IAE@V?$allocator@K@1@@Z
_TEXT	SEGMENT PARA USE32 PUBLIC 'CODE'
_TEXT	ENDS
;	COMDAT ?empty@?$vector@UtagTGUILDPOINTREWARD@@V?$allocator@UtagTGUILDPOINTREWARD@@@std@@@std@@QBE_NXZ
_TEXT	SEGMENT PARA USE32 PUBLIC 'CODE'
_TEXT	ENDS
;	COMDAT ?_Buy@?$vector@UtagTGUILDPOINTREWARD@@V?$allocator@UtagTGUILDPOINTREWARD@@@std@@@std@@IAE_NI@Z
_TEXT	SEGMENT PARA USE32 PUBLIC 'CODE'
_TEXT	ENDS
;	COMDAT ?_Destroy@?$vector@UtagTGUILDPOINTREWARD@@V?$allocator@UtagTGUILDPOINTREWARD@@@std@@@std@@IAEXPAUtagTGUILDPOINTREWARD@@0@Z
_TEXT	SEGMENT PARA USE32 PUBLIC 'CODE'
_TEXT	ENDS
;	COMDAT ?_Tidy@?$vector@UtagTGUILDPOINTREWARD@@V?$allocator@UtagTGUILDPOINTREWARD@@@std@@@std@@IAEXXZ
_TEXT	SEGMENT PARA USE32 PUBLIC 'CODE'
_TEXT	ENDS
;	COMDAT ?_Insert_n@?$vector@UtagTGUILDPOINTREWARD@@V?$allocator@UtagTGUILDPOINTREWARD@@@std@@@std@@IAEXViterator@12@IABUtagTGUILDPOINTREWARD@@@Z
_TEXT	SEGMENT PARA USE32 PUBLIC 'CODE'
_TEXT	ENDS
;	COMDAT ??0?$_Vector_val@UtagTGUILDPOINTREWARD@@V?$allocator@UtagTGUILDPOINTREWARD@@@std@@@std@@IAE@V?$allocator@UtagTGUILDPOINTREWARD@@@1@@Z
_TEXT	SEGMENT PARA USE32 PUBLIC 'CODE'
_TEXT	ENDS
;	COMDAT ??0?$allocator@UtagTGUILDPOINTREWARD@@@std@@QAE@XZ
_TEXT	SEGMENT PARA USE32 PUBLIC 'CODE'
_TEXT	ENDS
;	COMDAT ?UninitializeCom@?$CAtlExeModuleT@VCTWorldSvrModule@@@ATL@@SAXXZ
_TEXT	SEGMENT PARA USE32 PUBLIC 'CODE'
_TEXT	ENDS
;	COMDAT ??0iterator@?$_Tree@V?$_Tmap_traits@KPAUtagTGUILDARTICLE@@U?$less@K@std@@V?$allocator@U?$pair@$$CBKPAUtagTGUILDARTICLE@@@std@@@3@$0A@@std@@@std@@QAE@PAU_Node@?$_Tree_nod@V?$_Tmap_traits@KPAUtagTGUILDARTICLE@@U?$less@K@std@@V?$allocator@U?$pair@$$CBKPAUtagTGUILDARTICLE@@@std@@@3@$0A@@std@@@2@@Z
_TEXT	SEGMENT PARA USE32 PUBLIC 'CODE'
_TEXT	ENDS
;	COMDAT ??Eiterator@?$_Tree@V?$_Tmap_traits@KPAUtagTGUILDARTICLE@@U?$less@K@std@@V?$allocator@U?$pair@$$CBKPAUtagTGUILDARTICLE@@@std@@@3@$0A@@std@@@std@@QAEAAV012@XZ
_TEXT	SEGMENT PARA USE32 PUBLIC 'CODE'
_TEXT	ENDS
;	COMDAT ??Fiterator@?$_Tree@V?$_Tmap_traits@KPAUtagTGUILDARTICLE@@U?$less@K@std@@V?$allocator@U?$pair@$$CBKPAUtagTGUILDARTICLE@@@std@@@3@$0A@@std@@@std@@QAEAAV012@XZ
_TEXT	SEGMENT PARA USE32 PUBLIC 'CODE'
_TEXT	ENDS
;	COMDAT ??0const_iterator@?$_Tree@V?$_Tmap_traits@KPAUtagTGUILDARTICLE@@U?$less@K@std@@V?$allocator@U?$pair@$$CBKPAUtagTGUILDARTICLE@@@std@@@3@$0A@@std@@@std@@QAE@XZ
_TEXT	SEGMENT PARA USE32 PUBLIC 'CODE'
_TEXT	ENDS
;	COMDAT ??Dconst_iterator@?$_Tree@V?$_Tmap_traits@KPAUtagTGUILDARTICLE@@U?$less@K@std@@V?$allocator@U?$pair@$$CBKPAUtagTGUILDARTICLE@@@std@@@3@$0A@@std@@@std@@QBEABU?$pair@$$CBKPAUtagTGUILDARTICLE@@@2@XZ
_TEXT	SEGMENT PARA USE32 PUBLIC 'CODE'
_TEXT	ENDS
;	COMDAT ??8const_iterator@?$_Tree@V?$_Tmap_traits@KPAUtagTGUILDARTICLE@@U?$less@K@std@@V?$allocator@U?$pair@$$CBKPAUtagTGUILDARTICLE@@@std@@@3@$0A@@std@@@std@@QBE_NABV012@@Z
_TEXT	SEGMENT PARA USE32 PUBLIC 'CODE'
_TEXT	ENDS
;	COMDAT ?_Mynode@const_iterator@?$_Tree@V?$_Tmap_traits@KPAUtagTGUILDARTICLE@@U?$less@K@std@@V?$allocator@U?$pair@$$CBKPAUtagTGUILDARTICLE@@@std@@@3@$0A@@std@@@std@@QBEPAU_Node@?$_Tree_nod@V?$_Tmap_traits@KPAUtagTGUILDARTICLE@@U?$less@K@std@@V?$allocator@U?$pair@$$CBKPAUtagTGUILDARTICLE@@@std@@@3@$0A@@std@@@3@XZ
_TEXT	SEGMENT PARA USE32 PUBLIC 'CODE'
_TEXT	ENDS
;	COMDAT ??0iterator@?$_Tree@V?$_Tmap_traits@KPAUtagTITEM@@U?$less@K@std@@V?$allocator@U?$pair@$$CBKPAUtagTITEM@@@std@@@3@$0A@@std@@@std@@QAE@PAU_Node@?$_Tree_nod@V?$_Tmap_traits@KPAUtagTITEM@@U?$less@K@std@@V?$allocator@U?$pair@$$CBKPAUtagTITEM@@@std@@@3@$0A@@std@@@2@@Z
_TEXT	SEGMENT PARA USE32 PUBLIC 'CODE'
_TEXT	ENDS
;	COMDAT ??Eiterator@?$_Tree@V?$_Tmap_traits@KPAUtagTITEM@@U?$less@K@std@@V?$allocator@U?$pair@$$CBKPAUtagTITEM@@@std@@@3@$0A@@std@@@std@@QAEAAV012@XZ
_TEXT	SEGMENT PARA USE32 PUBLIC 'CODE'
_TEXT	ENDS
;	COMDAT ??Fiterator@?$_Tree@V?$_Tmap_traits@KPAUtagTITEM@@U?$less@K@std@@V?$allocator@U?$pair@$$CBKPAUtagTITEM@@@std@@@3@$0A@@std@@@std@@QAEAAV012@XZ
_TEXT	SEGMENT PARA USE32 PUBLIC 'CODE'
_TEXT	ENDS
;	COMDAT ??0const_iterator@?$_Tree@V?$_Tmap_traits@KPAUtagTITEM@@U?$less@K@std@@V?$allocator@U?$pair@$$CBKPAUtagTITEM@@@std@@@3@$0A@@std@@@std@@QAE@XZ
_TEXT	SEGMENT PARA USE32 PUBLIC 'CODE'
_TEXT	ENDS
;	COMDAT ??Dconst_iterator@?$_Tree@V?$_Tmap_traits@KPAUtagTITEM@@U?$less@K@std@@V?$allocator@U?$pair@$$CBKPAUtagTITEM@@@std@@@3@$0A@@std@@@std@@QBEABU?$pair@$$CBKPAUtagTITEM@@@2@XZ
_TEXT	SEGMENT PARA USE32 PUBLIC 'CODE'
_TEXT	ENDS
;	COMDAT ?_Mynode@const_iterator@?$_Tree@V?$_Tmap_traits@KPAUtagTITEM@@U?$less@K@std@@V?$allocator@U?$pair@$$CBKPAUtagTITEM@@@std@@@3@$0A@@std@@@std@@QBEPAU_Node@?$_Tree_nod@V?$_Tmap_traits@KPAUtagTITEM@@U?$less@K@std@@V?$allocator@U?$pair@$$CBKPAUtagTITEM@@@std@@@3@$0A@@std@@@3@XZ
_TEXT	SEGMENT PARA USE32 PUBLIC 'CODE'
_TEXT	ENDS
;	COMDAT ??0iterator@?$_Tree@V?$_Tmap_traits@KPAUtagTTACTICSMEMBER@@U?$less@K@std@@V?$allocator@U?$pair@$$CBKPAUtagTTACTICSMEMBER@@@std@@@3@$0A@@std@@@std@@QAE@PAU_Node@?$_Tree_nod@V?$_Tmap_traits@KPAUtagTTACTICSMEMBER@@U?$less@K@std@@V?$allocator@U?$pair@$$CBKPAUtagTTACTICSMEMBER@@@std@@@3@$0A@@std@@@2@@Z
_TEXT	SEGMENT PARA USE32 PUBLIC 'CODE'
_TEXT	ENDS
;	COMDAT ??Eiterator@?$_Tree@V?$_Tmap_traits@KPAUtagTTACTICSMEMBER@@U?$less@K@std@@V?$allocator@U?$pair@$$CBKPAUtagTTACTICSMEMBER@@@std@@@3@$0A@@std@@@std@@QAEAAV012@XZ
_TEXT	SEGMENT PARA USE32 PUBLIC 'CODE'
_TEXT	ENDS
;	COMDAT ??Fiterator@?$_Tree@V?$_Tmap_traits@KPAUtagTTACTICSMEMBER@@U?$less@K@std@@V?$allocator@U?$pair@$$CBKPAUtagTTACTICSMEMBER@@@std@@@3@$0A@@std@@@std@@QAEAAV012@XZ
_TEXT	SEGMENT PARA USE32 PUBLIC 'CODE'
_TEXT	ENDS
;	COMDAT ??0const_iterator@?$_Tree@V?$_Tmap_traits@KPAUtagTTACTICSMEMBER@@U?$less@K@std@@V?$allocator@U?$pair@$$CBKPAUtagTTACTICSMEMBER@@@std@@@3@$0A@@std@@@std@@QAE@XZ
_TEXT	SEGMENT PARA USE32 PUBLIC 'CODE'
_TEXT	ENDS
;	COMDAT ??Dconst_iterator@?$_Tree@V?$_Tmap_traits@KPAUtagTTACTICSMEMBER@@U?$less@K@std@@V?$allocator@U?$pair@$$CBKPAUtagTTACTICSMEMBER@@@std@@@3@$0A@@std@@@std@@QBEABU?$pair@$$CBKPAUtagTTACTICSMEMBER@@@2@XZ
_TEXT	SEGMENT PARA USE32 PUBLIC 'CODE'
_TEXT	ENDS
;	COMDAT ?_Mynode@const_iterator@?$_Tree@V?$_Tmap_traits@KPAUtagTTACTICSMEMBER@@U?$less@K@std@@V?$allocator@U?$pair@$$CBKPAUtagTTACTICSMEMBER@@@std@@@3@$0A@@std@@@std@@QBEPAU_Node@?$_Tree_nod@V?$_Tmap_traits@KPAUtagTTACTICSMEMBER@@U?$less@K@std@@V?$allocator@U?$pair@$$CBKPAUtagTTACTICSMEMBER@@@std@@@3@$0A@@std@@@3@XZ
_TEXT	SEGMENT PARA USE32 PUBLIC 'CODE'
_TEXT	ENDS
;	COMDAT ??0iterator@?$_Tree@V?$_Tmap_traits@KPAUtagTGUILDMEMBER@@U?$less@K@std@@V?$allocator@U?$pair@$$CBKPAUtagTGUILDMEMBER@@@std@@@3@$0A@@std@@@std@@QAE@PAU_Node@?$_Tree_nod@V?$_Tmap_traits@KPAUtagTGUILDMEMBER@@U?$less@K@std@@V?$allocator@U?$pair@$$CBKPAUtagTGUILDMEMBER@@@std@@@3@$0A@@std@@@2@@Z
_TEXT	SEGMENT PARA USE32 PUBLIC 'CODE'
_TEXT	ENDS
;	COMDAT ??Eiterator@?$_Tree@V?$_Tmap_traits@KPAUtagTGUILDMEMBER@@U?$less@K@std@@V?$allocator@U?$pair@$$CBKPAUtagTGUILDMEMBER@@@std@@@3@$0A@@std@@@std@@QAEAAV012@XZ
_TEXT	SEGMENT PARA USE32 PUBLIC 'CODE'
_TEXT	ENDS
;	COMDAT ??Fiterator@?$_Tree@V?$_Tmap_traits@KPAUtagTGUILDMEMBER@@U?$less@K@std@@V?$allocator@U?$pair@$$CBKPAUtagTGUILDMEMBER@@@std@@@3@$0A@@std@@@std@@QAEAAV012@XZ
_TEXT	SEGMENT PARA USE32 PUBLIC 'CODE'
_TEXT	ENDS
;	COMDAT ??0const_iterator@?$_Tree@V?$_Tmap_traits@KPAUtagTGUILDMEMBER@@U?$less@K@std@@V?$allocator@U?$pair@$$CBKPAUtagTGUILDMEMBER@@@std@@@3@$0A@@std@@@std@@QAE@XZ
_TEXT	SEGMENT PARA USE32 PUBLIC 'CODE'
_TEXT	ENDS
;	COMDAT ??Dconst_iterator@?$_Tree@V?$_Tmap_traits@KPAUtagTGUILDMEMBER@@U?$less@K@std@@V?$allocator@U?$pair@$$CBKPAUtagTGUILDMEMBER@@@std@@@3@$0A@@std@@@std@@QBEABU?$pair@$$CBKPAUtagTGUILDMEMBER@@@2@XZ
_TEXT	SEGMENT PARA USE32 PUBLIC 'CODE'
_TEXT	ENDS
;	COMDAT ?_Mynode@const_iterator@?$_Tree@V?$_Tmap_traits@KPAUtagTGUILDMEMBER@@U?$less@K@std@@V?$allocator@U?$pair@$$CBKPAUtagTGUILDMEMBER@@@std@@@3@$0A@@std@@@std@@QBEPAU_Node@?$_Tree_nod@V?$_Tmap_traits@KPAUtagTGUILDMEMBER@@U?$less@K@std@@V?$allocator@U?$pair@$$CBKPAUtagTGUILDMEMBER@@@std@@@3@$0A@@std@@@3@XZ
_TEXT	SEGMENT PARA USE32 PUBLIC 'CODE'
_TEXT	ENDS
;	COMDAT ??0?$pair@Viterator@?$_Tree@V?$_Tmap_traits@KPAUtagTGUILDMEMBER@@U?$less@K@std@@V?$allocator@U?$pair@$$CBKPAUtagTGUILDMEMBER@@@std@@@3@$0A@@std@@@std@@_N@std@@QAE@ABViterator@?$_Tree@V?$_Tmap_traits@KPAUtagTGUILDMEMBER@@U?$less@K@std@@V?$allocator@U?$pair@$$CBKPAUtagTGUILDMEMBER@@@std@@@3@$0A@@std@@@1@AB_N@Z
_TEXT	SEGMENT PARA USE32 PUBLIC 'CODE'
_TEXT	ENDS
;	COMDAT ??0?$pair@Viterator@?$_Tree@V?$_Tmap_traits@KPAUtagTGUILDARTICLE@@U?$less@K@std@@V?$allocator@U?$pair@$$CBKPAUtagTGUILDARTICLE@@@std@@@3@$0A@@std@@@std@@_N@std@@QAE@ABViterator@?$_Tree@V?$_Tmap_traits@KPAUtagTGUILDARTICLE@@U?$less@K@std@@V?$allocator@U?$pair@$$CBKPAUtagTGUILDARTICLE@@@std@@@3@$0A@@std@@@1@AB_N@Z
_TEXT	SEGMENT PARA USE32 PUBLIC 'CODE'
_TEXT	ENDS
;	COMDAT ??0?$pair@Viterator@?$_Tree@V?$_Tmap_traits@KPAUtagTITEM@@U?$less@K@std@@V?$allocator@U?$pair@$$CBKPAUtagTITEM@@@std@@@3@$0A@@std@@@std@@_N@std@@QAE@ABViterator@?$_Tree@V?$_Tmap_traits@KPAUtagTITEM@@U?$less@K@std@@V?$allocator@U?$pair@$$CBKPAUtagTITEM@@@std@@@3@$0A@@std@@@1@AB_N@Z
_TEXT	SEGMENT PARA USE32 PUBLIC 'CODE'
_TEXT	ENDS
;	COMDAT ??0iterator@?$vector@UtagTGUILDPOINTREWARD@@V?$allocator@UtagTGUILDPOINTREWARD@@@std@@@std@@QAE@PAUtagTGUILDPOINTREWARD@@@Z
_TEXT	SEGMENT PARA USE32 PUBLIC 'CODE'
_TEXT	ENDS
;	COMDAT ??Hiterator@?$vector@UtagTGUILDPOINTREWARD@@V?$allocator@UtagTGUILDPOINTREWARD@@@std@@@std@@QBE?AV012@H@Z
_TEXT	SEGMENT PARA USE32 PUBLIC 'CODE'
_TEXT	ENDS
;	COMDAT ??Giterator@?$vector@UtagTGUILDPOINTREWARD@@V?$allocator@UtagTGUILDPOINTREWARD@@@std@@@std@@QBEHABVconst_iterator@12@@Z
_TEXT	SEGMENT PARA USE32 PUBLIC 'CODE'
_TEXT	ENDS
;	COMDAT ??0iterator@?$vector@UtagTENTRYRECORD@@V?$allocator@UtagTENTRYRECORD@@@std@@@std@@QAE@PAUtagTENTRYRECORD@@@Z
_TEXT	SEGMENT PARA USE32 PUBLIC 'CODE'
_TEXT	ENDS
;	COMDAT ??Diterator@?$vector@UtagTENTRYRECORD@@V?$allocator@UtagTENTRYRECORD@@@std@@@std@@QBEAAUtagTENTRYRECORD@@XZ
_TEXT	SEGMENT PARA USE32 PUBLIC 'CODE'
_TEXT	ENDS
;	COMDAT ??Yiterator@?$vector@UtagTENTRYRECORD@@V?$allocator@UtagTENTRYRECORD@@@std@@@std@@QAEAAV012@H@Z
_TEXT	SEGMENT PARA USE32 PUBLIC 'CODE'
_TEXT	ENDS
;	COMDAT ??0?$pair@Viterator@?$_Tree@V?$_Tmap_traits@KPAUtagTTACTICSMEMBER@@U?$less@K@std@@V?$allocator@U?$pair@$$CBKPAUtagTTACTICSMEMBER@@@std@@@3@$0A@@std@@@std@@_N@std@@QAE@ABViterator@?$_Tree@V?$_Tmap_traits@KPAUtagTTACTICSMEMBER@@U?$less@K@std@@V?$allocator@U?$pair@$$CBKPAUtagTTACTICSMEMBER@@@std@@@3@$0A@@std@@@1@AB_N@Z
_TEXT	SEGMENT PARA USE32 PUBLIC 'CODE'
_TEXT	ENDS
;	COMDAT ?_Isnil@?$_Tree@V?$_Tmap_traits@GGU?$less@G@std@@V?$allocator@U?$pair@$$CBGG@std@@@2@$0A@@std@@@std@@KAAADPAU_Node@?$_Tree_nod@V?$_Tmap_traits@GGU?$less@G@std@@V?$allocator@U?$pair@$$CBGG@std@@@2@$0A@@std@@@2@@Z
_TEXT	SEGMENT PARA USE32 PUBLIC 'CODE'
_TEXT	ENDS
;	COMDAT ?_Key@?$_Tree@V?$_Tmap_traits@GGU?$less@G@std@@V?$allocator@U?$pair@$$CBGG@std@@@2@$0A@@std@@@std@@KAABGPAU_Node@?$_Tree_nod@V?$_Tmap_traits@GGU?$less@G@std@@V?$allocator@U?$pair@$$CBGG@std@@@2@$0A@@std@@@2@@Z
_TEXT	SEGMENT PARA USE32 PUBLIC 'CODE'
_TEXT	ENDS
;	COMDAT ?_Left@?$_Tree@V?$_Tmap_traits@GGU?$less@G@std@@V?$allocator@U?$pair@$$CBGG@std@@@2@$0A@@std@@@std@@KAAAPAU_Node@?$_Tree_nod@V?$_Tmap_traits@GGU?$less@G@std@@V?$allocator@U?$pair@$$CBGG@std@@@2@$0A@@std@@@2@PAU342@@Z
_TEXT	SEGMENT PARA USE32 PUBLIC 'CODE'
_TEXT	ENDS
;	COMDAT ?_Right@?$_Tree@V?$_Tmap_traits@GGU?$less@G@std@@V?$allocator@U?$pair@$$CBGG@std@@@2@$0A@@std@@@std@@KAAAPAU_Node@?$_Tree_nod@V?$_Tmap_traits@GGU?$less@G@std@@V?$allocator@U?$pair@$$CBGG@std@@@2@$0A@@std@@@2@PAU342@@Z
_TEXT	SEGMENT PARA USE32 PUBLIC 'CODE'
_TEXT	ENDS
;	COMDAT ?begin@?$_Tree@V?$_Tmap_traits@GGU?$less@G@std@@V?$allocator@U?$pair@$$CBGG@std@@@2@$0A@@std@@@std@@QAE?AViterator@12@XZ
_TEXT	SEGMENT PARA USE32 PUBLIC 'CODE'
_TEXT	ENDS
;	COMDAT ?lower_bound@?$_Tree@V?$_Tmap_traits@GGU?$less@G@std@@V?$allocator@U?$pair@$$CBGG@std@@@2@$0A@@std@@@std@@QAE?AViterator@12@ABG@Z
_TEXT	SEGMENT PARA USE32 PUBLIC 'CODE'
_TEXT	ENDS
;	COMDAT ?_Insert@?$_Tree@V?$_Tmap_traits@GGU?$less@G@std@@V?$allocator@U?$pair@$$CBGG@std@@@2@$0A@@std@@@std@@IAE?AViterator@12@_NPAU_Node@?$_Tree_nod@V?$_Tmap_traits@GGU?$less@G@std@@V?$allocator@U?$pair@$$CBGG@std@@@2@$0A@@std@@@2@ABU?$pair@$$CBGG@2@@Z
_TEXT	SEGMENT PARA USE32 PUBLIC 'CODE'
_TEXT	ENDS
;	COMDAT ?_Root@?$_Tree@V?$_Tmap_traits@GGU?$less@G@std@@V?$allocator@U?$pair@$$CBGG@std@@@2@$0A@@std@@@std@@IAEAAPAU_Node@?$_Tree_nod@V?$_Tmap_traits@GGU?$less@G@std@@V?$allocator@U?$pair@$$CBGG@std@@@2@$0A@@std@@@2@XZ
_TEXT	SEGMENT PARA USE32 PUBLIC 'CODE'
_TEXT	ENDS
;	COMDAT ?_Kfn@?$_Tmap_traits@GGU?$less@G@std@@V?$allocator@U?$pair@$$CBGG@std@@@2@$0A@@std@@SAABGABU?$pair@$$CBGG@2@@Z
_TEXT	SEGMENT PARA USE32 PUBLIC 'CODE'
_TEXT	ENDS
;	COMDAT ??0iterator@?$_Tree@V?$_Tmap_traits@GGU?$less@G@std@@V?$allocator@U?$pair@$$CBGG@std@@@2@$0A@@std@@@std@@QAE@PAU_Node@?$_Tree_nod@V?$_Tmap_traits@GGU?$less@G@std@@V?$allocator@U?$pair@$$CBGG@std@@@2@$0A@@std@@@2@@Z
_TEXT	SEGMENT PARA USE32 PUBLIC 'CODE'
_TEXT	ENDS
;	COMDAT ??Fiterator@?$_Tree@V?$_Tmap_traits@GGU?$less@G@std@@V?$allocator@U?$pair@$$CBGG@std@@@2@$0A@@std@@@std@@QAEAAV012@XZ
_TEXT	SEGMENT PARA USE32 PUBLIC 'CODE'
_TEXT	ENDS
;	COMDAT ??Dconst_iterator@?$_Tree@V?$_Tmap_traits@GGU?$less@G@std@@V?$allocator@U?$pair@$$CBGG@std@@@2@$0A@@std@@@std@@QBEABU?$pair@$$CBGG@2@XZ
_TEXT	SEGMENT PARA USE32 PUBLIC 'CODE'
_TEXT	ENDS
;	COMDAT ?_Mynode@const_iterator@?$_Tree@V?$_Tmap_traits@GGU?$less@G@std@@V?$allocator@U?$pair@$$CBGG@std@@@2@$0A@@std@@@std@@QBEPAU_Node@?$_Tree_nod@V?$_Tmap_traits@GGU?$less@G@std@@V?$allocator@U?$pair@$$CBGG@std@@@2@$0A@@std@@@3@XZ
_TEXT	SEGMENT PARA USE32 PUBLIC 'CODE'
_TEXT	ENDS
;	COMDAT ??0?$pair@Viterator@?$_Tree@V?$_Tmap_traits@GGU?$less@G@std@@V?$allocator@U?$pair@$$CBGG@std@@@2@$0A@@std@@@std@@_N@std@@QAE@ABViterator@?$_Tree@V?$_Tmap_traits@GGU?$less@G@std@@V?$allocator@U?$pair@$$CBGG@std@@@2@$0A@@std@@@1@AB_N@Z
_TEXT	SEGMENT PARA USE32 PUBLIC 'CODE'
_TEXT	ENDS
;	COMDAT ??0tagTGUILDPOINTREWARD@@QAE@ABU0@@Z
_TEXT	SEGMENT PARA USE32 PUBLIC 'CODE'
_TEXT	ENDS
;	COMDAT ??0?$CStringT@DV?$StrTraitATL@DV?$ChTraitsCRT@D@ATL@@@ATL@@@ATL@@QAE@PBDHPAUIAtlStringMgr@1@@Z
_TEXT	SEGMENT PARA USE32 PUBLIC 'CODE'
_TEXT	ENDS
;	COMDAT ?StringCompare@?$ChTraitsCRT@D@ATL@@SAHPBD0@Z
_TEXT	SEGMENT PARA USE32 PUBLIC 'CODE'
_TEXT	ENDS
;	COMDAT ??0?$allocator@K@std@@QAE@ABV01@@Z
_TEXT	SEGMENT PARA USE32 PUBLIC 'CODE'
_TEXT	ENDS
;	COMDAT ?deallocate@?$allocator@K@std@@QAEXPAKI@Z
_TEXT	SEGMENT PARA USE32 PUBLIC 'CODE'
_TEXT	ENDS
;	COMDAT ?allocate@?$allocator@K@std@@QAEPAKI@Z
_TEXT	SEGMENT PARA USE32 PUBLIC 'CODE'
_TEXT	ENDS
;	COMDAT ?_Color@?$_Tree@V?$_Tmap_traits@KPAUtagTITEM@@U?$less@K@std@@V?$allocator@U?$pair@$$CBKPAUtagTITEM@@@std@@@3@$0A@@std@@@std@@KAAADPAU_Node@?$_Tree_nod@V?$_Tmap_traits@KPAUtagTITEM@@U?$less@K@std@@V?$allocator@U?$pair@$$CBKPAUtagTITEM@@@std@@@3@$0A@@std@@@2@@Z
_TEXT	SEGMENT PARA USE32 PUBLIC 'CODE'
_TEXT	ENDS
;	COMDAT ?_Parent@?$_Tree@V?$_Tmap_traits@KPAUtagTITEM@@U?$less@K@std@@V?$allocator@U?$pair@$$CBKPAUtagTITEM@@@std@@@3@$0A@@std@@@std@@KAAAPAU_Node@?$_Tree_nod@V?$_Tmap_traits@KPAUtagTITEM@@U?$less@K@std@@V?$allocator@U?$pair@$$CBKPAUtagTITEM@@@std@@@3@$0A@@std@@@2@PAU342@@Z
_TEXT	SEGMENT PARA USE32 PUBLIC 'CODE'
_TEXT	ENDS
;	COMDAT ?_Myval@?$_Tree@V?$_Tmap_traits@KPAUtagTITEM@@U?$less@K@std@@V?$allocator@U?$pair@$$CBKPAUtagTITEM@@@std@@@3@$0A@@std@@@std@@KAAAU?$pair@$$CBKPAUtagTITEM@@@2@PAU_Node@?$_Tree_nod@V?$_Tmap_traits@KPAUtagTITEM@@U?$less@K@std@@V?$allocator@U?$pair@$$CBKPAUtagTITEM@@@std@@@3@$0A@@std@@@2@@Z
_TEXT	SEGMENT PARA USE32 PUBLIC 'CODE'
_TEXT	ENDS
;	COMDAT ?max_size@?$_Tree@V?$_Tmap_traits@KPAUtagTITEM@@U?$less@K@std@@V?$allocator@U?$pair@$$CBKPAUtagTITEM@@@std@@@3@$0A@@std@@@std@@QBEIXZ
_TEXT	SEGMENT PARA USE32 PUBLIC 'CODE'
_TEXT	ENDS
;	COMDAT ?erase@?$_Tree@V?$_Tmap_traits@KPAUtagTITEM@@U?$less@K@std@@V?$allocator@U?$pair@$$CBKPAUtagTITEM@@@std@@@3@$0A@@std@@@std@@QAE?AViterator@12@V312@@Z
_TEXT	SEGMENT PARA USE32 PUBLIC 'CODE'
_TEXT	ENDS
;	COMDAT ?upper_bound@?$_Tree@V?$_Tmap_traits@KPAUtagTITEM@@U?$less@K@std@@V?$allocator@U?$pair@$$CBKPAUtagTITEM@@@std@@@3@$0A@@std@@@std@@QAE?AViterator@12@ABK@Z
_TEXT	SEGMENT PARA USE32 PUBLIC 'CODE'
_TEXT	ENDS
;	COMDAT ?_Init@?$_Tree@V?$_Tmap_traits@KPAUtagTITEM@@U?$less@K@std@@V?$allocator@U?$pair@$$CBKPAUtagTITEM@@@std@@@3@$0A@@std@@@std@@IAEXXZ
_TEXT	SEGMENT PARA USE32 PUBLIC 'CODE'
_TEXT	ENDS
;	COMDAT ?_Lbound@?$_Tree@V?$_Tmap_traits@KPAUtagTITEM@@U?$less@K@std@@V?$allocator@U?$pair@$$CBKPAUtagTITEM@@@std@@@3@$0A@@std@@@std@@IBEPAU_Node@?$_Tree_nod@V?$_Tmap_traits@KPAUtagTITEM@@U?$less@K@std@@V?$allocator@U?$pair@$$CBKPAUtagTITEM@@@std@@@3@$0A@@std@@@2@ABK@Z
_TEXT	SEGMENT PARA USE32 PUBLIC 'CODE'
_TEXT	ENDS
;	COMDAT ?_Lrotate@?$_Tree@V?$_Tmap_traits@KPAUtagTITEM@@U?$less@K@std@@V?$allocator@U?$pair@$$CBKPAUtagTITEM@@@std@@@3@$0A@@std@@@std@@IAEXPAU_Node@?$_Tree_nod@V?$_Tmap_traits@KPAUtagTITEM@@U?$less@K@std@@V?$allocator@U?$pair@$$CBKPAUtagTITEM@@@std@@@3@$0A@@std@@@2@@Z
_TEXT	SEGMENT PARA USE32 PUBLIC 'CODE'
_TEXT	ENDS
;	COMDAT ?_Rrotate@?$_Tree@V?$_Tmap_traits@KPAUtagTITEM@@U?$less@K@std@@V?$allocator@U?$pair@$$CBKPAUtagTITEM@@@std@@@3@$0A@@std@@@std@@IAEXPAU_Node@?$_Tree_nod@V?$_Tmap_traits@KPAUtagTITEM@@U?$less@K@std@@V?$allocator@U?$pair@$$CBKPAUtagTITEM@@@std@@@3@$0A@@std@@@2@@Z
_TEXT	SEGMENT PARA USE32 PUBLIC 'CODE'
_TEXT	ENDS
;	COMDAT ?_Buynode@?$_Tree@V?$_Tmap_traits@KPAUtagTITEM@@U?$less@K@std@@V?$allocator@U?$pair@$$CBKPAUtagTITEM@@@std@@@3@$0A@@std@@@std@@IAEPAU_Node@?$_Tree_nod@V?$_Tmap_traits@KPAUtagTITEM@@U?$less@K@std@@V?$allocator@U?$pair@$$CBKPAUtagTITEM@@@std@@@3@$0A@@std@@@2@PAU342@00ABU?$pair@$$CBKPAUtagTITEM@@@2@D@Z
_TEXT	SEGMENT PARA USE32 PUBLIC 'CODE'
_TEXT	ENDS
;	COMDAT ??0?$_Tree_val@V?$_Tmap_traits@KPAUtagTITEM@@U?$less@K@std@@V?$allocator@U?$pair@$$CBKPAUtagTITEM@@@std@@@3@$0A@@std@@@std@@IAE@ABU?$less@K@1@V?$allocator@U?$pair@$$CBKPAUtagTITEM@@@std@@@1@@Z
_TEXT	SEGMENT PARA USE32 PUBLIC 'CODE'
_TEXT	ENDS
;	COMDAT ??0?$allocator@U?$pair@$$CBKPAUtagTITEM@@@std@@@std@@QAE@ABV01@@Z
_TEXT	SEGMENT PARA USE32 PUBLIC 'CODE'
_TEXT	ENDS
;	COMDAT ?deallocate@?$allocator@U_Node@?$_Tree_nod@V?$_Tmap_traits@KPAUtagTITEM@@U?$less@K@std@@V?$allocator@U?$pair@$$CBKPAUtagTITEM@@@std@@@3@$0A@@std@@@std@@@std@@QAEXPAU_Node@?$_Tree_nod@V?$_Tmap_traits@KPAUtagTITEM@@U?$less@K@std@@V?$allocator@U?$pair@$$CBKPAUtagTITEM@@@std@@@3@$0A@@std@@@2@I@Z
_TEXT	SEGMENT PARA USE32 PUBLIC 'CODE'
_TEXT	ENDS
;	COMDAT ?destroy@?$allocator@U_Node@?$_Tree_nod@V?$_Tmap_traits@KPAUtagTITEM@@U?$less@K@std@@V?$allocator@U?$pair@$$CBKPAUtagTITEM@@@std@@@3@$0A@@std@@@std@@@std@@QAEXPAU_Node@?$_Tree_nod@V?$_Tmap_traits@KPAUtagTITEM@@U?$less@K@std@@V?$allocator@U?$pair@$$CBKPAUtagTITEM@@@std@@@3@$0A@@std@@@2@@Z
_TEXT	SEGMENT PARA USE32 PUBLIC 'CODE'
_TEXT	ENDS
;	COMDAT ?destroy@?$allocator@PAU_Node@?$_Tree_nod@V?$_Tmap_traits@KPAUtagTITEM@@U?$less@K@std@@V?$allocator@U?$pair@$$CBKPAUtagTITEM@@@std@@@3@$0A@@std@@@std@@@std@@QAEXPAPAU_Node@?$_Tree_nod@V?$_Tmap_traits@KPAUtagTITEM@@U?$less@K@std@@V?$allocator@U?$pair@$$CBKPAUtagTITEM@@@std@@@3@$0A@@std@@@2@@Z
_TEXT	SEGMENT PARA USE32 PUBLIC 'CODE'
_TEXT	ENDS
;	COMDAT ?_Color@?$_Tree@V?$_Tmap_traits@KPAUtagTGUILDMEMBER@@U?$less@K@std@@V?$allocator@U?$pair@$$CBKPAUtagTGUILDMEMBER@@@std@@@3@$0A@@std@@@std@@KAAADPAU_Node@?$_Tree_nod@V?$_Tmap_traits@KPAUtagTGUILDMEMBER@@U?$less@K@std@@V?$allocator@U?$pair@$$CBKPAUtagTGUILDMEMBER@@@std@@@3@$0A@@std@@@2@@Z
_TEXT	SEGMENT PARA USE32 PUBLIC 'CODE'
_TEXT	ENDS
;	COMDAT ?_Parent@?$_Tree@V?$_Tmap_traits@KPAUtagTGUILDMEMBER@@U?$less@K@std@@V?$allocator@U?$pair@$$CBKPAUtagTGUILDMEMBER@@@std@@@3@$0A@@std@@@std@@KAAAPAU_Node@?$_Tree_nod@V?$_Tmap_traits@KPAUtagTGUILDMEMBER@@U?$less@K@std@@V?$allocator@U?$pair@$$CBKPAUtagTGUILDMEMBER@@@std@@@3@$0A@@std@@@2@PAU342@@Z
_TEXT	SEGMENT PARA USE32 PUBLIC 'CODE'
_TEXT	ENDS
;	COMDAT ?_Myval@?$_Tree@V?$_Tmap_traits@KPAUtagTGUILDMEMBER@@U?$less@K@std@@V?$allocator@U?$pair@$$CBKPAUtagTGUILDMEMBER@@@std@@@3@$0A@@std@@@std@@KAAAU?$pair@$$CBKPAUtagTGUILDMEMBER@@@2@PAU_Node@?$_Tree_nod@V?$_Tmap_traits@KPAUtagTGUILDMEMBER@@U?$less@K@std@@V?$allocator@U?$pair@$$CBKPAUtagTGUILDMEMBER@@@std@@@3@$0A@@std@@@2@@Z
_TEXT	SEGMENT PARA USE32 PUBLIC 'CODE'
_TEXT	ENDS
;	COMDAT ?max_size@?$_Tree@V?$_Tmap_traits@KPAUtagTGUILDMEMBER@@U?$less@K@std@@V?$allocator@U?$pair@$$CBKPAUtagTGUILDMEMBER@@@std@@@3@$0A@@std@@@std@@QBEIXZ
_TEXT	SEGMENT PARA USE32 PUBLIC 'CODE'
_TEXT	ENDS
;	COMDAT ?erase@?$_Tree@V?$_Tmap_traits@KPAUtagTGUILDMEMBER@@U?$less@K@std@@V?$allocator@U?$pair@$$CBKPAUtagTGUILDMEMBER@@@std@@@3@$0A@@std@@@std@@QAE?AViterator@12@V312@@Z
_TEXT	SEGMENT PARA USE32 PUBLIC 'CODE'
_TEXT	ENDS
;	COMDAT ?upper_bound@?$_Tree@V?$_Tmap_traits@KPAUtagTGUILDMEMBER@@U?$less@K@std@@V?$allocator@U?$pair@$$CBKPAUtagTGUILDMEMBER@@@std@@@3@$0A@@std@@@std@@QAE?AViterator@12@ABK@Z
_TEXT	SEGMENT PARA USE32 PUBLIC 'CODE'
_TEXT	ENDS
;	COMDAT ?_Init@?$_Tree@V?$_Tmap_traits@KPAUtagTGUILDMEMBER@@U?$less@K@std@@V?$allocator@U?$pair@$$CBKPAUtagTGUILDMEMBER@@@std@@@3@$0A@@std@@@std@@IAEXXZ
_TEXT	SEGMENT PARA USE32 PUBLIC 'CODE'
_TEXT	ENDS
;	COMDAT ?_Lbound@?$_Tree@V?$_Tmap_traits@KPAUtagTGUILDMEMBER@@U?$less@K@std@@V?$allocator@U?$pair@$$CBKPAUtagTGUILDMEMBER@@@std@@@3@$0A@@std@@@std@@IBEPAU_Node@?$_Tree_nod@V?$_Tmap_traits@KPAUtagTGUILDMEMBER@@U?$less@K@std@@V?$allocator@U?$pair@$$CBKPAUtagTGUILDMEMBER@@@std@@@3@$0A@@std@@@2@ABK@Z
_TEXT	SEGMENT PARA USE32 PUBLIC 'CODE'
_TEXT	ENDS
;	COMDAT ?_Lrotate@?$_Tree@V?$_Tmap_traits@KPAUtagTGUILDMEMBER@@U?$less@K@std@@V?$allocator@U?$pair@$$CBKPAUtagTGUILDMEMBER@@@std@@@3@$0A@@std@@@std@@IAEXPAU_Node@?$_Tree_nod@V?$_Tmap_traits@KPAUtagTGUILDMEMBER@@U?$less@K@std@@V?$allocator@U?$pair@$$CBKPAUtagTGUILDMEMBER@@@std@@@3@$0A@@std@@@2@@Z
_TEXT	SEGMENT PARA USE32 PUBLIC 'CODE'
_TEXT	ENDS
;	COMDAT ?_Rrotate@?$_Tree@V?$_Tmap_traits@KPAUtagTGUILDMEMBER@@U?$less@K@std@@V?$allocator@U?$pair@$$CBKPAUtagTGUILDMEMBER@@@std@@@3@$0A@@std@@@std@@IAEXPAU_Node@?$_Tree_nod@V?$_Tmap_traits@KPAUtagTGUILDMEMBER@@U?$less@K@std@@V?$allocator@U?$pair@$$CBKPAUtagTGUILDMEMBER@@@std@@@3@$0A@@std@@@2@@Z
_TEXT	SEGMENT PARA USE32 PUBLIC 'CODE'
_TEXT	ENDS
;	COMDAT ?_Buynode@?$_Tree@V?$_Tmap_traits@KPAUtagTGUILDMEMBER@@U?$less@K@std@@V?$allocator@U?$pair@$$CBKPAUtagTGUILDMEMBER@@@std@@@3@$0A@@std@@@std@@IAEPAU_Node@?$_Tree_nod@V?$_Tmap_traits@KPAUtagTGUILDMEMBER@@U?$less@K@std@@V?$allocator@U?$pair@$$CBKPAUtagTGUILDMEMBER@@@std@@@3@$0A@@std@@@2@PAU342@00ABU?$pair@$$CBKPAUtagTGUILDMEMBER@@@2@D@Z
_TEXT	SEGMENT PARA USE32 PUBLIC 'CODE'
_TEXT	ENDS
;	COMDAT ??0?$_Tree_val@V?$_Tmap_traits@KPAUtagTGUILDMEMBER@@U?$less@K@std@@V?$allocator@U?$pair@$$CBKPAUtagTGUILDMEMBER@@@std@@@3@$0A@@std@@@std@@IAE@ABU?$less@K@1@V?$allocator@U?$pair@$$CBKPAUtagTGUILDMEMBER@@@std@@@1@@Z
_TEXT	SEGMENT PARA USE32 PUBLIC 'CODE'
_TEXT	ENDS
;	COMDAT ??0?$allocator@U?$pair@$$CBKPAUtagTGUILDMEMBER@@@std@@@std@@QAE@ABV01@@Z
_TEXT	SEGMENT PARA USE32 PUBLIC 'CODE'
_TEXT	ENDS
;	COMDAT ?deallocate@?$allocator@U_Node@?$_Tree_nod@V?$_Tmap_traits@KPAUtagTGUILDMEMBER@@U?$less@K@std@@V?$allocator@U?$pair@$$CBKPAUtagTGUILDMEMBER@@@std@@@3@$0A@@std@@@std@@@std@@QAEXPAU_Node@?$_Tree_nod@V?$_Tmap_traits@KPAUtagTGUILDMEMBER@@U?$less@K@std@@V?$allocator@U?$pair@$$CBKPAUtagTGUILDMEMBER@@@std@@@3@$0A@@std@@@2@I@Z
_TEXT	SEGMENT PARA USE32 PUBLIC 'CODE'
_TEXT	ENDS
;	COMDAT ?destroy@?$allocator@U_Node@?$_Tree_nod@V?$_Tmap_traits@KPAUtagTGUILDMEMBER@@U?$less@K@std@@V?$allocator@U?$pair@$$CBKPAUtagTGUILDMEMBER@@@std@@@3@$0A@@std@@@std@@@std@@QAEXPAU_Node@?$_Tree_nod@V?$_Tmap_traits@KPAUtagTGUILDMEMBER@@U?$less@K@std@@V?$allocator@U?$pair@$$CBKPAUtagTGUILDMEMBER@@@std@@@3@$0A@@std@@@2@@Z
_TEXT	SEGMENT PARA USE32 PUBLIC 'CODE'
_TEXT	ENDS
;	COMDAT ?destroy@?$allocator@PAU_Node@?$_Tree_nod@V?$_Tmap_traits@KPAUtagTGUILDMEMBER@@U?$less@K@std@@V?$allocator@U?$pair@$$CBKPAUtagTGUILDMEMBER@@@std@@@3@$0A@@std@@@std@@@std@@QAEXPAPAU_Node@?$_Tree_nod@V?$_Tmap_traits@KPAUtagTGUILDMEMBER@@U?$less@K@std@@V?$allocator@U?$pair@$$CBKPAUtagTGUILDMEMBER@@@std@@@3@$0A@@std@@@2@@Z
_TEXT	SEGMENT PARA USE32 PUBLIC 'CODE'
_TEXT	ENDS
;	COMDAT ?_Color@?$_Tree@V?$_Tmap_traits@KPAUtagTTACTICSMEMBER@@U?$less@K@std@@V?$allocator@U?$pair@$$CBKPAUtagTTACTICSMEMBER@@@std@@@3@$0A@@std@@@std@@KAAADPAU_Node@?$_Tree_nod@V?$_Tmap_traits@KPAUtagTTACTICSMEMBER@@U?$less@K@std@@V?$allocator@U?$pair@$$CBKPAUtagTTACTICSMEMBER@@@std@@@3@$0A@@std@@@2@@Z
_TEXT	SEGMENT PARA USE32 PUBLIC 'CODE'
_TEXT	ENDS
;	COMDAT ?_Parent@?$_Tree@V?$_Tmap_traits@KPAUtagTTACTICSMEMBER@@U?$less@K@std@@V?$allocator@U?$pair@$$CBKPAUtagTTACTICSMEMBER@@@std@@@3@$0A@@std@@@std@@KAAAPAU_Node@?$_Tree_nod@V?$_Tmap_traits@KPAUtagTTACTICSMEMBER@@U?$less@K@std@@V?$allocator@U?$pair@$$CBKPAUtagTTACTICSMEMBER@@@std@@@3@$0A@@std@@@2@PAU342@@Z
_TEXT	SEGMENT PARA USE32 PUBLIC 'CODE'
_TEXT	ENDS
;	COMDAT ?_Myval@?$_Tree@V?$_Tmap_traits@KPAUtagTTACTICSMEMBER@@U?$less@K@std@@V?$allocator@U?$pair@$$CBKPAUtagTTACTICSMEMBER@@@std@@@3@$0A@@std@@@std@@KAAAU?$pair@$$CBKPAUtagTTACTICSMEMBER@@@2@PAU_Node@?$_Tree_nod@V?$_Tmap_traits@KPAUtagTTACTICSMEMBER@@U?$less@K@std@@V?$allocator@U?$pair@$$CBKPAUtagTTACTICSMEMBER@@@std@@@3@$0A@@std@@@2@@Z
_TEXT	SEGMENT PARA USE32 PUBLIC 'CODE'
_TEXT	ENDS
;	COMDAT ?max_size@?$_Tree@V?$_Tmap_traits@KPAUtagTTACTICSMEMBER@@U?$less@K@std@@V?$allocator@U?$pair@$$CBKPAUtagTTACTICSMEMBER@@@std@@@3@$0A@@std@@@std@@QBEIXZ
_TEXT	SEGMENT PARA USE32 PUBLIC 'CODE'
_TEXT	ENDS
;	COMDAT ?erase@?$_Tree@V?$_Tmap_traits@KPAUtagTTACTICSMEMBER@@U?$less@K@std@@V?$allocator@U?$pair@$$CBKPAUtagTTACTICSMEMBER@@@std@@@3@$0A@@std@@@std@@QAE?AViterator@12@V312@@Z
_TEXT	SEGMENT PARA USE32 PUBLIC 'CODE'
_TEXT	ENDS
;	COMDAT ?upper_bound@?$_Tree@V?$_Tmap_traits@KPAUtagTTACTICSMEMBER@@U?$less@K@std@@V?$allocator@U?$pair@$$CBKPAUtagTTACTICSMEMBER@@@std@@@3@$0A@@std@@@std@@QAE?AViterator@12@ABK@Z
_TEXT	SEGMENT PARA USE32 PUBLIC 'CODE'
_TEXT	ENDS
;	COMDAT ?_Init@?$_Tree@V?$_Tmap_traits@KPAUtagTTACTICSMEMBER@@U?$less@K@std@@V?$allocator@U?$pair@$$CBKPAUtagTTACTICSMEMBER@@@std@@@3@$0A@@std@@@std@@IAEXXZ
_TEXT	SEGMENT PARA USE32 PUBLIC 'CODE'
_TEXT	ENDS
;	COMDAT ?_Lbound@?$_Tree@V?$_Tmap_traits@KPAUtagTTACTICSMEMBER@@U?$less@K@std@@V?$allocator@U?$pair@$$CBKPAUtagTTACTICSMEMBER@@@std@@@3@$0A@@std@@@std@@IBEPAU_Node@?$_Tree_nod@V?$_Tmap_traits@KPAUtagTTACTICSMEMBER@@U?$less@K@std@@V?$allocator@U?$pair@$$CBKPAUtagTTACTICSMEMBER@@@std@@@3@$0A@@std@@@2@ABK@Z
_TEXT	SEGMENT PARA USE32 PUBLIC 'CODE'
_TEXT	ENDS
;	COMDAT ?_Lrotate@?$_Tree@V?$_Tmap_traits@KPAUtagTTACTICSMEMBER@@U?$less@K@std@@V?$allocator@U?$pair@$$CBKPAUtagTTACTICSMEMBER@@@std@@@3@$0A@@std@@@std@@IAEXPAU_Node@?$_Tree_nod@V?$_Tmap_traits@KPAUtagTTACTICSMEMBER@@U?$less@K@std@@V?$allocator@U?$pair@$$CBKPAUtagTTACTICSMEMBER@@@std@@@3@$0A@@std@@@2@@Z
_TEXT	SEGMENT PARA USE32 PUBLIC 'CODE'
_TEXT	ENDS
;	COMDAT ?_Rrotate@?$_Tree@V?$_Tmap_traits@KPAUtagTTACTICSMEMBER@@U?$less@K@std@@V?$allocator@U?$pair@$$CBKPAUtagTTACTICSMEMBER@@@std@@@3@$0A@@std@@@std@@IAEXPAU_Node@?$_Tree_nod@V?$_Tmap_traits@KPAUtagTTACTICSMEMBER@@U?$less@K@std@@V?$allocator@U?$pair@$$CBKPAUtagTTACTICSMEMBER@@@std@@@3@$0A@@std@@@2@@Z
_TEXT	SEGMENT PARA USE32 PUBLIC 'CODE'
_TEXT	ENDS
;	COMDAT ?_Buynode@?$_Tree@V?$_Tmap_traits@KPAUtagTTACTICSMEMBER@@U?$less@K@std@@V?$allocator@U?$pair@$$CBKPAUtagTTACTICSMEMBER@@@std@@@3@$0A@@std@@@std@@IAEPAU_Node@?$_Tree_nod@V?$_Tmap_traits@KPAUtagTTACTICSMEMBER@@U?$less@K@std@@V?$allocator@U?$pair@$$CBKPAUtagTTACTICSMEMBER@@@std@@@3@$0A@@std@@@2@PAU342@00ABU?$pair@$$CBKPAUtagTTACTICSMEMBER@@@2@D@Z
_TEXT	SEGMENT PARA USE32 PUBLIC 'CODE'
_TEXT	ENDS
;	COMDAT ??0?$_Tree_val@V?$_Tmap_traits@KPAUtagTTACTICSMEMBER@@U?$less@K@std@@V?$allocator@U?$pair@$$CBKPAUtagTTACTICSMEMBER@@@std@@@3@$0A@@std@@@std@@IAE@ABU?$less@K@1@V?$allocator@U?$pair@$$CBKPAUtagTTACTICSMEMBER@@@std@@@1@@Z
_TEXT	SEGMENT PARA USE32 PUBLIC 'CODE'
_TEXT	ENDS
;	COMDAT ??0?$allocator@U?$pair@$$CBKPAUtagTTACTICSMEMBER@@@std@@@std@@QAE@ABV01@@Z
_TEXT	SEGMENT PARA USE32 PUBLIC 'CODE'
_TEXT	ENDS
;	COMDAT ?deallocate@?$allocator@U_Node@?$_Tree_nod@V?$_Tmap_traits@KPAUtagTTACTICSMEMBER@@U?$less@K@std@@V?$allocator@U?$pair@$$CBKPAUtagTTACTICSMEMBER@@@std@@@3@$0A@@std@@@std@@@std@@QAEXPAU_Node@?$_Tree_nod@V?$_Tmap_traits@KPAUtagTTACTICSMEMBER@@U?$less@K@std@@V?$allocator@U?$pair@$$CBKPAUtagTTACTICSMEMBER@@@std@@@3@$0A@@std@@@2@I@Z
_TEXT	SEGMENT PARA USE32 PUBLIC 'CODE'
_TEXT	ENDS
;	COMDAT ?destroy@?$allocator@U_Node@?$_Tree_nod@V?$_Tmap_traits@KPAUtagTTACTICSMEMBER@@U?$less@K@std@@V?$allocator@U?$pair@$$CBKPAUtagTTACTICSMEMBER@@@std@@@3@$0A@@std@@@std@@@std@@QAEXPAU_Node@?$_Tree_nod@V?$_Tmap_traits@KPAUtagTTACTICSMEMBER@@U?$less@K@std@@V?$allocator@U?$pair@$$CBKPAUtagTTACTICSMEMBER@@@std@@@3@$0A@@std@@@2@@Z
_TEXT	SEGMENT PARA USE32 PUBLIC 'CODE'
_TEXT	ENDS
;	COMDAT ?destroy@?$allocator@PAU_Node@?$_Tree_nod@V?$_Tmap_traits@KPAUtagTTACTICSMEMBER@@U?$less@K@std@@V?$allocator@U?$pair@$$CBKPAUtagTTACTICSMEMBER@@@std@@@3@$0A@@std@@@std@@@std@@QAEXPAPAU_Node@?$_Tree_nod@V?$_Tmap_traits@KPAUtagTTACTICSMEMBER@@U?$less@K@std@@V?$allocator@U?$pair@$$CBKPAUtagTTACTICSMEMBER@@@std@@@3@$0A@@std@@@2@@Z
_TEXT	SEGMENT PARA USE32 PUBLIC 'CODE'
_TEXT	ENDS
;	COMDAT ?_Color@?$_Tree@V?$_Tmap_traits@KPAUtagTGUILDARTICLE@@U?$less@K@std@@V?$allocator@U?$pair@$$CBKPAUtagTGUILDARTICLE@@@std@@@3@$0A@@std@@@std@@KAAADPAU_Node@?$_Tree_nod@V?$_Tmap_traits@KPAUtagTGUILDARTICLE@@U?$less@K@std@@V?$allocator@U?$pair@$$CBKPAUtagTGUILDARTICLE@@@std@@@3@$0A@@std@@@2@@Z
_TEXT	SEGMENT PARA USE32 PUBLIC 'CODE'
_TEXT	ENDS
;	COMDAT ?_Parent@?$_Tree@V?$_Tmap_traits@KPAUtagTGUILDARTICLE@@U?$less@K@std@@V?$allocator@U?$pair@$$CBKPAUtagTGUILDARTICLE@@@std@@@3@$0A@@std@@@std@@KAAAPAU_Node@?$_Tree_nod@V?$_Tmap_traits@KPAUtagTGUILDARTICLE@@U?$less@K@std@@V?$allocator@U?$pair@$$CBKPAUtagTGUILDARTICLE@@@std@@@3@$0A@@std@@@2@PAU342@@Z
_TEXT	SEGMENT PARA USE32 PUBLIC 'CODE'
_TEXT	ENDS
;	COMDAT ?_Myval@?$_Tree@V?$_Tmap_traits@KPAUtagTGUILDARTICLE@@U?$less@K@std@@V?$allocator@U?$pair@$$CBKPAUtagTGUILDARTICLE@@@std@@@3@$0A@@std@@@std@@KAAAU?$pair@$$CBKPAUtagTGUILDARTICLE@@@2@PAU_Node@?$_Tree_nod@V?$_Tmap_traits@KPAUtagTGUILDARTICLE@@U?$less@K@std@@V?$allocator@U?$pair@$$CBKPAUtagTGUILDARTICLE@@@std@@@3@$0A@@std@@@2@@Z
_TEXT	SEGMENT PARA USE32 PUBLIC 'CODE'
_TEXT	ENDS
;	COMDAT ?max_size@?$_Tree@V?$_Tmap_traits@KPAUtagTGUILDARTICLE@@U?$less@K@std@@V?$allocator@U?$pair@$$CBKPAUtagTGUILDARTICLE@@@std@@@3@$0A@@std@@@std@@QBEIXZ
_TEXT	SEGMENT PARA USE32 PUBLIC 'CODE'
_TEXT	ENDS
;	COMDAT ?erase@?$_Tree@V?$_Tmap_traits@KPAUtagTGUILDARTICLE@@U?$less@K@std@@V?$allocator@U?$pair@$$CBKPAUtagTGUILDARTICLE@@@std@@@3@$0A@@std@@@std@@QAE?AViterator@12@V312@@Z
_TEXT	SEGMENT PARA USE32 PUBLIC 'CODE'
_TEXT	ENDS
;	COMDAT ?upper_bound@?$_Tree@V?$_Tmap_traits@KPAUtagTGUILDARTICLE@@U?$less@K@std@@V?$allocator@U?$pair@$$CBKPAUtagTGUILDARTICLE@@@std@@@3@$0A@@std@@@std@@QAE?AViterator@12@ABK@Z
_TEXT	SEGMENT PARA USE32 PUBLIC 'CODE'
_TEXT	ENDS
;	COMDAT ?_Init@?$_Tree@V?$_Tmap_traits@KPAUtagTGUILDARTICLE@@U?$less@K@std@@V?$allocator@U?$pair@$$CBKPAUtagTGUILDARTICLE@@@std@@@3@$0A@@std@@@std@@IAEXXZ
_TEXT	SEGMENT PARA USE32 PUBLIC 'CODE'
_TEXT	ENDS
;	COMDAT ?_Lbound@?$_Tree@V?$_Tmap_traits@KPAUtagTGUILDARTICLE@@U?$less@K@std@@V?$allocator@U?$pair@$$CBKPAUtagTGUILDARTICLE@@@std@@@3@$0A@@std@@@std@@IBEPAU_Node@?$_Tree_nod@V?$_Tmap_traits@KPAUtagTGUILDARTICLE@@U?$less@K@std@@V?$allocator@U?$pair@$$CBKPAUtagTGUILDARTICLE@@@std@@@3@$0A@@std@@@2@ABK@Z
_TEXT	SEGMENT PARA USE32 PUBLIC 'CODE'
_TEXT	ENDS
;	COMDAT ?_Lrotate@?$_Tree@V?$_Tmap_traits@KPAUtagTGUILDARTICLE@@U?$less@K@std@@V?$allocator@U?$pair@$$CBKPAUtagTGUILDARTICLE@@@std@@@3@$0A@@std@@@std@@IAEXPAU_Node@?$_Tree_nod@V?$_Tmap_traits@KPAUtagTGUILDARTICLE@@U?$less@K@std@@V?$allocator@U?$pair@$$CBKPAUtagTGUILDARTICLE@@@std@@@3@$0A@@std@@@2@@Z
_TEXT	SEGMENT PARA USE32 PUBLIC 'CODE'
_TEXT	ENDS
;	COMDAT ?_Rrotate@?$_Tree@V?$_Tmap_traits@KPAUtagTGUILDARTICLE@@U?$less@K@std@@V?$allocator@U?$pair@$$CBKPAUtagTGUILDARTICLE@@@std@@@3@$0A@@std@@@std@@IAEXPAU_Node@?$_Tree_nod@V?$_Tmap_traits@KPAUtagTGUILDARTICLE@@U?$less@K@std@@V?$allocator@U?$pair@$$CBKPAUtagTGUILDARTICLE@@@std@@@3@$0A@@std@@@2@@Z
_TEXT	SEGMENT PARA USE32 PUBLIC 'CODE'
_TEXT	ENDS
;	COMDAT ?_Buynode@?$_Tree@V?$_Tmap_traits@KPAUtagTGUILDARTICLE@@U?$less@K@std@@V?$allocator@U?$pair@$$CBKPAUtagTGUILDARTICLE@@@std@@@3@$0A@@std@@@std@@IAEPAU_Node@?$_Tree_nod@V?$_Tmap_traits@KPAUtagTGUILDARTICLE@@U?$less@K@std@@V?$allocator@U?$pair@$$CBKPAUtagTGUILDARTICLE@@@std@@@3@$0A@@std@@@2@PAU342@00ABU?$pair@$$CBKPAUtagTGUILDARTICLE@@@2@D@Z
_TEXT	SEGMENT PARA USE32 PUBLIC 'CODE'
_TEXT	ENDS
;	COMDAT ??0?$_Tree_val@V?$_Tmap_traits@KPAUtagTGUILDARTICLE@@U?$less@K@std@@V?$allocator@U?$pair@$$CBKPAUtagTGUILDARTICLE@@@std@@@3@$0A@@std@@@std@@IAE@ABU?$less@K@1@V?$allocator@U?$pair@$$CBKPAUtagTGUILDARTICLE@@@std@@@1@@Z
_TEXT	SEGMENT PARA USE32 PUBLIC 'CODE'
_TEXT	ENDS
;	COMDAT ??0?$allocator@U?$pair@$$CBKPAUtagTGUILDARTICLE@@@std@@@std@@QAE@ABV01@@Z
_TEXT	SEGMENT PARA USE32 PUBLIC 'CODE'
_TEXT	ENDS
;	COMDAT ?deallocate@?$allocator@U_Node@?$_Tree_nod@V?$_Tmap_traits@KPAUtagTGUILDARTICLE@@U?$less@K@std@@V?$allocator@U?$pair@$$CBKPAUtagTGUILDARTICLE@@@std@@@3@$0A@@std@@@std@@@std@@QAEXPAU_Node@?$_Tree_nod@V?$_Tmap_traits@KPAUtagTGUILDARTICLE@@U?$less@K@std@@V?$allocator@U?$pair@$$CBKPAUtagTGUILDARTICLE@@@std@@@3@$0A@@std@@@2@I@Z
_TEXT	SEGMENT PARA USE32 PUBLIC 'CODE'
_TEXT	ENDS
;	COMDAT ?destroy@?$allocator@U_Node@?$_Tree_nod@V?$_Tmap_traits@KPAUtagTGUILDARTICLE@@U?$less@K@std@@V?$allocator@U?$pair@$$CBKPAUtagTGUILDARTICLE@@@std@@@3@$0A@@std@@@std@@@std@@QAEXPAU_Node@?$_Tree_nod@V?$_Tmap_traits@KPAUtagTGUILDARTICLE@@U?$less@K@std@@V?$allocator@U?$pair@$$CBKPAUtagTGUILDARTICLE@@@std@@@3@$0A@@std@@@2@@Z
_TEXT	SEGMENT PARA USE32 PUBLIC 'CODE'
_TEXT	ENDS
;	COMDAT ?destroy@?$allocator@PAU_Node@?$_Tree_nod@V?$_Tmap_traits@KPAUtagTGUILDARTICLE@@U?$less@K@std@@V?$allocator@U?$pair@$$CBKPAUtagTGUILDARTICLE@@@std@@@3@$0A@@std@@@std@@@std@@QAEXPAPAU_Node@?$_Tree_nod@V?$_Tmap_traits@KPAUtagTGUILDARTICLE@@U?$less@K@std@@V?$allocator@U?$pair@$$CBKPAUtagTGUILDARTICLE@@@std@@@3@$0A@@std@@@2@@Z
_TEXT	SEGMENT PARA USE32 PUBLIC 'CODE'
_TEXT	ENDS
;	COMDAT ?max_size@?$vector@KV?$allocator@K@std@@@std@@QBEIXZ
_TEXT	SEGMENT PARA USE32 PUBLIC 'CODE'
_TEXT	ENDS
;	COMDAT ?_Destroy@?$vector@KV?$allocator@K@std@@@std@@IAEXPAK0@Z
_TEXT	SEGMENT PARA USE32 PUBLIC 'CODE'
_TEXT	ENDS
;	COMDAT ?_Xlen@?$vector@KV?$allocator@K@std@@@std@@IBEXXZ
_TEXT	SEGMENT PARA USE32 PUBLIC 'CODE'
_TEXT	ENDS
;	COMDAT ?capacity@?$vector@UtagTGUILDPOINTREWARD@@V?$allocator@UtagTGUILDPOINTREWARD@@@std@@@std@@QBEIXZ
_TEXT	SEGMENT PARA USE32 PUBLIC 'CODE'
_TEXT	ENDS
;	COMDAT ?max_size@?$vector@UtagTGUILDPOINTREWARD@@V?$allocator@UtagTGUILDPOINTREWARD@@@std@@@std@@QBEIXZ
_TEXT	SEGMENT PARA USE32 PUBLIC 'CODE'
_TEXT	ENDS
;	COMDAT ?_Ufill@?$vector@UtagTGUILDPOINTREWARD@@V?$allocator@UtagTGUILDPOINTREWARD@@@std@@@std@@IAEPAUtagTGUILDPOINTREWARD@@PAU3@IABU3@@Z
_TEXT	SEGMENT PARA USE32 PUBLIC 'CODE'
_TEXT	ENDS
;	COMDAT ?_Xlen@?$vector@UtagTGUILDPOINTREWARD@@V?$allocator@UtagTGUILDPOINTREWARD@@@std@@@std@@IBEXXZ
_TEXT	SEGMENT PARA USE32 PUBLIC 'CODE'
_TEXT	ENDS
;	COMDAT ??0?$allocator@UtagTGUILDPOINTREWARD@@@std@@QAE@ABV01@@Z
_TEXT	SEGMENT PARA USE32 PUBLIC 'CODE'
_TEXT	ENDS
;	COMDAT ?deallocate@?$allocator@UtagTGUILDPOINTREWARD@@@std@@QAEXPAUtagTGUILDPOINTREWARD@@I@Z
_TEXT	SEGMENT PARA USE32 PUBLIC 'CODE'
_TEXT	ENDS
;	COMDAT ?allocate@?$allocator@UtagTGUILDPOINTREWARD@@@std@@QAEPAUtagTGUILDPOINTREWARD@@I@Z
_TEXT	SEGMENT PARA USE32 PUBLIC 'CODE'
_TEXT	ENDS
;	COMDAT ??0const_iterator@?$_Tree@V?$_Tmap_traits@KPAUtagTGUILDARTICLE@@U?$less@K@std@@V?$allocator@U?$pair@$$CBKPAUtagTGUILDARTICLE@@@std@@@3@$0A@@std@@@std@@QAE@PAU_Node@?$_Tree_nod@V?$_Tmap_traits@KPAUtagTGUILDARTICLE@@U?$less@K@std@@V?$allocator@U?$pair@$$CBKPAUtagTGUILDARTICLE@@@std@@@3@$0A@@std@@@2@@Z
_TEXT	SEGMENT PARA USE32 PUBLIC 'CODE'
_TEXT	ENDS
;	COMDAT ??Econst_iterator@?$_Tree@V?$_Tmap_traits@KPAUtagTGUILDARTICLE@@U?$less@K@std@@V?$allocator@U?$pair@$$CBKPAUtagTGUILDARTICLE@@@std@@@3@$0A@@std@@@std@@QAEAAV012@XZ
_TEXT	SEGMENT PARA USE32 PUBLIC 'CODE'
_TEXT	ENDS
;	COMDAT ??Fconst_iterator@?$_Tree@V?$_Tmap_traits@KPAUtagTGUILDARTICLE@@U?$less@K@std@@V?$allocator@U?$pair@$$CBKPAUtagTGUILDARTICLE@@@std@@@3@$0A@@std@@@std@@QAEAAV012@XZ
_TEXT	SEGMENT PARA USE32 PUBLIC 'CODE'
_TEXT	ENDS
;	COMDAT ??0const_iterator@?$_Tree@V?$_Tmap_traits@KPAUtagTITEM@@U?$less@K@std@@V?$allocator@U?$pair@$$CBKPAUtagTITEM@@@std@@@3@$0A@@std@@@std@@QAE@PAU_Node@?$_Tree_nod@V?$_Tmap_traits@KPAUtagTITEM@@U?$less@K@std@@V?$allocator@U?$pair@$$CBKPAUtagTITEM@@@std@@@3@$0A@@std@@@2@@Z
_TEXT	SEGMENT PARA USE32 PUBLIC 'CODE'
_TEXT	ENDS
;	COMDAT ??Econst_iterator@?$_Tree@V?$_Tmap_traits@KPAUtagTITEM@@U?$less@K@std@@V?$allocator@U?$pair@$$CBKPAUtagTITEM@@@std@@@3@$0A@@std@@@std@@QAEAAV012@XZ
_TEXT	SEGMENT PARA USE32 PUBLIC 'CODE'
_TEXT	ENDS
;	COMDAT ??Fconst_iterator@?$_Tree@V?$_Tmap_traits@KPAUtagTITEM@@U?$less@K@std@@V?$allocator@U?$pair@$$CBKPAUtagTITEM@@@std@@@3@$0A@@std@@@std@@QAEAAV012@XZ
_TEXT	SEGMENT PARA USE32 PUBLIC 'CODE'
_TEXT	ENDS
;	COMDAT ??0const_iterator@?$_Tree@V?$_Tmap_traits@KPAUtagTTACTICSMEMBER@@U?$less@K@std@@V?$allocator@U?$pair@$$CBKPAUtagTTACTICSMEMBER@@@std@@@3@$0A@@std@@@std@@QAE@PAU_Node@?$_Tree_nod@V?$_Tmap_traits@KPAUtagTTACTICSMEMBER@@U?$less@K@std@@V?$allocator@U?$pair@$$CBKPAUtagTTACTICSMEMBER@@@std@@@3@$0A@@std@@@2@@Z
_TEXT	SEGMENT PARA USE32 PUBLIC 'CODE'
_TEXT	ENDS
;	COMDAT ??Econst_iterator@?$_Tree@V?$_Tmap_traits@KPAUtagTTACTICSMEMBER@@U?$less@K@std@@V?$allocator@U?$pair@$$CBKPAUtagTTACTICSMEMBER@@@std@@@3@$0A@@std@@@std@@QAEAAV012@XZ
_TEXT	SEGMENT PARA USE32 PUBLIC 'CODE'
_TEXT	ENDS
;	COMDAT ??Fconst_iterator@?$_Tree@V?$_Tmap_traits@KPAUtagTTACTICSMEMBER@@U?$less@K@std@@V?$allocator@U?$pair@$$CBKPAUtagTTACTICSMEMBER@@@std@@@3@$0A@@std@@@std@@QAEAAV012@XZ
_TEXT	SEGMENT PARA USE32 PUBLIC 'CODE'
_TEXT	ENDS
;	COMDAT ??0const_iterator@?$_Tree@V?$_Tmap_traits@KPAUtagTGUILDMEMBER@@U?$less@K@std@@V?$allocator@U?$pair@$$CBKPAUtagTGUILDMEMBER@@@std@@@3@$0A@@std@@@std@@QAE@PAU_Node@?$_Tree_nod@V?$_Tmap_traits@KPAUtagTGUILDMEMBER@@U?$less@K@std@@V?$allocator@U?$pair@$$CBKPAUtagTGUILDMEMBER@@@std@@@3@$0A@@std@@@2@@Z
_TEXT	SEGMENT PARA USE32 PUBLIC 'CODE'
_TEXT	ENDS
;	COMDAT ??Econst_iterator@?$_Tree@V?$_Tmap_traits@KPAUtagTGUILDMEMBER@@U?$less@K@std@@V?$allocator@U?$pair@$$CBKPAUtagTGUILDMEMBER@@@std@@@3@$0A@@std@@@std@@QAEAAV012@XZ
_TEXT	SEGMENT PARA USE32 PUBLIC 'CODE'
_TEXT	ENDS
;	COMDAT ??Fconst_iterator@?$_Tree@V?$_Tmap_traits@KPAUtagTGUILDMEMBER@@U?$less@K@std@@V?$allocator@U?$pair@$$CBKPAUtagTGUILDMEMBER@@@std@@@3@$0A@@std@@@std@@QAEAAV012@XZ
_TEXT	SEGMENT PARA USE32 PUBLIC 'CODE'
_TEXT	ENDS
;	COMDAT ??Yiterator@?$vector@UtagTGUILDPOINTREWARD@@V?$allocator@UtagTGUILDPOINTREWARD@@@std@@@std@@QAEAAV012@H@Z
_TEXT	SEGMENT PARA USE32 PUBLIC 'CODE'
_TEXT	ENDS
;	COMDAT ??0const_iterator@?$vector@UtagTGUILDPOINTREWARD@@V?$allocator@UtagTGUILDPOINTREWARD@@@std@@@std@@QAE@PAUtagTGUILDPOINTREWARD@@@Z
_TEXT	SEGMENT PARA USE32 PUBLIC 'CODE'
_TEXT	ENDS
;	COMDAT ??Gconst_iterator@?$vector@UtagTGUILDPOINTREWARD@@V?$allocator@UtagTGUILDPOINTREWARD@@@std@@@std@@QBEHABV012@@Z
_TEXT	SEGMENT PARA USE32 PUBLIC 'CODE'
_TEXT	ENDS
;	COMDAT ??0const_iterator@?$vector@UtagTENTRYRECORD@@V?$allocator@UtagTENTRYRECORD@@@std@@@std@@QAE@PAUtagTENTRYRECORD@@@Z
_TEXT	SEGMENT PARA USE32 PUBLIC 'CODE'
_TEXT	ENDS
;	COMDAT ??Dconst_iterator@?$vector@UtagTENTRYRECORD@@V?$allocator@UtagTENTRYRECORD@@@std@@@std@@QBEABUtagTENTRYRECORD@@XZ
_TEXT	SEGMENT PARA USE32 PUBLIC 'CODE'
_TEXT	ENDS
;	COMDAT ?_Color@?$_Tree@V?$_Tmap_traits@GGU?$less@G@std@@V?$allocator@U?$pair@$$CBGG@std@@@2@$0A@@std@@@std@@KAAADPAU_Node@?$_Tree_nod@V?$_Tmap_traits@GGU?$less@G@std@@V?$allocator@U?$pair@$$CBGG@std@@@2@$0A@@std@@@2@@Z
_TEXT	SEGMENT PARA USE32 PUBLIC 'CODE'
_TEXT	ENDS
;	COMDAT ?_Parent@?$_Tree@V?$_Tmap_traits@GGU?$less@G@std@@V?$allocator@U?$pair@$$CBGG@std@@@2@$0A@@std@@@std@@KAAAPAU_Node@?$_Tree_nod@V?$_Tmap_traits@GGU?$less@G@std@@V?$allocator@U?$pair@$$CBGG@std@@@2@$0A@@std@@@2@PAU342@@Z
_TEXT	SEGMENT PARA USE32 PUBLIC 'CODE'
_TEXT	ENDS
;	COMDAT ?_Myval@?$_Tree@V?$_Tmap_traits@GGU?$less@G@std@@V?$allocator@U?$pair@$$CBGG@std@@@2@$0A@@std@@@std@@KAAAU?$pair@$$CBGG@2@PAU_Node@?$_Tree_nod@V?$_Tmap_traits@GGU?$less@G@std@@V?$allocator@U?$pair@$$CBGG@std@@@2@$0A@@std@@@2@@Z
_TEXT	SEGMENT PARA USE32 PUBLIC 'CODE'
_TEXT	ENDS
;	COMDAT ?max_size@?$_Tree@V?$_Tmap_traits@GGU?$less@G@std@@V?$allocator@U?$pair@$$CBGG@std@@@2@$0A@@std@@@std@@QBEIXZ
_TEXT	SEGMENT PARA USE32 PUBLIC 'CODE'
_TEXT	ENDS
;	COMDAT ?_Lbound@?$_Tree@V?$_Tmap_traits@GGU?$less@G@std@@V?$allocator@U?$pair@$$CBGG@std@@@2@$0A@@std@@@std@@IBEPAU_Node@?$_Tree_nod@V?$_Tmap_traits@GGU?$less@G@std@@V?$allocator@U?$pair@$$CBGG@std@@@2@$0A@@std@@@2@ABG@Z
_TEXT	SEGMENT PARA USE32 PUBLIC 'CODE'
_TEXT	ENDS
;	COMDAT ?_Lmost@?$_Tree@V?$_Tmap_traits@GGU?$less@G@std@@V?$allocator@U?$pair@$$CBGG@std@@@2@$0A@@std@@@std@@IAEAAPAU_Node@?$_Tree_nod@V?$_Tmap_traits@GGU?$less@G@std@@V?$allocator@U?$pair@$$CBGG@std@@@2@$0A@@std@@@2@XZ
_TEXT	SEGMENT PARA USE32 PUBLIC 'CODE'
_TEXT	ENDS
;	COMDAT ?_Lrotate@?$_Tree@V?$_Tmap_traits@GGU?$less@G@std@@V?$allocator@U?$pair@$$CBGG@std@@@2@$0A@@std@@@std@@IAEXPAU_Node@?$_Tree_nod@V?$_Tmap_traits@GGU?$less@G@std@@V?$allocator@U?$pair@$$CBGG@std@@@2@$0A@@std@@@2@@Z
_TEXT	SEGMENT PARA USE32 PUBLIC 'CODE'
_TEXT	ENDS
;	COMDAT ?_Rmost@?$_Tree@V?$_Tmap_traits@GGU?$less@G@std@@V?$allocator@U?$pair@$$CBGG@std@@@2@$0A@@std@@@std@@IAEAAPAU_Node@?$_Tree_nod@V?$_Tmap_traits@GGU?$less@G@std@@V?$allocator@U?$pair@$$CBGG@std@@@2@$0A@@std@@@2@XZ
_TEXT	SEGMENT PARA USE32 PUBLIC 'CODE'
_TEXT	ENDS
;	COMDAT ?_Rrotate@?$_Tree@V?$_Tmap_traits@GGU?$less@G@std@@V?$allocator@U?$pair@$$CBGG@std@@@2@$0A@@std@@@std@@IAEXPAU_Node@?$_Tree_nod@V?$_Tmap_traits@GGU?$less@G@std@@V?$allocator@U?$pair@$$CBGG@std@@@2@$0A@@std@@@2@@Z
_TEXT	SEGMENT PARA USE32 PUBLIC 'CODE'
_TEXT	ENDS
;	COMDAT ?_Buynode@?$_Tree@V?$_Tmap_traits@GGU?$less@G@std@@V?$allocator@U?$pair@$$CBGG@std@@@2@$0A@@std@@@std@@IAEPAU_Node@?$_Tree_nod@V?$_Tmap_traits@GGU?$less@G@std@@V?$allocator@U?$pair@$$CBGG@std@@@2@$0A@@std@@@2@PAU342@00ABU?$pair@$$CBGG@2@D@Z
_TEXT	SEGMENT PARA USE32 PUBLIC 'CODE'
_TEXT	ENDS
;	COMDAT ??0const_iterator@?$_Tree@V?$_Tmap_traits@GGU?$less@G@std@@V?$allocator@U?$pair@$$CBGG@std@@@2@$0A@@std@@@std@@QAE@PAU_Node@?$_Tree_nod@V?$_Tmap_traits@GGU?$less@G@std@@V?$allocator@U?$pair@$$CBGG@std@@@2@$0A@@std@@@2@@Z
_TEXT	SEGMENT PARA USE32 PUBLIC 'CODE'
_TEXT	ENDS
;	COMDAT ??Fconst_iterator@?$_Tree@V?$_Tmap_traits@GGU?$less@G@std@@V?$allocator@U?$pair@$$CBGG@std@@@2@$0A@@std@@@std@@QAEAAV012@XZ
_TEXT	SEGMENT PARA USE32 PUBLIC 'CODE'
_TEXT	ENDS
;	COMDAT ??0?$pair@Viterator@?$_Tree@V?$_Tmap_traits@KPAUtagTITEM@@U?$less@K@std@@V?$allocator@U?$pair@$$CBKPAUtagTITEM@@@std@@@3@$0A@@std@@@std@@V123@@std@@QAE@ABViterator@?$_Tree@V?$_Tmap_traits@KPAUtagTITEM@@U?$less@K@std@@V?$allocator@U?$pair@$$CBKPAUtagTITEM@@@std@@@3@$0A@@std@@@1@0@Z
_TEXT	SEGMENT PARA USE32 PUBLIC 'CODE'
_TEXT	ENDS
;	COMDAT ??0?$pair@Viterator@?$_Tree@V?$_Tmap_traits@KPAUtagTGUILDMEMBER@@U?$less@K@std@@V?$allocator@U?$pair@$$CBKPAUtagTGUILDMEMBER@@@std@@@3@$0A@@std@@@std@@V123@@std@@QAE@ABViterator@?$_Tree@V?$_Tmap_traits@KPAUtagTGUILDMEMBER@@U?$less@K@std@@V?$allocator@U?$pair@$$CBKPAUtagTGUILDMEMBER@@@std@@@3@$0A@@std@@@1@0@Z
_TEXT	SEGMENT PARA USE32 PUBLIC 'CODE'
_TEXT	ENDS
;	COMDAT ??0?$pair@Viterator@?$_Tree@V?$_Tmap_traits@KPAUtagTTACTICSMEMBER@@U?$less@K@std@@V?$allocator@U?$pair@$$CBKPAUtagTTACTICSMEMBER@@@std@@@3@$0A@@std@@@std@@V123@@std@@QAE@ABViterator@?$_Tree@V?$_Tmap_traits@KPAUtagTTACTICSMEMBER@@U?$less@K@std@@V?$allocator@U?$pair@$$CBKPAUtagTTACTICSMEMBER@@@std@@@3@$0A@@std@@@1@0@Z
_TEXT	SEGMENT PARA USE32 PUBLIC 'CODE'
_TEXT	ENDS
;	COMDAT ??0?$pair@Viterator@?$_Tree@V?$_Tmap_traits@KPAUtagTGUILDARTICLE@@U?$less@K@std@@V?$allocator@U?$pair@$$CBKPAUtagTGUILDARTICLE@@@std@@@3@$0A@@std@@@std@@V123@@std@@QAE@ABViterator@?$_Tree@V?$_Tmap_traits@KPAUtagTGUILDARTICLE@@U?$less@K@std@@V?$allocator@U?$pair@$$CBKPAUtagTGUILDARTICLE@@@std@@@3@$0A@@std@@@1@0@Z
_TEXT	SEGMENT PARA USE32 PUBLIC 'CODE'
_TEXT	ENDS
;	COMDAT ??0?$CSimpleStringT@D$0A@@ATL@@QAE@PBDHPAUIAtlStringMgr@1@@Z
_TEXT	SEGMENT PARA USE32 PUBLIC 'CODE'
_TEXT	ENDS
;	COMDAT ?max_size@?$allocator@K@std@@QBEIXZ
_TEXT	SEGMENT PARA USE32 PUBLIC 'CODE'
_TEXT	ENDS
;	COMDAT ?_Max@?$_Tree@V?$_Tmap_traits@KPAUtagTITEM@@U?$less@K@std@@V?$allocator@U?$pair@$$CBKPAUtagTITEM@@@std@@@3@$0A@@std@@@std@@KAPAU_Node@?$_Tree_nod@V?$_Tmap_traits@KPAUtagTITEM@@U?$less@K@std@@V?$allocator@U?$pair@$$CBKPAUtagTITEM@@@std@@@3@$0A@@std@@@2@PAU342@@Z
_TEXT	SEGMENT PARA USE32 PUBLIC 'CODE'
_TEXT	ENDS
;	COMDAT ?_Min@?$_Tree@V?$_Tmap_traits@KPAUtagTITEM@@U?$less@K@std@@V?$allocator@U?$pair@$$CBKPAUtagTITEM@@@std@@@3@$0A@@std@@@std@@KAPAU_Node@?$_Tree_nod@V?$_Tmap_traits@KPAUtagTITEM@@U?$less@K@std@@V?$allocator@U?$pair@$$CBKPAUtagTITEM@@@std@@@3@$0A@@std@@@2@PAU342@@Z
_TEXT	SEGMENT PARA USE32 PUBLIC 'CODE'
_TEXT	ENDS
;	COMDAT ?_Root@?$_Tree@V?$_Tmap_traits@KPAUtagTITEM@@U?$less@K@std@@V?$allocator@U?$pair@$$CBKPAUtagTITEM@@@std@@@3@$0A@@std@@@std@@IBEAAPAU_Node@?$_Tree_nod@V?$_Tmap_traits@KPAUtagTITEM@@U?$less@K@std@@V?$allocator@U?$pair@$$CBKPAUtagTITEM@@@std@@@3@$0A@@std@@@2@XZ
_TEXT	SEGMENT PARA USE32 PUBLIC 'CODE'
_TEXT	ENDS
;	COMDAT ?_Ubound@?$_Tree@V?$_Tmap_traits@KPAUtagTITEM@@U?$less@K@std@@V?$allocator@U?$pair@$$CBKPAUtagTITEM@@@std@@@3@$0A@@std@@@std@@IBEPAU_Node@?$_Tree_nod@V?$_Tmap_traits@KPAUtagTITEM@@U?$less@K@std@@V?$allocator@U?$pair@$$CBKPAUtagTITEM@@@std@@@3@$0A@@std@@@2@ABK@Z
_TEXT	SEGMENT PARA USE32 PUBLIC 'CODE'
_TEXT	ENDS
;	COMDAT ?_Buynode@?$_Tree@V?$_Tmap_traits@KPAUtagTITEM@@U?$less@K@std@@V?$allocator@U?$pair@$$CBKPAUtagTITEM@@@std@@@3@$0A@@std@@@std@@IAEPAU_Node@?$_Tree_nod@V?$_Tmap_traits@KPAUtagTITEM@@U?$less@K@std@@V?$allocator@U?$pair@$$CBKPAUtagTITEM@@@std@@@3@$0A@@std@@@2@XZ
_TEXT	SEGMENT PARA USE32 PUBLIC 'CODE'
_TEXT	ENDS
;	COMDAT ??0?$_Tree_ptr@V?$_Tmap_traits@KPAUtagTITEM@@U?$less@K@std@@V?$allocator@U?$pair@$$CBKPAUtagTITEM@@@std@@@3@$0A@@std@@@std@@IAE@ABU?$less@K@1@V?$allocator@U?$pair@$$CBKPAUtagTITEM@@@std@@@1@@Z
_TEXT	SEGMENT PARA USE32 PUBLIC 'CODE'
_TEXT	ENDS
;	COMDAT ?max_size@?$allocator@U?$pair@$$CBKPAUtagTITEM@@@std@@@std@@QBEIXZ
_TEXT	SEGMENT PARA USE32 PUBLIC 'CODE'
_TEXT	ENDS
;	COMDAT ?allocate@?$allocator@U_Node@?$_Tree_nod@V?$_Tmap_traits@KPAUtagTITEM@@U?$less@K@std@@V?$allocator@U?$pair@$$CBKPAUtagTITEM@@@std@@@3@$0A@@std@@@std@@@std@@QAEPAU_Node@?$_Tree_nod@V?$_Tmap_traits@KPAUtagTITEM@@U?$less@K@std@@V?$allocator@U?$pair@$$CBKPAUtagTITEM@@@std@@@3@$0A@@std@@@2@I@Z
_TEXT	SEGMENT PARA USE32 PUBLIC 'CODE'
_TEXT	ENDS
;	COMDAT ?_Max@?$_Tree@V?$_Tmap_traits@KPAUtagTGUILDMEMBER@@U?$less@K@std@@V?$allocator@U?$pair@$$CBKPAUtagTGUILDMEMBER@@@std@@@3@$0A@@std@@@std@@KAPAU_Node@?$_Tree_nod@V?$_Tmap_traits@KPAUtagTGUILDMEMBER@@U?$less@K@std@@V?$allocator@U?$pair@$$CBKPAUtagTGUILDMEMBER@@@std@@@3@$0A@@std@@@2@PAU342@@Z
_TEXT	SEGMENT PARA USE32 PUBLIC 'CODE'
_TEXT	ENDS
;	COMDAT ?_Min@?$_Tree@V?$_Tmap_traits@KPAUtagTGUILDMEMBER@@U?$less@K@std@@V?$allocator@U?$pair@$$CBKPAUtagTGUILDMEMBER@@@std@@@3@$0A@@std@@@std@@KAPAU_Node@?$_Tree_nod@V?$_Tmap_traits@KPAUtagTGUILDMEMBER@@U?$less@K@std@@V?$allocator@U?$pair@$$CBKPAUtagTGUILDMEMBER@@@std@@@3@$0A@@std@@@2@PAU342@@Z
_TEXT	SEGMENT PARA USE32 PUBLIC 'CODE'
_TEXT	ENDS
;	COMDAT ?_Root@?$_Tree@V?$_Tmap_traits@KPAUtagTGUILDMEMBER@@U?$less@K@std@@V?$allocator@U?$pair@$$CBKPAUtagTGUILDMEMBER@@@std@@@3@$0A@@std@@@std@@IBEAAPAU_Node@?$_Tree_nod@V?$_Tmap_traits@KPAUtagTGUILDMEMBER@@U?$less@K@std@@V?$allocator@U?$pair@$$CBKPAUtagTGUILDMEMBER@@@std@@@3@$0A@@std@@@2@XZ
_TEXT	SEGMENT PARA USE32 PUBLIC 'CODE'
_TEXT	ENDS
;	COMDAT ?_Ubound@?$_Tree@V?$_Tmap_traits@KPAUtagTGUILDMEMBER@@U?$less@K@std@@V?$allocator@U?$pair@$$CBKPAUtagTGUILDMEMBER@@@std@@@3@$0A@@std@@@std@@IBEPAU_Node@?$_Tree_nod@V?$_Tmap_traits@KPAUtagTGUILDMEMBER@@U?$less@K@std@@V?$allocator@U?$pair@$$CBKPAUtagTGUILDMEMBER@@@std@@@3@$0A@@std@@@2@ABK@Z
_TEXT	SEGMENT PARA USE32 PUBLIC 'CODE'
_TEXT	ENDS
;	COMDAT ?_Buynode@?$_Tree@V?$_Tmap_traits@KPAUtagTGUILDMEMBER@@U?$less@K@std@@V?$allocator@U?$pair@$$CBKPAUtagTGUILDMEMBER@@@std@@@3@$0A@@std@@@std@@IAEPAU_Node@?$_Tree_nod@V?$_Tmap_traits@KPAUtagTGUILDMEMBER@@U?$less@K@std@@V?$allocator@U?$pair@$$CBKPAUtagTGUILDMEMBER@@@std@@@3@$0A@@std@@@2@XZ
_TEXT	SEGMENT PARA USE32 PUBLIC 'CODE'
_TEXT	ENDS
;	COMDAT ??0?$_Tree_ptr@V?$_Tmap_traits@KPAUtagTGUILDMEMBER@@U?$less@K@std@@V?$allocator@U?$pair@$$CBKPAUtagTGUILDMEMBER@@@std@@@3@$0A@@std@@@std@@IAE@ABU?$less@K@1@V?$allocator@U?$pair@$$CBKPAUtagTGUILDMEMBER@@@std@@@1@@Z
_TEXT	SEGMENT PARA USE32 PUBLIC 'CODE'
_TEXT	ENDS
;	COMDAT ?max_size@?$allocator@U?$pair@$$CBKPAUtagTGUILDMEMBER@@@std@@@std@@QBEIXZ
_TEXT	SEGMENT PARA USE32 PUBLIC 'CODE'
_TEXT	ENDS
;	COMDAT ?allocate@?$allocator@U_Node@?$_Tree_nod@V?$_Tmap_traits@KPAUtagTGUILDMEMBER@@U?$less@K@std@@V?$allocator@U?$pair@$$CBKPAUtagTGUILDMEMBER@@@std@@@3@$0A@@std@@@std@@@std@@QAEPAU_Node@?$_Tree_nod@V?$_Tmap_traits@KPAUtagTGUILDMEMBER@@U?$less@K@std@@V?$allocator@U?$pair@$$CBKPAUtagTGUILDMEMBER@@@std@@@3@$0A@@std@@@2@I@Z
_TEXT	SEGMENT PARA USE32 PUBLIC 'CODE'
_TEXT	ENDS
;	COMDAT ?_Max@?$_Tree@V?$_Tmap_traits@KPAUtagTTACTICSMEMBER@@U?$less@K@std@@V?$allocator@U?$pair@$$CBKPAUtagTTACTICSMEMBER@@@std@@@3@$0A@@std@@@std@@KAPAU_Node@?$_Tree_nod@V?$_Tmap_traits@KPAUtagTTACTICSMEMBER@@U?$less@K@std@@V?$allocator@U?$pair@$$CBKPAUtagTTACTICSMEMBER@@@std@@@3@$0A@@std@@@2@PAU342@@Z
_TEXT	SEGMENT PARA USE32 PUBLIC 'CODE'
_TEXT	ENDS
;	COMDAT ?_Min@?$_Tree@V?$_Tmap_traits@KPAUtagTTACTICSMEMBER@@U?$less@K@std@@V?$allocator@U?$pair@$$CBKPAUtagTTACTICSMEMBER@@@std@@@3@$0A@@std@@@std@@KAPAU_Node@?$_Tree_nod@V?$_Tmap_traits@KPAUtagTTACTICSMEMBER@@U?$less@K@std@@V?$allocator@U?$pair@$$CBKPAUtagTTACTICSMEMBER@@@std@@@3@$0A@@std@@@2@PAU342@@Z
_TEXT	SEGMENT PARA USE32 PUBLIC 'CODE'
_TEXT	ENDS
;	COMDAT ?_Root@?$_Tree@V?$_Tmap_traits@KPAUtagTTACTICSMEMBER@@U?$less@K@std@@V?$allocator@U?$pair@$$CBKPAUtagTTACTICSMEMBER@@@std@@@3@$0A@@std@@@std@@IBEAAPAU_Node@?$_Tree_nod@V?$_Tmap_traits@KPAUtagTTACTICSMEMBER@@U?$less@K@std@@V?$allocator@U?$pair@$$CBKPAUtagTTACTICSMEMBER@@@std@@@3@$0A@@std@@@2@XZ
_TEXT	SEGMENT PARA USE32 PUBLIC 'CODE'
_TEXT	ENDS
;	COMDAT ?_Ubound@?$_Tree@V?$_Tmap_traits@KPAUtagTTACTICSMEMBER@@U?$less@K@std@@V?$allocator@U?$pair@$$CBKPAUtagTTACTICSMEMBER@@@std@@@3@$0A@@std@@@std@@IBEPAU_Node@?$_Tree_nod@V?$_Tmap_traits@KPAUtagTTACTICSMEMBER@@U?$less@K@std@@V?$allocator@U?$pair@$$CBKPAUtagTTACTICSMEMBER@@@std@@@3@$0A@@std@@@2@ABK@Z
_TEXT	SEGMENT PARA USE32 PUBLIC 'CODE'
_TEXT	ENDS
;	COMDAT ?_Buynode@?$_Tree@V?$_Tmap_traits@KPAUtagTTACTICSMEMBER@@U?$less@K@std@@V?$allocator@U?$pair@$$CBKPAUtagTTACTICSMEMBER@@@std@@@3@$0A@@std@@@std@@IAEPAU_Node@?$_Tree_nod@V?$_Tmap_traits@KPAUtagTTACTICSMEMBER@@U?$less@K@std@@V?$allocator@U?$pair@$$CBKPAUtagTTACTICSMEMBER@@@std@@@3@$0A@@std@@@2@XZ
_TEXT	SEGMENT PARA USE32 PUBLIC 'CODE'
_TEXT	ENDS
;	COMDAT ??0?$_Tree_ptr@V?$_Tmap_traits@KPAUtagTTACTICSMEMBER@@U?$less@K@std@@V?$allocator@U?$pair@$$CBKPAUtagTTACTICSMEMBER@@@std@@@3@$0A@@std@@@std@@IAE@ABU?$less@K@1@V?$allocator@U?$pair@$$CBKPAUtagTTACTICSMEMBER@@@std@@@1@@Z
_TEXT	SEGMENT PARA USE32 PUBLIC 'CODE'
_TEXT	ENDS
;	COMDAT ?max_size@?$allocator@U?$pair@$$CBKPAUtagTTACTICSMEMBER@@@std@@@std@@QBEIXZ
_TEXT	SEGMENT PARA USE32 PUBLIC 'CODE'
_TEXT	ENDS
;	COMDAT ?allocate@?$allocator@U_Node@?$_Tree_nod@V?$_Tmap_traits@KPAUtagTTACTICSMEMBER@@U?$less@K@std@@V?$allocator@U?$pair@$$CBKPAUtagTTACTICSMEMBER@@@std@@@3@$0A@@std@@@std@@@std@@QAEPAU_Node@?$_Tree_nod@V?$_Tmap_traits@KPAUtagTTACTICSMEMBER@@U?$less@K@std@@V?$allocator@U?$pair@$$CBKPAUtagTTACTICSMEMBER@@@std@@@3@$0A@@std@@@2@I@Z
_TEXT	SEGMENT PARA USE32 PUBLIC 'CODE'
_TEXT	ENDS
;	COMDAT ?_Max@?$_Tree@V?$_Tmap_traits@KPAUtagTGUILDARTICLE@@U?$less@K@std@@V?$allocator@U?$pair@$$CBKPAUtagTGUILDARTICLE@@@std@@@3@$0A@@std@@@std@@KAPAU_Node@?$_Tree_nod@V?$_Tmap_traits@KPAUtagTGUILDARTICLE@@U?$less@K@std@@V?$allocator@U?$pair@$$CBKPAUtagTGUILDARTICLE@@@std@@@3@$0A@@std@@@2@PAU342@@Z
_TEXT	SEGMENT PARA USE32 PUBLIC 'CODE'
_TEXT	ENDS
;	COMDAT ?_Min@?$_Tree@V?$_Tmap_traits@KPAUtagTGUILDARTICLE@@U?$less@K@std@@V?$allocator@U?$pair@$$CBKPAUtagTGUILDARTICLE@@@std@@@3@$0A@@std@@@std@@KAPAU_Node@?$_Tree_nod@V?$_Tmap_traits@KPAUtagTGUILDARTICLE@@U?$less@K@std@@V?$allocator@U?$pair@$$CBKPAUtagTGUILDARTICLE@@@std@@@3@$0A@@std@@@2@PAU342@@Z
_TEXT	SEGMENT PARA USE32 PUBLIC 'CODE'
_TEXT	ENDS
;	COMDAT ?_Root@?$_Tree@V?$_Tmap_traits@KPAUtagTGUILDARTICLE@@U?$less@K@std@@V?$allocator@U?$pair@$$CBKPAUtagTGUILDARTICLE@@@std@@@3@$0A@@std@@@std@@IBEAAPAU_Node@?$_Tree_nod@V?$_Tmap_traits@KPAUtagTGUILDARTICLE@@U?$less@K@std@@V?$allocator@U?$pair@$$CBKPAUtagTGUILDARTICLE@@@std@@@3@$0A@@std@@@2@XZ
_TEXT	SEGMENT PARA USE32 PUBLIC 'CODE'
_TEXT	ENDS
;	COMDAT ?_Ubound@?$_Tree@V?$_Tmap_traits@KPAUtagTGUILDARTICLE@@U?$less@K@std@@V?$allocator@U?$pair@$$CBKPAUtagTGUILDARTICLE@@@std@@@3@$0A@@std@@@std@@IBEPAU_Node@?$_Tree_nod@V?$_Tmap_traits@KPAUtagTGUILDARTICLE@@U?$less@K@std@@V?$allocator@U?$pair@$$CBKPAUtagTGUILDARTICLE@@@std@@@3@$0A@@std@@@2@ABK@Z
_TEXT	SEGMENT PARA USE32 PUBLIC 'CODE'
_TEXT	ENDS
;	COMDAT ?_Buynode@?$_Tree@V?$_Tmap_traits@KPAUtagTGUILDARTICLE@@U?$less@K@std@@V?$allocator@U?$pair@$$CBKPAUtagTGUILDARTICLE@@@std@@@3@$0A@@std@@@std@@IAEPAU_Node@?$_Tree_nod@V?$_Tmap_traits@KPAUtagTGUILDARTICLE@@U?$less@K@std@@V?$allocator@U?$pair@$$CBKPAUtagTGUILDARTICLE@@@std@@@3@$0A@@std@@@2@XZ
_TEXT	SEGMENT PARA USE32 PUBLIC 'CODE'
_TEXT	ENDS
;	COMDAT ??0?$_Tree_ptr@V?$_Tmap_traits@KPAUtagTGUILDARTICLE@@U?$less@K@std@@V?$allocator@U?$pair@$$CBKPAUtagTGUILDARTICLE@@@std@@@3@$0A@@std@@@std@@IAE@ABU?$less@K@1@V?$allocator@U?$pair@$$CBKPAUtagTGUILDARTICLE@@@std@@@1@@Z
_TEXT	SEGMENT PARA USE32 PUBLIC 'CODE'
_TEXT	ENDS
;	COMDAT ?max_size@?$allocator@U?$pair@$$CBKPAUtagTGUILDARTICLE@@@std@@@std@@QBEIXZ
_TEXT	SEGMENT PARA USE32 PUBLIC 'CODE'
_TEXT	ENDS
;	COMDAT ?allocate@?$allocator@U_Node@?$_Tree_nod@V?$_Tmap_traits@KPAUtagTGUILDARTICLE@@U?$less@K@std@@V?$allocator@U?$pair@$$CBKPAUtagTGUILDARTICLE@@@std@@@3@$0A@@std@@@std@@@std@@QAEPAU_Node@?$_Tree_nod@V?$_Tmap_traits@KPAUtagTGUILDARTICLE@@U?$less@K@std@@V?$allocator@U?$pair@$$CBKPAUtagTGUILDARTICLE@@@std@@@3@$0A@@std@@@2@I@Z
_TEXT	SEGMENT PARA USE32 PUBLIC 'CODE'
_TEXT	ENDS
;	COMDAT ?max_size@?$allocator@UtagTGUILDPOINTREWARD@@@std@@QBEIXZ
_TEXT	SEGMENT PARA USE32 PUBLIC 'CODE'
_TEXT	ENDS
;	COMDAT ?_Dec@const_iterator@?$_Tree@V?$_Tmap_traits@KPAUtagTGUILDARTICLE@@U?$less@K@std@@V?$allocator@U?$pair@$$CBKPAUtagTGUILDARTICLE@@@std@@@3@$0A@@std@@@std@@QAEXXZ
_TEXT	SEGMENT PARA USE32 PUBLIC 'CODE'
_TEXT	ENDS
;	COMDAT ?_Inc@const_iterator@?$_Tree@V?$_Tmap_traits@KPAUtagTGUILDARTICLE@@U?$less@K@std@@V?$allocator@U?$pair@$$CBKPAUtagTGUILDARTICLE@@@std@@@3@$0A@@std@@@std@@QAEXXZ
_TEXT	SEGMENT PARA USE32 PUBLIC 'CODE'
_TEXT	ENDS
;	COMDAT ?_Dec@const_iterator@?$_Tree@V?$_Tmap_traits@KPAUtagTITEM@@U?$less@K@std@@V?$allocator@U?$pair@$$CBKPAUtagTITEM@@@std@@@3@$0A@@std@@@std@@QAEXXZ
_TEXT	SEGMENT PARA USE32 PUBLIC 'CODE'
_TEXT	ENDS
;	COMDAT ?_Inc@const_iterator@?$_Tree@V?$_Tmap_traits@KPAUtagTITEM@@U?$less@K@std@@V?$allocator@U?$pair@$$CBKPAUtagTITEM@@@std@@@3@$0A@@std@@@std@@QAEXXZ
_TEXT	SEGMENT PARA USE32 PUBLIC 'CODE'
_TEXT	ENDS
;	COMDAT ?_Dec@const_iterator@?$_Tree@V?$_Tmap_traits@KPAUtagTTACTICSMEMBER@@U?$less@K@std@@V?$allocator@U?$pair@$$CBKPAUtagTTACTICSMEMBER@@@std@@@3@$0A@@std@@@std@@QAEXXZ
_TEXT	SEGMENT PARA USE32 PUBLIC 'CODE'
_TEXT	ENDS
;	COMDAT ?_Inc@const_iterator@?$_Tree@V?$_Tmap_traits@KPAUtagTTACTICSMEMBER@@U?$less@K@std@@V?$allocator@U?$pair@$$CBKPAUtagTTACTICSMEMBER@@@std@@@3@$0A@@std@@@std@@QAEXXZ
_TEXT	SEGMENT PARA USE32 PUBLIC 'CODE'
_TEXT	ENDS
;	COMDAT ?_Dec@const_iterator@?$_Tree@V?$_Tmap_traits@KPAUtagTGUILDMEMBER@@U?$less@K@std@@V?$allocator@U?$pair@$$CBKPAUtagTGUILDMEMBER@@@std@@@3@$0A@@std@@@std@@QAEXXZ
_TEXT	SEGMENT PARA USE32 PUBLIC 'CODE'
_TEXT	ENDS
;	COMDAT ?_Inc@const_iterator@?$_Tree@V?$_Tmap_traits@KPAUtagTGUILDMEMBER@@U?$less@K@std@@V?$allocator@U?$pair@$$CBKPAUtagTGUILDMEMBER@@@std@@@3@$0A@@std@@@std@@QAEXXZ
_TEXT	SEGMENT PARA USE32 PUBLIC 'CODE'
_TEXT	ENDS
;	COMDAT ?_Root@?$_Tree@V?$_Tmap_traits@GGU?$less@G@std@@V?$allocator@U?$pair@$$CBGG@std@@@2@$0A@@std@@@std@@IBEAAPAU_Node@?$_Tree_nod@V?$_Tmap_traits@GGU?$less@G@std@@V?$allocator@U?$pair@$$CBGG@std@@@2@$0A@@std@@@2@XZ
_TEXT	SEGMENT PARA USE32 PUBLIC 'CODE'
_TEXT	ENDS
;	COMDAT ?max_size@?$allocator@U?$pair@$$CBGG@std@@@std@@QBEIXZ
_TEXT	SEGMENT PARA USE32 PUBLIC 'CODE'
_TEXT	ENDS
;	COMDAT ?deallocate@?$allocator@U_Node@?$_Tree_nod@V?$_Tmap_traits@GGU?$less@G@std@@V?$allocator@U?$pair@$$CBGG@std@@@2@$0A@@std@@@std@@@std@@QAEXPAU_Node@?$_Tree_nod@V?$_Tmap_traits@GGU?$less@G@std@@V?$allocator@U?$pair@$$CBGG@std@@@2@$0A@@std@@@2@I@Z
_TEXT	SEGMENT PARA USE32 PUBLIC 'CODE'
_TEXT	ENDS
;	COMDAT ?allocate@?$allocator@U_Node@?$_Tree_nod@V?$_Tmap_traits@GGU?$less@G@std@@V?$allocator@U?$pair@$$CBGG@std@@@2@$0A@@std@@@std@@@std@@QAEPAU_Node@?$_Tree_nod@V?$_Tmap_traits@GGU?$less@G@std@@V?$allocator@U?$pair@$$CBGG@std@@@2@$0A@@std@@@2@I@Z
_TEXT	SEGMENT PARA USE32 PUBLIC 'CODE'
_TEXT	ENDS
;	COMDAT ?_Dec@const_iterator@?$_Tree@V?$_Tmap_traits@GGU?$less@G@std@@V?$allocator@U?$pair@$$CBGG@std@@@2@$0A@@std@@@std@@QAEXXZ
_TEXT	SEGMENT PARA USE32 PUBLIC 'CODE'
_TEXT	ENDS
;	COMDAT ??0_Node@?$_Tree_nod@V?$_Tmap_traits@KPAUtagTITEM@@U?$less@K@std@@V?$allocator@U?$pair@$$CBKPAUtagTITEM@@@std@@@3@$0A@@std@@@std@@QAE@PAU012@00ABU?$pair@$$CBKPAUtagTITEM@@@2@D@Z
_TEXT	SEGMENT PARA USE32 PUBLIC 'CODE'
_TEXT	ENDS
;	COMDAT ??0_Node@?$_Tree_nod@V?$_Tmap_traits@KPAUtagTGUILDMEMBER@@U?$less@K@std@@V?$allocator@U?$pair@$$CBKPAUtagTGUILDMEMBER@@@std@@@3@$0A@@std@@@std@@QAE@PAU012@00ABU?$pair@$$CBKPAUtagTGUILDMEMBER@@@2@D@Z
_TEXT	SEGMENT PARA USE32 PUBLIC 'CODE'
_TEXT	ENDS
;	COMDAT ??0_Node@?$_Tree_nod@V?$_Tmap_traits@KPAUtagTTACTICSMEMBER@@U?$less@K@std@@V?$allocator@U?$pair@$$CBKPAUtagTTACTICSMEMBER@@@std@@@3@$0A@@std@@@std@@QAE@PAU012@00ABU?$pair@$$CBKPAUtagTTACTICSMEMBER@@@2@D@Z
_TEXT	SEGMENT PARA USE32 PUBLIC 'CODE'
_TEXT	ENDS
;	COMDAT ??0_Node@?$_Tree_nod@V?$_Tmap_traits@KPAUtagTGUILDARTICLE@@U?$less@K@std@@V?$allocator@U?$pair@$$CBKPAUtagTGUILDARTICLE@@@std@@@3@$0A@@std@@@std@@QAE@PAU012@00ABU?$pair@$$CBKPAUtagTGUILDARTICLE@@@2@D@Z
_TEXT	SEGMENT PARA USE32 PUBLIC 'CODE'
_TEXT	ENDS
;	COMDAT ??0_Node@?$_Tree_nod@V?$_Tmap_traits@GGU?$less@G@std@@V?$allocator@U?$pair@$$CBGG@std@@@2@$0A@@std@@@std@@QAE@PAU012@00ABU?$pair@$$CBGG@2@D@Z
_TEXT	SEGMENT PARA USE32 PUBLIC 'CODE'
_TEXT	ENDS
;	COMDAT ??0?$_Tree_nod@V?$_Tmap_traits@KPAUtagTITEM@@U?$less@K@std@@V?$allocator@U?$pair@$$CBKPAUtagTITEM@@@std@@@3@$0A@@std@@@std@@IAE@ABU?$less@K@1@V?$allocator@U?$pair@$$CBKPAUtagTITEM@@@std@@@1@@Z
_TEXT	SEGMENT PARA USE32 PUBLIC 'CODE'
_TEXT	ENDS
;	COMDAT ?construct@?$allocator@PAU_Node@?$_Tree_nod@V?$_Tmap_traits@KPAUtagTITEM@@U?$less@K@std@@V?$allocator@U?$pair@$$CBKPAUtagTITEM@@@std@@@3@$0A@@std@@@std@@@std@@QAEXPAPAU_Node@?$_Tree_nod@V?$_Tmap_traits@KPAUtagTITEM@@U?$less@K@std@@V?$allocator@U?$pair@$$CBKPAUtagTITEM@@@std@@@3@$0A@@std@@@2@ABQAU342@@Z
_TEXT	SEGMENT PARA USE32 PUBLIC 'CODE'
_TEXT	ENDS
;	COMDAT ??0?$_Tree_nod@V?$_Tmap_traits@KPAUtagTGUILDMEMBER@@U?$less@K@std@@V?$allocator@U?$pair@$$CBKPAUtagTGUILDMEMBER@@@std@@@3@$0A@@std@@@std@@IAE@ABU?$less@K@1@V?$allocator@U?$pair@$$CBKPAUtagTGUILDMEMBER@@@std@@@1@@Z
_TEXT	SEGMENT PARA USE32 PUBLIC 'CODE'
_TEXT	ENDS
;	COMDAT ?construct@?$allocator@PAU_Node@?$_Tree_nod@V?$_Tmap_traits@KPAUtagTGUILDMEMBER@@U?$less@K@std@@V?$allocator@U?$pair@$$CBKPAUtagTGUILDMEMBER@@@std@@@3@$0A@@std@@@std@@@std@@QAEXPAPAU_Node@?$_Tree_nod@V?$_Tmap_traits@KPAUtagTGUILDMEMBER@@U?$less@K@std@@V?$allocator@U?$pair@$$CBKPAUtagTGUILDMEMBER@@@std@@@3@$0A@@std@@@2@ABQAU342@@Z
_TEXT	SEGMENT PARA USE32 PUBLIC 'CODE'
_TEXT	ENDS
;	COMDAT ??0?$_Tree_nod@V?$_Tmap_traits@KPAUtagTTACTICSMEMBER@@U?$less@K@std@@V?$allocator@U?$pair@$$CBKPAUtagTTACTICSMEMBER@@@std@@@3@$0A@@std@@@std@@IAE@ABU?$less@K@1@V?$allocator@U?$pair@$$CBKPAUtagTTACTICSMEMBER@@@std@@@1@@Z
_TEXT	SEGMENT PARA USE32 PUBLIC 'CODE'
_TEXT	ENDS
;	COMDAT ?construct@?$allocator@PAU_Node@?$_Tree_nod@V?$_Tmap_traits@KPAUtagTTACTICSMEMBER@@U?$less@K@std@@V?$allocator@U?$pair@$$CBKPAUtagTTACTICSMEMBER@@@std@@@3@$0A@@std@@@std@@@std@@QAEXPAPAU_Node@?$_Tree_nod@V?$_Tmap_traits@KPAUtagTTACTICSMEMBER@@U?$less@K@std@@V?$allocator@U?$pair@$$CBKPAUtagTTACTICSMEMBER@@@std@@@3@$0A@@std@@@2@ABQAU342@@Z
_TEXT	SEGMENT PARA USE32 PUBLIC 'CODE'
_TEXT	ENDS
;	COMDAT ??0?$_Tree_nod@V?$_Tmap_traits@KPAUtagTGUILDARTICLE@@U?$less@K@std@@V?$allocator@U?$pair@$$CBKPAUtagTGUILDARTICLE@@@std@@@3@$0A@@std@@@std@@IAE@ABU?$less@K@1@V?$allocator@U?$pair@$$CBKPAUtagTGUILDARTICLE@@@std@@@1@@Z
_TEXT	SEGMENT PARA USE32 PUBLIC 'CODE'
_TEXT	ENDS
;	COMDAT ?construct@?$allocator@PAU_Node@?$_Tree_nod@V?$_Tmap_traits@KPAUtagTGUILDARTICLE@@U?$less@K@std@@V?$allocator@U?$pair@$$CBKPAUtagTGUILDARTICLE@@@std@@@3@$0A@@std@@@std@@@std@@QAEXPAPAU_Node@?$_Tree_nod@V?$_Tmap_traits@KPAUtagTGUILDARTICLE@@U?$less@K@std@@V?$allocator@U?$pair@$$CBKPAUtagTGUILDARTICLE@@@std@@@3@$0A@@std@@@2@ABQAU342@@Z
_TEXT	SEGMENT PARA USE32 PUBLIC 'CODE'
_TEXT	ENDS
;	COMDAT ?_Max@?$_Tree@V?$_Tmap_traits@GGU?$less@G@std@@V?$allocator@U?$pair@$$CBGG@std@@@2@$0A@@std@@@std@@KAPAU_Node@?$_Tree_nod@V?$_Tmap_traits@GGU?$less@G@std@@V?$allocator@U?$pair@$$CBGG@std@@@2@$0A@@std@@@2@PAU342@@Z
_TEXT	SEGMENT PARA USE32 PUBLIC 'CODE'
_TEXT	ENDS
;	COMDAT ??0?$_Tmap_traits@KPAUtagTITEM@@U?$less@K@std@@V?$allocator@U?$pair@$$CBKPAUtagTITEM@@@std@@@3@$0A@@std@@QAE@U?$less@K@1@@Z
_TEXT	SEGMENT PARA USE32 PUBLIC 'CODE'
_TEXT	ENDS
;	COMDAT ??0?$_Tmap_traits@KPAUtagTGUILDMEMBER@@U?$less@K@std@@V?$allocator@U?$pair@$$CBKPAUtagTGUILDMEMBER@@@std@@@3@$0A@@std@@QAE@U?$less@K@1@@Z
_TEXT	SEGMENT PARA USE32 PUBLIC 'CODE'
_TEXT	ENDS
;	COMDAT ??0?$_Tmap_traits@KPAUtagTTACTICSMEMBER@@U?$less@K@std@@V?$allocator@U?$pair@$$CBKPAUtagTTACTICSMEMBER@@@std@@@3@$0A@@std@@QAE@U?$less@K@1@@Z
_TEXT	SEGMENT PARA USE32 PUBLIC 'CODE'
_TEXT	ENDS
;	COMDAT ??0?$_Tmap_traits@KPAUtagTGUILDARTICLE@@U?$less@K@std@@V?$allocator@U?$pair@$$CBKPAUtagTGUILDARTICLE@@@std@@@3@$0A@@std@@QAE@U?$less@K@1@@Z
_TEXT	SEGMENT PARA USE32 PUBLIC 'CODE'
_TEXT	ENDS
;	COMDAT ?Unlock@?$CComCritSecLock@VCComCriticalSection@ATL@@@ATL@@QAEXXZ
_TEXT	SEGMENT PARA USE32 PUBLIC 'CODE'
_TEXT	ENDS
;	COMDAT ??$_Ptr_cat@PAUtagTCASHITMSALE@@PAU1@@std@@YA?AU_Nonscalar_ptr_iterator_tag@0@AAPAUtagTCASHITMSALE@@0@Z
_TEXT	SEGMENT PARA USE32 PUBLIC 'CODE'
_TEXT	ENDS
;	COMDAT ??$_Uninit_fill_n@PAUtagTCASHITMSALE@@IU1@V?$allocator@UtagTCASHITMSALE@@@std@@@std@@YAXPAUtagTCASHITMSALE@@IABU1@AAV?$allocator@UtagTCASHITMSALE@@@0@U_Nonscalar_ptr_iterator_tag@0@@Z
_TEXT	SEGMENT PARA USE32 PUBLIC 'CODE'
_TEXT	ENDS
;	COMDAT ??$_Uninit_fill_n@GIG@std@@YAXPAGIABGAAV?$allocator@G@0@U_Scalar_ptr_iterator_tag@0@@Z
_TEXT	SEGMENT PARA USE32 PUBLIC 'CODE'
_TEXT	ENDS
;	COMDAT ??$_Ptr_cat@PAUtagMONREGEN@@PAU1@@std@@YA?AU_Nonscalar_ptr_iterator_tag@0@AAPAUtagMONREGEN@@0@Z
_TEXT	SEGMENT PARA USE32 PUBLIC 'CODE'
_TEXT	ENDS
;	COMDAT ??$_Uninit_fill_n@PAUtagMONREGEN@@IU1@V?$allocator@UtagMONREGEN@@@std@@@std@@YAXPAUtagMONREGEN@@IABU1@AAV?$allocator@UtagMONREGEN@@@0@U_Nonscalar_ptr_iterator_tag@0@@Z
_TEXT	SEGMENT PARA USE32 PUBLIC 'CODE'
_TEXT	ENDS
;	COMDAT ??$_Ptr_cat@PAUtagLOTTERY@@PAU1@@std@@YA?AU_Nonscalar_ptr_iterator_tag@0@AAPAUtagLOTTERY@@0@Z
_TEXT	SEGMENT PARA USE32 PUBLIC 'CODE'
_TEXT	ENDS
;	COMDAT ??$_Uninit_fill_n@PAUtagLOTTERY@@IU1@V?$allocator@UtagLOTTERY@@@std@@@std@@YAXPAUtagLOTTERY@@IABU1@AAV?$allocator@UtagLOTTERY@@@0@U_Nonscalar_ptr_iterator_tag@0@@Z
_TEXT	SEGMENT PARA USE32 PUBLIC 'CODE'
_TEXT	ENDS
;	COMDAT ??$_Ptr_cat@PAUtagTENTRYRECORD@@PAU1@@std@@YA?AU_Nonscalar_ptr_iterator_tag@0@AAPAUtagTENTRYRECORD@@0@Z
_TEXT	SEGMENT PARA USE32 PUBLIC 'CODE'
_TEXT	ENDS
;	COMDAT ??$_Destroy_range@UtagTENTRYRECORD@@V?$allocator@UtagTENTRYRECORD@@@std@@@std@@YAXPAUtagTENTRYRECORD@@0AAV?$allocator@UtagTENTRYRECORD@@@0@U_Nonscalar_ptr_iterator_tag@0@@Z
_TEXT	SEGMENT PARA USE32 PUBLIC 'CODE'
_TEXT	ENDS
;	COMDAT ??$_Destroy_range@EV?$allocator@E@std@@@std@@YAXPAE0AAV?$allocator@E@0@U_Scalar_ptr_iterator_tag@0@@Z
_TEXT	SEGMENT PARA USE32 PUBLIC 'CODE'
_TEXT	ENDS
;	COMDAT ??$_Destroy_range@UtagTCASHITMSALE@@V?$allocator@UtagTCASHITMSALE@@@std@@@std@@YAXPAUtagTCASHITMSALE@@0AAV?$allocator@UtagTCASHITMSALE@@@0@U_Nonscalar_ptr_iterator_tag@0@@Z
_TEXT	SEGMENT PARA USE32 PUBLIC 'CODE'
_TEXT	ENDS
;	COMDAT ??$_Uninitialized_copy@PAUtagTCASHITMSALE@@PAU1@V?$allocator@UtagTCASHITMSALE@@@std@@@std@@YAPAUtagTCASHITMSALE@@PAU1@00AAV?$allocator@UtagTCASHITMSALE@@@0@@Z
_TEXT	SEGMENT PARA USE32 PUBLIC 'CODE'
_TEXT	ENDS
;	COMDAT ??$_Copy_backward_opt@PAUtagTCASHITMSALE@@PAU1@@std@@YAPAUtagTCASHITMSALE@@PAU1@00U_Nonscalar_ptr_iterator_tag@0@@Z
_TEXT	SEGMENT PARA USE32 PUBLIC 'CODE'
_TEXT	ENDS
;	COMDAT ??$_Destroy_range@GV?$allocator@G@std@@@std@@YAXPAG0AAV?$allocator@G@0@U_Scalar_ptr_iterator_tag@0@@Z
_TEXT	SEGMENT PARA USE32 PUBLIC 'CODE'
_TEXT	ENDS
;	COMDAT ??$_Uninitialized_copy@PAGPAGV?$allocator@G@std@@@std@@YAPAGPAG00AAV?$allocator@G@0@@Z
_TEXT	SEGMENT PARA USE32 PUBLIC 'CODE'
_TEXT	ENDS
;	COMDAT ??$_Copy_backward_opt@PAGPAG@std@@YAPAGPAG00U_Scalar_ptr_iterator_tag@0@@Z
_TEXT	SEGMENT PARA USE32 PUBLIC 'CODE'
_TEXT	ENDS
;	COMDAT ??$_Destroy_range@UtagMONREGEN@@V?$allocator@UtagMONREGEN@@@std@@@std@@YAXPAUtagMONREGEN@@0AAV?$allocator@UtagMONREGEN@@@0@U_Nonscalar_ptr_iterator_tag@0@@Z
_TEXT	SEGMENT PARA USE32 PUBLIC 'CODE'
_TEXT	ENDS
;	COMDAT ??$_Uninitialized_copy@PAUtagMONREGEN@@PAU1@V?$allocator@UtagMONREGEN@@@std@@@std@@YAPAUtagMONREGEN@@PAU1@00AAV?$allocator@UtagMONREGEN@@@0@@Z
_TEXT	SEGMENT PARA USE32 PUBLIC 'CODE'
_TEXT	ENDS
;	COMDAT ??$_Copy_backward_opt@PAUtagMONREGEN@@PAU1@@std@@YAPAUtagMONREGEN@@PAU1@00U_Nonscalar_ptr_iterator_tag@0@@Z
_TEXT	SEGMENT PARA USE32 PUBLIC 'CODE'
_TEXT	ENDS
;	COMDAT ??$_Destroy_range@UtagLOTTERY@@V?$allocator@UtagLOTTERY@@@std@@@std@@YAXPAUtagLOTTERY@@0AAV?$allocator@UtagLOTTERY@@@0@U_Nonscalar_ptr_iterator_tag@0@@Z
_TEXT	SEGMENT PARA USE32 PUBLIC 'CODE'
_TEXT	ENDS
;	COMDAT ??$_Uninitialized_copy@PAUtagLOTTERY@@PAU1@V?$allocator@UtagLOTTERY@@@std@@@std@@YAPAUtagLOTTERY@@PAU1@00AAV?$allocator@UtagLOTTERY@@@0@@Z
_TEXT	SEGMENT PARA USE32 PUBLIC 'CODE'
_TEXT	ENDS
;	COMDAT ??$_Copy_backward_opt@PAUtagLOTTERY@@PAU1@@std@@YAPAUtagLOTTERY@@PAU1@00U_Nonscalar_ptr_iterator_tag@0@@Z
_TEXT	SEGMENT PARA USE32 PUBLIC 'CODE'
_TEXT	ENDS
;	COMDAT ??$_Ptr_cat@PAUtagTNMTREWARD@@PAU1@@std@@YA?AU_Nonscalar_ptr_iterator_tag@0@AAPAUtagTNMTREWARD@@0@Z
_TEXT	SEGMENT PARA USE32 PUBLIC 'CODE'
_TEXT	ENDS
;	COMDAT ??$_Destroy_range@UtagTNMTREWARD@@V?$allocator@UtagTNMTREWARD@@@std@@@std@@YAXPAUtagTNMTREWARD@@0AAV?$allocator@UtagTNMTREWARD@@@0@U_Nonscalar_ptr_iterator_tag@0@@Z
_TEXT	SEGMENT PARA USE32 PUBLIC 'CODE'
_TEXT	ENDS
;	COMDAT ??$copy@PAUtagTENTRYRECORD@@PAU1@@std@@YAPAUtagTENTRYRECORD@@PAU1@00@Z
_TEXT	SEGMENT PARA USE32 PUBLIC 'CODE'
_TEXT	ENDS
;	COMDAT ??$_Distance@Viterator@?$_Tree@V?$_Tmap_traits@KPAUtagTITEM@@U?$less@K@std@@V?$allocator@U?$pair@$$CBKPAUtagTITEM@@@std@@@3@$0A@@std@@@std@@I@std@@YAXViterator@?$_Tree@V?$_Tmap_traits@KPAUtagTITEM@@U?$less@K@std@@V?$allocator@U?$pair@$$CBKPAUtagTITEM@@@std@@@3@$0A@@std@@@0@0AAI@Z
_TEXT	SEGMENT PARA USE32 PUBLIC 'CODE'
_TEXT	ENDS
;	COMDAT ??$_Distance@Viterator@?$_Tree@V?$_Tmap_traits@KPAUtagTGUILDMEMBER@@U?$less@K@std@@V?$allocator@U?$pair@$$CBKPAUtagTGUILDMEMBER@@@std@@@3@$0A@@std@@@std@@I@std@@YAXViterator@?$_Tree@V?$_Tmap_traits@KPAUtagTGUILDMEMBER@@U?$less@K@std@@V?$allocator@U?$pair@$$CBKPAUtagTGUILDMEMBER@@@std@@@3@$0A@@std@@@0@0AAI@Z
_TEXT	SEGMENT PARA USE32 PUBLIC 'CODE'
_TEXT	ENDS
;	COMDAT ??$_Distance@Viterator@?$_Tree@V?$_Tmap_traits@KPAUtagTTACTICSMEMBER@@U?$less@K@std@@V?$allocator@U?$pair@$$CBKPAUtagTTACTICSMEMBER@@@std@@@3@$0A@@std@@@std@@I@std@@YAXViterator@?$_Tree@V?$_Tmap_traits@KPAUtagTTACTICSMEMBER@@U?$less@K@std@@V?$allocator@U?$pair@$$CBKPAUtagTTACTICSMEMBER@@@std@@@3@$0A@@std@@@0@0AAI@Z
_TEXT	SEGMENT PARA USE32 PUBLIC 'CODE'
_TEXT	ENDS
;	COMDAT ??$_Distance@Viterator@?$_Tree@V?$_Tmap_traits@KPAUtagTGUILDARTICLE@@U?$less@K@std@@V?$allocator@U?$pair@$$CBKPAUtagTGUILDARTICLE@@@std@@@3@$0A@@std@@@std@@I@std@@YAXViterator@?$_Tree@V?$_Tmap_traits@KPAUtagTGUILDARTICLE@@U?$less@K@std@@V?$allocator@U?$pair@$$CBKPAUtagTGUILDARTICLE@@@std@@@3@$0A@@std@@@0@0AAI@Z
_TEXT	SEGMENT PARA USE32 PUBLIC 'CODE'
_TEXT	ENDS
;	COMDAT ??$_Destroy_range@UtagTGUILDPOINTREWARD@@V?$allocator@UtagTGUILDPOINTREWARD@@@std@@@std@@YAXPAUtagTGUILDPOINTREWARD@@0AAV?$allocator@UtagTGUILDPOINTREWARD@@@0@@Z
_TEXT	SEGMENT PARA USE32 PUBLIC 'CODE'
_TEXT	ENDS
;	COMDAT ??$_Ucopy@PAUtagTGUILDPOINTREWARD@@@?$vector@UtagTGUILDPOINTREWARD@@V?$allocator@UtagTGUILDPOINTREWARD@@@std@@@std@@IAEPAUtagTGUILDPOINTREWARD@@PAU2@00@Z
_TEXT	SEGMENT PARA USE32 PUBLIC 'CODE'
_TEXT	ENDS
;	COMDAT ??$fill@PAUtagTGUILDPOINTREWARD@@U1@@std@@YAXPAUtagTGUILDPOINTREWARD@@0ABU1@@Z
_TEXT	SEGMENT PARA USE32 PUBLIC 'CODE'
_TEXT	ENDS
;	COMDAT ??$copy_backward@PAUtagTGUILDPOINTREWARD@@PAU1@@std@@YAPAUtagTGUILDPOINTREWARD@@PAU1@00@Z
_TEXT	SEGMENT PARA USE32 PUBLIC 'CODE'
_TEXT	ENDS
;	COMDAT ??$_Allocate@K@std@@YAPAKIPAK@Z
_TEXT	SEGMENT PARA USE32 PUBLIC 'CODE'
_TEXT	ENDS
;	COMDAT ??$_Destroy@U_Node@?$_Tree_nod@V?$_Tmap_traits@KPAUtagTITEM@@U?$less@K@std@@V?$allocator@U?$pair@$$CBKPAUtagTITEM@@@std@@@3@$0A@@std@@@std@@@std@@YAXPAU_Node@?$_Tree_nod@V?$_Tmap_traits@KPAUtagTITEM@@U?$less@K@std@@V?$allocator@U?$pair@$$CBKPAUtagTITEM@@@std@@@3@$0A@@std@@@0@@Z
_TEXT	SEGMENT PARA USE32 PUBLIC 'CODE'
_TEXT	ENDS
;	COMDAT ??$_Destroy@PAU_Node@?$_Tree_nod@V?$_Tmap_traits@KPAUtagTITEM@@U?$less@K@std@@V?$allocator@U?$pair@$$CBKPAUtagTITEM@@@std@@@3@$0A@@std@@@std@@@std@@YAXPAPAU_Node@?$_Tree_nod@V?$_Tmap_traits@KPAUtagTITEM@@U?$less@K@std@@V?$allocator@U?$pair@$$CBKPAUtagTITEM@@@std@@@3@$0A@@std@@@0@@Z
_TEXT	SEGMENT PARA USE32 PUBLIC 'CODE'
_TEXT	ENDS
;	COMDAT ??$_Destroy@U_Node@?$_Tree_nod@V?$_Tmap_traits@KPAUtagTGUILDMEMBER@@U?$less@K@std@@V?$allocator@U?$pair@$$CBKPAUtagTGUILDMEMBER@@@std@@@3@$0A@@std@@@std@@@std@@YAXPAU_Node@?$_Tree_nod@V?$_Tmap_traits@KPAUtagTGUILDMEMBER@@U?$less@K@std@@V?$allocator@U?$pair@$$CBKPAUtagTGUILDMEMBER@@@std@@@3@$0A@@std@@@0@@Z
_TEXT	SEGMENT PARA USE32 PUBLIC 'CODE'
_TEXT	ENDS
;	COMDAT ??$_Destroy@PAU_Node@?$_Tree_nod@V?$_Tmap_traits@KPAUtagTGUILDMEMBER@@U?$less@K@std@@V?$allocator@U?$pair@$$CBKPAUtagTGUILDMEMBER@@@std@@@3@$0A@@std@@@std@@@std@@YAXPAPAU_Node@?$_Tree_nod@V?$_Tmap_traits@KPAUtagTGUILDMEMBER@@U?$less@K@std@@V?$allocator@U?$pair@$$CBKPAUtagTGUILDMEMBER@@@std@@@3@$0A@@std@@@0@@Z
_TEXT	SEGMENT PARA USE32 PUBLIC 'CODE'
_TEXT	ENDS
;	COMDAT ??$_Destroy@U_Node@?$_Tree_nod@V?$_Tmap_traits@KPAUtagTTACTICSMEMBER@@U?$less@K@std@@V?$allocator@U?$pair@$$CBKPAUtagTTACTICSMEMBER@@@std@@@3@$0A@@std@@@std@@@std@@YAXPAU_Node@?$_Tree_nod@V?$_Tmap_traits@KPAUtagTTACTICSMEMBER@@U?$less@K@std@@V?$allocator@U?$pair@$$CBKPAUtagTTACTICSMEMBER@@@std@@@3@$0A@@std@@@0@@Z
_TEXT	SEGMENT PARA USE32 PUBLIC 'CODE'
_TEXT	ENDS
;	COMDAT ??$_Destroy@PAU_Node@?$_Tree_nod@V?$_Tmap_traits@KPAUtagTTACTICSMEMBER@@U?$less@K@std@@V?$allocator@U?$pair@$$CBKPAUtagTTACTICSMEMBER@@@std@@@3@$0A@@std@@@std@@@std@@YAXPAPAU_Node@?$_Tree_nod@V?$_Tmap_traits@KPAUtagTTACTICSMEMBER@@U?$less@K@std@@V?$allocator@U?$pair@$$CBKPAUtagTTACTICSMEMBER@@@std@@@3@$0A@@std@@@0@@Z
_TEXT	SEGMENT PARA USE32 PUBLIC 'CODE'
_TEXT	ENDS
;	COMDAT ??$_Destroy@U_Node@?$_Tree_nod@V?$_Tmap_traits@KPAUtagTGUILDARTICLE@@U?$less@K@std@@V?$allocator@U?$pair@$$CBKPAUtagTGUILDARTICLE@@@std@@@3@$0A@@std@@@std@@@std@@YAXPAU_Node@?$_Tree_nod@V?$_Tmap_traits@KPAUtagTGUILDARTICLE@@U?$less@K@std@@V?$allocator@U?$pair@$$CBKPAUtagTGUILDARTICLE@@@std@@@3@$0A@@std@@@0@@Z
_TEXT	SEGMENT PARA USE32 PUBLIC 'CODE'
_TEXT	ENDS
;	COMDAT ??$_Destroy@PAU_Node@?$_Tree_nod@V?$_Tmap_traits@KPAUtagTGUILDARTICLE@@U?$less@K@std@@V?$allocator@U?$pair@$$CBKPAUtagTGUILDARTICLE@@@std@@@3@$0A@@std@@@std@@@std@@YAXPAPAU_Node@?$_Tree_nod@V?$_Tmap_traits@KPAUtagTGUILDARTICLE@@U?$less@K@std@@V?$allocator@U?$pair@$$CBKPAUtagTGUILDARTICLE@@@std@@@3@$0A@@std@@@0@@Z
_TEXT	SEGMENT PARA USE32 PUBLIC 'CODE'
_TEXT	ENDS
;	COMDAT ??$_Destroy_range@KV?$allocator@K@std@@@std@@YAXPAK0AAV?$allocator@K@0@@Z
_TEXT	SEGMENT PARA USE32 PUBLIC 'CODE'
_TEXT	ENDS
;	COMDAT ??$_Uninitialized_fill_n@PAUtagTGUILDPOINTREWARD@@IU1@V?$allocator@UtagTGUILDPOINTREWARD@@@std@@@std@@YAXPAUtagTGUILDPOINTREWARD@@IABU1@AAV?$allocator@UtagTGUILDPOINTREWARD@@@0@@Z
_TEXT	SEGMENT PARA USE32 PUBLIC 'CODE'
_TEXT	ENDS
;	COMDAT ??$_Allocate@UtagTGUILDPOINTREWARD@@@std@@YAPAUtagTGUILDPOINTREWARD@@IPAU1@@Z
_TEXT	SEGMENT PARA USE32 PUBLIC 'CODE'
_TEXT	ENDS
;	COMDAT ??$?0U?$pair@$$CBKPAUtagTITEM@@@std@@@?$allocator@PAU_Node@?$_Tree_nod@V?$_Tmap_traits@KPAUtagTITEM@@U?$less@K@std@@V?$allocator@U?$pair@$$CBKPAUtagTITEM@@@std@@@3@$0A@@std@@@std@@@std@@QAE@ABV?$allocator@U?$pair@$$CBKPAUtagTITEM@@@std@@@1@@Z
_TEXT	SEGMENT PARA USE32 PUBLIC 'CODE'
_TEXT	ENDS
;	COMDAT ??$_Allocate@U_Node@?$_Tree_nod@V?$_Tmap_traits@KPAUtagTITEM@@U?$less@K@std@@V?$allocator@U?$pair@$$CBKPAUtagTITEM@@@std@@@3@$0A@@std@@@std@@@std@@YAPAU_Node@?$_Tree_nod@V?$_Tmap_traits@KPAUtagTITEM@@U?$less@K@std@@V?$allocator@U?$pair@$$CBKPAUtagTITEM@@@std@@@3@$0A@@std@@@0@IPAU120@@Z
_TEXT	SEGMENT PARA USE32 PUBLIC 'CODE'
_TEXT	ENDS
;	COMDAT ??$?0U?$pair@$$CBKPAUtagTGUILDMEMBER@@@std@@@?$allocator@PAU_Node@?$_Tree_nod@V?$_Tmap_traits@KPAUtagTGUILDMEMBER@@U?$less@K@std@@V?$allocator@U?$pair@$$CBKPAUtagTGUILDMEMBER@@@std@@@3@$0A@@std@@@std@@@std@@QAE@ABV?$allocator@U?$pair@$$CBKPAUtagTGUILDMEMBER@@@std@@@1@@Z
_TEXT	SEGMENT PARA USE32 PUBLIC 'CODE'
_TEXT	ENDS
;	COMDAT ??$_Allocate@U_Node@?$_Tree_nod@V?$_Tmap_traits@KPAUtagTGUILDMEMBER@@U?$less@K@std@@V?$allocator@U?$pair@$$CBKPAUtagTGUILDMEMBER@@@std@@@3@$0A@@std@@@std@@@std@@YAPAU_Node@?$_Tree_nod@V?$_Tmap_traits@KPAUtagTGUILDMEMBER@@U?$less@K@std@@V?$allocator@U?$pair@$$CBKPAUtagTGUILDMEMBER@@@std@@@3@$0A@@std@@@0@IPAU120@@Z
_TEXT	SEGMENT PARA USE32 PUBLIC 'CODE'
_TEXT	ENDS
;	COMDAT ??$?0U?$pair@$$CBKPAUtagTTACTICSMEMBER@@@std@@@?$allocator@PAU_Node@?$_Tree_nod@V?$_Tmap_traits@KPAUtagTTACTICSMEMBER@@U?$less@K@std@@V?$allocator@U?$pair@$$CBKPAUtagTTACTICSMEMBER@@@std@@@3@$0A@@std@@@std@@@std@@QAE@ABV?$allocator@U?$pair@$$CBKPAUtagTTACTICSMEMBER@@@std@@@1@@Z
_TEXT	SEGMENT PARA USE32 PUBLIC 'CODE'
_TEXT	ENDS
;	COMDAT ??$_Allocate@U_Node@?$_Tree_nod@V?$_Tmap_traits@KPAUtagTTACTICSMEMBER@@U?$less@K@std@@V?$allocator@U?$pair@$$CBKPAUtagTTACTICSMEMBER@@@std@@@3@$0A@@std@@@std@@@std@@YAPAU_Node@?$_Tree_nod@V?$_Tmap_traits@KPAUtagTTACTICSMEMBER@@U?$less@K@std@@V?$allocator@U?$pair@$$CBKPAUtagTTACTICSMEMBER@@@std@@@3@$0A@@std@@@0@IPAU120@@Z
_TEXT	SEGMENT PARA USE32 PUBLIC 'CODE'
_TEXT	ENDS
;	COMDAT ??$?0U?$pair@$$CBKPAUtagTGUILDARTICLE@@@std@@@?$allocator@PAU_Node@?$_Tree_nod@V?$_Tmap_traits@KPAUtagTGUILDARTICLE@@U?$less@K@std@@V?$allocator@U?$pair@$$CBKPAUtagTGUILDARTICLE@@@std@@@3@$0A@@std@@@std@@@std@@QAE@ABV?$allocator@U?$pair@$$CBKPAUtagTGUILDARTICLE@@@std@@@1@@Z
_TEXT	SEGMENT PARA USE32 PUBLIC 'CODE'
_TEXT	ENDS
;	COMDAT ??$_Allocate@U_Node@?$_Tree_nod@V?$_Tmap_traits@KPAUtagTGUILDARTICLE@@U?$less@K@std@@V?$allocator@U?$pair@$$CBKPAUtagTGUILDARTICLE@@@std@@@3@$0A@@std@@@std@@@std@@YAPAU_Node@?$_Tree_nod@V?$_Tmap_traits@KPAUtagTGUILDARTICLE@@U?$less@K@std@@V?$allocator@U?$pair@$$CBKPAUtagTGUILDARTICLE@@@std@@@3@$0A@@std@@@0@IPAU120@@Z
_TEXT	SEGMENT PARA USE32 PUBLIC 'CODE'
_TEXT	ENDS
;	COMDAT ??$_Allocate@U_Node@?$_Tree_nod@V?$_Tmap_traits@GGU?$less@G@std@@V?$allocator@U?$pair@$$CBGG@std@@@2@$0A@@std@@@std@@@std@@YAPAU_Node@?$_Tree_nod@V?$_Tmap_traits@GGU?$less@G@std@@V?$allocator@U?$pair@$$CBGG@std@@@2@$0A@@std@@@0@IPAU120@@Z
_TEXT	SEGMENT PARA USE32 PUBLIC 'CODE'
_TEXT	ENDS
;	COMDAT ??$?0U?$pair@$$CBKPAUtagTITEM@@@std@@@?$allocator@U_Node@?$_Tree_nod@V?$_Tmap_traits@KPAUtagTITEM@@U?$less@K@std@@V?$allocator@U?$pair@$$CBKPAUtagTITEM@@@std@@@3@$0A@@std@@@std@@@std@@QAE@ABV?$allocator@U?$pair@$$CBKPAUtagTITEM@@@std@@@1@@Z
_TEXT	SEGMENT PARA USE32 PUBLIC 'CODE'
_TEXT	ENDS
;	COMDAT ??$_Construct@PAU_Node@?$_Tree_nod@V?$_Tmap_traits@KPAUtagTITEM@@U?$less@K@std@@V?$allocator@U?$pair@$$CBKPAUtagTITEM@@@std@@@3@$0A@@std@@@std@@PAU123@@std@@YAXPAPAU_Node@?$_Tree_nod@V?$_Tmap_traits@KPAUtagTITEM@@U?$less@K@std@@V?$allocator@U?$pair@$$CBKPAUtagTITEM@@@std@@@3@$0A@@std@@@0@ABQAU120@@Z
_TEXT	SEGMENT PARA USE32 PUBLIC 'CODE'
_TEXT	ENDS
;	COMDAT ??$?0U?$pair@$$CBKPAUtagTGUILDMEMBER@@@std@@@?$allocator@U_Node@?$_Tree_nod@V?$_Tmap_traits@KPAUtagTGUILDMEMBER@@U?$less@K@std@@V?$allocator@U?$pair@$$CBKPAUtagTGUILDMEMBER@@@std@@@3@$0A@@std@@@std@@@std@@QAE@ABV?$allocator@U?$pair@$$CBKPAUtagTGUILDMEMBER@@@std@@@1@@Z
_TEXT	SEGMENT PARA USE32 PUBLIC 'CODE'
_TEXT	ENDS
;	COMDAT ??$_Construct@PAU_Node@?$_Tree_nod@V?$_Tmap_traits@KPAUtagTGUILDMEMBER@@U?$less@K@std@@V?$allocator@U?$pair@$$CBKPAUtagTGUILDMEMBER@@@std@@@3@$0A@@std@@@std@@PAU123@@std@@YAXPAPAU_Node@?$_Tree_nod@V?$_Tmap_traits@KPAUtagTGUILDMEMBER@@U?$less@K@std@@V?$allocator@U?$pair@$$CBKPAUtagTGUILDMEMBER@@@std@@@3@$0A@@std@@@0@ABQAU120@@Z
_TEXT	SEGMENT PARA USE32 PUBLIC 'CODE'
_TEXT	ENDS
;	COMDAT ??$?0U?$pair@$$CBKPAUtagTTACTICSMEMBER@@@std@@@?$allocator@U_Node@?$_Tree_nod@V?$_Tmap_traits@KPAUtagTTACTICSMEMBER@@U?$less@K@std@@V?$allocator@U?$pair@$$CBKPAUtagTTACTICSMEMBER@@@std@@@3@$0A@@std@@@std@@@std@@QAE@ABV?$allocator@U?$pair@$$CBKPAUtagTTACTICSMEMBER@@@std@@@1@@Z
_TEXT	SEGMENT PARA USE32 PUBLIC 'CODE'
_TEXT	ENDS
;	COMDAT ??$_Construct@PAU_Node@?$_Tree_nod@V?$_Tmap_traits@KPAUtagTTACTICSMEMBER@@U?$less@K@std@@V?$allocator@U?$pair@$$CBKPAUtagTTACTICSMEMBER@@@std@@@3@$0A@@std@@@std@@PAU123@@std@@YAXPAPAU_Node@?$_Tree_nod@V?$_Tmap_traits@KPAUtagTTACTICSMEMBER@@U?$less@K@std@@V?$allocator@U?$pair@$$CBKPAUtagTTACTICSMEMBER@@@std@@@3@$0A@@std@@@0@ABQAU120@@Z
_TEXT	SEGMENT PARA USE32 PUBLIC 'CODE'
_TEXT	ENDS
;	COMDAT ??$?0U?$pair@$$CBKPAUtagTGUILDARTICLE@@@std@@@?$allocator@U_Node@?$_Tree_nod@V?$_Tmap_traits@KPAUtagTGUILDARTICLE@@U?$less@K@std@@V?$allocator@U?$pair@$$CBKPAUtagTGUILDARTICLE@@@std@@@3@$0A@@std@@@std@@@std@@QAE@ABV?$allocator@U?$pair@$$CBKPAUtagTGUILDARTICLE@@@std@@@1@@Z
_TEXT	SEGMENT PARA USE32 PUBLIC 'CODE'
_TEXT	ENDS
;	COMDAT ??$_Construct@PAU_Node@?$_Tree_nod@V?$_Tmap_traits@KPAUtagTGUILDARTICLE@@U?$less@K@std@@V?$allocator@U?$pair@$$CBKPAUtagTGUILDARTICLE@@@std@@@3@$0A@@std@@@std@@PAU123@@std@@YAXPAPAU_Node@?$_Tree_nod@V?$_Tmap_traits@KPAUtagTGUILDARTICLE@@U?$less@K@std@@V?$allocator@U?$pair@$$CBKPAUtagTGUILDARTICLE@@@std@@@3@$0A@@std@@@0@ABQAU120@@Z
_TEXT	SEGMENT PARA USE32 PUBLIC 'CODE'
_TEXT	ENDS
;	COMDAT ??4tagTGUILDPOINTREWARD@@QAEAAU0@ABU0@@Z
_TEXT	SEGMENT PARA USE32 PUBLIC 'CODE'
_TEXT	ENDS
;	COMDAT ?destroy@?$allocator@UtagTENTRYRECORD@@@std@@QAEXPAUtagTENTRYRECORD@@@Z
_TEXT	SEGMENT PARA USE32 PUBLIC 'CODE'
_TEXT	ENDS
;	COMDAT ?construct@?$allocator@UtagTCASHITMSALE@@@std@@QAEXPAUtagTCASHITMSALE@@ABU3@@Z
_TEXT	SEGMENT PARA USE32 PUBLIC 'CODE'
_TEXT	ENDS
;	COMDAT ?destroy@?$allocator@UtagTCASHITMSALE@@@std@@QAEXPAUtagTCASHITMSALE@@@Z
_TEXT	SEGMENT PARA USE32 PUBLIC 'CODE'
_TEXT	ENDS
;	COMDAT ?construct@?$allocator@UtagMONREGEN@@@std@@QAEXPAUtagMONREGEN@@ABU3@@Z
_TEXT	SEGMENT PARA USE32 PUBLIC 'CODE'
_TEXT	ENDS
;	COMDAT ?destroy@?$allocator@UtagMONREGEN@@@std@@QAEXPAUtagMONREGEN@@@Z
_TEXT	SEGMENT PARA USE32 PUBLIC 'CODE'
_TEXT	ENDS
;	COMDAT ?construct@?$allocator@UtagLOTTERY@@@std@@QAEXPAUtagLOTTERY@@ABU3@@Z
_TEXT	SEGMENT PARA USE32 PUBLIC 'CODE'
_TEXT	ENDS
;	COMDAT ?destroy@?$allocator@UtagLOTTERY@@@std@@QAEXPAUtagLOTTERY@@@Z
_TEXT	SEGMENT PARA USE32 PUBLIC 'CODE'
_TEXT	ENDS
;	COMDAT ?destroy@?$allocator@UtagTNMTREWARD@@@std@@QAEXPAUtagTNMTREWARD@@@Z
_TEXT	SEGMENT PARA USE32 PUBLIC 'CODE'
_TEXT	ENDS
;	COMDAT ??$fill_n@PAGIG@std@@YAXPAGIABG@Z
_TEXT	SEGMENT PARA USE32 PUBLIC 'CODE'
_TEXT	ENDS
;	COMDAT ??$_Uninit_copy@PAUtagTCASHITMSALE@@PAU1@V?$allocator@UtagTCASHITMSALE@@@std@@@std@@YAPAUtagTCASHITMSALE@@PAU1@00AAV?$allocator@UtagTCASHITMSALE@@@0@U_Nonscalar_ptr_iterator_tag@0@@Z
_TEXT	SEGMENT PARA USE32 PUBLIC 'CODE'
_TEXT	ENDS
;	COMDAT ??$_Uninit_copy@GG@std@@YAPAGPAG00AAV?$allocator@G@0@U_Scalar_ptr_iterator_tag@0@@Z
_TEXT	SEGMENT PARA USE32 PUBLIC 'CODE'
_TEXT	ENDS
;	COMDAT ??$_Uninit_copy@PAUtagMONREGEN@@PAU1@V?$allocator@UtagMONREGEN@@@std@@@std@@YAPAUtagMONREGEN@@PAU1@00AAV?$allocator@UtagMONREGEN@@@0@U_Nonscalar_ptr_iterator_tag@0@@Z
_TEXT	SEGMENT PARA USE32 PUBLIC 'CODE'
_TEXT	ENDS
;	COMDAT ??$_Uninit_copy@PAUtagLOTTERY@@PAU1@V?$allocator@UtagLOTTERY@@@std@@@std@@YAPAUtagLOTTERY@@PAU1@00AAV?$allocator@UtagLOTTERY@@@0@U_Nonscalar_ptr_iterator_tag@0@@Z
_TEXT	SEGMENT PARA USE32 PUBLIC 'CODE'
_TEXT	ENDS
;	COMDAT ??$_Copy_opt@PAUtagTENTRYRECORD@@PAU1@@std@@YAPAUtagTENTRYRECORD@@PAU1@00U_Nonscalar_ptr_iterator_tag@0@@Z
_TEXT	SEGMENT PARA USE32 PUBLIC 'CODE'
_TEXT	ENDS
;	COMDAT ??$_Iter_cat@Viterator@?$_Tree@V?$_Tmap_traits@KPAUtagTITEM@@U?$less@K@std@@V?$allocator@U?$pair@$$CBKPAUtagTITEM@@@std@@@3@$0A@@std@@@std@@@std@@YA?AUbidirectional_iterator_tag@0@ABViterator@?$_Tree@V?$_Tmap_traits@KPAUtagTITEM@@U?$less@K@std@@V?$allocator@U?$pair@$$CBKPAUtagTITEM@@@std@@@3@$0A@@std@@@0@@Z
_TEXT	SEGMENT PARA USE32 PUBLIC 'CODE'
_TEXT	ENDS
;	COMDAT ??$_Distance2@Viterator@?$_Tree@V?$_Tmap_traits@KPAUtagTITEM@@U?$less@K@std@@V?$allocator@U?$pair@$$CBKPAUtagTITEM@@@std@@@3@$0A@@std@@@std@@I@std@@YAXViterator@?$_Tree@V?$_Tmap_traits@KPAUtagTITEM@@U?$less@K@std@@V?$allocator@U?$pair@$$CBKPAUtagTITEM@@@std@@@3@$0A@@std@@@0@0AAIUbidirectional_iterator_tag@0@@Z
_TEXT	SEGMENT PARA USE32 PUBLIC 'CODE'
_TEXT	ENDS
;	COMDAT ??$_Iter_cat@Viterator@?$_Tree@V?$_Tmap_traits@KPAUtagTGUILDMEMBER@@U?$less@K@std@@V?$allocator@U?$pair@$$CBKPAUtagTGUILDMEMBER@@@std@@@3@$0A@@std@@@std@@@std@@YA?AUbidirectional_iterator_tag@0@ABViterator@?$_Tree@V?$_Tmap_traits@KPAUtagTGUILDMEMBER@@U?$less@K@std@@V?$allocator@U?$pair@$$CBKPAUtagTGUILDMEMBER@@@std@@@3@$0A@@std@@@0@@Z
_TEXT	SEGMENT PARA USE32 PUBLIC 'CODE'
_TEXT	ENDS
;	COMDAT ??$_Distance2@Viterator@?$_Tree@V?$_Tmap_traits@KPAUtagTGUILDMEMBER@@U?$less@K@std@@V?$allocator@U?$pair@$$CBKPAUtagTGUILDMEMBER@@@std@@@3@$0A@@std@@@std@@I@std@@YAXViterator@?$_Tree@V?$_Tmap_traits@KPAUtagTGUILDMEMBER@@U?$less@K@std@@V?$allocator@U?$pair@$$CBKPAUtagTGUILDMEMBER@@@std@@@3@$0A@@std@@@0@0AAIUbidirectional_iterator_tag@0@@Z
_TEXT	SEGMENT PARA USE32 PUBLIC 'CODE'
_TEXT	ENDS
;	COMDAT ??$_Iter_cat@Viterator@?$_Tree@V?$_Tmap_traits@KPAUtagTTACTICSMEMBER@@U?$less@K@std@@V?$allocator@U?$pair@$$CBKPAUtagTTACTICSMEMBER@@@std@@@3@$0A@@std@@@std@@@std@@YA?AUbidirectional_iterator_tag@0@ABViterator@?$_Tree@V?$_Tmap_traits@KPAUtagTTACTICSMEMBER@@U?$less@K@std@@V?$allocator@U?$pair@$$CBKPAUtagTTACTICSMEMBER@@@std@@@3@$0A@@std@@@0@@Z
_TEXT	SEGMENT PARA USE32 PUBLIC 'CODE'
_TEXT	ENDS
;	COMDAT ??$_Distance2@Viterator@?$_Tree@V?$_Tmap_traits@KPAUtagTTACTICSMEMBER@@U?$less@K@std@@V?$allocator@U?$pair@$$CBKPAUtagTTACTICSMEMBER@@@std@@@3@$0A@@std@@@std@@I@std@@YAXViterator@?$_Tree@V?$_Tmap_traits@KPAUtagTTACTICSMEMBER@@U?$less@K@std@@V?$allocator@U?$pair@$$CBKPAUtagTTACTICSMEMBER@@@std@@@3@$0A@@std@@@0@0AAIUbidirectional_iterator_tag@0@@Z
_TEXT	SEGMENT PARA USE32 PUBLIC 'CODE'
_TEXT	ENDS
;	COMDAT ??$_Iter_cat@Viterator@?$_Tree@V?$_Tmap_traits@KPAUtagTGUILDARTICLE@@U?$less@K@std@@V?$allocator@U?$pair@$$CBKPAUtagTGUILDARTICLE@@@std@@@3@$0A@@std@@@std@@@std@@YA?AUbidirectional_iterator_tag@0@ABViterator@?$_Tree@V?$_Tmap_traits@KPAUtagTGUILDARTICLE@@U?$less@K@std@@V?$allocator@U?$pair@$$CBKPAUtagTGUILDARTICLE@@@std@@@3@$0A@@std@@@0@@Z
_TEXT	SEGMENT PARA USE32 PUBLIC 'CODE'
_TEXT	ENDS
;	COMDAT ??$_Distance2@Viterator@?$_Tree@V?$_Tmap_traits@KPAUtagTGUILDARTICLE@@U?$less@K@std@@V?$allocator@U?$pair@$$CBKPAUtagTGUILDARTICLE@@@std@@@3@$0A@@std@@@std@@I@std@@YAXViterator@?$_Tree@V?$_Tmap_traits@KPAUtagTGUILDARTICLE@@U?$less@K@std@@V?$allocator@U?$pair@$$CBKPAUtagTGUILDARTICLE@@@std@@@3@$0A@@std@@@0@0AAIUbidirectional_iterator_tag@0@@Z
_TEXT	SEGMENT PARA USE32 PUBLIC 'CODE'
_TEXT	ENDS
;	COMDAT ??$_Ptr_cat@PAUtagTGUILDPOINTREWARD@@PAU1@@std@@YA?AU_Nonscalar_ptr_iterator_tag@0@AAPAUtagTGUILDPOINTREWARD@@0@Z
_TEXT	SEGMENT PARA USE32 PUBLIC 'CODE'
_TEXT	ENDS
;	COMDAT ??$_Destroy_range@UtagTGUILDPOINTREWARD@@V?$allocator@UtagTGUILDPOINTREWARD@@@std@@@std@@YAXPAUtagTGUILDPOINTREWARD@@0AAV?$allocator@UtagTGUILDPOINTREWARD@@@0@U_Nonscalar_ptr_iterator_tag@0@@Z
_TEXT	SEGMENT PARA USE32 PUBLIC 'CODE'
_TEXT	ENDS
;	COMDAT ??$_Uninitialized_copy@PAUtagTGUILDPOINTREWARD@@PAU1@V?$allocator@UtagTGUILDPOINTREWARD@@@std@@@std@@YAPAUtagTGUILDPOINTREWARD@@PAU1@00AAV?$allocator@UtagTGUILDPOINTREWARD@@@0@@Z
_TEXT	SEGMENT PARA USE32 PUBLIC 'CODE'
_TEXT	ENDS
;	COMDAT ??$_Copy_backward_opt@PAUtagTGUILDPOINTREWARD@@PAU1@@std@@YAPAUtagTGUILDPOINTREWARD@@PAU1@00U_Nonscalar_ptr_iterator_tag@0@@Z
_TEXT	SEGMENT PARA USE32 PUBLIC 'CODE'
_TEXT	ENDS
;	COMDAT ??$_Destroy_range@KV?$allocator@K@std@@@std@@YAXPAK0AAV?$allocator@K@0@U_Scalar_ptr_iterator_tag@0@@Z
_TEXT	SEGMENT PARA USE32 PUBLIC 'CODE'
_TEXT	ENDS
;	COMDAT ??$_Uninit_fill_n@PAUtagTGUILDPOINTREWARD@@IU1@V?$allocator@UtagTGUILDPOINTREWARD@@@std@@@std@@YAXPAUtagTGUILDPOINTREWARD@@IABU1@AAV?$allocator@UtagTGUILDPOINTREWARD@@@0@U_Nonscalar_ptr_iterator_tag@0@@Z
_TEXT	SEGMENT PARA USE32 PUBLIC 'CODE'
_TEXT	ENDS
;	COMDAT ??$_Destroy@UtagTENTRYRECORD@@@std@@YAXPAUtagTENTRYRECORD@@@Z
_TEXT	SEGMENT PARA USE32 PUBLIC 'CODE'
_TEXT	ENDS
;	COMDAT ??$_Construct@UtagTCASHITMSALE@@U1@@std@@YAXPAUtagTCASHITMSALE@@ABU1@@Z
_TEXT	SEGMENT PARA USE32 PUBLIC 'CODE'
_TEXT	ENDS
;	COMDAT ??$_Destroy@UtagTCASHITMSALE@@@std@@YAXPAUtagTCASHITMSALE@@@Z
_TEXT	SEGMENT PARA USE32 PUBLIC 'CODE'
_TEXT	ENDS
;	COMDAT ??$_Construct@UtagMONREGEN@@U1@@std@@YAXPAUtagMONREGEN@@ABU1@@Z
_TEXT	SEGMENT PARA USE32 PUBLIC 'CODE'
_TEXT	ENDS
;	COMDAT ??$_Destroy@UtagMONREGEN@@@std@@YAXPAUtagMONREGEN@@@Z
_TEXT	SEGMENT PARA USE32 PUBLIC 'CODE'
_TEXT	ENDS
;	COMDAT ??$_Construct@UtagLOTTERY@@U1@@std@@YAXPAUtagLOTTERY@@ABU1@@Z
_TEXT	SEGMENT PARA USE32 PUBLIC 'CODE'
_TEXT	ENDS
;	COMDAT ??$_Destroy@UtagLOTTERY@@@std@@YAXPAUtagLOTTERY@@@Z
_TEXT	SEGMENT PARA USE32 PUBLIC 'CODE'
_TEXT	ENDS
;	COMDAT ??$_Destroy@UtagTNMTREWARD@@@std@@YAXPAUtagTNMTREWARD@@@Z
_TEXT	SEGMENT PARA USE32 PUBLIC 'CODE'
_TEXT	ENDS
;	COMDAT ?construct@?$allocator@UtagTGUILDPOINTREWARD@@@std@@QAEXPAUtagTGUILDPOINTREWARD@@ABU3@@Z
_TEXT	SEGMENT PARA USE32 PUBLIC 'CODE'
_TEXT	ENDS
;	COMDAT ?destroy@?$allocator@UtagTGUILDPOINTREWARD@@@std@@QAEXPAUtagTGUILDPOINTREWARD@@@Z
_TEXT	SEGMENT PARA USE32 PUBLIC 'CODE'
_TEXT	ENDS
;	COMDAT ??$_Uninit_copy@PAUtagTGUILDPOINTREWARD@@PAU1@V?$allocator@UtagTGUILDPOINTREWARD@@@std@@@std@@YAPAUtagTGUILDPOINTREWARD@@PAU1@00AAV?$allocator@UtagTGUILDPOINTREWARD@@@0@U_Nonscalar_ptr_iterator_tag@0@@Z
_TEXT	SEGMENT PARA USE32 PUBLIC 'CODE'
_TEXT	ENDS
;	COMDAT ??$_Construct@UtagTGUILDPOINTREWARD@@U1@@std@@YAXPAUtagTGUILDPOINTREWARD@@ABU1@@Z
_TEXT	SEGMENT PARA USE32 PUBLIC 'CODE'
_TEXT	ENDS
;	COMDAT ??$_Destroy@UtagTGUILDPOINTREWARD@@@std@@YAXPAUtagTGUILDPOINTREWARD@@@Z
_TEXT	SEGMENT PARA USE32 PUBLIC 'CODE'
_TEXT	ENDS
;	COMDAT ??_GtagTGUILDPOINTREWARD@@QAEPAXI@Z
_TEXT	SEGMENT PARA USE32 PUBLIC 'CODE'
_TEXT	ENDS
;	COMDAT ?GetGITPtr@CAtlModule@ATL@@UAEJPAPAUIGlobalInterfaceTable@@@Z
_TEXT	SEGMENT PARA USE32 PUBLIC 'CODE'
_TEXT	ENDS
;	COMDAT __GUID_00000146_0000_0000_c000_000000000046
CONST	SEGMENT DWORD USE32 PUBLIC 'CONST'
CONST	ENDS
;	COMDAT _CLSID_StdGlobalInterfaceTable
CONST	SEGMENT DWORD USE32 PUBLIC 'CONST'
CONST	ENDS
;	COMDAT ?GetLockCount@CAtlModule@ATL@@UAEJXZ
_TEXT	SEGMENT PARA USE32 PUBLIC 'CODE'
_TEXT	ENDS
;	COMDAT ?Lock@CAtlModule@ATL@@UAEJXZ
_TEXT	SEGMENT PARA USE32 PUBLIC 'CODE'
_TEXT	ENDS
;	COMDAT ?Increment@CComMultiThreadModel@ATL@@SGKPAJ@Z
_TEXT	SEGMENT PARA USE32 PUBLIC 'CODE'
_TEXT	ENDS
;	COMDAT ?_Ptr_cat@std@@YA?AU_Scalar_ptr_iterator_tag@1@PAK0@Z
_TEXT	SEGMENT PARA USE32 PUBLIC 'CODE'
_TEXT	ENDS
;	COMDAT ?_Ptr_cat@std@@YA?AU_Scalar_ptr_iterator_tag@1@PAG0@Z
_TEXT	SEGMENT PARA USE32 PUBLIC 'CODE'
_TEXT	ENDS
;	COMDAT ?_Psave@?$_Facetptr@V?$ctype@G@std@@@std@@2PBVfacet@locale@2@B
_DATA	SEGMENT DWORD USE32 PUBLIC 'DATA'
_DATA	ENDS
;	COMDAT ?_Psave@?$_Facetptr@V?$ctype@D@std@@@std@@2PBVfacet@locale@2@B
_DATA	SEGMENT DWORD USE32 PUBLIC 'DATA'
_DATA	ENDS
;	COMDAT ?Unlock@CComCriticalSection@ATL@@QAEJXZ
_TEXT	SEGMENT PARA USE32 PUBLIC 'CODE'
_TEXT	ENDS
;	COMDAT ?CopyChars@?$CSimpleStringT@D$0A@@ATL@@SAXPADPBDH@Z
_TEXT	SEGMENT PARA USE32 PUBLIC 'CODE'
_TEXT	ENDS
;	COMDAT ?SetLength@?$CSimpleStringT@D$0A@@ATL@@AAEXH@Z
_TEXT	SEGMENT PARA USE32 PUBLIC 'CODE'
_TEXT	ENDS
;	COMDAT ?Attach@?$CSimpleStringT@D$0A@@ATL@@AAEXPAUCStringData@2@@Z
_TEXT	SEGMENT PARA USE32 PUBLIC 'CODE'
_TEXT	ENDS
;	COMDAT ?data@CStringData@ATL@@QAEPAXXZ
_TEXT	SEGMENT PARA USE32 PUBLIC 'CODE'
_TEXT	ENDS
;	COMDAT ?ThrowMemoryException@?$CSimpleStringT@D$0A@@ATL@@KAXXZ
_TEXT	SEGMENT PARA USE32 PUBLIC 'CODE'
_TEXT	ENDS
;	COMDAT ??_C@_0BD@OLBABOEK@vector?$DMT?$DO?5too?5long?$AA@
CONST	SEGMENT DWORD USE32 PUBLIC 'CONST'
CONST	ENDS
;	COMDAT ??3@YAXPAX0@Z
_TEXT	SEGMENT PARA USE32 PUBLIC 'CODE'
_TEXT	ENDS
;	COMDAT ??2@YAPAXIPAX@Z
_TEXT	SEGMENT PARA USE32 PUBLIC 'CODE'
_TEXT	ENDS
;	COMDAT ??$swap@D@std@@YAXAAD0@Z
_TEXT	SEGMENT PARA USE32 PUBLIC 'CODE'
_TEXT	ENDS
;	COMDAT __TI3?AVout_of_range@std@@
xdata$x	SEGMENT DWORD USE32 PUBLIC 'CONST'
xdata$x	ENDS
;	COMDAT ??1out_of_range@std@@UAE@XZ
_TEXT	SEGMENT PARA USE32 PUBLIC 'CODE'
_TEXT	ENDS
;	COMDAT ??_7out_of_range@std@@6B@
CONST	SEGMENT DWORD USE32 PUBLIC 'CONST'
CONST	ENDS
;	COMDAT ??_Gout_of_range@std@@UAEPAXI@Z
_TEXT	SEGMENT PARA USE32 PUBLIC 'CODE'
_TEXT	ENDS
;	COMDAT ?what@logic_error@std@@UBEPBDXZ
_TEXT	SEGMENT PARA USE32 PUBLIC 'CODE'
_TEXT	ENDS
;	COMDAT ?c_str@?$basic_string@DU?$char_traits@D@std@@V?$allocator@D@2@@std@@QBEPBDXZ
_TEXT	SEGMENT PARA USE32 PUBLIC 'CODE'
_TEXT	ENDS
;	COMDAT ?_Myptr@?$basic_string@DU?$char_traits@D@std@@V?$allocator@D@2@@std@@QBEPBDXZ
_TEXT	SEGMENT PARA USE32 PUBLIC 'CODE'
_TEXT	ENDS
;	COMDAT ??1logic_error@std@@UAE@XZ
_TEXT	SEGMENT PARA USE32 PUBLIC 'CODE'
_TEXT	ENDS
;	COMDAT ??_7logic_error@std@@6B@
CONST	SEGMENT DWORD USE32 PUBLIC 'CONST'
CONST	ENDS
;	COMDAT ??_Glogic_error@std@@UAEPAXI@Z
_TEXT	SEGMENT PARA USE32 PUBLIC 'CODE'
_TEXT	ENDS
;	COMDAT __CTA3?AVout_of_range@std@@
xdata$x	SEGMENT DWORD USE32 PUBLIC 'CONST'
xdata$x	ENDS
;	COMDAT __CT??_R0?AVout_of_range@std@@@8??0out_of_range@std@@QAE@ABV01@@Z40
xdata$x	SEGMENT DWORD USE32 PUBLIC 'CONST'
xdata$x	ENDS
;	COMDAT ??_R0?AVout_of_range@std@@@8
_DATA	SEGMENT DWORD USE32 PUBLIC 'DATA'
_DATA	ENDS
;	COMDAT ??0out_of_range@std@@QAE@ABV01@@Z
_TEXT	SEGMENT PARA USE32 PUBLIC 'CODE'
_TEXT	ENDS
;	COMDAT ??0logic_error@std@@QAE@ABV01@@Z
_TEXT	SEGMENT PARA USE32 PUBLIC 'CODE'
_TEXT	ENDS
;	COMDAT ??0?$basic_string@DU?$char_traits@D@std@@V?$allocator@D@2@@std@@QAE@ABV01@@Z
_TEXT	SEGMENT PARA USE32 PUBLIC 'CODE'
_TEXT	ENDS
;	COMDAT ??0?$_String_val@DV?$allocator@D@std@@@std@@IAE@V?$allocator@D@1@@Z
_TEXT	SEGMENT PARA USE32 PUBLIC 'CODE'
_TEXT	ENDS
;	COMDAT ??0?$allocator@D@std@@QAE@ABV01@@Z
_TEXT	SEGMENT PARA USE32 PUBLIC 'CODE'
_TEXT	ENDS
;	COMDAT ?_Tidy@?$basic_string@DU?$char_traits@D@std@@V?$allocator@D@2@@std@@IAEX_NI@Z
_TEXT	SEGMENT PARA USE32 PUBLIC 'CODE'
_TEXT	ENDS
;	COMDAT ?copy@?$char_traits@D@std@@SAPADPADPBDI@Z
_TEXT	SEGMENT PARA USE32 PUBLIC 'CODE'
_TEXT	ENDS
;	COMDAT ?deallocate@?$allocator@D@std@@QAEXPADI@Z
_TEXT	SEGMENT PARA USE32 PUBLIC 'CODE'
_TEXT	ENDS
;	COMDAT ?_Eos@?$basic_string@DU?$char_traits@D@std@@V?$allocator@D@2@@std@@IAEXI@Z
_TEXT	SEGMENT PARA USE32 PUBLIC 'CODE'
_TEXT	ENDS
;	COMDAT ?assign@?$char_traits@D@std@@SAXAADABD@Z
_TEXT	SEGMENT PARA USE32 PUBLIC 'CODE'
_TEXT	ENDS
;	COMDAT ?_Myptr@?$basic_string@DU?$char_traits@D@std@@V?$allocator@D@2@@std@@QAEPADXZ
_TEXT	SEGMENT PARA USE32 PUBLIC 'CODE'
_TEXT	ENDS
;	COMDAT ?assign@?$basic_string@DU?$char_traits@D@std@@V?$allocator@D@2@@std@@QAEAAV12@ABV12@II@Z
_TEXT	SEGMENT PARA USE32 PUBLIC 'CODE'
_TEXT	ENDS
;	COMDAT ?size@?$basic_string@DU?$char_traits@D@std@@V?$allocator@D@2@@std@@QBEIXZ
_TEXT	SEGMENT PARA USE32 PUBLIC 'CODE'
_TEXT	ENDS
;	COMDAT ?erase@?$basic_string@DU?$char_traits@D@std@@V?$allocator@D@2@@std@@QAEAAV12@II@Z
_TEXT	SEGMENT PARA USE32 PUBLIC 'CODE'
_TEXT	ENDS
;	COMDAT ?move@?$char_traits@D@std@@SAPADPADPBDI@Z
_TEXT	SEGMENT PARA USE32 PUBLIC 'CODE'
_TEXT	ENDS
;	COMDAT ?_Grow@?$basic_string@DU?$char_traits@D@std@@V?$allocator@D@2@@std@@IAE_NI_N@Z
_TEXT	SEGMENT PARA USE32 PUBLIC 'CODE'
_TEXT	ENDS
;	COMDAT ?max_size@?$basic_string@DU?$char_traits@D@std@@V?$allocator@D@2@@std@@QBEIXZ
_TEXT	SEGMENT PARA USE32 PUBLIC 'CODE'
_TEXT	ENDS
;	COMDAT ?max_size@?$allocator@D@std@@QBEIXZ
_TEXT	SEGMENT PARA USE32 PUBLIC 'CODE'
_TEXT	ENDS
;	COMDAT ?_Copy@?$basic_string@DU?$char_traits@D@std@@V?$allocator@D@2@@std@@IAEXII@Z
_TEXT	SEGMENT PARA USE32 PUBLIC 'CODE'
_TEXT	ENDS
;	COMDAT ?allocate@?$allocator@D@std@@QAEPADI@Z
_TEXT	SEGMENT PARA USE32 PUBLIC 'CODE'
_TEXT	ENDS
;	COMDAT ??$_Allocate@D@std@@YAPADIPAD@Z
_TEXT	SEGMENT PARA USE32 PUBLIC 'CODE'
_TEXT	ENDS
;	COMDAT ?npos@?$basic_string@DU?$char_traits@D@std@@V?$allocator@D@2@@std@@2IB
CONST	SEGMENT DWORD USE32 PUBLIC 'CONST'
CONST	ENDS
;	COMDAT __CT??_R0?AVlogic_error@std@@@8??0logic_error@std@@QAE@ABV01@@Z40
xdata$x	SEGMENT DWORD USE32 PUBLIC 'CONST'
xdata$x	ENDS
;	COMDAT ??_R0?AVlogic_error@std@@@8
_DATA	SEGMENT DWORD USE32 PUBLIC 'DATA'
_DATA	ENDS
;	COMDAT __CT??_R0?AVexception@@@8??0exception@@QAE@ABV0@@Z12
xdata$x	SEGMENT DWORD USE32 PUBLIC 'CONST'
xdata$x	ENDS
;	COMDAT ??_R0?AVexception@@@8
_DATA	SEGMENT DWORD USE32 PUBLIC 'DATA'
_DATA	ENDS
;	COMDAT ??_C@_0BM@PAPJHAGI@invalid?5map?1set?$DMT?$DO?5iterator?$AA@
CONST	SEGMENT DWORD USE32 PUBLIC 'CONST'
CONST	ENDS
;	COMDAT ??0out_of_range@std@@QAE@ABV?$basic_string@DU?$char_traits@D@std@@V?$allocator@D@2@@1@@Z
_TEXT	SEGMENT PARA USE32 PUBLIC 'CODE'
_TEXT	ENDS
;	COMDAT ??0logic_error@std@@QAE@ABV?$basic_string@DU?$char_traits@D@std@@V?$allocator@D@2@@1@@Z
_TEXT	SEGMENT PARA USE32 PUBLIC 'CODE'
_TEXT	ENDS
;	COMDAT __TI3?AVlength_error@std@@
xdata$x	SEGMENT DWORD USE32 PUBLIC 'CONST'
xdata$x	ENDS
;	COMDAT ??1length_error@std@@UAE@XZ
_TEXT	SEGMENT PARA USE32 PUBLIC 'CODE'
_TEXT	ENDS
;	COMDAT ??_7length_error@std@@6B@
CONST	SEGMENT DWORD USE32 PUBLIC 'CONST'
CONST	ENDS
;	COMDAT ??_Glength_error@std@@UAEPAXI@Z
_TEXT	SEGMENT PARA USE32 PUBLIC 'CODE'
_TEXT	ENDS
;	COMDAT __CTA3?AVlength_error@std@@
xdata$x	SEGMENT DWORD USE32 PUBLIC 'CONST'
xdata$x	ENDS
;	COMDAT __CT??_R0?AVlength_error@std@@@8??0length_error@std@@QAE@ABV01@@Z40
xdata$x	SEGMENT DWORD USE32 PUBLIC 'CONST'
xdata$x	ENDS
;	COMDAT ??_R0?AVlength_error@std@@@8
_DATA	SEGMENT DWORD USE32 PUBLIC 'DATA'
_DATA	ENDS
;	COMDAT ??0length_error@std@@QAE@ABV01@@Z
_TEXT	SEGMENT PARA USE32 PUBLIC 'CODE'
_TEXT	ENDS
;	COMDAT ??1?$basic_string@DU?$char_traits@D@std@@V?$allocator@D@2@@std@@QAE@XZ
_TEXT	SEGMENT PARA USE32 PUBLIC 'CODE'
_TEXT	ENDS
;	COMDAT ??0?$basic_string@DU?$char_traits@D@std@@V?$allocator@D@2@@std@@QAE@PBD@Z
_TEXT	SEGMENT PARA USE32 PUBLIC 'CODE'
_TEXT	ENDS
;	COMDAT ??0?$allocator@D@std@@QAE@XZ
_TEXT	SEGMENT PARA USE32 PUBLIC 'CODE'
_TEXT	ENDS
;	COMDAT ?assign@?$basic_string@DU?$char_traits@D@std@@V?$allocator@D@2@@std@@QAEAAV12@PBD@Z
_TEXT	SEGMENT PARA USE32 PUBLIC 'CODE'
_TEXT	ENDS
;	COMDAT ?assign@?$basic_string@DU?$char_traits@D@std@@V?$allocator@D@2@@std@@QAEAAV12@PBDI@Z
_TEXT	SEGMENT PARA USE32 PUBLIC 'CODE'
_TEXT	ENDS
;	COMDAT ?_Inside@?$basic_string@DU?$char_traits@D@std@@V?$allocator@D@2@@std@@IAE_NPBD@Z
_TEXT	SEGMENT PARA USE32 PUBLIC 'CODE'
_TEXT	ENDS
;	COMDAT ?length@?$char_traits@D@std@@SAIPBD@Z
_TEXT	SEGMENT PARA USE32 PUBLIC 'CODE'
_TEXT	ENDS
;	COMDAT ??0length_error@std@@QAE@ABV?$basic_string@DU?$char_traits@D@std@@V?$allocator@D@2@@1@@Z
_TEXT	SEGMENT PARA USE32 PUBLIC 'CODE'
_TEXT	ENDS
;	COMDAT ?GetData@?$CSimpleStringT@D$0A@@ATL@@ABEPAUCStringData@2@XZ
_TEXT	SEGMENT PARA USE32 PUBLIC 'CODE'
_TEXT	ENDS
;	COMDAT ?ReleaseBufferSetLength@?$CSimpleStringT@D$0A@@ATL@@QAEXH@Z
_TEXT	SEGMENT PARA USE32 PUBLIC 'CODE'
_TEXT	ENDS
;	COMDAT ?Format@?$ChTraitsCRT@D@ATL@@SAHPADPBD0@Z
_TEXT	SEGMENT PARA USE32 PUBLIC 'CODE'
_TEXT	ENDS
;	COMDAT ?GetBuffer@?$CSimpleStringT@D$0A@@ATL@@QAEPADH@Z
_TEXT	SEGMENT PARA USE32 PUBLIC 'CODE'
_TEXT	ENDS
;	COMDAT ?PrepareWrite@?$CSimpleStringT@D$0A@@ATL@@AAEPADH@Z
_TEXT	SEGMENT PARA USE32 PUBLIC 'CODE'
_TEXT	ENDS
;	COMDAT ?PrepareWrite2@?$CSimpleStringT@D$0A@@ATL@@AAEXH@Z
_TEXT	SEGMENT PARA USE32 PUBLIC 'CODE'
_TEXT	ENDS
;	COMDAT ?IsShared@CStringData@ATL@@QBE_NXZ
_TEXT	SEGMENT PARA USE32 PUBLIC 'CODE'
_TEXT	ENDS
;	COMDAT ?Fork@?$CSimpleStringT@D$0A@@ATL@@AAEXH@Z
_TEXT	SEGMENT PARA USE32 PUBLIC 'CODE'
_TEXT	ENDS
;	COMDAT ?Release@CStringData@ATL@@QAEXXZ
_TEXT	SEGMENT PARA USE32 PUBLIC 'CODE'
_TEXT	ENDS
;	COMDAT ?Reallocate@?$CSimpleStringT@D$0A@@ATL@@AAEXH@Z
_TEXT	SEGMENT PARA USE32 PUBLIC 'CODE'
_TEXT	ENDS
;	COMDAT ?GetFormattedLength@?$ChTraitsCRT@D@ATL@@SAHPBDPAD@Z
_TEXT	SEGMENT PARA USE32 PUBLIC 'CODE'
_TEXT	ENDS
;	COMDAT ??1?$CSimpleStringT@D$0A@@ATL@@QAE@XZ
_TEXT	SEGMENT PARA USE32 PUBLIC 'CODE'
_TEXT	ENDS
;	COMDAT ??0?$CSimpleStringT@D$0A@@ATL@@QAE@PAUIAtlStringMgr@1@@Z
_TEXT	SEGMENT PARA USE32 PUBLIC 'CODE'
_TEXT	ENDS
;	COMDAT ??1CAtlModule@ATL@@UAE@XZ
_TEXT	SEGMENT PARA USE32 PUBLIC 'CODE'
_TEXT	ENDS
;	COMDAT ?_pPerfUnRegFunc@ATL@@3P6AJXZA
_DATA	SEGMENT DWORD USE32 PUBLIC 'DATA'
_DATA	ENDS
;	COMDAT ?_pPerfRegFunc@ATL@@3P6AJPAUHINSTANCE__@@@ZA
_DATA	SEGMENT DWORD USE32 PUBLIC 'DATA'
_DATA	ENDS
;	COMDAT ?Decrement@CComMultiThreadModel@ATL@@SGKPAJ@Z
_TEXT	SEGMENT PARA USE32 PUBLIC 'CODE'
_TEXT	ENDS
;	COMDAT ?Term@CAtlModule@ATL@@QAEXXZ
_TEXT	SEGMENT PARA USE32 PUBLIC 'CODE'
_TEXT	ENDS
;	COMDAT ?AtlCallTermFunc@ATL@@YGXPAU_ATL_MODULE70@1@@Z
_TEXT	SEGMENT PARA USE32 PUBLIC 'CODE'
_TEXT	ENDS
;	COMDAT ?_AtlRaiseException@ATL@@YAXKK@Z
_TEXT	SEGMENT PARA USE32 PUBLIC 'CODE'
_TEXT	ENDS
;	COMDAT ?Term@CComCriticalSection@ATL@@QAEJXZ
_TEXT	SEGMENT PARA USE32 PUBLIC 'CODE'
_TEXT	ENDS
;	COMDAT ?Unlock@CAtlModule@ATL@@UAEJXZ
_TEXT	SEGMENT PARA USE32 PUBLIC 'CODE'
_TEXT	ENDS
;	COMDAT ?_Tidy@?$vector@GV?$allocator@G@std@@@std@@IAEXXZ
_TEXT	SEGMENT PARA USE32 PUBLIC 'CODE'
_TEXT	ENDS
;	COMDAT ?_Destroy@?$vector@GV?$allocator@G@std@@@std@@IAEXPAG0@Z
_TEXT	SEGMENT PARA USE32 PUBLIC 'CODE'
_TEXT	ENDS
;	COMDAT ??$_Destroy_range@GV?$allocator@G@std@@@std@@YAXPAG0AAV?$allocator@G@0@@Z
_TEXT	SEGMENT PARA USE32 PUBLIC 'CODE'
_TEXT	ENDS
;	COMDAT ?deallocate@?$allocator@G@std@@QAEXPAGI@Z
_TEXT	SEGMENT PARA USE32 PUBLIC 'CODE'
_TEXT	ENDS
;	COMDAT ?_Destroy@?$vector@UtagTENTRYRECORD@@V?$allocator@UtagTENTRYRECORD@@@std@@@std@@IAEXPAUtagTENTRYRECORD@@0@Z
_TEXT	SEGMENT PARA USE32 PUBLIC 'CODE'
_TEXT	ENDS
;	COMDAT ??$_Destroy_range@UtagTENTRYRECORD@@V?$allocator@UtagTENTRYRECORD@@@std@@@std@@YAXPAUtagTENTRYRECORD@@0AAV?$allocator@UtagTENTRYRECORD@@@0@@Z
_TEXT	SEGMENT PARA USE32 PUBLIC 'CODE'
_TEXT	ENDS
;	COMDAT ?GetLength@?$CSimpleStringT@D$0A@@ATL@@QBEHXZ
_TEXT	SEGMENT PARA USE32 PUBLIC 'CODE'
_TEXT	ENDS
;	COMDAT ?GetString@?$CSimpleStringT@D$0A@@ATL@@QBEPBDXZ
_TEXT	SEGMENT PARA USE32 PUBLIC 'CODE'
_TEXT	ENDS
;	COMDAT ?AtlThrow@ATL@@YGXJ@Z
_TEXT	SEGMENT PARA USE32 PUBLIC 'CODE'
_TEXT	ENDS
;	COMDAT ??0CAtlException@ATL@@QAE@J@Z
_TEXT	SEGMENT PARA USE32 PUBLIC 'CODE'
_TEXT	ENDS
;	COMDAT __TI1?AVCAtlException@ATL@@
xdata$x	SEGMENT DWORD USE32 PUBLIC 'CONST'
xdata$x	ENDS
;	COMDAT __CTA1?AVCAtlException@ATL@@
xdata$x	SEGMENT DWORD USE32 PUBLIC 'CONST'
xdata$x	ENDS
;	COMDAT __CT??_R0?AVCAtlException@ATL@@@84
xdata$x	SEGMENT DWORD USE32 PUBLIC 'CONST'
xdata$x	ENDS
;	COMDAT ??_R0?AVCAtlException@ATL@@@8
_DATA	SEGMENT DWORD USE32 PUBLIC 'DATA'
_DATA	ENDS
;	COMDAT ??0?$CStringT@DV?$StrTraitATL@DV?$ChTraitsCRT@D@ATL@@@ATL@@@ATL@@QAE@ABV01@@Z
_TEXT	SEGMENT PARA USE32 PUBLIC 'CODE'
_TEXT	ENDS
;	COMDAT ??0?$CSimpleStringT@D$0A@@ATL@@QAE@ABV01@@Z
_TEXT	SEGMENT PARA USE32 PUBLIC 'CODE'
_TEXT	ENDS
;	COMDAT ?CloneData@?$CSimpleStringT@D$0A@@ATL@@CAPAUCStringData@2@PAU32@@Z
_TEXT	SEGMENT PARA USE32 PUBLIC 'CODE'
_TEXT	ENDS
;	COMDAT ?IsLocked@CStringData@ATL@@QBE_NXZ
_TEXT	SEGMENT PARA USE32 PUBLIC 'CODE'
_TEXT	ENDS
;	COMDAT ?AddRef@CStringData@ATL@@QAEXXZ
_TEXT	SEGMENT PARA USE32 PUBLIC 'CODE'
_TEXT	ENDS
;	COMDAT ?Format@CTime@ATL@@QBE?AV?$CStringT@DV?$StrTraitATL@DV?$ChTraitsCRT@D@ATL@@@ATL@@@2@PBD@Z
_TEXT	SEGMENT PARA USE32 PUBLIC 'CODE'
_TEXT	ENDS
;	COMDAT ??0CTime@ATL@@QAE@_J@Z
_TEXT	SEGMENT PARA USE32 PUBLIC 'CODE'
_TEXT	ENDS
;	COMDAT ?CalcMoney@@YAX_JAAK11@Z
_TEXT	SEGMENT PARA USE32 PUBLIC 'CODE'
_TEXT	ENDS
;	COMDAT ?CalcMoney@@YA_JKKK@Z
_TEXT	SEGMENT PARA USE32 PUBLIC 'CODE'
_TEXT	ENDS
;	COMDAT ??1?$vector@UtagTENTRYRECORD@@V?$allocator@UtagTENTRYRECORD@@@std@@@std@@QAE@XZ
_TEXT	SEGMENT PARA USE32 PUBLIC 'CODE'
_TEXT	ENDS
;	COMDAT ?_Tidy@?$vector@UtagTENTRYRECORD@@V?$allocator@UtagTENTRYRECORD@@@std@@@std@@IAEXXZ
_TEXT	SEGMENT PARA USE32 PUBLIC 'CODE'
_TEXT	ENDS
;	COMDAT ?deallocate@?$allocator@UtagTENTRYRECORD@@@std@@QAEXPAUtagTENTRYRECORD@@I@Z
_TEXT	SEGMENT PARA USE32 PUBLIC 'CODE'
_TEXT	ENDS
;	COMDAT ??_C@_00CNPNBAHC@?$AA@
CONST	SEGMENT DWORD USE32 PUBLIC 'CONST'
CONST	ENDS
;	COMDAT ??4?$CStringT@DV?$StrTraitATL@DV?$ChTraitsCRT@D@ATL@@@ATL@@@ATL@@QAEAAV01@PBD@Z
_TEXT	SEGMENT PARA USE32 PUBLIC 'CODE'
_TEXT	ENDS
;	COMDAT ??4?$CSimpleStringT@D$0A@@ATL@@QAEAAV01@PBD@Z
_TEXT	SEGMENT PARA USE32 PUBLIC 'CODE'
_TEXT	ENDS
;	COMDAT ?SetString@?$CSimpleStringT@D$0A@@ATL@@QAEXPBD@Z
_TEXT	SEGMENT PARA USE32 PUBLIC 'CODE'
_TEXT	ENDS
;	COMDAT ?SetString@?$CSimpleStringT@D$0A@@ATL@@QAEXPBDH@Z
_TEXT	SEGMENT PARA USE32 PUBLIC 'CODE'
_TEXT	ENDS
;	COMDAT ?Empty@?$CSimpleStringT@D$0A@@ATL@@QAEXXZ
_TEXT	SEGMENT PARA USE32 PUBLIC 'CODE'
_TEXT	ENDS
;	COMDAT ?CopyCharsOverlapped@?$CSimpleStringT@D$0A@@ATL@@SAXPADPBDH@Z
_TEXT	SEGMENT PARA USE32 PUBLIC 'CODE'
_TEXT	ENDS
;	COMDAT ?StringLength@?$CSimpleStringT@D$0A@@ATL@@SAHPBD@Z
_TEXT	SEGMENT PARA USE32 PUBLIC 'CODE'
_TEXT	ENDS
;	COMDAT ?AtlLoadString@ATL@@YAHIPADH@Z
_TEXT	SEGMENT PARA USE32 PUBLIC 'CODE'
_TEXT	ENDS
;	COMDAT ??0?$CStringT@DV?$StrTraitATL@DV?$ChTraitsCRT@D@ATL@@@ATL@@@ATL@@QAE@XZ
_TEXT	SEGMENT PARA USE32 PUBLIC 'CODE'
_TEXT	ENDS
;	COMDAT ?GetDefaultManager@?$StrTraitATL@DV?$ChTraitsCRT@D@ATL@@@ATL@@SAPAUIAtlStringMgr@2@XZ
_TEXT	SEGMENT PARA USE32 PUBLIC 'CODE'
_TEXT	ENDS
;	COMDAT ??B?$CSimpleStringT@D$0A@@ATL@@QBEPBDXZ
_TEXT	SEGMENT PARA USE32 PUBLIC 'CODE'
_TEXT	ENDS
;	COMDAT ??4?$CStringT@DV?$StrTraitATL@DV?$ChTraitsCRT@D@ATL@@@ATL@@@ATL@@QAEAAV01@ABV01@@Z
_TEXT	SEGMENT PARA USE32 PUBLIC 'CODE'
_TEXT	ENDS
;	COMDAT ??4?$CSimpleStringT@D$0A@@ATL@@QAEAAV01@ABV01@@Z
_TEXT	SEGMENT PARA USE32 PUBLIC 'CODE'
_TEXT	ENDS
;	COMDAT ??1?$CStringT@DV?$StrTraitATL@DV?$ChTraitsCRT@D@ATL@@@ATL@@@ATL@@QAE@XZ
_TEXT	SEGMENT PARA USE32 PUBLIC 'CODE'
_TEXT	ENDS
;	COMDAT ??0?$CStringT@DV?$StrTraitATL@DV?$ChTraitsCRT@D@ATL@@@ATL@@@ATL@@QAE@PBD@Z
_TEXT	SEGMENT PARA USE32 PUBLIC 'CODE'
_TEXT	ENDS
;	COMDAT ?CheckImplicitLoad@?$CStringT@DV?$StrTraitATL@DV?$ChTraitsCRT@D@ATL@@@ATL@@@ATL@@AAE_NPBX@Z
_TEXT	SEGMENT PARA USE32 PUBLIC 'CODE'
_TEXT	ENDS
;	COMDAT ?LoadStringA@?$CStringT@DV?$StrTraitATL@DV?$ChTraitsCRT@D@ATL@@@ATL@@@ATL@@QAEHI@Z
_TEXT	SEGMENT PARA USE32 PUBLIC 'CODE'
_TEXT	ENDS
;	COMDAT ?FindStringResourceInstance@?$StrTraitATL@DV?$ChTraitsCRT@D@ATL@@@ATL@@SAPAUHINSTANCE__@@I@Z
_TEXT	SEGMENT PARA USE32 PUBLIC 'CODE'
_TEXT	ENDS
;	COMDAT ?AtlFindStringResourceInstance@ATL@@YAPAUHINSTANCE__@@IG@Z
_TEXT	SEGMENT PARA USE32 PUBLIC 'CODE'
_TEXT	ENDS
;	COMDAT ?AtlGetStringResourceImage@ATL@@YAPBUATLSTRINGRESOURCEIMAGE@1@PAUHINSTANCE__@@IG@Z
_TEXT	SEGMENT PARA USE32 PUBLIC 'CODE'
_TEXT	ENDS
;	COMDAT ?_AtlGetStringResourceImage@ATL@@YAPBUATLSTRINGRESOURCEIMAGE@1@PAUHINSTANCE__@@PAUHRSRC__@@I@Z
_TEXT	SEGMENT PARA USE32 PUBLIC 'CODE'
_TEXT	ENDS
;	COMDAT ?LoadStringA@?$CStringT@DV?$StrTraitATL@DV?$ChTraitsCRT@D@ATL@@@ATL@@@ATL@@QAEHPAUHINSTANCE__@@I@Z
_TEXT	SEGMENT PARA USE32 PUBLIC 'CODE'
_TEXT	ENDS
;	COMDAT ?AtlGetStringResourceImage@ATL@@YAPBUATLSTRINGRESOURCEIMAGE@1@PAUHINSTANCE__@@I@Z
_TEXT	SEGMENT PARA USE32 PUBLIC 'CODE'
_TEXT	ENDS
;	COMDAT ?GetBaseTypeLength@?$ChTraitsCRT@D@ATL@@SAHPBGH@Z
_TEXT	SEGMENT PARA USE32 PUBLIC 'CODE'
_TEXT	ENDS
;	COMDAT ?_AtlGetConversionACP@ATL@@YGIXZ
_TEXT	SEGMENT PARA USE32 PUBLIC 'CODE'
_TEXT	ENDS
;	COMDAT ?g_pfnGetThreadACP@ATL@@3P6GIXZA
_DATA	SEGMENT DWORD USE32 PUBLIC 'DATA'
_DATA	ENDS
;	COMDAT ?_AtlGetThreadACPThunk@ATL@@YGIXZ
_TEXT	SEGMENT PARA USE32 PUBLIC 'CODE'
_TEXT	ENDS
;	COMDAT ?_AtlGetThreadACPReal@ATL@@YGIXZ
_TEXT	SEGMENT PARA USE32 PUBLIC 'CODE'
_TEXT	ENDS
;	COMDAT ?_AtlGetThreadACPFake@ATL@@YGIXZ
_TEXT	SEGMENT PARA USE32 PUBLIC 'CODE'
_TEXT	ENDS
;	COMDAT ?InterlockedExchangePointer@@YGPAXPAPAXPAX@Z
_TEXT	SEGMENT PARA USE32 PUBLIC 'CODE'
_TEXT	ENDS
;	COMDAT ?ConvertToBaseType@?$ChTraitsCRT@D@ATL@@SAXPADHPBGH@Z
_TEXT	SEGMENT PARA USE32 PUBLIC 'CODE'
_TEXT	ENDS
;	COMDAT ?WordCmpI@CAtlModule@ATL@@SAHPBD0@Z
_TEXT	SEGMENT PARA USE32 PUBLIC 'CODE'
_TEXT	ENDS
;	COMDAT ?FindOneOf@CAtlModule@ATL@@SAPBDPBD0@Z
_TEXT	SEGMENT PARA USE32 PUBLIC 'CODE'
_TEXT	ENDS
;	COMDAT ?SetStringValue@CRegKey@ATL@@QAEJPBD0K@Z
_TEXT	SEGMENT PARA USE32 PUBLIC 'CODE'
_TEXT	ENDS
;	COMDAT ?DeleteValue@CRegKey@ATL@@QAEJPBD@Z
_TEXT	SEGMENT PARA USE32 PUBLIC 'CODE'
_TEXT	ENDS
;	COMDAT ??BCRegKey@ATL@@QBEPAUHKEY__@@XZ
_TEXT	SEGMENT PARA USE32 PUBLIC 'CODE'
_TEXT	ENDS
;	COMDAT ?Create@CRegKey@ATL@@QAEJPAUHKEY__@@PBDPADKKPAU_SECURITY_ATTRIBUTES@@PAK@Z
_TEXT	SEGMENT PARA USE32 PUBLIC 'CODE'
_TEXT	ENDS
;	COMDAT ?Close@CRegKey@ATL@@QAEJXZ
_TEXT	SEGMENT PARA USE32 PUBLIC 'CODE'
_TEXT	ENDS
;	COMDAT ?AtlHresultFromWin32@ATL@@YAJK@Z
_TEXT	SEGMENT PARA USE32 PUBLIC 'CODE'
_TEXT	ENDS
;	COMDAT ??_C@_05PDIKPLII@AppID?$AA@
CONST	SEGMENT DWORD USE32 PUBLIC 'CONST'
CONST	ENDS
;	COMDAT ?Open@CRegKey@ATL@@QAEJPAUHKEY__@@PBDK@Z
_TEXT	SEGMENT PARA USE32 PUBLIC 'CODE'
_TEXT	ENDS
;	COMDAT ??1CRegKey@ATL@@QAE@XZ
_TEXT	SEGMENT PARA USE32 PUBLIC 'CODE'
_TEXT	ENDS
;	COMDAT ??0CRegKey@ATL@@QAE@XZ
_TEXT	SEGMENT PARA USE32 PUBLIC 'CODE'
_TEXT	ENDS
;	COMDAT ?_pAtlModule@ATL@@3PAVCAtlModule@1@A
_DATA	SEGMENT DWORD USE32 PUBLIC 'DATA'
_DATA	ENDS
;	COMDAT ?UpdateRegistryFromResourceS@CAtlModule@ATL@@QAGJIHPAU_ATL_REGMAP_ENTRY@2@@Z
_TEXT	SEGMENT PARA USE32 PUBLIC 'CODE'
_TEXT	ENDS
;	COMDAT ??0CRegObject@ATL@@QAE@XZ
_TEXT	SEGMENT PARA USE32 PUBLIC 'CODE'
_TEXT	ENDS
;	COMDAT ??0IRegistrarBase@@QAE@XZ
_TEXT	SEGMENT PARA USE32 PUBLIC 'CODE'
_TEXT	ENDS
;	COMDAT ??0IUnknown@@QAE@XZ
_TEXT	SEGMENT PARA USE32 PUBLIC 'CODE'
_TEXT	ENDS
;	COMDAT ??_7CRegObject@ATL@@6B@
CONST	SEGMENT DWORD USE32 PUBLIC 'CONST'
CONST	ENDS
;	COMDAT ?QueryInterface@CRegObject@ATL@@UAGJABU_GUID@@PAPAX@Z
_TEXT	SEGMENT PARA USE32 PUBLIC 'CODE'
_TEXT	ENDS
;	COMDAT ?AddRef@CRegObject@ATL@@UAGKXZ
_TEXT	SEGMENT PARA USE32 PUBLIC 'CODE'
_TEXT	ENDS
;	COMDAT ?Release@CRegObject@ATL@@UAGKXZ
_TEXT	SEGMENT PARA USE32 PUBLIC 'CODE'
_TEXT	ENDS
;	COMDAT ?ClearReplacements@CRegObject@ATL@@UAGJXZ
_TEXT	SEGMENT PARA USE32 PUBLIC 'CODE'
_TEXT	ENDS
;	COMDAT ?Lock@CComFakeCriticalSection@ATL@@QAEJXZ
_TEXT	SEGMENT PARA USE32 PUBLIC 'CODE'
_TEXT	ENDS
;	COMDAT ?ClearReplacements@CExpansionVector@ATL@@QAEJXZ
_TEXT	SEGMENT PARA USE32 PUBLIC 'CODE'
_TEXT	ENDS
;	COMDAT ?GetSize@?$CSimpleMap@PADPAGVCExpansionVectorEqualHelper@ATL@@@ATL@@QBEHXZ
_TEXT	SEGMENT PARA USE32 PUBLIC 'CODE'
_TEXT	ENDS
;	COMDAT ?GetKeyAt@?$CSimpleMap@PADPAGVCExpansionVectorEqualHelper@ATL@@@ATL@@QBEAAPADH@Z
_TEXT	SEGMENT PARA USE32 PUBLIC 'CODE'
_TEXT	ENDS
;	COMDAT ?GetValueAt@?$CSimpleMap@PADPAGVCExpansionVectorEqualHelper@ATL@@@ATL@@QBEAAPAGH@Z
_TEXT	SEGMENT PARA USE32 PUBLIC 'CODE'
_TEXT	ENDS
;	COMDAT ?RemoveAll@?$CSimpleMap@PADPAGVCExpansionVectorEqualHelper@ATL@@@ATL@@QAEXXZ
_TEXT	SEGMENT PARA USE32 PUBLIC 'CODE'
_TEXT	ENDS
;	COMDAT ?Unlock@CComFakeCriticalSection@ATL@@QAEJXZ
_TEXT	SEGMENT PARA USE32 PUBLIC 'CODE'
_TEXT	ENDS
;	COMDAT ??_GCRegObject@ATL@@UAEPAXI@Z
_TEXT	SEGMENT PARA USE32 PUBLIC 'CODE'
_TEXT	ENDS
;	COMDAT ??0CExpansionVector@ATL@@QAE@XZ
_TEXT	SEGMENT PARA USE32 PUBLIC 'CODE'
_TEXT	ENDS
;	COMDAT ??0?$CSimpleMap@PADPAGVCExpansionVectorEqualHelper@ATL@@@ATL@@QAE@XZ
_TEXT	SEGMENT PARA USE32 PUBLIC 'CODE'
_TEXT	ENDS
;	COMDAT ??1?$CSimpleMap@PADPAGVCExpansionVectorEqualHelper@ATL@@@ATL@@QAE@XZ
_TEXT	SEGMENT PARA USE32 PUBLIC 'CODE'
_TEXT	ENDS
;	COMDAT ??1CExpansionVector@ATL@@QAE@XZ
_TEXT	SEGMENT PARA USE32 PUBLIC 'CODE'
_TEXT	ENDS
;	COMDAT ??1CRegObject@ATL@@UAE@XZ
_TEXT	SEGMENT PARA USE32 PUBLIC 'CODE'
_TEXT	ENDS
;	COMDAT ??0?$CAtlSafeAllocBufferManager@VCCRTAllocator@ATL@@@_ATL_SAFE_ALLOCA_IMPL@ATL@@QAE@XZ
_TEXT	SEGMENT PARA USE32 PUBLIC 'CODE'
_TEXT	ENDS
;	COMDAT ??1?$CAtlSafeAllocBufferManager@VCCRTAllocator@ATL@@@_ATL_SAFE_ALLOCA_IMPL@ATL@@QAE@XZ
_TEXT	SEGMENT PARA USE32 PUBLIC 'CODE'
_TEXT	ENDS
;	COMDAT ?Free@CCRTAllocator@ATL@@SAXPAX@Z
_TEXT	SEGMENT PARA USE32 PUBLIC 'CODE'
_TEXT	ENDS
;	COMDAT ?GetModuleInstance@CAtlBaseModule@ATL@@QAEPAUHINSTANCE__@@XZ
_TEXT	SEGMENT PARA USE32 PUBLIC 'CODE'
_TEXT	ENDS
;	COMDAT ?AtlHresultFromLastError@ATL@@YAJXZ
_TEXT	SEGMENT PARA USE32 PUBLIC 'CODE'
_TEXT	ENDS
;	COMDAT ?AtlA2WHelper@@YGPAGPAGPBDHI@Z
_TEXT	SEGMENT PARA USE32 PUBLIC 'CODE'
_TEXT	ENDS
;	COMDAT ?_AtlVerifyStackAvailable@_ATL_SAFE_ALLOCA_IMPL@ATL@@YA_NK@Z
_TEXT	SEGMENT PARA USE32 PUBLIC 'CODE'
_TEXT	ENDS
;	COMDAT ?Allocate@?$CAtlSafeAllocBufferManager@VCCRTAllocator@ATL@@@_ATL_SAFE_ALLOCA_IMPL@ATL@@QAEPAXK@Z
_TEXT	SEGMENT PARA USE32 PUBLIC 'CODE'
_TEXT	ENDS
;	COMDAT ?Allocate@CCRTAllocator@ATL@@SAPAXI@Z
_TEXT	SEGMENT PARA USE32 PUBLIC 'CODE'
_TEXT	ENDS
;	COMDAT ?GetData@CAtlSafeAllocBufferNode@?$CAtlSafeAllocBufferManager@VCCRTAllocator@ATL@@@_ATL_SAFE_ALLOCA_IMPL@ATL@@QAEPAXXZ
_TEXT	SEGMENT PARA USE32 PUBLIC 'CODE'
_TEXT	ENDS
;	COMDAT ?EscapeSingleQuote@CAtlModule@ATL@@SAXPAGPBG@Z
_TEXT	SEGMENT PARA USE32 PUBLIC 'CODE'
_TEXT	ENDS
;	COMDAT ?ocscpy@@YAPAGPAGPBG@Z
_TEXT	SEGMENT PARA USE32 PUBLIC 'CODE'
_TEXT	ENDS
;	COMDAT ?ocslen@@YAHPBG@Z
_TEXT	SEGMENT PARA USE32 PUBLIC 'CODE'
_TEXT	ENDS
;	COMDAT ??_C@_1O@MNLDABAF@?$AAM?$AAo?$AAd?$AAu?$AAl?$AAe?$AA?$AA@
CONST	SEGMENT DWORD USE32 PUBLIC 'CONST'
CONST	ENDS
;	COMDAT ?AddReplacement@CRegObject@ATL@@UAGJPBG0@Z
_TEXT	SEGMENT PARA USE32 PUBLIC 'CODE'
_TEXT	ENDS
;	COMDAT ?AtlW2AHelper@@YGPADPADPBGHI@Z
_TEXT	SEGMENT PARA USE32 PUBLIC 'CODE'
_TEXT	ENDS
;	COMDAT ?Add@CExpansionVector@ATL@@QAEHPBDPBG@Z
_TEXT	SEGMENT PARA USE32 PUBLIC 'CODE'
_TEXT	ENDS
;	COMDAT ?Add@?$CSimpleMap@PADPAGVCExpansionVectorEqualHelper@ATL@@@ATL@@QAEHABQADABQAG@Z
_TEXT	SEGMENT PARA USE32 PUBLIC 'CODE'
_TEXT	ENDS
;	COMDAT ?InternalSetAtIndex@?$CSimpleMap@PADPAGVCExpansionVectorEqualHelper@ATL@@@ATL@@QAEXHABQADABQAG@Z
_TEXT	SEGMENT PARA USE32 PUBLIC 'CODE'
_TEXT	ENDS
;	COMDAT ??$?2PAD@?$Wrapper@PAD@?$CSimpleMap@PADPAGVCExpansionVectorEqualHelper@ATL@@@ATL@@SAPAXIPAPAD@Z
_TEXT	SEGMENT PARA USE32 PUBLIC 'CODE'
_TEXT	ENDS
;	COMDAT ??$?3PAD@?$Wrapper@PAD@?$CSimpleMap@PADPAGVCExpansionVectorEqualHelper@ATL@@@ATL@@SAXPAXPAPAD@Z
_TEXT	SEGMENT PARA USE32 PUBLIC 'CODE'
_TEXT	ENDS
;	COMDAT ??0?$Wrapper@PAD@?$CSimpleMap@PADPAGVCExpansionVectorEqualHelper@ATL@@@ATL@@QAE@ABQAD@Z
_TEXT	SEGMENT PARA USE32 PUBLIC 'CODE'
_TEXT	ENDS
;	COMDAT ??$?2PAG@?$Wrapper@PAG@?$CSimpleMap@PADPAGVCExpansionVectorEqualHelper@ATL@@@ATL@@SAPAXIPAPAG@Z
_TEXT	SEGMENT PARA USE32 PUBLIC 'CODE'
_TEXT	ENDS
;	COMDAT ??$?3PAG@?$Wrapper@PAG@?$CSimpleMap@PADPAGVCExpansionVectorEqualHelper@ATL@@@ATL@@SAXPAXPAPAG@Z
_TEXT	SEGMENT PARA USE32 PUBLIC 'CODE'
_TEXT	ENDS
;	COMDAT ??0?$Wrapper@PAG@?$CSimpleMap@PADPAGVCExpansionVectorEqualHelper@ATL@@@ATL@@QAE@ABQAG@Z
_TEXT	SEGMENT PARA USE32 PUBLIC 'CODE'
_TEXT	ENDS
;	COMDAT ??_C@_1BG@JBACFMF@?$AAM?$AAo?$AAd?$AAu?$AAl?$AAe?$AA_?$AAR?$AAa?$AAw?$AA?$AA@
CONST	SEGMENT DWORD USE32 PUBLIC 'CONST'
CONST	ENDS
;	COMDAT ??_C@_1BC@KAILKFFG@?$AAR?$AAE?$AAG?$AAI?$AAS?$AAT?$AAR?$AAY?$AA?$AA@
CONST	SEGMENT DWORD USE32 PUBLIC 'CONST'
CONST	ENDS
;	COMDAT ?ResourceRegister@CRegObject@ATL@@QAGJPBGI0@Z
_TEXT	SEGMENT PARA USE32 PUBLIC 'CODE'
_TEXT	ENDS
;	COMDAT ?RegisterFromResource@CRegObject@ATL@@IAEJPBGPBD1H@Z
_TEXT	SEGMENT PARA USE32 PUBLIC 'CODE'
_TEXT	ENDS
;	COMDAT ??0CRegParser@ATL@@QAE@PAVCRegObject@1@@Z
_TEXT	SEGMENT PARA USE32 PUBLIC 'CODE'
_TEXT	ENDS
;	COMDAT ??0?$CTempBuffer@D$0EAA@VCCRTAllocator@ATL@@@ATL@@QAE@XZ
_TEXT	SEGMENT PARA USE32 PUBLIC 'CODE'
_TEXT	ENDS
;	COMDAT ??1?$CTempBuffer@D$0EAA@VCCRTAllocator@ATL@@@ATL@@QAE@XZ
_TEXT	SEGMENT PARA USE32 PUBLIC 'CODE'
_TEXT	ENDS
;	COMDAT ?FreeHeap@?$CTempBuffer@D$0EAA@VCCRTAllocator@ATL@@@ATL@@AAEXXZ
_TEXT	SEGMENT PARA USE32 PUBLIC 'CODE'
_TEXT	ENDS
;	COMDAT ?Allocate@?$CTempBuffer@D$0EAA@VCCRTAllocator@ATL@@@ATL@@QAEPADI@Z
_TEXT	SEGMENT PARA USE32 PUBLIC 'CODE'
_TEXT	ENDS
;	COMDAT ?AllocateBytes@?$CTempBuffer@D$0EAA@VCCRTAllocator@ATL@@@ATL@@QAEPADI@Z
_TEXT	SEGMENT PARA USE32 PUBLIC 'CODE'
_TEXT	ENDS
;	COMDAT ?AllocateHeap@?$CTempBuffer@D$0EAA@VCCRTAllocator@ATL@@@ATL@@AAEXI@Z
_TEXT	SEGMENT PARA USE32 PUBLIC 'CODE'
_TEXT	ENDS
;	COMDAT ?RegisterBuffer@CRegParser@ATL@@QAEJPADH@Z
_TEXT	SEGMENT PARA USE32 PUBLIC 'CODE'
_TEXT	ENDS
;	COMDAT ?PreProcessBuffer@CRegParser@ATL@@QAEJPADPAPAD@Z
_TEXT	SEGMENT PARA USE32 PUBLIC 'CODE'
_TEXT	ENDS
;	COMDAT ??0CParseBuffer@CRegParser@ATL@@QAE@H@Z
_TEXT	SEGMENT PARA USE32 PUBLIC 'CODE'
_TEXT	ENDS
;	COMDAT ??1CParseBuffer@CRegParser@ATL@@QAE@XZ
_TEXT	SEGMENT PARA USE32 PUBLIC 'CODE'
_TEXT	ENDS
;	COMDAT ?StrChrA@CRegParser@ATL@@KAPADPADD@Z
_TEXT	SEGMENT PARA USE32 PUBLIC 'CODE'
_TEXT	ENDS
;	COMDAT ?StrFromMap@CRegObject@ATL@@QAEPBGPAD@Z
_TEXT	SEGMENT PARA USE32 PUBLIC 'CODE'
_TEXT	ENDS
;	COMDAT ?Lookup@?$CSimpleMap@PADPAGVCExpansionVectorEqualHelper@ATL@@@ATL@@QBEPAGABQAD@Z
_TEXT	SEGMENT PARA USE32 PUBLIC 'CODE'
_TEXT	ENDS
;	COMDAT ?FindKey@?$CSimpleMap@PADPAGVCExpansionVectorEqualHelper@ATL@@@ATL@@QBEHABQAD@Z
_TEXT	SEGMENT PARA USE32 PUBLIC 'CODE'
_TEXT	ENDS
;	COMDAT ?IsEqualKey@CExpansionVectorEqualHelper@ATL@@SA_NQAD0@Z
_TEXT	SEGMENT PARA USE32 PUBLIC 'CODE'
_TEXT	ENDS
;	COMDAT ?AddString@CParseBuffer@CRegParser@ATL@@QAEHPBG@Z
_TEXT	SEGMENT PARA USE32 PUBLIC 'CODE'
_TEXT	ENDS
;	COMDAT ?Append@CParseBuffer@CRegParser@ATL@@QAEHPBDH@Z
_TEXT	SEGMENT PARA USE32 PUBLIC 'CODE'
_TEXT	ENDS
;	COMDAT ?AddChar@CParseBuffer@CRegParser@ATL@@QAEHPBD@Z
_TEXT	SEGMENT PARA USE32 PUBLIC 'CODE'
_TEXT	ENDS
;	COMDAT ?Detach@CParseBuffer@CRegParser@ATL@@QAEPADXZ
_TEXT	SEGMENT PARA USE32 PUBLIC 'CODE'
_TEXT	ENDS
;	COMDAT ?HKeyFromString@CRegParser@ATL@@KAPAUHKEY__@@PAD@Z
_TEXT	SEGMENT PARA USE32 PUBLIC 'CODE'
_TEXT	ENDS
;	COMDAT ??_C@_04OHBKMIBJ@HKCR?$AA@
CONST	SEGMENT DWORD USE32 PUBLIC 'CONST'
CONST	ENDS
;	COMDAT ??_C@_04KIFLFONO@HKCU?$AA@
CONST	SEGMENT DWORD USE32 PUBLIC 'CONST'
CONST	ENDS
;	COMDAT ??_C@_04CBBMIBLK@HKLM?$AA@
CONST	SEGMENT DWORD USE32 PUBLIC 'CONST'
CONST	ENDS
;	COMDAT ??_C@_03DLBIJLAB@HKU?$AA@
CONST	SEGMENT DWORD USE32 PUBLIC 'CONST'
CONST	ENDS
;	COMDAT ??_C@_04OFOCGAOH@HKPD?$AA@
CONST	SEGMENT DWORD USE32 PUBLIC 'CONST'
CONST	ENDS
;	COMDAT ??_C@_04POMNGLEL@HKDD?$AA@
CONST	SEGMENT DWORD USE32 PUBLIC 'CONST'
CONST	ENDS
;	COMDAT ??_C@_04LEMDOLAJ@HKCC?$AA@
CONST	SEGMENT DWORD USE32 PUBLIC 'CONST'
CONST	ENDS
;	COMDAT ??_C@_0BC@JBJOLKMF@HKEY_CLASSES_ROOT?$AA@
CONST	SEGMENT DWORD USE32 PUBLIC 'CONST'
CONST	ENDS
;	COMDAT ??_C@_0BC@GMMMKLBI@HKEY_CURRENT_USER?$AA@
CONST	SEGMENT DWORD USE32 PUBLIC 'CONST'
CONST	ENDS
;	COMDAT ??_C@_0BD@GIIFIKDM@HKEY_LOCAL_MACHINE?$AA@
CONST	SEGMENT DWORD USE32 PUBLIC 'CONST'
CONST	ENDS
;	COMDAT ??_C@_0L@OEMMANAM@HKEY_USERS?$AA@
CONST	SEGMENT DWORD USE32 PUBLIC 'CONST'
CONST	ENDS
;	COMDAT ??_C@_0BG@IDBEHNDO@HKEY_PERFORMANCE_DATA?$AA@
CONST	SEGMENT DWORD USE32 PUBLIC 'CONST'
CONST	ENDS
;	COMDAT ??_C@_0O@MJDLIIGK@HKEY_DYN_DATA?$AA@
CONST	SEGMENT DWORD USE32 PUBLIC 'CONST'
CONST	ENDS
;	COMDAT ??_C@_0BE@NLNNHLLF@HKEY_CURRENT_CONFIG?$AA@
CONST	SEGMENT DWORD USE32 PUBLIC 'CONST'
CONST	ENDS
;	COMDAT ?map@?2??HKeyFromString@CRegParser@ATL@@KAPAUHKEY__@@PAD@Z@4QBUkeymap@23@B
CONST	SEGMENT DWORD USE32 PUBLIC 'CONST'
CONST	ENDS
;	COMDAT ?NextToken@CRegParser@ATL@@IAEJPAD@Z
_TEXT	SEGMENT PARA USE32 PUBLIC 'CODE'
_TEXT	ENDS
;	COMDAT ?EndOfVar@CRegParser@ATL@@IAEHXZ
_TEXT	SEGMENT PARA USE32 PUBLIC 'CODE'
_TEXT	ENDS
;	COMDAT ?IsSpace@CRegParser@ATL@@IAEHD@Z
_TEXT	SEGMENT PARA USE32 PUBLIC 'CODE'
_TEXT	ENDS
;	COMDAT ?GenerateError@CRegParser@ATL@@IAEJI@Z
_TEXT	SEGMENT PARA USE32 PUBLIC 'CODE'
_TEXT	ENDS
;	COMDAT ?RegisterSubkeys@CRegParser@ATL@@IAEJPADPAUHKEY__@@HH@Z
_TEXT	SEGMENT PARA USE32 PUBLIC 'CODE'
_TEXT	ENDS
;	COMDAT ??_C@_06JBKGCNBB@Delete?$AA@
CONST	SEGMENT DWORD USE32 PUBLIC 'CONST'
CONST	ENDS
;	COMDAT ??_C@_0M@DBGDLGLL@ForceRemove?$AA@
CONST	SEGMENT DWORD USE32 PUBLIC 'CONST'
CONST	ENDS
;	COMDAT ??_C@_08KAAPDIAN@NoRemove?$AA@
CONST	SEGMENT DWORD USE32 PUBLIC 'CONST'
CONST	ENDS
;	COMDAT ??_C@_03LAIAPFCB@Val?$AA@
CONST	SEGMENT DWORD USE32 PUBLIC 'CONST'
CONST	ENDS
;	COMDAT ?AddValue@CRegParser@ATL@@IAEJAAVCRegKey@2@PBDPAD@Z
_TEXT	SEGMENT PARA USE32 PUBLIC 'CODE'
_TEXT	ENDS
;	COMDAT ?VTFromRegType@CRegParser@ATL@@KAHPBDAAG@Z
_TEXT	SEGMENT PARA USE32 PUBLIC 'CODE'
_TEXT	ENDS
;	COMDAT ??_C@_01CPLAODJH@S?$AA@
CONST	SEGMENT DWORD USE32 PUBLIC 'CONST'
CONST	ENDS
;	COMDAT ??_C@_01PLPBNMEI@M?$AA@
CONST	SEGMENT DWORD USE32 PUBLIC 'CONST'
CONST	ENDS
;	COMDAT ??_C@_01CKDDGHAB@D?$AA@
CONST	SEGMENT DWORD USE32 PUBLIC 'CONST'
CONST	ENDS
;	COMDAT ??_C@_01HMGJMAIH@B?$AA@
CONST	SEGMENT DWORD USE32 PUBLIC 'CONST'
CONST	ENDS
;	COMDAT ?map@?2??VTFromRegType@CRegParser@ATL@@KAHPBDAAG@Z@4QBUtypemap@23@B
_DATA	SEGMENT DWORD USE32 PUBLIC 'DATA'
_DATA	ENDS
;	COMDAT ?$S4@?2??VTFromRegType@CRegParser@ATL@@KAHPBDAAG@Z@4IA
_BSS	SEGMENT DWORD USE32 PUBLIC 'BSS'
_BSS	ENDS
;	COMDAT ??0?$CTempBuffer@D$0BAA@VCCRTAllocator@ATL@@@ATL@@QAE@XZ
_TEXT	SEGMENT PARA USE32 PUBLIC 'CODE'
_TEXT	ENDS
;	COMDAT ??1?$CTempBuffer@D$0BAA@VCCRTAllocator@ATL@@@ATL@@QAE@XZ
_TEXT	SEGMENT PARA USE32 PUBLIC 'CODE'
_TEXT	ENDS
;	COMDAT ?FreeHeap@?$CTempBuffer@D$0BAA@VCCRTAllocator@ATL@@@ATL@@AAEXXZ
_TEXT	SEGMENT PARA USE32 PUBLIC 'CODE'
_TEXT	ENDS
;	COMDAT ?Allocate@?$CTempBuffer@D$0BAA@VCCRTAllocator@ATL@@@ATL@@QAEPADI@Z
_TEXT	SEGMENT PARA USE32 PUBLIC 'CODE'
_TEXT	ENDS
;	COMDAT ?AllocateBytes@?$CTempBuffer@D$0BAA@VCCRTAllocator@ATL@@@ATL@@QAEPADI@Z
_TEXT	SEGMENT PARA USE32 PUBLIC 'CODE'
_TEXT	ENDS
;	COMDAT ?AllocateHeap@?$CTempBuffer@D$0BAA@VCCRTAllocator@ATL@@@ATL@@AAEXI@Z
_TEXT	SEGMENT PARA USE32 PUBLIC 'CODE'
_TEXT	ENDS
;	COMDAT ?SetMultiStringValue@CRegKey@ATL@@QAEJPBD0@Z
_TEXT	SEGMENT PARA USE32 PUBLIC 'CODE'
_TEXT	ENDS
;	COMDAT ??B?$CTempBuffer@D$0BAA@VCCRTAllocator@ATL@@@ATL@@QBEPADXZ
_TEXT	SEGMENT PARA USE32 PUBLIC 'CODE'
_TEXT	ENDS
;	COMDAT ?SetDWORDValue@CRegKey@ATL@@QAEJPBDK@Z
_TEXT	SEGMENT PARA USE32 PUBLIC 'CODE'
_TEXT	ENDS
;	COMDAT ??0?$CTempBuffer@E$0BAA@VCCRTAllocator@ATL@@@ATL@@QAE@XZ
_TEXT	SEGMENT PARA USE32 PUBLIC 'CODE'
_TEXT	ENDS
;	COMDAT ??1?$CTempBuffer@E$0BAA@VCCRTAllocator@ATL@@@ATL@@QAE@XZ
_TEXT	SEGMENT PARA USE32 PUBLIC 'CODE'
_TEXT	ENDS
;	COMDAT ?FreeHeap@?$CTempBuffer@E$0BAA@VCCRTAllocator@ATL@@@ATL@@AAEXXZ
_TEXT	SEGMENT PARA USE32 PUBLIC 'CODE'
_TEXT	ENDS
;	COMDAT ?Allocate@?$CTempBuffer@E$0BAA@VCCRTAllocator@ATL@@@ATL@@QAEPAEI@Z
_TEXT	SEGMENT PARA USE32 PUBLIC 'CODE'
_TEXT	ENDS
;	COMDAT ?AllocateBytes@?$CTempBuffer@E$0BAA@VCCRTAllocator@ATL@@@ATL@@QAEPAEI@Z
_TEXT	SEGMENT PARA USE32 PUBLIC 'CODE'
_TEXT	ENDS
;	COMDAT ?AllocateHeap@?$CTempBuffer@E$0BAA@VCCRTAllocator@ATL@@@ATL@@AAEXI@Z
_TEXT	SEGMENT PARA USE32 PUBLIC 'CODE'
_TEXT	ENDS
;	COMDAT ?ChToByte@CRegParser@ATL@@KAED@Z
_TEXT	SEGMENT PARA USE32 PUBLIC 'CODE'
_TEXT	ENDS
;	COMDAT ??B?$CTempBuffer@E$0BAA@VCCRTAllocator@ATL@@@ATL@@QBEPAEXZ
_TEXT	SEGMENT PARA USE32 PUBLIC 'CODE'
_TEXT	ENDS
;	COMDAT ?SkipAssignment@CRegParser@ATL@@IAEJPAD@Z
_TEXT	SEGMENT PARA USE32 PUBLIC 'CODE'
_TEXT	ENDS
;	COMDAT ?HasSubKeys@CRegParser@ATL@@IAEHPAUHKEY__@@@Z
_TEXT	SEGMENT PARA USE32 PUBLIC 'CODE'
_TEXT	ENDS
;	COMDAT ?CanForceRemoveKey@CRegParser@ATL@@IAEHPBD@Z
_TEXT	SEGMENT PARA USE32 PUBLIC 'CODE'
_TEXT	ENDS
;	COMDAT ?rgszNeverDelete@CRegParser@ATL@@1QBQBDB
CONST	SEGMENT DWORD USE32 PUBLIC 'CONST'
CONST	ENDS
;	COMDAT ??_C@_05GIBEAPNE@CLSID?$AA@
CONST	SEGMENT DWORD USE32 PUBLIC 'CONST'
CONST	ENDS
;	COMDAT ??_C@_0BF@HDDNNDFH@Component?5Categories?$AA@
CONST	SEGMENT DWORD USE32 PUBLIC 'CONST'
CONST	ENDS
;	COMDAT ??_C@_08PICKODJL@FileType?$AA@
CONST	SEGMENT DWORD USE32 PUBLIC 'CONST'
CONST	ENDS
;	COMDAT ??_C@_09JKPGEJCH@Interface?$AA@
CONST	SEGMENT DWORD USE32 PUBLIC 'CONST'
CONST	ENDS
;	COMDAT ??_C@_08PPIOJEA@Hardware?$AA@
CONST	SEGMENT DWORD USE32 PUBLIC 'CONST'
CONST	ENDS
;	COMDAT ??_C@_04IHBFOLAC@Mime?$AA@
CONST	SEGMENT DWORD USE32 PUBLIC 'CONST'
CONST	ENDS
;	COMDAT ??_C@_03DDIMFGBA@SAM?$AA@
CONST	SEGMENT DWORD USE32 PUBLIC 'CONST'
CONST	ENDS
;	COMDAT ??_C@_08LOPHEHKG@SECURITY?$AA@
CONST	SEGMENT DWORD USE32 PUBLIC 'CONST'
CONST	ENDS
;	COMDAT ??_C@_06FDHFNJBJ@SYSTEM?$AA@
CONST	SEGMENT DWORD USE32 PUBLIC 'CONST'
CONST	ENDS
;	COMDAT ??_C@_08KEKAJNJI@Software?$AA@
CONST	SEGMENT DWORD USE32 PUBLIC 'CONST'
CONST	ENDS
;	COMDAT ??_C@_07KJLOKDKB@TypeLib?$AA@
CONST	SEGMENT DWORD USE32 PUBLIC 'CONST'
CONST	ENDS
;	COMDAT ?RecurseDeleteKey@CRegKey@ATL@@QAEJPBD@Z
_TEXT	SEGMENT PARA USE32 PUBLIC 'CODE'
_TEXT	ENDS
;	COMDAT ?Attach@CRegKey@ATL@@QAEXPAUHKEY__@@@Z
_TEXT	SEGMENT PARA USE32 PUBLIC 'CODE'
_TEXT	ENDS
;	COMDAT ?DeleteSubKey@CRegKey@ATL@@QAEJPBD@Z
_TEXT	SEGMENT PARA USE32 PUBLIC 'CODE'
_TEXT	ENDS
;	COMDAT ?Detach@CRegKey@ATL@@QAEPAUHKEY__@@XZ
_TEXT	SEGMENT PARA USE32 PUBLIC 'CODE'
_TEXT	ENDS
;	COMDAT ?SkipWhiteSpace@CRegParser@ATL@@IAEXXZ
_TEXT	SEGMENT PARA USE32 PUBLIC 'CODE'
_TEXT	ENDS
;	COMDAT ??B?$CTempBuffer@D$0EAA@VCCRTAllocator@ATL@@@ATL@@QBEPADXZ
_TEXT	SEGMENT PARA USE32 PUBLIC 'CODE'
_TEXT	ENDS
;	COMDAT ?ResourceUnregister@CRegObject@ATL@@QAGJPBGI0@Z
_TEXT	SEGMENT PARA USE32 PUBLIC 'CODE'
_TEXT	ENDS
;	COMDAT ??_C@_1M@PPPPCDEP@?$AAA?$AAP?$AAP?$AAI?$AAD?$AA?$AA@
CONST	SEGMENT DWORD USE32 PUBLIC 'CONST'
CONST	ENDS
;	COMDAT ?m_libid@CAtlModule@ATL@@2U_GUID@@A
_DATA	SEGMENT DWORD USE32 PUBLIC 'DATA'
_DATA	ENDS
sxdata	SEGMENT DWORD USE32 'SXDATA'
sxdata	ENDS
FLAT	GROUP _DATA, CONST, _BSS
	ASSUME	CS: FLAT, DS: FLAT, SS: FLAT
endif

INCLUDELIB LIBCMT
INCLUDELIB OLDNAMES

PUBLIC	?rgszNeverDelete@CRegParser@ATL@@1QBQBDB	; ATL::CRegParser::rgszNeverDelete
PUBLIC	?g_pfnGetThreadACP@ATL@@3P6GIXZA		; ATL::g_pfnGetThreadACP
PUBLIC	?_AtlGetThreadACPThunk@ATL@@YGIXZ		; ATL::_AtlGetThreadACPThunk
PUBLIC	??_C@_0BF@HDDNNDFH@Component?5Categories?$AA@	; `string'
PUBLIC	??_C@_08PICKODJL@FileType?$AA@			; `string'
PUBLIC	??_C@_09JKPGEJCH@Interface?$AA@			; `string'
PUBLIC	??_C@_08PPIOJEA@Hardware?$AA@			; `string'
PUBLIC	??_C@_04IHBFOLAC@Mime?$AA@			; `string'
PUBLIC	??_C@_03DDIMFGBA@SAM?$AA@			; `string'
PUBLIC	??_C@_08LOPHEHKG@SECURITY?$AA@			; `string'
PUBLIC	??_C@_06FDHFNJBJ@SYSTEM?$AA@			; `string'
PUBLIC	??_C@_08KEKAJNJI@Software?$AA@			; `string'
PUBLIC	??_C@_07KJLOKDKB@TypeLib?$AA@			; `string'
PUBLIC	?_pAtlModule@ATL@@3PAVCAtlModule@1@A		; ATL::_pAtlModule
PUBLIC	?m_libid@CAtlModule@ATL@@2U_GUID@@A		; ATL::CAtlModule::m_libid
PUBLIC	_CLSID_StdGlobalInterfaceTable
PUBLIC	??_C@_05GIBEAPNE@CLSID?$AA@			; `string'
PUBLIC	??_C@_05PDIKPLII@AppID?$AA@			; `string'
PUBLIC	??_C@_01CPLAODJH@S?$AA@				; `string'
PUBLIC	??_C@_01PLPBNMEI@M?$AA@				; `string'
PUBLIC	??_C@_01CKDDGHAB@D?$AA@				; `string'
PUBLIC	??_C@_01HMGJMAIH@B?$AA@				; `string'
PUBLIC	??_C@_03LAIAPFCB@Val?$AA@			; `string'
PUBLIC	??_C@_0M@DBGDLGLL@ForceRemove?$AA@		; `string'
PUBLIC	??_C@_08KAAPDIAN@NoRemove?$AA@			; `string'
PUBLIC	??_C@_06JBKGCNBB@Delete?$AA@			; `string'
PUBLIC	?_pPerfRegFunc@ATL@@3P6AJPAUHINSTANCE__@@@ZA	; ATL::_pPerfRegFunc
PUBLIC	?_pPerfUnRegFunc@ATL@@3P6AJXZA			; ATL::_pPerfUnRegFunc
;	COMDAT ?_pAtlModule@ATL@@3PAVCAtlModule@1@A
_BSS	SEGMENT
?_pAtlModule@ATL@@3PAVCAtlModule@1@A DD 01H DUP (?)	; ATL::_pAtlModule
_BSS	ENDS
;	COMDAT ?m_libid@CAtlModule@ATL@@2U_GUID@@A
_BSS	SEGMENT
?m_libid@CAtlModule@ATL@@2U_GUID@@A DB 010H DUP (?)	; ATL::CAtlModule::m_libid
_BSS	ENDS
;	COMDAT ?_pPerfRegFunc@ATL@@3P6AJPAUHINSTANCE__@@@ZA
_BSS	SEGMENT
?_pPerfRegFunc@ATL@@3P6AJPAUHINSTANCE__@@@ZA DD 01H DUP (?) ; ATL::_pPerfRegFunc
_BSS	ENDS
;	COMDAT ?_pPerfUnRegFunc@ATL@@3P6AJXZA
_BSS	SEGMENT
?_pPerfUnRegFunc@ATL@@3P6AJXZA DD 01H DUP (?)		; ATL::_pPerfUnRegFunc
_BSS	ENDS
;	COMDAT ?g_pfnGetThreadACP@ATL@@3P6GIXZA
_DATA	SEGMENT
?g_pfnGetThreadACP@ATL@@3P6GIXZA DD FLAT:?_AtlGetThreadACPThunk@ATL@@YGIXZ ; ATL::g_pfnGetThreadACP
_DATA	ENDS
;	COMDAT _CLSID_StdGlobalInterfaceTable
CONST	SEGMENT
_CLSID_StdGlobalInterfaceTable DD 0323H
	DW	00H
	DW	00H
	DB	0c0H
	DB	00H
	DB	00H
	DB	00H
	DB	00H
	DB	00H
	DB	00H
	DB	046H
CONST	ENDS
;	COMDAT ??_C@_01CPLAODJH@S?$AA@
CONST	SEGMENT
??_C@_01CPLAODJH@S?$AA@ DB 'S', 00H			; `string'
CONST	ENDS
CONST	SEGMENT
_szStringVal DD	FLAT:??_C@_01CPLAODJH@S?$AA@
CONST	ENDS
;	COMDAT ??_C@_01PLPBNMEI@M?$AA@
CONST	SEGMENT
??_C@_01PLPBNMEI@M?$AA@ DB 'M', 00H			; `string'
CONST	ENDS
CONST	SEGMENT
_multiszStringVal DD FLAT:??_C@_01PLPBNMEI@M?$AA@
CONST	ENDS
;	COMDAT ??_C@_01CKDDGHAB@D?$AA@
CONST	SEGMENT
??_C@_01CKDDGHAB@D?$AA@ DB 'D', 00H			; `string'
CONST	ENDS
CONST	SEGMENT
_szDwordVal DD	FLAT:??_C@_01CKDDGHAB@D?$AA@
CONST	ENDS
;	COMDAT ??_C@_01HMGJMAIH@B?$AA@
CONST	SEGMENT
??_C@_01HMGJMAIH@B?$AA@ DB 'B', 00H			; `string'
CONST	ENDS
CONST	SEGMENT
_szBinaryVal DD	FLAT:??_C@_01HMGJMAIH@B?$AA@
CONST	ENDS
;	COMDAT ??_C@_03LAIAPFCB@Val?$AA@
CONST	SEGMENT
??_C@_03LAIAPFCB@Val?$AA@ DB 'Val', 00H			; `string'
CONST	ENDS
CONST	SEGMENT
_szValToken DD	FLAT:??_C@_03LAIAPFCB@Val?$AA@
CONST	ENDS
;	COMDAT ??_C@_0M@DBGDLGLL@ForceRemove?$AA@
CONST	SEGMENT
??_C@_0M@DBGDLGLL@ForceRemove?$AA@ DB 'ForceRemove', 00H ; `string'
CONST	ENDS
CONST	SEGMENT
_szForceRemove DD FLAT:??_C@_0M@DBGDLGLL@ForceRemove?$AA@
CONST	ENDS
;	COMDAT ??_C@_08KAAPDIAN@NoRemove?$AA@
CONST	SEGMENT
??_C@_08KAAPDIAN@NoRemove?$AA@ DB 'NoRemove', 00H	; `string'
CONST	ENDS
CONST	SEGMENT
_szNoRemove DD	FLAT:??_C@_08KAAPDIAN@NoRemove?$AA@
CONST	ENDS
;	COMDAT ??_C@_06JBKGCNBB@Delete?$AA@
CONST	SEGMENT
??_C@_06JBKGCNBB@Delete?$AA@ DB 'Delete', 00H		; `string'
CONST	ENDS
CONST	SEGMENT
_szDelete DD	FLAT:??_C@_06JBKGCNBB@Delete?$AA@
CONST	ENDS
;	COMDAT ??_C@_05PDIKPLII@AppID?$AA@
CONST	SEGMENT
??_C@_05PDIKPLII@AppID?$AA@ DB 'AppID', 00H		; `string'
CONST	ENDS
;	COMDAT ??_C@_05GIBEAPNE@CLSID?$AA@
CONST	SEGMENT
??_C@_05GIBEAPNE@CLSID?$AA@ DB 'CLSID', 00H		; `string'
CONST	ENDS
;	COMDAT ??_C@_0BF@HDDNNDFH@Component?5Categories?$AA@
CONST	SEGMENT
??_C@_0BF@HDDNNDFH@Component?5Categories?$AA@ DB 'Component Categories', 00H ; `string'
CONST	ENDS
;	COMDAT ??_C@_08PICKODJL@FileType?$AA@
CONST	SEGMENT
??_C@_08PICKODJL@FileType?$AA@ DB 'FileType', 00H	; `string'
CONST	ENDS
;	COMDAT ??_C@_09JKPGEJCH@Interface?$AA@
CONST	SEGMENT
??_C@_09JKPGEJCH@Interface?$AA@ DB 'Interface', 00H	; `string'
CONST	ENDS
;	COMDAT ??_C@_08PPIOJEA@Hardware?$AA@
CONST	SEGMENT
??_C@_08PPIOJEA@Hardware?$AA@ DB 'Hardware', 00H	; `string'
CONST	ENDS
;	COMDAT ??_C@_04IHBFOLAC@Mime?$AA@
CONST	SEGMENT
??_C@_04IHBFOLAC@Mime?$AA@ DB 'Mime', 00H		; `string'
CONST	ENDS
;	COMDAT ??_C@_03DDIMFGBA@SAM?$AA@
CONST	SEGMENT
??_C@_03DDIMFGBA@SAM?$AA@ DB 'SAM', 00H			; `string'
CONST	ENDS
;	COMDAT ??_C@_08LOPHEHKG@SECURITY?$AA@
CONST	SEGMENT
??_C@_08LOPHEHKG@SECURITY?$AA@ DB 'SECURITY', 00H	; `string'
CONST	ENDS
;	COMDAT ??_C@_06FDHFNJBJ@SYSTEM?$AA@
CONST	SEGMENT
??_C@_06FDHFNJBJ@SYSTEM?$AA@ DB 'SYSTEM', 00H		; `string'
CONST	ENDS
;	COMDAT ??_C@_08KEKAJNJI@Software?$AA@
CONST	SEGMENT
??_C@_08KEKAJNJI@Software?$AA@ DB 'Software', 00H	; `string'
CONST	ENDS
;	COMDAT ??_C@_07KJLOKDKB@TypeLib?$AA@
CONST	SEGMENT
??_C@_07KJLOKDKB@TypeLib?$AA@ DB 'TypeLib', 00H		; `string'
CONST	ENDS
;	COMDAT ?rgszNeverDelete@CRegParser@ATL@@1QBQBDB
CONST	SEGMENT
?rgszNeverDelete@CRegParser@ATL@@1QBQBDB DD FLAT:??_C@_05PDIKPLII@AppID?$AA@ ; ATL::CRegParser::rgszNeverDelete
	DD	FLAT:??_C@_05GIBEAPNE@CLSID?$AA@
	DD	FLAT:??_C@_0BF@HDDNNDFH@Component?5Categories?$AA@
	DD	FLAT:??_C@_08PICKODJL@FileType?$AA@
	DD	FLAT:??_C@_09JKPGEJCH@Interface?$AA@
	DD	FLAT:??_C@_08PPIOJEA@Hardware?$AA@
	DD	FLAT:??_C@_04IHBFOLAC@Mime?$AA@
	DD	FLAT:??_C@_03DDIMFGBA@SAM?$AA@
	DD	FLAT:??_C@_08LOPHEHKG@SECURITY?$AA@
	DD	FLAT:??_C@_06FDHFNJBJ@SYSTEM?$AA@
	DD	FLAT:??_C@_08KEKAJNJI@Software?$AA@
	DD	FLAT:??_C@_07KJLOKDKB@TypeLib?$AA@
CONST	ENDS
PUBLIC	?InterlockedExchangePointer@@YGPAXPAPAXPAX@Z	; InterlockedExchangePointer
EXTRN	__imp__InterlockedExchange@8:NEAR
; Function compile flags: /Ogty
; File c:\program files (x86)\microsoft visual studio .net 2003\vc7\atlmfc\include\atlconv.h
;	COMDAT ?InterlockedExchangePointer@@YGPAXPAPAXPAX@Z
_TEXT	SEGMENT
_pp$ = 8						; size = 4
_pNew$ = 12						; size = 4
?InterlockedExchangePointer@@YGPAXPAPAXPAX@Z PROC NEAR	; InterlockedExchangePointer, COMDAT

; 92   : 	return( reinterpret_cast<void*>(static_cast<LONG_PTR>(::InterlockedExchange(reinterpret_cast<LONG*>(pp), static_cast<LONG>(reinterpret_cast<LONG_PTR>(pNew))))) );

  00000	ff 25 00 00 00
	00		 jmp	 DWORD PTR __imp__InterlockedExchange@8
?InterlockedExchangePointer@@YGPAXPAPAXPAX@Z ENDP	; InterlockedExchangePointer
_TEXT	ENDS
PUBLIC	?_AtlGetThreadACPFake@ATL@@YGIXZ		; ATL::_AtlGetThreadACPFake
EXTRN	___security_cookie:DWORD
EXTRN	@__security_check_cookie@4:NEAR
EXTRN	__imp__GetACP@0:NEAR
EXTRN	__imp__GetLocaleInfoA@16:NEAR
EXTRN	__imp__GetThreadLocale@0:NEAR
; Function compile flags: /Ogty
;	COMDAT ?_AtlGetThreadACPFake@ATL@@YGIXZ
_TEXT	SEGMENT
_szACP$ = -12						; size = 7
__$ArrayPad$ = -4					; size = 4
__$ReturnAddr$ = 4					; size = 4
?_AtlGetThreadACPFake@ATL@@YGIXZ PROC NEAR		; ATL::_AtlGetThreadACPFake, COMDAT

; 101  : {

  00000	83 ec 0c	 sub	 esp, 12			; 0000000cH
  00003	a1 00 00 00 00	 mov	 eax, DWORD PTR ___security_cookie
  00008	56		 push	 esi
  00009	89 44 24 0c	 mov	 DWORD PTR __$ArrayPad$[esp+16], eax

; 102  : 	UINT nACP = 0;

  0000d	33 f6		 xor	 esi, esi

; 103  : 
; 104  : 	LCID lcidThread = ::GetThreadLocale();

  0000f	ff 15 00 00 00
	00		 call	 DWORD PTR __imp__GetThreadLocale@0

; 105  : 
; 106  : 	char szACP[7];
; 107  : 	// GetLocaleInfoA will fail for a Unicode-only LCID, but those are only supported on 
; 108  : 	// Windows 2000.  Since Windows 2000 supports CP_THREAD_ACP, this code path is never
; 109  : 	// executed on Windows 2000.
; 110  : 	if (::GetLocaleInfoA(lcidThread, LOCALE_IDEFAULTANSICODEPAGE, szACP, 7) != 0)

  00015	6a 07		 push	 7
  00017	8d 4c 24 08	 lea	 ecx, DWORD PTR _szACP$[esp+20]
  0001b	51		 push	 ecx
  0001c	68 04 10 00 00	 push	 4100			; 00001004H
  00021	50		 push	 eax
  00022	ff 15 00 00 00
	00		 call	 DWORD PTR __imp__GetLocaleInfoA@16
  00028	85 c0		 test	 eax, eax
  0002a	74 21		 je	 SHORT $L140400

; 111  : 	{
; 112  : 		char* pch = szACP;
; 113  : 		while (*pch != '\0')

  0002c	8a 44 24 04	 mov	 al, BYTE PTR _szACP$[esp+16]
  00030	84 c0		 test	 al, al
  00032	8d 4c 24 04	 lea	 ecx, DWORD PTR _szACP$[esp+16]
  00036	74 15		 je	 SHORT $L140400
$L58550:

; 114  : 		{
; 115  : 			nACP *= 10;
; 116  : 			nACP += *pch++ - '0';

  00038	0f be c0	 movsx	 eax, al
  0003b	8d 14 b6	 lea	 edx, DWORD PTR [esi+esi*4]
  0003e	41		 inc	 ecx
  0003f	8d 74 50 d0	 lea	 esi, DWORD PTR [eax+edx*2-48]
  00043	8a 01		 mov	 al, BYTE PTR [ecx]
  00045	84 c0		 test	 al, al
  00047	75 ef		 jne	 SHORT $L58550

; 117  : 		}
; 118  : 	}
; 119  : 	// Use the Default ANSI Code Page if we were unable to get the thread ACP or if one does not exist.
; 120  : 	if (nACP == 0)

  00049	85 f6		 test	 esi, esi
  0004b	75 14		 jne	 SHORT $L140401
$L140400:

; 121  : 		nACP = ::GetACP();

  0004d	ff 15 00 00 00
	00		 call	 DWORD PTR __imp__GetACP@0
  00053	5e		 pop	 esi

; 122  : 
; 123  : 	return nACP;
; 124  : }

  00054	8b 4c 24 08	 mov	 ecx, DWORD PTR __$ArrayPad$[esp+12]
  00058	e8 00 00 00 00	 call	 @__security_check_cookie@4
  0005d	83 c4 0c	 add	 esp, 12			; 0000000cH
  00060	c3		 ret	 0
$L140401:
  00061	8b 4c 24 0c	 mov	 ecx, DWORD PTR __$ArrayPad$[esp+16]
  00065	8b c6		 mov	 eax, esi
  00067	5e		 pop	 esi
  00068	e8 00 00 00 00	 call	 @__security_check_cookie@4
  0006d	83 c4 0c	 add	 esp, 12			; 0000000cH
  00070	c3		 ret	 0
?_AtlGetThreadACPFake@ATL@@YGIXZ ENDP			; ATL::_AtlGetThreadACPFake
_TEXT	ENDS
PUBLIC	?_AtlGetThreadACPReal@ATL@@YGIXZ		; ATL::_AtlGetThreadACPReal
; Function compile flags: /Ogty
;	COMDAT ?_AtlGetThreadACPReal@ATL@@YGIXZ
_TEXT	SEGMENT
?_AtlGetThreadACPReal@ATL@@YGIXZ PROC NEAR		; ATL::_AtlGetThreadACPReal, COMDAT

; 128  : 	return( CP_THREAD_ACP );

  00000	b8 03 00 00 00	 mov	 eax, 3

; 129  : }

  00005	c3		 ret	 0
?_AtlGetThreadACPReal@ATL@@YGIXZ ENDP			; ATL::_AtlGetThreadACPReal
_TEXT	ENDS
EXTRN	__imp__GetVersionExA@4:NEAR
; Function compile flags: /Ogty
;	COMDAT ?_AtlGetThreadACPThunk@ATL@@YGIXZ
_TEXT	SEGMENT
_ver$ = -152						; size = 148
__$ArrayPad$ = -4					; size = 4
__$ReturnAddr$ = 4					; size = 4
?_AtlGetThreadACPThunk@ATL@@YGIXZ PROC NEAR		; ATL::_AtlGetThreadACPThunk, COMDAT

; 134  : {

  00000	81 ec 98 00 00
	00		 sub	 esp, 152		; 00000098H
  00006	a1 00 00 00 00	 mov	 eax, DWORD PTR ___security_cookie
  0000b	89 84 24 94 00
	00 00		 mov	 DWORD PTR __$ArrayPad$[esp+152], eax

; 135  : 	OSVERSIONINFO ver;
; 136  : 	ATLGETTHREADACP pfnGetThreadACP;
; 137  : 
; 138  : 	ver.dwOSVersionInfoSize = sizeof( ver );
; 139  : 	::GetVersionEx( &ver );

  00012	8d 04 24	 lea	 eax, DWORD PTR _ver$[esp+152]
  00015	50		 push	 eax
  00016	c7 44 24 04 94
	00 00 00	 mov	 DWORD PTR _ver$[esp+156], 148 ; 00000094H
  0001e	ff 15 00 00 00
	00		 call	 DWORD PTR __imp__GetVersionExA@4

; 140  : 	if( (ver.dwPlatformId == VER_PLATFORM_WIN32_NT) && (ver.dwMajorVersion >= 5) )

  00024	83 7c 24 10 02	 cmp	 DWORD PTR _ver$[esp+168], 2
  00029	75 0c		 jne	 SHORT $L58560
  0002b	83 7c 24 04 05	 cmp	 DWORD PTR _ver$[esp+156], 5

; 141  : 	{
; 142  : 		// On Win2K, CP_THREAD_ACP is supported
; 143  : 		pfnGetThreadACP = _AtlGetThreadACPReal;

  00030	b8 00 00 00 00	 mov	 eax, OFFSET FLAT:?_AtlGetThreadACPReal@ATL@@YGIXZ ; ATL::_AtlGetThreadACPReal
  00035	73 05		 jae	 SHORT $L58561
$L58560:

; 144  : 	}
; 145  : 	else
; 146  : 	{
; 147  : 		pfnGetThreadACP = _AtlGetThreadACPFake;

  00037	b8 00 00 00 00	 mov	 eax, OFFSET FLAT:?_AtlGetThreadACPFake@ATL@@YGIXZ ; ATL::_AtlGetThreadACPFake
$L58561:

; 148  : 	}
; 149  : 	InterlockedExchangePointer( reinterpret_cast< void** >(&g_pfnGetThreadACP), pfnGetThreadACP );

  0003c	50		 push	 eax
  0003d	68 00 00 00 00	 push	 OFFSET FLAT:?g_pfnGetThreadACP@ATL@@3P6GIXZA ; ATL::g_pfnGetThreadACP
  00042	ff 15 00 00 00
	00		 call	 DWORD PTR __imp__InterlockedExchange@8

; 150  : 
; 151  : 	return( g_pfnGetThreadACP() );

  00048	ff 15 00 00 00
	00		 call	 DWORD PTR ?g_pfnGetThreadACP@ATL@@3P6GIXZA ; ATL::g_pfnGetThreadACP

; 152  : }

  0004e	8b 8c 24 94 00
	00 00		 mov	 ecx, DWORD PTR __$ArrayPad$[esp+152]
  00055	e8 00 00 00 00	 call	 @__security_check_cookie@4
  0005a	81 c4 98 00 00
	00		 add	 esp, 152		; 00000098H
  00060	c3		 ret	 0
?_AtlGetThreadACPThunk@ATL@@YGIXZ ENDP			; ATL::_AtlGetThreadACPThunk
_TEXT	ENDS
PUBLIC	?_AtlGetConversionACP@ATL@@YGIXZ		; ATL::_AtlGetConversionACP
; Function compile flags: /Ogty
;	COMDAT ?_AtlGetConversionACP@ATL@@YGIXZ
_TEXT	SEGMENT
?_AtlGetConversionACP@ATL@@YGIXZ PROC NEAR		; ATL::_AtlGetConversionACP, COMDAT

; 158  : 	return( g_pfnGetThreadACP() );

  00000	ff 25 00 00 00
	00		 jmp	 DWORD PTR ?g_pfnGetThreadACP@ATL@@3P6GIXZA ; ATL::g_pfnGetThreadACP
?_AtlGetConversionACP@ATL@@YGIXZ ENDP			; ATL::_AtlGetConversionACP
_TEXT	ENDS
PUBLIC	?GetMaxMemberCnt@CTGuild@@QAEEXZ		; CTGuild::GetMaxMemberCnt
; Function compile flags: /Ogty
; File c:\users\pierr\desktop\4story - oldschool\sources\tserver\tworldsvr\tguild.cpp
;	COMDAT ?GetMaxMemberCnt@CTGuild@@QAEEXZ
_TEXT	SEGMENT
?GetMaxMemberCnt@CTGuild@@QAEEXZ PROC NEAR		; CTGuild::GetMaxMemberCnt, COMDAT
; _this$ = ecx

; 260  : 	return m_pTLEVEL->m_bMaxCnt;

  00000	8b 81 c8 00 00
	00		 mov	 eax, DWORD PTR [ecx+200]
  00006	8a 40 08	 mov	 al, BYTE PTR [eax+8]

; 261  : }

  00009	c3		 ret	 0
?GetMaxMemberCnt@CTGuild@@QAEEXZ ENDP			; CTGuild::GetMaxMemberCnt
_TEXT	ENDS
PUBLIC	??0CAtlException@ATL@@QAE@J@Z			; ATL::CAtlException::CAtlException
; Function compile flags: /Ogty
; File c:\program files (x86)\microsoft visual studio .net 2003\vc7\atlmfc\include\atlexcept.h
;	COMDAT ??0CAtlException@ATL@@QAE@J@Z
_TEXT	SEGMENT
_hr$ = 8						; size = 4
??0CAtlException@ATL@@QAE@J@Z PROC NEAR			; ATL::CAtlException::CAtlException, COMDAT
; _this$ = ecx

; 40   : 	{

  00000	8b c1		 mov	 eax, ecx
  00002	8b 4c 24 04	 mov	 ecx, DWORD PTR _hr$[esp-4]
  00006	89 08		 mov	 DWORD PTR [eax], ecx

; 41   : 	}

  00008	c2 04 00	 ret	 4
??0CAtlException@ATL@@QAE@J@Z ENDP			; ATL::CAtlException::CAtlException
_TEXT	ENDS
PUBLIC	?AtlThrow@ATL@@YGXJ@Z				; ATL::AtlThrow
PUBLIC	__TI1?AVCAtlException@ATL@@
PUBLIC	__CTA1?AVCAtlException@ATL@@
PUBLIC	??_R0?AVCAtlException@ATL@@@8			; ATL::CAtlException `RTTI Type Descriptor'
PUBLIC	__CT??_R0?AVCAtlException@ATL@@@84
EXTRN	__CxxThrowException@8:NEAR
EXTRN	??_7type_info@@6B@:DWORD			; type_info::`vftable'
;	COMDAT __TI1?AVCAtlException@ATL@@
xdata$x	SEGMENT
__TI1?AVCAtlException@ATL@@ DD 00H
	DD	00H
	DD	00H
	DD	FLAT:__CTA1?AVCAtlException@ATL@@
xdata$x	ENDS
;	COMDAT __CTA1?AVCAtlException@ATL@@
xdata$x	SEGMENT
__CTA1?AVCAtlException@ATL@@ DD 01H
	DD	FLAT:__CT??_R0?AVCAtlException@ATL@@@84
xdata$x	ENDS
;	COMDAT __CT??_R0?AVCAtlException@ATL@@@84
xdata$x	SEGMENT
__CT??_R0?AVCAtlException@ATL@@@84 DD 00H
	DD	FLAT:??_R0?AVCAtlException@ATL@@@8
	DD	00H
	DD	0ffffffffH
	ORG $+4
	DD	04H
	DD	00H
xdata$x	ENDS
;	COMDAT ??_R0?AVCAtlException@ATL@@@8
_DATA	SEGMENT
??_R0?AVCAtlException@ATL@@@8 DD FLAT:??_7type_info@@6B@ ; ATL::CAtlException `RTTI Type Descriptor'
	DD	00H
	DB	'.?AVCAtlException@ATL@@', 00H
; Function compile flags: /Ogty
_DATA	ENDS
;	COMDAT ?AtlThrow@ATL@@YGXJ@Z
_TEXT	SEGMENT
$T140429 = 8						; size = 4
_hr$ = 8						; size = 4
?AtlThrow@ATL@@YGXJ@Z PROC NEAR				; ATL::AtlThrow, COMDAT

; 62   : 	ATLTRACE(atlTraceException, 0, _T("AtlThrow: hr = 0x%x\n"), hr );
; 63   : #ifdef _AFX
; 64   : 	if( hr == E_OUTOFMEMORY )
; 65   : 	{
; 66   : 		AfxThrowMemoryException();
; 67   : 	}
; 68   : 	else
; 69   : 	{
; 70   : 		AfxThrowOleException( hr );
; 71   : 	}
; 72   : #else
; 73   : 	throw CAtlException( hr );

  00000	8b 44 24 04	 mov	 eax, DWORD PTR _hr$[esp-4]
  00004	68 00 00 00 00	 push	 OFFSET FLAT:__TI1?AVCAtlException@ATL@@
  00009	8d 4c 24 08	 lea	 ecx, DWORD PTR $T140429[esp]
  0000d	51		 push	 ecx
  0000e	89 44 24 0c	 mov	 DWORD PTR $T140429[esp+4], eax
  00012	e8 00 00 00 00	 call	 __CxxThrowException@8
$L140436:
$L140435:
  00017	cc		 int	 3
?AtlThrow@ATL@@YGXJ@Z ENDP				; ATL::AtlThrow
_TEXT	ENDS
PUBLIC	?SetFame@CTGuild@@QAEXKK@Z			; CTGuild::SetFame
; Function compile flags: /Ogty
; File c:\users\pierr\desktop\4story - oldschool\sources\tserver\tworldsvr\tguild.cpp
;	COMDAT ?SetFame@CTGuild@@QAEXKK@Z
_TEXT	SEGMENT
_dwFame$ = 8						; size = 4
_dwFameColor$ = 12					; size = 4
?SetFame@CTGuild@@QAEXKK@Z PROC NEAR			; CTGuild::SetFame, COMDAT
; _this$ = ecx

; 488  : 	m_dwFame = dwFame;

  00000	8b 44 24 04	 mov	 eax, DWORD PTR _dwFame$[esp-4]

; 489  : 	m_dwFameColor = dwFameColor;

  00004	8b 54 24 08	 mov	 edx, DWORD PTR _dwFameColor$[esp-4]
  00008	89 41 14	 mov	 DWORD PTR [ecx+20], eax
  0000b	89 51 18	 mov	 DWORD PTR [ecx+24], edx

; 490  : }

  0000e	c2 08 00	 ret	 8
?SetFame@CTGuild@@QAEXKK@Z ENDP				; CTGuild::SetFame
_TEXT	ENDS
PUBLIC	?_AtlGetStringResourceImage@ATL@@YAPBUATLSTRINGRESOURCEIMAGE@1@PAUHINSTANCE__@@PAUHRSRC__@@I@Z ; ATL::_AtlGetStringResourceImage
EXTRN	__imp__LockResource@4:NEAR
EXTRN	__imp__LoadResource@8:NEAR
EXTRN	__imp__SizeofResource@8:NEAR
; Function compile flags: /Ogty
; File c:\program files (x86)\microsoft visual studio .net 2003\vc7\atlmfc\include\atlcore.h
;	COMDAT ?_AtlGetStringResourceImage@ATL@@YAPBUATLSTRINGRESOURCEIMAGE@1@PAUHINSTANCE__@@PAUHRSRC__@@I@Z
_TEXT	SEGMENT
_hInstance$ = 8						; size = 4
_hResource$ = 12					; size = 4
_id$ = 16						; size = 4
?_AtlGetStringResourceImage@ATL@@YAPBUATLSTRINGRESOURCEIMAGE@1@PAUHINSTANCE__@@PAUHRSRC__@@I@Z PROC NEAR ; ATL::_AtlGetStringResourceImage, COMDAT

; 239  : {

  00000	53		 push	 ebx

; 240  : 	const ATLSTRINGRESOURCEIMAGE* pImage;
; 241  : 	const ATLSTRINGRESOURCEIMAGE* pImageEnd;
; 242  : 	ULONG nResourceSize;
; 243  : 	HGLOBAL hGlobal;
; 244  : 	UINT iIndex;
; 245  : 
; 246  : 	hGlobal = ::LoadResource( hInstance, hResource );

  00001	8b 5c 24 08	 mov	 ebx, DWORD PTR _hInstance$[esp]
  00005	57		 push	 edi
  00006	8b 7c 24 10	 mov	 edi, DWORD PTR _hResource$[esp+4]
  0000a	57		 push	 edi
  0000b	53		 push	 ebx
  0000c	ff 15 00 00 00
	00		 call	 DWORD PTR __imp__LoadResource@8

; 247  : 	if( hGlobal == NULL )

  00012	85 c0		 test	 eax, eax
  00014	75 03		 jne	 SHORT $L59408
  00016	5f		 pop	 edi
  00017	5b		 pop	 ebx

; 272  : 	{
; 273  : 		return( NULL );
; 274  : 	}
; 275  : 
; 276  : 	return( pImage );
; 277  : }

  00018	c3		 ret	 0
$L59408:
  00019	56		 push	 esi

; 248  : 	{
; 249  : 		return( NULL );
; 250  : 	}
; 251  : 
; 252  : 	pImage = (const ATLSTRINGRESOURCEIMAGE*)::LockResource( hGlobal );

  0001a	50		 push	 eax
  0001b	ff 15 00 00 00
	00		 call	 DWORD PTR __imp__LockResource@4
  00021	8b f0		 mov	 esi, eax

; 253  : 	if( pImage == NULL )

  00023	85 f6		 test	 esi, esi
  00025	75 06		 jne	 SHORT $L59410
$L140445:
  00027	5e		 pop	 esi
  00028	5f		 pop	 edi

; 254  : 	{
; 255  : 		return( NULL );

  00029	33 c0		 xor	 eax, eax
  0002b	5b		 pop	 ebx

; 272  : 	{
; 273  : 		return( NULL );
; 274  : 	}
; 275  : 
; 276  : 	return( pImage );
; 277  : }

  0002c	c3		 ret	 0
$L59410:

; 256  : 	}
; 257  : 
; 258  : 	nResourceSize = ::SizeofResource( hInstance, hResource );

  0002d	57		 push	 edi
  0002e	53		 push	 ebx
  0002f	ff 15 00 00 00
	00		 call	 DWORD PTR __imp__SizeofResource@8

; 259  : 	pImageEnd = (const ATLSTRINGRESOURCEIMAGE*)(LPBYTE( pImage )+nResourceSize);
; 260  : 	iIndex = id&0x000f;

  00035	8b 4c 24 18	 mov	 ecx, DWORD PTR _id$[esp+8]
  00039	03 c6		 add	 eax, esi
  0003b	83 e1 0f	 and	 ecx, 15			; 0000000fH

; 261  : 
; 262  : 	while( (iIndex > 0) && (pImage < pImageEnd) )

  0003e	76 0e		 jbe	 SHORT $L59414
$L59413:
  00040	3b f0		 cmp	 esi, eax
  00042	73 e3		 jae	 SHORT $L140445

; 263  : 	{
; 264  : 		pImage = (const ATLSTRINGRESOURCEIMAGE*)(LPBYTE( pImage )+(sizeof( ATLSTRINGRESOURCEIMAGE )+(pImage->nLength*sizeof( WCHAR ))));
; 265  : 		iIndex--;

  00044	49		 dec	 ecx
  00045	0f b7 16	 movzx	 edx, WORD PTR [esi]
  00048	8d 74 56 02	 lea	 esi, DWORD PTR [esi+edx*2+2]
  0004c	75 f2		 jne	 SHORT $L59413
$L59414:

; 266  : 	}
; 267  : 	if( pImage >= pImageEnd )

  0004e	3b f0		 cmp	 esi, eax

; 268  : 	{
; 269  : 		return( NULL );

  00050	73 d5		 jae	 SHORT $L140445

; 270  : 	}
; 271  : 	if( pImage->nLength == 0 )

  00052	66 8b 06	 mov	 ax, WORD PTR [esi]
  00055	66 f7 d8	 neg	 ax
  00058	1b c0		 sbb	 eax, eax
  0005a	23 c6		 and	 eax, esi
  0005c	5e		 pop	 esi
  0005d	5f		 pop	 edi
  0005e	5b		 pop	 ebx

; 272  : 	{
; 273  : 		return( NULL );
; 274  : 	}
; 275  : 
; 276  : 	return( pImage );
; 277  : }

  0005f	c3		 ret	 0
?_AtlGetStringResourceImage@ATL@@YAPBUATLSTRINGRESOURCEIMAGE@1@PAUHINSTANCE__@@PAUHRSRC__@@I@Z ENDP ; ATL::_AtlGetStringResourceImage
_TEXT	ENDS
PUBLIC	?GainPvPoint@CTGuild@@QAEXKEE@Z			; CTGuild::GainPvPoint
EXTRN	?_AtlModule@@3VCTWorldSvrModule@@A:BYTE		; _AtlModule
EXTRN	?SendDM_GUILDPVPOINT_REQ@CTWorldSvrModule@@QAEXKKKK@Z:NEAR ; CTWorldSvrModule::SendDM_GUILDPVPOINT_REQ
; Function compile flags: /Ogty
; File c:\users\pierr\desktop\4story - oldschool\sources\tserver\tworldsvr\tguild.cpp
;	COMDAT ?GainPvPoint@CTGuild@@QAEXKEE@Z
_TEXT	SEGMENT
_dwPoint$ = 8						; size = 4
_bEvent$ = 12						; size = 1
_bType$ = 16						; size = 1
?GainPvPoint@CTGuild@@QAEXKEE@Z PROC NEAR		; CTGuild::GainPvPoint, COMDAT
; _this$ = ecx

; 562  : 	if(!dwPoint)

  00000	8b 44 24 04	 mov	 eax, DWORD PTR _dwPoint$[esp-4]
  00004	85 c0		 test	 eax, eax
  00006	74 30		 je	 SHORT $L135054

; 563  : 		return;
; 564  : 
; 565  : 	if(bType & PVP_TOTAL)

  00008	8a 54 24 0c	 mov	 dl, BYTE PTR _bType$[esp-4]
  0000c	f6 c2 01	 test	 dl, 1
  0000f	74 06		 je	 SHORT $L135056

; 566  : 	{
; 567  : 		m_dwPvPTotalPoint += dwPoint;

  00011	01 41 50	 add	 DWORD PTR [ecx+80], eax

; 568  : 		m_dwPvPMonthPoint += dwPoint;

  00014	01 41 54	 add	 DWORD PTR [ecx+84], eax
$L135056:

; 569  : 	}
; 570  : 
; 571  : 	if(bType & PVP_USEABLE)

  00017	f6 c2 02	 test	 dl, 2
  0001a	74 03		 je	 SHORT $L135057

; 572  : 		m_dwPvPUseablePoint += dwPoint;

  0001c	01 41 4c	 add	 DWORD PTR [ecx+76], eax
$L135057:

; 573  : 
; 574  : 	_AtlModule.SendDM_GUILDPVPOINT_REQ(
; 575  : 		m_dwID,
; 576  : 		m_dwPvPTotalPoint,
; 577  : 		m_dwPvPUseablePoint,
; 578  : 		m_dwPvPMonthPoint);

  0001f	8b 41 54	 mov	 eax, DWORD PTR [ecx+84]
  00022	8b 51 4c	 mov	 edx, DWORD PTR [ecx+76]
  00025	50		 push	 eax
  00026	8b 41 50	 mov	 eax, DWORD PTR [ecx+80]
  00029	8b 09		 mov	 ecx, DWORD PTR [ecx]
  0002b	52		 push	 edx
  0002c	50		 push	 eax
  0002d	51		 push	 ecx
  0002e	b9 00 00 00 00	 mov	 ecx, OFFSET FLAT:?_AtlModule@@3VCTWorldSvrModule@@A
  00033	e8 00 00 00 00	 call	 ?SendDM_GUILDPVPOINT_REQ@CTWorldSvrModule@@QAEXKKKK@Z ; CTWorldSvrModule::SendDM_GUILDPVPOINT_REQ
$L135054:

; 579  : }

  00038	c2 0c 00	 ret	 12			; 0000000cH
?GainPvPoint@CTGuild@@QAEXKEE@Z ENDP			; CTGuild::GainPvPoint
_TEXT	ENDS
PUBLIC	?AtlGetStringResourceImage@ATL@@YAPBUATLSTRINGRESOURCEIMAGE@1@PAUHINSTANCE__@@I@Z ; ATL::AtlGetStringResourceImage
EXTRN	__imp__FindResourceA@12:NEAR
; Function compile flags: /Ogty
; File c:\program files (x86)\microsoft visual studio .net 2003\vc7\atlmfc\include\atlcore.h
;	COMDAT ?AtlGetStringResourceImage@ATL@@YAPBUATLSTRINGRESOURCEIMAGE@1@PAUHINSTANCE__@@I@Z
_TEXT	SEGMENT
_hInstance$ = 8						; size = 4
_id$ = 12						; size = 4
?AtlGetStringResourceImage@ATL@@YAPBUATLSTRINGRESOURCEIMAGE@1@PAUHINSTANCE__@@I@Z PROC NEAR ; ATL::AtlGetStringResourceImage, COMDAT

; 280  : {

  00000	56		 push	 esi

; 281  : 	HRSRC hResource;
; 282  : 
; 283  : 	hResource = ::FindResource( hInstance, MAKEINTRESOURCE( ((id>>4)+1) ), RT_STRING );

  00001	8b 74 24 0c	 mov	 esi, DWORD PTR _id$[esp]
  00005	8b c6		 mov	 eax, esi
  00007	c1 e8 04	 shr	 eax, 4
  0000a	57		 push	 edi
  0000b	8b 7c 24 0c	 mov	 edi, DWORD PTR _hInstance$[esp+4]
  0000f	40		 inc	 eax
  00010	0f b7 c8	 movzx	 ecx, ax
  00013	6a 06		 push	 6
  00015	51		 push	 ecx
  00016	57		 push	 edi
  00017	ff 15 00 00 00
	00		 call	 DWORD PTR __imp__FindResourceA@12

; 284  : 	if( hResource == NULL )

  0001d	85 c0		 test	 eax, eax
  0001f	75 03		 jne	 SHORT $L59431
  00021	5f		 pop	 edi
  00022	5e		 pop	 esi

; 290  : }

  00023	c3		 ret	 0
$L59431:

; 285  : 	{
; 286  : 		return( NULL );
; 287  : 	}
; 288  : 
; 289  : 	return _AtlGetStringResourceImage( hInstance, hResource, id );

  00024	56		 push	 esi
  00025	50		 push	 eax
  00026	57		 push	 edi
  00027	e8 00 00 00 00	 call	 ?_AtlGetStringResourceImage@ATL@@YAPBUATLSTRINGRESOURCEIMAGE@1@PAUHINSTANCE__@@PAUHRSRC__@@I@Z ; ATL::_AtlGetStringResourceImage
  0002c	83 c4 0c	 add	 esp, 12			; 0000000cH
  0002f	5f		 pop	 edi
  00030	5e		 pop	 esi

; 290  : }

  00031	c3		 ret	 0
?AtlGetStringResourceImage@ATL@@YAPBUATLSTRINGRESOURCEIMAGE@1@PAUHINSTANCE__@@I@Z ENDP ; ATL::AtlGetStringResourceImage
_TEXT	ENDS
PUBLIC	?UsePvPoint@CTGuild@@QAEXKE@Z			; CTGuild::UsePvPoint
; Function compile flags: /Ogty
; File c:\users\pierr\desktop\4story - oldschool\sources\tserver\tworldsvr\tguild.cpp
;	COMDAT ?UsePvPoint@CTGuild@@QAEXKE@Z
_TEXT	SEGMENT
_dwPoint$ = 8						; size = 4
_bType$ = 12						; size = 1
?UsePvPoint@CTGuild@@QAEXKE@Z PROC NEAR			; CTGuild::UsePvPoint, COMDAT
; _this$ = ecx

; 583  : 	if(!dwPoint)

  00000	8b 54 24 04	 mov	 edx, DWORD PTR _dwPoint$[esp-4]
  00004	85 d2		 test	 edx, edx
  00006	74 49		 je	 SHORT $L135062
  00008	53		 push	 ebx

; 584  : 		return;
; 585  : 
; 586  : 	if(bType & PVP_TOTAL)

  00009	8a 5c 24 0c	 mov	 bl, BYTE PTR _bType$[esp]
  0000d	f6 c3 01	 test	 bl, 1
  00010	74 10		 je	 SHORT $L135064

; 587  : 		m_dwPvPTotalPoint = m_dwPvPTotalPoint > dwPoint ? m_dwPvPTotalPoint-dwPoint : 0;

  00012	8b 41 50	 mov	 eax, DWORD PTR [ecx+80]
  00015	3b c2		 cmp	 eax, edx
  00017	76 04		 jbe	 SHORT $L140456
  00019	2b c2		 sub	 eax, edx
  0001b	eb 02		 jmp	 SHORT $L140457
$L140456:
  0001d	33 c0		 xor	 eax, eax
$L140457:
  0001f	89 41 50	 mov	 DWORD PTR [ecx+80], eax
$L135064:

; 588  : 
; 589  : 	if(bType & PVP_USEABLE)

  00022	f6 c3 02	 test	 bl, 2
  00025	5b		 pop	 ebx
  00026	74 10		 je	 SHORT $L135065

; 590  : 		m_dwPvPUseablePoint = m_dwPvPUseablePoint > dwPoint ? m_dwPvPUseablePoint-dwPoint : 0;

  00028	8b 41 4c	 mov	 eax, DWORD PTR [ecx+76]
  0002b	3b c2		 cmp	 eax, edx
  0002d	76 04		 jbe	 SHORT $L140458
  0002f	2b c2		 sub	 eax, edx
  00031	eb 02		 jmp	 SHORT $L140459
$L140458:
  00033	33 c0		 xor	 eax, eax
$L140459:
  00035	89 41 4c	 mov	 DWORD PTR [ecx+76], eax
$L135065:

; 591  : 
; 592  : 	_AtlModule.SendDM_GUILDPVPOINT_REQ(
; 593  : 		m_dwID,
; 594  : 		m_dwPvPTotalPoint,
; 595  : 		m_dwPvPUseablePoint,
; 596  : 		m_dwPvPMonthPoint);

  00038	8b 41 54	 mov	 eax, DWORD PTR [ecx+84]
  0003b	8b 51 4c	 mov	 edx, DWORD PTR [ecx+76]
  0003e	50		 push	 eax
  0003f	8b 41 50	 mov	 eax, DWORD PTR [ecx+80]
  00042	8b 09		 mov	 ecx, DWORD PTR [ecx]
  00044	52		 push	 edx
  00045	50		 push	 eax
  00046	51		 push	 ecx
  00047	b9 00 00 00 00	 mov	 ecx, OFFSET FLAT:?_AtlModule@@3VCTWorldSvrModule@@A
  0004c	e8 00 00 00 00	 call	 ?SendDM_GUILDPVPOINT_REQ@CTWorldSvrModule@@QAEXKKKK@Z ; CTWorldSvrModule::SendDM_GUILDPVPOINT_REQ
$L135062:

; 597  : }

  00051	c2 08 00	 ret	 8
?UsePvPoint@CTGuild@@QAEXKE@Z ENDP			; CTGuild::UsePvPoint
_TEXT	ENDS
PUBLIC	?AtlGetStringResourceImage@ATL@@YAPBUATLSTRINGRESOURCEIMAGE@1@PAUHINSTANCE__@@IG@Z ; ATL::AtlGetStringResourceImage
EXTRN	__imp__FindResourceExA@16:NEAR
; Function compile flags: /Ogty
; File c:\program files (x86)\microsoft visual studio .net 2003\vc7\atlmfc\include\atlcore.h
;	COMDAT ?AtlGetStringResourceImage@ATL@@YAPBUATLSTRINGRESOURCEIMAGE@1@PAUHINSTANCE__@@IG@Z
_TEXT	SEGMENT
_hInstance$ = 8						; size = 4
_id$ = 12						; size = 4
_wLanguage$ = 16					; size = 2
?AtlGetStringResourceImage@ATL@@YAPBUATLSTRINGRESOURCEIMAGE@1@PAUHINSTANCE__@@IG@Z PROC NEAR ; ATL::AtlGetStringResourceImage, COMDAT

; 294  : 	HRSRC hResource;
; 295  : 
; 296  : 	hResource = ::FindResourceEx( hInstance, RT_STRING, MAKEINTRESOURCE( ((id>>4)+1) ), wLanguage );

  00000	8b 44 24 0c	 mov	 eax, DWORD PTR _wLanguage$[esp-4]
  00004	56		 push	 esi
  00005	8b 74 24 0c	 mov	 esi, DWORD PTR _id$[esp]
  00009	8b ce		 mov	 ecx, esi
  0000b	57		 push	 edi
  0000c	8b 7c 24 0c	 mov	 edi, DWORD PTR _hInstance$[esp+4]
  00010	c1 e9 04	 shr	 ecx, 4
  00013	41		 inc	 ecx
  00014	50		 push	 eax
  00015	0f b7 d1	 movzx	 edx, cx
  00018	52		 push	 edx
  00019	6a 06		 push	 6
  0001b	57		 push	 edi
  0001c	ff 15 00 00 00
	00		 call	 DWORD PTR __imp__FindResourceExA@16

; 297  : 	if( hResource == NULL )

  00022	85 c0		 test	 eax, eax
  00024	75 03		 jne	 SHORT $L59445
  00026	5f		 pop	 edi
  00027	5e		 pop	 esi

; 303  : }

  00028	c3		 ret	 0
$L59445:

; 298  : 	{
; 299  : 		return( NULL );
; 300  : 	}
; 301  : 
; 302  : 	return _AtlGetStringResourceImage( hInstance, hResource, id );

  00029	56		 push	 esi
  0002a	50		 push	 eax
  0002b	57		 push	 edi
  0002c	e8 00 00 00 00	 call	 ?_AtlGetStringResourceImage@ATL@@YAPBUATLSTRINGRESOURCEIMAGE@1@PAUHINSTANCE__@@PAUHRSRC__@@I@Z ; ATL::_AtlGetStringResourceImage
  00031	83 c4 0c	 add	 esp, 12			; 0000000cH
  00034	5f		 pop	 edi
  00035	5e		 pop	 esi

; 303  : }

  00036	c3		 ret	 0
?AtlGetStringResourceImage@ATL@@YAPBUATLSTRINGRESOURCEIMAGE@1@PAUHINSTANCE__@@IG@Z ENDP ; ATL::AtlGetStringResourceImage
_TEXT	ENDS
PUBLIC	?AtlFindStringResourceInstance@ATL@@YAPAUHINSTANCE__@@IG@Z ; ATL::AtlFindStringResourceInstance
EXTRN	?GetHInstanceAt@CAtlBaseModule@ATL@@QAEPAUHINSTANCE__@@H@Z:NEAR ; ATL::CAtlBaseModule::GetHInstanceAt
EXTRN	?_AtlBaseModule@ATL@@3VCAtlBaseModule@1@A:BYTE	; ATL::_AtlBaseModule
; Function compile flags: /Ogty
;	COMDAT ?AtlFindStringResourceInstance@ATL@@YAPAUHINSTANCE__@@IG@Z
_TEXT	SEGMENT
_nID$ = 8						; size = 4
_wLanguage$ = 12					; size = 2
?AtlFindStringResourceInstance@ATL@@YAPAUHINSTANCE__@@IG@Z PROC NEAR ; ATL::AtlFindStringResourceInstance, COMDAT

; 380  : {

  00000	53		 push	 ebx
  00001	55		 push	 ebp
  00002	56		 push	 esi
  00003	57		 push	 edi

; 381  : 	const ATLSTRINGRESOURCEIMAGE* p = NULL;

  00004	33 ff		 xor	 edi, edi

; 382  : 	HINSTANCE hInst = _AtlBaseModule.GetHInstanceAt(0);

  00006	57		 push	 edi
  00007	b9 00 00 00 00	 mov	 ecx, OFFSET FLAT:?_AtlBaseModule@ATL@@3VCAtlBaseModule@1@A
  0000c	e8 00 00 00 00	 call	 ?GetHInstanceAt@CAtlBaseModule@ATL@@QAEPAUHINSTANCE__@@H@Z ; ATL::CAtlBaseModule::GetHInstanceAt
  00011	8b f0		 mov	 esi, eax

; 383  : 
; 384  : 	for (int i = 1; hInst != NULL && p == NULL; hInst = _AtlBaseModule.GetHInstanceAt(i++))

  00013	85 f6		 test	 esi, esi
  00015	bd 01 00 00 00	 mov	 ebp, 1
  0001a	74 47		 je	 SHORT $L59538
  0001c	8b 5c 24 14	 mov	 ebx, DWORD PTR _nID$[esp+12]
$L59536:
  00020	85 ff		 test	 edi, edi
  00022	75 3f		 jne	 SHORT $L59538

; 385  : 	{
; 386  : 		p = AtlGetStringResourceImage(hInst, nID, wLanguage);

  00024	8b 44 24 18	 mov	 eax, DWORD PTR _wLanguage$[esp+12]
  00028	8b cb		 mov	 ecx, ebx
  0002a	c1 e9 04	 shr	 ecx, 4
  0002d	41		 inc	 ecx
  0002e	50		 push	 eax
  0002f	0f b7 d1	 movzx	 edx, cx
  00032	52		 push	 edx
  00033	6a 06		 push	 6
  00035	56		 push	 esi
  00036	ff 15 00 00 00
	00		 call	 DWORD PTR __imp__FindResourceExA@16
  0003c	85 c0		 test	 eax, eax
  0003e	74 11		 je	 SHORT $L140474
$L140469:
  00040	53		 push	 ebx
  00041	50		 push	 eax
  00042	56		 push	 esi
  00043	e8 00 00 00 00	 call	 ?_AtlGetStringResourceImage@ATL@@YAPBUATLSTRINGRESOURCEIMAGE@1@PAUHINSTANCE__@@PAUHRSRC__@@I@Z ; ATL::_AtlGetStringResourceImage
  00048	8b f8		 mov	 edi, eax
  0004a	83 c4 0c	 add	 esp, 12			; 0000000cH

; 387  : 		if (p != NULL)

  0004d	85 ff		 test	 edi, edi
  0004f	75 19		 jne	 SHORT $L140472
$L140474:

; 383  : 
; 384  : 	for (int i = 1; hInst != NULL && p == NULL; hInst = _AtlBaseModule.GetHInstanceAt(i++))

  00051	55		 push	 ebp
  00052	b9 00 00 00 00	 mov	 ecx, OFFSET FLAT:?_AtlBaseModule@ATL@@3VCAtlBaseModule@1@A
  00057	e8 00 00 00 00	 call	 ?GetHInstanceAt@CAtlBaseModule@ATL@@QAEPAUHINSTANCE__@@H@Z ; ATL::CAtlBaseModule::GetHInstanceAt
  0005c	8b f0		 mov	 esi, eax
  0005e	45		 inc	 ebp
  0005f	85 f6		 test	 esi, esi
  00061	75 bd		 jne	 SHORT $L59536
$L59538:
  00063	5f		 pop	 edi
  00064	5e		 pop	 esi
  00065	5d		 pop	 ebp

; 389  : 	}
; 390  : 
; 391  : 	return NULL;

  00066	33 c0		 xor	 eax, eax
  00068	5b		 pop	 ebx

; 392  : }

  00069	c3		 ret	 0
$L140472:
  0006a	5f		 pop	 edi

; 388  : 			return hInst;

  0006b	8b c6		 mov	 eax, esi
  0006d	5e		 pop	 esi
  0006e	5d		 pop	 ebp
  0006f	5b		 pop	 ebx

; 392  : }

  00070	c3		 ret	 0
?AtlFindStringResourceInstance@ATL@@YAPAUHINSTANCE__@@IG@Z ENDP ; ATL::AtlFindStringResourceInstance
_TEXT	ENDS
PUBLIC	?size@?$vector@UtagTENTRYRECORD@@V?$allocator@UtagTENTRYRECORD@@@std@@@std@@QBEIXZ ; std::vector<tagTENTRYRECORD,std::allocator<tagTENTRYRECORD> >::size
; Function compile flags: /Ogty
; File c:\program files (x86)\microsoft visual studio .net 2003\vc7\include\vector
;	COMDAT ?size@?$vector@UtagTENTRYRECORD@@V?$allocator@UtagTENTRYRECORD@@@std@@@std@@QBEIXZ
_TEXT	SEGMENT
?size@?$vector@UtagTENTRYRECORD@@V?$allocator@UtagTENTRYRECORD@@@std@@@std@@QBEIXZ PROC NEAR ; std::vector<tagTENTRYRECORD,std::allocator<tagTENTRYRECORD> >::size, COMDAT
; _this$ = ecx

; 516  : 		return (_Myfirst == 0 ? 0 : _Mylast - _Myfirst);

  00000	8b 41 04	 mov	 eax, DWORD PTR [ecx+4]
  00003	85 c0		 test	 eax, eax
  00005	75 01		 jne	 SHORT $L140478

; 517  : 		}

  00007	c3		 ret	 0
$L140478:

; 516  : 		return (_Myfirst == 0 ? 0 : _Mylast - _Myfirst);

  00008	8b 49 08	 mov	 ecx, DWORD PTR [ecx+8]
  0000b	2b c8		 sub	 ecx, eax
  0000d	b8 e9 a2 8b 2e	 mov	 eax, 780903145		; 2e8ba2e9H
  00012	f7 e9		 imul	 ecx
  00014	c1 fa 03	 sar	 edx, 3
  00017	8b c2		 mov	 eax, edx
  00019	c1 e8 1f	 shr	 eax, 31			; 0000001fH
  0001c	03 c2		 add	 eax, edx

; 517  : 		}

  0001e	c3		 ret	 0
?size@?$vector@UtagTENTRYRECORD@@V?$allocator@UtagTENTRYRECORD@@@std@@@std@@QBEIXZ ENDP ; std::vector<tagTENTRYRECORD,std::allocator<tagTENTRYRECORD> >::size
_TEXT	ENDS
PUBLIC	?size@?$_Tree@V?$_Tmap_traits@KPAUtagTITEM@@U?$less@K@std@@V?$allocator@U?$pair@$$CBKPAUtagTITEM@@@std@@@3@$0A@@std@@@std@@QBEIXZ ; std::_Tree<std::_Tmap_traits<unsigned long,tagTITEM *,std::less<unsigned long>,std::allocator<std::pair<unsigned long const ,tagTITEM *> >,0> >::size
; Function compile flags: /Ogty
; File c:\program files (x86)\microsoft visual studio .net 2003\vc7\include\xtree
;	COMDAT ?size@?$_Tree@V?$_Tmap_traits@KPAUtagTITEM@@U?$less@K@std@@V?$allocator@U?$pair@$$CBKPAUtagTITEM@@@std@@@3@$0A@@std@@@std@@QBEIXZ
_TEXT	SEGMENT
?size@?$_Tree@V?$_Tmap_traits@KPAUtagTITEM@@U?$less@K@std@@V?$allocator@U?$pair@$$CBKPAUtagTITEM@@@std@@@3@$0A@@std@@@std@@QBEIXZ PROC NEAR ; std::_Tree<std::_Tmap_traits<unsigned long,tagTITEM *,std::less<unsigned long>,std::allocator<std::pair<unsigned long const ,tagTITEM *> >,0> >::size, COMDAT
; _this$ = ecx

; 448  : 		return (_Mysize);

  00000	8b 41 08	 mov	 eax, DWORD PTR [ecx+8]

; 449  : 		}

  00003	c3		 ret	 0
?size@?$_Tree@V?$_Tmap_traits@KPAUtagTITEM@@U?$less@K@std@@V?$allocator@U?$pair@$$CBKPAUtagTITEM@@@std@@@3@$0A@@std@@@std@@QBEIXZ ENDP ; std::_Tree<std::_Tmap_traits<unsigned long,tagTITEM *,std::less<unsigned long>,std::allocator<std::pair<unsigned long const ,tagTITEM *> >,0> >::size
_TEXT	ENDS
PUBLIC	?size@?$_Tree@V?$_Tmap_traits@KPAUtagTGUILDMEMBER@@U?$less@K@std@@V?$allocator@U?$pair@$$CBKPAUtagTGUILDMEMBER@@@std@@@3@$0A@@std@@@std@@QBEIXZ ; std::_Tree<std::_Tmap_traits<unsigned long,tagTGUILDMEMBER *,std::less<unsigned long>,std::allocator<std::pair<unsigned long const ,tagTGUILDMEMBER *> >,0> >::size
; Function compile flags: /Ogty
;	COMDAT ?size@?$_Tree@V?$_Tmap_traits@KPAUtagTGUILDMEMBER@@U?$less@K@std@@V?$allocator@U?$pair@$$CBKPAUtagTGUILDMEMBER@@@std@@@3@$0A@@std@@@std@@QBEIXZ
_TEXT	SEGMENT
?size@?$_Tree@V?$_Tmap_traits@KPAUtagTGUILDMEMBER@@U?$less@K@std@@V?$allocator@U?$pair@$$CBKPAUtagTGUILDMEMBER@@@std@@@3@$0A@@std@@@std@@QBEIXZ PROC NEAR ; std::_Tree<std::_Tmap_traits<unsigned long,tagTGUILDMEMBER *,std::less<unsigned long>,std::allocator<std::pair<unsigned long const ,tagTGUILDMEMBER *> >,0> >::size, COMDAT
; _this$ = ecx

; 448  : 		return (_Mysize);

  00000	8b 41 08	 mov	 eax, DWORD PTR [ecx+8]

; 449  : 		}

  00003	c3		 ret	 0
?size@?$_Tree@V?$_Tmap_traits@KPAUtagTGUILDMEMBER@@U?$less@K@std@@V?$allocator@U?$pair@$$CBKPAUtagTGUILDMEMBER@@@std@@@3@$0A@@std@@@std@@QBEIXZ ENDP ; std::_Tree<std::_Tmap_traits<unsigned long,tagTGUILDMEMBER *,std::less<unsigned long>,std::allocator<std::pair<unsigned long const ,tagTGUILDMEMBER *> >,0> >::size
_TEXT	ENDS
PUBLIC	?size@?$_Tree@V?$_Tmap_traits@KPAUtagTTACTICSMEMBER@@U?$less@K@std@@V?$allocator@U?$pair@$$CBKPAUtagTTACTICSMEMBER@@@std@@@3@$0A@@std@@@std@@QBEIXZ ; std::_Tree<std::_Tmap_traits<unsigned long,tagTTACTICSMEMBER *,std::less<unsigned long>,std::allocator<std::pair<unsigned long const ,tagTTACTICSMEMBER *> >,0> >::size
; Function compile flags: /Ogty
;	COMDAT ?size@?$_Tree@V?$_Tmap_traits@KPAUtagTTACTICSMEMBER@@U?$less@K@std@@V?$allocator@U?$pair@$$CBKPAUtagTTACTICSMEMBER@@@std@@@3@$0A@@std@@@std@@QBEIXZ
_TEXT	SEGMENT
?size@?$_Tree@V?$_Tmap_traits@KPAUtagTTACTICSMEMBER@@U?$less@K@std@@V?$allocator@U?$pair@$$CBKPAUtagTTACTICSMEMBER@@@std@@@3@$0A@@std@@@std@@QBEIXZ PROC NEAR ; std::_Tree<std::_Tmap_traits<unsigned long,tagTTACTICSMEMBER *,std::less<unsigned long>,std::allocator<std::pair<unsigned long const ,tagTTACTICSMEMBER *> >,0> >::size, COMDAT
; _this$ = ecx

; 448  : 		return (_Mysize);

  00000	8b 41 08	 mov	 eax, DWORD PTR [ecx+8]

; 449  : 		}

  00003	c3		 ret	 0
?size@?$_Tree@V?$_Tmap_traits@KPAUtagTTACTICSMEMBER@@U?$less@K@std@@V?$allocator@U?$pair@$$CBKPAUtagTTACTICSMEMBER@@@std@@@3@$0A@@std@@@std@@QBEIXZ ENDP ; std::_Tree<std::_Tmap_traits<unsigned long,tagTTACTICSMEMBER *,std::less<unsigned long>,std::allocator<std::pair<unsigned long const ,tagTTACTICSMEMBER *> >,0> >::size
_TEXT	ENDS
PUBLIC	?size@?$_Tree@V?$_Tmap_traits@KPAUtagTGUILDARTICLE@@U?$less@K@std@@V?$allocator@U?$pair@$$CBKPAUtagTGUILDARTICLE@@@std@@@3@$0A@@std@@@std@@QBEIXZ ; std::_Tree<std::_Tmap_traits<unsigned long,tagTGUILDARTICLE *,std::less<unsigned long>,std::allocator<std::pair<unsigned long const ,tagTGUILDARTICLE *> >,0> >::size
; Function compile flags: /Ogty
;	COMDAT ?size@?$_Tree@V?$_Tmap_traits@KPAUtagTGUILDARTICLE@@U?$less@K@std@@V?$allocator@U?$pair@$$CBKPAUtagTGUILDARTICLE@@@std@@@3@$0A@@std@@@std@@QBEIXZ
_TEXT	SEGMENT
?size@?$_Tree@V?$_Tmap_traits@KPAUtagTGUILDARTICLE@@U?$less@K@std@@V?$allocator@U?$pair@$$CBKPAUtagTGUILDARTICLE@@@std@@@3@$0A@@std@@@std@@QBEIXZ PROC NEAR ; std::_Tree<std::_Tmap_traits<unsigned long,tagTGUILDARTICLE *,std::less<unsigned long>,std::allocator<std::pair<unsigned long const ,tagTGUILDARTICLE *> >,0> >::size, COMDAT
; _this$ = ecx

; 448  : 		return (_Mysize);

  00000	8b 41 08	 mov	 eax, DWORD PTR [ecx+8]

; 449  : 		}

  00003	c3		 ret	 0
?size@?$_Tree@V?$_Tmap_traits@KPAUtagTGUILDARTICLE@@U?$less@K@std@@V?$allocator@U?$pair@$$CBKPAUtagTGUILDARTICLE@@@std@@@3@$0A@@std@@@std@@QBEIXZ ENDP ; std::_Tree<std::_Tmap_traits<unsigned long,tagTGUILDARTICLE *,std::less<unsigned long>,std::allocator<std::pair<unsigned long const ,tagTGUILDARTICLE *> >,0> >::size
_TEXT	ENDS
PUBLIC	?size@?$vector@UtagTGUILDPOINTREWARD@@V?$allocator@UtagTGUILDPOINTREWARD@@@std@@@std@@QBEIXZ ; std::vector<tagTGUILDPOINTREWARD,std::allocator<tagTGUILDPOINTREWARD> >::size
; Function compile flags: /Ogty
; File c:\program files (x86)\microsoft visual studio .net 2003\vc7\include\vector
;	COMDAT ?size@?$vector@UtagTGUILDPOINTREWARD@@V?$allocator@UtagTGUILDPOINTREWARD@@@std@@@std@@QBEIXZ
_TEXT	SEGMENT
?size@?$vector@UtagTGUILDPOINTREWARD@@V?$allocator@UtagTGUILDPOINTREWARD@@@std@@@std@@QBEIXZ PROC NEAR ; std::vector<tagTGUILDPOINTREWARD,std::allocator<tagTGUILDPOINTREWARD> >::size, COMDAT
; _this$ = ecx

; 516  : 		return (_Myfirst == 0 ? 0 : _Mylast - _Myfirst);

  00000	8b 51 04	 mov	 edx, DWORD PTR [ecx+4]
  00003	85 d2		 test	 edx, edx
  00005	75 03		 jne	 SHORT $L140495
  00007	33 c0		 xor	 eax, eax

; 517  : 		}

  00009	c3		 ret	 0
$L140495:

; 516  : 		return (_Myfirst == 0 ? 0 : _Mylast - _Myfirst);

  0000a	8b 41 08	 mov	 eax, DWORD PTR [ecx+8]
  0000d	2b c2		 sub	 eax, edx
  0000f	c1 f8 04	 sar	 eax, 4

; 517  : 		}

  00012	c3		 ret	 0
?size@?$vector@UtagTGUILDPOINTREWARD@@V?$allocator@UtagTGUILDPOINTREWARD@@@std@@@std@@QBEIXZ ENDP ; std::vector<tagTGUILDPOINTREWARD,std::allocator<tagTGUILDPOINTREWARD> >::size
_TEXT	ENDS
PUBLIC	??8const_iterator@?$_Tree@V?$_Tmap_traits@KPAUtagTITEM@@U?$less@K@std@@V?$allocator@U?$pair@$$CBKPAUtagTITEM@@@std@@@3@$0A@@std@@@std@@QBE_NABV012@@Z ; std::_Tree<std::_Tmap_traits<unsigned long,tagTITEM *,std::less<unsigned long>,std::allocator<std::pair<unsigned long const ,tagTITEM *> >,0> >::const_iterator::operator==
; Function compile flags: /Ogty
; File c:\program files (x86)\microsoft visual studio .net 2003\vc7\include\xtree
;	COMDAT ??8const_iterator@?$_Tree@V?$_Tmap_traits@KPAUtagTITEM@@U?$less@K@std@@V?$allocator@U?$pair@$$CBKPAUtagTITEM@@@std@@@3@$0A@@std@@@std@@QBE_NABV012@@Z
_TEXT	SEGMENT
__Right$ = 8						; size = 4
??8const_iterator@?$_Tree@V?$_Tmap_traits@KPAUtagTITEM@@U?$less@K@std@@V?$allocator@U?$pair@$$CBKPAUtagTITEM@@@std@@@3@$0A@@std@@@std@@QBE_NABV012@@Z PROC NEAR ; std::_Tree<std::_Tmap_traits<unsigned long,tagTITEM *,std::less<unsigned long>,std::allocator<std::pair<unsigned long const ,tagTITEM *> >,0> >::const_iterator::operator==, COMDAT
; _this$ = ecx

; 241  : 			return (_Ptr == _Right._Ptr);

  00000	8b 01		 mov	 eax, DWORD PTR [ecx]
  00002	8b 4c 24 04	 mov	 ecx, DWORD PTR __Right$[esp-4]
  00006	2b 01		 sub	 eax, DWORD PTR [ecx]
  00008	f7 d8		 neg	 eax
  0000a	1b c0		 sbb	 eax, eax
  0000c	40		 inc	 eax

; 242  : 			}

  0000d	c2 04 00	 ret	 4
??8const_iterator@?$_Tree@V?$_Tmap_traits@KPAUtagTITEM@@U?$less@K@std@@V?$allocator@U?$pair@$$CBKPAUtagTITEM@@@std@@@3@$0A@@std@@@std@@QBE_NABV012@@Z ENDP ; std::_Tree<std::_Tmap_traits<unsigned long,tagTITEM *,std::less<unsigned long>,std::allocator<std::pair<unsigned long const ,tagTITEM *> >,0> >::const_iterator::operator==
_TEXT	ENDS
PUBLIC	??9const_iterator@?$_Tree@V?$_Tmap_traits@KPAUtagTITEM@@U?$less@K@std@@V?$allocator@U?$pair@$$CBKPAUtagTITEM@@@std@@@3@$0A@@std@@@std@@QBE_NABV012@@Z ; std::_Tree<std::_Tmap_traits<unsigned long,tagTITEM *,std::less<unsigned long>,std::allocator<std::pair<unsigned long const ,tagTITEM *> >,0> >::const_iterator::operator!=
; Function compile flags: /Ogty
;	COMDAT ??9const_iterator@?$_Tree@V?$_Tmap_traits@KPAUtagTITEM@@U?$less@K@std@@V?$allocator@U?$pair@$$CBKPAUtagTITEM@@@std@@@3@$0A@@std@@@std@@QBE_NABV012@@Z
_TEXT	SEGMENT
__Right$ = 8						; size = 4
??9const_iterator@?$_Tree@V?$_Tmap_traits@KPAUtagTITEM@@U?$less@K@std@@V?$allocator@U?$pair@$$CBKPAUtagTITEM@@@std@@@3@$0A@@std@@@std@@QBE_NABV012@@Z PROC NEAR ; std::_Tree<std::_Tmap_traits<unsigned long,tagTITEM *,std::less<unsigned long>,std::allocator<std::pair<unsigned long const ,tagTITEM *> >,0> >::const_iterator::operator!=, COMDAT
; _this$ = ecx

; 246  : 			return (!(*this == _Right));

  00000	8b 01		 mov	 eax, DWORD PTR [ecx]
  00002	8b 54 24 04	 mov	 edx, DWORD PTR __Right$[esp-4]
  00006	56		 push	 esi
  00007	8b 32		 mov	 esi, DWORD PTR [edx]
  00009	33 c9		 xor	 ecx, ecx
  0000b	3b c6		 cmp	 eax, esi
  0000d	0f 95 c1	 setne	 cl
  00010	8a c1		 mov	 al, cl
  00012	5e		 pop	 esi

; 247  : 			}

  00013	c2 04 00	 ret	 4
??9const_iterator@?$_Tree@V?$_Tmap_traits@KPAUtagTITEM@@U?$less@K@std@@V?$allocator@U?$pair@$$CBKPAUtagTITEM@@@std@@@3@$0A@@std@@@std@@QBE_NABV012@@Z ENDP ; std::_Tree<std::_Tmap_traits<unsigned long,tagTITEM *,std::less<unsigned long>,std::allocator<std::pair<unsigned long const ,tagTITEM *> >,0> >::const_iterator::operator!=
_TEXT	ENDS
PUBLIC	??8const_iterator@?$_Tree@V?$_Tmap_traits@KPAUtagTTACTICSMEMBER@@U?$less@K@std@@V?$allocator@U?$pair@$$CBKPAUtagTTACTICSMEMBER@@@std@@@3@$0A@@std@@@std@@QBE_NABV012@@Z ; std::_Tree<std::_Tmap_traits<unsigned long,tagTTACTICSMEMBER *,std::less<unsigned long>,std::allocator<std::pair<unsigned long const ,tagTTACTICSMEMBER *> >,0> >::const_iterator::operator==
; Function compile flags: /Ogty
;	COMDAT ??8const_iterator@?$_Tree@V?$_Tmap_traits@KPAUtagTTACTICSMEMBER@@U?$less@K@std@@V?$allocator@U?$pair@$$CBKPAUtagTTACTICSMEMBER@@@std@@@3@$0A@@std@@@std@@QBE_NABV012@@Z
_TEXT	SEGMENT
__Right$ = 8						; size = 4
??8const_iterator@?$_Tree@V?$_Tmap_traits@KPAUtagTTACTICSMEMBER@@U?$less@K@std@@V?$allocator@U?$pair@$$CBKPAUtagTTACTICSMEMBER@@@std@@@3@$0A@@std@@@std@@QBE_NABV012@@Z PROC NEAR ; std::_Tree<std::_Tmap_traits<unsigned long,tagTTACTICSMEMBER *,std::less<unsigned long>,std::allocator<std::pair<unsigned long const ,tagTTACTICSMEMBER *> >,0> >::const_iterator::operator==, COMDAT
; _this$ = ecx

; 241  : 			return (_Ptr == _Right._Ptr);

  00000	8b 01		 mov	 eax, DWORD PTR [ecx]
  00002	8b 4c 24 04	 mov	 ecx, DWORD PTR __Right$[esp-4]
  00006	2b 01		 sub	 eax, DWORD PTR [ecx]
  00008	f7 d8		 neg	 eax
  0000a	1b c0		 sbb	 eax, eax
  0000c	40		 inc	 eax

; 242  : 			}

  0000d	c2 04 00	 ret	 4
??8const_iterator@?$_Tree@V?$_Tmap_traits@KPAUtagTTACTICSMEMBER@@U?$less@K@std@@V?$allocator@U?$pair@$$CBKPAUtagTTACTICSMEMBER@@@std@@@3@$0A@@std@@@std@@QBE_NABV012@@Z ENDP ; std::_Tree<std::_Tmap_traits<unsigned long,tagTTACTICSMEMBER *,std::less<unsigned long>,std::allocator<std::pair<unsigned long const ,tagTTACTICSMEMBER *> >,0> >::const_iterator::operator==
_TEXT	ENDS
PUBLIC	??9const_iterator@?$_Tree@V?$_Tmap_traits@KPAUtagTTACTICSMEMBER@@U?$less@K@std@@V?$allocator@U?$pair@$$CBKPAUtagTTACTICSMEMBER@@@std@@@3@$0A@@std@@@std@@QBE_NABV012@@Z ; std::_Tree<std::_Tmap_traits<unsigned long,tagTTACTICSMEMBER *,std::less<unsigned long>,std::allocator<std::pair<unsigned long const ,tagTTACTICSMEMBER *> >,0> >::const_iterator::operator!=
; Function compile flags: /Ogty
;	COMDAT ??9const_iterator@?$_Tree@V?$_Tmap_traits@KPAUtagTTACTICSMEMBER@@U?$less@K@std@@V?$allocator@U?$pair@$$CBKPAUtagTTACTICSMEMBER@@@std@@@3@$0A@@std@@@std@@QBE_NABV012@@Z
_TEXT	SEGMENT
__Right$ = 8						; size = 4
??9const_iterator@?$_Tree@V?$_Tmap_traits@KPAUtagTTACTICSMEMBER@@U?$less@K@std@@V?$allocator@U?$pair@$$CBKPAUtagTTACTICSMEMBER@@@std@@@3@$0A@@std@@@std@@QBE_NABV012@@Z PROC NEAR ; std::_Tree<std::_Tmap_traits<unsigned long,tagTTACTICSMEMBER *,std::less<unsigned long>,std::allocator<std::pair<unsigned long const ,tagTTACTICSMEMBER *> >,0> >::const_iterator::operator!=, COMDAT
; _this$ = ecx

; 246  : 			return (!(*this == _Right));

  00000	8b 01		 mov	 eax, DWORD PTR [ecx]
  00002	8b 54 24 04	 mov	 edx, DWORD PTR __Right$[esp-4]
  00006	56		 push	 esi
  00007	8b 32		 mov	 esi, DWORD PTR [edx]
  00009	33 c9		 xor	 ecx, ecx
  0000b	3b c6		 cmp	 eax, esi
  0000d	0f 95 c1	 setne	 cl
  00010	8a c1		 mov	 al, cl
  00012	5e		 pop	 esi

; 247  : 			}

  00013	c2 04 00	 ret	 4
??9const_iterator@?$_Tree@V?$_Tmap_traits@KPAUtagTTACTICSMEMBER@@U?$less@K@std@@V?$allocator@U?$pair@$$CBKPAUtagTTACTICSMEMBER@@@std@@@3@$0A@@std@@@std@@QBE_NABV012@@Z ENDP ; std::_Tree<std::_Tmap_traits<unsigned long,tagTTACTICSMEMBER *,std::less<unsigned long>,std::allocator<std::pair<unsigned long const ,tagTTACTICSMEMBER *> >,0> >::const_iterator::operator!=
_TEXT	ENDS
PUBLIC	??8const_iterator@?$_Tree@V?$_Tmap_traits@KPAUtagTGUILDMEMBER@@U?$less@K@std@@V?$allocator@U?$pair@$$CBKPAUtagTGUILDMEMBER@@@std@@@3@$0A@@std@@@std@@QBE_NABV012@@Z ; std::_Tree<std::_Tmap_traits<unsigned long,tagTGUILDMEMBER *,std::less<unsigned long>,std::allocator<std::pair<unsigned long const ,tagTGUILDMEMBER *> >,0> >::const_iterator::operator==
; Function compile flags: /Ogty
;	COMDAT ??8const_iterator@?$_Tree@V?$_Tmap_traits@KPAUtagTGUILDMEMBER@@U?$less@K@std@@V?$allocator@U?$pair@$$CBKPAUtagTGUILDMEMBER@@@std@@@3@$0A@@std@@@std@@QBE_NABV012@@Z
_TEXT	SEGMENT
__Right$ = 8						; size = 4
??8const_iterator@?$_Tree@V?$_Tmap_traits@KPAUtagTGUILDMEMBER@@U?$less@K@std@@V?$allocator@U?$pair@$$CBKPAUtagTGUILDMEMBER@@@std@@@3@$0A@@std@@@std@@QBE_NABV012@@Z PROC NEAR ; std::_Tree<std::_Tmap_traits<unsigned long,tagTGUILDMEMBER *,std::less<unsigned long>,std::allocator<std::pair<unsigned long const ,tagTGUILDMEMBER *> >,0> >::const_iterator::operator==, COMDAT
; _this$ = ecx

; 241  : 			return (_Ptr == _Right._Ptr);

  00000	8b 01		 mov	 eax, DWORD PTR [ecx]
  00002	8b 4c 24 04	 mov	 ecx, DWORD PTR __Right$[esp-4]
  00006	2b 01		 sub	 eax, DWORD PTR [ecx]
  00008	f7 d8		 neg	 eax
  0000a	1b c0		 sbb	 eax, eax
  0000c	40		 inc	 eax

; 242  : 			}

  0000d	c2 04 00	 ret	 4
??8const_iterator@?$_Tree@V?$_Tmap_traits@KPAUtagTGUILDMEMBER@@U?$less@K@std@@V?$allocator@U?$pair@$$CBKPAUtagTGUILDMEMBER@@@std@@@3@$0A@@std@@@std@@QBE_NABV012@@Z ENDP ; std::_Tree<std::_Tmap_traits<unsigned long,tagTGUILDMEMBER *,std::less<unsigned long>,std::allocator<std::pair<unsigned long const ,tagTGUILDMEMBER *> >,0> >::const_iterator::operator==
_TEXT	ENDS
PUBLIC	??9const_iterator@?$_Tree@V?$_Tmap_traits@KPAUtagTGUILDMEMBER@@U?$less@K@std@@V?$allocator@U?$pair@$$CBKPAUtagTGUILDMEMBER@@@std@@@3@$0A@@std@@@std@@QBE_NABV012@@Z ; std::_Tree<std::_Tmap_traits<unsigned long,tagTGUILDMEMBER *,std::less<unsigned long>,std::allocator<std::pair<unsigned long const ,tagTGUILDMEMBER *> >,0> >::const_iterator::operator!=
; Function compile flags: /Ogty
;	COMDAT ??9const_iterator@?$_Tree@V?$_Tmap_traits@KPAUtagTGUILDMEMBER@@U?$less@K@std@@V?$allocator@U?$pair@$$CBKPAUtagTGUILDMEMBER@@@std@@@3@$0A@@std@@@std@@QBE_NABV012@@Z
_TEXT	SEGMENT
__Right$ = 8						; size = 4
??9const_iterator@?$_Tree@V?$_Tmap_traits@KPAUtagTGUILDMEMBER@@U?$less@K@std@@V?$allocator@U?$pair@$$CBKPAUtagTGUILDMEMBER@@@std@@@3@$0A@@std@@@std@@QBE_NABV012@@Z PROC NEAR ; std::_Tree<std::_Tmap_traits<unsigned long,tagTGUILDMEMBER *,std::less<unsigned long>,std::allocator<std::pair<unsigned long const ,tagTGUILDMEMBER *> >,0> >::const_iterator::operator!=, COMDAT
; _this$ = ecx

; 246  : 			return (!(*this == _Right));

  00000	8b 01		 mov	 eax, DWORD PTR [ecx]
  00002	8b 54 24 04	 mov	 edx, DWORD PTR __Right$[esp-4]
  00006	56		 push	 esi
  00007	8b 32		 mov	 esi, DWORD PTR [edx]
  00009	33 c9		 xor	 ecx, ecx
  0000b	3b c6		 cmp	 eax, esi
  0000d	0f 95 c1	 setne	 cl
  00010	8a c1		 mov	 al, cl
  00012	5e		 pop	 esi

; 247  : 			}

  00013	c2 04 00	 ret	 4
??9const_iterator@?$_Tree@V?$_Tmap_traits@KPAUtagTGUILDMEMBER@@U?$less@K@std@@V?$allocator@U?$pair@$$CBKPAUtagTGUILDMEMBER@@@std@@@3@$0A@@std@@@std@@QBE_NABV012@@Z ENDP ; std::_Tree<std::_Tmap_traits<unsigned long,tagTGUILDMEMBER *,std::less<unsigned long>,std::allocator<std::pair<unsigned long const ,tagTGUILDMEMBER *> >,0> >::const_iterator::operator!=
_TEXT	ENDS
PUBLIC	??0?$pair@$$CBKPAUtagTGUILDARTICLE@@@std@@QAE@ABKABQAUtagTGUILDARTICLE@@@Z ; std::pair<unsigned long const ,tagTGUILDARTICLE *>::pair<unsigned long const ,tagTGUILDARTICLE *>
; Function compile flags: /Ogty
; File c:\program files (x86)\microsoft visual studio .net 2003\vc7\include\utility
;	COMDAT ??0?$pair@$$CBKPAUtagTGUILDARTICLE@@@std@@QAE@ABKABQAUtagTGUILDARTICLE@@@Z
_TEXT	SEGMENT
__Val1$ = 8						; size = 4
__Val2$ = 12						; size = 4
??0?$pair@$$CBKPAUtagTGUILDARTICLE@@@std@@QAE@ABKABQAUtagTGUILDARTICLE@@@Z PROC NEAR ; std::pair<unsigned long const ,tagTGUILDARTICLE *>::pair<unsigned long const ,tagTGUILDARTICLE *>, COMDAT
; _this$ = ecx

; 34   : 		{	// construct from specified values

  00000	8b c1		 mov	 eax, ecx
  00002	8b 4c 24 04	 mov	 ecx, DWORD PTR __Val1$[esp-4]
  00006	8b 11		 mov	 edx, DWORD PTR [ecx]
  00008	8b 4c 24 08	 mov	 ecx, DWORD PTR __Val2$[esp-4]
  0000c	89 10		 mov	 DWORD PTR [eax], edx
  0000e	8b 11		 mov	 edx, DWORD PTR [ecx]
  00010	89 50 04	 mov	 DWORD PTR [eax+4], edx

; 35   : 		}

  00013	c2 08 00	 ret	 8
??0?$pair@$$CBKPAUtagTGUILDARTICLE@@@std@@QAE@ABKABQAUtagTGUILDARTICLE@@@Z ENDP ; std::pair<unsigned long const ,tagTGUILDARTICLE *>::pair<unsigned long const ,tagTGUILDARTICLE *>
_TEXT	ENDS
PUBLIC	??0?$pair@$$CBKPAUtagTITEM@@@std@@QAE@ABKABQAUtagTITEM@@@Z ; std::pair<unsigned long const ,tagTITEM *>::pair<unsigned long const ,tagTITEM *>
; Function compile flags: /Ogty
;	COMDAT ??0?$pair@$$CBKPAUtagTITEM@@@std@@QAE@ABKABQAUtagTITEM@@@Z
_TEXT	SEGMENT
__Val1$ = 8						; size = 4
__Val2$ = 12						; size = 4
??0?$pair@$$CBKPAUtagTITEM@@@std@@QAE@ABKABQAUtagTITEM@@@Z PROC NEAR ; std::pair<unsigned long const ,tagTITEM *>::pair<unsigned long const ,tagTITEM *>, COMDAT
; _this$ = ecx

; 34   : 		{	// construct from specified values

  00000	8b c1		 mov	 eax, ecx
  00002	8b 4c 24 04	 mov	 ecx, DWORD PTR __Val1$[esp-4]
  00006	8b 11		 mov	 edx, DWORD PTR [ecx]
  00008	8b 4c 24 08	 mov	 ecx, DWORD PTR __Val2$[esp-4]
  0000c	89 10		 mov	 DWORD PTR [eax], edx
  0000e	8b 11		 mov	 edx, DWORD PTR [ecx]
  00010	89 50 04	 mov	 DWORD PTR [eax+4], edx

; 35   : 		}

  00013	c2 08 00	 ret	 8
??0?$pair@$$CBKPAUtagTITEM@@@std@@QAE@ABKABQAUtagTITEM@@@Z ENDP ; std::pair<unsigned long const ,tagTITEM *>::pair<unsigned long const ,tagTITEM *>
_TEXT	ENDS
PUBLIC	??0?$pair@$$CBKPAUtagTGUILDMEMBER@@@std@@QAE@ABKABQAUtagTGUILDMEMBER@@@Z ; std::pair<unsigned long const ,tagTGUILDMEMBER *>::pair<unsigned long const ,tagTGUILDMEMBER *>
; Function compile flags: /Ogty
;	COMDAT ??0?$pair@$$CBKPAUtagTGUILDMEMBER@@@std@@QAE@ABKABQAUtagTGUILDMEMBER@@@Z
_TEXT	SEGMENT
__Val1$ = 8						; size = 4
__Val2$ = 12						; size = 4
??0?$pair@$$CBKPAUtagTGUILDMEMBER@@@std@@QAE@ABKABQAUtagTGUILDMEMBER@@@Z PROC NEAR ; std::pair<unsigned long const ,tagTGUILDMEMBER *>::pair<unsigned long const ,tagTGUILDMEMBER *>, COMDAT
; _this$ = ecx

; 34   : 		{	// construct from specified values

  00000	8b c1		 mov	 eax, ecx
  00002	8b 4c 24 04	 mov	 ecx, DWORD PTR __Val1$[esp-4]
  00006	8b 11		 mov	 edx, DWORD PTR [ecx]
  00008	8b 4c 24 08	 mov	 ecx, DWORD PTR __Val2$[esp-4]
  0000c	89 10		 mov	 DWORD PTR [eax], edx
  0000e	8b 11		 mov	 edx, DWORD PTR [ecx]
  00010	89 50 04	 mov	 DWORD PTR [eax+4], edx

; 35   : 		}

  00013	c2 08 00	 ret	 8
??0?$pair@$$CBKPAUtagTGUILDMEMBER@@@std@@QAE@ABKABQAUtagTGUILDMEMBER@@@Z ENDP ; std::pair<unsigned long const ,tagTGUILDMEMBER *>::pair<unsigned long const ,tagTGUILDMEMBER *>
_TEXT	ENDS
PUBLIC	??0?$pair@$$CBKPAUtagTTACTICSMEMBER@@@std@@QAE@ABKABQAUtagTTACTICSMEMBER@@@Z ; std::pair<unsigned long const ,tagTTACTICSMEMBER *>::pair<unsigned long const ,tagTTACTICSMEMBER *>
; Function compile flags: /Ogty
;	COMDAT ??0?$pair@$$CBKPAUtagTTACTICSMEMBER@@@std@@QAE@ABKABQAUtagTTACTICSMEMBER@@@Z
_TEXT	SEGMENT
__Val1$ = 8						; size = 4
__Val2$ = 12						; size = 4
??0?$pair@$$CBKPAUtagTTACTICSMEMBER@@@std@@QAE@ABKABQAUtagTTACTICSMEMBER@@@Z PROC NEAR ; std::pair<unsigned long const ,tagTTACTICSMEMBER *>::pair<unsigned long const ,tagTTACTICSMEMBER *>, COMDAT
; _this$ = ecx

; 34   : 		{	// construct from specified values

  00000	8b c1		 mov	 eax, ecx
  00002	8b 4c 24 04	 mov	 ecx, DWORD PTR __Val1$[esp-4]
  00006	8b 11		 mov	 edx, DWORD PTR [ecx]
  00008	8b 4c 24 08	 mov	 ecx, DWORD PTR __Val2$[esp-4]
  0000c	89 10		 mov	 DWORD PTR [eax], edx
  0000e	8b 11		 mov	 edx, DWORD PTR [ecx]
  00010	89 50 04	 mov	 DWORD PTR [eax+4], edx

; 35   : 		}

  00013	c2 08 00	 ret	 8
??0?$pair@$$CBKPAUtagTTACTICSMEMBER@@@std@@QAE@ABKABQAUtagTTACTICSMEMBER@@@Z ENDP ; std::pair<unsigned long const ,tagTTACTICSMEMBER *>::pair<unsigned long const ,tagTTACTICSMEMBER *>
_TEXT	ENDS
PUBLIC	??8const_iterator@?$_Tree@V?$_Tmap_traits@GGU?$less@G@std@@V?$allocator@U?$pair@$$CBGG@std@@@2@$0A@@std@@@std@@QBE_NABV012@@Z ; std::_Tree<std::_Tmap_traits<unsigned short,unsigned short,std::less<unsigned short>,std::allocator<std::pair<unsigned short const ,unsigned short> >,0> >::const_iterator::operator==
; Function compile flags: /Ogty
; File c:\program files (x86)\microsoft visual studio .net 2003\vc7\include\xtree
;	COMDAT ??8const_iterator@?$_Tree@V?$_Tmap_traits@GGU?$less@G@std@@V?$allocator@U?$pair@$$CBGG@std@@@2@$0A@@std@@@std@@QBE_NABV012@@Z
_TEXT	SEGMENT
__Right$ = 8						; size = 4
??8const_iterator@?$_Tree@V?$_Tmap_traits@GGU?$less@G@std@@V?$allocator@U?$pair@$$CBGG@std@@@2@$0A@@std@@@std@@QBE_NABV012@@Z PROC NEAR ; std::_Tree<std::_Tmap_traits<unsigned short,unsigned short,std::less<unsigned short>,std::allocator<std::pair<unsigned short const ,unsigned short> >,0> >::const_iterator::operator==, COMDAT
; _this$ = ecx

; 241  : 			return (_Ptr == _Right._Ptr);

  00000	8b 01		 mov	 eax, DWORD PTR [ecx]
  00002	8b 4c 24 04	 mov	 ecx, DWORD PTR __Right$[esp-4]
  00006	2b 01		 sub	 eax, DWORD PTR [ecx]
  00008	f7 d8		 neg	 eax
  0000a	1b c0		 sbb	 eax, eax
  0000c	40		 inc	 eax

; 242  : 			}

  0000d	c2 04 00	 ret	 4
??8const_iterator@?$_Tree@V?$_Tmap_traits@GGU?$less@G@std@@V?$allocator@U?$pair@$$CBGG@std@@@2@$0A@@std@@@std@@QBE_NABV012@@Z ENDP ; std::_Tree<std::_Tmap_traits<unsigned short,unsigned short,std::less<unsigned short>,std::allocator<std::pair<unsigned short const ,unsigned short> >,0> >::const_iterator::operator==
_TEXT	ENDS
PUBLIC	??0?$pair@$$CBGG@std@@QAE@ABG0@Z		; std::pair<unsigned short const ,unsigned short>::pair<unsigned short const ,unsigned short>
; Function compile flags: /Ogty
; File c:\program files (x86)\microsoft visual studio .net 2003\vc7\include\utility
;	COMDAT ??0?$pair@$$CBGG@std@@QAE@ABG0@Z
_TEXT	SEGMENT
__Val1$ = 8						; size = 4
__Val2$ = 12						; size = 4
??0?$pair@$$CBGG@std@@QAE@ABG0@Z PROC NEAR		; std::pair<unsigned short const ,unsigned short>::pair<unsigned short const ,unsigned short>, COMDAT
; _this$ = ecx

; 34   : 		{	// construct from specified values

  00000	8b c1		 mov	 eax, ecx
  00002	8b 4c 24 04	 mov	 ecx, DWORD PTR __Val1$[esp-4]
  00006	66 8b 11	 mov	 dx, WORD PTR [ecx]
  00009	8b 4c 24 08	 mov	 ecx, DWORD PTR __Val2$[esp-4]
  0000d	66 89 10	 mov	 WORD PTR [eax], dx
  00010	66 8b 11	 mov	 dx, WORD PTR [ecx]
  00013	66 89 50 02	 mov	 WORD PTR [eax+2], dx

; 35   : 		}

  00017	c2 08 00	 ret	 8
??0?$pair@$$CBGG@std@@QAE@ABG0@Z ENDP			; std::pair<unsigned short const ,unsigned short>::pair<unsigned short const ,unsigned short>
_TEXT	ENDS
PUBLIC	??R?$less@K@std@@QBE_NABK0@Z			; std::less<unsigned long>::operator()
; Function compile flags: /Ogty
; File c:\program files (x86)\microsoft visual studio .net 2003\vc7\include\functional
;	COMDAT ??R?$less@K@std@@QBE_NABK0@Z
_TEXT	SEGMENT
__Left$ = 8						; size = 4
__Right$ = 12						; size = 4
??R?$less@K@std@@QBE_NABK0@Z PROC NEAR			; std::less<unsigned long>::operator(), COMDAT
; _this$ = ecx

; 139  : 		return (_Left < _Right);

  00000	8b 44 24 04	 mov	 eax, DWORD PTR __Left$[esp-4]
  00004	8b 08		 mov	 ecx, DWORD PTR [eax]
  00006	8b 54 24 08	 mov	 edx, DWORD PTR __Right$[esp-4]
  0000a	3b 0a		 cmp	 ecx, DWORD PTR [edx]
  0000c	1b c0		 sbb	 eax, eax
  0000e	f7 d8		 neg	 eax

; 140  : 		}

  00010	c2 08 00	 ret	 8
??R?$less@K@std@@QBE_NABK0@Z ENDP			; std::less<unsigned long>::operator()
_TEXT	ENDS
PUBLIC	??0?$allocator@K@std@@QAE@XZ			; std::allocator<unsigned long>::allocator<unsigned long>
; Function compile flags: /Ogty
; File c:\program files (x86)\microsoft visual studio .net 2003\vc7\include\xmemory
;	COMDAT ??0?$allocator@K@std@@QAE@XZ
_TEXT	SEGMENT
??0?$allocator@K@std@@QAE@XZ PROC NEAR			; std::allocator<unsigned long>::allocator<unsigned long>, COMDAT
; _this$ = ecx

; 111  : 	allocator()

  00000	8b c1		 mov	 eax, ecx

; 112  : 		{	// construct default allocator (do nothing)
; 113  : 		}

  00002	c3		 ret	 0
??0?$allocator@K@std@@QAE@XZ ENDP			; std::allocator<unsigned long>::allocator<unsigned long>
_TEXT	ENDS
PUBLIC	??R?$less@G@std@@QBE_NABG0@Z			; std::less<unsigned short>::operator()
; Function compile flags: /Ogty
; File c:\program files (x86)\microsoft visual studio .net 2003\vc7\include\functional
;	COMDAT ??R?$less@G@std@@QBE_NABG0@Z
_TEXT	SEGMENT
__Left$ = 8						; size = 4
__Right$ = 12						; size = 4
??R?$less@G@std@@QBE_NABG0@Z PROC NEAR			; std::less<unsigned short>::operator(), COMDAT
; _this$ = ecx

; 139  : 		return (_Left < _Right);

  00000	8b 44 24 04	 mov	 eax, DWORD PTR __Left$[esp-4]
  00004	66 8b 08	 mov	 cx, WORD PTR [eax]
  00007	8b 54 24 08	 mov	 edx, DWORD PTR __Right$[esp-4]
  0000b	66 3b 0a	 cmp	 cx, WORD PTR [edx]
  0000e	1b c0		 sbb	 eax, eax
  00010	f7 d8		 neg	 eax

; 140  : 		}

  00012	c2 08 00	 ret	 8
??R?$less@G@std@@QBE_NABG0@Z ENDP			; std::less<unsigned short>::operator()
_TEXT	ENDS
PUBLIC	?_Isnil@?$_Tree@V?$_Tmap_traits@KPAUtagTITEM@@U?$less@K@std@@V?$allocator@U?$pair@$$CBKPAUtagTITEM@@@std@@@3@$0A@@std@@@std@@KAAADPAU_Node@?$_Tree_nod@V?$_Tmap_traits@KPAUtagTITEM@@U?$less@K@std@@V?$allocator@U?$pair@$$CBKPAUtagTITEM@@@std@@@3@$0A@@std@@@2@@Z ; std::_Tree<std::_Tmap_traits<unsigned long,tagTITEM *,std::less<unsigned long>,std::allocator<std::pair<unsigned long const ,tagTITEM *> >,0> >::_Isnil
; Function compile flags: /Ogty
; File c:\program files (x86)\microsoft visual studio .net 2003\vc7\include\xtree
;	COMDAT ?_Isnil@?$_Tree@V?$_Tmap_traits@KPAUtagTITEM@@U?$less@K@std@@V?$allocator@U?$pair@$$CBKPAUtagTITEM@@@std@@@3@$0A@@std@@@std@@KAAADPAU_Node@?$_Tree_nod@V?$_Tmap_traits@KPAUtagTITEM@@U?$less@K@std@@V?$allocator@U?$pair@$$CBKPAUtagTITEM@@@std@@@3@$0A@@std@@@2@@Z
_TEXT	SEGMENT
__Pnode$ = 8						; size = 4
?_Isnil@?$_Tree@V?$_Tmap_traits@KPAUtagTITEM@@U?$less@K@std@@V?$allocator@U?$pair@$$CBKPAUtagTITEM@@@std@@@3@$0A@@std@@@std@@KAAADPAU_Node@?$_Tree_nod@V?$_Tmap_traits@KPAUtagTITEM@@U?$less@K@std@@V?$allocator@U?$pair@$$CBKPAUtagTITEM@@@std@@@3@$0A@@std@@@2@@Z PROC NEAR ; std::_Tree<std::_Tmap_traits<unsigned long,tagTITEM *,std::less<unsigned long>,std::allocator<std::pair<unsigned long const ,tagTITEM *> >,0> >::_Isnil, COMDAT

; 137  : 		return ((_Charref)(*_Pnode)._Isnil);

  00000	8b 44 24 04	 mov	 eax, DWORD PTR __Pnode$[esp-4]
  00004	83 c0 15	 add	 eax, 21			; 00000015H

; 138  : 		}

  00007	c3		 ret	 0
?_Isnil@?$_Tree@V?$_Tmap_traits@KPAUtagTITEM@@U?$less@K@std@@V?$allocator@U?$pair@$$CBKPAUtagTITEM@@@std@@@3@$0A@@std@@@std@@KAAADPAU_Node@?$_Tree_nod@V?$_Tmap_traits@KPAUtagTITEM@@U?$less@K@std@@V?$allocator@U?$pair@$$CBKPAUtagTITEM@@@std@@@3@$0A@@std@@@2@@Z ENDP ; std::_Tree<std::_Tmap_traits<unsigned long,tagTITEM *,std::less<unsigned long>,std::allocator<std::pair<unsigned long const ,tagTITEM *> >,0> >::_Isnil
_TEXT	ENDS
PUBLIC	?_Left@?$_Tree@V?$_Tmap_traits@KPAUtagTITEM@@U?$less@K@std@@V?$allocator@U?$pair@$$CBKPAUtagTITEM@@@std@@@3@$0A@@std@@@std@@KAAAPAU_Node@?$_Tree_nod@V?$_Tmap_traits@KPAUtagTITEM@@U?$less@K@std@@V?$allocator@U?$pair@$$CBKPAUtagTITEM@@@std@@@3@$0A@@std@@@2@PAU342@@Z ; std::_Tree<std::_Tmap_traits<unsigned long,tagTITEM *,std::less<unsigned long>,std::allocator<std::pair<unsigned long const ,tagTITEM *> >,0> >::_Left
; Function compile flags: /Ogty
;	COMDAT ?_Left@?$_Tree@V?$_Tmap_traits@KPAUtagTITEM@@U?$less@K@std@@V?$allocator@U?$pair@$$CBKPAUtagTITEM@@@std@@@3@$0A@@std@@@std@@KAAAPAU_Node@?$_Tree_nod@V?$_Tmap_traits@KPAUtagTITEM@@U?$less@K@std@@V?$allocator@U?$pair@$$CBKPAUtagTITEM@@@std@@@3@$0A@@std@@@2@PAU342@@Z
_TEXT	SEGMENT
__Pnode$ = 8						; size = 4
?_Left@?$_Tree@V?$_Tmap_traits@KPAUtagTITEM@@U?$less@K@std@@V?$allocator@U?$pair@$$CBKPAUtagTITEM@@@std@@@3@$0A@@std@@@std@@KAAAPAU_Node@?$_Tree_nod@V?$_Tmap_traits@KPAUtagTITEM@@U?$less@K@std@@V?$allocator@U?$pair@$$CBKPAUtagTITEM@@@std@@@3@$0A@@std@@@2@PAU342@@Z PROC NEAR ; std::_Tree<std::_Tmap_traits<unsigned long,tagTITEM *,std::less<unsigned long>,std::allocator<std::pair<unsigned long const ,tagTITEM *> >,0> >::_Left, COMDAT

; 147  : 		return ((_Nodepref)(*_Pnode)._Left);

  00000	8b 44 24 04	 mov	 eax, DWORD PTR __Pnode$[esp-4]

; 148  : 		}

  00004	c3		 ret	 0
?_Left@?$_Tree@V?$_Tmap_traits@KPAUtagTITEM@@U?$less@K@std@@V?$allocator@U?$pair@$$CBKPAUtagTITEM@@@std@@@3@$0A@@std@@@std@@KAAAPAU_Node@?$_Tree_nod@V?$_Tmap_traits@KPAUtagTITEM@@U?$less@K@std@@V?$allocator@U?$pair@$$CBKPAUtagTITEM@@@std@@@3@$0A@@std@@@2@PAU342@@Z ENDP ; std::_Tree<std::_Tmap_traits<unsigned long,tagTITEM *,std::less<unsigned long>,std::allocator<std::pair<unsigned long const ,tagTITEM *> >,0> >::_Left
_TEXT	ENDS
PUBLIC	?_Right@?$_Tree@V?$_Tmap_traits@KPAUtagTITEM@@U?$less@K@std@@V?$allocator@U?$pair@$$CBKPAUtagTITEM@@@std@@@3@$0A@@std@@@std@@KAAAPAU_Node@?$_Tree_nod@V?$_Tmap_traits@KPAUtagTITEM@@U?$less@K@std@@V?$allocator@U?$pair@$$CBKPAUtagTITEM@@@std@@@3@$0A@@std@@@2@PAU342@@Z ; std::_Tree<std::_Tmap_traits<unsigned long,tagTITEM *,std::less<unsigned long>,std::allocator<std::pair<unsigned long const ,tagTITEM *> >,0> >::_Right
; Function compile flags: /Ogty
;	COMDAT ?_Right@?$_Tree@V?$_Tmap_traits@KPAUtagTITEM@@U?$less@K@std@@V?$allocator@U?$pair@$$CBKPAUtagTITEM@@@std@@@3@$0A@@std@@@std@@KAAAPAU_Node@?$_Tree_nod@V?$_Tmap_traits@KPAUtagTITEM@@U?$less@K@std@@V?$allocator@U?$pair@$$CBKPAUtagTITEM@@@std@@@3@$0A@@std@@@2@PAU342@@Z
_TEXT	SEGMENT
__Pnode$ = 8						; size = 4
?_Right@?$_Tree@V?$_Tmap_traits@KPAUtagTITEM@@U?$less@K@std@@V?$allocator@U?$pair@$$CBKPAUtagTITEM@@@std@@@3@$0A@@std@@@std@@KAAAPAU_Node@?$_Tree_nod@V?$_Tmap_traits@KPAUtagTITEM@@U?$less@K@std@@V?$allocator@U?$pair@$$CBKPAUtagTITEM@@@std@@@3@$0A@@std@@@2@PAU342@@Z PROC NEAR ; std::_Tree<std::_Tmap_traits<unsigned long,tagTITEM *,std::less<unsigned long>,std::allocator<std::pair<unsigned long const ,tagTITEM *> >,0> >::_Right, COMDAT

; 157  : 		return ((_Nodepref)(*_Pnode)._Right);

  00000	8b 44 24 04	 mov	 eax, DWORD PTR __Pnode$[esp-4]
  00004	83 c0 08	 add	 eax, 8

; 158  : 		}

  00007	c3		 ret	 0
?_Right@?$_Tree@V?$_Tmap_traits@KPAUtagTITEM@@U?$less@K@std@@V?$allocator@U?$pair@$$CBKPAUtagTITEM@@@std@@@3@$0A@@std@@@std@@KAAAPAU_Node@?$_Tree_nod@V?$_Tmap_traits@KPAUtagTITEM@@U?$less@K@std@@V?$allocator@U?$pair@$$CBKPAUtagTITEM@@@std@@@3@$0A@@std@@@2@PAU342@@Z ENDP ; std::_Tree<std::_Tmap_traits<unsigned long,tagTITEM *,std::less<unsigned long>,std::allocator<std::pair<unsigned long const ,tagTITEM *> >,0> >::_Right
_TEXT	ENDS
PUBLIC	?_Lmost@?$_Tree@V?$_Tmap_traits@KPAUtagTITEM@@U?$less@K@std@@V?$allocator@U?$pair@$$CBKPAUtagTITEM@@@std@@@3@$0A@@std@@@std@@IAEAAPAU_Node@?$_Tree_nod@V?$_Tmap_traits@KPAUtagTITEM@@U?$less@K@std@@V?$allocator@U?$pair@$$CBKPAUtagTITEM@@@std@@@3@$0A@@std@@@2@XZ ; std::_Tree<std::_Tmap_traits<unsigned long,tagTITEM *,std::less<unsigned long>,std::allocator<std::pair<unsigned long const ,tagTITEM *> >,0> >::_Lmost
; Function compile flags: /Ogty
;	COMDAT ?_Lmost@?$_Tree@V?$_Tmap_traits@KPAUtagTITEM@@U?$less@K@std@@V?$allocator@U?$pair@$$CBKPAUtagTITEM@@@std@@@3@$0A@@std@@@std@@IAEAAPAU_Node@?$_Tree_nod@V?$_Tmap_traits@KPAUtagTITEM@@U?$less@K@std@@V?$allocator@U?$pair@$$CBKPAUtagTITEM@@@std@@@3@$0A@@std@@@2@XZ
_TEXT	SEGMENT
?_Lmost@?$_Tree@V?$_Tmap_traits@KPAUtagTITEM@@U?$less@K@std@@V?$allocator@U?$pair@$$CBKPAUtagTITEM@@@std@@@3@$0A@@std@@@std@@IAEAAPAU_Node@?$_Tree_nod@V?$_Tmap_traits@KPAUtagTITEM@@U?$less@K@std@@V?$allocator@U?$pair@$$CBKPAUtagTITEM@@@std@@@3@$0A@@std@@@2@XZ PROC NEAR ; std::_Tree<std::_Tmap_traits<unsigned long,tagTITEM *,std::less<unsigned long>,std::allocator<std::pair<unsigned long const ,tagTITEM *> >,0> >::_Lmost, COMDAT
; _this$ = ecx

; 1005 : 		return (_Left(_Myhead));

  00000	8b 41 04	 mov	 eax, DWORD PTR [ecx+4]

; 1006 : 		}

  00003	c3		 ret	 0
?_Lmost@?$_Tree@V?$_Tmap_traits@KPAUtagTITEM@@U?$less@K@std@@V?$allocator@U?$pair@$$CBKPAUtagTITEM@@@std@@@3@$0A@@std@@@std@@IAEAAPAU_Node@?$_Tree_nod@V?$_Tmap_traits@KPAUtagTITEM@@U?$less@K@std@@V?$allocator@U?$pair@$$CBKPAUtagTITEM@@@std@@@3@$0A@@std@@@2@XZ ENDP ; std::_Tree<std::_Tmap_traits<unsigned long,tagTITEM *,std::less<unsigned long>,std::allocator<std::pair<unsigned long const ,tagTITEM *> >,0> >::_Lmost
_TEXT	ENDS
PUBLIC	?_Rmost@?$_Tree@V?$_Tmap_traits@KPAUtagTITEM@@U?$less@K@std@@V?$allocator@U?$pair@$$CBKPAUtagTITEM@@@std@@@3@$0A@@std@@@std@@IAEAAPAU_Node@?$_Tree_nod@V?$_Tmap_traits@KPAUtagTITEM@@U?$less@K@std@@V?$allocator@U?$pair@$$CBKPAUtagTITEM@@@std@@@3@$0A@@std@@@2@XZ ; std::_Tree<std::_Tmap_traits<unsigned long,tagTITEM *,std::less<unsigned long>,std::allocator<std::pair<unsigned long const ,tagTITEM *> >,0> >::_Rmost
; Function compile flags: /Ogty
;	COMDAT ?_Rmost@?$_Tree@V?$_Tmap_traits@KPAUtagTITEM@@U?$less@K@std@@V?$allocator@U?$pair@$$CBKPAUtagTITEM@@@std@@@3@$0A@@std@@@std@@IAEAAPAU_Node@?$_Tree_nod@V?$_Tmap_traits@KPAUtagTITEM@@U?$less@K@std@@V?$allocator@U?$pair@$$CBKPAUtagTITEM@@@std@@@3@$0A@@std@@@2@XZ
_TEXT	SEGMENT
?_Rmost@?$_Tree@V?$_Tmap_traits@KPAUtagTITEM@@U?$less@K@std@@V?$allocator@U?$pair@$$CBKPAUtagTITEM@@@std@@@3@$0A@@std@@@std@@IAEAAPAU_Node@?$_Tree_nod@V?$_Tmap_traits@KPAUtagTITEM@@U?$less@K@std@@V?$allocator@U?$pair@$$CBKPAUtagTITEM@@@std@@@3@$0A@@std@@@2@XZ PROC NEAR ; std::_Tree<std::_Tmap_traits<unsigned long,tagTITEM *,std::less<unsigned long>,std::allocator<std::pair<unsigned long const ,tagTITEM *> >,0> >::_Rmost, COMDAT
; _this$ = ecx

; 1049 : 		return (_Right(_Myhead));

  00000	8b 41 04	 mov	 eax, DWORD PTR [ecx+4]
  00003	83 c0 08	 add	 eax, 8

; 1050 : 		}

  00006	c3		 ret	 0
?_Rmost@?$_Tree@V?$_Tmap_traits@KPAUtagTITEM@@U?$less@K@std@@V?$allocator@U?$pair@$$CBKPAUtagTITEM@@@std@@@3@$0A@@std@@@std@@IAEAAPAU_Node@?$_Tree_nod@V?$_Tmap_traits@KPAUtagTITEM@@U?$less@K@std@@V?$allocator@U?$pair@$$CBKPAUtagTITEM@@@std@@@3@$0A@@std@@@2@XZ ENDP ; std::_Tree<std::_Tmap_traits<unsigned long,tagTITEM *,std::less<unsigned long>,std::allocator<std::pair<unsigned long const ,tagTITEM *> >,0> >::_Rmost
_TEXT	ENDS
PUBLIC	?_Kfn@?$_Tmap_traits@KPAUtagTITEM@@U?$less@K@std@@V?$allocator@U?$pair@$$CBKPAUtagTITEM@@@std@@@3@$0A@@std@@SAABKABU?$pair@$$CBKPAUtagTITEM@@@2@@Z ; std::_Tmap_traits<unsigned long,tagTITEM *,std::less<unsigned long>,std::allocator<std::pair<unsigned long const ,tagTITEM *> >,0>::_Kfn
; Function compile flags: /Ogty
; File c:\program files (x86)\microsoft visual studio .net 2003\vc7\include\map
;	COMDAT ?_Kfn@?$_Tmap_traits@KPAUtagTITEM@@U?$less@K@std@@V?$allocator@U?$pair@$$CBKPAUtagTITEM@@@std@@@3@$0A@@std@@SAABKABU?$pair@$$CBKPAUtagTITEM@@@2@@Z
_TEXT	SEGMENT
__Val$ = 8						; size = 4
?_Kfn@?$_Tmap_traits@KPAUtagTITEM@@U?$less@K@std@@V?$allocator@U?$pair@$$CBKPAUtagTITEM@@@std@@@3@$0A@@std@@SAABKABU?$pair@$$CBKPAUtagTITEM@@@2@@Z PROC NEAR ; std::_Tmap_traits<unsigned long,tagTITEM *,std::less<unsigned long>,std::allocator<std::pair<unsigned long const ,tagTITEM *> >,0>::_Kfn, COMDAT

; 64   : 		return (_Val.first);

  00000	8b 44 24 04	 mov	 eax, DWORD PTR __Val$[esp-4]

; 65   : 		}

  00004	c3		 ret	 0
?_Kfn@?$_Tmap_traits@KPAUtagTITEM@@U?$less@K@std@@V?$allocator@U?$pair@$$CBKPAUtagTITEM@@@std@@@3@$0A@@std@@SAABKABU?$pair@$$CBKPAUtagTITEM@@@2@@Z ENDP ; std::_Tmap_traits<unsigned long,tagTITEM *,std::less<unsigned long>,std::allocator<std::pair<unsigned long const ,tagTITEM *> >,0>::_Kfn
_TEXT	ENDS
PUBLIC	??0?$allocator@U?$pair@$$CBKPAUtagTITEM@@@std@@@std@@QAE@XZ ; std::allocator<std::pair<unsigned long const ,tagTITEM *> >::allocator<std::pair<unsigned long const ,tagTITEM *> >
; Function compile flags: /Ogty
; File c:\program files (x86)\microsoft visual studio .net 2003\vc7\include\xmemory
;	COMDAT ??0?$allocator@U?$pair@$$CBKPAUtagTITEM@@@std@@@std@@QAE@XZ
_TEXT	SEGMENT
??0?$allocator@U?$pair@$$CBKPAUtagTITEM@@@std@@@std@@QAE@XZ PROC NEAR ; std::allocator<std::pair<unsigned long const ,tagTITEM *> >::allocator<std::pair<unsigned long const ,tagTITEM *> >, COMDAT
; _this$ = ecx

; 111  : 	allocator()

  00000	8b c1		 mov	 eax, ecx

; 112  : 		{	// construct default allocator (do nothing)
; 113  : 		}

  00002	c3		 ret	 0
??0?$allocator@U?$pair@$$CBKPAUtagTITEM@@@std@@@std@@QAE@XZ ENDP ; std::allocator<std::pair<unsigned long const ,tagTITEM *> >::allocator<std::pair<unsigned long const ,tagTITEM *> >
_TEXT	ENDS
PUBLIC	?_Isnil@?$_Tree@V?$_Tmap_traits@KPAUtagTGUILDMEMBER@@U?$less@K@std@@V?$allocator@U?$pair@$$CBKPAUtagTGUILDMEMBER@@@std@@@3@$0A@@std@@@std@@KAAADPAU_Node@?$_Tree_nod@V?$_Tmap_traits@KPAUtagTGUILDMEMBER@@U?$less@K@std@@V?$allocator@U?$pair@$$CBKPAUtagTGUILDMEMBER@@@std@@@3@$0A@@std@@@2@@Z ; std::_Tree<std::_Tmap_traits<unsigned long,tagTGUILDMEMBER *,std::less<unsigned long>,std::allocator<std::pair<unsigned long const ,tagTGUILDMEMBER *> >,0> >::_Isnil
; Function compile flags: /Ogty
; File c:\program files (x86)\microsoft visual studio .net 2003\vc7\include\xtree
;	COMDAT ?_Isnil@?$_Tree@V?$_Tmap_traits@KPAUtagTGUILDMEMBER@@U?$less@K@std@@V?$allocator@U?$pair@$$CBKPAUtagTGUILDMEMBER@@@std@@@3@$0A@@std@@@std@@KAAADPAU_Node@?$_Tree_nod@V?$_Tmap_traits@KPAUtagTGUILDMEMBER@@U?$less@K@std@@V?$allocator@U?$pair@$$CBKPAUtagTGUILDMEMBER@@@std@@@3@$0A@@std@@@2@@Z
_TEXT	SEGMENT
__Pnode$ = 8						; size = 4
?_Isnil@?$_Tree@V?$_Tmap_traits@KPAUtagTGUILDMEMBER@@U?$less@K@std@@V?$allocator@U?$pair@$$CBKPAUtagTGUILDMEMBER@@@std@@@3@$0A@@std@@@std@@KAAADPAU_Node@?$_Tree_nod@V?$_Tmap_traits@KPAUtagTGUILDMEMBER@@U?$less@K@std@@V?$allocator@U?$pair@$$CBKPAUtagTGUILDMEMBER@@@std@@@3@$0A@@std@@@2@@Z PROC NEAR ; std::_Tree<std::_Tmap_traits<unsigned long,tagTGUILDMEMBER *,std::less<unsigned long>,std::allocator<std::pair<unsigned long const ,tagTGUILDMEMBER *> >,0> >::_Isnil, COMDAT

; 137  : 		return ((_Charref)(*_Pnode)._Isnil);

  00000	8b 44 24 04	 mov	 eax, DWORD PTR __Pnode$[esp-4]
  00004	83 c0 15	 add	 eax, 21			; 00000015H

; 138  : 		}

  00007	c3		 ret	 0
?_Isnil@?$_Tree@V?$_Tmap_traits@KPAUtagTGUILDMEMBER@@U?$less@K@std@@V?$allocator@U?$pair@$$CBKPAUtagTGUILDMEMBER@@@std@@@3@$0A@@std@@@std@@KAAADPAU_Node@?$_Tree_nod@V?$_Tmap_traits@KPAUtagTGUILDMEMBER@@U?$less@K@std@@V?$allocator@U?$pair@$$CBKPAUtagTGUILDMEMBER@@@std@@@3@$0A@@std@@@2@@Z ENDP ; std::_Tree<std::_Tmap_traits<unsigned long,tagTGUILDMEMBER *,std::less<unsigned long>,std::allocator<std::pair<unsigned long const ,tagTGUILDMEMBER *> >,0> >::_Isnil
_TEXT	ENDS
PUBLIC	?_Left@?$_Tree@V?$_Tmap_traits@KPAUtagTGUILDMEMBER@@U?$less@K@std@@V?$allocator@U?$pair@$$CBKPAUtagTGUILDMEMBER@@@std@@@3@$0A@@std@@@std@@KAAAPAU_Node@?$_Tree_nod@V?$_Tmap_traits@KPAUtagTGUILDMEMBER@@U?$less@K@std@@V?$allocator@U?$pair@$$CBKPAUtagTGUILDMEMBER@@@std@@@3@$0A@@std@@@2@PAU342@@Z ; std::_Tree<std::_Tmap_traits<unsigned long,tagTGUILDMEMBER *,std::less<unsigned long>,std::allocator<std::pair<unsigned long const ,tagTGUILDMEMBER *> >,0> >::_Left
; Function compile flags: /Ogty
;	COMDAT ?_Left@?$_Tree@V?$_Tmap_traits@KPAUtagTGUILDMEMBER@@U?$less@K@std@@V?$allocator@U?$pair@$$CBKPAUtagTGUILDMEMBER@@@std@@@3@$0A@@std@@@std@@KAAAPAU_Node@?$_Tree_nod@V?$_Tmap_traits@KPAUtagTGUILDMEMBER@@U?$less@K@std@@V?$allocator@U?$pair@$$CBKPAUtagTGUILDMEMBER@@@std@@@3@$0A@@std@@@2@PAU342@@Z
_TEXT	SEGMENT
__Pnode$ = 8						; size = 4
?_Left@?$_Tree@V?$_Tmap_traits@KPAUtagTGUILDMEMBER@@U?$less@K@std@@V?$allocator@U?$pair@$$CBKPAUtagTGUILDMEMBER@@@std@@@3@$0A@@std@@@std@@KAAAPAU_Node@?$_Tree_nod@V?$_Tmap_traits@KPAUtagTGUILDMEMBER@@U?$less@K@std@@V?$allocator@U?$pair@$$CBKPAUtagTGUILDMEMBER@@@std@@@3@$0A@@std@@@2@PAU342@@Z PROC NEAR ; std::_Tree<std::_Tmap_traits<unsigned long,tagTGUILDMEMBER *,std::less<unsigned long>,std::allocator<std::pair<unsigned long const ,tagTGUILDMEMBER *> >,0> >::_Left, COMDAT

; 147  : 		return ((_Nodepref)(*_Pnode)._Left);

  00000	8b 44 24 04	 mov	 eax, DWORD PTR __Pnode$[esp-4]

; 148  : 		}

  00004	c3		 ret	 0
?_Left@?$_Tree@V?$_Tmap_traits@KPAUtagTGUILDMEMBER@@U?$less@K@std@@V?$allocator@U?$pair@$$CBKPAUtagTGUILDMEMBER@@@std@@@3@$0A@@std@@@std@@KAAAPAU_Node@?$_Tree_nod@V?$_Tmap_traits@KPAUtagTGUILDMEMBER@@U?$less@K@std@@V?$allocator@U?$pair@$$CBKPAUtagTGUILDMEMBER@@@std@@@3@$0A@@std@@@2@PAU342@@Z ENDP ; std::_Tree<std::_Tmap_traits<unsigned long,tagTGUILDMEMBER *,std::less<unsigned long>,std::allocator<std::pair<unsigned long const ,tagTGUILDMEMBER *> >,0> >::_Left
_TEXT	ENDS
PUBLIC	?_Right@?$_Tree@V?$_Tmap_traits@KPAUtagTGUILDMEMBER@@U?$less@K@std@@V?$allocator@U?$pair@$$CBKPAUtagTGUILDMEMBER@@@std@@@3@$0A@@std@@@std@@KAAAPAU_Node@?$_Tree_nod@V?$_Tmap_traits@KPAUtagTGUILDMEMBER@@U?$less@K@std@@V?$allocator@U?$pair@$$CBKPAUtagTGUILDMEMBER@@@std@@@3@$0A@@std@@@2@PAU342@@Z ; std::_Tree<std::_Tmap_traits<unsigned long,tagTGUILDMEMBER *,std::less<unsigned long>,std::allocator<std::pair<unsigned long const ,tagTGUILDMEMBER *> >,0> >::_Right
; Function compile flags: /Ogty
;	COMDAT ?_Right@?$_Tree@V?$_Tmap_traits@KPAUtagTGUILDMEMBER@@U?$less@K@std@@V?$allocator@U?$pair@$$CBKPAUtagTGUILDMEMBER@@@std@@@3@$0A@@std@@@std@@KAAAPAU_Node@?$_Tree_nod@V?$_Tmap_traits@KPAUtagTGUILDMEMBER@@U?$less@K@std@@V?$allocator@U?$pair@$$CBKPAUtagTGUILDMEMBER@@@std@@@3@$0A@@std@@@2@PAU342@@Z
_TEXT	SEGMENT
__Pnode$ = 8						; size = 4
?_Right@?$_Tree@V?$_Tmap_traits@KPAUtagTGUILDMEMBER@@U?$less@K@std@@V?$allocator@U?$pair@$$CBKPAUtagTGUILDMEMBER@@@std@@@3@$0A@@std@@@std@@KAAAPAU_Node@?$_Tree_nod@V?$_Tmap_traits@KPAUtagTGUILDMEMBER@@U?$less@K@std@@V?$allocator@U?$pair@$$CBKPAUtagTGUILDMEMBER@@@std@@@3@$0A@@std@@@2@PAU342@@Z PROC NEAR ; std::_Tree<std::_Tmap_traits<unsigned long,tagTGUILDMEMBER *,std::less<unsigned long>,std::allocator<std::pair<unsigned long const ,tagTGUILDMEMBER *> >,0> >::_Right, COMDAT

; 157  : 		return ((_Nodepref)(*_Pnode)._Right);

  00000	8b 44 24 04	 mov	 eax, DWORD PTR __Pnode$[esp-4]
  00004	83 c0 08	 add	 eax, 8

; 158  : 		}

  00007	c3		 ret	 0
?_Right@?$_Tree@V?$_Tmap_traits@KPAUtagTGUILDMEMBER@@U?$less@K@std@@V?$allocator@U?$pair@$$CBKPAUtagTGUILDMEMBER@@@std@@@3@$0A@@std@@@std@@KAAAPAU_Node@?$_Tree_nod@V?$_Tmap_traits@KPAUtagTGUILDMEMBER@@U?$less@K@std@@V?$allocator@U?$pair@$$CBKPAUtagTGUILDMEMBER@@@std@@@3@$0A@@std@@@2@PAU342@@Z ENDP ; std::_Tree<std::_Tmap_traits<unsigned long,tagTGUILDMEMBER *,std::less<unsigned long>,std::allocator<std::pair<unsigned long const ,tagTGUILDMEMBER *> >,0> >::_Right
_TEXT	ENDS
PUBLIC	?_Lmost@?$_Tree@V?$_Tmap_traits@KPAUtagTGUILDMEMBER@@U?$less@K@std@@V?$allocator@U?$pair@$$CBKPAUtagTGUILDMEMBER@@@std@@@3@$0A@@std@@@std@@IAEAAPAU_Node@?$_Tree_nod@V?$_Tmap_traits@KPAUtagTGUILDMEMBER@@U?$less@K@std@@V?$allocator@U?$pair@$$CBKPAUtagTGUILDMEMBER@@@std@@@3@$0A@@std@@@2@XZ ; std::_Tree<std::_Tmap_traits<unsigned long,tagTGUILDMEMBER *,std::less<unsigned long>,std::allocator<std::pair<unsigned long const ,tagTGUILDMEMBER *> >,0> >::_Lmost
; Function compile flags: /Ogty
;	COMDAT ?_Lmost@?$_Tree@V?$_Tmap_traits@KPAUtagTGUILDMEMBER@@U?$less@K@std@@V?$allocator@U?$pair@$$CBKPAUtagTGUILDMEMBER@@@std@@@3@$0A@@std@@@std@@IAEAAPAU_Node@?$_Tree_nod@V?$_Tmap_traits@KPAUtagTGUILDMEMBER@@U?$less@K@std@@V?$allocator@U?$pair@$$CBKPAUtagTGUILDMEMBER@@@std@@@3@$0A@@std@@@2@XZ
_TEXT	SEGMENT
?_Lmost@?$_Tree@V?$_Tmap_traits@KPAUtagTGUILDMEMBER@@U?$less@K@std@@V?$allocator@U?$pair@$$CBKPAUtagTGUILDMEMBER@@@std@@@3@$0A@@std@@@std@@IAEAAPAU_Node@?$_Tree_nod@V?$_Tmap_traits@KPAUtagTGUILDMEMBER@@U?$less@K@std@@V?$allocator@U?$pair@$$CBKPAUtagTGUILDMEMBER@@@std@@@3@$0A@@std@@@2@XZ PROC NEAR ; std::_Tree<std::_Tmap_traits<unsigned long,tagTGUILDMEMBER *,std::less<unsigned long>,std::allocator<std::pair<unsigned long const ,tagTGUILDMEMBER *> >,0> >::_Lmost, COMDAT
; _this$ = ecx

; 1005 : 		return (_Left(_Myhead));

  00000	8b 41 04	 mov	 eax, DWORD PTR [ecx+4]

; 1006 : 		}

  00003	c3		 ret	 0
