; Listing generated by Microsoft (R) Optimizing Compiler Version 13.10.3077 

	TITLE	.\TMiniDump.cpp
	.386P
include listing.inc
if @Version gt 510
.model FLAT
else
_TEXT	SEGMENT PARA USE32 PUBLIC 'CODE'
_TEXT	ENDS
_DATA	SEGMENT DWORD USE32 PUBLIC 'DATA'
_DATA	ENDS
CONST	SEGMENT DWORD USE32 PUBLIC 'CONST'
CONST	ENDS
_BSS	SEGMENT DWORD USE32 PUBLIC 'BSS'
_BSS	ENDS
$$SYMBOLS	SEGMENT BYTE USE32 'DEBSYM'
$$SYMBOLS	ENDS
$$TYPES	SEGMENT BYTE USE32 'DEBTYP'
$$TYPES	ENDS
_TLS	SEGMENT DWORD USE32 PUBLIC 'TLS'
_TLS	ENDS
;	COMDAT ??_C@_06BKKDJGNE@tttttt?$AA@
CONST	SEGMENT DWORD USE32 PUBLIC 'CONST'
CONST	ENDS
;	COMDAT ??_C@_0M@IBNEFJCG@DBGHELP?4DLL?$AA@
CONST	SEGMENT DWORD USE32 PUBLIC 'CONST'
CONST	ENDS
;	COMDAT ??_C@_0BC@MNIKNFKD@MiniDumpWriteDump?$AA@
CONST	SEGMENT DWORD USE32 PUBLIC 'CONST'
CONST	ENDS
;	COMDAT ??_C@_0BC@FLKMODKM@?$CFd?9?$CFd?9?$CFd?9?$CFd?9?$CFd?9?$CFd?$AA@
CONST	SEGMENT DWORD USE32 PUBLIC 'CONST'
CONST	ENDS
;	COMDAT ??_C@_04JMFINIFG@?4dmp?$AA@
CONST	SEGMENT DWORD USE32 PUBLIC 'CONST'
CONST	ENDS
;	COMDAT ??_C@_01PKGAHCOL@?$CJ?$AA@
CONST	SEGMENT DWORD USE32 PUBLIC 'CONST'
CONST	ENDS
;	COMDAT ??_C@_01ODHLEDKK@?$CI?$AA@
CONST	SEGMENT DWORD USE32 PUBLIC 'CONST'
CONST	ENDS
;	COMDAT ??_C@_07NBCGADJA@Unknown?$AA@
CONST	SEGMENT DWORD USE32 PUBLIC 'CONST'
CONST	ENDS
;	COMDAT ??_C@_0BH@BEOMGENN@BAD?5EXCEPTION?5POINTERS?$AA@
CONST	SEGMENT DWORD USE32 PUBLIC 'CONST'
CONST	ENDS
;	COMDAT ??_C@_0BL@CMOMFGDN@EXCEPTION_ACCESS_VIOLATION?$AA@
CONST	SEGMENT DWORD USE32 PUBLIC 'CONST'
CONST	ENDS
;	COMDAT ??_C@_0CA@LEJEDDLG@EXCEPTION_DATATYPE_MISALIGNMENT?$AA@
CONST	SEGMENT DWORD USE32 PUBLIC 'CONST'
CONST	ENDS
;	COMDAT ??_C@_0BF@FLLDOCJP@EXCEPTION_BREAKPOINT?$AA@
CONST	SEGMENT DWORD USE32 PUBLIC 'CONST'
CONST	ENDS
;	COMDAT ??_C@_0BG@HPCFEJHG@EXCEPTION_SINGLE_STEP?$AA@
CONST	SEGMENT DWORD USE32 PUBLIC 'CONST'
CONST	ENDS
;	COMDAT ??_C@_0CA@JNIHFDGO@EXCEPTION_ARRAY_BOUNDS_EXCEEDED?$AA@
CONST	SEGMENT DWORD USE32 PUBLIC 'CONST'
CONST	ENDS
;	COMDAT ??_C@_0BP@NMNHALMC@EXCEPTION_FLT_DENORMAL_OPERAND?$AA@
CONST	SEGMENT DWORD USE32 PUBLIC 'CONST'
CONST	ENDS
;	COMDAT ??_C@_0BN@PHPNMCML@EXCEPTION_FLT_DIVIDE_BY_ZERO?$AA@
CONST	SEGMENT DWORD USE32 PUBLIC 'CONST'
CONST	ENDS
;	COMDAT ??_C@_0BN@KLCBBCKL@EXCEPTION_FLT_INEXACT_RESULT?$AA@
CONST	SEGMENT DWORD USE32 PUBLIC 'CONST'
CONST	ENDS
;	COMDAT ??_C@_0CA@JJDIIMDB@EXCEPTION_FLT_INVALID_OPERATION?$AA@
CONST	SEGMENT DWORD USE32 PUBLIC 'CONST'
CONST	ENDS
;	COMDAT ??_C@_0BH@LGFBHAFE@EXCEPTION_FLT_OVERFLOW?$AA@
CONST	SEGMENT DWORD USE32 PUBLIC 'CONST'
CONST	ENDS
;	COMDAT ??_C@_0BK@COBCCPEI@EXCEPTION_FLT_STACK_CHECK?$AA@
CONST	SEGMENT DWORD USE32 PUBLIC 'CONST'
CONST	ENDS
;	COMDAT ??_C@_0BI@CHKFJJC@EXCEPTION_FLT_UNDERFLOW?$AA@
CONST	SEGMENT DWORD USE32 PUBLIC 'CONST'
CONST	ENDS
;	COMDAT ??_C@_0BN@LBLGDPIG@EXCEPTION_INT_DIVIDE_BY_ZERO?$AA@
CONST	SEGMENT DWORD USE32 PUBLIC 'CONST'
CONST	ENDS
;	COMDAT ??_C@_0BH@HNBKDLPO@EXCEPTION_INT_OVERFLOW?$AA@
CONST	SEGMENT DWORD USE32 PUBLIC 'CONST'
CONST	ENDS
;	COMDAT ??_C@_0BL@HJPDFKEO@EXCEPTION_PRIV_INSTRUCTION?$AA@
CONST	SEGMENT DWORD USE32 PUBLIC 'CONST'
CONST	ENDS
;	COMDAT ??_C@_0BI@BNDIILLI@EXCEPTION_IN_PAGE_ERROR?$AA@
CONST	SEGMENT DWORD USE32 PUBLIC 'CONST'
CONST	ENDS
;	COMDAT ??_C@_0BO@DLLOIENN@EXCEPTION_ILLEGAL_INSTRUCTION?$AA@
CONST	SEGMENT DWORD USE32 PUBLIC 'CONST'
CONST	ENDS
;	COMDAT ??_C@_0CD@JGPJMHJA@EXCEPTION_NONCONTINUABLE_EXCEPTI@
CONST	SEGMENT DWORD USE32 PUBLIC 'CONST'
CONST	ENDS
;	COMDAT ??_C@_0BJ@FNEOPPMM@EXCEPTION_STACK_OVERFLOW?$AA@
CONST	SEGMENT DWORD USE32 PUBLIC 'CONST'
CONST	ENDS
;	COMDAT ??_C@_0BO@GJKCLCLP@EXCEPTION_INVALID_DISPOSITION?$AA@
CONST	SEGMENT DWORD USE32 PUBLIC 'CONST'
CONST	ENDS
;	COMDAT ??_C@_0BF@BLPCMAHP@EXCEPTION_GUARD_PAGE?$AA@
CONST	SEGMENT DWORD USE32 PUBLIC 'CONST'
CONST	ENDS
;	COMDAT ??_C@_0BJ@BKJLBIPE@EXCEPTION_INVALID_HANDLE?$AA@
CONST	SEGMENT DWORD USE32 PUBLIC 'CONST'
CONST	ENDS
;	COMDAT ??_C@_0BI@GOIELPIK@Microsoft?5C?$CL?$CL?5Exception?$AA@
CONST	SEGMENT DWORD USE32 PUBLIC 'CONST'
CONST	ENDS
text$yc	SEGMENT PARA USE32 PUBLIC 'CODE'
text$yc	ENDS
CRT$XCA	SEGMENT DWORD USE32 PUBLIC 'DATA'
CRT$XCA	ENDS
CRT$XCU	SEGMENT DWORD USE32 PUBLIC 'DATA'
CRT$XCU	ENDS
CRT$XCL	SEGMENT DWORD USE32 PUBLIC 'DATA'
CRT$XCL	ENDS
CRT$XCC	SEGMENT DWORD USE32 PUBLIC 'DATA'
CRT$XCC	ENDS
CRT$XCZ	SEGMENT DWORD USE32 PUBLIC 'DATA'
CRT$XCZ	ENDS
text$yd	SEGMENT PARA USE32 PUBLIC 'CODE'
text$yd	ENDS
ATL$__m	SEGMENT DWORD USE32 PUBLIC ''
ATL$__m	ENDS
ATL$__z	SEGMENT DWORD USE32 PUBLIC ''
ATL$__z	ENDS
ATL$__a	SEGMENT DWORD USE32 PUBLIC ''
ATL$__a	ENDS
xdata$x	SEGMENT DWORD USE32 PUBLIC 'CONST'
xdata$x	ENDS
;	COMDAT _$E5
text$yc	SEGMENT PARA USE32 PUBLIC 'CODE'
text$yc	ENDS
;	COMDAT _$E6
text$yd	SEGMENT PARA USE32 PUBLIC 'CODE'
text$yd	ENDS
;	COMDAT _$E8
text$yc	SEGMENT PARA USE32 PUBLIC 'CODE'
text$yc	ENDS
;	COMDAT _$E9
text$yd	SEGMENT PARA USE32 PUBLIC 'CODE'
text$yd	ENDS
;	COMDAT _$E11
text$yc	SEGMENT PARA USE32 PUBLIC 'CODE'
text$yc	ENDS
;	COMDAT _$E12
text$yd	SEGMENT PARA USE32 PUBLIC 'CODE'
text$yd	ENDS
;	COMDAT ??0CTMiniDump@@QAE@XZ
_TEXT	SEGMENT PARA USE32 PUBLIC 'CODE'
_TEXT	ENDS
;	COMDAT ??1CTMiniDump@@QAE@XZ
_TEXT	SEGMENT PARA USE32 PUBLIC 'CODE'
_TEXT	ENDS
;	COMDAT ?TopLevelExceptionFilter@CTMiniDump@@SGJPAU_EXCEPTION_POINTERS@@@Z
_TEXT	SEGMENT PARA USE32 PUBLIC 'CODE'
_TEXT	ENDS
;	COMDAT ?SetOption@CTMiniDump@@SAXW4_MINIDUMP_TYPE@@@Z
_TEXT	SEGMENT PARA USE32 PUBLIC 'CODE'
_TEXT	ENDS
;	COMDAT ?SetUserInfo@CTMiniDump@@SAXPBD@Z
_TEXT	SEGMENT PARA USE32 PUBLIC 'CODE'
_TEXT	ENDS
;	COMDAT ?SetHWND@CTMiniDump@@SAXPAUHWND__@@@Z
_TEXT	SEGMENT PARA USE32 PUBLIC 'CODE'
_TEXT	ENDS
;	COMDAT ?GetFaultReason@CTMiniDump@@CAPADPAU_EXCEPTION_POINTERS@@@Z
_TEXT	SEGMENT PARA USE32 PUBLIC 'CODE'
_TEXT	ENDS
;	COMDAT ?SnapMemoryDump@CTMiniDump@@SAXXZ
_TEXT	SEGMENT PARA USE32 PUBLIC 'CODE'
_TEXT	ENDS
;	COMDAT ?CalculateBeginningOfCallInstruction@@YAHAAI@Z
_TEXT	SEGMENT PARA USE32 PUBLIC 'CODE'
_TEXT	ENDS
;	COMDAT ?OnMemoryDump@@YA?AW4BSUMDRET@@XZ
_TEXT	SEGMENT PARA USE32 PUBLIC 'CODE'
_TEXT	ENDS
;	COMDAT ??Y?$CStringT@DV?$StrTraitATL@DV?$ChTraitsCRT@D@ATL@@@ATL@@@ATL@@QAEAAV01@ABV?$CSimpleStringT@D$0A@@1@@Z
_TEXT	SEGMENT PARA USE32 PUBLIC 'CODE'
_TEXT	ENDS
;	COMDAT ?ReverseFind@?$CStringT@DV?$StrTraitATL@DV?$ChTraitsCRT@D@ATL@@@ATL@@@ATL@@QBEHD@Z
_TEXT	SEGMENT PARA USE32 PUBLIC 'CODE'
_TEXT	ENDS
;	COMDAT ?Left@?$CStringT@DV?$StrTraitATL@DV?$ChTraitsCRT@D@ATL@@@ATL@@@ATL@@QBE?AV12@H@Z
_TEXT	SEGMENT PARA USE32 PUBLIC 'CODE'
_TEXT	ENDS
;	COMDAT ?Format@?$CStringT@DV?$StrTraitATL@DV?$ChTraitsCRT@D@ATL@@@ATL@@@ATL@@QAAXPBDZZ
_TEXT	SEGMENT PARA USE32 PUBLIC 'CODE'
_TEXT	ENDS
;	COMDAT ??HATL@@YA?AV?$CStringT@DV?$StrTraitATL@DV?$ChTraitsCRT@D@ATL@@@ATL@@@0@ABV10@PBD@Z
_TEXT	SEGMENT PARA USE32 PUBLIC 'CODE'
_TEXT	ENDS
;	COMDAT ??HATL@@YA?AV?$CStringT@DV?$StrTraitATL@DV?$ChTraitsCRT@D@ATL@@@ATL@@@0@PBDABV10@@Z
_TEXT	SEGMENT PARA USE32 PUBLIC 'CODE'
_TEXT	ENDS
;	COMDAT ??1?$vector@GV?$allocator@G@std@@@std@@QAE@XZ
_TEXT	SEGMENT PARA USE32 PUBLIC 'CODE'
_TEXT	ENDS
;	COMDAT ??0?$CStringT@DV?$StrTraitATL@DV?$ChTraitsCRT@D@ATL@@@ATL@@@ATL@@QAE@PAUIAtlStringMgr@1@@Z
_TEXT	SEGMENT PARA USE32 PUBLIC 'CODE'
_TEXT	ENDS
;	COMDAT ??0?$CStringT@DV?$StrTraitATL@DV?$ChTraitsCRT@D@ATL@@@ATL@@@ATL@@QAE@PBDHPAUIAtlStringMgr@1@@Z
_TEXT	SEGMENT PARA USE32 PUBLIC 'CODE'
_TEXT	ENDS
;	COMDAT ?FormatV@?$CStringT@DV?$StrTraitATL@DV?$ChTraitsCRT@D@ATL@@@ATL@@@ATL@@QAEXPBDPAD@Z
_TEXT	SEGMENT PARA USE32 PUBLIC 'CODE'
_TEXT	ENDS
;	COMDAT ??Y?$CSimpleStringT@D$0A@@ATL@@QAEAAV01@ABV01@@Z
_TEXT	SEGMENT PARA USE32 PUBLIC 'CODE'
_TEXT	ENDS
;	COMDAT ?GetManager@?$CSimpleStringT@D$0A@@ATL@@QBEPAUIAtlStringMgr@2@XZ
_TEXT	SEGMENT PARA USE32 PUBLIC 'CODE'
_TEXT	ENDS
;	COMDAT ?Concatenate@?$CSimpleStringT@D$0A@@ATL@@KAXAAV12@PBDH1H@Z
_TEXT	SEGMENT PARA USE32 PUBLIC 'CODE'
_TEXT	ENDS
;	COMDAT ?StringFindCharRev@?$ChTraitsCRT@D@ATL@@SAPBDPBDD@Z
_TEXT	SEGMENT PARA USE32 PUBLIC 'CODE'
_TEXT	ENDS
;	COMDAT ??0?$CSimpleStringT@D$0A@@ATL@@QAE@PBDHPAUIAtlStringMgr@1@@Z
_TEXT	SEGMENT PARA USE32 PUBLIC 'CODE'
_TEXT	ENDS
;	COMDAT ?Append@?$CSimpleStringT@D$0A@@ATL@@QAEXABV12@@Z
_TEXT	SEGMENT PARA USE32 PUBLIC 'CODE'
_TEXT	ENDS
;	COMDAT ?Append@?$CSimpleStringT@D$0A@@ATL@@QAEXPBDH@Z
_TEXT	SEGMENT PARA USE32 PUBLIC 'CODE'
_TEXT	ENDS
;	COMDAT ?Unlock@?$CComCritSecLock@VCComCriticalSection@ATL@@@ATL@@QAEXXZ
_TEXT	SEGMENT PARA USE32 PUBLIC 'CODE'
_TEXT	ENDS
;	COMDAT ??$_Ptr_cat@PAUtagTCASHITMSALE@@PAU1@@std@@YA?AU_Nonscalar_ptr_iterator_tag@0@AAPAUtagTCASHITMSALE@@0@Z
_TEXT	SEGMENT PARA USE32 PUBLIC 'CODE'
_TEXT	ENDS
;	COMDAT ??$_Uninit_fill_n@PAUtagTCASHITMSALE@@IU1@V?$allocator@UtagTCASHITMSALE@@@std@@@std@@YAXPAUtagTCASHITMSALE@@IABU1@AAV?$allocator@UtagTCASHITMSALE@@@0@U_Nonscalar_ptr_iterator_tag@0@@Z
_TEXT	SEGMENT PARA USE32 PUBLIC 'CODE'
_TEXT	ENDS
;	COMDAT ??$_Uninit_fill_n@GIG@std@@YAXPAGIABGAAV?$allocator@G@0@U_Scalar_ptr_iterator_tag@0@@Z
_TEXT	SEGMENT PARA USE32 PUBLIC 'CODE'
_TEXT	ENDS
;	COMDAT ??$_Ptr_cat@PAUtagMONREGEN@@PAU1@@std@@YA?AU_Nonscalar_ptr_iterator_tag@0@AAPAUtagMONREGEN@@0@Z
_TEXT	SEGMENT PARA USE32 PUBLIC 'CODE'
_TEXT	ENDS
;	COMDAT ??$_Uninit_fill_n@PAUtagMONREGEN@@IU1@V?$allocator@UtagMONREGEN@@@std@@@std@@YAXPAUtagMONREGEN@@IABU1@AAV?$allocator@UtagMONREGEN@@@0@U_Nonscalar_ptr_iterator_tag@0@@Z
_TEXT	SEGMENT PARA USE32 PUBLIC 'CODE'
_TEXT	ENDS
;	COMDAT ??$_Ptr_cat@PAUtagLOTTERY@@PAU1@@std@@YA?AU_Nonscalar_ptr_iterator_tag@0@AAPAUtagLOTTERY@@0@Z
_TEXT	SEGMENT PARA USE32 PUBLIC 'CODE'
_TEXT	ENDS
;	COMDAT ??$_Uninit_fill_n@PAUtagLOTTERY@@IU1@V?$allocator@UtagLOTTERY@@@std@@@std@@YAXPAUtagLOTTERY@@IABU1@AAV?$allocator@UtagLOTTERY@@@0@U_Nonscalar_ptr_iterator_tag@0@@Z
_TEXT	SEGMENT PARA USE32 PUBLIC 'CODE'
_TEXT	ENDS
;	COMDAT ??$_Ptr_cat@PAUtagTENTRYRECORD@@PAU1@@std@@YA?AU_Nonscalar_ptr_iterator_tag@0@AAPAUtagTENTRYRECORD@@0@Z
_TEXT	SEGMENT PARA USE32 PUBLIC 'CODE'
_TEXT	ENDS
;	COMDAT ??$_Destroy_range@UtagTENTRYRECORD@@V?$allocator@UtagTENTRYRECORD@@@std@@@std@@YAXPAUtagTENTRYRECORD@@0AAV?$allocator@UtagTENTRYRECORD@@@0@U_Nonscalar_ptr_iterator_tag@0@@Z
_TEXT	SEGMENT PARA USE32 PUBLIC 'CODE'
_TEXT	ENDS
;	COMDAT ??$_Destroy_range@EV?$allocator@E@std@@@std@@YAXPAE0AAV?$allocator@E@0@U_Scalar_ptr_iterator_tag@0@@Z
_TEXT	SEGMENT PARA USE32 PUBLIC 'CODE'
_TEXT	ENDS
;	COMDAT ??$_Destroy_range@UtagTCASHITMSALE@@V?$allocator@UtagTCASHITMSALE@@@std@@@std@@YAXPAUtagTCASHITMSALE@@0AAV?$allocator@UtagTCASHITMSALE@@@0@U_Nonscalar_ptr_iterator_tag@0@@Z
_TEXT	SEGMENT PARA USE32 PUBLIC 'CODE'
_TEXT	ENDS
;	COMDAT ??$_Uninitialized_copy@PAUtagTCASHITMSALE@@PAU1@V?$allocator@UtagTCASHITMSALE@@@std@@@std@@YAPAUtagTCASHITMSALE@@PAU1@00AAV?$allocator@UtagTCASHITMSALE@@@0@@Z
_TEXT	SEGMENT PARA USE32 PUBLIC 'CODE'
_TEXT	ENDS
;	COMDAT ??$_Copy_backward_opt@PAUtagTCASHITMSALE@@PAU1@@std@@YAPAUtagTCASHITMSALE@@PAU1@00U_Nonscalar_ptr_iterator_tag@0@@Z
_TEXT	SEGMENT PARA USE32 PUBLIC 'CODE'
_TEXT	ENDS
;	COMDAT ??$_Destroy_range@GV?$allocator@G@std@@@std@@YAXPAG0AAV?$allocator@G@0@U_Scalar_ptr_iterator_tag@0@@Z
_TEXT	SEGMENT PARA USE32 PUBLIC 'CODE'
_TEXT	ENDS
;	COMDAT ??$_Uninitialized_copy@PAGPAGV?$allocator@G@std@@@std@@YAPAGPAG00AAV?$allocator@G@0@@Z
_TEXT	SEGMENT PARA USE32 PUBLIC 'CODE'
_TEXT	ENDS
;	COMDAT ??$_Copy_backward_opt@PAGPAG@std@@YAPAGPAG00U_Scalar_ptr_iterator_tag@0@@Z
_TEXT	SEGMENT PARA USE32 PUBLIC 'CODE'
_TEXT	ENDS
;	COMDAT ??$_Destroy_range@UtagMONREGEN@@V?$allocator@UtagMONREGEN@@@std@@@std@@YAXPAUtagMONREGEN@@0AAV?$allocator@UtagMONREGEN@@@0@U_Nonscalar_ptr_iterator_tag@0@@Z
_TEXT	SEGMENT PARA USE32 PUBLIC 'CODE'
_TEXT	ENDS
;	COMDAT ??$_Uninitialized_copy@PAUtagMONREGEN@@PAU1@V?$allocator@UtagMONREGEN@@@std@@@std@@YAPAUtagMONREGEN@@PAU1@00AAV?$allocator@UtagMONREGEN@@@0@@Z
_TEXT	SEGMENT PARA USE32 PUBLIC 'CODE'
_TEXT	ENDS
;	COMDAT ??$_Copy_backward_opt@PAUtagMONREGEN@@PAU1@@std@@YAPAUtagMONREGEN@@PAU1@00U_Nonscalar_ptr_iterator_tag@0@@Z
_TEXT	SEGMENT PARA USE32 PUBLIC 'CODE'
_TEXT	ENDS
;	COMDAT ??$_Destroy_range@UtagLOTTERY@@V?$allocator@UtagLOTTERY@@@std@@@std@@YAXPAUtagLOTTERY@@0AAV?$allocator@UtagLOTTERY@@@0@U_Nonscalar_ptr_iterator_tag@0@@Z
_TEXT	SEGMENT PARA USE32 PUBLIC 'CODE'
_TEXT	ENDS
;	COMDAT ??$_Uninitialized_copy@PAUtagLOTTERY@@PAU1@V?$allocator@UtagLOTTERY@@@std@@@std@@YAPAUtagLOTTERY@@PAU1@00AAV?$allocator@UtagLOTTERY@@@0@@Z
_TEXT	SEGMENT PARA USE32 PUBLIC 'CODE'
_TEXT	ENDS
;	COMDAT ??$_Copy_backward_opt@PAUtagLOTTERY@@PAU1@@std@@YAPAUtagLOTTERY@@PAU1@00U_Nonscalar_ptr_iterator_tag@0@@Z
_TEXT	SEGMENT PARA USE32 PUBLIC 'CODE'
_TEXT	ENDS
;	COMDAT ??$_Ptr_cat@PAUtagTNMTREWARD@@PAU1@@std@@YA?AU_Nonscalar_ptr_iterator_tag@0@AAPAUtagTNMTREWARD@@0@Z
_TEXT	SEGMENT PARA USE32 PUBLIC 'CODE'
_TEXT	ENDS
;	COMDAT ??$_Destroy_range@UtagTNMTREWARD@@V?$allocator@UtagTNMTREWARD@@@std@@@std@@YAXPAUtagTNMTREWARD@@0AAV?$allocator@UtagTNMTREWARD@@@0@U_Nonscalar_ptr_iterator_tag@0@@Z
_TEXT	SEGMENT PARA USE32 PUBLIC 'CODE'
_TEXT	ENDS
;	COMDAT ?destroy@?$allocator@UtagTENTRYRECORD@@@std@@QAEXPAUtagTENTRYRECORD@@@Z
_TEXT	SEGMENT PARA USE32 PUBLIC 'CODE'
_TEXT	ENDS
;	COMDAT ?construct@?$allocator@UtagTCASHITMSALE@@@std@@QAEXPAUtagTCASHITMSALE@@ABU3@@Z
_TEXT	SEGMENT PARA USE32 PUBLIC 'CODE'
_TEXT	ENDS
;	COMDAT ?destroy@?$allocator@UtagTCASHITMSALE@@@std@@QAEXPAUtagTCASHITMSALE@@@Z
_TEXT	SEGMENT PARA USE32 PUBLIC 'CODE'
_TEXT	ENDS
;	COMDAT ?construct@?$allocator@UtagMONREGEN@@@std@@QAEXPAUtagMONREGEN@@ABU3@@Z
_TEXT	SEGMENT PARA USE32 PUBLIC 'CODE'
_TEXT	ENDS
;	COMDAT ?destroy@?$allocator@UtagMONREGEN@@@std@@QAEXPAUtagMONREGEN@@@Z
_TEXT	SEGMENT PARA USE32 PUBLIC 'CODE'
_TEXT	ENDS
;	COMDAT ?construct@?$allocator@UtagLOTTERY@@@std@@QAEXPAUtagLOTTERY@@ABU3@@Z
_TEXT	SEGMENT PARA USE32 PUBLIC 'CODE'
_TEXT	ENDS
;	COMDAT ?destroy@?$allocator@UtagLOTTERY@@@std@@QAEXPAUtagLOTTERY@@@Z
_TEXT	SEGMENT PARA USE32 PUBLIC 'CODE'
_TEXT	ENDS
;	COMDAT ?destroy@?$allocator@UtagTNMTREWARD@@@std@@QAEXPAUtagTNMTREWARD@@@Z
_TEXT	SEGMENT PARA USE32 PUBLIC 'CODE'
_TEXT	ENDS
;	COMDAT ??$fill_n@PAGIG@std@@YAXPAGIABG@Z
_TEXT	SEGMENT PARA USE32 PUBLIC 'CODE'
_TEXT	ENDS
;	COMDAT ??$_Uninit_copy@PAUtagTCASHITMSALE@@PAU1@V?$allocator@UtagTCASHITMSALE@@@std@@@std@@YAPAUtagTCASHITMSALE@@PAU1@00AAV?$allocator@UtagTCASHITMSALE@@@0@U_Nonscalar_ptr_iterator_tag@0@@Z
_TEXT	SEGMENT PARA USE32 PUBLIC 'CODE'
_TEXT	ENDS
;	COMDAT ??$_Uninit_copy@GG@std@@YAPAGPAG00AAV?$allocator@G@0@U_Scalar_ptr_iterator_tag@0@@Z
_TEXT	SEGMENT PARA USE32 PUBLIC 'CODE'
_TEXT	ENDS
;	COMDAT ??$_Uninit_copy@PAUtagMONREGEN@@PAU1@V?$allocator@UtagMONREGEN@@@std@@@std@@YAPAUtagMONREGEN@@PAU1@00AAV?$allocator@UtagMONREGEN@@@0@U_Nonscalar_ptr_iterator_tag@0@@Z
_TEXT	SEGMENT PARA USE32 PUBLIC 'CODE'
_TEXT	ENDS
;	COMDAT ??$_Uninit_copy@PAUtagLOTTERY@@PAU1@V?$allocator@UtagLOTTERY@@@std@@@std@@YAPAUtagLOTTERY@@PAU1@00AAV?$allocator@UtagLOTTERY@@@0@U_Nonscalar_ptr_iterator_tag@0@@Z
_TEXT	SEGMENT PARA USE32 PUBLIC 'CODE'
_TEXT	ENDS
;	COMDAT ??$_Destroy@UtagTENTRYRECORD@@@std@@YAXPAUtagTENTRYRECORD@@@Z
_TEXT	SEGMENT PARA USE32 PUBLIC 'CODE'
_TEXT	ENDS
;	COMDAT ??$_Construct@UtagTCASHITMSALE@@U1@@std@@YAXPAUtagTCASHITMSALE@@ABU1@@Z
_TEXT	SEGMENT PARA USE32 PUBLIC 'CODE'
_TEXT	ENDS
;	COMDAT ??$_Destroy@UtagTCASHITMSALE@@@std@@YAXPAUtagTCASHITMSALE@@@Z
_TEXT	SEGMENT PARA USE32 PUBLIC 'CODE'
_TEXT	ENDS
;	COMDAT ??$_Construct@UtagMONREGEN@@U1@@std@@YAXPAUtagMONREGEN@@ABU1@@Z
_TEXT	SEGMENT PARA USE32 PUBLIC 'CODE'
_TEXT	ENDS
;	COMDAT ??$_Destroy@UtagMONREGEN@@@std@@YAXPAUtagMONREGEN@@@Z
_TEXT	SEGMENT PARA USE32 PUBLIC 'CODE'
_TEXT	ENDS
;	COMDAT ??$_Construct@UtagLOTTERY@@U1@@std@@YAXPAUtagLOTTERY@@ABU1@@Z
_TEXT	SEGMENT PARA USE32 PUBLIC 'CODE'
_TEXT	ENDS
;	COMDAT ??$_Destroy@UtagLOTTERY@@@std@@YAXPAUtagLOTTERY@@@Z
_TEXT	SEGMENT PARA USE32 PUBLIC 'CODE'
_TEXT	ENDS
;	COMDAT ??$_Destroy@UtagTNMTREWARD@@@std@@YAXPAUtagTNMTREWARD@@@Z
_TEXT	SEGMENT PARA USE32 PUBLIC 'CODE'
_TEXT	ENDS
;	COMDAT ??2@YAPAXIPAX@Z
_TEXT	SEGMENT PARA USE32 PUBLIC 'CODE'
_TEXT	ENDS
;	COMDAT ?_Ptr_cat@std@@YA?AU_Scalar_ptr_iterator_tag@1@PAG0@Z
_TEXT	SEGMENT PARA USE32 PUBLIC 'CODE'
_TEXT	ENDS
;	COMDAT ?_Psave@?$_Facetptr@V?$ctype@G@std@@@std@@2PBVfacet@locale@2@B
_DATA	SEGMENT DWORD USE32 PUBLIC 'DATA'
_DATA	ENDS
;	COMDAT ?_Psave@?$_Facetptr@V?$ctype@D@std@@@std@@2PBVfacet@locale@2@B
_DATA	SEGMENT DWORD USE32 PUBLIC 'DATA'
_DATA	ENDS
;	COMDAT ?Unlock@CComCriticalSection@ATL@@QAEJXZ
_TEXT	SEGMENT PARA USE32 PUBLIC 'CODE'
_TEXT	ENDS
;	COMDAT ?SetLength@?$CSimpleStringT@D$0A@@ATL@@AAEXH@Z
_TEXT	SEGMENT PARA USE32 PUBLIC 'CODE'
_TEXT	ENDS
;	COMDAT ?Attach@?$CSimpleStringT@D$0A@@ATL@@AAEXPAUCStringData@2@@Z
_TEXT	SEGMENT PARA USE32 PUBLIC 'CODE'
_TEXT	ENDS
;	COMDAT ?data@CStringData@ATL@@QAEPAXXZ
_TEXT	SEGMENT PARA USE32 PUBLIC 'CODE'
_TEXT	ENDS
;	COMDAT ?ThrowMemoryException@?$CSimpleStringT@D$0A@@ATL@@KAXXZ
_TEXT	SEGMENT PARA USE32 PUBLIC 'CODE'
_TEXT	ENDS
;	COMDAT ?CopyChars@?$CSimpleStringT@D$0A@@ATL@@SAXPADPBDH@Z
_TEXT	SEGMENT PARA USE32 PUBLIC 'CODE'
_TEXT	ENDS
;	COMDAT ?GetData@?$CSimpleStringT@D$0A@@ATL@@ABEPAUCStringData@2@XZ
_TEXT	SEGMENT PARA USE32 PUBLIC 'CODE'
_TEXT	ENDS
;	COMDAT ?ReleaseBufferSetLength@?$CSimpleStringT@D$0A@@ATL@@QAEXH@Z
_TEXT	SEGMENT PARA USE32 PUBLIC 'CODE'
_TEXT	ENDS
;	COMDAT ?Format@?$ChTraitsCRT@D@ATL@@SAHPADPBD0@Z
_TEXT	SEGMENT PARA USE32 PUBLIC 'CODE'
_TEXT	ENDS
;	COMDAT ?GetBuffer@?$CSimpleStringT@D$0A@@ATL@@QAEPADH@Z
_TEXT	SEGMENT PARA USE32 PUBLIC 'CODE'
_TEXT	ENDS
;	COMDAT ?PrepareWrite@?$CSimpleStringT@D$0A@@ATL@@AAEPADH@Z
_TEXT	SEGMENT PARA USE32 PUBLIC 'CODE'
_TEXT	ENDS
;	COMDAT ?PrepareWrite2@?$CSimpleStringT@D$0A@@ATL@@AAEXH@Z
_TEXT	SEGMENT PARA USE32 PUBLIC 'CODE'
_TEXT	ENDS
;	COMDAT ?IsShared@CStringData@ATL@@QBE_NXZ
_TEXT	SEGMENT PARA USE32 PUBLIC 'CODE'
_TEXT	ENDS
;	COMDAT ?Fork@?$CSimpleStringT@D$0A@@ATL@@AAEXH@Z
_TEXT	SEGMENT PARA USE32 PUBLIC 'CODE'
_TEXT	ENDS
;	COMDAT ?Release@CStringData@ATL@@QAEXXZ
_TEXT	SEGMENT PARA USE32 PUBLIC 'CODE'
_TEXT	ENDS
;	COMDAT ?Reallocate@?$CSimpleStringT@D$0A@@ATL@@AAEXH@Z
_TEXT	SEGMENT PARA USE32 PUBLIC 'CODE'
_TEXT	ENDS
;	COMDAT ?GetFormattedLength@?$ChTraitsCRT@D@ATL@@SAHPBDPAD@Z
_TEXT	SEGMENT PARA USE32 PUBLIC 'CODE'
_TEXT	ENDS
;	COMDAT ?AtlThrow@ATL@@YGXJ@Z
_TEXT	SEGMENT PARA USE32 PUBLIC 'CODE'
_TEXT	ENDS
;	COMDAT ??0CAtlException@ATL@@QAE@J@Z
_TEXT	SEGMENT PARA USE32 PUBLIC 'CODE'
_TEXT	ENDS
;	COMDAT __TI1?AVCAtlException@ATL@@
xdata$x	SEGMENT DWORD USE32 PUBLIC 'CONST'
xdata$x	ENDS
;	COMDAT __CTA1?AVCAtlException@ATL@@
xdata$x	SEGMENT DWORD USE32 PUBLIC 'CONST'
xdata$x	ENDS
;	COMDAT __CT??_R0?AVCAtlException@ATL@@@84
xdata$x	SEGMENT DWORD USE32 PUBLIC 'CONST'
xdata$x	ENDS
;	COMDAT ??_R0?AVCAtlException@ATL@@@8
_DATA	SEGMENT DWORD USE32 PUBLIC 'DATA'
_DATA	ENDS
;	COMDAT ??1?$CSimpleStringT@D$0A@@ATL@@QAE@XZ
_TEXT	SEGMENT PARA USE32 PUBLIC 'CODE'
_TEXT	ENDS
;	COMDAT ??0?$CSimpleStringT@D$0A@@ATL@@QAE@PAUIAtlStringMgr@1@@Z
_TEXT	SEGMENT PARA USE32 PUBLIC 'CODE'
_TEXT	ENDS
;	COMDAT ?_Tidy@?$vector@GV?$allocator@G@std@@@std@@IAEXXZ
_TEXT	SEGMENT PARA USE32 PUBLIC 'CODE'
_TEXT	ENDS
;	COMDAT ?_Destroy@?$vector@GV?$allocator@G@std@@@std@@IAEXPAG0@Z
_TEXT	SEGMENT PARA USE32 PUBLIC 'CODE'
_TEXT	ENDS
;	COMDAT ??$_Destroy_range@GV?$allocator@G@std@@@std@@YAXPAG0AAV?$allocator@G@0@@Z
_TEXT	SEGMENT PARA USE32 PUBLIC 'CODE'
_TEXT	ENDS
;	COMDAT ?deallocate@?$allocator@G@std@@QAEXPAGI@Z
_TEXT	SEGMENT PARA USE32 PUBLIC 'CODE'
_TEXT	ENDS
;	COMDAT ?StringLength@?$CSimpleStringT@D$0A@@ATL@@SAHPBD@Z
_TEXT	SEGMENT PARA USE32 PUBLIC 'CODE'
_TEXT	ENDS
;	COMDAT ??0?$CStringT@DV?$StrTraitATL@DV?$ChTraitsCRT@D@ATL@@@ATL@@@ATL@@QAE@ABV01@@Z
_TEXT	SEGMENT PARA USE32 PUBLIC 'CODE'
_TEXT	ENDS
;	COMDAT ??0?$CSimpleStringT@D$0A@@ATL@@QAE@ABV01@@Z
_TEXT	SEGMENT PARA USE32 PUBLIC 'CODE'
_TEXT	ENDS
;	COMDAT ?CloneData@?$CSimpleStringT@D$0A@@ATL@@CAPAUCStringData@2@PAU32@@Z
_TEXT	SEGMENT PARA USE32 PUBLIC 'CODE'
_TEXT	ENDS
;	COMDAT ?IsLocked@CStringData@ATL@@QBE_NXZ
_TEXT	SEGMENT PARA USE32 PUBLIC 'CODE'
_TEXT	ENDS
;	COMDAT ?AddRef@CStringData@ATL@@QAEXXZ
_TEXT	SEGMENT PARA USE32 PUBLIC 'CODE'
_TEXT	ENDS
;	COMDAT ?GetString@?$CSimpleStringT@D$0A@@ATL@@QBEPBDXZ
_TEXT	SEGMENT PARA USE32 PUBLIC 'CODE'
_TEXT	ENDS
;	COMDAT ??4?$basic_string@DU?$char_traits@D@std@@V?$allocator@D@2@@std@@QAEAAV01@PBD@Z
_TEXT	SEGMENT PARA USE32 PUBLIC 'CODE'
_TEXT	ENDS
;	COMDAT ?assign@?$basic_string@DU?$char_traits@D@std@@V?$allocator@D@2@@std@@QAEAAV12@PBD@Z
_TEXT	SEGMENT PARA USE32 PUBLIC 'CODE'
_TEXT	ENDS
;	COMDAT ?assign@?$basic_string@DU?$char_traits@D@std@@V?$allocator@D@2@@std@@QAEAAV12@PBDI@Z
_TEXT	SEGMENT PARA USE32 PUBLIC 'CODE'
_TEXT	ENDS
;	COMDAT ?_Inside@?$basic_string@DU?$char_traits@D@std@@V?$allocator@D@2@@std@@IAE_NPBD@Z
_TEXT	SEGMENT PARA USE32 PUBLIC 'CODE'
_TEXT	ENDS
;	COMDAT ?assign@?$basic_string@DU?$char_traits@D@std@@V?$allocator@D@2@@std@@QAEAAV12@ABV12@II@Z
_TEXT	SEGMENT PARA USE32 PUBLIC 'CODE'
_TEXT	ENDS
;	COMDAT ?npos@?$basic_string@DU?$char_traits@D@std@@V?$allocator@D@2@@std@@2IB
CONST	SEGMENT DWORD USE32 PUBLIC 'CONST'
CONST	ENDS
;	COMDAT ?erase@?$basic_string@DU?$char_traits@D@std@@V?$allocator@D@2@@std@@QAEAAV12@II@Z
_TEXT	SEGMENT PARA USE32 PUBLIC 'CODE'
_TEXT	ENDS
;	COMDAT ?move@?$char_traits@D@std@@SAPADPADPBDI@Z
_TEXT	SEGMENT PARA USE32 PUBLIC 'CODE'
_TEXT	ENDS
;	COMDAT ?_Myptr@?$basic_string@DU?$char_traits@D@std@@V?$allocator@D@2@@std@@QBEPBDXZ
_TEXT	SEGMENT PARA USE32 PUBLIC 'CODE'
_TEXT	ENDS
;	COMDAT ?_Grow@?$basic_string@DU?$char_traits@D@std@@V?$allocator@D@2@@std@@IAE_NI_N@Z
_TEXT	SEGMENT PARA USE32 PUBLIC 'CODE'
_TEXT	ENDS
;	COMDAT ?max_size@?$basic_string@DU?$char_traits@D@std@@V?$allocator@D@2@@std@@QBEIXZ
_TEXT	SEGMENT PARA USE32 PUBLIC 'CODE'
_TEXT	ENDS
;	COMDAT ?max_size@?$allocator@D@std@@QBEIXZ
_TEXT	SEGMENT PARA USE32 PUBLIC 'CODE'
_TEXT	ENDS
;	COMDAT ?_Copy@?$basic_string@DU?$char_traits@D@std@@V?$allocator@D@2@@std@@IAEXII@Z
_TEXT	SEGMENT PARA USE32 PUBLIC 'CODE'
_TEXT	ENDS
;	COMDAT ?allocate@?$allocator@D@std@@QAEPADI@Z
_TEXT	SEGMENT PARA USE32 PUBLIC 'CODE'
_TEXT	ENDS
;	COMDAT ??$_Allocate@D@std@@YAPADIPAD@Z
_TEXT	SEGMENT PARA USE32 PUBLIC 'CODE'
_TEXT	ENDS
;	COMDAT ?_Tidy@?$basic_string@DU?$char_traits@D@std@@V?$allocator@D@2@@std@@IAEX_NI@Z
_TEXT	SEGMENT PARA USE32 PUBLIC 'CODE'
_TEXT	ENDS
;	COMDAT ?deallocate@?$allocator@D@std@@QAEXPADI@Z
_TEXT	SEGMENT PARA USE32 PUBLIC 'CODE'
_TEXT	ENDS
;	COMDAT ?copy@?$char_traits@D@std@@SAPADPADPBDI@Z
_TEXT	SEGMENT PARA USE32 PUBLIC 'CODE'
_TEXT	ENDS
;	COMDAT ?_Myptr@?$basic_string@DU?$char_traits@D@std@@V?$allocator@D@2@@std@@QAEPADXZ
_TEXT	SEGMENT PARA USE32 PUBLIC 'CODE'
_TEXT	ENDS
;	COMDAT ?_Eos@?$basic_string@DU?$char_traits@D@std@@V?$allocator@D@2@@std@@IAEXI@Z
_TEXT	SEGMENT PARA USE32 PUBLIC 'CODE'
_TEXT	ENDS
;	COMDAT ?assign@?$char_traits@D@std@@SAXAADABD@Z
_TEXT	SEGMENT PARA USE32 PUBLIC 'CODE'
_TEXT	ENDS
;	COMDAT ?length@?$char_traits@D@std@@SAIPBD@Z
_TEXT	SEGMENT PARA USE32 PUBLIC 'CODE'
_TEXT	ENDS
;	COMDAT ?size@?$basic_string@DU?$char_traits@D@std@@V?$allocator@D@2@@std@@QBEIXZ
_TEXT	SEGMENT PARA USE32 PUBLIC 'CODE'
_TEXT	ENDS
;	COMDAT ?c_str@?$basic_string@DU?$char_traits@D@std@@V?$allocator@D@2@@std@@QBEPBDXZ
_TEXT	SEGMENT PARA USE32 PUBLIC 'CODE'
_TEXT	ENDS
;	COMDAT ?GetLength@?$CSimpleStringT@D$0A@@ATL@@QBEHXZ
_TEXT	SEGMENT PARA USE32 PUBLIC 'CODE'
_TEXT	ENDS
;	COMDAT ??B?$CSimpleStringT@D$0A@@ATL@@QBEPBDXZ
_TEXT	SEGMENT PARA USE32 PUBLIC 'CODE'
_TEXT	ENDS
;	COMDAT ??4?$CStringT@DV?$StrTraitATL@DV?$ChTraitsCRT@D@ATL@@@ATL@@@ATL@@QAEAAV01@ABV01@@Z
_TEXT	SEGMENT PARA USE32 PUBLIC 'CODE'
_TEXT	ENDS
;	COMDAT ??4?$CSimpleStringT@D$0A@@ATL@@QAEAAV01@ABV01@@Z
_TEXT	SEGMENT PARA USE32 PUBLIC 'CODE'
_TEXT	ENDS
;	COMDAT ?SetString@?$CSimpleStringT@D$0A@@ATL@@QAEXPBDH@Z
_TEXT	SEGMENT PARA USE32 PUBLIC 'CODE'
_TEXT	ENDS
;	COMDAT ?Empty@?$CSimpleStringT@D$0A@@ATL@@QAEXXZ
_TEXT	SEGMENT PARA USE32 PUBLIC 'CODE'
_TEXT	ENDS
;	COMDAT ?CopyCharsOverlapped@?$CSimpleStringT@D$0A@@ATL@@SAXPADPBDH@Z
_TEXT	SEGMENT PARA USE32 PUBLIC 'CODE'
_TEXT	ENDS
;	COMDAT ??0?$CStringT@DV?$StrTraitATL@DV?$ChTraitsCRT@D@ATL@@@ATL@@@ATL@@QAE@PBD@Z
_TEXT	SEGMENT PARA USE32 PUBLIC 'CODE'
_TEXT	ENDS
;	COMDAT ?GetDefaultManager@?$StrTraitATL@DV?$ChTraitsCRT@D@ATL@@@ATL@@SAPAUIAtlStringMgr@2@XZ
_TEXT	SEGMENT PARA USE32 PUBLIC 'CODE'
_TEXT	ENDS
;	COMDAT ?CheckImplicitLoad@?$CStringT@DV?$StrTraitATL@DV?$ChTraitsCRT@D@ATL@@@ATL@@@ATL@@AAE_NPBX@Z
_TEXT	SEGMENT PARA USE32 PUBLIC 'CODE'
_TEXT	ENDS
;	COMDAT ?LoadStringA@?$CStringT@DV?$StrTraitATL@DV?$ChTraitsCRT@D@ATL@@@ATL@@@ATL@@QAEHI@Z
_TEXT	SEGMENT PARA USE32 PUBLIC 'CODE'
_TEXT	ENDS
;	COMDAT ?FindStringResourceInstance@?$StrTraitATL@DV?$ChTraitsCRT@D@ATL@@@ATL@@SAPAUHINSTANCE__@@I@Z
_TEXT	SEGMENT PARA USE32 PUBLIC 'CODE'
_TEXT	ENDS
;	COMDAT ?AtlFindStringResourceInstance@ATL@@YAPAUHINSTANCE__@@IG@Z
_TEXT	SEGMENT PARA USE32 PUBLIC 'CODE'
_TEXT	ENDS
;	COMDAT ?AtlGetStringResourceImage@ATL@@YAPBUATLSTRINGRESOURCEIMAGE@1@PAUHINSTANCE__@@IG@Z
_TEXT	SEGMENT PARA USE32 PUBLIC 'CODE'
_TEXT	ENDS
;	COMDAT ?_AtlGetStringResourceImage@ATL@@YAPBUATLSTRINGRESOURCEIMAGE@1@PAUHINSTANCE__@@PAUHRSRC__@@I@Z
_TEXT	SEGMENT PARA USE32 PUBLIC 'CODE'
_TEXT	ENDS
;	COMDAT ?LoadStringA@?$CStringT@DV?$StrTraitATL@DV?$ChTraitsCRT@D@ATL@@@ATL@@@ATL@@QAEHPAUHINSTANCE__@@I@Z
_TEXT	SEGMENT PARA USE32 PUBLIC 'CODE'
_TEXT	ENDS
;	COMDAT ?AtlGetStringResourceImage@ATL@@YAPBUATLSTRINGRESOURCEIMAGE@1@PAUHINSTANCE__@@I@Z
_TEXT	SEGMENT PARA USE32 PUBLIC 'CODE'
_TEXT	ENDS
;	COMDAT ?GetBaseTypeLength@?$ChTraitsCRT@D@ATL@@SAHPBGH@Z
_TEXT	SEGMENT PARA USE32 PUBLIC 'CODE'
_TEXT	ENDS
;	COMDAT ?_AtlGetConversionACP@ATL@@YGIXZ
_TEXT	SEGMENT PARA USE32 PUBLIC 'CODE'
_TEXT	ENDS
;	COMDAT ?g_pfnGetThreadACP@ATL@@3P6GIXZA
_DATA	SEGMENT DWORD USE32 PUBLIC 'DATA'
_DATA	ENDS
;	COMDAT ?_AtlGetThreadACPThunk@ATL@@YGIXZ
_TEXT	SEGMENT PARA USE32 PUBLIC 'CODE'
_TEXT	ENDS
;	COMDAT ?_AtlGetThreadACPReal@ATL@@YGIXZ
_TEXT	SEGMENT PARA USE32 PUBLIC 'CODE'
_TEXT	ENDS
;	COMDAT ?_AtlGetThreadACPFake@ATL@@YGIXZ
_TEXT	SEGMENT PARA USE32 PUBLIC 'CODE'
_TEXT	ENDS
;	COMDAT ?InterlockedExchangePointer@@YGPAXPAPAXPAX@Z
_TEXT	SEGMENT PARA USE32 PUBLIC 'CODE'
_TEXT	ENDS
;	COMDAT ?ConvertToBaseType@?$ChTraitsCRT@D@ATL@@SAXPADHPBGH@Z
_TEXT	SEGMENT PARA USE32 PUBLIC 'CODE'
_TEXT	ENDS
;	COMDAT ??4?$CStringT@DV?$StrTraitATL@DV?$ChTraitsCRT@D@ATL@@@ATL@@@ATL@@QAEAAV01@PBD@Z
_TEXT	SEGMENT PARA USE32 PUBLIC 'CODE'
_TEXT	ENDS
;	COMDAT ??4?$CSimpleStringT@D$0A@@ATL@@QAEAAV01@PBD@Z
_TEXT	SEGMENT PARA USE32 PUBLIC 'CODE'
_TEXT	ENDS
;	COMDAT ?SetString@?$CSimpleStringT@D$0A@@ATL@@QAEXPBD@Z
_TEXT	SEGMENT PARA USE32 PUBLIC 'CODE'
_TEXT	ENDS
;	COMDAT ??1?$CStringT@DV?$StrTraitATL@DV?$ChTraitsCRT@D@ATL@@@ATL@@@ATL@@QAE@XZ
_TEXT	SEGMENT PARA USE32 PUBLIC 'CODE'
_TEXT	ENDS
;	COMDAT ??0?$CStringT@DV?$StrTraitATL@DV?$ChTraitsCRT@D@ATL@@@ATL@@@ATL@@QAE@XZ
_TEXT	SEGMENT PARA USE32 PUBLIC 'CODE'
_TEXT	ENDS
;	COMDAT ??1?$basic_string@DU?$char_traits@D@std@@V?$allocator@D@2@@std@@QAE@XZ
_TEXT	SEGMENT PARA USE32 PUBLIC 'CODE'
_TEXT	ENDS
;	COMDAT ??0?$basic_string@DU?$char_traits@D@std@@V?$allocator@D@2@@std@@QAE@PBD@Z
_TEXT	SEGMENT PARA USE32 PUBLIC 'CODE'
_TEXT	ENDS
;	COMDAT ??0?$_String_val@DV?$allocator@D@std@@@std@@IAE@V?$allocator@D@1@@Z
_TEXT	SEGMENT PARA USE32 PUBLIC 'CODE'
_TEXT	ENDS
;	COMDAT ??0?$allocator@D@std@@QAE@ABV01@@Z
_TEXT	SEGMENT PARA USE32 PUBLIC 'CODE'
_TEXT	ENDS
;	COMDAT ??0?$allocator@D@std@@QAE@XZ
_TEXT	SEGMENT PARA USE32 PUBLIC 'CODE'
_TEXT	ENDS
sxdata	SEGMENT DWORD USE32 'SXDATA'
sxdata	ENDS
FLAT	GROUP _DATA, CONST, _BSS
	ASSUME	CS: FLAT, DS: FLAT, SS: FLAT
endif

INCLUDELIB LIBCMT
INCLUDELIB OLDNAMES

PUBLIC	?g_pfnGetThreadACP@ATL@@3P6GIXZA		; ATL::g_pfnGetThreadACP
PUBLIC	?_AtlGetThreadACPThunk@ATL@@YGIXZ		; ATL::_AtlGetThreadACPThunk
PUBLIC	?g_eDumpType@@3W4_MINIDUMP_TYPE@@A		; g_eDumpType
PUBLIC	?g_hWnd@@3PAUHWND__@@A				; g_hWnd
PUBLIC	?g_bSaveMessage@@3HA				; g_bSaveMessage
_BSS	SEGMENT
?g_eDumpType@@3W4_MINIDUMP_TYPE@@A DD 01H DUP (?)	; g_eDumpType
?g_hWnd@@3PAUHWND__@@A DD 01H DUP (?)			; g_hWnd
?g_bSaveMessage@@3HA DD 01H DUP (?)			; g_bSaveMessage
_BSS	ENDS
;	COMDAT ?g_pfnGetThreadACP@ATL@@3P6GIXZA
_DATA	SEGMENT
?g_pfnGetThreadACP@ATL@@3P6GIXZA DD FLAT:?_AtlGetThreadACPThunk@ATL@@YGIXZ ; ATL::g_pfnGetThreadACP
_DATA	ENDS
PUBLIC	??1CTMiniDump@@QAE@XZ				; CTMiniDump::~CTMiniDump
; Function compile flags: /Ogty
; File c:\users\pierr\desktop\4story - oldschool\sources\tserver\tworldsvr\tminidump.cpp
;	COMDAT ??1CTMiniDump@@QAE@XZ
_TEXT	SEGMENT
??1CTMiniDump@@QAE@XZ PROC NEAR				; CTMiniDump::~CTMiniDump, COMDAT
; _this$ = ecx

; 47   : }

  00000	c3		 ret	 0
??1CTMiniDump@@QAE@XZ ENDP				; CTMiniDump::~CTMiniDump
_TEXT	ENDS
PUBLIC	?SetOption@CTMiniDump@@SAXW4_MINIDUMP_TYPE@@@Z	; CTMiniDump::SetOption
; Function compile flags: /Ogty
;	COMDAT ?SetOption@CTMiniDump@@SAXW4_MINIDUMP_TYPE@@@Z
_TEXT	SEGMENT
_nDumpType$ = 8						; size = 4
?SetOption@CTMiniDump@@SAXW4_MINIDUMP_TYPE@@@Z PROC NEAR ; CTMiniDump::SetOption, COMDAT

; 136  : 	g_eDumpType = nDumpType;

  00000	8b 44 24 04	 mov	 eax, DWORD PTR _nDumpType$[esp-4]
  00004	a3 00 00 00 00	 mov	 DWORD PTR ?g_eDumpType@@3W4_MINIDUMP_TYPE@@A, eax ; g_eDumpType

; 137  : }

  00009	c3		 ret	 0
?SetOption@CTMiniDump@@SAXW4_MINIDUMP_TYPE@@@Z ENDP	; CTMiniDump::SetOption
_TEXT	ENDS
PUBLIC	?SetHWND@CTMiniDump@@SAXPAUHWND__@@@Z		; CTMiniDump::SetHWND
; Function compile flags: /Ogty
;	COMDAT ?SetHWND@CTMiniDump@@SAXPAUHWND__@@@Z
_TEXT	SEGMENT
_hWnd$ = 8						; size = 4
?SetHWND@CTMiniDump@@SAXPAUHWND__@@@Z PROC NEAR		; CTMiniDump::SetHWND, COMDAT

; 144  : 	g_hWnd = hWnd;

  00000	8b 44 24 04	 mov	 eax, DWORD PTR _hWnd$[esp-4]
  00004	a3 00 00 00 00	 mov	 DWORD PTR ?g_hWnd@@3PAUHWND__@@A, eax ; g_hWnd

; 145  : }

  00009	c3		 ret	 0
?SetHWND@CTMiniDump@@SAXPAUHWND__@@@Z ENDP		; CTMiniDump::SetHWND
_TEXT	ENDS
PUBLIC	?GetFaultReason@CTMiniDump@@CAPADPAU_EXCEPTION_POINTERS@@@Z ; CTMiniDump::GetFaultReason
PUBLIC	??_C@_07NBCGADJA@Unknown?$AA@			; `string'
PUBLIC	??_C@_0BH@BEOMGENN@BAD?5EXCEPTION?5POINTERS?$AA@ ; `string'
PUBLIC	??_C@_0BL@CMOMFGDN@EXCEPTION_ACCESS_VIOLATION?$AA@ ; `string'
PUBLIC	??_C@_0CA@LEJEDDLG@EXCEPTION_DATATYPE_MISALIGNMENT?$AA@ ; `string'
PUBLIC	??_C@_0BF@FLLDOCJP@EXCEPTION_BREAKPOINT?$AA@	; `string'
PUBLIC	??_C@_0BG@HPCFEJHG@EXCEPTION_SINGLE_STEP?$AA@	; `string'
PUBLIC	??_C@_0CA@JNIHFDGO@EXCEPTION_ARRAY_BOUNDS_EXCEEDED?$AA@ ; `string'
PUBLIC	??_C@_0BP@NMNHALMC@EXCEPTION_FLT_DENORMAL_OPERAND?$AA@ ; `string'
PUBLIC	??_C@_0BN@PHPNMCML@EXCEPTION_FLT_DIVIDE_BY_ZERO?$AA@ ; `string'
PUBLIC	??_C@_0BN@KLCBBCKL@EXCEPTION_FLT_INEXACT_RESULT?$AA@ ; `string'
PUBLIC	??_C@_0CA@JJDIIMDB@EXCEPTION_FLT_INVALID_OPERATION?$AA@ ; `string'
PUBLIC	??_C@_0BH@LGFBHAFE@EXCEPTION_FLT_OVERFLOW?$AA@	; `string'
PUBLIC	??_C@_0BK@COBCCPEI@EXCEPTION_FLT_STACK_CHECK?$AA@ ; `string'
PUBLIC	??_C@_0BI@CHKFJJC@EXCEPTION_FLT_UNDERFLOW?$AA@	; `string'
PUBLIC	??_C@_0BN@LBLGDPIG@EXCEPTION_INT_DIVIDE_BY_ZERO?$AA@ ; `string'
PUBLIC	??_C@_0BH@HNBKDLPO@EXCEPTION_INT_OVERFLOW?$AA@	; `string'
PUBLIC	??_C@_0BL@HJPDFKEO@EXCEPTION_PRIV_INSTRUCTION?$AA@ ; `string'
PUBLIC	??_C@_0BI@BNDIILLI@EXCEPTION_IN_PAGE_ERROR?$AA@	; `string'
PUBLIC	??_C@_0BO@DLLOIENN@EXCEPTION_ILLEGAL_INSTRUCTION?$AA@ ; `string'
PUBLIC	??_C@_0CD@JGPJMHJA@EXCEPTION_NONCONTINUABLE_EXCEPTI@ ; `string'
PUBLIC	??_C@_0BJ@FNEOPPMM@EXCEPTION_STACK_OVERFLOW?$AA@ ; `string'
PUBLIC	??_C@_0BO@GJKCLCLP@EXCEPTION_INVALID_DISPOSITION?$AA@ ; `string'
PUBLIC	??_C@_0BF@BLPCMAHP@EXCEPTION_GUARD_PAGE?$AA@	; `string'
PUBLIC	??_C@_0BJ@BKJLBIPE@EXCEPTION_INVALID_HANDLE?$AA@ ; `string'
PUBLIC	??_C@_0BI@GOIELPIK@Microsoft?5C?$CL?$CL?5Exception?$AA@ ; `string'
EXTRN	__imp__IsBadReadPtr@8:NEAR
;	COMDAT ??_C@_0BH@BEOMGENN@BAD?5EXCEPTION?5POINTERS?$AA@
CONST	SEGMENT
??_C@_0BH@BEOMGENN@BAD?5EXCEPTION?5POINTERS?$AA@ DB 'BAD EXCEPTION POINTE'
	DB	'RS', 00H					; `string'
CONST	ENDS
;	COMDAT ??_C@_0CA@LEJEDDLG@EXCEPTION_DATATYPE_MISALIGNMENT?$AA@
CONST	SEGMENT
??_C@_0CA@LEJEDDLG@EXCEPTION_DATATYPE_MISALIGNMENT?$AA@ DB 'EXCEPTION_DAT'
	DB	'ATYPE_MISALIGNMENT', 00H			; `string'
CONST	ENDS
;	COMDAT ??_C@_0BF@BLPCMAHP@EXCEPTION_GUARD_PAGE?$AA@
CONST	SEGMENT
??_C@_0BF@BLPCMAHP@EXCEPTION_GUARD_PAGE?$AA@ DB 'EXCEPTION_GUARD_PAGE', 00H ; `string'
CONST	ENDS
;	COMDAT ??_C@_0BF@FLLDOCJP@EXCEPTION_BREAKPOINT?$AA@
CONST	SEGMENT
??_C@_0BF@FLLDOCJP@EXCEPTION_BREAKPOINT?$AA@ DB 'EXCEPTION_BREAKPOINT', 00H ; `string'
CONST	ENDS
;	COMDAT ??_C@_0BL@CMOMFGDN@EXCEPTION_ACCESS_VIOLATION?$AA@
CONST	SEGMENT
??_C@_0BL@CMOMFGDN@EXCEPTION_ACCESS_VIOLATION?$AA@ DB 'EXCEPTION_ACCESS_V'
	DB	'IOLATION', 00H				; `string'
CONST	ENDS
;	COMDAT ??_C@_0BG@HPCFEJHG@EXCEPTION_SINGLE_STEP?$AA@
CONST	SEGMENT
??_C@_0BG@HPCFEJHG@EXCEPTION_SINGLE_STEP?$AA@ DB 'EXCEPTION_SINGLE_STEP', 00H ; `string'
CONST	ENDS
;	COMDAT ??_C@_0BI@BNDIILLI@EXCEPTION_IN_PAGE_ERROR?$AA@
CONST	SEGMENT
??_C@_0BI@BNDIILLI@EXCEPTION_IN_PAGE_ERROR?$AA@ DB 'EXCEPTION_IN_PAGE_ERR'
	DB	'OR', 00H					; `string'
CONST	ENDS
;	COMDAT ??_C@_0CA@JNIHFDGO@EXCEPTION_ARRAY_BOUNDS_EXCEEDED?$AA@
CONST	SEGMENT
??_C@_0CA@JNIHFDGO@EXCEPTION_ARRAY_BOUNDS_EXCEEDED?$AA@ DB 'EXCEPTION_ARR'
	DB	'AY_BOUNDS_EXCEEDED', 00H			; `string'
CONST	ENDS
;	COMDAT ??_C@_0BO@DLLOIENN@EXCEPTION_ILLEGAL_INSTRUCTION?$AA@
CONST	SEGMENT
??_C@_0BO@DLLOIENN@EXCEPTION_ILLEGAL_INSTRUCTION?$AA@ DB 'EXCEPTION_ILLEG'
	DB	'AL_INSTRUCTION', 00H			; `string'
CONST	ENDS
;	COMDAT ??_C@_0CD@JGPJMHJA@EXCEPTION_NONCONTINUABLE_EXCEPTI@
CONST	SEGMENT
??_C@_0CD@JGPJMHJA@EXCEPTION_NONCONTINUABLE_EXCEPTI@ DB 'EXCEPTION_NONCON'
	DB	'TINUABLE_EXCEPTION', 00H			; `string'
CONST	ENDS
;	COMDAT ??_C@_0BO@GJKCLCLP@EXCEPTION_INVALID_DISPOSITION?$AA@
CONST	SEGMENT
??_C@_0BO@GJKCLCLP@EXCEPTION_INVALID_DISPOSITION?$AA@ DB 'EXCEPTION_INVAL'
	DB	'ID_DISPOSITION', 00H			; `string'
CONST	ENDS
;	COMDAT ??_C@_0BJ@BKJLBIPE@EXCEPTION_INVALID_HANDLE?$AA@
CONST	SEGMENT
??_C@_0BJ@BKJLBIPE@EXCEPTION_INVALID_HANDLE?$AA@ DB 'EXCEPTION_INVALID_HA'
	DB	'NDLE', 00H					; `string'
CONST	ENDS
;	COMDAT ??_C@_0BP@NMNHALMC@EXCEPTION_FLT_DENORMAL_OPERAND?$AA@
CONST	SEGMENT
??_C@_0BP@NMNHALMC@EXCEPTION_FLT_DENORMAL_OPERAND?$AA@ DB 'EXCEPTION_FLT_'
	DB	'DENORMAL_OPERAND', 00H			; `string'
CONST	ENDS
;	COMDAT ??_C@_0BN@PHPNMCML@EXCEPTION_FLT_DIVIDE_BY_ZERO?$AA@
CONST	SEGMENT
??_C@_0BN@PHPNMCML@EXCEPTION_FLT_DIVIDE_BY_ZERO?$AA@ DB 'EXCEPTION_FLT_DI'
	DB	'VIDE_BY_ZERO', 00H				; `string'
CONST	ENDS
;	COMDAT ??_C@_0BN@KLCBBCKL@EXCEPTION_FLT_INEXACT_RESULT?$AA@
CONST	SEGMENT
??_C@_0BN@KLCBBCKL@EXCEPTION_FLT_INEXACT_RESULT?$AA@ DB 'EXCEPTION_FLT_IN'
	DB	'EXACT_RESULT', 00H				; `string'
CONST	ENDS
;	COMDAT ??_C@_0CA@JJDIIMDB@EXCEPTION_FLT_INVALID_OPERATION?$AA@
CONST	SEGMENT
??_C@_0CA@JJDIIMDB@EXCEPTION_FLT_INVALID_OPERATION?$AA@ DB 'EXCEPTION_FLT'
	DB	'_INVALID_OPERATION', 00H			; `string'
CONST	ENDS
;	COMDAT ??_C@_0BH@LGFBHAFE@EXCEPTION_FLT_OVERFLOW?$AA@
CONST	SEGMENT
??_C@_0BH@LGFBHAFE@EXCEPTION_FLT_OVERFLOW?$AA@ DB 'EXCEPTION_FLT_OVERFLOW'
	DB	00H						; `string'
CONST	ENDS
;	COMDAT ??_C@_0BK@COBCCPEI@EXCEPTION_FLT_STACK_CHECK?$AA@
CONST	SEGMENT
??_C@_0BK@COBCCPEI@EXCEPTION_FLT_STACK_CHECK?$AA@ DB 'EXCEPTION_FLT_STACK'
	DB	'_CHECK', 00H				; `string'
CONST	ENDS
;	COMDAT ??_C@_0BI@CHKFJJC@EXCEPTION_FLT_UNDERFLOW?$AA@
CONST	SEGMENT
??_C@_0BI@CHKFJJC@EXCEPTION_FLT_UNDERFLOW?$AA@ DB 'EXCEPTION_FLT_UNDERFLO'
	DB	'W', 00H					; `string'
CONST	ENDS
;	COMDAT ??_C@_0BN@LBLGDPIG@EXCEPTION_INT_DIVIDE_BY_ZERO?$AA@
CONST	SEGMENT
??_C@_0BN@LBLGDPIG@EXCEPTION_INT_DIVIDE_BY_ZERO?$AA@ DB 'EXCEPTION_INT_DI'
	DB	'VIDE_BY_ZERO', 00H				; `string'
CONST	ENDS
;	COMDAT ??_C@_0BH@HNBKDLPO@EXCEPTION_INT_OVERFLOW?$AA@
CONST	SEGMENT
??_C@_0BH@HNBKDLPO@EXCEPTION_INT_OVERFLOW?$AA@ DB 'EXCEPTION_INT_OVERFLOW'
	DB	00H						; `string'
CONST	ENDS
;	COMDAT ??_C@_0BL@HJPDFKEO@EXCEPTION_PRIV_INSTRUCTION?$AA@
CONST	SEGMENT
??_C@_0BL@HJPDFKEO@EXCEPTION_PRIV_INSTRUCTION?$AA@ DB 'EXCEPTION_PRIV_INS'
	DB	'TRUCTION', 00H				; `string'
CONST	ENDS
;	COMDAT ??_C@_0BJ@FNEOPPMM@EXCEPTION_STACK_OVERFLOW?$AA@
CONST	SEGMENT
??_C@_0BJ@FNEOPPMM@EXCEPTION_STACK_OVERFLOW?$AA@ DB 'EXCEPTION_STACK_OVER'
	DB	'FLOW', 00H					; `string'
CONST	ENDS
;	COMDAT ??_C@_0BI@GOIELPIK@Microsoft?5C?$CL?$CL?5Exception?$AA@
CONST	SEGMENT
??_C@_0BI@GOIELPIK@Microsoft?5C?$CL?$CL?5Exception?$AA@ DB 'Microsoft C++'
	DB	' Exception', 00H				; `string'
CONST	ENDS
;	COMDAT ??_C@_07NBCGADJA@Unknown?$AA@
CONST	SEGMENT
??_C@_07NBCGADJA@Unknown?$AA@ DB 'Unknown', 00H		; `string'
; Function compile flags: /Ogty
CONST	ENDS
;	COMDAT ?GetFaultReason@CTMiniDump@@CAPADPAU_EXCEPTION_POINTERS@@@Z
_TEXT	SEGMENT
_pExPtrs$ = 8						; size = 4
?GetFaultReason@CTMiniDump@@CAPADPAU_EXCEPTION_POINTERS@@@Z PROC NEAR ; CTMiniDump::GetFaultReason, COMDAT

; 148  : {

  00000	56		 push	 esi

; 149  : 	if( NULL == pExPtrs || NULL == pExPtrs->ExceptionRecord || NULL ==  pExPtrs->ExceptionRecord->ExceptionCode )

  00001	8b 74 24 08	 mov	 esi, DWORD PTR _pExPtrs$[esp]
  00005	85 f6		 test	 esi, esi
  00007	0f 84 50 01 00
	00		 je	 $L122484
  0000d	8b 06		 mov	 eax, DWORD PTR [esi]
  0000f	85 c0		 test	 eax, eax
  00011	0f 84 46 01 00
	00		 je	 $L122484
  00017	83 38 00	 cmp	 DWORD PTR [eax], 0
  0001a	0f 84 3d 01 00
	00		 je	 $L122484

; 151  : 
; 152  : 	if (::IsBadReadPtr(pExPtrs, sizeof(EXCEPTION_POINTERS))) 

  00020	6a 08		 push	 8
  00022	56		 push	 esi
  00023	ff 15 00 00 00
	00		 call	 DWORD PTR __imp__IsBadReadPtr@8
  00029	85 c0		 test	 eax, eax
  0002b	74 07		 je	 SHORT $L122487

; 153  : 		return "BAD EXCEPTION POINTERS";

  0002d	b8 00 00 00 00	 mov	 eax, OFFSET FLAT:??_C@_0BH@BEOMGENN@BAD?5EXCEPTION?5POINTERS?$AA@
  00032	5e		 pop	 esi

; 187  : }

  00033	c3		 ret	 0
$L122487:

; 154  : 
; 155  : 	// 간단한 에러 코드라면 그냥 변환할 수 있다.
; 156  : 	//http://msdn.microsoft.com/library/default.asp?url=/library/en-us/debug/base/exception_record_str.asp
; 157  : 	switch( pExPtrs->ExceptionRecord->ExceptionCode )

  00034	8b 06		 mov	 eax, DWORD PTR [esi]
  00036	8b 00		 mov	 eax, DWORD PTR [eax]
  00038	3d 8d 00 00 c0	 cmp	 eax, -1073741683	; c000008dH
  0003d	0f 87 ae 00 00
	00		 ja	 $L123275
  00043	0f 84 a1 00 00
	00		 je	 $L122509
  00049	3d 06 00 00 c0	 cmp	 eax, -1073741818	; c0000006H
  0004e	77 59		 ja	 SHORT $L123276
  00050	74 50		 je	 SHORT $L122539
  00052	3d 03 00 00 80	 cmp	 eax, -2147483645	; 80000003H
  00057	77 29		 ja	 SHORT $L123277
  00059	74 20		 je	 SHORT $L122500
  0005b	3d 01 00 00 80	 cmp	 eax, -2147483647	; 80000001H
  00060	74 12		 je	 SHORT $L122554
  00062	3d 02 00 00 80	 cmp	 eax, -2147483646	; 80000002H
  00067	0f 85 f0 00 00
	00		 jne	 $L122484

; 160  : 	case EXCEPTION_DATATYPE_MISALIGNMENT:    return "EXCEPTION_DATATYPE_MISALIGNMENT";  // 정렬되지않은 데이타접근

  0006d	b8 00 00 00 00	 mov	 eax, OFFSET FLAT:??_C@_0CA@LEJEDDLG@EXCEPTION_DATATYPE_MISALIGNMENT?$AA@
  00072	5e		 pop	 esi

; 187  : }

  00073	c3		 ret	 0
$L122554:

; 179  : 	case EXCEPTION_GUARD_PAGE:               return "EXCEPTION_GUARD_PAGE";				// 접근하지못하는 page에 접근

  00074	b8 00 00 00 00	 mov	 eax, OFFSET FLAT:??_C@_0BF@BLPCMAHP@EXCEPTION_GUARD_PAGE?$AA@
  00079	5e		 pop	 esi

; 187  : }

  0007a	c3		 ret	 0
$L122500:

; 161  : 	case EXCEPTION_BREAKPOINT:               return "EXCEPTION_BREAKPOINT";				// 브레이크포인트에 걸렸을때

  0007b	b8 00 00 00 00	 mov	 eax, OFFSET FLAT:??_C@_0BF@FLLDOCJP@EXCEPTION_BREAKPOINT?$AA@
  00080	5e		 pop	 esi

; 187  : }

  00081	c3		 ret	 0
$L123277:

; 154  : 
; 155  : 	// 간단한 에러 코드라면 그냥 변환할 수 있다.
; 156  : 	//http://msdn.microsoft.com/library/default.asp?url=/library/en-us/debug/base/exception_record_str.asp
; 157  : 	switch( pExPtrs->ExceptionRecord->ExceptionCode )

  00082	3d 04 00 00 80	 cmp	 eax, -2147483644	; 80000004H
  00087	74 12		 je	 SHORT $L122503
  00089	3d 05 00 00 c0	 cmp	 eax, -1073741819	; c0000005H
  0008e	0f 85 c9 00 00
	00		 jne	 $L122484

; 158  : 	{
; 159  : 	case EXCEPTION_ACCESS_VIOLATION:         return "EXCEPTION_ACCESS_VIOLATION";		// 잘못된 참조

  00094	b8 00 00 00 00	 mov	 eax, OFFSET FLAT:??_C@_0BL@CMOMFGDN@EXCEPTION_ACCESS_VIOLATION?$AA@
  00099	5e		 pop	 esi

; 187  : }

  0009a	c3		 ret	 0
$L122503:

; 162  : 	case EXCEPTION_SINGLE_STEP:              return "EXCEPTION_SINGLE_STEP";			// 하나의 명령어를 실행할때

  0009b	b8 00 00 00 00	 mov	 eax, OFFSET FLAT:??_C@_0BG@HPCFEJHG@EXCEPTION_SINGLE_STEP?$AA@
  000a0	5e		 pop	 esi

; 187  : }

  000a1	c3		 ret	 0
$L122539:

; 174  : 	case EXCEPTION_IN_PAGE_ERROR:            return "EXCEPTION_IN_PAGE_ERROR";			// page를 로드 할 수 없는데 접근한경우

  000a2	b8 00 00 00 00	 mov	 eax, OFFSET FLAT:??_C@_0BI@BNDIILLI@EXCEPTION_IN_PAGE_ERROR?$AA@
  000a7	5e		 pop	 esi

; 187  : }

  000a8	c3		 ret	 0
$L123276:

; 154  : 
; 155  : 	// 간단한 에러 코드라면 그냥 변환할 수 있다.
; 156  : 	//http://msdn.microsoft.com/library/default.asp?url=/library/en-us/debug/base/exception_record_str.asp
; 157  : 	switch( pExPtrs->ExceptionRecord->ExceptionCode )

  000a9	05 f8 ff ff 3f	 add	 eax, 1073741816		; 3ffffff8H
  000ae	3d 84 00 00 00	 cmp	 eax, 132		; 00000084H
  000b3	0f 87 a4 00 00
	00		 ja	 $L122484
  000b9	0f b6 88 00 00
	00 00		 movzx	 ecx, BYTE PTR $L123279[eax]
  000c0	ff 24 8d 00 00
	00 00		 jmp	 DWORD PTR $L123280[ecx*4]
$L122506:

; 163  : 	case EXCEPTION_ARRAY_BOUNDS_EXCEEDED:    return "EXCEPTION_ARRAY_BOUNDS_EXCEEDED";	// 배열이 넘어접근

  000c7	b8 00 00 00 00	 mov	 eax, OFFSET FLAT:??_C@_0CA@JNIHFDGO@EXCEPTION_ARRAY_BOUNDS_EXCEEDED?$AA@
  000cc	5e		 pop	 esi

; 187  : }

  000cd	c3		 ret	 0
$L122542:

; 175  : 	case EXCEPTION_ILLEGAL_INSTRUCTION:      return "EXCEPTION_ILLEGAL_INSTRUCTION";	// 잘못된 명령어

  000ce	b8 00 00 00 00	 mov	 eax, OFFSET FLAT:??_C@_0BO@DLLOIENN@EXCEPTION_ILLEGAL_INSTRUCTION?$AA@
  000d3	5e		 pop	 esi

; 187  : }

  000d4	c3		 ret	 0
$L122545:

; 176  : 	case EXCEPTION_NONCONTINUABLE_EXCEPTION: return "EXCEPTION_NONCONTINUABLE_EXCEPTION";// 진행할수 없는데 계속 진행시킬 경우

  000d5	b8 00 00 00 00	 mov	 eax, OFFSET FLAT:??_C@_0CD@JGPJMHJA@EXCEPTION_NONCONTINUABLE_EXCEPTI@
  000da	5e		 pop	 esi

; 187  : }

  000db	c3		 ret	 0
$L122551:

; 178  : 	case EXCEPTION_INVALID_DISPOSITION:      return "EXCEPTION_INVALID_DISPOSITION";	// 잘못된기능(?)접근 C에서는 발생하지 않음

  000dc	b8 00 00 00 00	 mov	 eax, OFFSET FLAT:??_C@_0BO@GJKCLCLP@EXCEPTION_INVALID_DISPOSITION?$AA@
  000e1	5e		 pop	 esi

; 187  : }

  000e2	c3		 ret	 0
$L122557:

; 180  : 	case EXCEPTION_INVALID_HANDLE:           return "EXCEPTION_INVALID_HANDLE";			// 잘못된 핸들

  000e3	b8 00 00 00 00	 mov	 eax, OFFSET FLAT:??_C@_0BJ@BKJLBIPE@EXCEPTION_INVALID_HANDLE?$AA@
  000e8	5e		 pop	 esi

; 187  : }

  000e9	c3		 ret	 0
$L122509:

; 164  : 	case EXCEPTION_FLT_DENORMAL_OPERAND:     return "EXCEPTION_FLT_DENORMAL_OPERAND";	// 정규화가 되지않는 작은값

  000ea	b8 00 00 00 00	 mov	 eax, OFFSET FLAT:??_C@_0BP@NMNHALMC@EXCEPTION_FLT_DENORMAL_OPERAND?$AA@
  000ef	5e		 pop	 esi

; 187  : }

  000f0	c3		 ret	 0
$L123275:

; 154  : 
; 155  : 	// 간단한 에러 코드라면 그냥 변환할 수 있다.
; 156  : 	//http://msdn.microsoft.com/library/default.asp?url=/library/en-us/debug/base/exception_record_str.asp
; 157  : 	switch( pExPtrs->ExceptionRecord->ExceptionCode )

  000f1	3d fd 00 00 c0	 cmp	 eax, -1073741571	; c00000fdH
  000f6	77 59		 ja	 SHORT $L123278
  000f8	74 50		 je	 SHORT $L122548
  000fa	05 72 ff ff 3f	 add	 eax, 1073741682		; 3fffff72H
  000ff	83 f8 08	 cmp	 eax, 8
  00102	77 59		 ja	 SHORT $L122484
  00104	ff 24 85 00 00
	00 00		 jmp	 DWORD PTR $L123281[eax*4]
$L122512:

; 165  : 	case EXCEPTION_FLT_DIVIDE_BY_ZERO:       return "EXCEPTION_FLT_DIVIDE_BY_ZERO";		// float 0으로나눔

  0010b	b8 00 00 00 00	 mov	 eax, OFFSET FLAT:??_C@_0BN@PHPNMCML@EXCEPTION_FLT_DIVIDE_BY_ZERO?$AA@
  00110	5e		 pop	 esi

; 187  : }

  00111	c3		 ret	 0
$L122515:

; 166  : 	case EXCEPTION_FLT_INEXACT_RESULT:       return "EXCEPTION_FLT_INEXACT_RESULT";		// 소수를 정확하게 나타낼수없음

  00112	b8 00 00 00 00	 mov	 eax, OFFSET FLAT:??_C@_0BN@KLCBBCKL@EXCEPTION_FLT_INEXACT_RESULT?$AA@
  00117	5e		 pop	 esi

; 187  : }

  00118	c3		 ret	 0
$L122518:

; 167  : 	case EXCEPTION_FLT_INVALID_OPERATION:    return "EXCEPTION_FLT_INVALID_OPERATION";	// 기타예외

  00119	b8 00 00 00 00	 mov	 eax, OFFSET FLAT:??_C@_0CA@JJDIIMDB@EXCEPTION_FLT_INVALID_OPERATION?$AA@
  0011e	5e		 pop	 esi

; 187  : }

  0011f	c3		 ret	 0
$L122521:

; 168  : 	case EXCEPTION_FLT_OVERFLOW:             return "EXCEPTION_FLT_OVERFLOW";			// float오버플로우

  00120	b8 00 00 00 00	 mov	 eax, OFFSET FLAT:??_C@_0BH@LGFBHAFE@EXCEPTION_FLT_OVERFLOW?$AA@
  00125	5e		 pop	 esi

; 187  : }

  00126	c3		 ret	 0
$L122524:

; 169  : 	case EXCEPTION_FLT_STACK_CHECK:          return "EXCEPTION_FLT_STACK_CHECK";		// 스택에값이 넘치거나 너무작을경우

  00127	b8 00 00 00 00	 mov	 eax, OFFSET FLAT:??_C@_0BK@COBCCPEI@EXCEPTION_FLT_STACK_CHECK?$AA@
  0012c	5e		 pop	 esi

; 187  : }

  0012d	c3		 ret	 0
$L122527:

; 170  : 	case EXCEPTION_FLT_UNDERFLOW:            return "EXCEPTION_FLT_UNDERFLOW";			// 값이 작을때

  0012e	b8 00 00 00 00	 mov	 eax, OFFSET FLAT:??_C@_0BI@CHKFJJC@EXCEPTION_FLT_UNDERFLOW?$AA@
  00133	5e		 pop	 esi

; 187  : }

  00134	c3		 ret	 0
$L122530:

; 171  : 	case EXCEPTION_INT_DIVIDE_BY_ZERO:       return "EXCEPTION_INT_DIVIDE_BY_ZERO";		// int를 0으로 나눔

  00135	b8 00 00 00 00	 mov	 eax, OFFSET FLAT:??_C@_0BN@LBLGDPIG@EXCEPTION_INT_DIVIDE_BY_ZERO?$AA@
  0013a	5e		 pop	 esi

; 187  : }

  0013b	c3		 ret	 0
$L122533:

; 172  : 	case EXCEPTION_INT_OVERFLOW:             return "EXCEPTION_INT_OVERFLOW";			// int오버플로우

  0013c	b8 00 00 00 00	 mov	 eax, OFFSET FLAT:??_C@_0BH@HNBKDLPO@EXCEPTION_INT_OVERFLOW?$AA@
  00141	5e		 pop	 esi

; 187  : }

  00142	c3		 ret	 0
$L122536:

; 173  : 	case EXCEPTION_PRIV_INSTRUCTION:         return "EXCEPTION_PRIV_INSTRUCTION";		// 명령어를 실행 할 수 없을때

  00143	b8 00 00 00 00	 mov	 eax, OFFSET FLAT:??_C@_0BL@HJPDFKEO@EXCEPTION_PRIV_INSTRUCTION?$AA@
  00148	5e		 pop	 esi

; 187  : }

  00149	c3		 ret	 0
$L122548:

; 177  : 	case EXCEPTION_STACK_OVERFLOW:           return "EXCEPTION_STACK_OVERFLOW";			// 스택오버플로우

  0014a	b8 00 00 00 00	 mov	 eax, OFFSET FLAT:??_C@_0BJ@FNEOPPMM@EXCEPTION_STACK_OVERFLOW?$AA@
  0014f	5e		 pop	 esi

; 187  : }

  00150	c3		 ret	 0
$L123278:

; 154  : 
; 155  : 	// 간단한 에러 코드라면 그냥 변환할 수 있다.
; 156  : 	//http://msdn.microsoft.com/library/default.asp?url=/library/en-us/debug/base/exception_record_str.asp
; 157  : 	switch( pExPtrs->ExceptionRecord->ExceptionCode )

  00151	3d 63 73 6d e0	 cmp	 eax, -529697949		; e06d7363H

; 181  : 	case 0xE06D7363:                         return "Microsoft C++ Exception";			// Visual C++ 오류

  00156	b8 00 00 00 00	 mov	 eax, OFFSET FLAT:??_C@_0BI@GOIELPIK@Microsoft?5C?$CL?$CL?5Exception?$AA@

; 182  : 	default:
; 183  : 		break;
; 184  : 	}
; 185  : 
; 186  : 	return "Unknown";

  0015b	74 05		 je	 SHORT $L122482
$L122484:

; 150  : 		return "Unknown";

  0015d	b8 00 00 00 00	 mov	 eax, OFFSET FLAT:??_C@_07NBCGADJA@Unknown?$AA@
$L122482:
  00162	5e		 pop	 esi

; 187  : }

  00163	c3		 ret	 0
$L123280:
  00164	00 00 00 00	 DD	 $L122557
  00168	00 00 00 00	 DD	 $L122542
  0016c	00 00 00 00	 DD	 $L122545
  00170	00 00 00 00	 DD	 $L122551
  00174	00 00 00 00	 DD	 $L122506
  00178	00 00 00 00	 DD	 $L122484
$L123279:
  0017c	00		 DB	 0
  0017d	05		 DB	 5
  0017e	05		 DB	 5
  0017f	05		 DB	 5
  00180	05		 DB	 5
  00181	05		 DB	 5
  00182	05		 DB	 5
  00183	05		 DB	 5
  00184	05		 DB	 5
  00185	05		 DB	 5
  00186	05		 DB	 5
  00187	05		 DB	 5
  00188	05		 DB	 5
  00189	05		 DB	 5
  0018a	05		 DB	 5
  0018b	05		 DB	 5
  0018c	05		 DB	 5
  0018d	05		 DB	 5
  0018e	05		 DB	 5
  0018f	05		 DB	 5
  00190	05		 DB	 5
  00191	01		 DB	 1
  00192	05		 DB	 5
  00193	05		 DB	 5
  00194	05		 DB	 5
  00195	05		 DB	 5
  00196	05		 DB	 5
  00197	05		 DB	 5
  00198	05		 DB	 5
  00199	02		 DB	 2
  0019a	03		 DB	 3
  0019b	05		 DB	 5
  0019c	05		 DB	 5
  0019d	05		 DB	 5
  0019e	05		 DB	 5
  0019f	05		 DB	 5
  001a0	05		 DB	 5
  001a1	05		 DB	 5
  001a2	05		 DB	 5
  001a3	05		 DB	 5
  001a4	05		 DB	 5
  001a5	05		 DB	 5
  001a6	05		 DB	 5
  001a7	05		 DB	 5
  001a8	05		 DB	 5
  001a9	05		 DB	 5
  001aa	05		 DB	 5
  001ab	05		 DB	 5
  001ac	05		 DB	 5
  001ad	05		 DB	 5
  001ae	05		 DB	 5
  001af	05		 DB	 5
  001b0	05		 DB	 5
  001b1	05		 DB	 5
  001b2	05		 DB	 5
  001b3	05		 DB	 5
  001b4	05		 DB	 5
  001b5	05		 DB	 5
  001b6	05		 DB	 5
  001b7	05		 DB	 5
  001b8	05		 DB	 5
  001b9	05		 DB	 5
  001ba	05		 DB	 5
  001bb	05		 DB	 5
  001bc	05		 DB	 5
  001bd	05		 DB	 5
  001be	05		 DB	 5
  001bf	05		 DB	 5
  001c0	05		 DB	 5
  001c1	05		 DB	 5
  001c2	05		 DB	 5
  001c3	05		 DB	 5
  001c4	05		 DB	 5
  001c5	05		 DB	 5
  001c6	05		 DB	 5
  001c7	05		 DB	 5
  001c8	05		 DB	 5
  001c9	05		 DB	 5
  001ca	05		 DB	 5
  001cb	05		 DB	 5
  001cc	05		 DB	 5
  001cd	05		 DB	 5
  001ce	05		 DB	 5
  001cf	05		 DB	 5
  001d0	05		 DB	 5
  001d1	05		 DB	 5
  001d2	05		 DB	 5
  001d3	05		 DB	 5
  001d4	05		 DB	 5
  001d5	05		 DB	 5
  001d6	05		 DB	 5
  001d7	05		 DB	 5
  001d8	05		 DB	 5
  001d9	05		 DB	 5
  001da	05		 DB	 5
  001db	05		 DB	 5
  001dc	05		 DB	 5
  001dd	05		 DB	 5
  001de	05		 DB	 5
  001df	05		 DB	 5
  001e0	05		 DB	 5
  001e1	05		 DB	 5
  001e2	05		 DB	 5
  001e3	05		 DB	 5
  001e4	05		 DB	 5
  001e5	05		 DB	 5
  001e6	05		 DB	 5
  001e7	05		 DB	 5
  001e8	05		 DB	 5
  001e9	05		 DB	 5
  001ea	05		 DB	 5
  001eb	05		 DB	 5
  001ec	05		 DB	 5
  001ed	05		 DB	 5
  001ee	05		 DB	 5
  001ef	05		 DB	 5
  001f0	05		 DB	 5
  001f1	05		 DB	 5
  001f2	05		 DB	 5
  001f3	05		 DB	 5
  001f4	05		 DB	 5
  001f5	05		 DB	 5
  001f6	05		 DB	 5
  001f7	05		 DB	 5
  001f8	05		 DB	 5
  001f9	05		 DB	 5
  001fa	05		 DB	 5
  001fb	05		 DB	 5
  001fc	05		 DB	 5
  001fd	05		 DB	 5
  001fe	05		 DB	 5
  001ff	05		 DB	 5
  00200	04		 DB	 4
  00201	8d 49 00	 npad	 3
$L123281:
  00204	00 00 00 00	 DD	 $L122512
  00208	00 00 00 00	 DD	 $L122515
  0020c	00 00 00 00	 DD	 $L122518
  00210	00 00 00 00	 DD	 $L122521
  00214	00 00 00 00	 DD	 $L122524
  00218	00 00 00 00	 DD	 $L122527
  0021c	00 00 00 00	 DD	 $L122530
  00220	00 00 00 00	 DD	 $L122533
  00224	00 00 00 00	 DD	 $L122536
?GetFaultReason@CTMiniDump@@CAPADPAU_EXCEPTION_POINTERS@@@Z ENDP ; CTMiniDump::GetFaultReason
_TEXT	ENDS
PUBLIC	?CalculateBeginningOfCallInstruction@@YAHAAI@Z	; CalculateBeginningOfCallInstruction
EXTRN	__except_handler3:NEAR
EXTRN	__except_list:DWORD
;	COMDAT CONST
CONST	SEGMENT
$T123290 DD	0ffffffffH
	DD	FLAT:$L123286
	DD	FLAT:$L123287
; Function compile flags: /Ogty
CONST	ENDS
;	COMDAT ?CalculateBeginningOfCallInstruction@@YAHAAI@Z
_TEXT	SEGMENT
_bRet$ = -32						; size = 4
_pBytes$122570 = -28					; size = 4
__$SEHRec$ = -24					; size = 24
_dwRetAddr$ = 8						; size = 4
?CalculateBeginningOfCallInstruction@@YAHAAI@Z PROC NEAR ; CalculateBeginningOfCallInstruction, COMDAT

; 282  : {

  00000	55		 push	 ebp
  00001	8b ec		 mov	 ebp, esp
  00003	6a ff		 push	 -1
  00005	68 00 00 00 00	 push	 OFFSET FLAT:$T123290
  0000a	68 00 00 00 00	 push	 OFFSET FLAT:__except_handler3
  0000f	64 a1 00 00 00
	00		 mov	 eax, DWORD PTR fs:__except_list
  00015	50		 push	 eax
  00016	64 89 25 00 00
	00 00		 mov	 DWORD PTR fs:__except_list, esp
  0001d	83 ec 10	 sub	 esp, 16			; 00000010H
  00020	53		 push	 ebx
  00021	56		 push	 esi
  00022	57		 push	 edi
  00023	89 65 e8	 mov	 DWORD PTR __$SEHRec$[ebp], esp

; 283  : 	BOOL bRet = TRUE ;

  00026	b8 01 00 00 00	 mov	 eax, 1

; 284  : 
; 285  : 	__try

  0002b	c7 45 fc 00 00
	00 00		 mov	 DWORD PTR __$SEHRec$[ebp+20], 0

; 286  : 	{
; 287  : 		BYTE * pBytes = (BYTE*)dwRetAddr ;

  00032	8b 55 08	 mov	 edx, DWORD PTR _dwRetAddr$[ebp]
  00035	8b 0a		 mov	 ecx, DWORD PTR [edx]
  00037	89 4d e4	 mov	 DWORD PTR _pBytes$122570[ebp], ecx

; 288  : 
; 289  : 		if ( 0xE8 == *(pBytes - k_CALLNEARBACK) )

  0003a	80 79 fb e8	 cmp	 BYTE PTR [ecx-5], 232	; 000000e8H
  0003e	75 07		 jne	 SHORT $L122572

; 290  : 		{
; 291  : 			dwRetAddr -= k_CALLNEARBACK ;

  00040	83 c1 fb	 add	 ecx, -5			; fffffffbH
  00043	89 0a		 mov	 DWORD PTR [edx], ecx

; 292  : 		}
; 293  : 		else if ( 0xFF == *(pBytes - k_CALLFARBACK) )

  00045	eb 1f		 jmp	 SHORT $L122575
$L122572:
  00047	80 79 fa ff	 cmp	 BYTE PTR [ecx-6], 255	; 000000ffH
  0004b	75 07		 jne	 SHORT $L122574

; 294  : 		{
; 295  : 			dwRetAddr -= k_CALLFARBACK ;

  0004d	83 c1 fa	 add	 ecx, -6			; fffffffaH
  00050	89 0a		 mov	 DWORD PTR [edx], ecx

; 296  : 		}
; 297  : 		else

  00052	eb 12		 jmp	 SHORT $L122575
$L122574:

; 298  : 		{
; 299  : 			bRet = FALSE ;

  00054	33 c0		 xor	 eax, eax
  00056	89 45 e0	 mov	 DWORD PTR _bRet$[ebp], eax
  00059	eb 0b		 jmp	 SHORT $L122575
$L123286:
$L123295:

; 300  : 		}
; 301  : 	}
; 302  : 	__except ( EXCEPTION_EXECUTE_HANDLER )

  0005b	b8 01 00 00 00	 mov	 eax, 1
$L123294:
$L123288:
  00060	c3		 ret	 0
$L123287:
  00061	8b 65 e8	 mov	 esp, DWORD PTR __$SEHRec$[ebp]

; 303  : 	{
; 304  : 		bRet = FALSE ;

  00064	33 c0		 xor	 eax, eax
$L122575:
  00066	c7 45 fc ff ff
	ff ff		 mov	 DWORD PTR __$SEHRec$[ebp+20], -1

; 305  : 	}
; 306  : 	return ( bRet ) ;
; 307  : }

  0006d	8b 4d f0	 mov	 ecx, DWORD PTR __$SEHRec$[ebp+8]
  00070	64 89 0d 00 00
	00 00		 mov	 DWORD PTR fs:__except_list, ecx
  00077	5f		 pop	 edi
  00078	5e		 pop	 esi
  00079	5b		 pop	 ebx
  0007a	8b e5		 mov	 esp, ebp
  0007c	5d		 pop	 ebp
  0007d	c3		 ret	 0
?CalculateBeginningOfCallInstruction@@YAHAAI@Z ENDP	; CalculateBeginningOfCallInstruction
_TEXT	ENDS
PUBLIC	?StringFindCharRev@?$ChTraitsCRT@D@ATL@@SAPBDPBDD@Z ; ATL::ChTraitsCRT<char>::StringFindCharRev
EXTRN	__mbsrchr:NEAR
; Function compile flags: /Ogty
; File c:\program files (x86)\microsoft visual studio .net 2003\vc7\atlmfc\include\cstringt.h
;	COMDAT ?StringFindCharRev@?$ChTraitsCRT@D@ATL@@SAPBDPBDD@Z
_TEXT	SEGMENT
_psz$ = 8						; size = 4
_ch$ = 12						; size = 1
?StringFindCharRev@?$ChTraitsCRT@D@ATL@@SAPBDPBDD@Z PROC NEAR ; ATL::ChTraitsCRT<char>::StringFindCharRev, COMDAT

; 372  : 		return reinterpret_cast< LPSTR >( _mbsrchr( reinterpret_cast< const unsigned char* >( psz ), (unsigned char)ch ) );

  00000	0f b6 44 24 08	 movzx	 eax, BYTE PTR _ch$[esp-4]
  00005	89 44 24 08	 mov	 BYTE PTR _ch$[esp-4], eax
  00009	e9 00 00 00 00	 jmp	 __mbsrchr
?StringFindCharRev@?$ChTraitsCRT@D@ATL@@SAPBDPBDD@Z ENDP ; ATL::ChTraitsCRT<char>::StringFindCharRev
_TEXT	ENDS
PUBLIC	?InterlockedExchangePointer@@YGPAXPAPAXPAX@Z	; InterlockedExchangePointer
EXTRN	__imp__InterlockedExchange@8:NEAR
; Function compile flags: /Ogty
; File c:\program files (x86)\microsoft visual studio .net 2003\vc7\atlmfc\include\atlconv.h
;	COMDAT ?InterlockedExchangePointer@@YGPAXPAPAXPAX@Z
_TEXT	SEGMENT
_pp$ = 8						; size = 4
_pNew$ = 12						; size = 4
?InterlockedExchangePointer@@YGPAXPAPAXPAX@Z PROC NEAR	; InterlockedExchangePointer, COMDAT

; 92   : 	return( reinterpret_cast<void*>(static_cast<LONG_PTR>(::InterlockedExchange(reinterpret_cast<LONG*>(pp), static_cast<LONG>(reinterpret_cast<LONG_PTR>(pNew))))) );

  00000	ff 25 00 00 00
	00		 jmp	 DWORD PTR __imp__InterlockedExchange@8
?InterlockedExchangePointer@@YGPAXPAPAXPAX@Z ENDP	; InterlockedExchangePointer
_TEXT	ENDS
PUBLIC	?_AtlGetThreadACPFake@ATL@@YGIXZ		; ATL::_AtlGetThreadACPFake
EXTRN	__imp__GetACP@0:NEAR
EXTRN	__imp__GetLocaleInfoA@16:NEAR
EXTRN	___security_cookie:DWORD
EXTRN	@__security_check_cookie@4:NEAR
EXTRN	__imp__GetThreadLocale@0:NEAR
; Function compile flags: /Ogty
;	COMDAT ?_AtlGetThreadACPFake@ATL@@YGIXZ
_TEXT	SEGMENT
_szACP$ = -12						; size = 7
__$ArrayPad$ = -4					; size = 4
__$ReturnAddr$ = 4					; size = 4
?_AtlGetThreadACPFake@ATL@@YGIXZ PROC NEAR		; ATL::_AtlGetThreadACPFake, COMDAT

; 101  : {

  00000	83 ec 0c	 sub	 esp, 12			; 0000000cH
  00003	a1 00 00 00 00	 mov	 eax, DWORD PTR ___security_cookie
  00008	56		 push	 esi
  00009	89 44 24 0c	 mov	 DWORD PTR __$ArrayPad$[esp+16], eax

; 102  : 	UINT nACP = 0;

  0000d	33 f6		 xor	 esi, esi

; 103  : 
; 104  : 	LCID lcidThread = ::GetThreadLocale();

  0000f	ff 15 00 00 00
	00		 call	 DWORD PTR __imp__GetThreadLocale@0

; 105  : 
; 106  : 	char szACP[7];
; 107  : 	// GetLocaleInfoA will fail for a Unicode-only LCID, but those are only supported on 
; 108  : 	// Windows 2000.  Since Windows 2000 supports CP_THREAD_ACP, this code path is never
; 109  : 	// executed on Windows 2000.
; 110  : 	if (::GetLocaleInfoA(lcidThread, LOCALE_IDEFAULTANSICODEPAGE, szACP, 7) != 0)

  00015	6a 07		 push	 7
  00017	8d 4c 24 08	 lea	 ecx, DWORD PTR _szACP$[esp+20]
  0001b	51		 push	 ecx
  0001c	68 04 10 00 00	 push	 4100			; 00001004H
  00021	50		 push	 eax
  00022	ff 15 00 00 00
	00		 call	 DWORD PTR __imp__GetLocaleInfoA@16
  00028	85 c0		 test	 eax, eax
  0002a	74 21		 je	 SHORT $L123311

; 111  : 	{
; 112  : 		char* pch = szACP;
; 113  : 		while (*pch != '\0')

  0002c	8a 44 24 04	 mov	 al, BYTE PTR _szACP$[esp+16]
  00030	84 c0		 test	 al, al
  00032	8d 4c 24 04	 lea	 ecx, DWORD PTR _szACP$[esp+16]
  00036	74 15		 je	 SHORT $L123311
$L58550:

; 114  : 		{
; 115  : 			nACP *= 10;
; 116  : 			nACP += *pch++ - '0';

  00038	0f be c0	 movsx	 eax, al
  0003b	8d 14 b6	 lea	 edx, DWORD PTR [esi+esi*4]
  0003e	41		 inc	 ecx
  0003f	8d 74 50 d0	 lea	 esi, DWORD PTR [eax+edx*2-48]
  00043	8a 01		 mov	 al, BYTE PTR [ecx]
  00045	84 c0		 test	 al, al
  00047	75 ef		 jne	 SHORT $L58550

; 117  : 		}
; 118  : 	}
; 119  : 	// Use the Default ANSI Code Page if we were unable to get the thread ACP or if one does not exist.
; 120  : 	if (nACP == 0)

  00049	85 f6		 test	 esi, esi
  0004b	75 14		 jne	 SHORT $L123312
$L123311:

; 121  : 		nACP = ::GetACP();

  0004d	ff 15 00 00 00
	00		 call	 DWORD PTR __imp__GetACP@0
  00053	5e		 pop	 esi

; 122  : 
; 123  : 	return nACP;
; 124  : }

  00054	8b 4c 24 08	 mov	 ecx, DWORD PTR __$ArrayPad$[esp+12]
  00058	e8 00 00 00 00	 call	 @__security_check_cookie@4
  0005d	83 c4 0c	 add	 esp, 12			; 0000000cH
  00060	c3		 ret	 0
$L123312:
  00061	8b 4c 24 0c	 mov	 ecx, DWORD PTR __$ArrayPad$[esp+16]
  00065	8b c6		 mov	 eax, esi
  00067	5e		 pop	 esi
  00068	e8 00 00 00 00	 call	 @__security_check_cookie@4
  0006d	83 c4 0c	 add	 esp, 12			; 0000000cH
  00070	c3		 ret	 0
?_AtlGetThreadACPFake@ATL@@YGIXZ ENDP			; ATL::_AtlGetThreadACPFake
_TEXT	ENDS
PUBLIC	?_AtlGetThreadACPReal@ATL@@YGIXZ		; ATL::_AtlGetThreadACPReal
; Function compile flags: /Ogty
;	COMDAT ?_AtlGetThreadACPReal@ATL@@YGIXZ
_TEXT	SEGMENT
?_AtlGetThreadACPReal@ATL@@YGIXZ PROC NEAR		; ATL::_AtlGetThreadACPReal, COMDAT

; 128  : 	return( CP_THREAD_ACP );

  00000	b8 03 00 00 00	 mov	 eax, 3

; 129  : }

  00005	c3		 ret	 0
?_AtlGetThreadACPReal@ATL@@YGIXZ ENDP			; ATL::_AtlGetThreadACPReal
_TEXT	ENDS
EXTRN	__imp__GetVersionExA@4:NEAR
; Function compile flags: /Ogty
;	COMDAT ?_AtlGetThreadACPThunk@ATL@@YGIXZ
_TEXT	SEGMENT
_ver$ = -152						; size = 148
__$ArrayPad$ = -4					; size = 4
__$ReturnAddr$ = 4					; size = 4
?_AtlGetThreadACPThunk@ATL@@YGIXZ PROC NEAR		; ATL::_AtlGetThreadACPThunk, COMDAT

; 134  : {

  00000	81 ec 98 00 00
	00		 sub	 esp, 152		; 00000098H
  00006	a1 00 00 00 00	 mov	 eax, DWORD PTR ___security_cookie
  0000b	89 84 24 94 00
	00 00		 mov	 DWORD PTR __$ArrayPad$[esp+152], eax

; 135  : 	OSVERSIONINFO ver;
; 136  : 	ATLGETTHREADACP pfnGetThreadACP;
; 137  : 
; 138  : 	ver.dwOSVersionInfoSize = sizeof( ver );
; 139  : 	::GetVersionEx( &ver );

  00012	8d 04 24	 lea	 eax, DWORD PTR _ver$[esp+152]
  00015	50		 push	 eax
  00016	c7 44 24 04 94
	00 00 00	 mov	 DWORD PTR _ver$[esp+156], 148 ; 00000094H
  0001e	ff 15 00 00 00
	00		 call	 DWORD PTR __imp__GetVersionExA@4

; 140  : 	if( (ver.dwPlatformId == VER_PLATFORM_WIN32_NT) && (ver.dwMajorVersion >= 5) )

  00024	83 7c 24 10 02	 cmp	 DWORD PTR _ver$[esp+168], 2
  00029	75 0c		 jne	 SHORT $L58560
  0002b	83 7c 24 04 05	 cmp	 DWORD PTR _ver$[esp+156], 5

; 141  : 	{
; 142  : 		// On Win2K, CP_THREAD_ACP is supported
; 143  : 		pfnGetThreadACP = _AtlGetThreadACPReal;

  00030	b8 00 00 00 00	 mov	 eax, OFFSET FLAT:?_AtlGetThreadACPReal@ATL@@YGIXZ ; ATL::_AtlGetThreadACPReal
  00035	73 05		 jae	 SHORT $L58561
$L58560:

; 144  : 	}
; 145  : 	else
; 146  : 	{
; 147  : 		pfnGetThreadACP = _AtlGetThreadACPFake;

  00037	b8 00 00 00 00	 mov	 eax, OFFSET FLAT:?_AtlGetThreadACPFake@ATL@@YGIXZ ; ATL::_AtlGetThreadACPFake
$L58561:

; 148  : 	}
; 149  : 	InterlockedExchangePointer( reinterpret_cast< void** >(&g_pfnGetThreadACP), pfnGetThreadACP );

  0003c	50		 push	 eax
  0003d	68 00 00 00 00	 push	 OFFSET FLAT:?g_pfnGetThreadACP@ATL@@3P6GIXZA ; ATL::g_pfnGetThreadACP
  00042	ff 15 00 00 00
	00		 call	 DWORD PTR __imp__InterlockedExchange@8

; 150  : 
; 151  : 	return( g_pfnGetThreadACP() );

  00048	ff 15 00 00 00
	00		 call	 DWORD PTR ?g_pfnGetThreadACP@ATL@@3P6GIXZA ; ATL::g_pfnGetThreadACP

; 152  : }

  0004e	8b 8c 24 94 00
	00 00		 mov	 ecx, DWORD PTR __$ArrayPad$[esp+152]
  00055	e8 00 00 00 00	 call	 @__security_check_cookie@4
  0005a	81 c4 98 00 00
	00		 add	 esp, 152		; 00000098H
  00060	c3		 ret	 0
?_AtlGetThreadACPThunk@ATL@@YGIXZ ENDP			; ATL::_AtlGetThreadACPThunk
_TEXT	ENDS
PUBLIC	?_AtlGetConversionACP@ATL@@YGIXZ		; ATL::_AtlGetConversionACP
; Function compile flags: /Ogty
;	COMDAT ?_AtlGetConversionACP@ATL@@YGIXZ
_TEXT	SEGMENT
?_AtlGetConversionACP@ATL@@YGIXZ PROC NEAR		; ATL::_AtlGetConversionACP, COMDAT

; 158  : 	return( g_pfnGetThreadACP() );

  00000	ff 25 00 00 00
	00		 jmp	 DWORD PTR ?g_pfnGetThreadACP@ATL@@3P6GIXZA ; ATL::g_pfnGetThreadACP
?_AtlGetConversionACP@ATL@@YGIXZ ENDP			; ATL::_AtlGetConversionACP
_TEXT	ENDS
PUBLIC	??0CAtlException@ATL@@QAE@J@Z			; ATL::CAtlException::CAtlException
; Function compile flags: /Ogty
; File c:\program files (x86)\microsoft visual studio .net 2003\vc7\atlmfc\include\atlexcept.h
;	COMDAT ??0CAtlException@ATL@@QAE@J@Z
_TEXT	SEGMENT
_hr$ = 8						; size = 4
??0CAtlException@ATL@@QAE@J@Z PROC NEAR			; ATL::CAtlException::CAtlException, COMDAT
; _this$ = ecx

; 40   : 	{

  00000	8b c1		 mov	 eax, ecx
  00002	8b 4c 24 04	 mov	 ecx, DWORD PTR _hr$[esp-4]
  00006	89 08		 mov	 DWORD PTR [eax], ecx

; 41   : 	}

  00008	c2 04 00	 ret	 4
??0CAtlException@ATL@@QAE@J@Z ENDP			; ATL::CAtlException::CAtlException
_TEXT	ENDS
PUBLIC	?AtlThrow@ATL@@YGXJ@Z				; ATL::AtlThrow
PUBLIC	__TI1?AVCAtlException@ATL@@
PUBLIC	__CTA1?AVCAtlException@ATL@@
PUBLIC	??_R0?AVCAtlException@ATL@@@8			; ATL::CAtlException `RTTI Type Descriptor'
PUBLIC	__CT??_R0?AVCAtlException@ATL@@@84
EXTRN	__CxxThrowException@8:NEAR
EXTRN	??_7type_info@@6B@:DWORD			; type_info::`vftable'
;	COMDAT __TI1?AVCAtlException@ATL@@
xdata$x	SEGMENT
__TI1?AVCAtlException@ATL@@ DD 00H
	DD	00H
	DD	00H
	DD	FLAT:__CTA1?AVCAtlException@ATL@@
xdata$x	ENDS
;	COMDAT __CTA1?AVCAtlException@ATL@@
xdata$x	SEGMENT
__CTA1?AVCAtlException@ATL@@ DD 01H
	DD	FLAT:__CT??_R0?AVCAtlException@ATL@@@84
xdata$x	ENDS
;	COMDAT __CT??_R0?AVCAtlException@ATL@@@84
xdata$x	SEGMENT
__CT??_R0?AVCAtlException@ATL@@@84 DD 00H
	DD	FLAT:??_R0?AVCAtlException@ATL@@@8
	DD	00H
	DD	0ffffffffH
	ORG $+4
	DD	04H
	DD	00H
xdata$x	ENDS
;	COMDAT ??_R0?AVCAtlException@ATL@@@8
_DATA	SEGMENT
??_R0?AVCAtlException@ATL@@@8 DD FLAT:??_7type_info@@6B@ ; ATL::CAtlException `RTTI Type Descriptor'
	DD	00H
	DB	'.?AVCAtlException@ATL@@', 00H
; Function compile flags: /Ogty
_DATA	ENDS
;	COMDAT ?AtlThrow@ATL@@YGXJ@Z
_TEXT	SEGMENT
$T123337 = 8						; size = 4
_hr$ = 8						; size = 4
?AtlThrow@ATL@@YGXJ@Z PROC NEAR				; ATL::AtlThrow, COMDAT

; 62   : 	ATLTRACE(atlTraceException, 0, _T("AtlThrow: hr = 0x%x\n"), hr );
; 63   : #ifdef _AFX
; 64   : 	if( hr == E_OUTOFMEMORY )
; 65   : 	{
; 66   : 		AfxThrowMemoryException();
; 67   : 	}
; 68   : 	else
; 69   : 	{
; 70   : 		AfxThrowOleException( hr );
; 71   : 	}
; 72   : #else
; 73   : 	throw CAtlException( hr );

  00000	8b 44 24 04	 mov	 eax, DWORD PTR _hr$[esp-4]
  00004	68 00 00 00 00	 push	 OFFSET FLAT:__TI1?AVCAtlException@ATL@@
  00009	8d 4c 24 08	 lea	 ecx, DWORD PTR $T123337[esp]
  0000d	51		 push	 ecx
  0000e	89 44 24 0c	 mov	 DWORD PTR $T123337[esp+4], eax
  00012	e8 00 00 00 00	 call	 __CxxThrowException@8
$L123344:
$L123343:
  00017	cc		 int	 3
?AtlThrow@ATL@@YGXJ@Z ENDP				; ATL::AtlThrow
_TEXT	ENDS
PUBLIC	?_AtlGetStringResourceImage@ATL@@YAPBUATLSTRINGRESOURCEIMAGE@1@PAUHINSTANCE__@@PAUHRSRC__@@I@Z ; ATL::_AtlGetStringResourceImage
EXTRN	__imp__LockResource@4:NEAR
EXTRN	__imp__LoadResource@8:NEAR
EXTRN	__imp__SizeofResource@8:NEAR
; Function compile flags: /Ogty
; File c:\program files (x86)\microsoft visual studio .net 2003\vc7\atlmfc\include\atlcore.h
;	COMDAT ?_AtlGetStringResourceImage@ATL@@YAPBUATLSTRINGRESOURCEIMAGE@1@PAUHINSTANCE__@@PAUHRSRC__@@I@Z
_TEXT	SEGMENT
_hInstance$ = 8						; size = 4
_hResource$ = 12					; size = 4
_id$ = 16						; size = 4
?_AtlGetStringResourceImage@ATL@@YAPBUATLSTRINGRESOURCEIMAGE@1@PAUHINSTANCE__@@PAUHRSRC__@@I@Z PROC NEAR ; ATL::_AtlGetStringResourceImage, COMDAT

; 239  : {

  00000	53		 push	 ebx

; 240  : 	const ATLSTRINGRESOURCEIMAGE* pImage;
; 241  : 	const ATLSTRINGRESOURCEIMAGE* pImageEnd;
; 242  : 	ULONG nResourceSize;
; 243  : 	HGLOBAL hGlobal;
; 244  : 	UINT iIndex;
; 245  : 
; 246  : 	hGlobal = ::LoadResource( hInstance, hResource );

  00001	8b 5c 24 08	 mov	 ebx, DWORD PTR _hInstance$[esp]
  00005	57		 push	 edi
  00006	8b 7c 24 10	 mov	 edi, DWORD PTR _hResource$[esp+4]
  0000a	57		 push	 edi
  0000b	53		 push	 ebx
  0000c	ff 15 00 00 00
	00		 call	 DWORD PTR __imp__LoadResource@8

; 247  : 	if( hGlobal == NULL )

  00012	85 c0		 test	 eax, eax
  00014	75 03		 jne	 SHORT $L59408
  00016	5f		 pop	 edi
  00017	5b		 pop	 ebx

; 272  : 	{
; 273  : 		return( NULL );
; 274  : 	}
; 275  : 
; 276  : 	return( pImage );
; 277  : }

  00018	c3		 ret	 0
$L59408:
  00019	56		 push	 esi

; 248  : 	{
; 249  : 		return( NULL );
; 250  : 	}
; 251  : 
; 252  : 	pImage = (const ATLSTRINGRESOURCEIMAGE*)::LockResource( hGlobal );

  0001a	50		 push	 eax
  0001b	ff 15 00 00 00
	00		 call	 DWORD PTR __imp__LockResource@4
  00021	8b f0		 mov	 esi, eax

; 253  : 	if( pImage == NULL )

  00023	85 f6		 test	 esi, esi
  00025	75 06		 jne	 SHORT $L59410
$L123350:
  00027	5e		 pop	 esi
  00028	5f		 pop	 edi

; 254  : 	{
; 255  : 		return( NULL );

  00029	33 c0		 xor	 eax, eax
  0002b	5b		 pop	 ebx

; 272  : 	{
; 273  : 		return( NULL );
; 274  : 	}
; 275  : 
; 276  : 	return( pImage );
; 277  : }

  0002c	c3		 ret	 0
$L59410:

; 256  : 	}
; 257  : 
; 258  : 	nResourceSize = ::SizeofResource( hInstance, hResource );

  0002d	57		 push	 edi
  0002e	53		 push	 ebx
  0002f	ff 15 00 00 00
	00		 call	 DWORD PTR __imp__SizeofResource@8

; 259  : 	pImageEnd = (const ATLSTRINGRESOURCEIMAGE*)(LPBYTE( pImage )+nResourceSize);
; 260  : 	iIndex = id&0x000f;

  00035	8b 4c 24 18	 mov	 ecx, DWORD PTR _id$[esp+8]
  00039	03 c6		 add	 eax, esi
  0003b	83 e1 0f	 and	 ecx, 15			; 0000000fH

; 261  : 
; 262  : 	while( (iIndex > 0) && (pImage < pImageEnd) )

  0003e	76 0e		 jbe	 SHORT $L59414
$L59413:
  00040	3b f0		 cmp	 esi, eax
  00042	73 e3		 jae	 SHORT $L123350

; 263  : 	{
; 264  : 		pImage = (const ATLSTRINGRESOURCEIMAGE*)(LPBYTE( pImage )+(sizeof( ATLSTRINGRESOURCEIMAGE )+(pImage->nLength*sizeof( WCHAR ))));
; 265  : 		iIndex--;

  00044	49		 dec	 ecx
  00045	0f b7 16	 movzx	 edx, WORD PTR [esi]
  00048	8d 74 56 02	 lea	 esi, DWORD PTR [esi+edx*2+2]
  0004c	75 f2		 jne	 SHORT $L59413
$L59414:

; 266  : 	}
; 267  : 	if( pImage >= pImageEnd )

  0004e	3b f0		 cmp	 esi, eax

; 268  : 	{
; 269  : 		return( NULL );

  00050	73 d5		 jae	 SHORT $L123350

; 270  : 	}
; 271  : 	if( pImage->nLength == 0 )

  00052	66 8b 06	 mov	 ax, WORD PTR [esi]
  00055	66 f7 d8	 neg	 ax
  00058	1b c0		 sbb	 eax, eax
  0005a	23 c6		 and	 eax, esi
  0005c	5e		 pop	 esi
  0005d	5f		 pop	 edi
  0005e	5b		 pop	 ebx

; 272  : 	{
; 273  : 		return( NULL );
; 274  : 	}
; 275  : 
; 276  : 	return( pImage );
; 277  : }

  0005f	c3		 ret	 0
?_AtlGetStringResourceImage@ATL@@YAPBUATLSTRINGRESOURCEIMAGE@1@PAUHINSTANCE__@@PAUHRSRC__@@I@Z ENDP ; ATL::_AtlGetStringResourceImage
_TEXT	ENDS
PUBLIC	?AtlGetStringResourceImage@ATL@@YAPBUATLSTRINGRESOURCEIMAGE@1@PAUHINSTANCE__@@I@Z ; ATL::AtlGetStringResourceImage
EXTRN	__imp__FindResourceA@12:NEAR
; Function compile flags: /Ogty
;	COMDAT ?AtlGetStringResourceImage@ATL@@YAPBUATLSTRINGRESOURCEIMAGE@1@PAUHINSTANCE__@@I@Z
_TEXT	SEGMENT
_hInstance$ = 8						; size = 4
_id$ = 12						; size = 4
?AtlGetStringResourceImage@ATL@@YAPBUATLSTRINGRESOURCEIMAGE@1@PAUHINSTANCE__@@I@Z PROC NEAR ; ATL::AtlGetStringResourceImage, COMDAT

; 280  : {

  00000	56		 push	 esi

; 281  : 	HRSRC hResource;
; 282  : 
; 283  : 	hResource = ::FindResource( hInstance, MAKEINTRESOURCE( ((id>>4)+1) ), RT_STRING );

  00001	8b 74 24 0c	 mov	 esi, DWORD PTR _id$[esp]
  00005	8b c6		 mov	 eax, esi
  00007	c1 e8 04	 shr	 eax, 4
  0000a	57		 push	 edi
  0000b	8b 7c 24 0c	 mov	 edi, DWORD PTR _hInstance$[esp+4]
  0000f	40		 inc	 eax
  00010	0f b7 c8	 movzx	 ecx, ax
  00013	6a 06		 push	 6
  00015	51		 push	 ecx
  00016	57		 push	 edi
  00017	ff 15 00 00 00
	00		 call	 DWORD PTR __imp__FindResourceA@12

; 284  : 	if( hResource == NULL )

  0001d	85 c0		 test	 eax, eax
  0001f	75 03		 jne	 SHORT $L59431
  00021	5f		 pop	 edi
  00022	5e		 pop	 esi

; 290  : }

  00023	c3		 ret	 0
$L59431:

; 285  : 	{
; 286  : 		return( NULL );
; 287  : 	}
; 288  : 
; 289  : 	return _AtlGetStringResourceImage( hInstance, hResource, id );

  00024	56		 push	 esi
  00025	50		 push	 eax
  00026	57		 push	 edi
  00027	e8 00 00 00 00	 call	 ?_AtlGetStringResourceImage@ATL@@YAPBUATLSTRINGRESOURCEIMAGE@1@PAUHINSTANCE__@@PAUHRSRC__@@I@Z ; ATL::_AtlGetStringResourceImage
  0002c	83 c4 0c	 add	 esp, 12			; 0000000cH
  0002f	5f		 pop	 edi
  00030	5e		 pop	 esi

; 290  : }

  00031	c3		 ret	 0
?AtlGetStringResourceImage@ATL@@YAPBUATLSTRINGRESOURCEIMAGE@1@PAUHINSTANCE__@@I@Z ENDP ; ATL::AtlGetStringResourceImage
_TEXT	ENDS
PUBLIC	?AtlGetStringResourceImage@ATL@@YAPBUATLSTRINGRESOURCEIMAGE@1@PAUHINSTANCE__@@IG@Z ; ATL::AtlGetStringResourceImage
EXTRN	__imp__FindResourceExA@16:NEAR
; Function compile flags: /Ogty
;	COMDAT ?AtlGetStringResourceImage@ATL@@YAPBUATLSTRINGRESOURCEIMAGE@1@PAUHINSTANCE__@@IG@Z
_TEXT	SEGMENT
_hInstance$ = 8						; size = 4
_id$ = 12						; size = 4
_wLanguage$ = 16					; size = 2
?AtlGetStringResourceImage@ATL@@YAPBUATLSTRINGRESOURCEIMAGE@1@PAUHINSTANCE__@@IG@Z PROC NEAR ; ATL::AtlGetStringResourceImage, COMDAT

; 294  : 	HRSRC hResource;
; 295  : 
; 296  : 	hResource = ::FindResourceEx( hInstance, RT_STRING, MAKEINTRESOURCE( ((id>>4)+1) ), wLanguage );

  00000	8b 44 24 0c	 mov	 eax, DWORD PTR _wLanguage$[esp-4]
  00004	56		 push	 esi
  00005	8b 74 24 0c	 mov	 esi, DWORD PTR _id$[esp]
  00009	8b ce		 mov	 ecx, esi
  0000b	57		 push	 edi
  0000c	8b 7c 24 0c	 mov	 edi, DWORD PTR _hInstance$[esp+4]
  00010	c1 e9 04	 shr	 ecx, 4
  00013	41		 inc	 ecx
  00014	50		 push	 eax
  00015	0f b7 d1	 movzx	 edx, cx
  00018	52		 push	 edx
  00019	6a 06		 push	 6
  0001b	57		 push	 edi
  0001c	ff 15 00 00 00
	00		 call	 DWORD PTR __imp__FindResourceExA@16

; 297  : 	if( hResource == NULL )

  00022	85 c0		 test	 eax, eax
  00024	75 03		 jne	 SHORT $L59445
  00026	5f		 pop	 edi
  00027	5e		 pop	 esi

; 303  : }

  00028	c3		 ret	 0
$L59445:

; 298  : 	{
; 299  : 		return( NULL );
; 300  : 	}
; 301  : 
; 302  : 	return _AtlGetStringResourceImage( hInstance, hResource, id );

  00029	56		 push	 esi
  0002a	50		 push	 eax
  0002b	57		 push	 edi
  0002c	e8 00 00 00 00	 call	 ?_AtlGetStringResourceImage@ATL@@YAPBUATLSTRINGRESOURCEIMAGE@1@PAUHINSTANCE__@@PAUHRSRC__@@I@Z ; ATL::_AtlGetStringResourceImage
  00031	83 c4 0c	 add	 esp, 12			; 0000000cH
  00034	5f		 pop	 edi
  00035	5e		 pop	 esi

; 303  : }

  00036	c3		 ret	 0
?AtlGetStringResourceImage@ATL@@YAPBUATLSTRINGRESOURCEIMAGE@1@PAUHINSTANCE__@@IG@Z ENDP ; ATL::AtlGetStringResourceImage
_TEXT	ENDS
PUBLIC	?AtlFindStringResourceInstance@ATL@@YAPAUHINSTANCE__@@IG@Z ; ATL::AtlFindStringResourceInstance
EXTRN	?GetHInstanceAt@CAtlBaseModule@ATL@@QAEPAUHINSTANCE__@@H@Z:NEAR ; ATL::CAtlBaseModule::GetHInstanceAt
EXTRN	?_AtlBaseModule@ATL@@3VCAtlBaseModule@1@A:BYTE	; ATL::_AtlBaseModule
; Function compile flags: /Ogty
;	COMDAT ?AtlFindStringResourceInstance@ATL@@YAPAUHINSTANCE__@@IG@Z
_TEXT	SEGMENT
_nID$ = 8						; size = 4
_wLanguage$ = 12					; size = 2
?AtlFindStringResourceInstance@ATL@@YAPAUHINSTANCE__@@IG@Z PROC NEAR ; ATL::AtlFindStringResourceInstance, COMDAT

; 380  : {

  00000	53		 push	 ebx
  00001	55		 push	 ebp
  00002	56		 push	 esi
  00003	57		 push	 edi

; 381  : 	const ATLSTRINGRESOURCEIMAGE* p = NULL;

  00004	33 ff		 xor	 edi, edi

; 382  : 	HINSTANCE hInst = _AtlBaseModule.GetHInstanceAt(0);

  00006	57		 push	 edi
  00007	b9 00 00 00 00	 mov	 ecx, OFFSET FLAT:?_AtlBaseModule@ATL@@3VCAtlBaseModule@1@A
  0000c	e8 00 00 00 00	 call	 ?GetHInstanceAt@CAtlBaseModule@ATL@@QAEPAUHINSTANCE__@@H@Z ; ATL::CAtlBaseModule::GetHInstanceAt
  00011	8b f0		 mov	 esi, eax

; 383  : 
; 384  : 	for (int i = 1; hInst != NULL && p == NULL; hInst = _AtlBaseModule.GetHInstanceAt(i++))

  00013	85 f6		 test	 esi, esi
  00015	bd 01 00 00 00	 mov	 ebp, 1
  0001a	74 47		 je	 SHORT $L59538
  0001c	8b 5c 24 14	 mov	 ebx, DWORD PTR _nID$[esp+12]
$L59536:
  00020	85 ff		 test	 edi, edi
  00022	75 3f		 jne	 SHORT $L59538

; 385  : 	{
; 386  : 		p = AtlGetStringResourceImage(hInst, nID, wLanguage);

  00024	8b 44 24 18	 mov	 eax, DWORD PTR _wLanguage$[esp+12]
  00028	8b cb		 mov	 ecx, ebx
  0002a	c1 e9 04	 shr	 ecx, 4
  0002d	41		 inc	 ecx
  0002e	50		 push	 eax
  0002f	0f b7 d1	 movzx	 edx, cx
  00032	52		 push	 edx
  00033	6a 06		 push	 6
  00035	56		 push	 esi
  00036	ff 15 00 00 00
	00		 call	 DWORD PTR __imp__FindResourceExA@16
  0003c	85 c0		 test	 eax, eax
  0003e	74 11		 je	 SHORT $L123369
$L123364:
  00040	53		 push	 ebx
  00041	50		 push	 eax
  00042	56		 push	 esi
  00043	e8 00 00 00 00	 call	 ?_AtlGetStringResourceImage@ATL@@YAPBUATLSTRINGRESOURCEIMAGE@1@PAUHINSTANCE__@@PAUHRSRC__@@I@Z ; ATL::_AtlGetStringResourceImage
  00048	8b f8		 mov	 edi, eax
  0004a	83 c4 0c	 add	 esp, 12			; 0000000cH

; 387  : 		if (p != NULL)

  0004d	85 ff		 test	 edi, edi
  0004f	75 19		 jne	 SHORT $L123367
$L123369:

; 383  : 
; 384  : 	for (int i = 1; hInst != NULL && p == NULL; hInst = _AtlBaseModule.GetHInstanceAt(i++))

  00051	55		 push	 ebp
  00052	b9 00 00 00 00	 mov	 ecx, OFFSET FLAT:?_AtlBaseModule@ATL@@3VCAtlBaseModule@1@A
  00057	e8 00 00 00 00	 call	 ?GetHInstanceAt@CAtlBaseModule@ATL@@QAEPAUHINSTANCE__@@H@Z ; ATL::CAtlBaseModule::GetHInstanceAt
  0005c	8b f0		 mov	 esi, eax
  0005e	45		 inc	 ebp
  0005f	85 f6		 test	 esi, esi
  00061	75 bd		 jne	 SHORT $L59536
$L59538:
  00063	5f		 pop	 edi
  00064	5e		 pop	 esi
  00065	5d		 pop	 ebp

; 389  : 	}
; 390  : 
; 391  : 	return NULL;

  00066	33 c0		 xor	 eax, eax
  00068	5b		 pop	 ebx

; 392  : }

  00069	c3		 ret	 0
$L123367:
  0006a	5f		 pop	 edi

; 388  : 			return hInst;

  0006b	8b c6		 mov	 eax, esi
  0006d	5e		 pop	 esi
  0006e	5d		 pop	 ebp
  0006f	5b		 pop	 ebx

; 392  : }

  00070	c3		 ret	 0
?AtlFindStringResourceInstance@ATL@@YAPAUHINSTANCE__@@IG@Z ENDP ; ATL::AtlFindStringResourceInstance
_TEXT	ENDS
PUBLIC	?data@CStringData@ATL@@QAEPAXXZ			; ATL::CStringData::data
; Function compile flags: /Ogty
; File c:\program files (x86)\microsoft visual studio .net 2003\vc7\atlmfc\include\atlsimpstr.h
;	COMDAT ?data@CStringData@ATL@@QAEPAXXZ
_TEXT	SEGMENT
?data@CStringData@ATL@@QAEPAXXZ PROC NEAR		; ATL::CStringData::data, COMDAT
; _this$ = ecx

; 66   : 		return (this+1);

  00000	8d 41 10	 lea	 eax, DWORD PTR [ecx+16]

; 67   : 	}

  00003	c3		 ret	 0
?data@CStringData@ATL@@QAEPAXXZ ENDP			; ATL::CStringData::data
_TEXT	ENDS
PUBLIC	?AddRef@CStringData@ATL@@QAEXXZ			; ATL::CStringData::AddRef
; Function compile flags: /Ogty
;	COMDAT ?AddRef@CStringData@ATL@@QAEXXZ
_TEXT	SEGMENT
?AddRef@CStringData@ATL@@QAEXXZ PROC NEAR		; ATL::CStringData::AddRef, COMDAT
; _this$ = ecx

; 71   : 		ATLASSERT(nRefs > 0);
; 72   : 		_InterlockedIncrement(&nRefs);

  00000	83 c1 0c	 add	 ecx, 12			; 0000000cH
  00003	b8 01 00 00 00	 mov	 eax, 1
  00008	f0 0f c1 01	 lock	  xadd	 DWORD PTR [ecx], eax

; 73   : 	}

  0000c	c3		 ret	 0
?AddRef@CStringData@ATL@@QAEXXZ ENDP			; ATL::CStringData::AddRef
_TEXT	ENDS
PUBLIC	?IsLocked@CStringData@ATL@@QBE_NXZ		; ATL::CStringData::IsLocked
; Function compile flags: /Ogty
;	COMDAT ?IsLocked@CStringData@ATL@@QBE_NXZ
_TEXT	SEGMENT
?IsLocked@CStringData@ATL@@QBE_NXZ PROC NEAR		; ATL::CStringData::IsLocked, COMDAT
; _this$ = ecx

; 76   : 		return nRefs < 0;

  00000	8b 51 0c	 mov	 edx, DWORD PTR [ecx+12]
  00003	33 c0		 xor	 eax, eax
  00005	85 d2		 test	 edx, edx
  00007	0f 9c c0	 setl	 al

; 77   : 	}

  0000a	c3		 ret	 0
?IsLocked@CStringData@ATL@@QBE_NXZ ENDP			; ATL::CStringData::IsLocked
_TEXT	ENDS
PUBLIC	?IsShared@CStringData@ATL@@QBE_NXZ		; ATL::CStringData::IsShared
; Function compile flags: /Ogty
;	COMDAT ?IsShared@CStringData@ATL@@QBE_NXZ
_TEXT	SEGMENT
?IsShared@CStringData@ATL@@QBE_NXZ PROC NEAR		; ATL::CStringData::IsShared, COMDAT
; _this$ = ecx

; 80   : 		return( nRefs > 1 ); 

  00000	8b 51 0c	 mov	 edx, DWORD PTR [ecx+12]
  00003	33 c0		 xor	 eax, eax
  00005	83 fa 01	 cmp	 edx, 1
  00008	0f 9f c0	 setg	 al

; 81   : 	}

  0000b	c3		 ret	 0
?IsShared@CStringData@ATL@@QBE_NXZ ENDP			; ATL::CStringData::IsShared
_TEXT	ENDS
PUBLIC	?Release@CStringData@ATL@@QAEXXZ		; ATL::CStringData::Release
; Function compile flags: /Ogty
;	COMDAT ?Release@CStringData@ATL@@QAEXXZ
_TEXT	SEGMENT
?Release@CStringData@ATL@@QAEXXZ PROC NEAR		; ATL::CStringData::Release, COMDAT
; _this$ = ecx

; 93   : 		ATLASSERT( nRefs != 0 );
; 94   : 
; 95   : 		if( _InterlockedDecrement( &nRefs ) <= 0 )

  00000	8d 41 0c	 lea	 eax, DWORD PTR [ecx+12]
  00003	83 ca ff	 or	 edx, -1
  00006	f0 0f c1 10	 lock	  xadd	 DWORD PTR [eax], edx
  0000a	4a		 dec	 edx
  0000b	85 d2		 test	 edx, edx
  0000d	7f 0a		 jg	 SHORT $L73499

; 96   : 		{
; 97   : 			pStringMgr->Free( this );

  0000f	8b 01		 mov	 eax, DWORD PTR [ecx]
  00011	8b 10		 mov	 edx, DWORD PTR [eax]
  00013	51		 push	 ecx
  00014	8b c8		 mov	 ecx, eax
  00016	ff 52 04	 call	 DWORD PTR [edx+4]
$L73499:

; 98   : 		}
; 99   : 	}

  00019	c3		 ret	 0
?Release@CStringData@ATL@@QAEXXZ ENDP			; ATL::CStringData::Release
_TEXT	ENDS
PUBLIC	?assign@?$char_traits@D@std@@SAXAADABD@Z	; std::char_traits<char>::assign
; Function compile flags: /Ogty
; File c:\program files (x86)\microsoft visual studio .net 2003\vc7\include\iosfwd
;	COMDAT ?assign@?$char_traits@D@std@@SAXAADABD@Z
_TEXT	SEGMENT
__Left$ = 8						; size = 4
__Right$ = 12						; size = 4
?assign@?$char_traits@D@std@@SAXAADABD@Z PROC NEAR	; std::char_traits<char>::assign, COMDAT

; 331  : 		_Left = _Right;

  00000	8b 44 24 08	 mov	 eax, DWORD PTR __Right$[esp-4]
  00004	8a 08		 mov	 cl, BYTE PTR [eax]
  00006	8b 54 24 04	 mov	 edx, DWORD PTR __Left$[esp-4]
  0000a	88 0a		 mov	 BYTE PTR [edx], cl

; 332  : 		}

  0000c	c3		 ret	 0
?assign@?$char_traits@D@std@@SAXAADABD@Z ENDP		; std::char_traits<char>::assign
_TEXT	ENDS
PUBLIC	?length@?$char_traits@D@std@@SAIPBD@Z		; std::char_traits<char>::length
; Function compile flags: /Ogty
;	COMDAT ?length@?$char_traits@D@std@@SAIPBD@Z
_TEXT	SEGMENT
__First$ = 8						; size = 4
?length@?$char_traits@D@std@@SAIPBD@Z PROC NEAR		; std::char_traits<char>::length, COMDAT

; 352  : 		return (::strlen(_First));

  00000	8b 44 24 04	 mov	 eax, DWORD PTR __First$[esp-4]
  00004	8d 50 01	 lea	 edx, DWORD PTR [eax+1]
$L123391:
  00007	8a 08		 mov	 cl, BYTE PTR [eax]
  00009	40		 inc	 eax
  0000a	84 c9		 test	 cl, cl
  0000c	75 f9		 jne	 SHORT $L123391
  0000e	2b c2		 sub	 eax, edx

; 353  : 		}

  00010	c3		 ret	 0
?length@?$char_traits@D@std@@SAIPBD@Z ENDP		; std::char_traits<char>::length
_TEXT	ENDS
PUBLIC	?copy@?$char_traits@D@std@@SAPADPADPBDI@Z	; std::char_traits<char>::copy
; Function compile flags: /Ogty
;	COMDAT ?copy@?$char_traits@D@std@@SAPADPADPBDI@Z
_TEXT	SEGMENT
__First1$ = 8						; size = 4
__First2$ = 12						; size = 4
__Count$ = 16						; size = 4
?copy@?$char_traits@D@std@@SAPADPADPBDI@Z PROC NEAR	; std::char_traits<char>::copy, COMDAT

; 358  : 		return ((_Elem *)::memcpy(_First1, _First2, _Count));

  00000	8b 4c 24 0c	 mov	 ecx, DWORD PTR __Count$[esp-4]
  00004	56		 push	 esi
  00005	8b 74 24 0c	 mov	 esi, DWORD PTR __First2$[esp]
  00009	57		 push	 edi
  0000a	8b 7c 24 0c	 mov	 edi, DWORD PTR __First1$[esp+4]
  0000e	8b c1		 mov	 eax, ecx
  00010	8b d7		 mov	 edx, edi
  00012	c1 e9 02	 shr	 ecx, 2
  00015	f3 a5		 rep movsd
  00017	8b c8		 mov	 ecx, eax
  00019	83 e1 03	 and	 ecx, 3
  0001c	f3 a4		 rep movsb
  0001e	5f		 pop	 edi
  0001f	8b c2		 mov	 eax, edx
  00021	5e		 pop	 esi

; 359  : 		}

  00022	c3		 ret	 0
?copy@?$char_traits@D@std@@SAPADPADPBDI@Z ENDP		; std::char_traits<char>::copy
_TEXT	ENDS
PUBLIC	?move@?$char_traits@D@std@@SAPADPADPBDI@Z	; std::char_traits<char>::move
EXTRN	_memmove:NEAR
; Function compile flags: /Ogty
;	COMDAT ?move@?$char_traits@D@std@@SAPADPADPBDI@Z
_TEXT	SEGMENT
__First1$ = 8						; size = 4
__First2$ = 12						; size = 4
__Count$ = 16						; size = 4
?move@?$char_traits@D@std@@SAPADPADPBDI@Z PROC NEAR	; std::char_traits<char>::move, COMDAT

; 370  : 		return ((_Elem *)::memmove(_First1, _First2, _Count));

  00000	e9 00 00 00 00	 jmp	 _memmove
?move@?$char_traits@D@std@@SAPADPADPBDI@Z ENDP		; std::char_traits<char>::move
_TEXT	ENDS
PUBLIC	??B?$CSimpleStringT@D$0A@@ATL@@QBEPBDXZ		; ATL::CSimpleStringT<char,0>::operator char const *
; Function compile flags: /Ogty
; File c:\program files (x86)\microsoft visual studio .net 2003\vc7\atlmfc\include\atlsimpstr.h
;	COMDAT ??B?$CSimpleStringT@D$0A@@ATL@@QBEPBDXZ
_TEXT	SEGMENT
??B?$CSimpleStringT@D$0A@@ATL@@QBEPBDXZ PROC NEAR	; ATL::CSimpleStringT<char,0>::operator char const *, COMDAT
; _this$ = ecx

; 379  : 		return( m_pszData );

  00000	8b 01		 mov	 eax, DWORD PTR [ecx]

; 380  : 	}

  00002	c3		 ret	 0
??B?$CSimpleStringT@D$0A@@ATL@@QBEPBDXZ ENDP		; ATL::CSimpleStringT<char,0>::operator char const *
_TEXT	ENDS
PUBLIC	?size@?$basic_string@DU?$char_traits@D@std@@V?$allocator@D@2@@std@@QBEIXZ ; std::basic_string<char,std::char_traits<char>,std::allocator<char> >::size
; Function compile flags: /Ogty
; File c:\program files (x86)\microsoft visual studio .net 2003\vc7\include\xstring
;	COMDAT ?size@?$basic_string@DU?$char_traits@D@std@@V?$allocator@D@2@@std@@QBEIXZ
_TEXT	SEGMENT
?size@?$basic_string@DU?$char_traits@D@std@@V?$allocator@D@2@@std@@QBEIXZ PROC NEAR ; std::basic_string<char,std::char_traits<char>,std::allocator<char> >::size, COMDAT
; _this$ = ecx

; 1109 : 		return (_Mysize);

  00000	8b 41 14	 mov	 eax, DWORD PTR [ecx+20]

; 1110 : 		}

  00003	c3		 ret	 0
?size@?$basic_string@DU?$char_traits@D@std@@V?$allocator@D@2@@std@@QBEIXZ ENDP ; std::basic_string<char,std::char_traits<char>,std::allocator<char> >::size
_TEXT	ENDS
PUBLIC	?FindStringResourceInstance@?$StrTraitATL@DV?$ChTraitsCRT@D@ATL@@@ATL@@SAPAUHINSTANCE__@@I@Z ; ATL::StrTraitATL<char,ATL::ChTraitsCRT<char> >::FindStringResourceInstance
; Function compile flags: /Ogty
; File c:\program files (x86)\microsoft visual studio .net 2003\vc7\atlmfc\include\atlstr.h
;	COMDAT ?FindStringResourceInstance@?$StrTraitATL@DV?$ChTraitsCRT@D@ATL@@@ATL@@SAPAUHINSTANCE__@@I@Z
_TEXT	SEGMENT
_nID$ = 8						; size = 4
?FindStringResourceInstance@?$StrTraitATL@DV?$ChTraitsCRT@D@ATL@@@ATL@@SAPAUHINSTANCE__@@I@Z PROC NEAR ; ATL::StrTraitATL<char,ATL::ChTraitsCRT<char> >::FindStringResourceInstance, COMDAT

; 949  : 		return( AtlFindStringResourceInstance( nID ) );

  00000	8b 44 24 04	 mov	 eax, DWORD PTR _nID$[esp-4]
  00004	6a 00		 push	 0
  00006	50		 push	 eax
  00007	e8 00 00 00 00	 call	 ?AtlFindStringResourceInstance@ATL@@YAPAUHINSTANCE__@@IG@Z ; ATL::AtlFindStringResourceInstance
  0000c	83 c4 08	 add	 esp, 8

; 950  : 	}

  0000f	c3		 ret	 0
?FindStringResourceInstance@?$StrTraitATL@DV?$ChTraitsCRT@D@ATL@@@ATL@@SAPAUHINSTANCE__@@I@Z ENDP ; ATL::StrTraitATL<char,ATL::ChTraitsCRT<char> >::FindStringResourceInstance
_TEXT	ENDS
PUBLIC	?GetDefaultManager@?$StrTraitATL@DV?$ChTraitsCRT@D@ATL@@@ATL@@SAPAUIAtlStringMgr@2@XZ ; ATL::StrTraitATL<char,ATL::ChTraitsCRT<char> >::GetDefaultManager
EXTRN	?g_strmgr@ATL@@3VCAtlStringMgr@1@A:BYTE		; ATL::g_strmgr
; Function compile flags: /Ogty
;	COMDAT ?GetDefaultManager@?$StrTraitATL@DV?$ChTraitsCRT@D@ATL@@@ATL@@SAPAUIAtlStringMgr@2@XZ
_TEXT	SEGMENT
?GetDefaultManager@?$StrTraitATL@DV?$ChTraitsCRT@D@ATL@@@ATL@@SAPAUIAtlStringMgr@2@XZ PROC NEAR ; ATL::StrTraitATL<char,ATL::ChTraitsCRT<char> >::GetDefaultManager, COMDAT

; 954  : 		return( &g_strmgr );

  00000	b8 00 00 00 00	 mov	 eax, OFFSET FLAT:?g_strmgr@ATL@@3VCAtlStringMgr@1@A ; ATL::g_strmgr

; 955  : 	}

  00005	c3		 ret	 0
?GetDefaultManager@?$StrTraitATL@DV?$ChTraitsCRT@D@ATL@@@ATL@@SAPAUIAtlStringMgr@2@XZ ENDP ; ATL::StrTraitATL<char,ATL::ChTraitsCRT<char> >::GetDefaultManager
_TEXT	ENDS
PUBLIC	?_Myptr@?$basic_string@DU?$char_traits@D@std@@V?$allocator@D@2@@std@@QBEPBDXZ ; std::basic_string<char,std::char_traits<char>,std::allocator<char> >::_Myptr
; Function compile flags: /Ogty
; File c:\program files (x86)\microsoft visual studio .net 2003\vc7\include\xstring
;	COMDAT ?_Myptr@?$basic_string@DU?$char_traits@D@std@@V?$allocator@D@2@@std@@QBEPBDXZ
_TEXT	SEGMENT
?_Myptr@?$basic_string@DU?$char_traits@D@std@@V?$allocator@D@2@@std@@QBEPBDXZ PROC NEAR ; std::basic_string<char,std::char_traits<char>,std::allocator<char> >::_Myptr, COMDAT
; _this$ = ecx

; 1537 : 		return (_BUF_SIZE <= _Myres ? _Bx._Ptr : _Bx._Buf);

  00000	83 79 18 10	 cmp	 DWORD PTR [ecx+24], 16	; 00000010H
  00004	72 04		 jb	 SHORT $L123414
  00006	8b 41 04	 mov	 eax, DWORD PTR [ecx+4]

; 1538 : 		}

  00009	c3		 ret	 0
$L123414:

; 1537 : 		return (_BUF_SIZE <= _Myres ? _Bx._Ptr : _Bx._Buf);

  0000a	8d 41 04	 lea	 eax, DWORD PTR [ecx+4]

; 1538 : 		}

  0000d	c3		 ret	 0
?_Myptr@?$basic_string@DU?$char_traits@D@std@@V?$allocator@D@2@@std@@QBEPBDXZ ENDP ; std::basic_string<char,std::char_traits<char>,std::allocator<char> >::_Myptr
_TEXT	ENDS
PUBLIC	??0?$allocator@D@std@@QAE@ABV01@@Z		; std::allocator<char>::allocator<char>
; Function compile flags: /Ogty
; File c:\program files (x86)\microsoft visual studio .net 2003\vc7\include\xmemory
;	COMDAT ??0?$allocator@D@std@@QAE@ABV01@@Z
_TEXT	SEGMENT
___formal$ = 8						; size = 4
??0?$allocator@D@std@@QAE@ABV01@@Z PROC NEAR		; std::allocator<char>::allocator<char>, COMDAT
; _this$ = ecx

; 115  : 	allocator(const allocator<_Ty>&)

  00000	8b c1		 mov	 eax, ecx

; 116  : 		{	// construct by copying (do nothing)
; 117  : 		}

  00002	c2 04 00	 ret	 4
??0?$allocator@D@std@@QAE@ABV01@@Z ENDP			; std::allocator<char>::allocator<char>
_TEXT	ENDS
PUBLIC	?GetString@?$CSimpleStringT@D$0A@@ATL@@QBEPBDXZ	; ATL::CSimpleStringT<char,0>::GetString
; Function compile flags: /Ogty
; File c:\program files (x86)\microsoft visual studio .net 2003\vc7\atlmfc\include\atlsimpstr.h
;	COMDAT ?GetString@?$CSimpleStringT@D$0A@@ATL@@QBEPBDXZ
_TEXT	SEGMENT
?GetString@?$CSimpleStringT@D$0A@@ATL@@QBEPBDXZ PROC NEAR ; ATL::CSimpleStringT<char,0>::GetString, COMDAT
; _this$ = ecx

; 510  : 		return( m_pszData );

  00000	8b 01		 mov	 eax, DWORD PTR [ecx]

; 511  : 	}

  00002	c3		 ret	 0
?GetString@?$CSimpleStringT@D$0A@@ATL@@QBEPBDXZ ENDP	; ATL::CSimpleStringT<char,0>::GetString
_TEXT	ENDS
PUBLIC	?Attach@?$CSimpleStringT@D$0A@@ATL@@AAEXPAUCStringData@2@@Z ; ATL::CSimpleStringT<char,0>::Attach
; Function compile flags: /Ogty
;	COMDAT ?Attach@?$CSimpleStringT@D$0A@@ATL@@AAEXPAUCStringData@2@@Z
_TEXT	SEGMENT
_pData$ = 8						; size = 4
?Attach@?$CSimpleStringT@D$0A@@ATL@@AAEXPAUCStringData@2@@Z PROC NEAR ; ATL::CSimpleStringT<char,0>::Attach, COMDAT
; _this$ = ecx

; 712  : 		m_pszData = static_cast< PXSTR >( pData->data() );

  00000	8b 44 24 04	 mov	 eax, DWORD PTR _pData$[esp-4]
  00004	83 c0 10	 add	 eax, 16			; 00000010H
  00007	89 01		 mov	 DWORD PTR [ecx], eax

; 713  : 	}

  00009	c2 04 00	 ret	 4
?Attach@?$CSimpleStringT@D$0A@@ATL@@AAEXPAUCStringData@2@@Z ENDP ; ATL::CSimpleStringT<char,0>::Attach
_TEXT	ENDS
PUBLIC	?GetData@?$CSimpleStringT@D$0A@@ATL@@ABEPAUCStringData@2@XZ ; ATL::CSimpleStringT<char,0>::GetData
; Function compile flags: /Ogty
;	COMDAT ?GetData@?$CSimpleStringT@D$0A@@ATL@@ABEPAUCStringData@2@XZ
_TEXT	SEGMENT
?GetData@?$CSimpleStringT@D$0A@@ATL@@ABEPAUCStringData@2@XZ PROC NEAR ; ATL::CSimpleStringT<char,0>::GetData, COMDAT
; _this$ = ecx

; 731  : 		return( reinterpret_cast< CStringData* >( m_pszData )-1 );

  00000	8b 01		 mov	 eax, DWORD PTR [ecx]
  00002	83 e8 10	 sub	 eax, 16			; 00000010H

; 732  : 	}

  00005	c3		 ret	 0
?GetData@?$CSimpleStringT@D$0A@@ATL@@ABEPAUCStringData@2@XZ ENDP ; ATL::CSimpleStringT<char,0>::GetData
_TEXT	ENDS
PUBLIC	?GetFormattedLength@?$ChTraitsCRT@D@ATL@@SAHPBDPAD@Z ; ATL::ChTraitsCRT<char>::GetFormattedLength
EXTRN	__vscprintf:NEAR
; Function compile flags: /Ogty
; File c:\program files (x86)\microsoft visual studio .net 2003\vc7\atlmfc\include\cstringt.h
;	COMDAT ?GetFormattedLength@?$ChTraitsCRT@D@ATL@@SAHPBDPAD@Z
_TEXT	SEGMENT
_pszFormat$ = 8						; size = 4
_args$ = 12						; size = 4
?GetFormattedLength@?$ChTraitsCRT@D@ATL@@SAHPBDPAD@Z PROC NEAR ; ATL::ChTraitsCRT<char>::GetFormattedLength, COMDAT

; 408  : 		return _vscprintf( pszFormat, args );

  00000	e9 00 00 00 00	 jmp	 __vscprintf
?GetFormattedLength@?$ChTraitsCRT@D@ATL@@SAHPBDPAD@Z ENDP ; ATL::ChTraitsCRT<char>::GetFormattedLength
_TEXT	ENDS
PUBLIC	?Format@?$ChTraitsCRT@D@ATL@@SAHPADPBD0@Z	; ATL::ChTraitsCRT<char>::Format
EXTRN	_vsprintf:NEAR
; Function compile flags: /Ogty
;	COMDAT ?Format@?$ChTraitsCRT@D@ATL@@SAHPADPBD0@Z
_TEXT	SEGMENT
_pszBuffer$ = 8						; size = 4
_pszFormat$ = 12					; size = 4
_args$ = 16						; size = 4
?Format@?$ChTraitsCRT@D@ATL@@SAHPADPBD0@Z PROC NEAR	; ATL::ChTraitsCRT<char>::Format, COMDAT

; 413  : 		return vsprintf( pszBuffer, pszFormat, args );

  00000	e9 00 00 00 00	 jmp	 _vsprintf
?Format@?$ChTraitsCRT@D@ATL@@SAHPADPBD0@Z ENDP		; ATL::ChTraitsCRT<char>::Format
_TEXT	ENDS
PUBLIC	?GetBaseTypeLength@?$ChTraitsCRT@D@ATL@@SAHPBGH@Z ; ATL::ChTraitsCRT<char>::GetBaseTypeLength
EXTRN	__imp__WideCharToMultiByte@32:NEAR
; Function compile flags: /Ogty
;	COMDAT ?GetBaseTypeLength@?$ChTraitsCRT@D@ATL@@SAHPBGH@Z
_TEXT	SEGMENT
_pszSource$ = 8						; size = 4
_nLength$ = 12						; size = 4
?GetBaseTypeLength@?$ChTraitsCRT@D@ATL@@SAHPBGH@Z PROC NEAR ; ATL::ChTraitsCRT<char>::GetBaseTypeLength, COMDAT

; 437  : 		// Returns required buffer length in XCHARs
; 438  : 		return ::WideCharToMultiByte( _AtlGetConversionACP(), 0, pszSource, nLength, NULL, 0, NULL, NULL );

  00000	8b 44 24 08	 mov	 eax, DWORD PTR _nLength$[esp-4]
  00004	8b 4c 24 04	 mov	 ecx, DWORD PTR _pszSource$[esp-4]
  00008	6a 00		 push	 0
  0000a	6a 00		 push	 0
  0000c	6a 00		 push	 0
  0000e	6a 00		 push	 0
  00010	50		 push	 eax
  00011	51		 push	 ecx
  00012	6a 00		 push	 0
  00014	ff 15 00 00 00
	00		 call	 DWORD PTR ?g_pfnGetThreadACP@ATL@@3P6GIXZA ; ATL::g_pfnGetThreadACP
  0001a	50		 push	 eax
  0001b	ff 15 00 00 00
	00		 call	 DWORD PTR __imp__WideCharToMultiByte@32

; 439  : 	}

  00021	c3		 ret	 0
?GetBaseTypeLength@?$ChTraitsCRT@D@ATL@@SAHPBGH@Z ENDP	; ATL::ChTraitsCRT<char>::GetBaseTypeLength
_TEXT	ENDS
PUBLIC	?ConvertToBaseType@?$ChTraitsCRT@D@ATL@@SAXPADHPBGH@Z ; ATL::ChTraitsCRT<char>::ConvertToBaseType
; Function compile flags: /Ogty
;	COMDAT ?ConvertToBaseType@?$ChTraitsCRT@D@ATL@@SAXPADHPBGH@Z
_TEXT	SEGMENT
_pszDest$ = 8						; size = 4
_nDestLength$ = 12					; size = 4
_pszSrc$ = 16						; size = 4
_nSrcLength$ = 20					; size = 4
?ConvertToBaseType@?$ChTraitsCRT@D@ATL@@SAXPADHPBGH@Z PROC NEAR ; ATL::ChTraitsCRT<char>::ConvertToBaseType, COMDAT

; 452  : 		// nLen is in XCHARs
; 453  : 		::WideCharToMultiByte( _AtlGetConversionACP(), 0, pszSrc, nSrcLength, pszDest, nDestLength, NULL, NULL );

  00000	8b 44 24 08	 mov	 eax, DWORD PTR _nDestLength$[esp-4]
  00004	8b 4c 24 04	 mov	 ecx, DWORD PTR _pszDest$[esp-4]
  00008	8b 54 24 10	 mov	 edx, DWORD PTR _nSrcLength$[esp-4]
  0000c	6a 00		 push	 0
  0000e	6a 00		 push	 0
  00010	50		 push	 eax
  00011	8b 44 24 18	 mov	 eax, DWORD PTR _pszSrc$[esp+8]
  00015	51		 push	 ecx
  00016	52		 push	 edx
  00017	50		 push	 eax
  00018	6a 00		 push	 0
  0001a	ff 15 00 00 00
	00		 call	 DWORD PTR ?g_pfnGetThreadACP@ATL@@3P6GIXZA ; ATL::g_pfnGetThreadACP
  00020	50		 push	 eax
  00021	ff 15 00 00 00
	00		 call	 DWORD PTR __imp__WideCharToMultiByte@32

; 454  : 	}

  00027	c3		 ret	 0
?ConvertToBaseType@?$ChTraitsCRT@D@ATL@@SAXPADHPBGH@Z ENDP ; ATL::ChTraitsCRT<char>::ConvertToBaseType
_TEXT	ENDS
PUBLIC	?_Myptr@?$basic_string@DU?$char_traits@D@std@@V?$allocator@D@2@@std@@QAEPADXZ ; std::basic_string<char,std::char_traits<char>,std::allocator<char> >::_Myptr
; Function compile flags: /Ogty
; File c:\program files (x86)\microsoft visual studio .net 2003\vc7\include\xstring
;	COMDAT ?_Myptr@?$basic_string@DU?$char_traits@D@std@@V?$allocator@D@2@@std@@QAEPADXZ
_TEXT	SEGMENT
?_Myptr@?$basic_string@DU?$char_traits@D@std@@V?$allocator@D@2@@std@@QAEPADXZ PROC NEAR ; std::basic_string<char,std::char_traits<char>,std::allocator<char> >::_Myptr, COMDAT
; _this$ = ecx

; 1532 : 		return (_BUF_SIZE <= _Myres ? _Bx._Ptr : _Bx._Buf);

  00000	83 79 18 10	 cmp	 DWORD PTR [ecx+24], 16	; 00000010H
  00004	72 04		 jb	 SHORT $L123454
  00006	8b 41 04	 mov	 eax, DWORD PTR [ecx+4]

; 1533 : 		}

  00009	c3		 ret	 0
$L123454:

; 1532 : 		return (_BUF_SIZE <= _Myres ? _Bx._Ptr : _Bx._Buf);

  0000a	8d 41 04	 lea	 eax, DWORD PTR [ecx+4]

; 1533 : 		}

  0000d	c3		 ret	 0
?_Myptr@?$basic_string@DU?$char_traits@D@std@@V?$allocator@D@2@@std@@QAEPADXZ ENDP ; std::basic_string<char,std::char_traits<char>,std::allocator<char> >::_Myptr
_TEXT	ENDS
PUBLIC	?deallocate@?$allocator@D@std@@QAEXPADI@Z	; std::allocator<char>::deallocate
EXTRN	??3@YAXPAX@Z:NEAR				; operator delete
; Function compile flags: /Ogty
; File c:\program files (x86)\microsoft visual studio .net 2003\vc7\include\xmemory
;	COMDAT ?deallocate@?$allocator@D@std@@QAEXPADI@Z
_TEXT	SEGMENT
__Ptr$ = 8						; size = 4
___formal$ = 12						; size = 4
?deallocate@?$allocator@D@std@@QAEXPADI@Z PROC NEAR	; std::allocator<char>::deallocate, COMDAT
; _this$ = ecx

; 132  : 		operator delete(_Ptr);

  00000	8b 44 24 04	 mov	 eax, DWORD PTR __Ptr$[esp-4]
  00004	50		 push	 eax
  00005	e8 00 00 00 00	 call	 ??3@YAXPAX@Z		; operator delete
  0000a	59		 pop	 ecx

; 133  : 		}

  0000b	c2 08 00	 ret	 8
?deallocate@?$allocator@D@std@@QAEXPADI@Z ENDP		; std::allocator<char>::deallocate
_TEXT	ENDS
PUBLIC	?CopyChars@?$CSimpleStringT@D$0A@@ATL@@SAXPADPBDH@Z ; ATL::CSimpleStringT<char,0>::CopyChars
; Function compile flags: /Ogty
; File c:\program files (x86)\microsoft visual studio .net 2003\vc7\atlmfc\include\atlsimpstr.h
;	COMDAT ?CopyChars@?$CSimpleStringT@D$0A@@ATL@@SAXPADPBDH@Z
_TEXT	SEGMENT
_pchDest$ = 8						; size = 4
_pchSrc$ = 12						; size = 4
_nChars$ = 16						; size = 4
?CopyChars@?$CSimpleStringT@D$0A@@ATL@@SAXPADPBDH@Z PROC NEAR ; ATL::CSimpleStringT<char,0>::CopyChars, COMDAT

; 653  : 		memcpy( pchDest, pchSrc, nChars*sizeof( XCHAR ) );

  00000	8b 4c 24 0c	 mov	 ecx, DWORD PTR _nChars$[esp-4]
  00004	56		 push	 esi
  00005	8b 74 24 0c	 mov	 esi, DWORD PTR _pchSrc$[esp]
  00009	8b c1		 mov	 eax, ecx
  0000b	57		 push	 edi
  0000c	8b 7c 24 0c	 mov	 edi, DWORD PTR _pchDest$[esp+4]
  00010	c1 e9 02	 shr	 ecx, 2
  00013	f3 a5		 rep movsd
  00015	8b c8		 mov	 ecx, eax
  00017	83 e1 03	 and	 ecx, 3
  0001a	f3 a4		 rep movsb
  0001c	5f		 pop	 edi
  0001d	5e		 pop	 esi

; 654  : 	}

  0001e	c3		 ret	 0
?CopyChars@?$CSimpleStringT@D$0A@@ATL@@SAXPADPBDH@Z ENDP ; ATL::CSimpleStringT<char,0>::CopyChars
_TEXT	ENDS
PUBLIC	?CopyCharsOverlapped@?$CSimpleStringT@D$0A@@ATL@@SAXPADPBDH@Z ; ATL::CSimpleStringT<char,0>::CopyCharsOverlapped
; Function compile flags: /Ogty
;	COMDAT ?CopyCharsOverlapped@?$CSimpleStringT@D$0A@@ATL@@SAXPADPBDH@Z
_TEXT	SEGMENT
_pchDest$ = 8						; size = 4
_pchSrc$ = 12						; size = 4
_nChars$ = 16						; size = 4
?CopyCharsOverlapped@?$CSimpleStringT@D$0A@@ATL@@SAXPADPBDH@Z PROC NEAR ; ATL::CSimpleStringT<char,0>::CopyCharsOverlapped, COMDAT

; 657  : 		memmove( pchDest, pchSrc, nChars*sizeof( XCHAR ) );

  00000	e9 00 00 00 00	 jmp	 _memmove
?CopyCharsOverlapped@?$CSimpleStringT@D$0A@@ATL@@SAXPADPBDH@Z ENDP ; ATL::CSimpleStringT<char,0>::CopyCharsOverlapped
_TEXT	ENDS
PUBLIC	?StringLength@?$CSimpleStringT@D$0A@@ATL@@SAHPBD@Z ; ATL::CSimpleStringT<char,0>::StringLength
; Function compile flags: /Ogty
;	COMDAT ?StringLength@?$CSimpleStringT@D$0A@@ATL@@SAHPBD@Z
_TEXT	SEGMENT
_psz$ = 8						; size = 4
?StringLength@?$CSimpleStringT@D$0A@@ATL@@SAHPBD@Z PROC NEAR ; ATL::CSimpleStringT<char,0>::StringLength, COMDAT

; 678  : 		if( psz == NULL )

  00000	8b 44 24 04	 mov	 eax, DWORD PTR _psz$[esp-4]
  00004	85 c0		 test	 eax, eax
  00006	75 01		 jne	 SHORT $L120135

; 683  : 	}

  00008	c3		 ret	 0
$L120135:

; 679  : 		{
; 680  : 			return( 0 );
; 681  : 		}
; 682  : 		return( int( strlen( psz ) ) );

  00009	8d 50 01	 lea	 edx, DWORD PTR [eax+1]
  0000c	8d 64 24 00	 npad	 4
$L123468:
  00010	8a 08		 mov	 cl, BYTE PTR [eax]
  00012	40		 inc	 eax
  00013	84 c9		 test	 cl, cl
  00015	75 f9		 jne	 SHORT $L123468
  00017	2b c2		 sub	 eax, edx

; 683  : 	}

  00019	c3		 ret	 0
?StringLength@?$CSimpleStringT@D$0A@@ATL@@SAHPBD@Z ENDP	; ATL::CSimpleStringT<char,0>::StringLength
_TEXT	ENDS
PUBLIC	?ThrowMemoryException@?$CSimpleStringT@D$0A@@ATL@@KAXXZ ; ATL::CSimpleStringT<char,0>::ThrowMemoryException
; Function compile flags: /Ogty
;	COMDAT ?ThrowMemoryException@?$CSimpleStringT@D$0A@@ATL@@KAXXZ
_TEXT	SEGMENT
?ThrowMemoryException@?$CSimpleStringT@D$0A@@ATL@@KAXXZ PROC NEAR ; ATL::CSimpleStringT<char,0>::ThrowMemoryException, COMDAT

; 705  : 		AtlThrow( E_OUTOFMEMORY );

  00000	68 0e 00 07 80	 push	 -2147024882		; 8007000eH
  00005	e8 00 00 00 00	 call	 ?AtlThrow@ATL@@YGXJ@Z	; ATL::AtlThrow
$L123473:
$L123472:
  0000a	cc		 int	 3
?ThrowMemoryException@?$CSimpleStringT@D$0A@@ATL@@KAXXZ ENDP ; ATL::CSimpleStringT<char,0>::ThrowMemoryException
_TEXT	ENDS
PUBLIC	?Fork@?$CSimpleStringT@D$0A@@ATL@@AAEXH@Z	; ATL::CSimpleStringT<char,0>::Fork
; Function compile flags: /Ogty
;	COMDAT ?Fork@?$CSimpleStringT@D$0A@@ATL@@AAEXH@Z
_TEXT	SEGMENT
_this$ = -4						; size = 4
tv181 = 8						; size = 4
_nLength$ = 8						; size = 4
?Fork@?$CSimpleStringT@D$0A@@ATL@@AAEXH@Z PROC NEAR	; ATL::CSimpleStringT<char,0>::Fork, COMDAT
; _this$ = ecx

; 715  : 	{

  00000	51		 push	 ecx
  00001	53		 push	 ebx

; 716  : 		CStringData* pOldData = GetData();

  00002	8b 19		 mov	 ebx, DWORD PTR [ecx]
  00004	83 eb 10	 sub	 ebx, 16			; 00000010H
  00007	55		 push	 ebp

; 717  : 		int nOldLength = pOldData->nDataLength;

  00008	8b 6b 04	 mov	 ebp, DWORD PTR [ebx+4]
  0000b	89 4c 24 08	 mov	 DWORD PTR _this$[esp+12], ecx

; 718  : 		CStringData* pNewData = pOldData->pStringMgr->Clone()->Allocate( nLength, sizeof( XCHAR ) );

  0000f	8b 0b		 mov	 ecx, DWORD PTR [ebx]
  00011	8b 01		 mov	 eax, DWORD PTR [ecx]
  00013	56		 push	 esi
  00014	ff 50 10	 call	 DWORD PTR [eax+16]
  00017	8b 74 24 14	 mov	 esi, DWORD PTR _nLength$[esp+12]
  0001b	8b 10		 mov	 edx, DWORD PTR [eax]
  0001d	6a 01		 push	 1
  0001f	56		 push	 esi
  00020	8b c8		 mov	 ecx, eax
  00022	ff 12		 call	 DWORD PTR [edx]

; 719  : 		if( pNewData == NULL )

  00024	85 c0		 test	 eax, eax
  00026	75 05		 jne	 SHORT $L120144

; 720  : 		{
; 721  : 			ThrowMemoryException();

  00028	e8 00 00 00 00	 call	 ?ThrowMemoryException@?$CSimpleStringT@D$0A@@ATL@@KAXXZ ; ATL::CSimpleStringT<char,0>::ThrowMemoryException
$L123504:
$L120144:

; 722  : 		}
; 723  : 		int nCharsToCopy = ((nOldLength < nLength) ? nOldLength : nLength)+1;  // Copy '\0'

  0002d	3b ee		 cmp	 ebp, esi
  0002f	7d 02		 jge	 SHORT $L123478
  00031	8b f5		 mov	 esi, ebp
$L123478:
  00033	8d 4e 01	 lea	 ecx, DWORD PTR [esi+1]

; 724  : 		CopyChars( PXSTR( pNewData->data() ), PCXSTR( pOldData->data() ), nCharsToCopy );

  00036	8b d1		 mov	 edx, ecx
  00038	57		 push	 edi
  00039	c1 e9 02	 shr	 ecx, 2
  0003c	8d 78 10	 lea	 edi, DWORD PTR [eax+16]
  0003f	89 7c 24 18	 mov	 DWORD PTR tv181[esp+16], edi
  00043	8d 73 10	 lea	 esi, DWORD PTR [ebx+16]
  00046	f3 a5		 rep movsd
  00048	8b ca		 mov	 ecx, edx
  0004a	83 e1 03	 and	 ecx, 3
  0004d	f3 a4		 rep movsb

; 725  : 		pNewData->nDataLength = nOldLength;

  0004f	89 68 04	 mov	 DWORD PTR [eax+4], ebp

; 726  : 		pOldData->Release();

  00052	8d 43 0c	 lea	 eax, DWORD PTR [ebx+12]
  00055	83 c9 ff	 or	 ecx, -1
  00058	f0 0f c1 08	 lock	  xadd	 DWORD PTR [eax], ecx
  0005c	49		 dec	 ecx
  0005d	85 c9		 test	 ecx, ecx
  0005f	5f		 pop	 edi
  00060	7f 08		 jg	 SHORT $L123494
  00062	8b 0b		 mov	 ecx, DWORD PTR [ebx]
  00064	8b 11		 mov	 edx, DWORD PTR [ecx]
  00066	53		 push	 ebx
  00067	ff 52 04	 call	 DWORD PTR [edx+4]
$L123494:

; 727  : 		Attach( pNewData );

  0006a	8b 44 24 14	 mov	 eax, DWORD PTR tv181[esp+12]
  0006e	8b 4c 24 0c	 mov	 ecx, DWORD PTR _this$[esp+16]
  00072	5e		 pop	 esi
  00073	5d		 pop	 ebp
  00074	89 01		 mov	 DWORD PTR [ecx], eax
  00076	5b		 pop	 ebx

; 728  : 	}

  00077	59		 pop	 ecx
  00078	c2 04 00	 ret	 4
$L123503:
?Fork@?$CSimpleStringT@D$0A@@ATL@@AAEXH@Z ENDP		; ATL::CSimpleStringT<char,0>::Fork
_TEXT	ENDS
PUBLIC	?Reallocate@?$CSimpleStringT@D$0A@@ATL@@AAEXH@Z	; ATL::CSimpleStringT<char,0>::Reallocate
; Function compile flags: /Ogty
;	COMDAT ?Reallocate@?$CSimpleStringT@D$0A@@ATL@@AAEXH@Z
_TEXT	SEGMENT
_nLength$ = 8						; size = 4
?Reallocate@?$CSimpleStringT@D$0A@@ATL@@AAEXH@Z PROC NEAR ; ATL::CSimpleStringT<char,0>::Reallocate, COMDAT
; _this$ = ecx

; 776  : 	{

  00000	56		 push	 esi
  00001	57		 push	 edi

; 777  : 		CStringData* pOldData = GetData();
; 778  : 		ATLASSERT( pOldData->nAllocLength < nLength );
; 779  : 		IAtlStringMgr* pStringMgr = pOldData->pStringMgr;
; 780  : 		CStringData* pNewData = pStringMgr->Reallocate( pOldData, nLength, sizeof( XCHAR ) );

  00002	8b 7c 24 0c	 mov	 edi, DWORD PTR _nLength$[esp+4]
  00006	8b f1		 mov	 esi, ecx
  00008	8b 06		 mov	 eax, DWORD PTR [esi]
  0000a	8b 48 f0	 mov	 ecx, DWORD PTR [eax-16]
  0000d	8b 11		 mov	 edx, DWORD PTR [ecx]
  0000f	83 e8 10	 sub	 eax, 16			; 00000010H
  00012	6a 01		 push	 1
  00014	57		 push	 edi
  00015	50		 push	 eax
  00016	ff 52 08	 call	 DWORD PTR [edx+8]

; 781  : 		if( pNewData == NULL )

  00019	85 c0		 test	 eax, eax
  0001b	75 05		 jne	 SHORT $L120153

; 782  : 		{
; 783  : 			ThrowMemoryException();

  0001d	e8 00 00 00 00	 call	 ?ThrowMemoryException@?$CSimpleStringT@D$0A@@ATL@@KAXXZ ; ATL::CSimpleStringT<char,0>::ThrowMemoryException
$L123520:
$L120153:

; 784  : 		}
; 785  : 		Attach( pNewData );

  00022	83 c0 10	 add	 eax, 16			; 00000010H
  00025	5f		 pop	 edi
  00026	89 06		 mov	 DWORD PTR [esi], eax
  00028	5e		 pop	 esi

; 786  : 	}

  00029	c2 04 00	 ret	 4
$L123519:
?Reallocate@?$CSimpleStringT@D$0A@@ATL@@AAEXH@Z ENDP	; ATL::CSimpleStringT<char,0>::Reallocate
_TEXT	ENDS
PUBLIC	?SetLength@?$CSimpleStringT@D$0A@@ATL@@AAEXH@Z	; ATL::CSimpleStringT<char,0>::SetLength
; Function compile flags: /Ogty
;	COMDAT ?SetLength@?$CSimpleStringT@D$0A@@ATL@@AAEXH@Z
_TEXT	SEGMENT
_nLength$ = 8						; size = 4
?SetLength@?$CSimpleStringT@D$0A@@ATL@@AAEXH@Z PROC NEAR ; ATL::CSimpleStringT<char,0>::SetLength, COMDAT
; _this$ = ecx

; 790  : 		ATLASSERT( nLength >= 0 );
; 791  : 		ATLASSERT( nLength <= GetData()->nAllocLength );
; 792  : 
; 793  : 		if( nLength < 0 || nLength > GetData()->nAllocLength)

  00000	8b 44 24 04	 mov	 eax, DWORD PTR _nLength$[esp-4]
  00004	85 c0		 test	 eax, eax
  00006	7c 13		 jl	 SHORT $L120159
  00008	8b 11		 mov	 edx, DWORD PTR [ecx]
  0000a	3b 42 f8	 cmp	 eax, DWORD PTR [edx-8]
  0000d	7f 0c		 jg	 SHORT $L120159

; 794  : 			AtlThrow(E_INVALIDARG);
; 795  : 			
; 796  : 		GetData()->nDataLength = nLength;

  0000f	89 42 f4	 mov	 DWORD PTR [edx-12], eax

; 797  : 		m_pszData[nLength] = 0;

  00012	8b 09		 mov	 ecx, DWORD PTR [ecx]
  00014	c6 04 08 00	 mov	 BYTE PTR [eax+ecx], 0

; 798  : 	}

  00018	c2 04 00	 ret	 4
$L120159:
  0001b	68 57 00 07 80	 push	 -2147024809		; 80070057H
  00020	e8 00 00 00 00	 call	 ?AtlThrow@ATL@@YGXJ@Z	; ATL::AtlThrow
$L123531:
$L123530:
  00025	cc		 int	 3
?SetLength@?$CSimpleStringT@D$0A@@ATL@@AAEXH@Z ENDP	; ATL::CSimpleStringT<char,0>::SetLength
_TEXT	ENDS
PUBLIC	?_Inside@?$basic_string@DU?$char_traits@D@std@@V?$allocator@D@2@@std@@IAE_NPBD@Z ; std::basic_string<char,std::char_traits<char>,std::allocator<char> >::_Inside
; Function compile flags: /Ogty
; File c:\program files (x86)\microsoft visual studio .net 2003\vc7\include\xstring
;	COMDAT ?_Inside@?$basic_string@DU?$char_traits@D@std@@V?$allocator@D@2@@std@@IAE_NPBD@Z
_TEXT	SEGMENT
__Ptr$ = 8						; size = 4
?_Inside@?$basic_string@DU?$char_traits@D@std@@V?$allocator@D@2@@std@@IAE_NPBD@Z PROC NEAR ; std::basic_string<char,std::char_traits<char>,std::allocator<char> >::_Inside, COMDAT
; _this$ = ecx

; 1494 : 		{	// test if _Ptr points inside string

  00000	56		 push	 esi

; 1495 : 		if (_Ptr < _Myptr() || _Myptr() + _Mysize <= _Ptr)

  00001	8b 71 18	 mov	 esi, DWORD PTR [ecx+24]
  00004	83 fe 10	 cmp	 esi, 16			; 00000010H
  00007	57		 push	 edi
  00008	8d 41 04	 lea	 eax, DWORD PTR [ecx+4]
  0000b	72 04		 jb	 SHORT $L123540
  0000d	8b 10		 mov	 edx, DWORD PTR [eax]
  0000f	eb 02		 jmp	 SHORT $L123541
$L123540:
  00011	8b d0		 mov	 edx, eax
$L123541:
  00013	8b 7c 24 0c	 mov	 edi, DWORD PTR __Ptr$[esp+4]
  00017	3b fa		 cmp	 edi, edx
  00019	72 17		 jb	 SHORT $L120182
  0001b	83 fe 10	 cmp	 esi, 16			; 00000010H
  0001e	72 02		 jb	 SHORT $L123548
  00020	8b 00		 mov	 eax, DWORD PTR [eax]
$L123548:
  00022	8b 49 14	 mov	 ecx, DWORD PTR [ecx+20]
  00025	03 c8		 add	 ecx, eax
  00027	3b cf		 cmp	 ecx, edi
  00029	76 07		 jbe	 SHORT $L120182
  0002b	5f		 pop	 edi

; 1497 : 		else
; 1498 : 			return (true);

  0002c	b0 01		 mov	 al, 1
  0002e	5e		 pop	 esi

; 1499 : 		}

  0002f	c2 04 00	 ret	 4
$L120182:
  00032	5f		 pop	 edi

; 1496 : 			return (false);	// don't ask

  00033	32 c0		 xor	 al, al
  00035	5e		 pop	 esi

; 1499 : 		}

  00036	c2 04 00	 ret	 4
?_Inside@?$basic_string@DU?$char_traits@D@std@@V?$allocator@D@2@@std@@IAE_NPBD@Z ENDP ; std::basic_string<char,std::char_traits<char>,std::allocator<char> >::_Inside
_TEXT	ENDS
PUBLIC	??0?$allocator@D@std@@QAE@XZ			; std::allocator<char>::allocator<char>
; Function compile flags: /Ogty
; File c:\program files (x86)\microsoft visual studio .net 2003\vc7\include\xmemory
;	COMDAT ??0?$allocator@D@std@@QAE@XZ
_TEXT	SEGMENT
??0?$allocator@D@std@@QAE@XZ PROC NEAR			; std::allocator<char>::allocator<char>, COMDAT
; _this$ = ecx

; 111  : 	allocator()

  00000	8b c1		 mov	 eax, ecx

; 112  : 		{	// construct default allocator (do nothing)
; 113  : 		}

  00002	c3		 ret	 0
??0?$allocator@D@std@@QAE@XZ ENDP			; std::allocator<char>::allocator<char>
_TEXT	ENDS
PUBLIC	?max_size@?$allocator@D@std@@QBEIXZ		; std::allocator<char>::max_size
; Function compile flags: /Ogty
;	COMDAT ?max_size@?$allocator@D@std@@QBEIXZ
_TEXT	SEGMENT
?max_size@?$allocator@D@std@@QBEIXZ PROC NEAR		; std::allocator<char>::max_size, COMDAT
; _this$ = ecx

; 157  : 		_SIZT _Count = (_SIZT)(-1) / sizeof (_Ty);
; 158  : 		return (0 < _Count ? _Count : 1);

  00000	83 c8 ff	 or	 eax, -1

; 159  : 		}

  00003	c3		 ret	 0
?max_size@?$allocator@D@std@@QBEIXZ ENDP		; std::allocator<char>::max_size
_TEXT	ENDS
PUBLIC	??$_Allocate@D@std@@YAPADIPAD@Z			; std::_Allocate<char>
EXTRN	??2@YAPAXI@Z:NEAR				; operator new
; Function compile flags: /Ogty
;	COMDAT ??$_Allocate@D@std@@YAPADIPAD@Z
_TEXT	SEGMENT
__Count$ = 8						; size = 4
___formal$ = 12						; size = 4
??$_Allocate@D@std@@YAPADIPAD@Z PROC NEAR		; std::_Allocate<char>, COMDAT

; 34   : 	return ((_Ty _FARQ *)operator new(_Count * sizeof (_Ty)));

  00000	8b 44 24 04	 mov	 eax, DWORD PTR __Count$[esp-4]
  00004	50		 push	 eax
  00005	e8 00 00 00 00	 call	 ??2@YAPAXI@Z		; operator new
  0000a	83 c4 04	 add	 esp, 4

; 35   : 	}

  0000d	c3		 ret	 0
??$_Allocate@D@std@@YAPADIPAD@Z ENDP			; std::_Allocate<char>
_TEXT	ENDS
PUBLIC	?ReverseFind@?$CStringT@DV?$StrTraitATL@DV?$ChTraitsCRT@D@ATL@@@ATL@@@ATL@@QBEHD@Z ; ATL::CStringT<char,ATL::StrTraitATL<char,ATL::ChTraitsCRT<char> > >::ReverseFind
; Function compile flags: /Ogty
; File c:\program files (x86)\microsoft visual studio .net 2003\vc7\atlmfc\include\cstringt.h
;	COMDAT ?ReverseFind@?$CStringT@DV?$StrTraitATL@DV?$ChTraitsCRT@D@ATL@@@ATL@@@ATL@@QBEHD@Z
_TEXT	SEGMENT
_ch$ = 8						; size = 1
?ReverseFind@?$CStringT@DV?$StrTraitATL@DV?$ChTraitsCRT@D@ATL@@@ATL@@@ATL@@QBEHD@Z PROC NEAR ; ATL::CStringT<char,ATL::StrTraitATL<char,ATL::ChTraitsCRT<char> > >::ReverseFind, COMDAT
; _this$ = ecx

; 1423 : 	{

  00000	56		 push	 esi
  00001	8b f1		 mov	 esi, ecx

; 1424 : 		// find last single character
; 1425 : 		PCXSTR psz = StringTraits::StringFindCharRev( GetString(), ch );

  00003	0f b6 4c 24 08	 movzx	 ecx, BYTE PTR _ch$[esp]
  00008	8b 06		 mov	 eax, DWORD PTR [esi]
  0000a	51		 push	 ecx
  0000b	50		 push	 eax
  0000c	e8 00 00 00 00	 call	 __mbsrchr
  00011	83 c4 08	 add	 esp, 8

; 1426 : 
; 1427 : 		// return -1 if not found, distance from beginning otherwise
; 1428 : 		return( (psz == NULL) ? -1 : int( psz-GetString() ) );

  00014	85 c0		 test	 eax, eax
  00016	75 07		 jne	 SHORT $L123563
  00018	83 c8 ff	 or	 eax, -1
  0001b	5e		 pop	 esi

; 1429 : 	}

  0001c	c2 04 00	 ret	 4
$L123563:

; 1426 : 
; 1427 : 		// return -1 if not found, distance from beginning otherwise
; 1428 : 		return( (psz == NULL) ? -1 : int( psz-GetString() ) );

  0001f	2b 06		 sub	 eax, DWORD PTR [esi]
  00021	5e		 pop	 esi

; 1429 : 	}

  00022	c2 04 00	 ret	 4
?ReverseFind@?$CStringT@DV?$StrTraitATL@DV?$ChTraitsCRT@D@ATL@@@ATL@@@ATL@@QBEHD@Z ENDP ; ATL::CStringT<char,ATL::StrTraitATL<char,ATL::ChTraitsCRT<char> > >::ReverseFind
_TEXT	ENDS
PUBLIC	?GetManager@?$CSimpleStringT@D$0A@@ATL@@QBEPAUIAtlStringMgr@2@XZ ; ATL::CSimpleStringT<char,0>::GetManager
; Function compile flags: /Ogty
; File c:\program files (x86)\microsoft visual studio .net 2003\vc7\atlmfc\include\atlsimpstr.h
;	COMDAT ?GetManager@?$CSimpleStringT@D$0A@@ATL@@QBEPAUIAtlStringMgr@2@XZ
_TEXT	SEGMENT
?GetManager@?$CSimpleStringT@D$0A@@ATL@@QBEPAUIAtlStringMgr@2@XZ PROC NEAR ; ATL::CSimpleStringT<char,0>::GetManager, COMDAT
; _this$ = ecx

; 505  : 		return( GetData()->pStringMgr->Clone() );

  00000	8b 01		 mov	 eax, DWORD PTR [ecx]
  00002	8b 48 f0	 mov	 ecx, DWORD PTR [eax-16]
  00005	8b 11		 mov	 edx, DWORD PTR [ecx]
  00007	ff 62 10	 jmp	 DWORD PTR [edx+16]
?GetManager@?$CSimpleStringT@D$0A@@ATL@@QBEPAUIAtlStringMgr@2@XZ ENDP ; ATL::CSimpleStringT<char,0>::GetManager
_TEXT	ENDS
PUBLIC	??0?$CSimpleStringT@D$0A@@ATL@@QAE@PBDHPAUIAtlStringMgr@1@@Z ; ATL::CSimpleStringT<char,0>::CSimpleStringT<char,0>
; Function compile flags: /Ogty
;	COMDAT ??0?$CSimpleStringT@D$0A@@ATL@@QAE@PBDHPAUIAtlStringMgr@1@@Z
_TEXT	SEGMENT
_pchSrc$ = 8						; size = 4
_nLength$ = 12						; size = 4
_pStringMgr$ = 16					; size = 4
??0?$CSimpleStringT@D$0A@@ATL@@QAE@PBDHPAUIAtlStringMgr@1@@Z PROC NEAR ; ATL::CSimpleStringT<char,0>::CSimpleStringT<char,0>, COMDAT
; _this$ = ecx

; 245  : 	CSimpleStringT( const XCHAR* pchSrc, int nLength, IAtlStringMgr* pStringMgr )

  00000	53		 push	 ebx
  00001	56		 push	 esi

; 246  : 	{
; 247  : 		ATLASSERT( pStringMgr != NULL );
; 248  : 		
; 249  : 		if(pchSrc == NULL && nLength != 0)

  00002	8b 74 24 0c	 mov	 esi, DWORD PTR _pchSrc$[esp+4]
  00006	85 f6		 test	 esi, esi
  00008	57		 push	 edi
  00009	8b 7c 24 14	 mov	 edi, DWORD PTR _nLength$[esp+8]
  0000d	8b d9		 mov	 ebx, ecx
  0000f	75 0e		 jne	 SHORT $L122650
  00011	85 ff		 test	 edi, edi
  00013	74 0a		 je	 SHORT $L122650

; 258  : 		SetLength( nLength );

$L123603:
  00015	68 57 00 07 80	 push	 -2147024809		; 80070057H
  0001a	e8 00 00 00 00	 call	 ?AtlThrow@ATL@@YGXJ@Z	; ATL::AtlThrow
$L123615:
$L122650:

; 250  : 			AtlThrow(E_INVALIDARG);
; 251  : 
; 252  : 		CStringData* pData = pStringMgr->Allocate( nLength, sizeof( XCHAR ) );

  0001f	8b 4c 24 18	 mov	 ecx, DWORD PTR _pStringMgr$[esp+8]
  00023	8b 01		 mov	 eax, DWORD PTR [ecx]
  00025	6a 01		 push	 1
  00027	57		 push	 edi
  00028	ff 10		 call	 DWORD PTR [eax]

; 253  : 		if( pData == NULL )

  0002a	85 c0		 test	 eax, eax
  0002c	75 05		 jne	 SHORT $L122654

; 254  : 		{
; 255  : 			ThrowMemoryException();

  0002e	e8 00 00 00 00	 call	 ?ThrowMemoryException@?$CSimpleStringT@D$0A@@ATL@@KAXXZ ; ATL::CSimpleStringT<char,0>::ThrowMemoryException
$L123616:
$L122654:

; 256  : 		}
; 257  : 		Attach( pData );

  00033	83 c0 10	 add	 eax, 16			; 00000010H

; 258  : 		SetLength( nLength );

  00036	85 ff		 test	 edi, edi
  00038	89 03		 mov	 DWORD PTR [ebx], eax
  0003a	7c d9		 jl	 SHORT $L123603
  0003c	3b 78 f8	 cmp	 edi, DWORD PTR [eax-8]
  0003f	7f d4		 jg	 SHORT $L123603
  00041	89 78 f4	 mov	 DWORD PTR [eax-12], edi
  00044	8b 0b		 mov	 ecx, DWORD PTR [ebx]
  00046	c6 04 0f 00	 mov	 BYTE PTR [edi+ecx], 0

; 259  : 		CopyChars( m_pszData, pchSrc, nLength );

  0004a	8b cf		 mov	 ecx, edi
  0004c	8b 3b		 mov	 edi, DWORD PTR [ebx]
  0004e	8b d1		 mov	 edx, ecx
  00050	c1 e9 02	 shr	 ecx, 2
  00053	f3 a5		 rep movsd
  00055	8b ca		 mov	 ecx, edx
  00057	83 e1 03	 and	 ecx, 3
  0005a	f3 a4		 rep movsb
  0005c	5f		 pop	 edi
  0005d	5e		 pop	 esi

; 260  : 	}

  0005e	8b c3		 mov	 eax, ebx
  00060	5b		 pop	 ebx
  00061	c2 0c 00	 ret	 12			; 0000000cH
$L123614:
??0?$CSimpleStringT@D$0A@@ATL@@QAE@PBDHPAUIAtlStringMgr@1@@Z ENDP ; ATL::CSimpleStringT<char,0>::CSimpleStringT<char,0>
_TEXT	ENDS
PUBLIC	?c_str@?$basic_string@DU?$char_traits@D@std@@V?$allocator@D@2@@std@@QBEPBDXZ ; std::basic_string<char,std::char_traits<char>,std::allocator<char> >::c_str
; Function compile flags: /Ogty
; File c:\program files (x86)\microsoft visual studio .net 2003\vc7\include\xstring
;	COMDAT ?c_str@?$basic_string@DU?$char_traits@D@std@@V?$allocator@D@2@@std@@QBEPBDXZ
_TEXT	SEGMENT
?c_str@?$basic_string@DU?$char_traits@D@std@@V?$allocator@D@2@@std@@QBEPBDXZ PROC NEAR ; std::basic_string<char,std::char_traits<char>,std::allocator<char> >::c_str, COMDAT
; _this$ = ecx

; 1094 : 		return (_Myptr());

  00000	83 79 18 10	 cmp	 DWORD PTR [ecx+24], 16	; 00000010H
  00004	72 04		 jb	 SHORT $L123625
  00006	8b 41 04	 mov	 eax, DWORD PTR [ecx+4]

; 1095 : 		}

  00009	c3		 ret	 0

; 1094 : 		return (_Myptr());

$L123625:
  0000a	8d 41 04	 lea	 eax, DWORD PTR [ecx+4]

; 1095 : 		}

  0000d	c3		 ret	 0
?c_str@?$basic_string@DU?$char_traits@D@std@@V?$allocator@D@2@@std@@QBEPBDXZ ENDP ; std::basic_string<char,std::char_traits<char>,std::allocator<char> >::c_str
_TEXT	ENDS
PUBLIC	??0?$CSimpleStringT@D$0A@@ATL@@QAE@PAUIAtlStringMgr@1@@Z ; ATL::CSimpleStringT<char,0>::CSimpleStringT<char,0>
; Function compile flags: /Ogty
; File c:\program files (x86)\microsoft visual studio .net 2003\vc7\atlmfc\include\atlsimpstr.h
;	COMDAT ??0?$CSimpleStringT@D$0A@@ATL@@QAE@PAUIAtlStringMgr@1@@Z
_TEXT	SEGMENT
_pStringMgr$ = 8					; size = 4
??0?$CSimpleStringT@D$0A@@ATL@@QAE@PAUIAtlStringMgr@1@@Z PROC NEAR ; ATL::CSimpleStringT<char,0>::CSimpleStringT<char,0>, COMDAT
; _this$ = ecx

; 210  : 	explicit CSimpleStringT( IAtlStringMgr* pStringMgr ) throw()

  00000	56		 push	 esi
  00001	8b f1		 mov	 esi, ecx

; 211  : 	{
; 212  : 		ATLASSERT( pStringMgr != NULL );
; 213  : 		CStringData* pData = pStringMgr->GetNilString();

  00003	8b 4c 24 08	 mov	 ecx, DWORD PTR _pStringMgr$[esp]
  00007	8b 01		 mov	 eax, DWORD PTR [ecx]
  00009	ff 50 0c	 call	 DWORD PTR [eax+12]

; 214  : 		Attach( pData );

  0000c	83 c0 10	 add	 eax, 16			; 00000010H
  0000f	89 06		 mov	 DWORD PTR [esi], eax

; 215  : 	}

  00011	8b c6		 mov	 eax, esi
  00013	5e		 pop	 esi
  00014	c2 04 00	 ret	 4
??0?$CSimpleStringT@D$0A@@ATL@@QAE@PAUIAtlStringMgr@1@@Z ENDP ; ATL::CSimpleStringT<char,0>::CSimpleStringT<char,0>
_TEXT	ENDS
PUBLIC	??1?$CSimpleStringT@D$0A@@ATL@@QAE@XZ		; ATL::CSimpleStringT<char,0>::~CSimpleStringT<char,0>
; Function compile flags: /Ogty
;	COMDAT ??1?$CSimpleStringT@D$0A@@ATL@@QAE@XZ
_TEXT	SEGMENT
??1?$CSimpleStringT@D$0A@@ATL@@QAE@XZ PROC NEAR		; ATL::CSimpleStringT<char,0>::~CSimpleStringT<char,0>, COMDAT
; _this$ = ecx

; 263  : 		CStringData* pData = GetData();

  00000	8b 01		 mov	 eax, DWORD PTR [ecx]
  00002	83 e8 10	 sub	 eax, 16			; 00000010H

; 264  : 		pData->Release();

  00005	8d 48 0c	 lea	 ecx, DWORD PTR [eax+12]
  00008	83 ca ff	 or	 edx, -1
  0000b	f0 0f c1 11	 lock	  xadd	 DWORD PTR [ecx], edx
  0000f	4a		 dec	 edx
  00010	85 d2		 test	 edx, edx
  00012	7f 08		 jg	 SHORT $L123647
  00014	8b 08		 mov	 ecx, DWORD PTR [eax]
  00016	8b 11		 mov	 edx, DWORD PTR [ecx]
  00018	50		 push	 eax
  00019	ff 52 04	 call	 DWORD PTR [edx+4]
$L123647:

; 265  : 	}

  0001c	c3		 ret	 0
??1?$CSimpleStringT@D$0A@@ATL@@QAE@XZ ENDP		; ATL::CSimpleStringT<char,0>::~CSimpleStringT<char,0>
_TEXT	ENDS
PUBLIC	??0?$_String_val@DV?$allocator@D@std@@@std@@IAE@V?$allocator@D@1@@Z ; std::_String_val<char,std::allocator<char> >::_String_val<char,std::allocator<char> >
; Function compile flags: /Ogty
; File c:\program files (x86)\microsoft visual studio .net 2003\vc7\include\xstring
;	COMDAT ??0?$_String_val@DV?$allocator@D@std@@@std@@IAE@V?$allocator@D@1@@Z
_TEXT	SEGMENT
__Al$ = 8						; size = 1
??0?$_String_val@DV?$allocator@D@std@@@std@@IAE@V?$allocator@D@1@@Z PROC NEAR ; std::_String_val<char,std::allocator<char> >::_String_val<char,std::allocator<char> >, COMDAT
; _this$ = ecx

; 34   : 		{	// construct allocator from _Al

  00000	8b c1		 mov	 eax, ecx

; 35   : 		}

  00002	c2 04 00	 ret	 4
??0?$_String_val@DV?$allocator@D@std@@@std@@IAE@V?$allocator@D@1@@Z ENDP ; std::_String_val<char,std::allocator<char> >::_String_val<char,std::allocator<char> >
_TEXT	ENDS
PUBLIC	?GetLength@?$CSimpleStringT@D$0A@@ATL@@QBEHXZ	; ATL::CSimpleStringT<char,0>::GetLength
; Function compile flags: /Ogty
; File c:\program files (x86)\microsoft visual studio .net 2003\vc7\atlmfc\include\atlsimpstr.h
;	COMDAT ?GetLength@?$CSimpleStringT@D$0A@@ATL@@QBEHXZ
_TEXT	SEGMENT
?GetLength@?$CSimpleStringT@D$0A@@ATL@@QBEHXZ PROC NEAR	; ATL::CSimpleStringT<char,0>::GetLength, COMDAT
; _this$ = ecx

; 501  : 		return( GetData()->nDataLength );

  00000	8b 01		 mov	 eax, DWORD PTR [ecx]
  00002	8b 40 f4	 mov	 eax, DWORD PTR [eax-12]

; 502  : 	}

  00005	c3		 ret	 0
?GetLength@?$CSimpleStringT@D$0A@@ATL@@QBEHXZ ENDP	; ATL::CSimpleStringT<char,0>::GetLength
_TEXT	ENDS
PUBLIC	?ReleaseBufferSetLength@?$CSimpleStringT@D$0A@@ATL@@QAEXH@Z ; ATL::CSimpleStringT<char,0>::ReleaseBufferSetLength
; Function compile flags: /Ogty
;	COMDAT ?ReleaseBufferSetLength@?$CSimpleStringT@D$0A@@ATL@@QAEXH@Z
_TEXT	SEGMENT
_nNewLength$ = 8					; size = 4
?ReleaseBufferSetLength@?$CSimpleStringT@D$0A@@ATL@@QAEXH@Z PROC NEAR ; ATL::CSimpleStringT<char,0>::ReleaseBufferSetLength, COMDAT
; _this$ = ecx

; 547  : 		ATLASSERT( nNewLength >= 0 );
; 548  : 		SetLength( nNewLength );

  00000	8b 44 24 04	 mov	 eax, DWORD PTR _nNewLength$[esp-4]
  00004	85 c0		 test	 eax, eax
  00006	7c 13		 jl	 SHORT $L123672
  00008	8b 11		 mov	 edx, DWORD PTR [ecx]
  0000a	3b 42 f8	 cmp	 eax, DWORD PTR [edx-8]
  0000d	7f 0c		 jg	 SHORT $L123672
  0000f	89 42 f4	 mov	 DWORD PTR [edx-12], eax
  00012	8b 09		 mov	 ecx, DWORD PTR [ecx]
  00014	c6 04 08 00	 mov	 BYTE PTR [eax+ecx], 0

; 549  : 	}

  00018	c2 04 00	 ret	 4
$L123672:
  0001b	68 57 00 07 80	 push	 -2147024809		; 80070057H
  00020	e8 00 00 00 00	 call	 ?AtlThrow@ATL@@YGXJ@Z	; ATL::AtlThrow
$L123680:
$L123679:
  00025	cc		 int	 3
?ReleaseBufferSetLength@?$CSimpleStringT@D$0A@@ATL@@QAEXH@Z ENDP ; ATL::CSimpleStringT<char,0>::ReleaseBufferSetLength
_TEXT	ENDS
PUBLIC	?PrepareWrite2@?$CSimpleStringT@D$0A@@ATL@@AAEXH@Z ; ATL::CSimpleStringT<char,0>::PrepareWrite2
; Function compile flags: /Ogty
;	COMDAT ?PrepareWrite2@?$CSimpleStringT@D$0A@@ATL@@AAEXH@Z
_TEXT	SEGMENT
_nLength$ = 8						; size = 4
?PrepareWrite2@?$CSimpleStringT@D$0A@@ATL@@AAEXH@Z PROC NEAR ; ATL::CSimpleStringT<char,0>::PrepareWrite2, COMDAT
; _this$ = ecx

; 747  : 		CStringData* pOldData = GetData();

  00000	8b 01		 mov	 eax, DWORD PTR [ecx]

; 748  : 		if( pOldData->nDataLength > nLength )

  00002	8b 54 24 04	 mov	 edx, DWORD PTR _nLength$[esp-4]
  00006	83 e8 10	 sub	 eax, 16			; 00000010H
  00009	56		 push	 esi
  0000a	8b 70 04	 mov	 esi, DWORD PTR [eax+4]
  0000d	3b f2		 cmp	 esi, edx
  0000f	7e 02		 jle	 SHORT $L119029

; 749  : 		{
; 750  : 			nLength = pOldData->nDataLength;

  00011	8b d6		 mov	 edx, esi
$L119029:

; 751  : 		}
; 752  : 		if( pOldData->IsShared() )

  00013	83 78 0c 01	 cmp	 DWORD PTR [eax+12], 1
  00017	5e		 pop	 esi
  00018	7e 09		 jle	 SHORT $L119030

; 753  : 		{
; 754  : 			Fork( nLength );

  0001a	89 54 24 04	 mov	 DWORD PTR _nLength$[esp-4], edx
  0001e	e9 00 00 00 00	 jmp	 ?Fork@?$CSimpleStringT@D$0A@@ATL@@AAEXH@Z ; ATL::CSimpleStringT<char,0>::Fork
$L119030:

; 755  : 		}
; 756  : 		else if( pOldData->nAllocLength < nLength )

  00023	8b 40 08	 mov	 eax, DWORD PTR [eax+8]
  00026	3b c2		 cmp	 eax, edx
  00028	7d 1f		 jge	 SHORT $L119032

; 757  : 		{
; 758  : 			// Grow exponentially, until we hit 1K.
; 759  : 			int nNewLength = pOldData->nAllocLength;
; 760  : 			if( nNewLength > 1024 )

  0002a	3d 00 04 00 00	 cmp	 eax, 1024		; 00000400H
  0002f	7e 07		 jle	 SHORT $L119034

; 761  : 			{
; 762  : 				nNewLength += 1024;

  00031	05 00 04 00 00	 add	 eax, 1024		; 00000400H

; 763  : 			}
; 764  : 			else

  00036	eb 02		 jmp	 SHORT $L119035
$L119034:

; 765  : 			{
; 766  : 				nNewLength *= 2;

  00038	03 c0		 add	 eax, eax
$L119035:

; 767  : 			}
; 768  : 			if( nNewLength < nLength )

  0003a	3b c2		 cmp	 eax, edx
  0003c	7d 02		 jge	 SHORT $L119036

; 769  : 			{
; 770  : 				nNewLength = nLength;

  0003e	8b c2		 mov	 eax, edx
$L119036:

; 771  : 			}
; 772  : 			Reallocate( nNewLength );

  00040	89 44 24 04	 mov	 DWORD PTR _nLength$[esp-4], eax
  00044	e9 00 00 00 00	 jmp	 ?Reallocate@?$CSimpleStringT@D$0A@@ATL@@AAEXH@Z ; ATL::CSimpleStringT<char,0>::Reallocate
$L119032:

; 773  : 		}
; 774  : 	}

  00049	c2 04 00	 ret	 4
?PrepareWrite2@?$CSimpleStringT@D$0A@@ATL@@AAEXH@Z ENDP	; ATL::CSimpleStringT<char,0>::PrepareWrite2
_TEXT	ENDS
PUBLIC	?CloneData@?$CSimpleStringT@D$0A@@ATL@@CAPAUCStringData@2@PAU32@@Z ; ATL::CSimpleStringT<char,0>::CloneData
; Function compile flags: /Ogty
;	COMDAT ?CloneData@?$CSimpleStringT@D$0A@@ATL@@CAPAUCStringData@2@PAU32@@Z
_TEXT	SEGMENT
_pData$ = 8						; size = 4
?CloneData@?$CSimpleStringT@D$0A@@ATL@@CAPAUCStringData@2@PAU32@@Z PROC NEAR ; ATL::CSimpleStringT<char,0>::CloneData, COMDAT

; 801  : 	{

  00000	56		 push	 esi

; 802  : 		CStringData* pNewData = NULL;
; 803  : 
; 804  : 		IAtlStringMgr* pNewStringMgr = pData->pStringMgr->Clone();

  00001	8b 74 24 08	 mov	 esi, DWORD PTR _pData$[esp]
  00005	8b 0e		 mov	 ecx, DWORD PTR [esi]
  00007	8b 01		 mov	 eax, DWORD PTR [ecx]
  00009	ff 50 10	 call	 DWORD PTR [eax+16]

; 805  : 		if( !pData->IsLocked() && (pNewStringMgr == pData->pStringMgr) )

  0000c	8b 56 0c	 mov	 edx, DWORD PTR [esi+12]
  0000f	85 d2		 test	 edx, edx
  00011	8d 4e 0c	 lea	 ecx, DWORD PTR [esi+12]
  00014	7c 11		 jl	 SHORT $L119040
  00016	3b 06		 cmp	 eax, DWORD PTR [esi]
  00018	75 0d		 jne	 SHORT $L119040

; 806  : 		{
; 807  : 			pNewData = pData;

  0001a	8b c6		 mov	 eax, esi

; 808  : 			pNewData->AddRef();

  0001c	ba 01 00 00 00	 mov	 edx, 1
  00021	f0 0f c1 11	 lock	  xadd	 DWORD PTR [ecx], edx
  00025	5e		 pop	 esi

; 819  : 		}
; 820  : 
; 821  : 		return( pNewData );
; 822  : 	}

  00026	c3		 ret	 0
$L119040:

; 809  : 		}
; 810  : 		else
; 811  : 		{
; 812  : 			pNewData = pNewStringMgr->Allocate( pData->nDataLength, sizeof( XCHAR ) );

  00027	8b 4e 04	 mov	 ecx, DWORD PTR [esi+4]
  0002a	8b 10		 mov	 edx, DWORD PTR [eax]
  0002c	6a 01		 push	 1
  0002e	51		 push	 ecx
  0002f	8b c8		 mov	 ecx, eax
  00031	ff 12		 call	 DWORD PTR [edx]

; 813  : 			if( pNewData == NULL )

  00033	85 c0		 test	 eax, eax
  00035	75 05		 jne	 SHORT $L119043

; 814  : 			{
; 815  : 				ThrowMemoryException();

  00037	e9 00 00 00 00	 jmp	 ?ThrowMemoryException@?$CSimpleStringT@D$0A@@ATL@@KAXXZ ; ATL::CSimpleStringT<char,0>::ThrowMemoryException
$L119043:

; 816  : 			}
; 817  : 			pNewData->nDataLength = pData->nDataLength;

  0003c	8b 56 04	 mov	 edx, DWORD PTR [esi+4]
  0003f	89 50 04	 mov	 DWORD PTR [eax+4], edx

; 818  : 			CopyChars( PXSTR( pNewData->data() ), PCXSTR( pData->data() ), pData->nDataLength+1 );  // Copy '\0'

  00042	8b 4e 04	 mov	 ecx, DWORD PTR [esi+4]
  00045	41		 inc	 ecx
  00046	8b d1		 mov	 edx, ecx
  00048	57		 push	 edi
  00049	c1 e9 02	 shr	 ecx, 2
  0004c	83 c6 10	 add	 esi, 16			; 00000010H
  0004f	8d 78 10	 lea	 edi, DWORD PTR [eax+16]
  00052	f3 a5		 rep movsd
  00054	8b ca		 mov	 ecx, edx
  00056	83 e1 03	 and	 ecx, 3
  00059	f3 a4		 rep movsb
  0005b	5f		 pop	 edi
  0005c	5e		 pop	 esi

; 819  : 		}
; 820  : 
; 821  : 		return( pNewData );
; 822  : 	}

  0005d	c3		 ret	 0
?CloneData@?$CSimpleStringT@D$0A@@ATL@@CAPAUCStringData@2@PAU32@@Z ENDP ; ATL::CSimpleStringT<char,0>::CloneData
_TEXT	ENDS
PUBLIC	?_Eos@?$basic_string@DU?$char_traits@D@std@@V?$allocator@D@2@@std@@IAEXI@Z ; std::basic_string<char,std::char_traits<char>,std::allocator<char> >::_Eos
; Function compile flags: /Ogty
; File c:\program files (x86)\microsoft visual studio .net 2003\vc7\include\xstring
;	COMDAT ?_Eos@?$basic_string@DU?$char_traits@D@std@@V?$allocator@D@2@@std@@IAEXI@Z
_TEXT	SEGMENT
__Newsize$ = 8						; size = 4
?_Eos@?$basic_string@DU?$char_traits@D@std@@V?$allocator@D@2@@std@@IAEXI@Z PROC NEAR ; std::basic_string<char,std::char_traits<char>,std::allocator<char> >::_Eos, COMDAT
; _this$ = ecx

; 1475 : 		_Traits::assign(_Myptr()[_Mysize = _Newsize], _Elem());

  00000	83 79 18 10	 cmp	 DWORD PTR [ecx+24], 16	; 00000010H
  00004	8b 44 24 04	 mov	 eax, DWORD PTR __Newsize$[esp-4]
  00008	89 41 14	 mov	 DWORD PTR [ecx+20], eax
  0000b	72 0a		 jb	 SHORT $L123719
  0000d	8b 49 04	 mov	 ecx, DWORD PTR [ecx+4]
  00010	c6 04 01 00	 mov	 BYTE PTR [ecx+eax], 0

; 1476 : 		}

  00014	c2 04 00	 ret	 4

; 1475 : 		_Traits::assign(_Myptr()[_Mysize = _Newsize], _Elem());

$L123719:
  00017	c6 44 01 04 00	 mov	 BYTE PTR [ecx+eax+4], 0

; 1476 : 		}

  0001c	c2 04 00	 ret	 4
?_Eos@?$basic_string@DU?$char_traits@D@std@@V?$allocator@D@2@@std@@IAEXI@Z ENDP ; std::basic_string<char,std::char_traits<char>,std::allocator<char> >::_Eos
_TEXT	ENDS
PUBLIC	?Empty@?$CSimpleStringT@D$0A@@ATL@@QAEXXZ	; ATL::CSimpleStringT<char,0>::Empty
; Function compile flags: /Ogty
; File c:\program files (x86)\microsoft visual studio .net 2003\vc7\atlmfc\include\atlsimpstr.h
;	COMDAT ?Empty@?$CSimpleStringT@D$0A@@ATL@@QAEXXZ
_TEXT	SEGMENT
?Empty@?$CSimpleStringT@D$0A@@ATL@@QAEXXZ PROC NEAR	; ATL::CSimpleStringT<char,0>::Empty, COMDAT
; _this$ = ecx

; 421  : 	{

  00000	56		 push	 esi
  00001	8b f1		 mov	 esi, ecx

; 422  : 		CStringData* pOldData = GetData();

  00003	8b 0e		 mov	 ecx, DWORD PTR [esi]

; 423  : 		IAtlStringMgr* pStringMgr = pOldData->pStringMgr;
; 424  : 		if( pOldData->nDataLength == 0 )

  00005	8b 51 f4	 mov	 edx, DWORD PTR [ecx-12]
  00008	85 d2		 test	 edx, edx
  0000a	8d 41 f0	 lea	 eax, DWORD PTR [ecx-16]
  0000d	57		 push	 edi
  0000e	8b 38		 mov	 edi, DWORD PTR [eax]
  00010	74 4c		 je	 SHORT $L123757
  00012	53		 push	 ebx

; 425  : 		{
; 426  : 			return;
; 427  : 		}
; 428  : 
; 429  : 		if( pOldData->IsLocked() )

  00013	8b 58 0c	 mov	 ebx, DWORD PTR [eax+12]
  00016	8d 50 0c	 lea	 edx, DWORD PTR [eax+12]
  00019	85 db		 test	 ebx, ebx
  0001b	5b		 pop	 ebx
  0001c	7d 20		 jge	 SHORT $L120127

; 430  : 		{
; 431  : 			// Don't reallocate a locked buffer that's shrinking
; 432  : 			SetLength( 0 );

  0001e	8b 41 f8	 mov	 eax, DWORD PTR [ecx-8]
  00021	85 c0		 test	 eax, eax
  00023	7d 0a		 jge	 SHORT $L123741
  00025	68 57 00 07 80	 push	 -2147024809		; 80070057H
  0002a	e8 00 00 00 00	 call	 ?AtlThrow@ATL@@YGXJ@Z	; ATL::AtlThrow
$L123762:
$L123741:
  0002f	c7 41 f4 00 00
	00 00		 mov	 DWORD PTR [ecx-12], 0
  00036	8b 06		 mov	 eax, DWORD PTR [esi]
  00038	5f		 pop	 edi
  00039	c6 00 00	 mov	 BYTE PTR [eax], 0
  0003c	5e		 pop	 esi

; 439  : 		}
; 440  : 	}

  0003d	c3		 ret	 0
$L120127:

; 433  : 		}
; 434  : 		else
; 435  : 		{
; 436  : 			pOldData->Release();

  0003e	83 c9 ff	 or	 ecx, -1
  00041	f0 0f c1 0a	 lock	  xadd	 DWORD PTR [edx], ecx
  00045	49		 dec	 ecx
  00046	85 c9		 test	 ecx, ecx
  00048	7f 08		 jg	 SHORT $L123751
  0004a	8b 08		 mov	 ecx, DWORD PTR [eax]
  0004c	8b 11		 mov	 edx, DWORD PTR [ecx]
  0004e	50		 push	 eax
  0004f	ff 52 04	 call	 DWORD PTR [edx+4]
$L123751:

; 437  : 			CStringData* pNewData = pStringMgr->GetNilString();

  00052	8b 07		 mov	 eax, DWORD PTR [edi]
  00054	8b cf		 mov	 ecx, edi
  00056	ff 50 0c	 call	 DWORD PTR [eax+12]

; 438  : 			Attach( pNewData );

  00059	83 c0 10	 add	 eax, 16			; 00000010H
  0005c	89 06		 mov	 DWORD PTR [esi], eax
$L123757:
  0005e	5f		 pop	 edi
  0005f	5e		 pop	 esi

; 439  : 		}
; 440  : 	}

  00060	c3		 ret	 0
$L123761:
?Empty@?$CSimpleStringT@D$0A@@ATL@@QAEXXZ ENDP		; ATL::CSimpleStringT<char,0>::Empty
_TEXT	ENDS
PUBLIC	?max_size@?$basic_string@DU?$char_traits@D@std@@V?$allocator@D@2@@std@@QBEIXZ ; std::basic_string<char,std::char_traits<char>,std::allocator<char> >::max_size
; Function compile flags: /Ogty
; File c:\program files (x86)\microsoft visual studio .net 2003\vc7\include\xstring
;	COMDAT ?max_size@?$basic_string@DU?$char_traits@D@std@@V?$allocator@D@2@@std@@QBEIXZ
_TEXT	SEGMENT
?max_size@?$basic_string@DU?$char_traits@D@std@@V?$allocator@D@2@@std@@QBEIXZ PROC NEAR ; std::basic_string<char,std::char_traits<char>,std::allocator<char> >::max_size, COMDAT
; _this$ = ecx

; 1114 : 		size_type _Num = _Mybase::_Alval.max_size();
; 1115 : 		return (_Num <= 1 ? 1 : _Num - 1);

  00000	b8 fe ff ff ff	 mov	 eax, -2			; fffffffeH

; 1116 : 		}

  00005	c3		 ret	 0
?max_size@?$basic_string@DU?$char_traits@D@std@@V?$allocator@D@2@@std@@QBEIXZ ENDP ; std::basic_string<char,std::char_traits<char>,std::allocator<char> >::max_size
_TEXT	ENDS
PUBLIC	?allocate@?$allocator@D@std@@QAEPADI@Z		; std::allocator<char>::allocate
; Function compile flags: /Ogty
; File c:\program files (x86)\microsoft visual studio .net 2003\vc7\include\xmemory
;	COMDAT ?allocate@?$allocator@D@std@@QAEPADI@Z
_TEXT	SEGMENT
__Count$ = 8						; size = 4
?allocate@?$allocator@D@std@@QAEPADI@Z PROC NEAR	; std::allocator<char>::allocate, COMDAT
; _this$ = ecx

; 137  : 		return (_Allocate(_Count, (pointer)0));

  00000	8b 44 24 04	 mov	 eax, DWORD PTR __Count$[esp-4]
  00004	50		 push	 eax
  00005	e8 00 00 00 00	 call	 ??2@YAPAXI@Z		; operator new
  0000a	83 c4 04	 add	 esp, 4

; 138  : 		}

  0000d	c2 04 00	 ret	 4
?allocate@?$allocator@D@std@@QAEPADI@Z ENDP		; std::allocator<char>::allocate
_TEXT	ENDS
PUBLIC	??0?$CStringT@DV?$StrTraitATL@DV?$ChTraitsCRT@D@ATL@@@ATL@@@ATL@@QAE@PAUIAtlStringMgr@1@@Z ; ATL::CStringT<char,ATL::StrTraitATL<char,ATL::ChTraitsCRT<char> > >::CStringT<char,ATL::StrTraitATL<char,ATL::ChTraitsCRT<char> > >
; Function compile flags: /Ogty
; File c:\program files (x86)\microsoft visual studio .net 2003\vc7\atlmfc\include\cstringt.h
;	COMDAT ??0?$CStringT@DV?$StrTraitATL@DV?$ChTraitsCRT@D@ATL@@@ATL@@@ATL@@QAE@PAUIAtlStringMgr@1@@Z
_TEXT	SEGMENT
_pStringMgr$ = 8					; size = 4
??0?$CStringT@DV?$StrTraitATL@DV?$ChTraitsCRT@D@ATL@@@ATL@@@ATL@@QAE@PAUIAtlStringMgr@1@@Z PROC NEAR ; ATL::CStringT<char,ATL::StrTraitATL<char,ATL::ChTraitsCRT<char> > >::CStringT<char,ATL::StrTraitATL<char,ATL::ChTraitsCRT<char> > >, COMDAT
; _this$ = ecx

; 800  : 	{ 

  00000	56		 push	 esi
  00001	8b f1		 mov	 esi, ecx
  00003	8b 4c 24 08	 mov	 ecx, DWORD PTR _pStringMgr$[esp]
  00007	8b 01		 mov	 eax, DWORD PTR [ecx]
  00009	ff 50 0c	 call	 DWORD PTR [eax+12]
  0000c	83 c0 10	 add	 eax, 16			; 00000010H
  0000f	89 06		 mov	 DWORD PTR [esi], eax

; 801  : 	}

  00011	8b c6		 mov	 eax, esi
  00013	5e		 pop	 esi
  00014	c2 04 00	 ret	 4
??0?$CStringT@DV?$StrTraitATL@DV?$ChTraitsCRT@D@ATL@@@ATL@@@ATL@@QAE@PAUIAtlStringMgr@1@@Z ENDP ; ATL::CStringT<char,ATL::StrTraitATL<char,ATL::ChTraitsCRT<char> > >::CStringT<char,ATL::StrTraitATL<char,ATL::ChTraitsCRT<char> > >
_TEXT	ENDS
PUBLIC	??0?$CStringT@DV?$StrTraitATL@DV?$ChTraitsCRT@D@ATL@@@ATL@@@ATL@@QAE@PBDHPAUIAtlStringMgr@1@@Z ; ATL::CStringT<char,ATL::StrTraitATL<char,ATL::ChTraitsCRT<char> > >::CStringT<char,ATL::StrTraitATL<char,ATL::ChTraitsCRT<char> > >
; Function compile flags: /Ogty
;	COMDAT ??0?$CStringT@DV?$StrTraitATL@DV?$ChTraitsCRT@D@ATL@@@ATL@@@ATL@@QAE@PBDHPAUIAtlStringMgr@1@@Z
_TEXT	SEGMENT
_pch$ = 8						; size = 4
_nLength$ = 12						; size = 4
_pStringMgr$ = 16					; size = 4
??0?$CStringT@DV?$StrTraitATL@DV?$ChTraitsCRT@D@ATL@@@ATL@@@ATL@@QAE@PBDHPAUIAtlStringMgr@1@@Z PROC NEAR ; ATL::CStringT<char,ATL::StrTraitATL<char,ATL::ChTraitsCRT<char> > >::CStringT<char,ATL::StrTraitATL<char,ATL::ChTraitsCRT<char> > >, COMDAT
; _this$ = ecx

; 923  : 	{

  00000	8b 44 24 0c	 mov	 eax, DWORD PTR _pStringMgr$[esp-4]
  00004	8b 54 24 04	 mov	 edx, DWORD PTR _pch$[esp-4]
  00008	56		 push	 esi
  00009	8b f1		 mov	 esi, ecx
  0000b	8b 4c 24 0c	 mov	 ecx, DWORD PTR _nLength$[esp]
  0000f	50		 push	 eax
  00010	51		 push	 ecx
  00011	52		 push	 edx
  00012	8b ce		 mov	 ecx, esi
  00014	e8 00 00 00 00	 call	 ??0?$CSimpleStringT@D$0A@@ATL@@QAE@PBDHPAUIAtlStringMgr@1@@Z ; ATL::CSimpleStringT<char,0>::CSimpleStringT<char,0>

; 924  : 	}

  00019	8b c6		 mov	 eax, esi
  0001b	5e		 pop	 esi
  0001c	c2 0c 00	 ret	 12			; 0000000cH
??0?$CStringT@DV?$StrTraitATL@DV?$ChTraitsCRT@D@ATL@@@ATL@@@ATL@@QAE@PBDHPAUIAtlStringMgr@1@@Z ENDP ; ATL::CStringT<char,ATL::StrTraitATL<char,ATL::ChTraitsCRT<char> > >::CStringT<char,ATL::StrTraitATL<char,ATL::ChTraitsCRT<char> > >
_TEXT	ENDS
PUBLIC	??0?$CStringT@DV?$StrTraitATL@DV?$ChTraitsCRT@D@ATL@@@ATL@@@ATL@@QAE@XZ ; ATL::CStringT<char,ATL::StrTraitATL<char,ATL::ChTraitsCRT<char> > >::CStringT<char,ATL::StrTraitATL<char,ATL::ChTraitsCRT<char> > >
; Function compile flags: /Ogty
;	COMDAT ??0?$CStringT@DV?$StrTraitATL@DV?$ChTraitsCRT@D@ATL@@@ATL@@@ATL@@QAE@XZ
_TEXT	SEGMENT
??0?$CStringT@DV?$StrTraitATL@DV?$ChTraitsCRT@D@ATL@@@ATL@@@ATL@@QAE@XZ PROC NEAR ; ATL::CStringT<char,ATL::StrTraitATL<char,ATL::ChTraitsCRT<char> > >::CStringT<char,ATL::StrTraitATL<char,ATL::ChTraitsCRT<char> > >, COMDAT
; _this$ = ecx

; 796  : 	{

  00000	a1 00 00 00 00	 mov	 eax, DWORD PTR ?g_strmgr@ATL@@3VCAtlStringMgr@1@A
  00005	56		 push	 esi
  00006	8b f1		 mov	 esi, ecx
  00008	b9 00 00 00 00	 mov	 ecx, OFFSET FLAT:?g_strmgr@ATL@@3VCAtlStringMgr@1@A ; ATL::g_strmgr
  0000d	ff 50 0c	 call	 DWORD PTR [eax+12]
  00010	83 c0 10	 add	 eax, 16			; 00000010H
  00013	89 06		 mov	 DWORD PTR [esi], eax

; 797  : 	}

  00015	8b c6		 mov	 eax, esi
  00017	5e		 pop	 esi
  00018	c3		 ret	 0
??0?$CStringT@DV?$StrTraitATL@DV?$ChTraitsCRT@D@ATL@@@ATL@@@ATL@@QAE@XZ ENDP ; ATL::CStringT<char,ATL::StrTraitATL<char,ATL::ChTraitsCRT<char> > >::CStringT<char,ATL::StrTraitATL<char,ATL::ChTraitsCRT<char> > >
_TEXT	ENDS
PUBLIC	??1?$CStringT@DV?$StrTraitATL@DV?$ChTraitsCRT@D@ATL@@@ATL@@@ATL@@QAE@XZ ; ATL::CStringT<char,ATL::StrTraitATL<char,ATL::ChTraitsCRT<char> > >::~CStringT<char,ATL::StrTraitATL<char,ATL::ChTraitsCRT<char> > >
; Function compile flags: /Ogty
;	COMDAT ??1?$CStringT@DV?$StrTraitATL@DV?$ChTraitsCRT@D@ATL@@@ATL@@@ATL@@QAE@XZ
_TEXT	SEGMENT
??1?$CStringT@DV?$StrTraitATL@DV?$ChTraitsCRT@D@ATL@@@ATL@@@ATL@@QAE@XZ PROC NEAR ; ATL::CStringT<char,ATL::StrTraitATL<char,ATL::ChTraitsCRT<char> > >::~CStringT<char,ATL::StrTraitATL<char,ATL::ChTraitsCRT<char> > >, COMDAT
; _this$ = ecx

; 963  : 	}

  00000	8b 01		 mov	 eax, DWORD PTR [ecx]
  00002	83 e8 10	 sub	 eax, 16			; 00000010H
  00005	8d 48 0c	 lea	 ecx, DWORD PTR [eax+12]
  00008	83 ca ff	 or	 edx, -1
  0000b	f0 0f c1 11	 lock	  xadd	 DWORD PTR [ecx], edx
  0000f	4a		 dec	 edx
  00010	85 d2		 test	 edx, edx
  00012	7f 08		 jg	 SHORT $L123844
  00014	8b 08		 mov	 ecx, DWORD PTR [eax]
  00016	8b 11		 mov	 edx, DWORD PTR [ecx]
  00018	50		 push	 eax
  00019	ff 52 04	 call	 DWORD PTR [edx+4]
$L123844:
  0001c	c3		 ret	 0
??1?$CStringT@DV?$StrTraitATL@DV?$ChTraitsCRT@D@ATL@@@ATL@@@ATL@@QAE@XZ ENDP ; ATL::CStringT<char,ATL::StrTraitATL<char,ATL::ChTraitsCRT<char> > >::~CStringT<char,ATL::StrTraitATL<char,ATL::ChTraitsCRT<char> > >
_TEXT	ENDS
PUBLIC	??0?$CSimpleStringT@D$0A@@ATL@@QAE@ABV01@@Z	; ATL::CSimpleStringT<char,0>::CSimpleStringT<char,0>
; Function compile flags: /Ogty
; File c:\program files (x86)\microsoft visual studio .net 2003\vc7\atlmfc\include\atlsimpstr.h
;	COMDAT ??0?$CSimpleStringT@D$0A@@ATL@@QAE@ABV01@@Z
_TEXT	SEGMENT
_strSrc$ = 8						; size = 4
??0?$CSimpleStringT@D$0A@@ATL@@QAE@ABV01@@Z PROC NEAR	; ATL::CSimpleStringT<char,0>::CSimpleStringT<char,0>, COMDAT
; _this$ = ecx

; 218  : 	{
; 219  : 		CStringData* pSrcData = strSrc.GetData();

  00000	8b 44 24 04	 mov	 eax, DWORD PTR _strSrc$[esp-4]
  00004	8b 00		 mov	 eax, DWORD PTR [eax]
  00006	56		 push	 esi
  00007	83 e8 10	 sub	 eax, 16			; 00000010H

; 220  : 		CStringData* pNewData = CloneData( pSrcData );

  0000a	50		 push	 eax
  0000b	8b f1		 mov	 esi, ecx
  0000d	e8 00 00 00 00	 call	 ?CloneData@?$CSimpleStringT@D$0A@@ATL@@CAPAUCStringData@2@PAU32@@Z ; ATL::CSimpleStringT<char,0>::CloneData

; 221  : 		Attach( pNewData );

  00012	83 c0 10	 add	 eax, 16			; 00000010H
  00015	89 06		 mov	 DWORD PTR [esi], eax
  00017	83 c4 04	 add	 esp, 4

; 222  : 	}

  0001a	8b c6		 mov	 eax, esi
  0001c	5e		 pop	 esi
  0001d	c2 04 00	 ret	 4
??0?$CSimpleStringT@D$0A@@ATL@@QAE@ABV01@@Z ENDP	; ATL::CSimpleStringT<char,0>::CSimpleStringT<char,0>
_TEXT	ENDS
PUBLIC	?PrepareWrite@?$CSimpleStringT@D$0A@@ATL@@AAEPADH@Z ; ATL::CSimpleStringT<char,0>::PrepareWrite
; Function compile flags: /Ogty
;	COMDAT ?PrepareWrite@?$CSimpleStringT@D$0A@@ATL@@AAEPADH@Z
_TEXT	SEGMENT
_nLength$ = 8						; size = 4
?PrepareWrite@?$CSimpleStringT@D$0A@@ATL@@AAEPADH@Z PROC NEAR ; ATL::CSimpleStringT<char,0>::PrepareWrite, COMDAT
; _this$ = ecx

; 734  : 	{

  00000	56		 push	 esi
  00001	8b f1		 mov	 esi, ecx

; 735  : 		CStringData* pOldData = GetData();

  00003	8b 06		 mov	 eax, DWORD PTR [esi]

; 736  : 		int nShared = 1-pOldData->nRefs;  // nShared < 0 means true, >= 0 means false

  00005	8b 50 fc	 mov	 edx, DWORD PTR [eax-4]
  00008	83 e8 10	 sub	 eax, 16			; 00000010H
  0000b	b9 01 00 00 00	 mov	 ecx, 1
  00010	2b ca		 sub	 ecx, edx

; 737  : 		int nTooShort = pOldData->nAllocLength-nLength;  // nTooShort < 0 means true, >= 0 means false

  00012	8b 50 08	 mov	 edx, DWORD PTR [eax+8]
  00015	8b 44 24 08	 mov	 eax, DWORD PTR _nLength$[esp]
  00019	2b d0		 sub	 edx, eax

; 738  : 		if( (nShared|nTooShort) < 0 )  // If either sign bit is set (i.e. either is less than zero), we need to copy data

  0001b	0b ca		 or	 ecx, edx
  0001d	7d 08		 jge	 SHORT $L123866

; 739  : 		{
; 740  : 			PrepareWrite2( nLength );

  0001f	50		 push	 eax
  00020	8b ce		 mov	 ecx, esi
  00022	e8 00 00 00 00	 call	 ?PrepareWrite2@?$CSimpleStringT@D$0A@@ATL@@AAEXH@Z ; ATL::CSimpleStringT<char,0>::PrepareWrite2
$L123866:

; 741  : 		}
; 742  : 
; 743  : 		return( m_pszData );

  00027	8b 06		 mov	 eax, DWORD PTR [esi]
  00029	5e		 pop	 esi

; 744  : 	}

  0002a	c2 04 00	 ret	 4
?PrepareWrite@?$CSimpleStringT@D$0A@@ATL@@AAEPADH@Z ENDP ; ATL::CSimpleStringT<char,0>::PrepareWrite
_TEXT	ENDS
PUBLIC	?_Tidy@?$basic_string@DU?$char_traits@D@std@@V?$allocator@D@2@@std@@IAEX_NI@Z ; std::basic_string<char,std::char_traits<char>,std::allocator<char> >::_Tidy
; Function compile flags: /Ogty
; File c:\program files (x86)\microsoft visual studio .net 2003\vc7\include\xstring
;	COMDAT ?_Tidy@?$basic_string@DU?$char_traits@D@std@@V?$allocator@D@2@@std@@IAEX_NI@Z
_TEXT	SEGMENT
__Built$ = 8						; size = 1
__Newsize$ = 12						; size = 4
?_Tidy@?$basic_string@DU?$char_traits@D@std@@V?$allocator@D@2@@std@@IAEX_NI@Z PROC NEAR ; std::basic_string<char,std::char_traits<char>,std::allocator<char> >::_Tidy, COMDAT
; _this$ = ecx

; 1510 : 		if (!_Built)

  00000	8a 44 24 04	 mov	 al, BYTE PTR __Built$[esp-4]
  00004	84 c0		 test	 al, al
  00006	53		 push	 ebx
  00007	55		 push	 ebp
  00008	8b 6c 24 10	 mov	 ebp, DWORD PTR __Newsize$[esp+4]
  0000c	8b d9		 mov	 ebx, ecx
  0000e	74 2f		 je	 SHORT $L123874

; 1511 : 			;
; 1512 : 		else if (_BUF_SIZE <= _Myres)

  00010	83 7b 18 10	 cmp	 DWORD PTR [ebx+24], 16	; 00000010H
  00014	72 29		 jb	 SHORT $L123874

; 1513 : 			{	// copy any leftovers to small buffer and deallocate
; 1514 : 			_Elem *_Ptr = _Bx._Ptr;
; 1515 : 			if (0 < _Newsize)

  00016	85 ed		 test	 ebp, ebp
  00018	8b 43 04	 mov	 eax, DWORD PTR [ebx+4]
  0001b	57		 push	 edi
  0001c	8d 7b 04	 lea	 edi, DWORD PTR [ebx+4]
  0001f	76 14		 jbe	 SHORT $L123871
  00021	56		 push	 esi

; 1516 : 				_Traits::copy(_Bx._Buf, _Ptr, _Newsize);

  00022	8b cd		 mov	 ecx, ebp
  00024	8b d1		 mov	 edx, ecx
  00026	c1 e9 02	 shr	 ecx, 2
  00029	8b f0		 mov	 esi, eax
  0002b	f3 a5		 rep movsd
  0002d	8b ca		 mov	 ecx, edx
  0002f	83 e1 03	 and	 ecx, 3
  00032	f3 a4		 rep movsb
  00034	5e		 pop	 esi
$L123871:

; 1517 : 			_Mybase::_Alval.deallocate(_Ptr, _Myres + 1);

  00035	50		 push	 eax
  00036	e8 00 00 00 00	 call	 ??3@YAXPAX@Z		; operator delete
  0003b	83 c4 04	 add	 esp, 4
  0003e	5f		 pop	 edi
$L123874:

; 1518 : 			}
; 1519 : 		_Myres = _BUF_SIZE - 1;
; 1520 : 		_Eos(_Newsize);

  0003f	89 6b 14	 mov	 DWORD PTR [ebx+20], ebp
  00042	c7 43 18 0f 00
	00 00		 mov	 DWORD PTR [ebx+24], 15	; 0000000fH
  00049	c6 44 2b 04 00	 mov	 BYTE PTR [ebx+ebp+4], 0
  0004e	5d		 pop	 ebp
  0004f	5b		 pop	 ebx

; 1521 : 		}

  00050	c2 08 00	 ret	 8
?_Tidy@?$basic_string@DU?$char_traits@D@std@@V?$allocator@D@2@@std@@IAEX_NI@Z ENDP ; std::basic_string<char,std::char_traits<char>,std::allocator<char> >::_Tidy
_TEXT	ENDS
PUBLIC	?GetBuffer@?$CSimpleStringT@D$0A@@ATL@@QAEPADH@Z ; ATL::CSimpleStringT<char,0>::GetBuffer
; Function compile flags: /Ogty
; File c:\program files (x86)\microsoft visual studio .net 2003\vc7\atlmfc\include\atlsimpstr.h
;	COMDAT ?GetBuffer@?$CSimpleStringT@D$0A@@ATL@@QAEPADH@Z
_TEXT	SEGMENT
_nMinBufferLength$ = 8					; size = 4
?GetBuffer@?$CSimpleStringT@D$0A@@ATL@@QAEPADH@Z PROC NEAR ; ATL::CSimpleStringT<char,0>::GetBuffer, COMDAT
; _this$ = ecx

; 489  : 	{

  00000	56		 push	 esi
  00001	8b f1		 mov	 esi, ecx

; 490  : 		return( PrepareWrite( nMinBufferLength ) );

  00003	8b 06		 mov	 eax, DWORD PTR [esi]
  00005	8b 50 fc	 mov	 edx, DWORD PTR [eax-4]
  00008	83 e8 10	 sub	 eax, 16			; 00000010H
  0000b	b9 01 00 00 00	 mov	 ecx, 1
  00010	2b ca		 sub	 ecx, edx
  00012	8b 50 08	 mov	 edx, DWORD PTR [eax+8]
  00015	8b 44 24 08	 mov	 eax, DWORD PTR _nMinBufferLength$[esp]
  00019	2b d0		 sub	 edx, eax
  0001b	0b ca		 or	 ecx, edx
  0001d	7d 08		 jge	 SHORT $L123914
  0001f	50		 push	 eax
  00020	8b ce		 mov	 ecx, esi
  00022	e8 00 00 00 00	 call	 ?PrepareWrite2@?$CSimpleStringT@D$0A@@ATL@@AAEXH@Z ; ATL::CSimpleStringT<char,0>::PrepareWrite2
$L123914:
  00027	8b 06		 mov	 eax, DWORD PTR [esi]
  00029	5e		 pop	 esi

; 491  : 	}

  0002a	c2 04 00	 ret	 4
?GetBuffer@?$CSimpleStringT@D$0A@@ATL@@QAEPADH@Z ENDP	; ATL::CSimpleStringT<char,0>::GetBuffer
_TEXT	ENDS
PUBLIC	?SetString@?$CSimpleStringT@D$0A@@ATL@@QAEXPBDH@Z ; ATL::CSimpleStringT<char,0>::SetString
; Function compile flags: /Ogty
;	COMDAT ?SetString@?$CSimpleStringT@D$0A@@ATL@@QAEXPBDH@Z
_TEXT	SEGMENT
_pszSrc$ = 8						; size = 4
_nLength$ = 12						; size = 4
?SetString@?$CSimpleStringT@D$0A@@ATL@@QAEXPBDH@Z PROC NEAR ; ATL::CSimpleStringT<char,0>::SetString, COMDAT
; _this$ = ecx

; 583  : 	{

  00000	53		 push	 ebx

; 584  : 		if( nLength == 0 )

  00001	8b 5c 24 0c	 mov	 ebx, DWORD PTR _nLength$[esp]
  00005	85 db		 test	 ebx, ebx
  00007	55		 push	 ebp
  00008	8b e9		 mov	 ebp, ecx
  0000a	75 0a		 jne	 SHORT $L119011

; 585  : 		{
; 586  : 			Empty();

  0000c	e8 00 00 00 00	 call	 ?Empty@?$CSimpleStringT@D$0A@@ATL@@QAEXXZ ; ATL::CSimpleStringT<char,0>::Empty
  00011	5d		 pop	 ebp
  00012	5b		 pop	 ebx

; 614  : 		}
; 615  : 	}

  00013	c2 08 00	 ret	 8
$L119011:

; 587  : 		}
; 588  : 		else
; 589  : 		{
; 590  : 			// It is possible that pszSrc points to a location inside of our 
; 591  : 			// buffer.  GetBuffer() might change m_pszData if (1) the buffer 
; 592  : 			// is shared or (2) the buffer is too small to hold the new 
; 593  : 			// string.  We detect this aliasing, and modify pszSrc to point
; 594  : 			// into the newly allocated buffer instead.
; 595  : 			
; 596  : 			if(pszSrc == NULL)

  00016	8b 54 24 0c	 mov	 edx, DWORD PTR _pszSrc$[esp+4]
  0001a	85 d2		 test	 edx, edx
  0001c	75 0a		 jne	 SHORT $L119013

; 612  : 			}
; 613  : 			ReleaseBufferSetLength( nLength );

$L123986:
  0001e	68 57 00 07 80	 push	 -2147024809		; 80070057H
  00023	e8 00 00 00 00	 call	 ?AtlThrow@ATL@@YGXJ@Z	; ATL::AtlThrow
$L123990:
$L119013:

; 597  : 				AtlThrow(E_INVALIDARG);			
; 598  : 				
; 599  : 			UINT nOldLength = GetLength();

  00028	8b 45 00	 mov	 eax, DWORD PTR [ebp]
  0002b	56		 push	 esi

; 600  : 			UINT_PTR nOffset = pszSrc-GetString();

  0002c	8b f2		 mov	 esi, edx
  0002e	2b f0		 sub	 esi, eax

; 601  : 			// If 0 <= nOffset <= nOldLength, then pszSrc points into our 
; 602  : 			// buffer
; 603  : 
; 604  : 			PXSTR pszBuffer = GetBuffer( nLength );

  00030	b9 01 00 00 00	 mov	 ecx, 1
  00035	2b 48 fc	 sub	 ecx, DWORD PTR [eax-4]
  00038	57		 push	 edi
  00039	8b 78 f4	 mov	 edi, DWORD PTR [eax-12]
  0003c	8b 40 f8	 mov	 eax, DWORD PTR [eax-8]
  0003f	2b c3		 sub	 eax, ebx
  00041	0b c8		 or	 ecx, eax
  00043	7d 0c		 jge	 SHORT $L123953
  00045	53		 push	 ebx
  00046	8b cd		 mov	 ecx, ebp
  00048	e8 00 00 00 00	 call	 ?PrepareWrite2@?$CSimpleStringT@D$0A@@ATL@@AAEXH@Z ; ATL::CSimpleStringT<char,0>::PrepareWrite2
  0004d	8b 54 24 14	 mov	 edx, DWORD PTR _pszSrc$[esp+12]
$L123953:

; 605  : 			if( nOffset <= nOldLength )

  00051	3b f7		 cmp	 esi, edi
  00053	8b 45 00	 mov	 eax, DWORD PTR [ebp]
  00056	77 10		 ja	 SHORT $L119018

; 606  : 			{
; 607  : 				CopyCharsOverlapped( pszBuffer, pszBuffer+nOffset, nLength );

  00058	53		 push	 ebx
  00059	8d 0c 30	 lea	 ecx, DWORD PTR [eax+esi]
  0005c	51		 push	 ecx
  0005d	50		 push	 eax
  0005e	e8 00 00 00 00	 call	 _memmove
  00063	83 c4 0c	 add	 esp, 12			; 0000000cH

; 608  : 			}
; 609  : 			else

  00066	eb 14		 jmp	 SHORT $L123960
$L119018:

; 610  : 			{
; 611  : 				CopyChars( pszBuffer, pszSrc, nLength );

  00068	8b cb		 mov	 ecx, ebx
  0006a	8b f2		 mov	 esi, edx
  0006c	8b d1		 mov	 edx, ecx
  0006e	c1 e9 02	 shr	 ecx, 2
  00071	8b f8		 mov	 edi, eax
  00073	f3 a5		 rep movsd
  00075	8b ca		 mov	 ecx, edx
  00077	83 e1 03	 and	 ecx, 3
  0007a	f3 a4		 rep movsb
$L123960:

; 612  : 			}
; 613  : 			ReleaseBufferSetLength( nLength );

  0007c	85 db		 test	 ebx, ebx
  0007e	5f		 pop	 edi
  0007f	5e		 pop	 esi
  00080	7c 9c		 jl	 SHORT $L123986
  00082	8b 45 00	 mov	 eax, DWORD PTR [ebp]
  00085	3b 58 f8	 cmp	 ebx, DWORD PTR [eax-8]
  00088	7f 94		 jg	 SHORT $L123986
  0008a	89 58 f4	 mov	 DWORD PTR [eax-12], ebx
  0008d	8b 45 00	 mov	 eax, DWORD PTR [ebp]
  00090	5d		 pop	 ebp
  00091	c6 04 03 00	 mov	 BYTE PTR [ebx+eax], 0
  00095	5b		 pop	 ebx

; 614  : 		}
; 615  : 	}

  00096	c2 08 00	 ret	 8
$L123989:
?SetString@?$CSimpleStringT@D$0A@@ATL@@QAEXPBDH@Z ENDP	; ATL::CSimpleStringT<char,0>::SetString
_TEXT	ENDS
PUBLIC	?erase@?$basic_string@DU?$char_traits@D@std@@V?$allocator@D@2@@std@@QAEAAV12@II@Z ; std::basic_string<char,std::char_traits<char>,std::allocator<char> >::erase
EXTRN	?_Xran@_String_base@std@@QBEXXZ:NEAR		; std::_String_base::_Xran
; Function compile flags: /Ogty
; File c:\program files (x86)\microsoft visual studio .net 2003\vc7\include\xstring
;	COMDAT ?erase@?$basic_string@DU?$char_traits@D@std@@V?$allocator@D@2@@std@@QAEAAV12@II@Z
_TEXT	SEGMENT
__Off$ = 8						; size = 4
__Count$ = 12						; size = 4
?erase@?$basic_string@DU?$char_traits@D@std@@V?$allocator@D@2@@std@@QAEAAV12@II@Z PROC NEAR ; std::basic_string<char,std::char_traits<char>,std::allocator<char> >::erase, COMDAT
; _this$ = ecx

; 792  : 		{	// erase elements [_Off, _Off + _Count)

  00000	55		 push	 ebp

; 793  : 		if (_Mysize < _Off)

  00001	8b 6c 24 08	 mov	 ebp, DWORD PTR __Off$[esp]
  00005	56		 push	 esi
  00006	8b f1		 mov	 esi, ecx
  00008	39 6e 14	 cmp	 DWORD PTR [esi+20], ebp
  0000b	57		 push	 edi
  0000c	73 05		 jae	 SHORT $L119054

; 794  : 			_String_base::_Xran();	// _Off off end

  0000e	e8 00 00 00 00	 call	 ?_Xran@_String_base@std@@QBEXXZ ; std::_String_base::_Xran
$L119054:

; 795  : 		if (_Mysize - _Off < _Count)

  00013	8b 46 14	 mov	 eax, DWORD PTR [esi+20]
  00016	8b 7c 24 14	 mov	 edi, DWORD PTR __Count$[esp+8]
  0001a	2b c5		 sub	 eax, ebp
  0001c	3b c7		 cmp	 eax, edi
  0001e	73 02		 jae	 SHORT $L119055

; 796  : 			_Count = _Mysize - _Off;	// trim _Count

  00020	8b f8		 mov	 edi, eax
$L119055:

; 797  : 		if (0 < _Count)

  00022	85 ff		 test	 edi, edi
  00024	76 47		 jbe	 SHORT $L124033

; 798  : 			{	// move elements down
; 799  : 			_Traits::move(_Myptr() + _Off, _Myptr() + _Off + _Count,
; 800  : 				_Mysize - _Off - _Count);

  00026	8b 4e 18	 mov	 ecx, DWORD PTR [esi+24]
  00029	83 f9 10	 cmp	 ecx, 16			; 00000010H
  0002c	53		 push	 ebx
  0002d	8d 5e 04	 lea	 ebx, DWORD PTR [esi+4]
  00030	72 04		 jb	 SHORT $L123998
  00032	8b 13		 mov	 edx, DWORD PTR [ebx]
  00034	eb 02		 jmp	 SHORT $L123999
$L123998:
  00036	8b d3		 mov	 edx, ebx
$L123999:
  00038	83 f9 10	 cmp	 ecx, 16			; 00000010H
  0003b	72 04		 jb	 SHORT $L124005
  0003d	8b 0b		 mov	 ecx, DWORD PTR [ebx]
  0003f	eb 02		 jmp	 SHORT $L124006
$L124005:
  00041	8b cb		 mov	 ecx, ebx
$L124006:
  00043	2b c7		 sub	 eax, edi

; 803  : 			}
; 804  : 		return (*this);

  00045	03 d5		 add	 edx, ebp
  00047	50		 push	 eax
  00048	03 d7		 add	 edx, edi
  0004a	52		 push	 edx
  0004b	03 cd		 add	 ecx, ebp
  0004d	51		 push	 ecx
  0004e	e8 00 00 00 00	 call	 _memmove
  00053	8b 46 14	 mov	 eax, DWORD PTR [esi+20]
  00056	8b 4e 18	 mov	 ecx, DWORD PTR [esi+24]
  00059	2b c7		 sub	 eax, edi
  0005b	83 c4 0c	 add	 esp, 12			; 0000000cH
  0005e	83 f9 10	 cmp	 ecx, 16			; 00000010H
  00061	89 46 14	 mov	 DWORD PTR [esi+20], eax
  00064	72 02		 jb	 SHORT $L124028

; 801  : 			size_type _Newsize = _Mysize - _Count;
; 802  : 			_Eos(_Newsize);

  00066	8b 1b		 mov	 ebx, DWORD PTR [ebx]
$L124028:
  00068	c6 04 03 00	 mov	 BYTE PTR [ebx+eax], 0
  0006c	5b		 pop	 ebx
$L124033:
  0006d	5f		 pop	 edi

; 803  : 			}
; 804  : 		return (*this);

  0006e	8b c6		 mov	 eax, esi
  00070	5e		 pop	 esi
  00071	5d		 pop	 ebp

; 805  : 		}

  00072	c2 08 00	 ret	 8
?erase@?$basic_string@DU?$char_traits@D@std@@V?$allocator@D@2@@std@@QAEAAV12@II@Z ENDP ; std::basic_string<char,std::char_traits<char>,std::allocator<char> >::erase
_TEXT	ENDS
PUBLIC	?_Copy@?$basic_string@DU?$char_traits@D@std@@V?$allocator@D@2@@std@@IAEXII@Z ; std::basic_string<char,std::char_traits<char>,std::allocator<char> >::_Copy
EXTRN	___CxxFrameHandler:NEAR
;	COMDAT xdata$x
; File c:\program files (x86)\microsoft visual studio .net 2003\vc7\include\iosfwd
xdata$x	SEGMENT
$T124239 DD	0ffffffffH
	DD	00H
	DD	0ffffffffH
	DD	00H
	DD	01H
	DD	00H
	DD	01H
	DD	00H
$T124241 DD	00H
	DD	00H
	DD	00H
	DD	FLAT:$L124040
$T124242 DD	00H
	DD	00H
	DD	00H
	DD	FLAT:$L124038
$T124240 DD	02H
	DD	02H
	DD	03H
	DD	01H
	DD	FLAT:$T124241
	DD	00H
	DD	00H
	DD	03H
	DD	01H
	DD	FLAT:$T124242
$T124234 DD	019930520H
	DD	04H
	DD	FLAT:$T124239
	DD	02H
	DD	FLAT:$T124240
	DD	2 DUP(00H)
; Function compile flags: /Ogty
; File c:\program files (x86)\microsoft visual studio .net 2003\vc7\include\xstring
xdata$x	ENDS
;	COMDAT ?_Copy@?$basic_string@DU?$char_traits@D@std@@V?$allocator@D@2@@std@@IAEXII@Z
_TEXT	SEGMENT
__Newres$ = -24						; size = 4
_this$ = -20						; size = 4
__$EHRec$ = -16						; size = 16
__Ptr$ = 8						; size = 4
__Newsize$ = 8						; size = 4
__Oldlen$ = 12						; size = 4
?_Copy@?$basic_string@DU?$char_traits@D@std@@V?$allocator@D@2@@std@@IAEXII@Z PROC NEAR ; std::basic_string<char,std::char_traits<char>,std::allocator<char> >::_Copy, COMDAT
; _this$ = ecx

; 1444 : 		{	// copy _Oldlen elements to newly allocated buffer

  00000	55		 push	 ebp
  00001	8b ec		 mov	 ebp, esp
  00003	6a ff		 push	 -1
  00005	68 00 00 00 00	 push	 __ehhandler$?_Copy@?$basic_string@DU?$char_traits@D@std@@V?$allocator@D@2@@std@@IAEXII@Z
  0000a	64 a1 00 00 00
	00		 mov	 eax, DWORD PTR fs:__except_list
  00010	50		 push	 eax
  00011	64 89 25 00 00
	00 00		 mov	 DWORD PTR fs:__except_list, esp
  00018	83 ec 0c	 sub	 esp, 12			; 0000000cH

; 1445 : 		size_type _Newres = _Newsize | _ALLOC_MASK;

  0001b	8b 45 08	 mov	 eax, DWORD PTR __Newsize$[ebp]
  0001e	53		 push	 ebx
  0001f	56		 push	 esi
  00020	8b d8		 mov	 ebx, eax
  00022	83 cb 0f	 or	 ebx, 15			; 0000000fH

; 1446 : 		if (max_size() < _Newres)

  00025	83 fb fe	 cmp	 ebx, -2			; fffffffeH
  00028	57		 push	 edi
  00029	8b f1		 mov	 esi, ecx
  0002b	89 65 f0	 mov	 DWORD PTR __$EHRec$[ebp], esp
  0002e	89 75 ec	 mov	 DWORD PTR _this$[ebp], esi
  00031	76 04		 jbe	 SHORT $L120172

; 1447 : 			_Newres = _Newsize;	// undo roundup if too big

  00033	8b d8		 mov	 ebx, eax

; 1448 : 		else if (_Newres / 3 < _Myres / 2

  00035	eb 22		 jmp	 SHORT $L120174
$L120172:

; 1449 : 			&& _Myres <= max_size() - _Myres / 2)

  00037	8b 7e 18	 mov	 edi, DWORD PTR [esi+24]
  0003a	b8 ab aa aa aa	 mov	 eax, -1431655765	; aaaaaaabH
  0003f	f7 e3		 mul	 ebx
  00041	8b cf		 mov	 ecx, edi
  00043	d1 e9		 shr	 ecx, 1
  00045	d1 ea		 shr	 edx, 1
  00047	3b d1		 cmp	 edx, ecx
  00049	73 0e		 jae	 SHORT $L120174
  0004b	b8 fe ff ff ff	 mov	 eax, -2			; fffffffeH
  00050	2b c1		 sub	 eax, ecx
  00052	3b f8		 cmp	 edi, eax
  00054	77 03		 ja	 SHORT $L120174

; 1450 : 			_Newres = _Myres + _Myres / 2;	// grow exponentially if possible

  00056	8d 1c 39	 lea	 ebx, DWORD PTR [ecx+edi]
$L120174:

; 1451 : 		_Elem *_Ptr;
; 1452 : 
; 1453 : 		_TRY_BEGIN
; 1454 : 			_Ptr = _Mybase::_Alval.allocate(_Newres + 1);

  00059	8d 4b 01	 lea	 ecx, DWORD PTR [ebx+1]
  0005c	51		 push	 ecx
  0005d	c7 45 fc 00 00
	00 00		 mov	 DWORD PTR __$EHRec$[ebp+12], 0
  00064	e8 00 00 00 00	 call	 ??2@YAPAXI@Z		; operator new
  00069	8b d0		 mov	 edx, eax
  0006b	83 c4 04	 add	 esp, 4
  0006e	89 55 08	 mov	 DWORD PTR __Ptr$[ebp], edx
  00071	eb 29		 jmp	 SHORT $L120176
$L124038:

; 1455 : 		_CATCH_ALL
; 1456 : 			_Newres = _Newsize;	// allocation failed, undo roundup and retry

  00073	8b 45 08	 mov	 eax, DWORD PTR __Newsize$[ebp]
  00076	89 45 e8	 mov	 DWORD PTR __Newres$[ebp], eax

; 1457 : 			_TRY_BEGIN
; 1458 : 				_Ptr = _Mybase::_Alval.allocate(_Newres + 1);

  00079	40		 inc	 eax
  0007a	89 65 f0	 mov	 DWORD PTR __$EHRec$[ebp], esp
  0007d	50		 push	 eax
  0007e	c6 45 fc 02	 mov	 BYTE PTR __$EHRec$[ebp+12], 2
  00082	e8 00 00 00 00	 call	 ??2@YAPAXI@Z		; operator new
  00087	89 45 08	 mov	 DWORD PTR __Ptr$[ebp], eax
  0008a	83 c4 04	 add	 esp, 4

; 1462 : 			_CATCH_END
; 1463 : 		_CATCH_END

  0008d	b8 00 00 00 00	 mov	 eax, $L124235
  00092	c3		 ret	 0
$L124235:
  00093	8b 5d e8	 mov	 ebx, DWORD PTR __Newres$[ebp]
  00096	8b 75 ec	 mov	 esi, DWORD PTR _this$[ebp]
  00099	8b 55 08	 mov	 edx, DWORD PTR __Ptr$[ebp]
$L120176:

; 1464 : 
; 1465 : 		if (0 < _Oldlen)

  0009c	8b 4d 0c	 mov	 ecx, DWORD PTR __Oldlen$[ebp]
  0009f	85 c9		 test	 ecx, ecx
  000a1	76 24		 jbe	 SHORT $L124158

; 1466 : 			_Traits::copy(_Ptr, _Myptr(), _Oldlen);	// copy existing elements

  000a3	83 7e 18 10	 cmp	 DWORD PTR [esi+24], 16	; 00000010H
  000a7	72 05		 jb	 SHORT $L124153
  000a9	8b 76 04	 mov	 esi, DWORD PTR [esi+4]
  000ac	eb 03		 jmp	 SHORT $L124154
$L124153:
  000ae	83 c6 04	 add	 esi, 4
$L124154:
  000b1	8b c1		 mov	 eax, ecx
  000b3	c1 e9 02	 shr	 ecx, 2
  000b6	8b fa		 mov	 edi, edx
  000b8	f3 a5		 rep movsd
  000ba	8b c8		 mov	 ecx, eax
  000bc	83 e1 03	 and	 ecx, 3
  000bf	f3 a4		 rep movsb
  000c1	8b 75 ec	 mov	 esi, DWORD PTR _this$[ebp]
  000c4	8b 4d 0c	 mov	 ecx, DWORD PTR __Oldlen$[ebp]
$L124158:

; 1467 : 		_Tidy(true);

  000c7	83 7e 18 10	 cmp	 DWORD PTR [esi+24], 16	; 00000010H
  000cb	72 12		 jb	 SHORT $L124200
  000cd	8b 4e 04	 mov	 ecx, DWORD PTR [esi+4]
  000d0	51		 push	 ecx
  000d1	e8 00 00 00 00	 call	 ??3@YAXPAX@Z		; operator delete
  000d6	8b 55 08	 mov	 edx, DWORD PTR __Ptr$[ebp]
  000d9	8b 4d 0c	 mov	 ecx, DWORD PTR __Oldlen$[ebp]
  000dc	83 c4 04	 add	 esp, 4
$L124200:

; 1468 : 		_Bx._Ptr = _Ptr;
; 1469 : 		_Myres = _Newres;
; 1470 : 		_Eos(_Oldlen);

  000df	83 fb 10	 cmp	 ebx, 16			; 00000010H
  000e2	8d 46 04	 lea	 eax, DWORD PTR [esi+4]
  000e5	c6 00 00	 mov	 BYTE PTR [eax], 0
  000e8	89 10		 mov	 DWORD PTR [eax], edx
  000ea	89 5e 18	 mov	 DWORD PTR [esi+24], ebx
  000ed	89 4e 14	 mov	 DWORD PTR [esi+20], ecx
  000f0	72 02		 jb	 SHORT $L124228
  000f2	8b c2		 mov	 eax, edx
$L124228:

; 1471 : 		}

  000f4	5f		 pop	 edi
  000f5	c6 04 08 00	 mov	 BYTE PTR [eax+ecx], 0
  000f9	8b 4d f4	 mov	 ecx, DWORD PTR __$EHRec$[ebp+4]
  000fc	5e		 pop	 esi
  000fd	64 89 0d 00 00
	00 00		 mov	 DWORD PTR fs:__except_list, ecx
  00104	5b		 pop	 ebx
  00105	8b e5		 mov	 esp, ebp
  00107	5d		 pop	 ebp
  00108	c2 08 00	 ret	 8
$L124040:

; 1459 : 			_CATCH_ALL
; 1460 : 			_Tidy(true);	// failed again, discard storage and reraise

  0010b	8b 75 ec	 mov	 esi, DWORD PTR _this$[ebp]
  0010e	83 7e 18 10	 cmp	 DWORD PTR [esi+24], 16	; 00000010H
  00112	72 0c		 jb	 SHORT $L124139
  00114	8b 56 04	 mov	 edx, DWORD PTR [esi+4]
  00117	52		 push	 edx
  00118	e8 00 00 00 00	 call	 ??3@YAXPAX@Z		; operator delete
  0011d	83 c4 04	 add	 esp, 4
$L124139:

; 1461 : 			_RERAISE;

  00120	6a 00		 push	 0
  00122	c7 46 18 0f 00
	00 00		 mov	 DWORD PTR [esi+24], 15	; 0000000fH
  00129	c7 46 14 00 00
	00 00		 mov	 DWORD PTR [esi+20], 0
  00130	6a 00		 push	 0
  00132	c6 46 04 00	 mov	 BYTE PTR [esi+4], 0
  00136	e8 00 00 00 00	 call	 __CxxThrowException@8
$L124244:
$L124238:
  0013b	cc		 int	 3
_TEXT	ENDS
;	COMDAT text$x
text$x	SEGMENT
__ehhandler$?_Copy@?$basic_string@DU?$char_traits@D@std@@V?$allocator@D@2@@std@@IAEXII@Z:
  00000	b8 00 00 00 00	 mov	 eax, OFFSET FLAT:$T124234
  00005	e9 00 00 00 00	 jmp	 ___CxxFrameHandler
text$x	ENDS
?_Copy@?$basic_string@DU?$char_traits@D@std@@V?$allocator@D@2@@std@@IAEXII@Z ENDP ; std::basic_string<char,std::char_traits<char>,std::allocator<char> >::_Copy
PUBLIC	?FormatV@?$CStringT@DV?$StrTraitATL@DV?$ChTraitsCRT@D@ATL@@@ATL@@@ATL@@QAEXPBDPAD@Z ; ATL::CStringT<char,ATL::StrTraitATL<char,ATL::ChTraitsCRT<char> > >::FormatV
; Function compile flags: /Ogty
; File c:\program files (x86)\microsoft visual studio .net 2003\vc7\atlmfc\include\cstringt.h
;	COMDAT ?FormatV@?$CStringT@DV?$StrTraitATL@DV?$ChTraitsCRT@D@ATL@@@ATL@@@ATL@@QAEXPBDPAD@Z
_TEXT	SEGMENT
_pszFormat$ = 8						; size = 4
_args$ = 12						; size = 4
?FormatV@?$CStringT@DV?$StrTraitATL@DV?$ChTraitsCRT@D@ATL@@@ATL@@@ATL@@QAEXPBDPAD@Z PROC NEAR ; ATL::CStringT<char,ATL::StrTraitATL<char,ATL::ChTraitsCRT<char> > >::FormatV, COMDAT
; _this$ = ecx

; 1855 : 	{

  00000	53		 push	 ebx

; 1856 : 		ATLASSERT( AtlIsValidString( pszFormat ) );
; 1857 : 		if(pszFormat == NULL)

  00001	8b 5c 24 08	 mov	 ebx, DWORD PTR _pszFormat$[esp]
  00005	85 db		 test	 ebx, ebx
  00007	57		 push	 edi
  00008	8b f9		 mov	 edi, ecx
  0000a	75 0a		 jne	 SHORT $L122629

; 1858 : 			AtlThrow(E_INVALIDARG);

  0000c	68 57 00 07 80	 push	 -2147024809		; 80070057H
  00011	e8 00 00 00 00	 call	 ?AtlThrow@ATL@@YGXJ@Z	; ATL::AtlThrow
$L124309:
$L122629:
  00016	55		 push	 ebp

; 1859 : 
; 1860 : 		int nLength = StringTraits::GetFormattedLength( pszFormat, args );

  00017	8b 6c 24 14	 mov	 ebp, DWORD PTR _args$[esp+8]
  0001b	56		 push	 esi
  0001c	55		 push	 ebp
  0001d	53		 push	 ebx
  0001e	e8 00 00 00 00	 call	 __vscprintf
  00023	8b f0		 mov	 esi, eax

; 1861 : 		PXSTR pszBuffer = GetBuffer( nLength );

  00025	8b 07		 mov	 eax, DWORD PTR [edi]
  00027	8b 50 fc	 mov	 edx, DWORD PTR [eax-4]
  0002a	83 e8 10	 sub	 eax, 16			; 00000010H
  0002d	b9 01 00 00 00	 mov	 ecx, 1
  00032	2b ca		 sub	 ecx, edx
  00034	8b 50 08	 mov	 edx, DWORD PTR [eax+8]
  00037	2b d6		 sub	 edx, esi
  00039	83 c4 08	 add	 esp, 8
  0003c	0b ca		 or	 ecx, edx
  0003e	7d 08		 jge	 SHORT $L124275
  00040	56		 push	 esi
  00041	8b cf		 mov	 ecx, edi
  00043	e8 00 00 00 00	 call	 ?PrepareWrite2@?$CSimpleStringT@D$0A@@ATL@@AAEXH@Z ; ATL::CSimpleStringT<char,0>::PrepareWrite2
$L124275:

; 1862 : 		StringTraits::Format( pszBuffer, pszFormat, args );

  00048	8b 07		 mov	 eax, DWORD PTR [edi]
  0004a	55		 push	 ebp
  0004b	53		 push	 ebx
  0004c	50		 push	 eax
  0004d	e8 00 00 00 00	 call	 _vsprintf
  00052	83 c4 0c	 add	 esp, 12			; 0000000cH

; 1863 : 		ReleaseBufferSetLength( nLength );

  00055	85 f6		 test	 esi, esi
  00057	7c 17		 jl	 SHORT $L124300
  00059	8b 07		 mov	 eax, DWORD PTR [edi]
  0005b	3b 70 f8	 cmp	 esi, DWORD PTR [eax-8]
  0005e	7f 10		 jg	 SHORT $L124300
  00060	89 70 f4	 mov	 DWORD PTR [eax-12], esi
  00063	8b 0f		 mov	 ecx, DWORD PTR [edi]
  00065	c6 04 0e 00	 mov	 BYTE PTR [esi+ecx], 0
  00069	5e		 pop	 esi
  0006a	5d		 pop	 ebp
  0006b	5f		 pop	 edi
  0006c	5b		 pop	 ebx

; 1864 : 	}

  0006d	c2 08 00	 ret	 8
$L124300:
  00070	68 57 00 07 80	 push	 -2147024809		; 80070057H
  00075	e8 00 00 00 00	 call	 ?AtlThrow@ATL@@YGXJ@Z	; ATL::AtlThrow
$L124310:
$L124308:
  0007a	cc		 int	 3
?FormatV@?$CStringT@DV?$StrTraitATL@DV?$ChTraitsCRT@D@ATL@@@ATL@@@ATL@@QAEXPBDPAD@Z ENDP ; ATL::CStringT<char,ATL::StrTraitATL<char,ATL::ChTraitsCRT<char> > >::FormatV
_TEXT	ENDS
PUBLIC	?Concatenate@?$CSimpleStringT@D$0A@@ATL@@KAXAAV12@PBDH1H@Z ; ATL::CSimpleStringT<char,0>::Concatenate
; Function compile flags: /Ogty
; File c:\program files (x86)\microsoft visual studio .net 2003\vc7\atlmfc\include\atlsimpstr.h
;	COMDAT ?Concatenate@?$CSimpleStringT@D$0A@@ATL@@KAXAAV12@PBDH1H@Z
_TEXT	SEGMENT
_strResult$ = 8						; size = 4
_psz1$ = 12						; size = 4
_nLength1$ = 16						; size = 4
_psz2$ = 20						; size = 4
_nLength2$ = 24						; size = 4
?Concatenate@?$CSimpleStringT@D$0A@@ATL@@KAXAAV12@PBDH1H@Z PROC NEAR ; ATL::CSimpleStringT<char,0>::Concatenate, COMDAT

; 697  : 		int nNewLength = nLength1+nLength2;

  00000	8b 44 24 14	 mov	 eax, DWORD PTR _nLength2$[esp-4]
  00004	53		 push	 ebx
  00005	55		 push	 ebp

; 698  : 		PXSTR pszBuffer = strResult.GetBuffer( nNewLength );

  00006	8b 6c 24 0c	 mov	 ebp, DWORD PTR _strResult$[esp+4]
  0000a	56		 push	 esi
  0000b	8b 74 24 18	 mov	 esi, DWORD PTR _nLength1$[esp+8]
  0000f	8d 1c 06	 lea	 ebx, DWORD PTR [esi+eax]
  00012	8b 45 00	 mov	 eax, DWORD PTR [ebp]
  00015	8b 50 fc	 mov	 edx, DWORD PTR [eax-4]
  00018	83 e8 10	 sub	 eax, 16			; 00000010H
  0001b	b9 01 00 00 00	 mov	 ecx, 1
  00020	2b ca		 sub	 ecx, edx
  00022	8b 50 08	 mov	 edx, DWORD PTR [eax+8]
  00025	2b d3		 sub	 edx, ebx
  00027	0b ca		 or	 ecx, edx
  00029	7d 08		 jge	 SHORT $L124337
  0002b	53		 push	 ebx
  0002c	8b cd		 mov	 ecx, ebp
  0002e	e8 00 00 00 00	 call	 ?PrepareWrite2@?$CSimpleStringT@D$0A@@ATL@@AAEXH@Z ; ATL::CSimpleStringT<char,0>::PrepareWrite2
$L124337:
  00033	8b 45 00	 mov	 eax, DWORD PTR [ebp]

; 699  : 		CopyChars( pszBuffer, psz1, nLength1 );

  00036	8b ce		 mov	 ecx, esi
  00038	8b 74 24 14	 mov	 esi, DWORD PTR _psz1$[esp+8]
  0003c	8b d1		 mov	 edx, ecx
  0003e	c1 e9 02	 shr	 ecx, 2
  00041	57		 push	 edi
  00042	8b f8		 mov	 edi, eax
  00044	f3 a5		 rep movsd
  00046	8b ca		 mov	 ecx, edx

; 700  : 		CopyChars( pszBuffer+nLength1, psz2, nLength2 );

  00048	8b 54 24 1c	 mov	 edx, DWORD PTR _nLength1$[esp+12]
  0004c	83 e1 03	 and	 ecx, 3
  0004f	f3 a4		 rep movsb
  00051	8b 4c 24 24	 mov	 ecx, DWORD PTR _nLength2$[esp+12]
  00055	8b 74 24 20	 mov	 esi, DWORD PTR _psz2$[esp+12]
  00059	8d 3c 10	 lea	 edi, DWORD PTR [eax+edx]
  0005c	8b c1		 mov	 eax, ecx
  0005e	c1 e9 02	 shr	 ecx, 2
  00061	f3 a5		 rep movsd
  00063	8b c8		 mov	 ecx, eax
  00065	83 e1 03	 and	 ecx, 3

; 701  : 		strResult.ReleaseBufferSetLength( nNewLength );

  00068	85 db		 test	 ebx, ebx
  0006a	f3 a4		 rep movsb
  0006c	5f		 pop	 edi
  0006d	7c 16		 jl	 SHORT $L124365
  0006f	8b 45 00	 mov	 eax, DWORD PTR [ebp]
  00072	3b 58 f8	 cmp	 ebx, DWORD PTR [eax-8]
  00075	7f 0e		 jg	 SHORT $L124365
  00077	89 58 f4	 mov	 DWORD PTR [eax-12], ebx
  0007a	8b 4d 00	 mov	 ecx, DWORD PTR [ebp]
  0007d	5e		 pop	 esi
  0007e	5d		 pop	 ebp
  0007f	c6 04 0b 00	 mov	 BYTE PTR [ebx+ecx], 0
  00083	5b		 pop	 ebx

; 702  : 	}

  00084	c3		 ret	 0
$L124365:
  00085	68 57 00 07 80	 push	 -2147024809		; 80070057H
  0008a	e8 00 00 00 00	 call	 ?AtlThrow@ATL@@YGXJ@Z	; ATL::AtlThrow
$L124373:
$L124372:
  0008f	cc		 int	 3
?Concatenate@?$CSimpleStringT@D$0A@@ATL@@KAXAAV12@PBDH1H@Z ENDP ; ATL::CSimpleStringT<char,0>::Concatenate
_TEXT	ENDS
PUBLIC	?Append@?$CSimpleStringT@D$0A@@ATL@@QAEXPBDH@Z	; ATL::CSimpleStringT<char,0>::Append
; Function compile flags: /Ogty
;	COMDAT ?Append@?$CSimpleStringT@D$0A@@ATL@@QAEXPBDH@Z
_TEXT	SEGMENT
_nOldLength$ = -4					; size = 4
_pszSrc$ = 8						; size = 4
_nLength$ = 12						; size = 4
?Append@?$CSimpleStringT@D$0A@@ATL@@QAEXPBDH@Z PROC NEAR ; ATL::CSimpleStringT<char,0>::Append, COMDAT
; _this$ = ecx

; 387  : 	{

  00000	51		 push	 ecx
  00001	53		 push	 ebx
  00002	55		 push	 ebp
  00003	8b e9		 mov	 ebp, ecx

; 388  : 		// See comment in SetString() about why we do this
; 389  : 		UINT_PTR nOffset = pszSrc-GetString();

  00005	8b 45 00	 mov	 eax, DWORD PTR [ebp]

; 390  : 
; 391  : 		UINT nOldLength = GetLength();
; 392  : 		int nNewLength = nOldLength+nLength;

  00008	8b 4c 24 14	 mov	 ecx, DWORD PTR _nLength$[esp+8]
  0000c	56		 push	 esi
  0000d	8b 70 f4	 mov	 esi, DWORD PTR [eax-12]
  00010	57		 push	 edi
  00011	8b 7c 24 18	 mov	 edi, DWORD PTR _pszSrc$[esp+16]
  00015	2b f8		 sub	 edi, eax
  00017	8d 1c 0e	 lea	 ebx, DWORD PTR [esi+ecx]

; 393  : 		PXSTR pszBuffer = GetBuffer( nNewLength );

  0001a	8b 48 fc	 mov	 ecx, DWORD PTR [eax-4]
  0001d	8b 40 f8	 mov	 eax, DWORD PTR [eax-8]
  00020	ba 01 00 00 00	 mov	 edx, 1
  00025	2b d1		 sub	 edx, ecx
  00027	2b c3		 sub	 eax, ebx
  00029	0b d0		 or	 edx, eax
  0002b	89 74 24 10	 mov	 DWORD PTR _nOldLength$[esp+20], esi
  0002f	7d 08		 jge	 SHORT $L124413
  00031	53		 push	 ebx
  00032	8b cd		 mov	 ecx, ebp
  00034	e8 00 00 00 00	 call	 ?PrepareWrite2@?$CSimpleStringT@D$0A@@ATL@@AAEXH@Z ; ATL::CSimpleStringT<char,0>::PrepareWrite2
$L124413:

; 394  : 		if( nOffset <= nOldLength )

  00039	3b fe		 cmp	 edi, esi
  0003b	8b 45 00	 mov	 eax, DWORD PTR [ebp]
  0003e	77 07		 ja	 SHORT $L122663

; 395  : 		{
; 396  : 			pszSrc = pszBuffer+nOffset;

  00040	8d 0c 38	 lea	 ecx, DWORD PTR [eax+edi]
  00043	89 4c 24 18	 mov	 DWORD PTR _pszSrc$[esp+16], ecx
$L122663:

; 397  : 			// No need to call CopyCharsOverlapped, since the destination is
; 398  : 			// beyond the end of the original buffer
; 399  : 		}
; 400  : 		CopyChars( pszBuffer+nOldLength, pszSrc, nLength );

  00047	8b 54 24 10	 mov	 edx, DWORD PTR _nOldLength$[esp+20]
  0004b	8b 4c 24 1c	 mov	 ecx, DWORD PTR _nLength$[esp+16]
  0004f	8b 74 24 18	 mov	 esi, DWORD PTR _pszSrc$[esp+16]
  00053	8d 3c 10	 lea	 edi, DWORD PTR [eax+edx]
  00056	8b c1		 mov	 eax, ecx
  00058	c1 e9 02	 shr	 ecx, 2
  0005b	f3 a5		 rep movsd
  0005d	8b c8		 mov	 ecx, eax
  0005f	83 e1 03	 and	 ecx, 3

; 401  : 		ReleaseBufferSetLength( nNewLength );

  00062	85 db		 test	 ebx, ebx
  00064	f3 a4		 rep movsb
  00066	7c 1a		 jl	 SHORT $L124438
  00068	8b 45 00	 mov	 eax, DWORD PTR [ebp]
  0006b	3b 58 f8	 cmp	 ebx, DWORD PTR [eax-8]
  0006e	7f 12		 jg	 SHORT $L124438
  00070	5f		 pop	 edi
  00071	89 58 f4	 mov	 DWORD PTR [eax-12], ebx
  00074	8b 4d 00	 mov	 ecx, DWORD PTR [ebp]
  00077	5e		 pop	 esi
  00078	5d		 pop	 ebp
  00079	c6 04 0b 00	 mov	 BYTE PTR [ebx+ecx], 0
  0007d	5b		 pop	 ebx

; 402  : 	}

  0007e	59		 pop	 ecx
  0007f	c2 08 00	 ret	 8

; 401  : 		ReleaseBufferSetLength( nNewLength );

$L124438:
  00082	68 57 00 07 80	 push	 -2147024809		; 80070057H
  00087	e8 00 00 00 00	 call	 ?AtlThrow@ATL@@YGXJ@Z	; ATL::AtlThrow
$L124446:
$L124445:
  0008c	cc		 int	 3
?Append@?$CSimpleStringT@D$0A@@ATL@@QAEXPBDH@Z ENDP	; ATL::CSimpleStringT<char,0>::Append
_TEXT	ENDS
PUBLIC	??0?$CStringT@DV?$StrTraitATL@DV?$ChTraitsCRT@D@ATL@@@ATL@@@ATL@@QAE@ABV01@@Z ; ATL::CStringT<char,ATL::StrTraitATL<char,ATL::ChTraitsCRT<char> > >::CStringT<char,ATL::StrTraitATL<char,ATL::ChTraitsCRT<char> > >
; Function compile flags: /Ogty
; File c:\program files (x86)\microsoft visual studio .net 2003\vc7\atlmfc\include\cstringt.h
;	COMDAT ??0?$CStringT@DV?$StrTraitATL@DV?$ChTraitsCRT@D@ATL@@@ATL@@@ATL@@QAE@ABV01@@Z
_TEXT	SEGMENT
_strSrc$ = 8						; size = 4
??0?$CStringT@DV?$StrTraitATL@DV?$ChTraitsCRT@D@ATL@@@ATL@@@ATL@@QAE@ABV01@@Z PROC NEAR ; ATL::CStringT<char,ATL::StrTraitATL<char,ATL::ChTraitsCRT<char> > >::CStringT<char,ATL::StrTraitATL<char,ATL::ChTraitsCRT<char> > >, COMDAT
; _this$ = ecx

; 814  : 	{

  00000	8b 44 24 04	 mov	 eax, DWORD PTR _strSrc$[esp-4]
  00004	8b 00		 mov	 eax, DWORD PTR [eax]
  00006	56		 push	 esi
  00007	83 e8 10	 sub	 eax, 16			; 00000010H
  0000a	50		 push	 eax
  0000b	8b f1		 mov	 esi, ecx
  0000d	e8 00 00 00 00	 call	 ?CloneData@?$CSimpleStringT@D$0A@@ATL@@CAPAUCStringData@2@PAU32@@Z ; ATL::CSimpleStringT<char,0>::CloneData
  00012	83 c0 10	 add	 eax, 16			; 00000010H
  00015	89 06		 mov	 DWORD PTR [esi], eax
  00017	83 c4 04	 add	 esp, 4

; 815  : 	}

  0001a	8b c6		 mov	 eax, esi
  0001c	5e		 pop	 esi
  0001d	c2 04 00	 ret	 4
??0?$CStringT@DV?$StrTraitATL@DV?$ChTraitsCRT@D@ATL@@@ATL@@@ATL@@QAE@ABV01@@Z ENDP ; ATL::CStringT<char,ATL::StrTraitATL<char,ATL::ChTraitsCRT<char> > >::CStringT<char,ATL::StrTraitATL<char,ATL::ChTraitsCRT<char> > >
_TEXT	ENDS
PUBLIC	??1?$basic_string@DU?$char_traits@D@std@@V?$allocator@D@2@@std@@QAE@XZ ; std::basic_string<char,std::char_traits<char>,std::allocator<char> >::~basic_string<char,std::char_traits<char>,std::allocator<char> >
; Function compile flags: /Ogty
; File c:\program files (x86)\microsoft visual studio .net 2003\vc7\include\xstring
;	COMDAT ??1?$basic_string@DU?$char_traits@D@std@@V?$allocator@D@2@@std@@QAE@XZ
_TEXT	SEGMENT
??1?$basic_string@DU?$char_traits@D@std@@V?$allocator@D@2@@std@@QAE@XZ PROC NEAR ; std::basic_string<char,std::char_traits<char>,std::allocator<char> >::~basic_string<char,std::char_traits<char>,std::allocator<char> >, COMDAT
; _this$ = ecx

; 456  : 		{	// destroy the string

  00000	56		 push	 esi
  00001	8b f1		 mov	 esi, ecx

; 457  : 		_Tidy(true);

  00003	83 7e 18 10	 cmp	 DWORD PTR [esi+24], 16	; 00000010H
  00007	72 0c		 jb	 SHORT $L124515
  00009	8b 46 04	 mov	 eax, DWORD PTR [esi+4]
  0000c	50		 push	 eax
  0000d	e8 00 00 00 00	 call	 ??3@YAXPAX@Z		; operator delete
  00012	83 c4 04	 add	 esp, 4
$L124515:
  00015	33 c0		 xor	 eax, eax
  00017	c7 46 18 0f 00
	00 00		 mov	 DWORD PTR [esi+24], 15	; 0000000fH
  0001e	89 46 14	 mov	 DWORD PTR [esi+20], eax
  00021	88 46 04	 mov	 BYTE PTR [esi+4], al
  00024	5e		 pop	 esi

; 458  : 		}

  00025	c3		 ret	 0
??1?$basic_string@DU?$char_traits@D@std@@V?$allocator@D@2@@std@@QAE@XZ ENDP ; std::basic_string<char,std::char_traits<char>,std::allocator<char> >::~basic_string<char,std::char_traits<char>,std::allocator<char> >
_TEXT	ENDS
PUBLIC	?LoadStringA@?$CStringT@DV?$StrTraitATL@DV?$ChTraitsCRT@D@ATL@@@ATL@@@ATL@@QAEHPAUHINSTANCE__@@I@Z ; ATL::CStringT<char,ATL::StrTraitATL<char,ATL::ChTraitsCRT<char> > >::LoadStringA
; Function compile flags: /Ogty
; File c:\program files (x86)\microsoft visual studio .net 2003\vc7\atlmfc\include\cstringt.h
;	COMDAT ?LoadStringA@?$CStringT@DV?$StrTraitATL@DV?$ChTraitsCRT@D@ATL@@@ATL@@@ATL@@QAEHPAUHINSTANCE__@@I@Z
_TEXT	SEGMENT
_hInstance$ = 8						; size = 4
_nID$ = 12						; size = 4
?LoadStringA@?$CStringT@DV?$StrTraitATL@DV?$ChTraitsCRT@D@ATL@@@ATL@@@ATL@@QAEHPAUHINSTANCE__@@I@Z PROC NEAR ; ATL::CStringT<char,ATL::StrTraitATL<char,ATL::ChTraitsCRT<char> > >::LoadStringA, COMDAT
; _this$ = ecx

; 1981 : 	{

  00000	53		 push	 ebx
  00001	56		 push	 esi

; 1982 : 		const ATLSTRINGRESOURCEIMAGE* pImage = AtlGetStringResourceImage( hInstance, nID );

  00002	8b 74 24 10	 mov	 esi, DWORD PTR _nID$[esp+4]
  00006	8b c6		 mov	 eax, esi
  00008	c1 e8 04	 shr	 eax, 4
  0000b	57		 push	 edi
  0000c	8b 7c 24 10	 mov	 edi, DWORD PTR _hInstance$[esp+8]
  00010	40		 inc	 eax
  00011	8b d9		 mov	 ebx, ecx
  00013	0f b7 c8	 movzx	 ecx, ax
  00016	6a 06		 push	 6
  00018	51		 push	 ecx
  00019	57		 push	 edi
  0001a	ff 15 00 00 00
	00		 call	 DWORD PTR __imp__FindResourceA@12
  00020	85 c0		 test	 eax, eax
  00022	74 11		 je	 SHORT $L124604
  00024	56		 push	 esi
  00025	50		 push	 eax
  00026	57		 push	 edi
  00027	e8 00 00 00 00	 call	 ?_AtlGetStringResourceImage@ATL@@YAPBUATLSTRINGRESOURCEIMAGE@1@PAUHINSTANCE__@@PAUHRSRC__@@I@Z ; ATL::_AtlGetStringResourceImage
  0002c	8b f8		 mov	 edi, eax
  0002e	83 c4 0c	 add	 esp, 12			; 0000000cH

; 1983 : 		if( pImage == NULL )

  00031	85 ff		 test	 edi, edi
  00033	75 08		 jne	 SHORT $L117649
$L124604:
  00035	5f		 pop	 edi
  00036	5e		 pop	 esi

; 1984 : 		{
; 1985 : 			return( FALSE );

  00037	33 c0		 xor	 eax, eax
  00039	5b		 pop	 ebx

; 1994 : 	}

  0003a	c2 08 00	 ret	 8
$L117649:

; 1986 : 		}
; 1987 : 
; 1988 : 		int nLength = StringTraits::GetBaseTypeLength( pImage->achString, pImage->nLength );

  0003d	0f b7 07	 movzx	 eax, WORD PTR [edi]
  00040	55		 push	 ebp
  00041	6a 00		 push	 0
  00043	6a 00		 push	 0
  00045	6a 00		 push	 0
  00047	6a 00		 push	 0
  00049	50		 push	 eax
  0004a	8d 6f 02	 lea	 ebp, DWORD PTR [edi+2]
  0004d	55		 push	 ebp
  0004e	6a 00		 push	 0
  00050	ff 15 00 00 00
	00		 call	 DWORD PTR ?g_pfnGetThreadACP@ATL@@3P6GIXZA ; ATL::g_pfnGetThreadACP
  00056	50		 push	 eax
  00057	ff 15 00 00 00
	00		 call	 DWORD PTR __imp__WideCharToMultiByte@32
  0005d	8b f0		 mov	 esi, eax

; 1989 : 		PXSTR pszBuffer = GetBuffer( nLength );

  0005f	8b 03		 mov	 eax, DWORD PTR [ebx]
  00061	8b 48 fc	 mov	 ecx, DWORD PTR [eax-4]
  00064	83 e8 10	 sub	 eax, 16			; 00000010H
  00067	8b 40 08	 mov	 eax, DWORD PTR [eax+8]
  0006a	ba 01 00 00 00	 mov	 edx, 1
  0006f	2b d1		 sub	 edx, ecx
  00071	2b c6		 sub	 eax, esi
  00073	0b d0		 or	 edx, eax
  00075	7d 08		 jge	 SHORT $L124566
  00077	56		 push	 esi
  00078	8b cb		 mov	 ecx, ebx
  0007a	e8 00 00 00 00	 call	 ?PrepareWrite2@?$CSimpleStringT@D$0A@@ATL@@AAEXH@Z ; ATL::CSimpleStringT<char,0>::PrepareWrite2
$L124566:
  0007f	8b 03		 mov	 eax, DWORD PTR [ebx]

; 1990 : 		StringTraits::ConvertToBaseType( pszBuffer, nLength, pImage->achString, pImage->nLength );

  00081	0f b7 0f	 movzx	 ecx, WORD PTR [edi]
  00084	6a 00		 push	 0
  00086	6a 00		 push	 0
  00088	56		 push	 esi
  00089	50		 push	 eax
  0008a	51		 push	 ecx
  0008b	55		 push	 ebp
  0008c	6a 00		 push	 0
  0008e	ff 15 00 00 00
	00		 call	 DWORD PTR ?g_pfnGetThreadACP@ATL@@3P6GIXZA ; ATL::g_pfnGetThreadACP
  00094	50		 push	 eax
  00095	ff 15 00 00 00
	00		 call	 DWORD PTR __imp__WideCharToMultiByte@32

; 1991 : 		ReleaseBufferSetLength( nLength );

  0009b	85 f6		 test	 esi, esi
  0009d	5d		 pop	 ebp
  0009e	7c 1b		 jl	 SHORT $L124597
  000a0	8b 03		 mov	 eax, DWORD PTR [ebx]
  000a2	3b 70 f8	 cmp	 esi, DWORD PTR [eax-8]
  000a5	7f 14		 jg	 SHORT $L124597
  000a7	89 70 f4	 mov	 DWORD PTR [eax-12], esi
  000aa	8b 0b		 mov	 ecx, DWORD PTR [ebx]
  000ac	5f		 pop	 edi
  000ad	c6 04 0e 00	 mov	 BYTE PTR [esi+ecx], 0
  000b1	5e		 pop	 esi

; 1992 : 
; 1993 : 		return( TRUE );

  000b2	b8 01 00 00 00	 mov	 eax, 1
  000b7	5b		 pop	 ebx

; 1994 : 	}

  000b8	c2 08 00	 ret	 8
$L124597:
  000bb	68 57 00 07 80	 push	 -2147024809		; 80070057H
  000c0	e8 00 00 00 00	 call	 ?AtlThrow@ATL@@YGXJ@Z	; ATL::AtlThrow
$L124606:
$L124605:
  000c5	cc		 int	 3
?LoadStringA@?$CStringT@DV?$StrTraitATL@DV?$ChTraitsCRT@D@ATL@@@ATL@@@ATL@@QAEHPAUHINSTANCE__@@I@Z ENDP ; ATL::CStringT<char,ATL::StrTraitATL<char,ATL::ChTraitsCRT<char> > >::LoadStringA
_TEXT	ENDS
PUBLIC	??4?$CSimpleStringT@D$0A@@ATL@@QAEAAV01@ABV01@@Z ; ATL::CSimpleStringT<char,0>::operator=
; Function compile flags: /Ogty
; File c:\program files (x86)\microsoft visual studio .net 2003\vc7\atlmfc\include\atlsimpstr.h
;	COMDAT ??4?$CSimpleStringT@D$0A@@ATL@@QAEAAV01@ABV01@@Z
_TEXT	SEGMENT
_strSrc$ = 8						; size = 4
??4?$CSimpleStringT@D$0A@@ATL@@QAEAAV01@ABV01@@Z PROC NEAR ; ATL::CSimpleStringT<char,0>::operator=, COMDAT
; _this$ = ecx

; 274  : 		CStringData* pSrcData = strSrc.GetData();

  00000	8b 44 24 04	 mov	 eax, DWORD PTR _strSrc$[esp-4]
  00004	56		 push	 esi
  00005	57		 push	 edi
  00006	8b f9		 mov	 edi, ecx
  00008	8b 08		 mov	 ecx, DWORD PTR [eax]

; 275  : 		CStringData* pOldData = GetData();

  0000a	8b 37		 mov	 esi, DWORD PTR [edi]
  0000c	8d 41 f0	 lea	 eax, DWORD PTR [ecx-16]
  0000f	83 ee 10	 sub	 esi, 16			; 00000010H

; 276  : 		if( pSrcData != pOldData)

  00012	3b c6		 cmp	 eax, esi
  00014	74 4d		 je	 SHORT $L124644

; 277  : 		{
; 278  : 			if( pOldData->IsLocked() || pSrcData->pStringMgr != pOldData->pStringMgr )

  00016	8b 56 0c	 mov	 edx, DWORD PTR [esi+12]
  00019	85 d2		 test	 edx, edx
  0001b	53		 push	 ebx
  0001c	8d 5e 0c	 lea	 ebx, DWORD PTR [esi+12]
  0001f	55		 push	 ebp
  00020	7c 33		 jl	 SHORT $L117679
  00022	8b 10		 mov	 edx, DWORD PTR [eax]
  00024	3b 16		 cmp	 edx, DWORD PTR [esi]
  00026	75 2d		 jne	 SHORT $L117679

; 281  : 			}
; 282  : 			else
; 283  : 			{
; 284  : 				CStringData* pNewData = CloneData( pSrcData );

  00028	50		 push	 eax
  00029	e8 00 00 00 00	 call	 ?CloneData@?$CSimpleStringT@D$0A@@ATL@@CAPAUCStringData@2@PAU32@@Z ; ATL::CSimpleStringT<char,0>::CloneData
  0002e	8b e8		 mov	 ebp, eax
  00030	83 c4 04	 add	 esp, 4

; 285  : 				pOldData->Release();

  00033	83 c8 ff	 or	 eax, -1
  00036	f0 0f c1 03	 lock	  xadd	 DWORD PTR [ebx], eax
  0003a	48		 dec	 eax
  0003b	85 c0		 test	 eax, eax
  0003d	7f 08		 jg	 SHORT $L124635
  0003f	8b 0e		 mov	 ecx, DWORD PTR [esi]
  00041	8b 11		 mov	 edx, DWORD PTR [ecx]
  00043	56		 push	 esi
  00044	ff 52 04	 call	 DWORD PTR [edx+4]
$L124635:

; 286  : 				Attach( pNewData );

  00047	83 c5 10	 add	 ebp, 16			; 00000010H
  0004a	89 2f		 mov	 DWORD PTR [edi], ebp
  0004c	5d		 pop	 ebp
  0004d	5b		 pop	 ebx

; 287  : 			}
; 288  : 		}
; 289  : 
; 290  : 		return( *this );

  0004e	8b c7		 mov	 eax, edi
  00050	5f		 pop	 edi
  00051	5e		 pop	 esi

; 291  : 	}

  00052	c2 04 00	 ret	 4
$L117679:

; 279  : 			{
; 280  : 				SetString( strSrc.GetString(), strSrc.GetLength() );

  00055	8b 41 f4	 mov	 eax, DWORD PTR [ecx-12]
  00058	50		 push	 eax
  00059	51		 push	 ecx
  0005a	8b cf		 mov	 ecx, edi
  0005c	e8 00 00 00 00	 call	 ?SetString@?$CSimpleStringT@D$0A@@ATL@@QAEXPBDH@Z ; ATL::CSimpleStringT<char,0>::SetString
  00061	5d		 pop	 ebp
  00062	5b		 pop	 ebx
$L124644:

; 287  : 			}
; 288  : 		}
; 289  : 
; 290  : 		return( *this );

  00063	8b c7		 mov	 eax, edi
  00065	5f		 pop	 edi
  00066	5e		 pop	 esi

; 291  : 	}

  00067	c2 04 00	 ret	 4
??4?$CSimpleStringT@D$0A@@ATL@@QAEAAV01@ABV01@@Z ENDP	; ATL::CSimpleStringT<char,0>::operator=
_TEXT	ENDS
PUBLIC	?SetString@?$CSimpleStringT@D$0A@@ATL@@QAEXPBD@Z ; ATL::CSimpleStringT<char,0>::SetString
; Function compile flags: /Ogty
;	COMDAT ?SetString@?$CSimpleStringT@D$0A@@ATL@@QAEXPBD@Z
_TEXT	SEGMENT
_pszSrc$ = 8						; size = 4
?SetString@?$CSimpleStringT@D$0A@@ATL@@QAEXPBD@Z PROC NEAR ; ATL::CSimpleStringT<char,0>::SetString, COMDAT
; _this$ = ecx

; 579  : 	{

  00000	56		 push	 esi

; 580  : 		SetString( pszSrc, StringLength( pszSrc ) );

  00001	8b 74 24 08	 mov	 esi, DWORD PTR _pszSrc$[esp]
  00005	85 f6		 test	 esi, esi
  00007	75 0d		 jne	 SHORT $L124653
  00009	33 c0		 xor	 eax, eax
  0000b	50		 push	 eax
  0000c	56		 push	 esi
  0000d	e8 00 00 00 00	 call	 ?SetString@?$CSimpleStringT@D$0A@@ATL@@QAEXPBDH@Z ; ATL::CSimpleStringT<char,0>::SetString
  00012	5e		 pop	 esi

; 581  : 	}

  00013	c2 04 00	 ret	 4

; 580  : 		SetString( pszSrc, StringLength( pszSrc ) );

$L124653:
  00016	8b c6		 mov	 eax, esi
  00018	57		 push	 edi
  00019	8d 78 01	 lea	 edi, DWORD PTR [eax+1]
  0001c	8d 64 24 00	 npad	 4
$L124656:
  00020	8a 10		 mov	 dl, BYTE PTR [eax]
  00022	40		 inc	 eax
  00023	84 d2		 test	 dl, dl
  00025	75 f9		 jne	 SHORT $L124656
  00027	2b c7		 sub	 eax, edi
  00029	5f		 pop	 edi
  0002a	50		 push	 eax
  0002b	56		 push	 esi
  0002c	e8 00 00 00 00	 call	 ?SetString@?$CSimpleStringT@D$0A@@ATL@@QAEXPBDH@Z ; ATL::CSimpleStringT<char,0>::SetString
  00031	5e		 pop	 esi

; 581  : 	}

  00032	c2 04 00	 ret	 4
?SetString@?$CSimpleStringT@D$0A@@ATL@@QAEXPBD@Z ENDP	; ATL::CSimpleStringT<char,0>::SetString
_TEXT	ENDS
PUBLIC	?_Grow@?$basic_string@DU?$char_traits@D@std@@V?$allocator@D@2@@std@@IAE_NI_N@Z ; std::basic_string<char,std::char_traits<char>,std::allocator<char> >::_Grow
EXTRN	?_Xlen@_String_base@std@@QBEXXZ:NEAR		; std::_String_base::_Xlen
; Function compile flags: /Ogty
; File c:\program files (x86)\microsoft visual studio .net 2003\vc7\include\xstring
;	COMDAT ?_Grow@?$basic_string@DU?$char_traits@D@std@@V?$allocator@D@2@@std@@IAE_NI_N@Z
_TEXT	SEGMENT
__Newsize$ = 8						; size = 4
__Trim$ = 12						; size = 1
?_Grow@?$basic_string@DU?$char_traits@D@std@@V?$allocator@D@2@@std@@IAE_NI_N@Z PROC NEAR ; std::basic_string<char,std::char_traits<char>,std::allocator<char> >::_Grow, COMDAT
; _this$ = ecx

; 1480 : 		{	// ensure buffer is big enough, trim to size if _Trim is true

  00000	55		 push	 ebp
  00001	56		 push	 esi

; 1481 : 		if (max_size() < _Newsize)

  00002	8b 74 24 0c	 mov	 esi, DWORD PTR __Newsize$[esp+4]
  00006	83 fe fe	 cmp	 esi, -2			; fffffffeH
  00009	8b e9		 mov	 ebp, ecx
  0000b	76 05		 jbe	 SHORT $L119063

; 1482 : 			_String_base::_Xlen();	// result too long

  0000d	e8 00 00 00 00	 call	 ?_Xlen@_String_base@std@@QBEXXZ ; std::_String_base::_Xlen
$L119063:

; 1483 : 		if (_Myres < _Newsize)

  00012	8b 45 18	 mov	 eax, DWORD PTR [ebp+24]
  00015	3b c6		 cmp	 eax, esi
  00017	73 19		 jae	 SHORT $L119064

; 1484 : 			_Copy(_Newsize, _Mysize);	// reallocate to grow

  00019	8b 45 14	 mov	 eax, DWORD PTR [ebp+20]
  0001c	50		 push	 eax
  0001d	56		 push	 esi
  0001e	8b cd		 mov	 ecx, ebp
  00020	e8 00 00 00 00	 call	 ?_Copy@?$basic_string@DU?$char_traits@D@std@@V?$allocator@D@2@@std@@IAEXII@Z ; std::basic_string<char,std::char_traits<char>,std::allocator<char> >::_Copy

; 1490 : 		return (0 < _Newsize);	// return true only if more work to do

  00025	33 c0		 xor	 eax, eax
  00027	3b c6		 cmp	 eax, esi
  00029	1b c0		 sbb	 eax, eax
  0002b	5e		 pop	 esi
  0002c	f7 d8		 neg	 eax
  0002e	5d		 pop	 ebp

; 1491 : 		}

  0002f	c2 08 00	 ret	 8
$L119064:

; 1485 : 		else if (_Trim && _Newsize < _BUF_SIZE)

  00032	8a 4c 24 10	 mov	 cl, BYTE PTR __Trim$[esp+4]
  00036	84 c9		 test	 cl, cl
  00038	74 5c		 je	 SHORT $L119066
  0003a	83 fe 10	 cmp	 esi, 16			; 00000010H
  0003d	73 57		 jae	 SHORT $L119066
  0003f	53		 push	 ebx

; 1486 : 			_Tidy(true,	// copy and deallocate if trimming to small string
; 1487 : 				_Newsize < _Mysize ? _Newsize : _Mysize);

  00040	8b 5d 14	 mov	 ebx, DWORD PTR [ebp+20]
  00043	3b f3		 cmp	 esi, ebx
  00045	73 02		 jae	 SHORT $L124661
  00047	8b de		 mov	 ebx, esi
$L124661:
  00049	83 f8 10	 cmp	 eax, 16			; 00000010H
  0004c	72 2b		 jb	 SHORT $L124721
  0004e	85 db		 test	 ebx, ebx
  00050	8b 45 04	 mov	 eax, DWORD PTR [ebp+4]
  00053	57		 push	 edi
  00054	8d 7d 04	 lea	 edi, DWORD PTR [ebp+4]
  00057	76 16		 jbe	 SHORT $L124719
  00059	8b cb		 mov	 ecx, ebx
  0005b	8b d1		 mov	 edx, ecx
  0005d	c1 e9 02	 shr	 ecx, 2
  00060	8b f0		 mov	 esi, eax
  00062	f3 a5		 rep movsd
  00064	8b ca		 mov	 ecx, edx
  00066	83 e1 03	 and	 ecx, 3
  00069	f3 a4		 rep movsb
  0006b	8b 74 24 14	 mov	 esi, DWORD PTR __Newsize$[esp+12]
$L124719:
  0006f	50		 push	 eax
  00070	e8 00 00 00 00	 call	 ??3@YAXPAX@Z		; operator delete
  00075	83 c4 04	 add	 esp, 4
  00078	5f		 pop	 edi
$L124721:
  00079	89 5d 14	 mov	 DWORD PTR [ebp+20], ebx

; 1490 : 		return (0 < _Newsize);	// return true only if more work to do

  0007c	33 c0		 xor	 eax, eax
  0007e	c7 45 18 0f 00
	00 00		 mov	 DWORD PTR [ebp+24], 15	; 0000000fH
  00085	c6 44 2b 04 00	 mov	 BYTE PTR [ebx+ebp+4], 0
  0008a	3b c6		 cmp	 eax, esi
  0008c	5b		 pop	 ebx
  0008d	1b c0		 sbb	 eax, eax
  0008f	5e		 pop	 esi
  00090	f7 d8		 neg	 eax
  00092	5d		 pop	 ebp

; 1491 : 		}

  00093	c2 08 00	 ret	 8
$L119066:

; 1488 : 		else if (_Newsize == 0)

  00096	85 f6		 test	 esi, esi
  00098	75 23		 jne	 SHORT $L124752

; 1489 : 			_Eos(0);	// new size is zero, just null terminate

  0009a	83 f8 10	 cmp	 eax, 16			; 00000010H
  0009d	89 75 14	 mov	 DWORD PTR [ebp+20], esi
  000a0	72 14		 jb	 SHORT $L124750
  000a2	8b 6d 04	 mov	 ebp, DWORD PTR [ebp+4]

; 1490 : 		return (0 < _Newsize);	// return true only if more work to do

  000a5	33 c0		 xor	 eax, eax
  000a7	3b c6		 cmp	 eax, esi
  000a9	1b c0		 sbb	 eax, eax
  000ab	5e		 pop	 esi
  000ac	c6 45 00 00	 mov	 BYTE PTR [ebp], 0
  000b0	f7 d8		 neg	 eax
  000b2	5d		 pop	 ebp

; 1491 : 		}

  000b3	c2 08 00	 ret	 8

; 1489 : 			_Eos(0);	// new size is zero, just null terminate

$L124750:
  000b6	83 c5 04	 add	 ebp, 4
  000b9	c6 45 00 00	 mov	 BYTE PTR [ebp], 0
$L124752:

; 1490 : 		return (0 < _Newsize);	// return true only if more work to do

  000bd	33 c0		 xor	 eax, eax
  000bf	3b c6		 cmp	 eax, esi
  000c1	1b c0		 sbb	 eax, eax
  000c3	5e		 pop	 esi
  000c4	f7 d8		 neg	 eax
  000c6	5d		 pop	 ebp

; 1491 : 		}

  000c7	c2 08 00	 ret	 8
?_Grow@?$basic_string@DU?$char_traits@D@std@@V?$allocator@D@2@@std@@IAE_NI_N@Z ENDP ; std::basic_string<char,std::char_traits<char>,std::allocator<char> >::_Grow
_TEXT	ENDS
PUBLIC	?Left@?$CStringT@DV?$StrTraitATL@DV?$ChTraitsCRT@D@ATL@@@ATL@@@ATL@@QBE?AV12@H@Z ; ATL::CStringT<char,ATL::StrTraitATL<char,ATL::ChTraitsCRT<char> > >::Left
; Function compile flags: /Ogty
; File c:\program files (x86)\microsoft visual studio .net 2003\vc7\atlmfc\include\cstringt.h
;	COMDAT ?Left@?$CStringT@DV?$StrTraitATL@DV?$ChTraitsCRT@D@ATL@@@ATL@@@ATL@@QBE?AV12@H@Z
_TEXT	SEGMENT
$T124759 = -4						; size = 4
___$ReturnUdt$ = 8					; size = 4
_nCount$ = 12						; size = 4
?Left@?$CStringT@DV?$StrTraitATL@DV?$ChTraitsCRT@D@ATL@@@ATL@@@ATL@@QBE?AV12@H@Z PROC NEAR ; ATL::CStringT<char,ATL::StrTraitATL<char,ATL::ChTraitsCRT<char> > >::Left, COMDAT
; _this$ = ecx

; 1759 : 	{

  00000	51		 push	 ecx
  00001	56		 push	 esi
  00002	57		 push	 edi

; 1760 : 		// nCount is in XCHARs
; 1761 : 		if (nCount < 0)

  00003	8b 7c 24 14	 mov	 edi, DWORD PTR _nCount$[esp+8]
  00007	85 ff		 test	 edi, edi
  00009	c7 44 24 08 00
	00 00 00	 mov	 DWORD PTR $T124759[esp+12], 0
  00011	7d 02		 jge	 SHORT $L122601

; 1762 : 			nCount = 0;

  00013	33 ff		 xor	 edi, edi
$L122601:

; 1763 : 
; 1764 : 		int nLength = GetLength();

  00015	8b 31		 mov	 esi, DWORD PTR [ecx]

; 1765 : 		if( nCount >= nLength )

  00017	3b 7e f4	 cmp	 edi, DWORD PTR [esi-12]
  0001a	7c 1d		 jl	 SHORT $L122603

; 1766 : 		{
; 1767 : 			return( *this );

  0001c	8d 46 f0	 lea	 eax, DWORD PTR [esi-16]
  0001f	50		 push	 eax
  00020	e8 00 00 00 00	 call	 ?CloneData@?$CSimpleStringT@D$0A@@ATL@@CAPAUCStringData@2@PAU32@@Z ; ATL::CSimpleStringT<char,0>::CloneData
  00025	83 c4 04	 add	 esp, 4
  00028	8b c8		 mov	 ecx, eax
  0002a	8b 44 24 10	 mov	 eax, DWORD PTR ___$ReturnUdt$[esp+8]
  0002e	83 c1 10	 add	 ecx, 16			; 00000010H
  00031	5f		 pop	 edi
  00032	89 08		 mov	 DWORD PTR [eax], ecx
  00034	5e		 pop	 esi

; 1771 : 	}

  00035	59		 pop	 ecx
  00036	c2 08 00	 ret	 8
$L122603:

; 1768 : 		}
; 1769 : 
; 1770 : 		return( CStringT( GetString(), nCount, GetManager() ) );

  00039	8b 4e f0	 mov	 ecx, DWORD PTR [esi-16]
  0003c	8b 11		 mov	 edx, DWORD PTR [ecx]
  0003e	ff 52 10	 call	 DWORD PTR [edx+16]
  00041	50		 push	 eax
  00042	57		 push	 edi
  00043	56		 push	 esi
  00044	8b 74 24 1c	 mov	 esi, DWORD PTR ___$ReturnUdt$[esp+20]
  00048	8b ce		 mov	 ecx, esi
  0004a	e8 00 00 00 00	 call	 ??0?$CSimpleStringT@D$0A@@ATL@@QAE@PBDHPAUIAtlStringMgr@1@@Z ; ATL::CSimpleStringT<char,0>::CSimpleStringT<char,0>
  0004f	5f		 pop	 edi
  00050	8b c6		 mov	 eax, esi
  00052	5e		 pop	 esi

; 1771 : 	}

  00053	59		 pop	 ecx
  00054	c2 08 00	 ret	 8
?Left@?$CStringT@DV?$StrTraitATL@DV?$ChTraitsCRT@D@ATL@@@ATL@@@ATL@@QBE?AV12@H@Z ENDP ; ATL::CStringT<char,ATL::StrTraitATL<char,ATL::ChTraitsCRT<char> > >::Left
_TEXT	ENDS
PUBLIC	?Format@?$CStringT@DV?$StrTraitATL@DV?$ChTraitsCRT@D@ATL@@@ATL@@@ATL@@QAAXPBDZZ ; ATL::CStringT<char,ATL::StrTraitATL<char,ATL::ChTraitsCRT<char> > >::Format
; Function compile flags: /Ogty
;	COMDAT ?Format@?$CStringT@DV?$StrTraitATL@DV?$ChTraitsCRT@D@ATL@@@ATL@@@ATL@@QAAXPBDZZ
_TEXT	SEGMENT
_this$ = 8						; size = 4
_pszFormat$ = 12					; size = 4
?Format@?$CStringT@DV?$StrTraitATL@DV?$ChTraitsCRT@D@ATL@@@ATL@@@ATL@@QAAXPBDZZ PROC NEAR ; ATL::CStringT<char,ATL::StrTraitATL<char,ATL::ChTraitsCRT<char> > >::Format, COMDAT

; 1796 : 		ATLASSERT( AtlIsValidString( pszFormat ) );
; 1797 : 		
; 1798 : 		va_list argList;
; 1799 : 		va_start( argList, pszFormat );
; 1800 : 		FormatV( pszFormat, argList );

  00000	8b 4c 24 08	 mov	 ecx, DWORD PTR _pszFormat$[esp-4]
  00004	8d 44 24 0c	 lea	 eax, DWORD PTR _pszFormat$[esp]
  00008	50		 push	 eax
  00009	51		 push	 ecx
  0000a	8b 4c 24 0c	 mov	 ecx, DWORD PTR _this$[esp+4]
  0000e	e8 00 00 00 00	 call	 ?FormatV@?$CStringT@DV?$StrTraitATL@DV?$ChTraitsCRT@D@ATL@@@ATL@@@ATL@@QAEXPBDPAD@Z ; ATL::CStringT<char,ATL::StrTraitATL<char,ATL::ChTraitsCRT<char> > >::FormatV

; 1801 : 		va_end( argList );
; 1802 : 	}

  00013	c3		 ret	 0
?Format@?$CStringT@DV?$StrTraitATL@DV?$ChTraitsCRT@D@ATL@@@ATL@@@ATL@@QAAXPBDZZ ENDP ; ATL::CStringT<char,ATL::StrTraitATL<char,ATL::ChTraitsCRT<char> > >::Format
_TEXT	ENDS
PUBLIC	??HATL@@YA?AV?$CStringT@DV?$StrTraitATL@DV?$ChTraitsCRT@D@ATL@@@ATL@@@0@ABV10@PBD@Z ; ATL::operator+
;	COMDAT xdata$x
; File c:\program files (x86)\microsoft visual studio .net 2003\vc7\atlmfc\include\atlsimpstr.h
xdata$x	SEGMENT
$T124953 DD	0ffffffffH
	DD	FLAT:$L124828
$T124949 DD	019930520H
	DD	01H
	DD	FLAT:$T124953
	DD	2 DUP(00H)
	DD	2 DUP(00H)
; Function compile flags: /Ogty
; File c:\program files (x86)\microsoft visual studio .net 2003\vc7\atlmfc\include\cstringt.h
xdata$x	ENDS
;	COMDAT ??HATL@@YA?AV?$CStringT@DV?$StrTraitATL@DV?$ChTraitsCRT@D@ATL@@@ATL@@@0@ABV10@PBD@Z
_TEXT	SEGMENT
$T124830 = -16						; size = 4
__$EHRec$ = -12						; size = 12
___$ReturnUdt$ = 8					; size = 4
_strResult$ = 12					; size = 4
_str1$ = 12						; size = 4
_psz2$ = 16						; size = 4
??HATL@@YA?AV?$CStringT@DV?$StrTraitATL@DV?$ChTraitsCRT@D@ATL@@@ATL@@@0@ABV10@PBD@Z PROC NEAR ; ATL::operator+, COMDAT

; 2023 : 	{

  00000	6a ff		 push	 -1
  00002	68 00 00 00 00	 push	 __ehhandler$??HATL@@YA?AV?$CStringT@DV?$StrTraitATL@DV?$ChTraitsCRT@D@ATL@@@ATL@@@0@ABV10@PBD@Z
  00007	64 a1 00 00 00
	00		 mov	 eax, DWORD PTR fs:__except_list
  0000d	50		 push	 eax
  0000e	64 89 25 00 00
	00 00		 mov	 DWORD PTR fs:__except_list, esp
  00015	51		 push	 ecx
  00016	56		 push	 esi
  00017	57		 push	 edi

; 2024 : 		CStringT strResult( str1.GetManager() );

  00018	8b 7c 24 20	 mov	 edi, DWORD PTR _str1$[esp+20]
  0001c	8b 07		 mov	 eax, DWORD PTR [edi]
  0001e	8b 48 f0	 mov	 ecx, DWORD PTR [eax-16]
  00021	8b 11		 mov	 edx, DWORD PTR [ecx]
  00023	c7 44 24 08 00
	00 00 00	 mov	 DWORD PTR $T124830[esp+24], 0
  0002b	ff 52 10	 call	 DWORD PTR [edx+16]
  0002e	8b 10		 mov	 edx, DWORD PTR [eax]
  00030	8b c8		 mov	 ecx, eax
  00032	ff 52 0c	 call	 DWORD PTR [edx+12]
  00035	83 c0 10	 add	 eax, 16			; 00000010H
  00038	89 44 24 20	 mov	 DWORD PTR _strResult$[esp+20], eax

; 2025 : 
; 2026 : 		Concatenate( strResult, str1, str1.GetLength(), psz2, StringLength( psz2 ) );

  0003c	8b 74 24 24	 mov	 esi, DWORD PTR _psz2$[esp+20]
  00040	85 f6		 test	 esi, esi
  00042	c7 44 24 14 00
	00 00 00	 mov	 DWORD PTR __$EHRec$[esp+32], 0
  0004a	75 04		 jne	 SHORT $L124869
  0004c	33 d2		 xor	 edx, edx
  0004e	eb 10		 jmp	 SHORT $L124868
$L124869:
  00050	8b c6		 mov	 eax, esi
  00052	8d 50 01	 lea	 edx, DWORD PTR [eax+1]
$L124950:
  00055	8a 08		 mov	 cl, BYTE PTR [eax]
  00057	40		 inc	 eax
  00058	84 c9		 test	 cl, cl
  0005a	75 f9		 jne	 SHORT $L124950
  0005c	2b c2		 sub	 eax, edx
  0005e	8b d0		 mov	 edx, eax
$L124868:
  00060	8b 07		 mov	 eax, DWORD PTR [edi]
  00062	8b 48 f4	 mov	 ecx, DWORD PTR [eax-12]
  00065	52		 push	 edx
  00066	56		 push	 esi
  00067	51		 push	 ecx
  00068	50		 push	 eax
  00069	8d 44 24 30	 lea	 eax, DWORD PTR _strResult$[esp+36]
  0006d	50		 push	 eax
  0006e	e8 00 00 00 00	 call	 ?Concatenate@?$CSimpleStringT@D$0A@@ATL@@KAXAAV12@PBDH1H@Z ; ATL::CSimpleStringT<char,0>::Concatenate

; 2027 : 
; 2028 : 		return( strResult );

  00073	8b 74 24 34	 mov	 esi, DWORD PTR _strResult$[esp+40]
  00077	83 c6 f0	 add	 esi, -16		; fffffff0H
  0007a	56		 push	 esi
  0007b	e8 00 00 00 00	 call	 ?CloneData@?$CSimpleStringT@D$0A@@ATL@@CAPAUCStringData@2@PAU32@@Z ; ATL::CSimpleStringT<char,0>::CloneData
  00080	8b 7c 24 34	 mov	 edi, DWORD PTR ___$ReturnUdt$[esp+44]
  00084	83 c0 10	 add	 eax, 16			; 00000010H
  00087	83 c4 18	 add	 esp, 24			; 00000018H
  0008a	89 07		 mov	 DWORD PTR [edi], eax
  0008c	c7 44 24 14 ff
	ff ff ff	 mov	 DWORD PTR __$EHRec$[esp+32], -1
  00094	8d 4e 0c	 lea	 ecx, DWORD PTR [esi+12]
  00097	83 ca ff	 or	 edx, -1
  0009a	f0 0f c1 11	 lock	  xadd	 DWORD PTR [ecx], edx
  0009e	4a		 dec	 edx
  0009f	85 d2		 test	 edx, edx
  000a1	7f 08		 jg	 SHORT $L124951
  000a3	8b 0e		 mov	 ecx, DWORD PTR [esi]
  000a5	8b 01		 mov	 eax, DWORD PTR [ecx]
  000a7	56		 push	 esi
  000a8	ff 50 04	 call	 DWORD PTR [eax+4]
$L124951:

; 2029 : 	}

  000ab	8b 4c 24 0c	 mov	 ecx, DWORD PTR __$EHRec$[esp+24]
  000af	8b c7		 mov	 eax, edi
  000b1	5f		 pop	 edi
  000b2	5e		 pop	 esi
  000b3	64 89 0d 00 00
	00 00		 mov	 DWORD PTR fs:__except_list, ecx
  000ba	83 c4 10	 add	 esp, 16			; 00000010H
  000bd	c3		 ret	 0
_TEXT	ENDS
;	COMDAT text$x
text$x	SEGMENT
$L124828:
  00000	8d 4d 08	 lea	 ecx, DWORD PTR _strResult$[ebp-4]
  00003	e9 00 00 00 00	 jmp	 ??1?$CStringT@DV?$StrTraitATL@DV?$ChTraitsCRT@D@ATL@@@ATL@@@ATL@@QAE@XZ ; ATL::CStringT<char,ATL::StrTraitATL<char,ATL::ChTraitsCRT<char> > >::~CStringT<char,ATL::StrTraitATL<char,ATL::ChTraitsCRT<char> > >
__ehhandler$??HATL@@YA?AV?$CStringT@DV?$StrTraitATL@DV?$ChTraitsCRT@D@ATL@@@ATL@@@0@ABV10@PBD@Z:
  00008	b8 00 00 00 00	 mov	 eax, OFFSET FLAT:$T124949
  0000d	e9 00 00 00 00	 jmp	 ___CxxFrameHandler
text$x	ENDS
??HATL@@YA?AV?$CStringT@DV?$StrTraitATL@DV?$ChTraitsCRT@D@ATL@@@ATL@@@0@ABV10@PBD@Z ENDP ; ATL::operator+
PUBLIC	??HATL@@YA?AV?$CStringT@DV?$StrTraitATL@DV?$ChTraitsCRT@D@ATL@@@ATL@@@0@PBDABV10@@Z ; ATL::operator+
;	COMDAT xdata$x
; File c:\program files (x86)\microsoft visual studio .net 2003\vc7\atlmfc\include\atlsimpstr.h
xdata$x	SEGMENT
$T125084 DD	0ffffffffH
	DD	FLAT:$L124959
$T125080 DD	019930520H
	DD	01H
	DD	FLAT:$T125084
	DD	2 DUP(00H)
	DD	2 DUP(00H)
; Function compile flags: /Ogty
; File c:\program files (x86)\microsoft visual studio .net 2003\vc7\atlmfc\include\cstringt.h
xdata$x	ENDS
;	COMDAT ??HATL@@YA?AV?$CStringT@DV?$StrTraitATL@DV?$ChTraitsCRT@D@ATL@@@ATL@@@0@PBDABV10@@Z
_TEXT	SEGMENT
$T124961 = -16						; size = 4
__$EHRec$ = -12						; size = 12
___$ReturnUdt$ = 8					; size = 4
_psz1$ = 12						; size = 4
_strResult$ = 16					; size = 4
_str2$ = 16						; size = 4
??HATL@@YA?AV?$CStringT@DV?$StrTraitATL@DV?$ChTraitsCRT@D@ATL@@@ATL@@@0@PBDABV10@@Z PROC NEAR ; ATL::operator+, COMDAT

; 2032 : 	{

  00000	6a ff		 push	 -1
  00002	68 00 00 00 00	 push	 __ehhandler$??HATL@@YA?AV?$CStringT@DV?$StrTraitATL@DV?$ChTraitsCRT@D@ATL@@@ATL@@@0@PBDABV10@@Z
  00007	64 a1 00 00 00
	00		 mov	 eax, DWORD PTR fs:__except_list
  0000d	50		 push	 eax
  0000e	64 89 25 00 00
	00 00		 mov	 DWORD PTR fs:__except_list, esp
  00015	51		 push	 ecx
  00016	56		 push	 esi

; 2033 : 		CStringT strResult( str2.GetManager() );

  00017	8b 74 24 20	 mov	 esi, DWORD PTR _str2$[esp+16]
  0001b	8b 06		 mov	 eax, DWORD PTR [esi]
  0001d	8b 48 f0	 mov	 ecx, DWORD PTR [eax-16]
  00020	8b 11		 mov	 edx, DWORD PTR [ecx]
  00022	57		 push	 edi
  00023	c7 44 24 08 00
	00 00 00	 mov	 DWORD PTR $T124961[esp+24], 0
  0002b	ff 52 10	 call	 DWORD PTR [edx+16]
  0002e	8b 10		 mov	 edx, DWORD PTR [eax]
  00030	8b c8		 mov	 ecx, eax
  00032	ff 52 0c	 call	 DWORD PTR [edx+12]
  00035	83 c0 10	 add	 eax, 16			; 00000010H
  00038	89 44 24 24	 mov	 DWORD PTR _strResult$[esp+20], eax

; 2034 : 
; 2035 : 		Concatenate( strResult, psz1, StringLength( psz1 ), str2, str2.GetLength() );

  0003c	8b 0e		 mov	 ecx, DWORD PTR [esi]
  0003e	8b 74 24 20	 mov	 esi, DWORD PTR _psz1$[esp+20]
  00042	85 f6		 test	 esi, esi
  00044	8b 79 f4	 mov	 edi, DWORD PTR [ecx-12]
  00047	c7 44 24 14 00
	00 00 00	 mov	 DWORD PTR __$EHRec$[esp+32], 0
  0004f	75 04		 jne	 SHORT $L125014
  00051	33 c0		 xor	 eax, eax
  00053	eb 15		 jmp	 SHORT $L125013
$L125014:
  00055	8b c6		 mov	 eax, esi
  00057	55		 push	 ebp
  00058	8d 68 01	 lea	 ebp, DWORD PTR [eax+1]
  0005b	eb 03 8d 49 00	 npad	 5
$L125081:
  00060	8a 10		 mov	 dl, BYTE PTR [eax]
  00062	40		 inc	 eax
  00063	84 d2		 test	 dl, dl
  00065	75 f9		 jne	 SHORT $L125081
  00067	2b c5		 sub	 eax, ebp
  00069	5d		 pop	 ebp
$L125013:
  0006a	57		 push	 edi
  0006b	51		 push	 ecx
  0006c	50		 push	 eax
  0006d	8d 44 24 30	 lea	 eax, DWORD PTR _strResult$[esp+32]
  00071	56		 push	 esi
  00072	50		 push	 eax
  00073	e8 00 00 00 00	 call	 ?Concatenate@?$CSimpleStringT@D$0A@@ATL@@KAXAAV12@PBDH1H@Z ; ATL::CSimpleStringT<char,0>::Concatenate

; 2036 : 
; 2037 : 		return( strResult );

  00078	8b 74 24 38	 mov	 esi, DWORD PTR _strResult$[esp+40]
  0007c	83 c6 f0	 add	 esi, -16		; fffffff0H
  0007f	56		 push	 esi
  00080	e8 00 00 00 00	 call	 ?CloneData@?$CSimpleStringT@D$0A@@ATL@@CAPAUCStringData@2@PAU32@@Z ; ATL::CSimpleStringT<char,0>::CloneData
  00085	8b 7c 24 34	 mov	 edi, DWORD PTR ___$ReturnUdt$[esp+44]
  00089	83 c0 10	 add	 eax, 16			; 00000010H
  0008c	83 c4 18	 add	 esp, 24			; 00000018H
  0008f	89 07		 mov	 DWORD PTR [edi], eax
  00091	c7 44 24 14 ff
	ff ff ff	 mov	 DWORD PTR __$EHRec$[esp+32], -1
  00099	8d 4e 0c	 lea	 ecx, DWORD PTR [esi+12]
  0009c	83 ca ff	 or	 edx, -1
  0009f	f0 0f c1 11	 lock	  xadd	 DWORD PTR [ecx], edx
  000a3	4a		 dec	 edx
  000a4	85 d2		 test	 edx, edx
  000a6	7f 08		 jg	 SHORT $L125082
  000a8	8b 0e		 mov	 ecx, DWORD PTR [esi]
  000aa	8b 01		 mov	 eax, DWORD PTR [ecx]
  000ac	56		 push	 esi
  000ad	ff 50 04	 call	 DWORD PTR [eax+4]
$L125082:

; 2038 : 	}

  000b0	8b 4c 24 0c	 mov	 ecx, DWORD PTR __$EHRec$[esp+24]
  000b4	8b c7		 mov	 eax, edi
  000b6	5f		 pop	 edi
  000b7	5e		 pop	 esi
  000b8	64 89 0d 00 00
	00 00		 mov	 DWORD PTR fs:__except_list, ecx
  000bf	83 c4 10	 add	 esp, 16			; 00000010H
  000c2	c3		 ret	 0
_TEXT	ENDS
;	COMDAT text$x
text$x	SEGMENT
$L124959:
  00000	8d 4d 0c	 lea	 ecx, DWORD PTR _strResult$[ebp-4]
  00003	e9 00 00 00 00	 jmp	 ??1?$CStringT@DV?$StrTraitATL@DV?$ChTraitsCRT@D@ATL@@@ATL@@@ATL@@QAE@XZ ; ATL::CStringT<char,ATL::StrTraitATL<char,ATL::ChTraitsCRT<char> > >::~CStringT<char,ATL::StrTraitATL<char,ATL::ChTraitsCRT<char> > >
__ehhandler$??HATL@@YA?AV?$CStringT@DV?$StrTraitATL@DV?$ChTraitsCRT@D@ATL@@@ATL@@@0@PBDABV10@@Z:
  00008	b8 00 00 00 00	 mov	 eax, OFFSET FLAT:$T125080
  0000d	e9 00 00 00 00	 jmp	 ___CxxFrameHandler
text$x	ENDS
??HATL@@YA?AV?$CStringT@DV?$StrTraitATL@DV?$ChTraitsCRT@D@ATL@@@ATL@@@0@PBDABV10@@Z ENDP ; ATL::operator+
PUBLIC	?Append@?$CSimpleStringT@D$0A@@ATL@@QAEXABV12@@Z ; ATL::CSimpleStringT<char,0>::Append
; Function compile flags: /Ogty
; File c:\program files (x86)\microsoft visual studio .net 2003\vc7\atlmfc\include\atlsimpstr.h
;	COMDAT ?Append@?$CSimpleStringT@D$0A@@ATL@@QAEXABV12@@Z
_TEXT	SEGMENT
_strSrc$ = 8						; size = 4
?Append@?$CSimpleStringT@D$0A@@ATL@@QAEXABV12@@Z PROC NEAR ; ATL::CSimpleStringT<char,0>::Append, COMDAT
; _this$ = ecx

; 413  : 		Append( strSrc.GetString(), strSrc.GetLength() );

  00000	8b 44 24 04	 mov	 eax, DWORD PTR _strSrc$[esp-4]
  00004	8b 00		 mov	 eax, DWORD PTR [eax]
  00006	8b 50 f4	 mov	 edx, DWORD PTR [eax-12]
  00009	52		 push	 edx
  0000a	50		 push	 eax
  0000b	e8 00 00 00 00	 call	 ?Append@?$CSimpleStringT@D$0A@@ATL@@QAEXPBDH@Z ; ATL::CSimpleStringT<char,0>::Append

; 414  : 	}

  00010	c2 04 00	 ret	 4
?Append@?$CSimpleStringT@D$0A@@ATL@@QAEXABV12@@Z ENDP	; ATL::CSimpleStringT<char,0>::Append
_TEXT	ENDS
PUBLIC	??4?$CStringT@DV?$StrTraitATL@DV?$ChTraitsCRT@D@ATL@@@ATL@@@ATL@@QAEAAV01@ABV01@@Z ; ATL::CStringT<char,ATL::StrTraitATL<char,ATL::ChTraitsCRT<char> > >::operator=
; Function compile flags: /Ogty
; File c:\program files (x86)\microsoft visual studio .net 2003\vc7\atlmfc\include\cstringt.h
;	COMDAT ??4?$CStringT@DV?$StrTraitATL@DV?$ChTraitsCRT@D@ATL@@@ATL@@@ATL@@QAEAAV01@ABV01@@Z
_TEXT	SEGMENT
_strSrc$ = 8						; size = 4
??4?$CStringT@DV?$StrTraitATL@DV?$ChTraitsCRT@D@ATL@@@ATL@@@ATL@@QAEAAV01@ABV01@@Z PROC NEAR ; ATL::CStringT<char,ATL::StrTraitATL<char,ATL::ChTraitsCRT<char> > >::operator=, COMDAT
; _this$ = ecx

; 968  : 		CThisSimpleString::operator=( strSrc );

  00000	8b 44 24 04	 mov	 eax, DWORD PTR _strSrc$[esp-4]
  00004	56		 push	 esi
  00005	50		 push	 eax
  00006	8b f1		 mov	 esi, ecx
  00008	e8 00 00 00 00	 call	 ??4?$CSimpleStringT@D$0A@@ATL@@QAEAAV01@ABV01@@Z ; ATL::CSimpleStringT<char,0>::operator=

; 969  : 
; 970  : 		return( *this );

  0000d	8b c6		 mov	 eax, esi
  0000f	5e		 pop	 esi

; 971  : 	}

  00010	c2 04 00	 ret	 4
??4?$CStringT@DV?$StrTraitATL@DV?$ChTraitsCRT@D@ATL@@@ATL@@@ATL@@QAEAAV01@ABV01@@Z ENDP ; ATL::CStringT<char,ATL::StrTraitATL<char,ATL::ChTraitsCRT<char> > >::operator=
_TEXT	ENDS
PUBLIC	?LoadStringA@?$CStringT@DV?$StrTraitATL@DV?$ChTraitsCRT@D@ATL@@@ATL@@@ATL@@QAEHI@Z ; ATL::CStringT<char,ATL::StrTraitATL<char,ATL::ChTraitsCRT<char> > >::LoadStringA
; Function compile flags: /Ogty
;	COMDAT ?LoadStringA@?$CStringT@DV?$StrTraitATL@DV?$ChTraitsCRT@D@ATL@@@ATL@@@ATL@@QAEHI@Z
_TEXT	SEGMENT
_nID$ = 8						; size = 4
?LoadStringA@?$CStringT@DV?$StrTraitATL@DV?$ChTraitsCRT@D@ATL@@@ATL@@@ATL@@QAEHI@Z PROC NEAR ; ATL::CStringT<char,ATL::StrTraitATL<char,ATL::ChTraitsCRT<char> > >::LoadStringA, COMDAT
; _this$ = ecx

; 1969 : 	{

  00000	56		 push	 esi
  00001	57		 push	 edi

; 1970 : 		HINSTANCE hInst = StringTraits::FindStringResourceInstance( nID );

  00002	8b 7c 24 0c	 mov	 edi, DWORD PTR _nID$[esp+4]
  00006	6a 00		 push	 0
  00008	57		 push	 edi
  00009	8b f1		 mov	 esi, ecx
  0000b	e8 00 00 00 00	 call	 ?AtlFindStringResourceInstance@ATL@@YAPAUHINSTANCE__@@IG@Z ; ATL::AtlFindStringResourceInstance
  00010	83 c4 08	 add	 esp, 8

; 1971 : 		if( hInst == NULL )

  00013	85 c0		 test	 eax, eax
  00015	75 05		 jne	 SHORT $L116475
  00017	5f		 pop	 edi
  00018	5e		 pop	 esi

; 1977 : 	}

  00019	c2 04 00	 ret	 4
$L116475:

; 1972 : 		{
; 1973 : 			return( FALSE );
; 1974 : 		}
; 1975 : 
; 1976 : 		return( LoadString( hInst, nID ) );		

  0001c	57		 push	 edi
  0001d	50		 push	 eax
  0001e	8b ce		 mov	 ecx, esi
  00020	e8 00 00 00 00	 call	 ?LoadStringA@?$CStringT@DV?$StrTraitATL@DV?$ChTraitsCRT@D@ATL@@@ATL@@@ATL@@QAEHPAUHINSTANCE__@@I@Z ; ATL::CStringT<char,ATL::StrTraitATL<char,ATL::ChTraitsCRT<char> > >::LoadStringA
  00025	5f		 pop	 edi
  00026	5e		 pop	 esi

; 1977 : 	}

  00027	c2 04 00	 ret	 4
?LoadStringA@?$CStringT@DV?$StrTraitATL@DV?$ChTraitsCRT@D@ATL@@@ATL@@@ATL@@QAEHI@Z ENDP ; ATL::CStringT<char,ATL::StrTraitATL<char,ATL::ChTraitsCRT<char> > >::LoadStringA
_TEXT	ENDS
PUBLIC	?CheckImplicitLoad@?$CStringT@DV?$StrTraitATL@DV?$ChTraitsCRT@D@ATL@@@ATL@@@ATL@@AAE_NPBX@Z ; ATL::CStringT<char,ATL::StrTraitATL<char,ATL::ChTraitsCRT<char> > >::CheckImplicitLoad
; Function compile flags: /Ogty
;	COMDAT ?CheckImplicitLoad@?$CStringT@DV?$StrTraitATL@DV?$ChTraitsCRT@D@ATL@@@ATL@@@ATL@@AAE_NPBX@Z
_TEXT	SEGMENT
_pv$ = 8						; size = 4
?CheckImplicitLoad@?$CStringT@DV?$StrTraitATL@DV?$ChTraitsCRT@D@ATL@@@ATL@@@ATL@@AAE_NPBX@Z PROC NEAR ; ATL::CStringT<char,ATL::StrTraitATL<char,ATL::ChTraitsCRT<char> > >::CheckImplicitLoad, COMDAT
; _this$ = ecx

; 2229 : 	{

  00000	57		 push	 edi
  00001	8b f9		 mov	 edi, ecx

; 2230 : 		bool bRet = false;
; 2231 : 
; 2232 : 		if( (pv != NULL) && IS_INTRESOURCE( pv ) )

  00003	8b 4c 24 08	 mov	 ecx, DWORD PTR _pv$[esp]
  00007	32 c0		 xor	 al, al
  00009	85 c9		 test	 ecx, ecx
  0000b	74 27		 je	 SHORT $L117656
  0000d	f7 c1 00 00 ff
	ff		 test	 ecx, -65536		; ffff0000H
  00013	75 1f		 jne	 SHORT $L117656
  00015	56		 push	 esi

; 2233 : 		{
; 2234 : 			UINT nID = LOWORD( reinterpret_cast< DWORD_PTR >( pv ) );

  00016	0f b7 f1	 movzx	 esi, cx

; 2235 : 			if( !LoadString( nID ) )

  00019	6a 00		 push	 0
  0001b	56		 push	 esi
  0001c	e8 00 00 00 00	 call	 ?AtlFindStringResourceInstance@ATL@@YAPAUHINSTANCE__@@IG@Z ; ATL::AtlFindStringResourceInstance
  00021	83 c4 08	 add	 esp, 8
  00024	85 c0		 test	 eax, eax
  00026	74 09		 je	 SHORT $L125122
  00028	56		 push	 esi
  00029	50		 push	 eax
  0002a	8b cf		 mov	 ecx, edi
  0002c	e8 00 00 00 00	 call	 ?LoadStringA@?$CStringT@DV?$StrTraitATL@DV?$ChTraitsCRT@D@ATL@@@ATL@@@ATL@@QAEHPAUHINSTANCE__@@I@Z ; ATL::CStringT<char,ATL::StrTraitATL<char,ATL::ChTraitsCRT<char> > >::LoadStringA
$L125122:

; 2236 : 			{
; 2237 : 				ATLTRACE( atlTraceString, 2, _T( "Warning: implicit LoadString(%u) failed\n" ), nID );
; 2238 : 			}
; 2239 : 			bRet = true;

  00031	b0 01		 mov	 al, 1
  00033	5e		 pop	 esi
$L117656:
  00034	5f		 pop	 edi

; 2240 : 		}
; 2241 : 
; 2242 : 		return( bRet );
; 2243 : 	}

  00035	c2 04 00	 ret	 4
?CheckImplicitLoad@?$CStringT@DV?$StrTraitATL@DV?$ChTraitsCRT@D@ATL@@@ATL@@@ATL@@AAE_NPBX@Z ENDP ; ATL::CStringT<char,ATL::StrTraitATL<char,ATL::ChTraitsCRT<char> > >::CheckImplicitLoad
_TEXT	ENDS
PUBLIC	??4?$CSimpleStringT@D$0A@@ATL@@QAEAAV01@PBD@Z	; ATL::CSimpleStringT<char,0>::operator=
; Function compile flags: /Ogty
; File c:\program files (x86)\microsoft visual studio .net 2003\vc7\atlmfc\include\atlsimpstr.h
;	COMDAT ??4?$CSimpleStringT@D$0A@@ATL@@QAEAAV01@PBD@Z
_TEXT	SEGMENT
_pszSrc$ = 8						; size = 4
??4?$CSimpleStringT@D$0A@@ATL@@QAEAAV01@PBD@Z PROC NEAR	; ATL::CSimpleStringT<char,0>::operator=, COMDAT
; _this$ = ecx

; 316  : 		SetString( pszSrc );

  00000	8b 54 24 04	 mov	 edx, DWORD PTR _pszSrc$[esp-4]
  00004	85 d2		 test	 edx, edx
  00006	57		 push	 edi
  00007	8b f9		 mov	 edi, ecx
  00009	75 0f		 jne	 SHORT $L125140
  0000b	33 c0		 xor	 eax, eax
  0000d	50		 push	 eax
  0000e	52		 push	 edx
  0000f	e8 00 00 00 00	 call	 ?SetString@?$CSimpleStringT@D$0A@@ATL@@QAEXPBDH@Z ; ATL::CSimpleStringT<char,0>::SetString

; 317  : 
; 318  : 		return( *this );

  00014	8b c7		 mov	 eax, edi
  00016	5f		 pop	 edi

; 319  : 	}

  00017	c2 04 00	 ret	 4

; 316  : 		SetString( pszSrc );

$L125140:
  0001a	8b c2		 mov	 eax, edx
  0001c	56		 push	 esi
  0001d	8d 70 01	 lea	 esi, DWORD PTR [eax+1]
$L125142:
  00020	8a 08		 mov	 cl, BYTE PTR [eax]
  00022	40		 inc	 eax
  00023	84 c9		 test	 cl, cl
  00025	75 f9		 jne	 SHORT $L125142
  00027	2b c6		 sub	 eax, esi
  00029	5e		 pop	 esi
  0002a	50		 push	 eax
  0002b	52		 push	 edx
  0002c	8b cf		 mov	 ecx, edi
  0002e	e8 00 00 00 00	 call	 ?SetString@?$CSimpleStringT@D$0A@@ATL@@QAEXPBDH@Z ; ATL::CSimpleStringT<char,0>::SetString

; 317  : 
; 318  : 		return( *this );

  00033	8b c7		 mov	 eax, edi
  00035	5f		 pop	 edi

; 319  : 	}

  00036	c2 04 00	 ret	 4
??4?$CSimpleStringT@D$0A@@ATL@@QAEAAV01@PBD@Z ENDP	; ATL::CSimpleStringT<char,0>::operator=
_TEXT	ENDS
PUBLIC	?assign@?$basic_string@DU?$char_traits@D@std@@V?$allocator@D@2@@std@@QAEAAV12@ABV12@II@Z ; std::basic_string<char,std::char_traits<char>,std::allocator<char> >::assign
; Function compile flags: /Ogty
; File c:\program files (x86)\microsoft visual studio .net 2003\vc7\include\xstring
;	COMDAT ?assign@?$basic_string@DU?$char_traits@D@std@@V?$allocator@D@2@@std@@QAEAAV12@ABV12@II@Z
_TEXT	SEGMENT
__Right$ = 8						; size = 4
__Roff$ = 12						; size = 4
__Count$ = 16						; size = 4
?assign@?$basic_string@DU?$char_traits@D@std@@V?$allocator@D@2@@std@@QAEAAV12@ABV12@II@Z PROC NEAR ; std::basic_string<char,std::char_traits<char>,std::allocator<char> >::assign, COMDAT
; _this$ = ecx

; 590  : 		{	// assign _Right [_Roff, _Roff + _Count)

  00000	53		 push	 ebx
  00001	55		 push	 ebp
  00002	56		 push	 esi

; 591  : 		if (_Right.size() < _Roff)

  00003	8b 74 24 14	 mov	 esi, DWORD PTR __Roff$[esp+8]
  00007	57		 push	 edi
  00008	8b 7c 24 14	 mov	 edi, DWORD PTR __Right$[esp+12]
  0000c	39 77 14	 cmp	 DWORD PTR [edi+20], esi
  0000f	8b d9		 mov	 ebx, ecx
  00011	73 05		 jae	 SHORT $L117696

; 592  : 			_String_base::_Xran();	// _Roff off end

  00013	e8 00 00 00 00	 call	 ?_Xran@_String_base@std@@QBEXXZ ; std::_String_base::_Xran
$L117696:

; 593  : 		size_type _Num = _Right.size() - _Roff;

  00018	8b 6f 14	 mov	 ebp, DWORD PTR [edi+20]

; 594  : 		if (_Count < _Num)

  0001b	8b 44 24 1c	 mov	 eax, DWORD PTR __Count$[esp+12]
  0001f	2b ee		 sub	 ebp, esi
  00021	3b c5		 cmp	 eax, ebp
  00023	73 02		 jae	 SHORT $L117698

; 595  : 			_Num = _Count;	// trim _Num to size

  00025	8b e8		 mov	 ebp, eax
$L117698:

; 596  : 
; 597  : 		if (this == &_Right)

  00027	3b df		 cmp	 ebx, edi
  00029	75 1f		 jne	 SHORT $L117699

; 598  : 			erase((size_type)(_Roff + _Num)), erase(0, _Roff);	// substring

  0002b	6a ff		 push	 -1
  0002d	03 ee		 add	 ebp, esi
  0002f	55		 push	 ebp
  00030	8b cb		 mov	 ecx, ebx
  00032	e8 00 00 00 00	 call	 ?erase@?$basic_string@DU?$char_traits@D@std@@V?$allocator@D@2@@std@@QAEAAV12@II@Z ; std::basic_string<char,std::char_traits<char>,std::allocator<char> >::erase
  00037	56		 push	 esi
  00038	6a 00		 push	 0
  0003a	8b cb		 mov	 ecx, ebx
  0003c	e8 00 00 00 00	 call	 ?erase@?$basic_string@DU?$char_traits@D@std@@V?$allocator@D@2@@std@@QAEAAV12@II@Z ; std::basic_string<char,std::char_traits<char>,std::allocator<char> >::erase
  00041	5f		 pop	 edi
  00042	5e		 pop	 esi
  00043	5d		 pop	 ebp

; 603  : 			}
; 604  : 		return (*this);

  00044	8b c3		 mov	 eax, ebx
  00046	5b		 pop	 ebx

; 605  : 		}

  00047	c2 0c 00	 ret	 12			; 0000000cH
$L117699:

; 599  : 		else if (_Grow(_Num))

  0004a	83 fd fe	 cmp	 ebp, -2			; fffffffeH
  0004d	76 07		 jbe	 SHORT $L125265
  0004f	8b cb		 mov	 ecx, ebx
  00051	e8 00 00 00 00	 call	 ?_Xlen@_String_base@std@@QBEXXZ ; std::_String_base::_Xlen
$L125265:
  00056	8b 43 18	 mov	 eax, DWORD PTR [ebx+24]
  00059	3b c5		 cmp	 eax, ebp
  0005b	73 21		 jae	 SHORT $L125267
  0005d	8b 43 14	 mov	 eax, DWORD PTR [ebx+20]
  00060	50		 push	 eax
  00061	55		 push	 ebp
  00062	8b cb		 mov	 ecx, ebx
  00064	e8 00 00 00 00	 call	 ?_Copy@?$basic_string@DU?$char_traits@D@std@@V?$allocator@D@2@@std@@IAEXII@Z ; std::basic_string<char,std::char_traits<char>,std::allocator<char> >::_Copy
  00069	85 ed		 test	 ebp, ebp
$L125339:
  0006b	76 6d		 jbe	 SHORT $L125338

; 600  : 			{	// make room and assign new stuff
; 601  : 			_Traits::copy(_Myptr(), _Right._Myptr() + _Roff, _Num);

  0006d	8b 4f 18	 mov	 ecx, DWORD PTR [edi+24]
  00070	b8 10 00 00 00	 mov	 eax, 16			; 00000010H
  00075	3b c8		 cmp	 ecx, eax
  00077	72 2f		 jb	 SHORT $L125304
  00079	8b 57 04	 mov	 edx, DWORD PTR [edi+4]
  0007c	eb 2d		 jmp	 SHORT $L125305

; 599  : 		else if (_Grow(_Num))

$L125267:
  0007e	85 ed		 test	 ebp, ebp
  00080	75 e9		 jne	 SHORT $L125339
  00082	83 f8 10	 cmp	 eax, 16			; 00000010H
  00085	89 6b 14	 mov	 DWORD PTR [ebx+20], ebp
  00088	72 0f		 jb	 SHORT $L125295
  0008a	8b 43 04	 mov	 eax, DWORD PTR [ebx+4]
  0008d	5f		 pop	 edi
  0008e	5e		 pop	 esi
  0008f	c6 00 00	 mov	 BYTE PTR [eax], 0
  00092	5d		 pop	 ebp

; 603  : 			}
; 604  : 		return (*this);

  00093	8b c3		 mov	 eax, ebx
  00095	5b		 pop	 ebx

; 605  : 		}

  00096	c2 0c 00	 ret	 12			; 0000000cH

; 599  : 		else if (_Grow(_Num))

$L125295:
  00099	5f		 pop	 edi
  0009a	8d 43 04	 lea	 eax, DWORD PTR [ebx+4]
  0009d	5e		 pop	 esi
  0009e	c6 00 00	 mov	 BYTE PTR [eax], 0
  000a1	5d		 pop	 ebp

; 603  : 			}
; 604  : 		return (*this);

  000a2	8b c3		 mov	 eax, ebx
  000a4	5b		 pop	 ebx

; 605  : 		}

  000a5	c2 0c 00	 ret	 12			; 0000000cH

; 600  : 			{	// make room and assign new stuff
; 601  : 			_Traits::copy(_Myptr(), _Right._Myptr() + _Roff, _Num);

$L125304:
  000a8	8d 57 04	 lea	 edx, DWORD PTR [edi+4]
$L125305:
  000ab	39 43 18	 cmp	 DWORD PTR [ebx+24], eax
  000ae	8d 43 04	 lea	 eax, DWORD PTR [ebx+4]
  000b1	72 04		 jb	 SHORT $L125311
  000b3	8b 38		 mov	 edi, DWORD PTR [eax]
  000b5	eb 02		 jmp	 SHORT $L125312
$L125311:
  000b7	8b f8		 mov	 edi, eax
$L125312:
  000b9	03 f2		 add	 esi, edx
  000bb	8b cd		 mov	 ecx, ebp
  000bd	8b d1		 mov	 edx, ecx
  000bf	c1 e9 02	 shr	 ecx, 2
  000c2	f3 a5		 rep movsd
  000c4	8b ca		 mov	 ecx, edx
  000c6	83 e1 03	 and	 ecx, 3
  000c9	f3 a4		 rep movsb

; 602  : 			_Eos(_Num);

  000cb	83 7b 18 10	 cmp	 DWORD PTR [ebx+24], 16	; 00000010H
  000cf	89 6b 14	 mov	 DWORD PTR [ebx+20], ebp
  000d2	72 02		 jb	 SHORT $L125335
  000d4	8b 00		 mov	 eax, DWORD PTR [eax]
$L125335:
  000d6	c6 04 28 00	 mov	 BYTE PTR [eax+ebp], 0
$L125338:
  000da	5f		 pop	 edi
  000db	5e		 pop	 esi
  000dc	5d		 pop	 ebp

; 603  : 			}
; 604  : 		return (*this);

  000dd	8b c3		 mov	 eax, ebx
  000df	5b		 pop	 ebx

; 605  : 		}

  000e0	c2 0c 00	 ret	 12			; 0000000cH
?assign@?$basic_string@DU?$char_traits@D@std@@V?$allocator@D@2@@std@@QAEAAV12@ABV12@II@Z ENDP ; std::basic_string<char,std::char_traits<char>,std::allocator<char> >::assign
_TEXT	ENDS
PUBLIC	?assign@?$basic_string@DU?$char_traits@D@std@@V?$allocator@D@2@@std@@QAEAAV12@PBDI@Z ; std::basic_string<char,std::char_traits<char>,std::allocator<char> >::assign
; Function compile flags: /Ogty
;	COMDAT ?assign@?$basic_string@DU?$char_traits@D@std@@V?$allocator@D@2@@std@@QAEAAV12@PBDI@Z
_TEXT	SEGMENT
__Ptr$ = 8						; size = 4
__Num$ = 12						; size = 4
?assign@?$basic_string@DU?$char_traits@D@std@@V?$allocator@D@2@@std@@QAEAAV12@PBDI@Z PROC NEAR ; std::basic_string<char,std::char_traits<char>,std::allocator<char> >::assign, COMDAT
; _this$ = ecx

; 608  : 		{	// assign [_Ptr, _Ptr + _Num)

  00000	53		 push	 ebx
  00001	8b d9		 mov	 ebx, ecx

; 609  : 		if (_Inside(_Ptr))

  00003	8b 53 18	 mov	 edx, DWORD PTR [ebx+24]
  00006	83 fa 10	 cmp	 edx, 16			; 00000010H
  00009	56		 push	 esi
  0000a	57		 push	 edi
  0000b	72 05		 jb	 SHORT $L125365
  0000d	8b 43 04	 mov	 eax, DWORD PTR [ebx+4]
  00010	eb 03		 jmp	 SHORT $L125366
$L125365:
  00012	8d 43 04	 lea	 eax, DWORD PTR [ebx+4]
$L125366:
  00015	8b 74 24 10	 mov	 esi, DWORD PTR __Ptr$[esp+8]
  00019	3b f0		 cmp	 esi, eax
  0001b	72 34		 jb	 SHORT $L119050
  0001d	83 fa 10	 cmp	 edx, 16			; 00000010H
  00020	8d 43 04	 lea	 eax, DWORD PTR [ebx+4]
  00023	72 04		 jb	 SHORT $L125369
  00025	8b 08		 mov	 ecx, DWORD PTR [eax]
  00027	eb 02		 jmp	 SHORT $L125370
$L125369:
  00029	8b c8		 mov	 ecx, eax
$L125370:
  0002b	8b 7b 14	 mov	 edi, DWORD PTR [ebx+20]
  0002e	03 f9		 add	 edi, ecx
  00030	3b fe		 cmp	 edi, esi
  00032	76 1d		 jbe	 SHORT $L119050

; 610  : 			return (assign(*this, _Ptr - _Myptr(), _Num));	// substring

  00034	83 fa 10	 cmp	 edx, 16			; 00000010H
  00037	72 02		 jb	 SHORT $L125378
  00039	8b 00		 mov	 eax, DWORD PTR [eax]
$L125378:
  0003b	8b 4c 24 14	 mov	 ecx, DWORD PTR __Num$[esp+8]
  0003f	51		 push	 ecx
  00040	2b f0		 sub	 esi, eax
  00042	56		 push	 esi
  00043	53		 push	 ebx
  00044	8b cb		 mov	 ecx, ebx
  00046	e8 00 00 00 00	 call	 ?assign@?$basic_string@DU?$char_traits@D@std@@V?$allocator@D@2@@std@@QAEAAV12@ABV12@II@Z ; std::basic_string<char,std::char_traits<char>,std::allocator<char> >::assign
  0004b	5f		 pop	 edi
  0004c	5e		 pop	 esi
  0004d	5b		 pop	 ebx

; 618  : 		}

  0004e	c2 08 00	 ret	 8
$L119050:
  00051	55		 push	 ebp

; 611  : 
; 612  : 		if (_Grow(_Num))

  00052	8b 6c 24 18	 mov	 ebp, DWORD PTR __Num$[esp+12]
  00056	83 fd fe	 cmp	 ebp, -2			; fffffffeH
  00059	76 07		 jbe	 SHORT $L125476
  0005b	8b cb		 mov	 ecx, ebx
  0005d	e8 00 00 00 00	 call	 ?_Xlen@_String_base@std@@QBEXXZ ; std::_String_base::_Xlen
$L125476:
  00062	8b 43 18	 mov	 eax, DWORD PTR [ebx+24]
  00065	3b c5		 cmp	 eax, ebp
  00067	73 1b		 jae	 SHORT $L125477
  00069	8b 53 14	 mov	 edx, DWORD PTR [ebx+20]
  0006c	52		 push	 edx
  0006d	55		 push	 ebp
  0006e	8b cb		 mov	 ecx, ebx
  00070	e8 00 00 00 00	 call	 ?_Copy@?$basic_string@DU?$char_traits@D@std@@V?$allocator@D@2@@std@@IAEXII@Z ; std::basic_string<char,std::char_traits<char>,std::allocator<char> >::_Copy
  00075	85 ed		 test	 ebp, ebp
$L125557:
  00077	76 68		 jbe	 SHORT $L125554

; 613  : 			{	// make room and assign new stuff
; 614  : 			_Traits::copy(_Myptr(), _Ptr, _Num);

  00079	83 7b 18 10	 cmp	 DWORD PTR [ebx+24], 16	; 00000010H
  0007d	72 2f		 jb	 SHORT $L125529
  0007f	8b 7b 04	 mov	 edi, DWORD PTR [ebx+4]
  00082	eb 2d		 jmp	 SHORT $L125530

; 611  : 
; 612  : 		if (_Grow(_Num))

$L125477:
  00084	85 ed		 test	 ebp, ebp
  00086	75 ef		 jne	 SHORT $L125557
  00088	83 f8 10	 cmp	 eax, 16			; 00000010H
  0008b	89 6b 14	 mov	 DWORD PTR [ebx+20], ebp
  0008e	72 0f		 jb	 SHORT $L125520
  00090	8b 43 04	 mov	 eax, DWORD PTR [ebx+4]
  00093	5d		 pop	 ebp
  00094	5f		 pop	 edi
  00095	c6 00 00	 mov	 BYTE PTR [eax], 0
  00098	5e		 pop	 esi

; 616  : 			}
; 617  : 		return (*this);

  00099	8b c3		 mov	 eax, ebx
  0009b	5b		 pop	 ebx

; 618  : 		}

  0009c	c2 08 00	 ret	 8

; 611  : 
; 612  : 		if (_Grow(_Num))

$L125520:
  0009f	5d		 pop	 ebp
  000a0	8d 43 04	 lea	 eax, DWORD PTR [ebx+4]
  000a3	5f		 pop	 edi
  000a4	c6 00 00	 mov	 BYTE PTR [eax], 0
  000a7	5e		 pop	 esi

; 616  : 			}
; 617  : 		return (*this);

  000a8	8b c3		 mov	 eax, ebx
  000aa	5b		 pop	 ebx

; 618  : 		}

  000ab	c2 08 00	 ret	 8

; 613  : 			{	// make room and assign new stuff
; 614  : 			_Traits::copy(_Myptr(), _Ptr, _Num);

$L125529:
  000ae	8d 7b 04	 lea	 edi, DWORD PTR [ebx+4]
$L125530:
  000b1	8b cd		 mov	 ecx, ebp
  000b3	8b c1		 mov	 eax, ecx
  000b5	c1 e9 02	 shr	 ecx, 2
  000b8	f3 a5		 rep movsd
  000ba	8b c8		 mov	 ecx, eax
  000bc	83 e1 03	 and	 ecx, 3
  000bf	f3 a4		 rep movsb

; 615  : 			_Eos(_Num);

  000c1	83 7b 18 10	 cmp	 DWORD PTR [ebx+24], 16	; 00000010H
  000c5	89 6b 14	 mov	 DWORD PTR [ebx+20], ebp
  000c8	72 10		 jb	 SHORT $L125552
  000ca	8b 43 04	 mov	 eax, DWORD PTR [ebx+4]
  000cd	c6 04 28 00	 mov	 BYTE PTR [eax+ebp], 0
  000d1	5d		 pop	 ebp
  000d2	5f		 pop	 edi
  000d3	5e		 pop	 esi

; 616  : 			}
; 617  : 		return (*this);

  000d4	8b c3		 mov	 eax, ebx
  000d6	5b		 pop	 ebx

; 618  : 		}

  000d7	c2 08 00	 ret	 8

; 615  : 			_Eos(_Num);

$L125552:
  000da	8d 43 04	 lea	 eax, DWORD PTR [ebx+4]
  000dd	c6 04 28 00	 mov	 BYTE PTR [eax+ebp], 0
$L125554:
  000e1	5d		 pop	 ebp
  000e2	5f		 pop	 edi
  000e3	5e		 pop	 esi

; 616  : 			}
; 617  : 		return (*this);

  000e4	8b c3		 mov	 eax, ebx
  000e6	5b		 pop	 ebx

; 618  : 		}

  000e7	c2 08 00	 ret	 8
?assign@?$basic_string@DU?$char_traits@D@std@@V?$allocator@D@2@@std@@QAEAAV12@PBDI@Z ENDP ; std::basic_string<char,std::char_traits<char>,std::allocator<char> >::assign
_TEXT	ENDS
PUBLIC	??Y?$CSimpleStringT@D$0A@@ATL@@QAEAAV01@ABV01@@Z ; ATL::CSimpleStringT<char,0>::operator+=
; Function compile flags: /Ogty
; File c:\program files (x86)\microsoft visual studio .net 2003\vc7\atlmfc\include\atlsimpstr.h
;	COMDAT ??Y?$CSimpleStringT@D$0A@@ATL@@QAEAAV01@ABV01@@Z
_TEXT	SEGMENT
_strSrc$ = 8						; size = 4
??Y?$CSimpleStringT@D$0A@@ATL@@QAEAAV01@ABV01@@Z PROC NEAR ; ATL::CSimpleStringT<char,0>::operator+=, COMDAT
; _this$ = ecx

; 323  : 		Append( strSrc );

  00000	8b 44 24 04	 mov	 eax, DWORD PTR _strSrc$[esp-4]
  00004	8b 00		 mov	 eax, DWORD PTR [eax]
  00006	56		 push	 esi
  00007	8b f1		 mov	 esi, ecx
  00009	8b 48 f4	 mov	 ecx, DWORD PTR [eax-12]
  0000c	51		 push	 ecx
  0000d	50		 push	 eax
  0000e	8b ce		 mov	 ecx, esi
  00010	e8 00 00 00 00	 call	 ?Append@?$CSimpleStringT@D$0A@@ATL@@QAEXPBDH@Z ; ATL::CSimpleStringT<char,0>::Append

; 324  : 
; 325  : 		return( *this );

  00015	8b c6		 mov	 eax, esi
  00017	5e		 pop	 esi

; 326  : 	}

  00018	c2 04 00	 ret	 4
??Y?$CSimpleStringT@D$0A@@ATL@@QAEAAV01@ABV01@@Z ENDP	; ATL::CSimpleStringT<char,0>::operator+=
_TEXT	ENDS
PUBLIC	??4?$CStringT@DV?$StrTraitATL@DV?$ChTraitsCRT@D@ATL@@@ATL@@@ATL@@QAEAAV01@PBD@Z ; ATL::CStringT<char,ATL::StrTraitATL<char,ATL::ChTraitsCRT<char> > >::operator=
; Function compile flags: /Ogty
; File c:\program files (x86)\microsoft visual studio .net 2003\vc7\atlmfc\include\cstringt.h
;	COMDAT ??4?$CStringT@DV?$StrTraitATL@DV?$ChTraitsCRT@D@ATL@@@ATL@@@ATL@@QAEAAV01@PBD@Z
_TEXT	SEGMENT
_pszSrc$ = 8						; size = 4
??4?$CStringT@DV?$StrTraitATL@DV?$ChTraitsCRT@D@ATL@@@ATL@@@ATL@@QAEAAV01@PBD@Z PROC NEAR ; ATL::CStringT<char,ATL::StrTraitATL<char,ATL::ChTraitsCRT<char> > >::operator=, COMDAT
; _this$ = ecx

; 983  : 		CThisSimpleString::operator=( pszSrc );

  00000	8b 54 24 04	 mov	 edx, DWORD PTR _pszSrc$[esp-4]
  00004	85 d2		 test	 edx, edx
  00006	57		 push	 edi
  00007	8b f9		 mov	 edi, ecx
  00009	75 0f		 jne	 SHORT $L125602
  0000b	33 c0		 xor	 eax, eax
  0000d	50		 push	 eax
  0000e	52		 push	 edx
  0000f	e8 00 00 00 00	 call	 ?SetString@?$CSimpleStringT@D$0A@@ATL@@QAEXPBDH@Z ; ATL::CSimpleStringT<char,0>::SetString

; 984  : 
; 985  : 		return( *this );

  00014	8b c7		 mov	 eax, edi
  00016	5f		 pop	 edi

; 986  : 	}

  00017	c2 04 00	 ret	 4

; 983  : 		CThisSimpleString::operator=( pszSrc );

$L125602:
  0001a	8b c2		 mov	 eax, edx
  0001c	56		 push	 esi
  0001d	8d 70 01	 lea	 esi, DWORD PTR [eax+1]
$L125605:
  00020	8a 08		 mov	 cl, BYTE PTR [eax]
  00022	40		 inc	 eax
  00023	84 c9		 test	 cl, cl
  00025	75 f9		 jne	 SHORT $L125605
  00027	2b c6		 sub	 eax, esi
  00029	5e		 pop	 esi
  0002a	50		 push	 eax
  0002b	52		 push	 edx
  0002c	8b cf		 mov	 ecx, edi
  0002e	e8 00 00 00 00	 call	 ?SetString@?$CSimpleStringT@D$0A@@ATL@@QAEXPBDH@Z ; ATL::CSimpleStringT<char,0>::SetString

; 984  : 
; 985  : 		return( *this );

  00033	8b c7		 mov	 eax, edi
  00035	5f		 pop	 edi

; 986  : 	}

  00036	c2 04 00	 ret	 4
??4?$CStringT@DV?$StrTraitATL@DV?$ChTraitsCRT@D@ATL@@@ATL@@@ATL@@QAEAAV01@PBD@Z ENDP ; ATL::CStringT<char,ATL::StrTraitATL<char,ATL::ChTraitsCRT<char> > >::operator=
_TEXT	ENDS
PUBLIC	?assign@?$basic_string@DU?$char_traits@D@std@@V?$allocator@D@2@@std@@QAEAAV12@PBD@Z ; std::basic_string<char,std::char_traits<char>,std::allocator<char> >::assign
; Function compile flags: /Ogty
; File c:\program files (x86)\microsoft visual studio .net 2003\vc7\include\xstring
;	COMDAT ?assign@?$basic_string@DU?$char_traits@D@std@@V?$allocator@D@2@@std@@QAEAAV12@PBD@Z
_TEXT	SEGMENT
__Ptr$ = 8						; size = 4
?assign@?$basic_string@DU?$char_traits@D@std@@V?$allocator@D@2@@std@@QAEAAV12@PBD@Z PROC NEAR ; std::basic_string<char,std::char_traits<char>,std::allocator<char> >::assign, COMDAT
; _this$ = ecx

; 621  : 		{	// assign [_Ptr, <null>)

  00000	56		 push	 esi

; 622  : 		return (assign(_Ptr, _Traits::length(_Ptr)));

  00001	8b 74 24 08	 mov	 esi, DWORD PTR __Ptr$[esp]
  00005	8b c6		 mov	 eax, esi
  00007	57		 push	 edi
  00008	8d 78 01	 lea	 edi, DWORD PTR [eax+1]
  0000b	eb 03 8d 49 00	 npad	 5
$L125612:
  00010	8a 10		 mov	 dl, BYTE PTR [eax]
  00012	40		 inc	 eax
  00013	84 d2		 test	 dl, dl
  00015	75 f9		 jne	 SHORT $L125612
  00017	2b c7		 sub	 eax, edi
  00019	50		 push	 eax
  0001a	56		 push	 esi
  0001b	e8 00 00 00 00	 call	 ?assign@?$basic_string@DU?$char_traits@D@std@@V?$allocator@D@2@@std@@QAEAAV12@PBDI@Z ; std::basic_string<char,std::char_traits<char>,std::allocator<char> >::assign
  00020	5f		 pop	 edi
  00021	5e		 pop	 esi

; 623  : 		}

  00022	c2 04 00	 ret	 4
?assign@?$basic_string@DU?$char_traits@D@std@@V?$allocator@D@2@@std@@QAEAAV12@PBD@Z ENDP ; std::basic_string<char,std::char_traits<char>,std::allocator<char> >::assign
_TEXT	ENDS
PUBLIC	??0?$basic_string@DU?$char_traits@D@std@@V?$allocator@D@2@@std@@QAE@PBD@Z ; std::basic_string<char,std::char_traits<char>,std::allocator<char> >::basic_string<char,std::char_traits<char>,std::allocator<char> >
; Function compile flags: /Ogty
;	COMDAT ??0?$basic_string@DU?$char_traits@D@std@@V?$allocator@D@2@@std@@QAE@PBD@Z
_TEXT	SEGMENT
__Ptr$ = 8						; size = 4
??0?$basic_string@DU?$char_traits@D@std@@V?$allocator@D@2@@std@@QAE@PBD@Z PROC NEAR ; std::basic_string<char,std::char_traits<char>,std::allocator<char> >::basic_string<char,std::char_traits<char>,std::allocator<char> >, COMDAT
; _this$ = ecx

; 361  : 		_Tidy();
; 362  : 		assign(_Ptr);

  00000	8b 54 24 04	 mov	 edx, DWORD PTR __Ptr$[esp-4]
  00004	56		 push	 esi
  00005	8b f1		 mov	 esi, ecx
  00007	8b c2		 mov	 eax, edx
  00009	57		 push	 edi
  0000a	c7 46 18 0f 00
	00 00		 mov	 DWORD PTR [esi+24], 15	; 0000000fH
  00011	c7 46 14 00 00
	00 00		 mov	 DWORD PTR [esi+20], 0
  00018	c6 46 04 00	 mov	 BYTE PTR [esi+4], 0
  0001c	8d 78 01	 lea	 edi, DWORD PTR [eax+1]
  0001f	90		 npad	 1
$L125687:
  00020	8a 08		 mov	 cl, BYTE PTR [eax]
  00022	40		 inc	 eax
  00023	84 c9		 test	 cl, cl
  00025	75 f9		 jne	 SHORT $L125687
  00027	2b c7		 sub	 eax, edi
  00029	50		 push	 eax
  0002a	52		 push	 edx
  0002b	8b ce		 mov	 ecx, esi
  0002d	e8 00 00 00 00	 call	 ?assign@?$basic_string@DU?$char_traits@D@std@@V?$allocator@D@2@@std@@QAEAAV12@PBDI@Z ; std::basic_string<char,std::char_traits<char>,std::allocator<char> >::assign
  00032	5f		 pop	 edi

; 363  : 		}

  00033	8b c6		 mov	 eax, esi
  00035	5e		 pop	 esi
  00036	c2 04 00	 ret	 4
??0?$basic_string@DU?$char_traits@D@std@@V?$allocator@D@2@@std@@QAE@PBD@Z ENDP ; std::basic_string<char,std::char_traits<char>,std::allocator<char> >::basic_string<char,std::char_traits<char>,std::allocator<char> >
_TEXT	ENDS
PUBLIC	??Y?$CStringT@DV?$StrTraitATL@DV?$ChTraitsCRT@D@ATL@@@ATL@@@ATL@@QAEAAV01@ABV?$CSimpleStringT@D$0A@@1@@Z ; ATL::CStringT<char,ATL::StrTraitATL<char,ATL::ChTraitsCRT<char> > >::operator+=
; Function compile flags: /Ogty
; File c:\program files (x86)\microsoft visual studio .net 2003\vc7\atlmfc\include\cstringt.h
;	COMDAT ??Y?$CStringT@DV?$StrTraitATL@DV?$ChTraitsCRT@D@ATL@@@ATL@@@ATL@@QAEAAV01@ABV?$CSimpleStringT@D$0A@@1@@Z
_TEXT	SEGMENT
_str$ = 8						; size = 4
??Y?$CStringT@DV?$StrTraitATL@DV?$ChTraitsCRT@D@ATL@@@ATL@@@ATL@@QAEAAV01@ABV?$CSimpleStringT@D$0A@@1@@Z PROC NEAR ; ATL::CStringT<char,ATL::StrTraitATL<char,ATL::ChTraitsCRT<char> > >::operator+=, COMDAT
; _this$ = ecx

; 1029 : 		CThisSimpleString::operator+=( str );

  00000	8b 44 24 04	 mov	 eax, DWORD PTR _str$[esp-4]
  00004	8b 00		 mov	 eax, DWORD PTR [eax]
  00006	56		 push	 esi
  00007	8b f1		 mov	 esi, ecx
  00009	8b 48 f4	 mov	 ecx, DWORD PTR [eax-12]
  0000c	51		 push	 ecx
  0000d	50		 push	 eax
  0000e	8b ce		 mov	 ecx, esi
  00010	e8 00 00 00 00	 call	 ?Append@?$CSimpleStringT@D$0A@@ATL@@QAEXPBDH@Z ; ATL::CSimpleStringT<char,0>::Append

; 1030 : 
; 1031 : 		return( *this );

  00015	8b c6		 mov	 eax, esi
  00017	5e		 pop	 esi

; 1032 : 	}

  00018	c2 04 00	 ret	 4
??Y?$CStringT@DV?$StrTraitATL@DV?$ChTraitsCRT@D@ATL@@@ATL@@@ATL@@QAEAAV01@ABV?$CSimpleStringT@D$0A@@1@@Z ENDP ; ATL::CStringT<char,ATL::StrTraitATL<char,ATL::ChTraitsCRT<char> > >::operator+=
_TEXT	ENDS
PUBLIC	??0?$CStringT@DV?$StrTraitATL@DV?$ChTraitsCRT@D@ATL@@@ATL@@@ATL@@QAE@PBD@Z ; ATL::CStringT<char,ATL::StrTraitATL<char,ATL::ChTraitsCRT<char> > >::CStringT<char,ATL::StrTraitATL<char,ATL::ChTraitsCRT<char> > >
;	COMDAT xdata$x
; File c:\program files (x86)\microsoft visual studio .net 2003\vc7\atlmfc\include\atlsimpstr.h
xdata$x	SEGMENT
$T125807 DD	0ffffffffH
	DD	FLAT:$L125727
$T125801 DD	019930520H
	DD	01H
	DD	FLAT:$T125807
	DD	2 DUP(00H)
	DD	2 DUP(00H)
; Function compile flags: /Ogty
; File c:\program files (x86)\microsoft visual studio .net 2003\vc7\atlmfc\include\cstringt.h
xdata$x	ENDS
;	COMDAT ??0?$CStringT@DV?$StrTraitATL@DV?$ChTraitsCRT@D@ATL@@@ATL@@@ATL@@QAE@PBD@Z
_TEXT	SEGMENT
_this$ = -16						; size = 4
__$EHRec$ = -12						; size = 12
_pszSrc$ = 8						; size = 4
??0?$CStringT@DV?$StrTraitATL@DV?$ChTraitsCRT@D@ATL@@@ATL@@@ATL@@QAE@PBD@Z PROC NEAR ; ATL::CStringT<char,ATL::StrTraitATL<char,ATL::ChTraitsCRT<char> > >::CStringT<char,ATL::StrTraitATL<char,ATL::ChTraitsCRT<char> > >, COMDAT
; _this$ = ecx

; 830  : 	{

  00000	6a ff		 push	 -1
  00002	68 00 00 00 00	 push	 __ehhandler$??0?$CStringT@DV?$StrTraitATL@DV?$ChTraitsCRT@D@ATL@@@ATL@@@ATL@@QAE@PBD@Z
  00007	64 a1 00 00 00
	00		 mov	 eax, DWORD PTR fs:__except_list
  0000d	50		 push	 eax
  0000e	64 89 25 00 00
	00 00		 mov	 DWORD PTR fs:__except_list, esp
  00015	51		 push	 ecx
  00016	a1 00 00 00 00	 mov	 eax, DWORD PTR ?g_strmgr@ATL@@3VCAtlStringMgr@1@A
  0001b	56		 push	 esi
  0001c	8b f1		 mov	 esi, ecx
  0001e	57		 push	 edi
  0001f	b9 00 00 00 00	 mov	 ecx, OFFSET FLAT:?g_strmgr@ATL@@3VCAtlStringMgr@1@A ; ATL::g_strmgr
  00024	89 74 24 08	 mov	 DWORD PTR _this$[esp+24], esi
  00028	ff 50 0c	 call	 DWORD PTR [eax+12]
  0002b	83 c0 10	 add	 eax, 16			; 00000010H
  0002e	89 06		 mov	 DWORD PTR [esi], eax

; 831  : 		if( !CheckImplicitLoad( pszSrc ) )

  00030	8b 54 24 1c	 mov	 edx, DWORD PTR _pszSrc$[esp+20]
  00034	85 d2		 test	 edx, edx
  00036	c7 44 24 14 00
	00 00 00	 mov	 DWORD PTR __$EHRec$[esp+32], 0
  0003e	74 38		 je	 SHORT $L125803
  00040	f7 c2 00 00 ff
	ff		 test	 edx, -65536		; ffff0000H
  00046	75 34		 jne	 SHORT $L125797
  00048	0f b7 fa	 movzx	 edi, dx
  0004b	6a 00		 push	 0
  0004d	57		 push	 edi
  0004e	e8 00 00 00 00	 call	 ?AtlFindStringResourceInstance@ATL@@YAPAUHINSTANCE__@@IG@Z ; ATL::AtlFindStringResourceInstance
  00053	83 c4 08	 add	 esp, 8
  00056	85 c0		 test	 eax, eax
  00058	74 39		 je	 SHORT $L125805
  0005a	57		 push	 edi
  0005b	50		 push	 eax
  0005c	8b ce		 mov	 ecx, esi
  0005e	e8 00 00 00 00	 call	 ?LoadStringA@?$CStringT@DV?$StrTraitATL@DV?$ChTraitsCRT@D@ATL@@@ATL@@@ATL@@QAEHPAUHINSTANCE__@@I@Z ; ATL::CStringT<char,ATL::StrTraitATL<char,ATL::ChTraitsCRT<char> > >::LoadStringA
  00063	5f		 pop	 edi

; 835  : 		}
; 836  : 	}

  00064	8b c6		 mov	 eax, esi
  00066	5e		 pop	 esi
  00067	8b 4c 24 04	 mov	 ecx, DWORD PTR __$EHRec$[esp+16]
  0006b	64 89 0d 00 00
	00 00		 mov	 DWORD PTR fs:__except_list, ecx
  00072	83 c4 10	 add	 esp, 16			; 00000010H
  00075	c2 04 00	 ret	 4
$L125803:

; 832  : 		{
; 833  : 			// nDestLength is in XCHARs
; 834  : 			*this = pszSrc;

  00078	33 c0		 xor	 eax, eax
  0007a	eb 0e		 jmp	 SHORT $L125796
$L125797:
  0007c	8b c2		 mov	 eax, edx
  0007e	8d 78 01	 lea	 edi, DWORD PTR [eax+1]
$L125804:
  00081	8a 08		 mov	 cl, BYTE PTR [eax]
  00083	40		 inc	 eax
  00084	84 c9		 test	 cl, cl
  00086	75 f9		 jne	 SHORT $L125804
  00088	2b c7		 sub	 eax, edi
$L125796:
  0008a	50		 push	 eax
  0008b	52		 push	 edx
  0008c	8b ce		 mov	 ecx, esi
  0008e	e8 00 00 00 00	 call	 ?SetString@?$CSimpleStringT@D$0A@@ATL@@QAEXPBDH@Z ; ATL::CSimpleStringT<char,0>::SetString
$L125805:

; 835  : 		}
; 836  : 	}

  00093	8b 4c 24 0c	 mov	 ecx, DWORD PTR __$EHRec$[esp+24]
  00097	5f		 pop	 edi
  00098	8b c6		 mov	 eax, esi
  0009a	5e		 pop	 esi
  0009b	64 89 0d 00 00
	00 00		 mov	 DWORD PTR fs:__except_list, ecx
  000a2	83 c4 10	 add	 esp, 16			; 00000010H
  000a5	c2 04 00	 ret	 4
_TEXT	ENDS
;	COMDAT text$x
text$x	SEGMENT
$L125727:
  00000	8b 4d f0	 mov	 ecx, DWORD PTR _this$[ebp]
  00003	e9 00 00 00 00	 jmp	 ??1?$CSimpleStringT@D$0A@@ATL@@QAE@XZ ; ATL::CSimpleStringT<char,0>::~CSimpleStringT<char,0>
__ehhandler$??0?$CStringT@DV?$StrTraitATL@DV?$ChTraitsCRT@D@ATL@@@ATL@@@ATL@@QAE@PBD@Z:
  00008	b8 00 00 00 00	 mov	 eax, OFFSET FLAT:$T125801
  0000d	e9 00 00 00 00	 jmp	 ___CxxFrameHandler
text$x	ENDS
??0?$CStringT@DV?$StrTraitATL@DV?$ChTraitsCRT@D@ATL@@@ATL@@@ATL@@QAE@PBD@Z ENDP ; ATL::CStringT<char,ATL::StrTraitATL<char,ATL::ChTraitsCRT<char> > >::CStringT<char,ATL::StrTraitATL<char,ATL::ChTraitsCRT<char> > >
PUBLIC	??4?$basic_string@DU?$char_traits@D@std@@V?$allocator@D@2@@std@@QAEAAV01@PBD@Z ; std::basic_string<char,std::char_traits<char>,std::allocator<char> >::operator=
; Function compile flags: /Ogty
; File c:\program files (x86)\microsoft visual studio .net 2003\vc7\include\xstring
;	COMDAT ??4?$basic_string@DU?$char_traits@D@std@@V?$allocator@D@2@@std@@QAEAAV01@PBD@Z
_TEXT	SEGMENT
__Ptr$ = 8						; size = 4
??4?$basic_string@DU?$char_traits@D@std@@V?$allocator@D@2@@std@@QAEAAV01@PBD@Z PROC NEAR ; std::basic_string<char,std::char_traits<char>,std::allocator<char> >::operator=, COMDAT
; _this$ = ecx

; 471  : 		{	// assign [_Ptr, <null>)

  00000	56		 push	 esi

; 472  : 		return (assign(_Ptr));

  00001	8b 74 24 08	 mov	 esi, DWORD PTR __Ptr$[esp]
  00005	8b c6		 mov	 eax, esi
  00007	57		 push	 edi
  00008	8d 78 01	 lea	 edi, DWORD PTR [eax+1]
  0000b	eb 03 8d 49 00	 npad	 5
$L125821:
  00010	8a 10		 mov	 dl, BYTE PTR [eax]
  00012	40		 inc	 eax
  00013	84 d2		 test	 dl, dl
  00015	75 f9		 jne	 SHORT $L125821
  00017	2b c7		 sub	 eax, edi
  00019	50		 push	 eax
  0001a	56		 push	 esi
  0001b	e8 00 00 00 00	 call	 ?assign@?$basic_string@DU?$char_traits@D@std@@V?$allocator@D@2@@std@@QAEAAV12@PBDI@Z ; std::basic_string<char,std::char_traits<char>,std::allocator<char> >::assign
  00020	5f		 pop	 edi
  00021	5e		 pop	 esi

; 473  : 		}

  00022	c2 04 00	 ret	 4
??4?$basic_string@DU?$char_traits@D@std@@V?$allocator@D@2@@std@@QAEAAV01@PBD@Z ENDP ; std::basic_string<char,std::char_traits<char>,std::allocator<char> >::operator=
_TEXT	ENDS
PUBLIC	?TopLevelExceptionFilter@CTMiniDump@@SGJPAU_EXCEPTION_POINTERS@@@Z ; CTMiniDump::TopLevelExceptionFilter
PUBLIC	??_C@_0M@IBNEFJCG@DBGHELP?4DLL?$AA@		; `string'
PUBLIC	??_C@_0BC@MNIKNFKD@MiniDumpWriteDump?$AA@	; `string'
PUBLIC	??_C@_0BC@FLKMODKM@?$CFd?9?$CFd?9?$CFd?9?$CFd?9?$CFd?9?$CFd?$AA@ ; `string'
PUBLIC	??_C@_04JMFINIFG@?4dmp?$AA@			; `string'
PUBLIC	??_C@_01PKGAHCOL@?$CJ?$AA@			; `string'
PUBLIC	??_C@_01ODHLEDKK@?$CI?$AA@			; `string'
EXTRN	__imp__GetProcAddress@8:NEAR
EXTRN	__imp__lstrcpyA@8:NEAR
EXTRN	__imp__GetCurrentProcess@0:NEAR
EXTRN	__imp__GetCurrentProcessId@0:NEAR
EXTRN	__imp__GetCurrentThreadId@0:NEAR
EXTRN	__imp__LoadLibraryA@4:NEAR
EXTRN	__imp__GetModuleFileNameA@12:NEAR
EXTRN	__imp__CloseHandle@4:NEAR
EXTRN	_strrchr:NEAR
EXTRN	__imp__GetLocalTime@4:NEAR
EXTRN	__imp__CreateFileA@28:NEAR
;	COMDAT xdata$x
; File c:\program files (x86)\microsoft visual studio .net 2003\vc7\atlmfc\include\atlsimpstr.h
xdata$x	SEGMENT
$T126256 DD	0ffffffffH
	DD	FLAT:$L125832
	DD	00H
	DD	FLAT:$L125833
	DD	01H
	DD	FLAT:$L125834
	DD	02H
	DD	FLAT:$L125835
	DD	02H
	DD	FLAT:$L125836
	DD	04H
	DD	FLAT:$L125837
	DD	05H
	DD	FLAT:$L125838
$T126250 DD	019930520H
	DD	07H
	DD	FLAT:$T126256
	DD	2 DUP(00H)
	DD	2 DUP(00H)
xdata$x	ENDS
;	COMDAT ??_C@_0M@IBNEFJCG@DBGHELP?4DLL?$AA@
CONST	SEGMENT
??_C@_0M@IBNEFJCG@DBGHELP?4DLL?$AA@ DB 'DBGHELP.DLL', 00H ; `string'
CONST	ENDS
;	COMDAT ??_C@_0BC@MNIKNFKD@MiniDumpWriteDump?$AA@
CONST	SEGMENT
??_C@_0BC@MNIKNFKD@MiniDumpWriteDump?$AA@ DB 'MiniDumpWriteDump', 00H ; `string'
CONST	ENDS
;	COMDAT ??_C@_0BC@FLKMODKM@?$CFd?9?$CFd?9?$CFd?9?$CFd?9?$CFd?9?$CFd?$AA@
CONST	SEGMENT
??_C@_0BC@FLKMODKM@?$CFd?9?$CFd?9?$CFd?9?$CFd?9?$CFd?9?$CFd?$AA@ DB '%d-%'
	DB	'd-%d-%d-%d-%d', 00H				; `string'
CONST	ENDS
;	COMDAT ??_C@_01ODHLEDKK@?$CI?$AA@
CONST	SEGMENT
??_C@_01ODHLEDKK@?$CI?$AA@ DB '(', 00H			; `string'
CONST	ENDS
;	COMDAT ??_C@_01PKGAHCOL@?$CJ?$AA@
CONST	SEGMENT
??_C@_01PKGAHCOL@?$CJ?$AA@ DB ')', 00H			; `string'
CONST	ENDS
;	COMDAT ??_C@_04JMFINIFG@?4dmp?$AA@
CONST	SEGMENT
??_C@_04JMFINIFG@?4dmp?$AA@ DB '.dmp', 00H		; `string'
; Function compile flags: /Ogty
; File c:\users\pierr\desktop\4story - oldschool\sources\tserver\tworldsvr\tminidump.cpp
CONST	ENDS
;	COMDAT ?TopLevelExceptionFilter@CTMiniDump@@SGJPAU_EXCEPTION_POINTERS@@@Z
_TEXT	SEGMENT
_strFileName$ = -644					; size = 4
_strTime$ = -640					; size = 4
_strFaultReason$ = -636					; size = 4
$T125829 = -632						; size = 4
$T125826 = -632						; size = 4
_pMiniDumpWriteDump$ = -628				; size = 4
_lResult$ = -624					; size = 4
$T125827 = -620						; size = 4
$T125828 = -616						; size = 4
_time$ = -612						; size = 16
_sUserInfo$ = -596					; size = 8
_sExceptionInfo$ = -588					; size = 12
_m_vUseData$ = -576					; size = 24
_szDllHelpPath$ = -552					; size = 260
_szFilename$ = -288					; size = 260
__$ArrayPad$ = -20					; size = 4
__$EHRec$ = -12						; size = 12
__$ReturnAddr$ = 4					; size = 4
_pException$ = 8					; size = 4
?TopLevelExceptionFilter@CTMiniDump@@SGJPAU_EXCEPTION_POINTERS@@@Z PROC NEAR ; CTMiniDump::TopLevelExceptionFilter, COMDAT

; 50   : {

  00000	55		 push	 ebp
  00001	8b ec		 mov	 ebp, esp
  00003	83 e4 f8	 and	 esp, -8			; fffffff8H
  00006	6a ff		 push	 -1
  00008	68 00 00 00 00	 push	 __ehhandler$?TopLevelExceptionFilter@CTMiniDump@@SGJPAU_EXCEPTION_POINTERS@@@Z
  0000d	64 a1 00 00 00
	00		 mov	 eax, DWORD PTR fs:__except_list
  00013	50		 push	 eax
  00014	64 89 25 00 00
	00 00		 mov	 DWORD PTR fs:__except_list, esp
  0001b	81 ec 78 02 00
	00		 sub	 esp, 632		; 00000278H
  00021	a1 00 00 00 00	 mov	 eax, DWORD PTR ___security_cookie
  00026	53		 push	 ebx
  00027	56		 push	 esi
  00028	57		 push	 edi
  00029	89 84 24 7c 02
	00 00		 mov	 DWORD PTR __$ArrayPad$[esp+656], eax

; 51   : 	LONG lResult = EXCEPTION_CONTINUE_SEARCH;
; 52   : 
; 53   : 	char szDllHelpPath[MAX_PATH] = {0};

  00030	33 c0		 xor	 eax, eax
  00032	c6 44 24 68 00	 mov	 BYTE PTR _szDllHelpPath$[esp+656], 0
  00037	b9 40 00 00 00	 mov	 ecx, 64			; 00000040H
  0003c	8d 7c 24 69	 lea	 edi, DWORD PTR _szDllHelpPath$[esp+657]
  00040	f3 ab		 rep stosd
  00042	66 ab		 stosw
  00044	aa		 stosb

; 54   : 	HMODULE hDLL = NULL;
; 55   : 
; 56   : 	// DLL 로딩
; 57   : 	if(::GetModuleFileName(NULL, szDllHelpPath, _MAX_PATH))

  00045	8b 3d 00 00 00
	00		 mov	 edi, DWORD PTR __imp__GetModuleFileNameA@12
  0004b	68 04 01 00 00	 push	 260			; 00000104H
  00050	8d 44 24 6c	 lea	 eax, DWORD PTR _szDllHelpPath$[esp+660]
  00054	33 f6		 xor	 esi, esi
  00056	50		 push	 eax
  00057	56		 push	 esi
  00058	89 74 24 2c	 mov	 DWORD PTR _lResult$[esp+668], esi
  0005c	ff d7		 call	 edi
  0005e	85 c0		 test	 eax, eax
  00060	0f 84 b8 02 00
	00		 je	 $L126134

; 58   : 	{
; 59   : 		char *pSlash = ::strrchr(szDllHelpPath, '\\');

  00066	8d 4c 24 68	 lea	 ecx, DWORD PTR _szDllHelpPath$[esp+656]
  0006a	6a 5c		 push	 92			; 0000005cH
  0006c	51		 push	 ecx
  0006d	e8 00 00 00 00	 call	 _strrchr
  00072	83 c4 08	 add	 esp, 8

; 60   : 		if( pSlash )

  00075	3b c6		 cmp	 eax, esi
  00077	0f 84 a1 02 00
	00		 je	 $L126134

; 61   : 		{
; 62   : 			::lstrcpy(pSlash + 1, "DBGHELP.DLL");

  0007d	68 00 00 00 00	 push	 OFFSET FLAT:??_C@_0M@IBNEFJCG@DBGHELP?4DLL?$AA@
  00082	40		 inc	 eax
  00083	50		 push	 eax
  00084	ff 15 00 00 00
	00		 call	 DWORD PTR __imp__lstrcpyA@8

; 63   : 			hDLL = ::LoadLibrary(szDllHelpPath);

  0008a	8d 54 24 68	 lea	 edx, DWORD PTR _szDllHelpPath$[esp+656]
  0008e	52		 push	 edx
  0008f	ff 15 00 00 00
	00		 call	 DWORD PTR __imp__LoadLibraryA@4

; 64   : 		}
; 65   : 	}
; 66   : 
; 67   : 	if( NULL == hDLL )

  00095	3b c6		 cmp	 eax, esi

; 68   : 		return lResult;

  00097	0f 84 81 02 00
	00		 je	 $L126134

; 69   : 	
; 70   : 	// DLL에서 MiniDumpWriteDump함수 얻어오기
; 71   : 	MINIDUMPWRITEDUMP pMiniDumpWriteDump = (MINIDUMPWRITEDUMP)::GetProcAddress(hDLL, "MiniDumpWriteDump");

  0009d	68 00 00 00 00	 push	 OFFSET FLAT:??_C@_0BC@MNIKNFKD@MiniDumpWriteDump?$AA@
  000a2	50		 push	 eax
  000a3	ff 15 00 00 00
	00		 call	 DWORD PTR __imp__GetProcAddress@8

; 72   : 	if( pMiniDumpWriteDump == NULL )

  000a9	3b c6		 cmp	 eax, esi
  000ab	89 44 24 1c	 mov	 DWORD PTR _pMiniDumpWriteDump$[esp+656], eax

; 73   : 		return lResult;

  000af	0f 84 69 02 00
	00		 je	 $L126134

; 74   : 
; 75   : 	SYSTEMTIME time;
; 76   : 	::GetLocalTime(&time);

  000b5	8d 44 24 2c	 lea	 eax, DWORD PTR _time$[esp+656]
  000b9	50		 push	 eax
  000ba	ff 15 00 00 00
	00		 call	 DWORD PTR __imp__GetLocalTime@4

; 77   : 	
; 78   : 	CString strTime;

  000c0	8b 15 00 00 00
	00		 mov	 edx, DWORD PTR ?g_strmgr@ATL@@3VCAtlStringMgr@1@A
  000c6	b9 00 00 00 00	 mov	 ecx, OFFSET FLAT:?g_strmgr@ATL@@3VCAtlStringMgr@1@A ; ATL::g_strmgr
  000cb	ff 52 0c	 call	 DWORD PTR [edx+12]
  000ce	83 c0 10	 add	 eax, 16			; 00000010H
  000d1	89 44 24 10	 mov	 DWORD PTR _strTime$[esp+656], eax

; 79   : 	strTime.Format("%d-%d-%d-%d-%d-%d", time.wYear, time.wMonth, time.wDay, time.wHour, time.wMinute, time.wSecond);

  000d5	0f b7 44 24 38	 movzx	 eax, WORD PTR _time$[esp+668]
  000da	0f b7 4c 24 36	 movzx	 ecx, WORD PTR _time$[esp+666]
  000df	0f b7 54 24 34	 movzx	 edx, WORD PTR _time$[esp+664]
  000e4	50		 push	 eax
  000e5	0f b7 44 24 36	 movzx	 eax, WORD PTR _time$[esp+666]
  000ea	51		 push	 ecx
  000eb	0f b7 4c 24 36	 movzx	 ecx, WORD PTR _time$[esp+666]
  000f0	52		 push	 edx
  000f1	0f b7 54 24 38	 movzx	 edx, WORD PTR _time$[esp+668]
  000f6	50		 push	 eax
  000f7	51		 push	 ecx
  000f8	52		 push	 edx
  000f9	8d 44 24 28	 lea	 eax, DWORD PTR _strTime$[esp+680]
  000fd	68 00 00 00 00	 push	 OFFSET FLAT:??_C@_0BC@FLKMODKM@?$CFd?9?$CFd?9?$CFd?9?$CFd?9?$CFd?9?$CFd?$AA@
  00102	50		 push	 eax
  00103	89 b4 24 ac 02
	00 00		 mov	 DWORD PTR __$EHRec$[esp+696], esi
  0010a	e8 00 00 00 00	 call	 ?Format@?$CStringT@DV?$StrTraitATL@DV?$ChTraitsCRT@D@ATL@@@ATL@@@ATL@@QAAXPBDZZ ; ATL::CStringT<char,ATL::StrTraitATL<char,ATL::ChTraitsCRT<char> > >::Format

; 80   : 	
; 81   : 	CString strFaultReason = GetFaultReason(pException);

  0010f	8b 4d 08	 mov	 ecx, DWORD PTR _pException$[ebp]
  00112	51		 push	 ecx
  00113	e8 00 00 00 00	 call	 ?GetFaultReason@CTMiniDump@@CAPADPAU_EXCEPTION_POINTERS@@@Z ; CTMiniDump::GetFaultReason
  00118	83 c4 24	 add	 esp, 36			; 00000024H
  0011b	50		 push	 eax
  0011c	8d 4c 24 18	 lea	 ecx, DWORD PTR _strFaultReason$[esp+660]
  00120	e8 00 00 00 00	 call	 ??0?$CStringT@DV?$StrTraitATL@DV?$ChTraitsCRT@D@ATL@@@ATL@@@ATL@@QAE@PBD@Z ; ATL::CStringT<char,ATL::StrTraitATL<char,ATL::ChTraitsCRT<char> > >::CStringT<char,ATL::StrTraitATL<char,ATL::ChTraitsCRT<char> > >

; 82   : 
; 83   : 	// 저장할 파일 이름 설정
; 84   : 	char szFilename[MAX_PATH];
; 85   : 	::GetModuleFileName(NULL, szFilename, MAX_PATH);

  00125	68 04 01 00 00	 push	 260			; 00000104H
  0012a	8d 94 24 74 01
	00 00		 lea	 edx, DWORD PTR _szFilename$[esp+660]
  00131	52		 push	 edx
  00132	56		 push	 esi
  00133	c6 84 24 98 02
	00 00 01	 mov	 BYTE PTR __$EHRec$[esp+676], 1
  0013b	ff d7		 call	 edi

; 86   : 	CString strFileName = szFilename;

  0013d	8d 84 24 70 01
	00 00		 lea	 eax, DWORD PTR _szFilename$[esp+656]
  00144	50		 push	 eax
  00145	8d 4c 24 10	 lea	 ecx, DWORD PTR _strFileName$[esp+660]
  00149	e8 00 00 00 00	 call	 ??0?$CStringT@DV?$StrTraitATL@DV?$ChTraitsCRT@D@ATL@@@ATL@@@ATL@@QAE@PBD@Z ; ATL::CStringT<char,ATL::StrTraitATL<char,ATL::ChTraitsCRT<char> > >::CStringT<char,ATL::StrTraitATL<char,ATL::ChTraitsCRT<char> > >

; 87   : 
; 88   :  	int iPos = strFileName.ReverseFind('.');

  0014e	8b 4c 24 0c	 mov	 ecx, DWORD PTR _strFileName$[esp+656]
  00152	6a 2e		 push	 46			; 0000002eH
  00154	51		 push	 ecx
  00155	c6 84 24 94 02
	00 00 02	 mov	 BYTE PTR __$EHRec$[esp+672], 2
  0015d	e8 00 00 00 00	 call	 __mbsrchr
  00162	83 c4 08	 add	 esp, 8
  00165	3b c6		 cmp	 eax, esi
  00167	74 4f		 je	 SHORT $L125924
  00169	2b 44 24 0c	 sub	 eax, DWORD PTR _strFileName$[esp+656]

; 89   : 	if( iPos > 0 )

  0016d	3b c6		 cmp	 eax, esi
  0016f	7e 47		 jle	 SHORT $L125924

; 90   : 		strFileName = strFileName.Left(iPos);

  00171	50		 push	 eax
  00172	8d 54 24 1c	 lea	 edx, DWORD PTR $T125826[esp+660]
  00176	52		 push	 edx
  00177	8d 4c 24 14	 lea	 ecx, DWORD PTR _strFileName$[esp+664]
  0017b	e8 00 00 00 00	 call	 ?Left@?$CStringT@DV?$StrTraitATL@DV?$ChTraitsCRT@D@ATL@@@ATL@@@ATL@@QBE?AV12@H@Z ; ATL::CStringT<char,ATL::StrTraitATL<char,ATL::ChTraitsCRT<char> > >::Left
  00180	50		 push	 eax
  00181	8d 4c 24 10	 lea	 ecx, DWORD PTR _strFileName$[esp+660]
  00185	c6 84 24 90 02
	00 00 03	 mov	 BYTE PTR __$EHRec$[esp+668], 3
  0018d	e8 00 00 00 00	 call	 ??4?$CSimpleStringT@D$0A@@ATL@@QAEAAV01@ABV01@@Z ; ATL::CSimpleStringT<char,0>::operator=
  00192	8b 44 24 18	 mov	 eax, DWORD PTR $T125826[esp+656]
  00196	83 c0 f0	 add	 eax, -16		; fffffff0H
  00199	c6 84 24 8c 02
	00 00 02	 mov	 BYTE PTR __$EHRec$[esp+664], 2
  001a1	8d 48 0c	 lea	 ecx, DWORD PTR [eax+12]
  001a4	83 ca ff	 or	 edx, -1
  001a7	f0 0f c1 11	 lock	  xadd	 DWORD PTR [ecx], edx
  001ab	4a		 dec	 edx
  001ac	85 d2		 test	 edx, edx
  001ae	7f 08		 jg	 SHORT $L125924
  001b0	8b 08		 mov	 ecx, DWORD PTR [eax]
  001b2	8b 11		 mov	 edx, DWORD PTR [ecx]
  001b4	50		 push	 eax
  001b5	ff 52 04	 call	 DWORD PTR [edx+4]
$L125924:

; 91   : 
; 92   : 	strFileName += "(" + strTime + ")" + ".dmp";

  001b8	8d 44 24 10	 lea	 eax, DWORD PTR _strTime$[esp+656]
  001bc	50		 push	 eax
  001bd	8d 4c 24 28	 lea	 ecx, DWORD PTR $T125827[esp+660]
  001c1	68 00 00 00 00	 push	 OFFSET FLAT:??_C@_01ODHLEDKK@?$CI?$AA@
  001c6	51		 push	 ecx
  001c7	e8 00 00 00 00	 call	 ??HATL@@YA?AV?$CStringT@DV?$StrTraitATL@DV?$ChTraitsCRT@D@ATL@@@ATL@@@0@PBDABV10@@Z ; ATL::operator+
  001cc	68 00 00 00 00	 push	 OFFSET FLAT:??_C@_01PKGAHCOL@?$CJ?$AA@
  001d1	50		 push	 eax
  001d2	8d 54 24 3c	 lea	 edx, DWORD PTR $T125828[esp+676]
  001d6	52		 push	 edx
  001d7	c6 84 24 a4 02
	00 00 04	 mov	 BYTE PTR __$EHRec$[esp+688], 4
  001df	e8 00 00 00 00	 call	 ??HATL@@YA?AV?$CStringT@DV?$StrTraitATL@DV?$ChTraitsCRT@D@ATL@@@ATL@@@0@ABV10@PBD@Z ; ATL::operator+
  001e4	68 00 00 00 00	 push	 OFFSET FLAT:??_C@_04JMFINIFG@?4dmp?$AA@
  001e9	50		 push	 eax
  001ea	8d 44 24 38	 lea	 eax, DWORD PTR $T125829[esp+688]
  001ee	b3 05		 mov	 bl, 5
  001f0	50		 push	 eax
  001f1	88 9c 24 b0 02
	00 00		 mov	 BYTE PTR __$EHRec$[esp+700], bl
  001f8	e8 00 00 00 00	 call	 ??HATL@@YA?AV?$CStringT@DV?$StrTraitATL@DV?$ChTraitsCRT@D@ATL@@@ATL@@@0@ABV10@PBD@Z ; ATL::operator+
  001fd	83 c4 24	 add	 esp, 36			; 00000024H
  00200	8b 00		 mov	 eax, DWORD PTR [eax]
  00202	8b 48 f4	 mov	 ecx, DWORD PTR [eax-12]
  00205	51		 push	 ecx
  00206	50		 push	 eax
  00207	8d 4c 24 14	 lea	 ecx, DWORD PTR _strFileName$[esp+664]
  0020b	c6 84 24 94 02
	00 00 06	 mov	 BYTE PTR __$EHRec$[esp+672], 6
  00213	e8 00 00 00 00	 call	 ?Append@?$CSimpleStringT@D$0A@@ATL@@QAEXPBDH@Z ; ATL::CSimpleStringT<char,0>::Append
  00218	8b 44 24 18	 mov	 eax, DWORD PTR $T125829[esp+656]
  0021c	83 c0 f0	 add	 eax, -16		; fffffff0H
  0021f	88 9c 24 8c 02
	00 00		 mov	 BYTE PTR __$EHRec$[esp+664], bl
  00226	8d 48 0c	 lea	 ecx, DWORD PTR [eax+12]
  00229	83 ca ff	 or	 edx, -1
  0022c	f0 0f c1 11	 lock	  xadd	 DWORD PTR [ecx], edx
  00230	4a		 dec	 edx
  00231	85 d2		 test	 edx, edx
  00233	7f 08		 jg	 SHORT $L125996
  00235	8b 08		 mov	 ecx, DWORD PTR [eax]
  00237	8b 11		 mov	 edx, DWORD PTR [ecx]
  00239	50		 push	 eax
  0023a	ff 52 04	 call	 DWORD PTR [edx+4]
$L125996:
  0023d	8b 44 24 28	 mov	 eax, DWORD PTR $T125828[esp+656]
  00241	83 c0 f0	 add	 eax, -16		; fffffff0H
  00244	c6 84 24 8c 02
	00 00 04	 mov	 BYTE PTR __$EHRec$[esp+664], 4
  0024c	8d 48 0c	 lea	 ecx, DWORD PTR [eax+12]
  0024f	83 ca ff	 or	 edx, -1
  00252	f0 0f c1 11	 lock	  xadd	 DWORD PTR [ecx], edx
  00256	4a		 dec	 edx
  00257	85 d2		 test	 edx, edx
  00259	7f 08		 jg	 SHORT $L126023
  0025b	8b 08		 mov	 ecx, DWORD PTR [eax]
  0025d	8b 11		 mov	 edx, DWORD PTR [ecx]
  0025f	50		 push	 eax
  00260	ff 52 04	 call	 DWORD PTR [edx+4]
$L126023:
  00263	8b 44 24 24	 mov	 eax, DWORD PTR $T125827[esp+656]
  00267	83 c0 f0	 add	 eax, -16		; fffffff0H
  0026a	c6 84 24 8c 02
	00 00 02	 mov	 BYTE PTR __$EHRec$[esp+664], 2
  00272	8d 48 0c	 lea	 ecx, DWORD PTR [eax+12]
  00275	83 ca ff	 or	 edx, -1
  00278	f0 0f c1 11	 lock	  xadd	 DWORD PTR [ecx], edx
  0027c	4a		 dec	 edx
  0027d	85 d2		 test	 edx, edx
  0027f	7f 08		 jg	 SHORT $L126050
  00281	8b 08		 mov	 ecx, DWORD PTR [eax]
  00283	8b 11		 mov	 edx, DWORD PTR [ecx]
  00285	50		 push	 eax
  00286	ff 52 04	 call	 DWORD PTR [edx+4]
$L126050:

; 93   : 
; 94   : 	// 파일에 기록
; 95   : 	HANDLE hFile = CreateFile(strFileName, GENERIC_READ|GENERIC_WRITE, 0, NULL, OPEN_ALWAYS, FILE_ATTRIBUTE_NORMAL, NULL);

  00289	8b 44 24 0c	 mov	 eax, DWORD PTR _strFileName$[esp+656]
  0028d	56		 push	 esi
  0028e	68 80 00 00 00	 push	 128			; 00000080H
  00293	6a 04		 push	 4
  00295	56		 push	 esi
  00296	56		 push	 esi
  00297	68 00 00 00 c0	 push	 -1073741824		; c0000000H
  0029c	50		 push	 eax
  0029d	ff 15 00 00 00
	00		 call	 DWORD PTR __imp__CreateFileA@28
  002a3	8b f0		 mov	 esi, eax

; 96   : 	if( INVALID_HANDLE_VALUE == hFile )

  002a5	83 fe ff	 cmp	 esi, -1
  002a8	75 7b		 jne	 SHORT $L122457

; 97   : 		return lResult;

  002aa	8b 44 24 0c	 mov	 eax, DWORD PTR _strFileName$[esp+656]
  002ae	83 c0 f0	 add	 eax, -16		; fffffff0H
  002b1	c6 84 24 8c 02
	00 00 01	 mov	 BYTE PTR __$EHRec$[esp+664], 1
  002b9	8d 48 0c	 lea	 ecx, DWORD PTR [eax+12]
  002bc	0b d6		 or	 edx, esi
  002be	f0 0f c1 11	 lock	  xadd	 DWORD PTR [ecx], edx
  002c2	4a		 dec	 edx
  002c3	85 d2		 test	 edx, edx
  002c5	7f 08		 jg	 SHORT $L126080
  002c7	8b 08		 mov	 ecx, DWORD PTR [eax]
  002c9	8b 11		 mov	 edx, DWORD PTR [ecx]
  002cb	50		 push	 eax
  002cc	ff 52 04	 call	 DWORD PTR [edx+4]
$L126080:
  002cf	8b 44 24 14	 mov	 eax, DWORD PTR _strFaultReason$[esp+656]
  002d3	83 c0 f0	 add	 eax, -16		; fffffff0H
  002d6	c6 84 24 8c 02
	00 00 00	 mov	 BYTE PTR __$EHRec$[esp+664], 0
  002de	8d 48 0c	 lea	 ecx, DWORD PTR [eax+12]
  002e1	83 ca ff	 or	 edx, -1
  002e4	f0 0f c1 11	 lock	  xadd	 DWORD PTR [ecx], edx
  002e8	4a		 dec	 edx
  002e9	85 d2		 test	 edx, edx
  002eb	7f 08		 jg	 SHORT $L126107
  002ed	8b 08		 mov	 ecx, DWORD PTR [eax]
  002ef	8b 11		 mov	 edx, DWORD PTR [ecx]
  002f1	50		 push	 eax
  002f2	ff 52 04	 call	 DWORD PTR [edx+4]
$L126107:
  002f5	8b 44 24 10	 mov	 eax, DWORD PTR _strTime$[esp+656]
  002f9	83 c0 f0	 add	 eax, -16		; fffffff0H
  002fc	c7 84 24 8c 02
	00 00 ff ff ff
	ff		 mov	 DWORD PTR __$EHRec$[esp+664], -1
  00307	8d 48 0c	 lea	 ecx, DWORD PTR [eax+12]
  0030a	83 ca ff	 or	 edx, -1
  0030d	f0 0f c1 11	 lock	  xadd	 DWORD PTR [ecx], edx
  00311	4a		 dec	 edx
  00312	85 d2		 test	 edx, edx
  00314	7f 08		 jg	 SHORT $L126134
  00316	8b 08		 mov	 ecx, DWORD PTR [eax]
  00318	8b 11		 mov	 edx, DWORD PTR [ecx]
  0031a	50		 push	 eax
  0031b	ff 52 04	 call	 DWORD PTR [edx+4]
$L126134:
  0031e	33 c0		 xor	 eax, eax
  00320	e9 1d 01 00 00	 jmp	 $L122423
$L122457:

; 98   : 
; 99   : 	HANDLE hProcess = GetCurrentProcess();

  00325	ff 15 00 00 00
	00		 call	 DWORD PTR __imp__GetCurrentProcess@0
  0032b	8b f8		 mov	 edi, eax

; 100  : 	DWORD dwProcessID = GetCurrentProcessId();

  0032d	ff 15 00 00 00
	00		 call	 DWORD PTR __imp__GetCurrentProcessId@0
  00333	8b d8		 mov	 ebx, eax

; 101  : 	DWORD dwThreadID = GetCurrentThreadId();

  00335	ff 15 00 00 00
	00		 call	 DWORD PTR __imp__GetCurrentThreadId@0

; 102  : 
; 103  : 	MINIDUMP_EXCEPTION_INFORMATION sExceptionInfo;
; 104  : 	sExceptionInfo.ThreadId = dwThreadID;

  0033b	89 44 24 44	 mov	 DWORD PTR _sExceptionInfo$[esp+656], eax

; 105  : 	sExceptionInfo.ExceptionPointers = pException;

  0033f	8b 45 08	 mov	 eax, DWORD PTR _pException$[ebp]
  00342	89 44 24 48	 mov	 DWORD PTR _sExceptionInfo$[esp+660], eax

; 106  : 	sExceptionInfo.ClientPointers = FALSE;
; 107  : 
; 108  : 	MINIDUMP_USER_STREAM_INFORMATION sUserInfo; 
; 109  : 	MINIDUMP_USER_STREAM m_vUseData[2];
; 110  : 
; 111  : 	// 추가정보
; 112  : 	m_vUseData[0].Type = 0;
; 113  : 	m_vUseData[0].Buffer = (PVOID)((LPCSTR)strFaultReason);

  00346	8b 44 24 14	 mov	 eax, DWORD PTR _strFaultReason$[esp+656]
  0034a	33 c9		 xor	 ecx, ecx
  0034c	89 44 24 58	 mov	 DWORD PTR _m_vUseData$[esp+664], eax
  00350	89 4c 24 4c	 mov	 DWORD PTR _sExceptionInfo$[esp+664], ecx
  00354	89 4c 24 50	 mov	 DWORD PTR _m_vUseData$[esp+656], ecx

; 114  : 	m_vUseData[0].BufferSize = strFaultReason.GetLength()+1;

  00358	8b 40 f4	 mov	 eax, DWORD PTR [eax-12]
  0035b	40		 inc	 eax
  0035c	89 44 24 54	 mov	 DWORD PTR _m_vUseData$[esp+660], eax

; 115  : 
; 116  : 	m_vUseData[1].Type = 1;
; 117  : 	m_vUseData[1].Buffer = (PVOID)g_strUserData.c_str();

  00360	83 3d 18 00 00
	00 10		 cmp	 DWORD PTR ?g_strUserData@@3V?$basic_string@DU?$char_traits@D@std@@V?$allocator@D@2@@std@@A+24, 16 ; 00000010H
  00367	c7 44 24 5c 01
	00 00 00	 mov	 DWORD PTR _m_vUseData$[esp+668], 1
  0036f	72 0c		 jb	 SHORT $L126161
  00371	8b 15 04 00 00
	00		 mov	 edx, DWORD PTR ?g_strUserData@@3V?$basic_string@DU?$char_traits@D@std@@V?$allocator@D@2@@std@@A+4
  00377	89 54 24 64	 mov	 DWORD PTR _m_vUseData$[esp+676], edx
  0037b	eb 08		 jmp	 SHORT $L126162
$L126161:
  0037d	c7 44 24 64 04
	00 00 00	 mov	 DWORD PTR _m_vUseData$[esp+676], OFFSET FLAT:?g_strUserData@@3V?$basic_string@DU?$char_traits@D@std@@V?$allocator@D@2@@std@@A+4
$L126162:

; 118  : 	m_vUseData[1].BufferSize = (ULONG)g_strUserData.size();

  00385	a1 14 00 00 00	 mov	 eax, DWORD PTR ?g_strUserData@@3V?$basic_string@DU?$char_traits@D@std@@V?$allocator@D@2@@std@@A+20

; 119  : 
; 120  : 	sUserInfo.UserStreamCount = 2; 
; 121  : 	sUserInfo.UserStreamArray = m_vUseData;
; 122  : 
; 123  : 	// 정보기록
; 124  : 	if( pMiniDumpWriteDump( hProcess, dwProcessID, hFile, g_eDumpType, &sExceptionInfo, &sUserInfo, NULL) )

  0038a	51		 push	 ecx
  0038b	89 44 24 64	 mov	 DWORD PTR _m_vUseData$[esp+676], eax
  0038f	8d 44 24 40	 lea	 eax, DWORD PTR _sUserInfo$[esp+660]
  00393	50		 push	 eax
  00394	8d 54 24 58	 lea	 edx, DWORD PTR _m_vUseData$[esp+664]
  00398	8d 4c 24 4c	 lea	 ecx, DWORD PTR _sExceptionInfo$[esp+664]
  0039c	51		 push	 ecx
  0039d	89 54 24 4c	 mov	 DWORD PTR _sUserInfo$[esp+672], edx
  003a1	8b 15 00 00 00
	00		 mov	 edx, DWORD PTR ?g_eDumpType@@3W4_MINIDUMP_TYPE@@A ; g_eDumpType
  003a7	52		 push	 edx
  003a8	56		 push	 esi
  003a9	53		 push	 ebx
  003aa	57		 push	 edi
  003ab	c7 44 24 58 02
	00 00 00	 mov	 DWORD PTR _sUserInfo$[esp+684], 2
  003b3	ff 54 24 38	 call	 DWORD PTR _pMiniDumpWriteDump$[esp+684]
  003b7	85 c0		 test	 eax, eax

; 125  : 		lResult = EXCEPTION_EXECUTE_HANDLER;

  003b9	bf 01 00 00 00	 mov	 edi, 1
  003be	75 04		 jne	 SHORT $L122469
  003c0	8b 7c 24 20	 mov	 edi, DWORD PTR _lResult$[esp+656]
$L122469:

; 126  : 	
; 127  : 	CloseHandle(hFile);

  003c4	56		 push	 esi
  003c5	ff 15 00 00 00
	00		 call	 DWORD PTR __imp__CloseHandle@4

; 128  : 
; 129  : 	return lResult;

  003cb	8b 44 24 0c	 mov	 eax, DWORD PTR _strFileName$[esp+656]
  003cf	83 c0 f0	 add	 eax, -16		; fffffff0H
  003d2	c6 84 24 8c 02
	00 00 01	 mov	 BYTE PTR __$EHRec$[esp+664], 1
  003da	8d 48 0c	 lea	 ecx, DWORD PTR [eax+12]
  003dd	83 ca ff	 or	 edx, -1
  003e0	f0 0f c1 11	 lock	  xadd	 DWORD PTR [ecx], edx
  003e4	4a		 dec	 edx
  003e5	85 d2		 test	 edx, edx
  003e7	7f 08		 jg	 SHORT $L126191
  003e9	8b 08		 mov	 ecx, DWORD PTR [eax]
  003eb	8b 11		 mov	 edx, DWORD PTR [ecx]
  003ed	50		 push	 eax
  003ee	ff 52 04	 call	 DWORD PTR [edx+4]
$L126191:
  003f1	8b 44 24 14	 mov	 eax, DWORD PTR _strFaultReason$[esp+656]
  003f5	83 c0 f0	 add	 eax, -16		; fffffff0H
  003f8	c6 84 24 8c 02
	00 00 00	 mov	 BYTE PTR __$EHRec$[esp+664], 0
  00400	8d 48 0c	 lea	 ecx, DWORD PTR [eax+12]
  00403	83 ca ff	 or	 edx, -1
  00406	f0 0f c1 11	 lock	  xadd	 DWORD PTR [ecx], edx
  0040a	4a		 dec	 edx
  0040b	85 d2		 test	 edx, edx
  0040d	7f 08		 jg	 SHORT $L126218
  0040f	8b 08		 mov	 ecx, DWORD PTR [eax]
  00411	8b 11		 mov	 edx, DWORD PTR [ecx]
  00413	50		 push	 eax
  00414	ff 52 04	 call	 DWORD PTR [edx+4]
$L126218:
  00417	8b 44 24 10	 mov	 eax, DWORD PTR _strTime$[esp+656]
  0041b	83 c0 f0	 add	 eax, -16		; fffffff0H
  0041e	c7 84 24 8c 02
	00 00 ff ff ff
	ff		 mov	 DWORD PTR __$EHRec$[esp+664], -1
  00429	8d 48 0c	 lea	 ecx, DWORD PTR [eax+12]
  0042c	83 ca ff	 or	 edx, -1
  0042f	f0 0f c1 11	 lock	  xadd	 DWORD PTR [ecx], edx
  00433	4a		 dec	 edx
  00434	85 d2		 test	 edx, edx
  00436	7f 08		 jg	 SHORT $L126245
  00438	8b 08		 mov	 ecx, DWORD PTR [eax]
  0043a	8b 11		 mov	 edx, DWORD PTR [ecx]
  0043c	50		 push	 eax
  0043d	ff 52 04	 call	 DWORD PTR [edx+4]
$L126245:
  00440	8b c7		 mov	 eax, edi
$L122423:

; 130  : }

  00442	8b 8c 24 84 02
	00 00		 mov	 ecx, DWORD PTR __$EHRec$[esp+656]
  00449	64 89 0d 00 00
	00 00		 mov	 DWORD PTR fs:__except_list, ecx
  00450	8b 8c 24 7c 02
	00 00		 mov	 ecx, DWORD PTR __$ArrayPad$[esp+656]
  00457	e8 00 00 00 00	 call	 @__security_check_cookie@4
  0045c	5f		 pop	 edi
  0045d	5e		 pop	 esi
  0045e	5b		 pop	 ebx
  0045f	8b e5		 mov	 esp, ebp
  00461	5d		 pop	 ebp
  00462	c2 04 00	 ret	 4
_TEXT	ENDS
;	COMDAT text$x
text$x	SEGMENT
$L125832:
  00000	8d 8d 80 fd ff
	ff		 lea	 ecx, DWORD PTR _strTime$[ebp]
  00006	e9 00 00 00 00	 jmp	 ??1?$CStringT@DV?$StrTraitATL@DV?$ChTraitsCRT@D@ATL@@@ATL@@@ATL@@QAE@XZ ; ATL::CStringT<char,ATL::StrTraitATL<char,ATL::ChTraitsCRT<char> > >::~CStringT<char,ATL::StrTraitATL<char,ATL::ChTraitsCRT<char> > >
$L125833:
  0000b	8d 8d 84 fd ff
	ff		 lea	 ecx, DWORD PTR _strFaultReason$[ebp]
  00011	e9 00 00 00 00	 jmp	 ??1?$CStringT@DV?$StrTraitATL@DV?$ChTraitsCRT@D@ATL@@@ATL@@@ATL@@QAE@XZ ; ATL::CStringT<char,ATL::StrTraitATL<char,ATL::ChTraitsCRT<char> > >::~CStringT<char,ATL::StrTraitATL<char,ATL::ChTraitsCRT<char> > >
$L125834:
  00016	8d 8d 7c fd ff
	ff		 lea	 ecx, DWORD PTR _strFileName$[ebp]
  0001c	e9 00 00 00 00	 jmp	 ??1?$CStringT@DV?$StrTraitATL@DV?$ChTraitsCRT@D@ATL@@@ATL@@@ATL@@QAE@XZ ; ATL::CStringT<char,ATL::StrTraitATL<char,ATL::ChTraitsCRT<char> > >::~CStringT<char,ATL::StrTraitATL<char,ATL::ChTraitsCRT<char> > >
$L125835:
  00021	8d 8d 88 fd ff
	ff		 lea	 ecx, DWORD PTR $T125826[ebp]
  00027	e9 00 00 00 00	 jmp	 ??1?$CStringT@DV?$StrTraitATL@DV?$ChTraitsCRT@D@ATL@@@ATL@@@ATL@@QAE@XZ ; ATL::CStringT<char,ATL::StrTraitATL<char,ATL::ChTraitsCRT<char> > >::~CStringT<char,ATL::StrTraitATL<char,ATL::ChTraitsCRT<char> > >
$L125836:
  0002c	8d 8d 94 fd ff
	ff		 lea	 ecx, DWORD PTR $T125827[ebp]
  00032	e9 00 00 00 00	 jmp	 ??1?$CStringT@DV?$StrTraitATL@DV?$ChTraitsCRT@D@ATL@@@ATL@@@ATL@@QAE@XZ ; ATL::CStringT<char,ATL::StrTraitATL<char,ATL::ChTraitsCRT<char> > >::~CStringT<char,ATL::StrTraitATL<char,ATL::ChTraitsCRT<char> > >
$L125837:
  00037	8d 8d 98 fd ff
	ff		 lea	 ecx, DWORD PTR $T125828[ebp]
  0003d	e9 00 00 00 00	 jmp	 ??1?$CStringT@DV?$StrTraitATL@DV?$ChTraitsCRT@D@ATL@@@ATL@@@ATL@@QAE@XZ ; ATL::CStringT<char,ATL::StrTraitATL<char,ATL::ChTraitsCRT<char> > >::~CStringT<char,ATL::StrTraitATL<char,ATL::ChTraitsCRT<char> > >
$L125838:
  00042	8d 8d 88 fd ff
	ff		 lea	 ecx, DWORD PTR $T125829[ebp]
  00048	e9 00 00 00 00	 jmp	 ??1?$CStringT@DV?$StrTraitATL@DV?$ChTraitsCRT@D@ATL@@@ATL@@@ATL@@QAE@XZ ; ATL::CStringT<char,ATL::StrTraitATL<char,ATL::ChTraitsCRT<char> > >::~CStringT<char,ATL::StrTraitATL<char,ATL::ChTraitsCRT<char> > >
__ehhandler$?TopLevelExceptionFilter@CTMiniDump@@SGJPAU_EXCEPTION_POINTERS@@@Z:
  0004d	b8 00 00 00 00	 mov	 eax, OFFSET FLAT:$T126250
  00052	e9 00 00 00 00	 jmp	 ___CxxFrameHandler
text$x	ENDS
?TopLevelExceptionFilter@CTMiniDump@@SGJPAU_EXCEPTION_POINTERS@@@Z ENDP ; CTMiniDump::TopLevelExceptionFilter
PUBLIC	?SetUserInfo@CTMiniDump@@SAXPBD@Z		; CTMiniDump::SetUserInfo
; Function compile flags: /Ogty
;	COMDAT ?SetUserInfo@CTMiniDump@@SAXPBD@Z
_TEXT	SEGMENT
_pszTemp$ = 8						; size = 4
?SetUserInfo@CTMiniDump@@SAXPBD@Z PROC NEAR		; CTMiniDump::SetUserInfo, COMDAT

; 140  : 	g_strUserData = pszTemp;

  00000	8b 54 24 04	 mov	 edx, DWORD PTR _pszTemp$[esp-4]
  00004	8b c2		 mov	 eax, edx
  00006	56		 push	 esi
  00007	8d 70 01	 lea	 esi, DWORD PTR [eax+1]
  0000a	8d 9b 00 00 00
	00		 npad	 6
$L126276:
  00010	8a 08		 mov	 cl, BYTE PTR [eax]
  00012	40		 inc	 eax
  00013	84 c9		 test	 cl, cl
  00015	75 f9		 jne	 SHORT $L126276
  00017	2b c6		 sub	 eax, esi
  00019	50		 push	 eax
  0001a	52		 push	 edx
  0001b	b9 00 00 00 00	 mov	 ecx, OFFSET FLAT:?g_strUserData@@3V?$basic_string@DU?$char_traits@D@std@@V?$allocator@D@2@@std@@A
  00020	e8 00 00 00 00	 call	 ?assign@?$basic_string@DU?$char_traits@D@std@@V?$allocator@D@2@@std@@QAEAAV12@PBDI@Z ; std::basic_string<char,std::char_traits<char>,std::allocator<char> >::assign
  00025	5e		 pop	 esi

; 141  : }

  00026	c3		 ret	 0
?SetUserInfo@CTMiniDump@@SAXPBD@Z ENDP			; CTMiniDump::SetUserInfo
_TEXT	ENDS
PUBLIC	?OnMemoryDump@@YA?AW4BSUMDRET@@XZ		; OnMemoryDump
EXTRN	__imp__GetCurrentThread@0:NEAR
EXTRN	__imp__GetThreadContext@8:NEAR
; Function compile flags: /Ogty
;	COMDAT ?OnMemoryDump@@YA?AW4BSUMDRET@@XZ
_TEXT	SEGMENT
_sDumpInfo$ = -1448					; size = 8
_dwRetAddr$122585 = -1440				; size = 4
_eRet$ = -1440						; size = 4
_stInitialCtx$ = -1436					; size = 716
_stFinalCtx$ = -720					; size = 716
__$ReturnAddr$ = 4					; size = 4
?OnMemoryDump@@YA?AW4BSUMDRET@@XZ PROC NEAR		; OnMemoryDump, COMDAT

; 311  : 	_EXCEPTION_POINTERS sDumpInfo;
; 312  : 
; 313  : 	CONTEXT stInitialCtx ;
; 314  : 	CONTEXT stFinalCtx ;
; 315  : 
; 316  : 	BSUMDRET    eRet ;
; 317  : 	BOOL        bRetVal ;
; 318  : 
; 319  : 	eRet = eDUMP_SUCCEEDED ;

  00000	33 f6		 xor	 esi, esi
  00002	89 b5 60 fa ff
	ff		 mov	 DWORD PTR _eRet$[ebp], esi

; 320  : 
; 321  : 	SNAPPROLOG ( stInitialCtx ) ;

  00008	55		 push	 ebp
  00009	8b ec		 mov	 ebp, esp
  0000b	81 ec a8 05 00
	00		 sub	 esp, 1448		; 000005a8H
  00011	89 85 14 fb ff
	ff		 mov	 DWORD PTR _stInitialCtx$[ebp+176], eax
  00017	89 9d 08 fb ff
	ff		 mov	 DWORD PTR _stInitialCtx$[ebp+164], ebx
  0001d	89 8d 10 fb ff
	ff		 mov	 DWORD PTR _stInitialCtx$[ebp+172], ecx
  00023	89 95 0c fb ff
	ff		 mov	 DWORD PTR _stInitialCtx$[ebp+168], edx
  00029	89 bd 00 fb ff
	ff		 mov	 DWORD PTR _stInitialCtx$[ebp+156], edi
  0002f	89 b5 04 fb ff
	ff		 mov	 DWORD PTR _stInitialCtx$[ebp+160], esi
  00035	33 c0		 xor	 eax, eax
  00037	66 8c e8	 mov	 ax, gs
  0003a	89 85 f0 fa ff
	ff		 mov	 DWORD PTR _stInitialCtx$[ebp+140], eax
  00040	66 8c e0	 mov	 ax, fs
  00043	89 85 f4 fa ff
	ff		 mov	 DWORD PTR _stInitialCtx$[ebp+144], eax
  00049	66 8c c0	 mov	 ax, es
  0004c	89 85 f8 fa ff
	ff		 mov	 DWORD PTR _stInitialCtx$[ebp+148], eax
  00052	66 8c d8	 mov	 ax, ds
  00055	89 85 fc fa ff
	ff		 mov	 DWORD PTR _stInitialCtx$[ebp+152], eax
  0005b	66 8c c8	 mov	 ax, cs
  0005e	89 85 20 fb ff
	ff		 mov	 DWORD PTR _stInitialCtx$[ebp+188], eax
  00064	66 8c d0	 mov	 ax, ss
  00067	89 85 2c fb ff
	ff		 mov	 DWORD PTR _stInitialCtx$[ebp+200], eax
  0006d	8b 45 00	 mov	 eax, DWORD PTR [ebp]
  00070	89 85 18 fb ff
	ff		 mov	 DWORD PTR _stInitialCtx$[ebp+180], eax
  00076	8b c5		 mov	 eax, ebp
  00078	83 c0 08	 add	 eax, 8
  0007b	89 85 28 fb ff
	ff		 mov	 DWORD PTR _stInitialCtx$[ebp+196], eax
  00081	56		 push	 esi
  00082	57		 push	 edi
  00083	53		 push	 ebx
  00084	51		 push	 ecx
  00085	52		 push	 edx

; 322  : 
; 323  : 	ZeroMemory ( &stFinalCtx , sizeof ( CONTEXT ) ) ;

  00086	33 c0		 xor	 eax, eax
  00088	b9 b3 00 00 00	 mov	 ecx, 179		; 000000b3H
  0008d	8d bd 30 fd ff
	ff		 lea	 edi, DWORD PTR _stFinalCtx$[ebp]
  00093	f3 ab		 rep stosd

; 324  : 
; 325  : 	stFinalCtx.ContextFlags = 
; 326  : 		CONTEXT_FULL               |
; 327  : 		CONTEXT_CONTROL            |
; 328  : 		CONTEXT_DEBUG_REGISTERS    |
; 329  : 		CONTEXT_EXTENDED_REGISTERS |
; 330  : 		CONTEXT_FLOATING_POINT       ;
; 331  : 
; 332  : 	bRetVal = GetThreadContext ( GetCurrentThread ( ) ,&stFinalCtx);

  00095	8d 85 30 fd ff
	ff		 lea	 eax, DWORD PTR _stFinalCtx$[ebp]
  0009b	50		 push	 eax
  0009c	c7 85 30 fd ff
	ff 3f 00 01 00	 mov	 DWORD PTR _stFinalCtx$[ebp], 65599 ; 0001003fH
  000a6	ff 15 00 00 00
	00		 call	 DWORD PTR __imp__GetCurrentThread@0
  000ac	50		 push	 eax
  000ad	ff 15 00 00 00
	00		 call	 DWORD PTR __imp__GetThreadContext@8

; 333  : 	if ( TRUE == bRetVal )

  000b3	83 f8 01	 cmp	 eax, 1
  000b6	0f 85 ef 00 00
	00		 jne	 $L122589

; 334  : 	{
; 335  : 		COPYKEYCONTEXTREGISTERS ( stFinalCtx , stInitialCtx ) ;

  000bc	8b 85 10 fb ff
	ff		 mov	 eax, DWORD PTR _stInitialCtx$[ebp+172]
  000c2	8b 8d 14 fb ff
	ff		 mov	 ecx, DWORD PTR _stInitialCtx$[ebp+176]
  000c8	8b 95 08 fb ff
	ff		 mov	 edx, DWORD PTR _stInitialCtx$[ebp+164]
  000ce	89 85 dc fd ff
	ff		 mov	 DWORD PTR _stFinalCtx$[ebp+172], eax
  000d4	8b 85 04 fb ff
	ff		 mov	 eax, DWORD PTR _stInitialCtx$[ebp+160]
  000da	89 8d e0 fd ff
	ff		 mov	 DWORD PTR _stFinalCtx$[ebp+176], ecx
  000e0	8b 8d 0c fb ff
	ff		 mov	 ecx, DWORD PTR _stInitialCtx$[ebp+168]
  000e6	89 95 d4 fd ff
	ff		 mov	 DWORD PTR _stFinalCtx$[ebp+164], edx
  000ec	8b 95 00 fb ff
	ff		 mov	 edx, DWORD PTR _stInitialCtx$[ebp+156]
  000f2	89 85 d0 fd ff
	ff		 mov	 DWORD PTR _stFinalCtx$[ebp+160], eax
  000f8	8b 85 f8 fa ff
	ff		 mov	 eax, DWORD PTR _stInitialCtx$[ebp+148]
  000fe	89 8d d8 fd ff
	ff		 mov	 DWORD PTR _stFinalCtx$[ebp+168], ecx
  00104	8b 8d f0 fa ff
	ff		 mov	 ecx, DWORD PTR _stInitialCtx$[ebp+140]
  0010a	89 95 cc fd ff
	ff		 mov	 DWORD PTR _stFinalCtx$[ebp+156], edx
  00110	8b 95 f4 fa ff
	ff		 mov	 edx, DWORD PTR _stInitialCtx$[ebp+144]
  00116	89 85 c4 fd ff
	ff		 mov	 DWORD PTR _stFinalCtx$[ebp+148], eax
  0011c	8b 85 2c fb ff
	ff		 mov	 eax, DWORD PTR _stInitialCtx$[ebp+200]
  00122	89 8d bc fd ff
	ff		 mov	 DWORD PTR _stFinalCtx$[ebp+140], ecx
  00128	8b 8d fc fa ff
	ff		 mov	 ecx, DWORD PTR _stInitialCtx$[ebp+152]
  0012e	89 95 c0 fd ff
	ff		 mov	 DWORD PTR _stFinalCtx$[ebp+144], edx
  00134	8b 95 20 fb ff
	ff		 mov	 edx, DWORD PTR _stInitialCtx$[ebp+188]
  0013a	89 85 f8 fd ff
	ff		 mov	 DWORD PTR _stFinalCtx$[ebp+200], eax
  00140	89 8d c8 fd ff
	ff		 mov	 DWORD PTR _stFinalCtx$[ebp+152], ecx
  00146	8b 8d 18 fb ff
	ff		 mov	 ecx, DWORD PTR _stInitialCtx$[ebp+180]
  0014c	89 95 ec fd ff
	ff		 mov	 DWORD PTR _stFinalCtx$[ebp+188], edx

; 336  : 
; 337  : 		UINT_PTR dwRetAddr = (UINT_PTR)_ReturnAddress() ;

  00152	8b 55 04	 mov	 edx, DWORD PTR __$ReturnAddr$[ebp]

; 338  : 		bRetVal = CalculateBeginningOfCallInstruction ( dwRetAddr );

  00155	8d 85 60 fa ff
	ff		 lea	 eax, DWORD PTR _dwRetAddr$122585[ebp]
  0015b	50		 push	 eax
  0015c	89 8d e4 fd ff
	ff		 mov	 DWORD PTR _stFinalCtx$[ebp+180], ecx
  00162	89 95 60 fa ff
	ff		 mov	 DWORD PTR _dwRetAddr$122585[ebp], edx
  00168	e8 00 00 00 00	 call	 ?CalculateBeginningOfCallInstruction@@YAHAAI@Z ; CalculateBeginningOfCallInstruction
  0016d	83 c4 04	 add	 esp, 4

; 339  : 		if ( TRUE == bRetVal )

  00170	83 f8 01	 cmp	 eax, 1
  00173	75 2c		 jne	 SHORT $L122587

; 340  : 		{
; 341  : 			stFinalCtx.Eip = (DWORD)dwRetAddr ;

  00175	8b 8d 60 fa ff
	ff		 mov	 ecx, DWORD PTR _dwRetAddr$122585[ebp]

; 342  : 
; 343  : 			sDumpInfo.ContextRecord = &stFinalCtx;
; 344  : 			CTMiniDump::TopLevelExceptionFilter( &sDumpInfo );

  0017b	8d 85 58 fa ff
	ff		 lea	 eax, DWORD PTR _sDumpInfo$[ebp]
  00181	8d 95 30 fd ff
	ff		 lea	 edx, DWORD PTR _stFinalCtx$[ebp]
  00187	50		 push	 eax
  00188	89 8d e8 fd ff
	ff		 mov	 DWORD PTR _stFinalCtx$[ebp+184], ecx
  0018e	89 95 5c fa ff
	ff		 mov	 DWORD PTR _sDumpInfo$[ebp+4], edx
  00194	e8 00 00 00 00	 call	 ?TopLevelExceptionFilter@CTMiniDump@@SGJPAU_EXCEPTION_POINTERS@@@Z ; CTMiniDump::TopLevelExceptionFilter

; 345  : 			eRet = eDUMP_SUCCEEDED;

  00199	89 b5 60 fa ff
	ff		 mov	 DWORD PTR _eRet$[ebp], esi

; 346  : 		}
; 347  : 		else

  0019f	eb 0a		 jmp	 SHORT $L122589
$L122587:

; 348  : 		{
; 349  : 			eRet = eGETTHREADCONTEXT_FAILED;

  001a1	c7 85 60 fa ff
	ff 06 00 00 00	 mov	 DWORD PTR _eRet$[ebp], 6
$L122589:

; 350  : 		}
; 351  : 	}
; 352  : 
; 353  : 	SNAPEPILOG ( eRet ) ;

  001ab	5a		 pop	 edx
  001ac	59		 pop	 ecx
  001ad	5b		 pop	 ebx
  001ae	5f		 pop	 edi
  001af	5e		 pop	 esi
  001b0	8b 85 60 fa ff
	ff		 mov	 eax, DWORD PTR _eRet$[ebp]
  001b6	8b e5		 mov	 esp, ebp
  001b8	5d		 pop	 ebp
  001b9	c3		 ret	 0
?OnMemoryDump@@YA?AW4BSUMDRET@@XZ ENDP			; OnMemoryDump
_TEXT	ENDS
PUBLIC	??0CTMiniDump@@QAE@XZ				; CTMiniDump::CTMiniDump
EXTRN	__imp__SetUnhandledExceptionFilter@4:NEAR
; Function compile flags: /Ogty
;	COMDAT ??0CTMiniDump@@QAE@XZ
_TEXT	SEGMENT
??0CTMiniDump@@QAE@XZ PROC NEAR				; CTMiniDump::CTMiniDump, COMDAT
; _this$ = ecx

; 40   : {

  00000	56		 push	 esi

; 41   : 	// 예외가 발생하면 인터랩터
; 42   : 	::SetUnhandledExceptionFilter(TopLevelExceptionFilter);

  00001	68 00 00 00 00	 push	 OFFSET FLAT:?TopLevelExceptionFilter@CTMiniDump@@SGJPAU_EXCEPTION_POINTERS@@@Z ; CTMiniDump::TopLevelExceptionFilter
  00006	8b f1		 mov	 esi, ecx
  00008	ff 15 00 00 00
	00		 call	 DWORD PTR __imp__SetUnhandledExceptionFilter@4

; 43   : }

  0000e	8b c6		 mov	 eax, esi
  00010	5e		 pop	 esi
  00011	c3		 ret	 0
??0CTMiniDump@@QAE@XZ ENDP				; CTMiniDump::CTMiniDump
_TEXT	ENDS
PUBLIC	?SnapMemoryDump@CTMiniDump@@SAXXZ		; CTMiniDump::SnapMemoryDump
EXTRN	__imp__Sleep@4:NEAR
; Function compile flags: /Ogty
;	COMDAT ?SnapMemoryDump@CTMiniDump@@SAXXZ
_TEXT	SEGMENT
?SnapMemoryDump@CTMiniDump@@SAXXZ PROC NEAR		; CTMiniDump::SnapMemoryDump, COMDAT

; 190  : {

  00000	56		 push	 esi

; 191  : 	/*
; 192  : 	// http://windowssdk.msdn.microsoft.com/en-us/library/ms680519.aspx
; 193  : 	typedef enum _MINIDUMP_TYPE {
; 194  : 	MiniDumpNormal                         = 0x0000,	// 모든 쓰레드의 현재의 스택값만 저장
; 195  : 	MiniDumpWithDataSegs                   = 0x0001,	// 로드된 모튤의 데이타영역 저장
; 196  : 	MiniDumpWithFullMemory                 = 0x0002,	// 프로세서의 메모리 전체를 덤프
; 197  : 	MiniDumpWithHandleData                 = 0x0004,
; 198  : 	MiniDumpFilterMemory                   = 0x0008,
; 199  : 	MiniDumpScanMemory                     = 0x0010,
; 200  : 	MiniDumpWithUnloadedModules            = 0x0020,
; 201  : 	MiniDumpWithIndirectlyReferencedMemory = 0x0040,
; 202  : 	MiniDumpFilterModulePaths              = 0x0080,
; 203  : 	MiniDumpWithProcessThreadData          = 0x0100,
; 204  : 	MiniDumpWithPrivateReadWriteMemory     = 0x0200,
; 205  : 	} MINIDUMP_TYPE;
; 206  : 	*/
; 207  : 	MINIDUMP_TYPE ePreDumpType = g_eDumpType;

  00001	8b 35 00 00 00
	00		 mov	 esi, DWORD PTR ?g_eDumpType@@3W4_MINIDUMP_TYPE@@A ; g_eDumpType
  00007	57		 push	 edi

; 208  : 	g_eDumpType = MiniDumpWithFullMemory;
; 209  : 	g_bSaveMessage = FALSE;
; 210  : 	Sleep(1000);

  00008	8b 3d 00 00 00
	00		 mov	 edi, DWORD PTR __imp__Sleep@4
  0000e	68 e8 03 00 00	 push	 1000			; 000003e8H
  00013	c7 05 00 00 00
	00 02 00 00 00	 mov	 DWORD PTR ?g_eDumpType@@3W4_MINIDUMP_TYPE@@A, 2 ; g_eDumpType
  0001d	c7 05 00 00 00
	00 00 00 00 00	 mov	 DWORD PTR ?g_bSaveMessage@@3HA, 0 ; g_bSaveMessage
  00027	ff d7		 call	 edi

; 211  : 	OnMemoryDump();

  00029	e8 00 00 00 00	 call	 ?OnMemoryDump@@YA?AW4BSUMDRET@@XZ ; OnMemoryDump

; 212  : 	Sleep(1000);

  0002e	68 e8 03 00 00	 push	 1000			; 000003e8H
  00033	ff d7		 call	 edi
  00035	5f		 pop	 edi

; 213  : 	g_bSaveMessage = TRUE;
; 214  : 	g_eDumpType = ePreDumpType;

  00036	89 35 00 00 00
	00		 mov	 DWORD PTR ?g_eDumpType@@3W4_MINIDUMP_TYPE@@A, esi ; g_eDumpType
  0003c	c7 05 00 00 00
	00 01 00 00 00	 mov	 DWORD PTR ?g_bSaveMessage@@3HA, 1 ; g_bSaveMessage
  00046	5e		 pop	 esi

; 215  : }

  00047	c3		 ret	 0
?SnapMemoryDump@CTMiniDump@@SAXXZ ENDP			; CTMiniDump::SnapMemoryDump
_TEXT	ENDS
PUBLIC	?g_strUserData@@3V?$basic_string@DU?$char_traits@D@std@@V?$allocator@D@2@@std@@A ; g_strUserData
PUBLIC	??_C@_06BKKDJGNE@tttttt?$AA@			; `string'
EXTRN	_atexit:NEAR
CRT$XCU	SEGMENT
_$S7	DD	FLAT:_$E5
CRT$XCU	ENDS
_DATA	SEGMENT
?g_strUserData@@3V?$basic_string@DU?$char_traits@D@std@@V?$allocator@D@2@@std@@A DB 04H DUP (?)
	DB	00H					; g_strUserData
	DB	15 DUP(00H)
	DD	00H
	DD	0fH
_DATA	ENDS
;	COMDAT ??_C@_06BKKDJGNE@tttttt?$AA@
; File c:\program files (x86)\microsoft visual studio .net 2003\vc7\include\iosfwd
CONST	SEGMENT
??_C@_06BKKDJGNE@tttttt?$AA@ DB 'tttttt', 00H		; `string'
; Function compile flags: /Ogty
; File c:\users\pierr\desktop\4story - oldschool\sources\tserver\tworldsvr\tminidump.cpp
CONST	ENDS
;	COMDAT _$E5
text$yc	SEGMENT
_$E5	PROC NEAR					; COMDAT

; 33   : std::string		g_strUserData = "tttttt";

  00000	6a 06		 push	 6
  00002	68 00 00 00 00	 push	 OFFSET FLAT:??_C@_06BKKDJGNE@tttttt?$AA@
  00007	b9 00 00 00 00	 mov	 ecx, OFFSET FLAT:?g_strUserData@@3V?$basic_string@DU?$char_traits@D@std@@V?$allocator@D@2@@std@@A
  0000c	e8 00 00 00 00	 call	 ?assign@?$basic_string@DU?$char_traits@D@std@@V?$allocator@D@2@@std@@QAEAAV12@PBDI@Z ; std::basic_string<char,std::char_traits<char>,std::allocator<char> >::assign
  00011	68 00 00 00 00	 push	 OFFSET FLAT:_$E6
  00016	e8 00 00 00 00	 call	 _atexit
  0001b	59		 pop	 ecx
  0001c	c3		 ret	 0
_$E5	ENDP
text$yc	ENDS
CRT$XCU	SEGMENT
_$S10	DD	FLAT:_$E8
; Function compile flags: /Ogty
CRT$XCU	ENDS
;	COMDAT _$E8
text$yc	SEGMENT
_$E8	PROC NEAR					; COMDAT

; 36   : CTMiniDump		theTMiniDump;

  00000	68 00 00 00 00	 push	 OFFSET FLAT:?TopLevelExceptionFilter@CTMiniDump@@SGJPAU_EXCEPTION_POINTERS@@@Z ; CTMiniDump::TopLevelExceptionFilter
  00005	ff 15 00 00 00
	00		 call	 DWORD PTR __imp__SetUnhandledExceptionFilter@4
  0000b	68 00 00 00 00	 push	 OFFSET FLAT:_$E9
  00010	e8 00 00 00 00	 call	 _atexit
  00015	59		 pop	 ecx
  00016	c3		 ret	 0
_$E8	ENDP
text$yc	ENDS
CRT$XCU	SEGMENT
_$S13	DD	FLAT:_$E11
; Function compile flags: /Ogty
CRT$XCU	ENDS
;	COMDAT _$E11
text$yc	SEGMENT
_$E11	PROC NEAR					; COMDAT

; 37   : CString			g_strErrorMsg;

  00000	b9 00 00 00 00	 mov	 ecx, OFFSET FLAT:?g_strErrorMsg@@3V?$CStringT@DV?$StrTraitATL@DV?$ChTraitsCRT@D@ATL@@@ATL@@@ATL@@A ; g_strErrorMsg
  00005	e8 00 00 00 00	 call	 ??0?$CStringT@DV?$StrTraitATL@DV?$ChTraitsCRT@D@ATL@@@ATL@@@ATL@@QAE@XZ ; ATL::CStringT<char,ATL::StrTraitATL<char,ATL::ChTraitsCRT<char> > >::CStringT<char,ATL::StrTraitATL<char,ATL::ChTraitsCRT<char> > >
  0000a	68 00 00 00 00	 push	 OFFSET FLAT:_$E12
  0000f	e8 00 00 00 00	 call	 _atexit
  00014	59		 pop	 ecx
  00015	c3		 ret	 0
_$E11	ENDP
; Function compile flags: /Ogty
text$yc	ENDS
;	COMDAT _$E9
text$yd	SEGMENT
_$E9	PROC NEAR					; COMDAT
  00000	c3		 ret	 0
_$E9	ENDP
; Function compile flags: /Ogty
text$yd	ENDS
;	COMDAT _$E12
text$yd	SEGMENT
_$E12	PROC NEAR					; COMDAT
  00000	b9 00 00 00 00	 mov	 ecx, OFFSET FLAT:?g_strErrorMsg@@3V?$CStringT@DV?$StrTraitATL@DV?$ChTraitsCRT@D@ATL@@@ATL@@@ATL@@A ; g_strErrorMsg
  00005	e9 00 00 00 00	 jmp	 ??1?$CStringT@DV?$StrTraitATL@DV?$ChTraitsCRT@D@ATL@@@ATL@@@ATL@@QAE@XZ ; ATL::CStringT<char,ATL::StrTraitATL<char,ATL::ChTraitsCRT<char> > >::~CStringT<char,ATL::StrTraitATL<char,ATL::ChTraitsCRT<char> > >
_$E12	ENDP
; Function compile flags: /Ogty
text$yd	ENDS
;	COMDAT _$E6
text$yd	SEGMENT
_$E6	PROC NEAR					; COMDAT
  00000	83 3d 18 00 00
	00 10		 cmp	 DWORD PTR ?g_strUserData@@3V?$basic_string@DU?$char_traits@D@std@@V?$allocator@D@2@@std@@A+24, 16 ; 00000010H
  00007	72 0e		 jb	 SHORT $L126477
  00009	a1 04 00 00 00	 mov	 eax, DWORD PTR ?g_strUserData@@3V?$basic_string@DU?$char_traits@D@std@@V?$allocator@D@2@@std@@A+4
  0000e	50		 push	 eax
  0000f	e8 00 00 00 00	 call	 ??3@YAXPAX@Z		; operator delete
  00014	83 c4 04	 add	 esp, 4
$L126477:
  00017	33 c0		 xor	 eax, eax
  00019	c7 05 18 00 00
	00 0f 00 00 00	 mov	 DWORD PTR ?g_strUserData@@3V?$basic_string@DU?$char_traits@D@std@@V?$allocator@D@2@@std@@A+24, 15 ; 0000000fH
  00023	a3 14 00 00 00	 mov	 DWORD PTR ?g_strUserData@@3V?$basic_string@DU?$char_traits@D@std@@V?$allocator@D@2@@std@@A+20, eax
  00028	a2 04 00 00 00	 mov	 BYTE PTR ?g_strUserData@@3V?$basic_string@DU?$char_traits@D@std@@V?$allocator@D@2@@std@@A+4, al
  0002d	c3		 ret	 0
_$E6	ENDP
text$yd	ENDS
PUBLIC	?theTMiniDump@@3VCTMiniDump@@A			; theTMiniDump
PUBLIC	?g_strErrorMsg@@3V?$CStringT@DV?$StrTraitATL@DV?$ChTraitsCRT@D@ATL@@@ATL@@@ATL@@A ; g_strErrorMsg
_BSS	SEGMENT
?theTMiniDump@@3VCTMiniDump@@A DB 01H DUP (?)		; theTMiniDump
	ALIGN	4

?g_strErrorMsg@@3V?$CStringT@DV?$StrTraitATL@DV?$ChTraitsCRT@D@ATL@@@ATL@@@ATL@@A DD 01H DUP (?) ; g_strErrorMsg
_BSS	ENDS
END
