; Listing generated by Microsoft (R) Optimizing Compiler Version 13.10.3077 

	TITLE	.\CSHandler.cpp
	.386P
include listing.inc
if @Version gt 510
.model FLAT
else
_TEXT	SEGMENT PARA USE32 PUBLIC 'CODE'
_TEXT	ENDS
_DATA	SEGMENT DWORD USE32 PUBLIC 'DATA'
_DATA	ENDS
CONST	SEGMENT DWORD USE32 PUBLIC 'CONST'
CONST	ENDS
_BSS	SEGMENT DWORD USE32 PUBLIC 'BSS'
_BSS	ENDS
$$SYMBOLS	SEGMENT BYTE USE32 'DEBSYM'
$$SYMBOLS	ENDS
$$TYPES	SEGMENT BYTE USE32 'DEBTYP'
$$TYPES	ENDS
_TLS	SEGMENT DWORD USE32 PUBLIC 'TLS'
_TLS	ENDS
;	COMDAT ??_C@_1EO@OEOIKMPM@?$AA?$HL?$AA3?$AA9?$AA1?$AAA?$AA2?$AA5?$AA8?$AA3?$AA?9?$AA6?$AAA?$AA4?$AA2?$AA?9?$AA4?$AA9?$AA1?$AA5?$AA?9@
CONST	SEGMENT DWORD USE32 PUBLIC 'CONST'
CONST	ENDS
;	COMDAT ??_C@_0CH@GGFNHEJM@?$HL391A2583?96A42?94915?9BE88?90CCE50B@
CONST	SEGMENT DWORD USE32 PUBLIC 'CONST'
CONST	ENDS
;	COMDAT ??_C@_0N@OGFEPDED@LocalService?$AA@
CONST	SEGMENT DWORD USE32 PUBLIC 'CONST'
CONST	ENDS
;	COMDAT ??_C@_02CCDHMLDD@?9?1?$AA@
CONST	SEGMENT DWORD USE32 PUBLIC 'CONST'
CONST	ENDS
;	COMDAT ??_C@_0M@MIGBKCMN@UnregServer?$AA@
CONST	SEGMENT DWORD USE32 PUBLIC 'CONST'
CONST	ENDS
;	COMDAT ??_C@_09LJBJJPCG@RegServer?$AA@
CONST	SEGMENT DWORD USE32 PUBLIC 'CONST'
CONST	ENDS
;	COMDAT ??_C@_07LMLHFMEG@Service?$AA@
CONST	SEGMENT DWORD USE32 PUBLIC 'CONST'
CONST	ENDS
;	COMDAT ??_C@_07PNHNHBAB@Install?$AA@
CONST	SEGMENT DWORD USE32 PUBLIC 'CONST'
CONST	ENDS
;	COMDAT ??_C@_09LAEJNBCE@UnInstall?$AA@
CONST	SEGMENT DWORD USE32 PUBLIC 'CONST'
CONST	ENDS
;	COMDAT ??_C@_04FABLJDN@Name?$AA@
CONST	SEGMENT DWORD USE32 PUBLIC 'CONST'
CONST	ENDS
;	COMDAT ??_C@_01CLKCMJKC@?5?$AA@
CONST	SEGMENT DWORD USE32 PUBLIC 'CONST'
CONST	ENDS
;	COMDAT ??_C@_0M@DBFDLFJJ@?$CFs?5?9Name?5?$CFs?$AA@
CONST	SEGMENT DWORD USE32 PUBLIC 'CONST'
CONST	ENDS
;	COMDAT ??_C@_0BP@GECJKCAK@Could?5not?5open?5Service?5Manager?$AA@
CONST	SEGMENT DWORD USE32 PUBLIC 'CONST'
CONST	ENDS
;	COMDAT ??_C@_06HCEGMCNE@RPCSS?$AA?$AA@
CONST	SEGMENT DWORD USE32 PUBLIC 'CONST'
CONST	ENDS
;	COMDAT ??_C@_0BI@HDJFCBEP@Could?5not?5start?5service?$AA@
CONST	SEGMENT DWORD USE32 PUBLIC 'CONST'
CONST	ENDS
;	COMDAT ??_C@_0P@BLMMOEHB@Accept?5Tick?5?$CFd?$AA@
CONST	SEGMENT DWORD USE32 PUBLIC 'CONST'
CONST	ENDS
;	COMDAT ??_C@_0BD@MMPOFLMH@Version?5Invalid?5?$CFd?$AA@
CONST	SEGMENT DWORD USE32 PUBLIC 'CONST'
CONST	ENDS
;	COMDAT ??_C@_0BB@KDGCBELI@reconnect?5?$CFd?0?5?$CFd?$AA@
CONST	SEGMENT DWORD USE32 PUBLIC 'CONST'
CONST	ENDS
;	COMDAT ??_C@_0BH@JMOCNDDL@Could?5not?5open?5service?$AA@
CONST	SEGMENT DWORD USE32 PUBLIC 'CONST'
CONST	ENDS
;	COMDAT ??_C@_0BH@GKJBBOLK@Could?5not?5stop?5service?$AA@
CONST	SEGMENT DWORD USE32 PUBLIC 'CONST'
CONST	ENDS
;	COMDAT ??_C@_0BJ@NMBIIKKI@Could?5not?5delete?5service?$AA@
CONST	SEGMENT DWORD USE32 PUBLIC 'CONST'
CONST	ENDS
;	COMDAT ??_C@_0BE@JONHPENG@map?1set?$DMT?$DO?5too?5long?$AA@
CONST	SEGMENT DWORD USE32 PUBLIC 'CONST'
CONST	ENDS
text$yc	SEGMENT PARA USE32 PUBLIC 'CODE'
text$yc	ENDS
CRT$XCA	SEGMENT DWORD USE32 PUBLIC 'DATA'
CRT$XCA	ENDS
CRT$XCU	SEGMENT DWORD USE32 PUBLIC 'DATA'
CRT$XCU	ENDS
CRT$XCL	SEGMENT DWORD USE32 PUBLIC 'DATA'
CRT$XCL	ENDS
CRT$XCC	SEGMENT DWORD USE32 PUBLIC 'DATA'
CRT$XCC	ENDS
CRT$XCZ	SEGMENT DWORD USE32 PUBLIC 'DATA'
CRT$XCZ	ENDS
text$yd	SEGMENT PARA USE32 PUBLIC 'CODE'
text$yd	ENDS
ATL$__m	SEGMENT DWORD USE32 PUBLIC ''
ATL$__m	ENDS
ATL$__z	SEGMENT DWORD USE32 PUBLIC ''
ATL$__z	ENDS
ATL$__a	SEGMENT DWORD USE32 PUBLIC ''
ATL$__a	ENDS
xdata$x	SEGMENT DWORD USE32 PUBLIC 'CONST'
xdata$x	ENDS
;	COMDAT ?GetAppId@CTRelaySvrModule@@SAPBGXZ
_TEXT	SEGMENT PARA USE32 PUBLIC 'CODE'
_TEXT	ENDS
;	COMDAT ?GetAppIdT@CTRelaySvrModule@@SAPADXZ
_TEXT	SEGMENT PARA USE32 PUBLIC 'CODE'
_TEXT	ENDS
;	COMDAT ?UpdateRegistryAppId@CTRelaySvrModule@@SGJH@Z
_TEXT	SEGMENT PARA USE32 PUBLIC 'CODE'
_TEXT	ENDS
;	COMDAT ?RegisterAppId@CTRelaySvrModule@@QAEJ_N@Z
_TEXT	SEGMENT PARA USE32 PUBLIC 'CODE'
_TEXT	ENDS
;	COMDAT ?Install@CTRelaySvrModule@@QAEHXZ
_TEXT	SEGMENT PARA USE32 PUBLIC 'CODE'
_TEXT	ENDS
;	COMDAT ?OnCT_SERVICEMONITOR_ACK@CTRelaySvrModule@@IAEKPAUtagPACKETBUF@@@Z
_TEXT	SEGMENT PARA USE32 PUBLIC 'CODE'
_TEXT	ENDS
;	COMDAT ?OnCT_ANNOUNCEMENT_ACK@CTRelaySvrModule@@IAEKPAUtagPACKETBUF@@@Z
_TEXT	SEGMENT PARA USE32 PUBLIC 'CODE'
_TEXT	ENDS
;	COMDAT ?OnCT_CHATBAN_REQ@CTRelaySvrModule@@IAEKPAUtagPACKETBUF@@@Z
_TEXT	SEGMENT PARA USE32 PUBLIC 'CODE'
_TEXT	ENDS
;	COMDAT ?OnCT_CHARMSG_ACK@CTRelaySvrModule@@IAEKPAUtagPACKETBUF@@@Z
_TEXT	SEGMENT PARA USE32 PUBLIC 'CODE'
_TEXT	ENDS
;	COMDAT ?OnCT_SERVICEDATACLEAR_ACK@CTRelaySvrModule@@IAEKPAUtagPACKETBUF@@@Z
_TEXT	SEGMENT PARA USE32 PUBLIC 'CODE'
_TEXT	ENDS
;	COMDAT ?OnCT_CTRLSVR_REQ@CTRelaySvrModule@@IAEKPAUtagPACKETBUF@@@Z
_TEXT	SEGMENT PARA USE32 PUBLIC 'CODE'
_TEXT	ENDS
;	COMDAT ?OnCT_EVENTMSG_REQ@CTRelaySvrModule@@IAEKPAUtagPACKETBUF@@@Z
_TEXT	SEGMENT PARA USE32 PUBLIC 'CODE'
_TEXT	ENDS
;	COMDAT ?OnCS_RELAYCHARDATA_REQ@CTRelaySvrModule@@IAEKPAUtagPACKETBUF@@@Z
_TEXT	SEGMENT PARA USE32 PUBLIC 'CODE'
_TEXT	ENDS
;	COMDAT ?OnCS_CHAT_REQ@CTRelaySvrModule@@IAEKPAUtagPACKETBUF@@@Z
_TEXT	SEGMENT PARA USE32 PUBLIC 'CODE'
_TEXT	ENDS
;	COMDAT ?OnCS_CORPSENEMYLIST_REQ@CTRelaySvrModule@@IAEKPAUtagPACKETBUF@@@Z
_TEXT	SEGMENT PARA USE32 PUBLIC 'CODE'
_TEXT	ENDS
;	COMDAT ?OnCS_MOVECORPSENEMY_REQ@CTRelaySvrModule@@IAEKPAUtagPACKETBUF@@@Z
_TEXT	SEGMENT PARA USE32 PUBLIC 'CODE'
_TEXT	ENDS
;	COMDAT ?OnCS_MOVECORPSUNIT_REQ@CTRelaySvrModule@@IAEKPAUtagPACKETBUF@@@Z
_TEXT	SEGMENT PARA USE32 PUBLIC 'CODE'
_TEXT	ENDS
;	COMDAT ?OnCS_ADDCORPSENEMY_REQ@CTRelaySvrModule@@IAEKPAUtagPACKETBUF@@@Z
_TEXT	SEGMENT PARA USE32 PUBLIC 'CODE'
_TEXT	ENDS
;	COMDAT ?OnCS_DELCORPSENEMY_REQ@CTRelaySvrModule@@IAEKPAUtagPACKETBUF@@@Z
_TEXT	SEGMENT PARA USE32 PUBLIC 'CODE'
_TEXT	ENDS
;	COMDAT ?OnCS_CORPSHP_REQ@CTRelaySvrModule@@IAEKPAUtagPACKETBUF@@@Z
_TEXT	SEGMENT PARA USE32 PUBLIC 'CODE'
_TEXT	ENDS
;	COMDAT ?OnCS_CORPSCMD_REQ@CTRelaySvrModule@@IAEKPAUtagPACKETBUF@@@Z
_TEXT	SEGMENT PARA USE32 PUBLIC 'CODE'
_TEXT	ENDS
;	COMDAT ?OnCS_RELAYPROTECTEDLIST_REQ@CTRelaySvrModule@@IAEKPAUtagPACKETBUF@@@Z
_TEXT	SEGMENT PARA USE32 PUBLIC 'CODE'
_TEXT	ENDS
;	COMDAT ?OnCS_RELAYPROTECTEDADD_REQ@CTRelaySvrModule@@IAEKPAUtagPACKETBUF@@@Z
_TEXT	SEGMENT PARA USE32 PUBLIC 'CODE'
_TEXT	ENDS
;	COMDAT ?OnCS_RELAYPROTECTEDDEL_REQ@CTRelaySvrModule@@IAEKPAUtagPACKETBUF@@@Z
_TEXT	SEGMENT PARA USE32 PUBLIC 'CODE'
_TEXT	ENDS
;	COMDAT ?OnCS_CHECKRELAY_REQ@CTRelaySvrModule@@IAEKPAUtagPACKETBUF@@@Z
_TEXT	SEGMENT PARA USE32 PUBLIC 'CODE'
_TEXT	ENDS
;	COMDAT ?OnCS_RELAYPROTECTEDOPTION_REQ@CTRelaySvrModule@@IAEKPAUtagPACKETBUF@@@Z
_TEXT	SEGMENT PARA USE32 PUBLIC 'CODE'
_TEXT	ENDS
;	COMDAT ?OnDM_UDPLOG_REQ@CTRelaySvrModule@@IAEKPAUtagPACKETBUF@@@Z
_TEXT	SEGMENT PARA USE32 PUBLIC 'CODE'
_TEXT	ENDS
;	COMDAT ??4?$CStringT@DV?$StrTraitATL@DV?$ChTraitsCRT@D@ATL@@@ATL@@@ATL@@QAEAAV01@ABV01@@Z
_TEXT	SEGMENT PARA USE32 PUBLIC 'CODE'
_TEXT	ENDS
;	COMDAT ?Tokenize@?$CStringT@DV?$StrTraitATL@DV?$ChTraitsCRT@D@ATL@@@ATL@@@ATL@@QBE?AV12@PBDAAH@Z
_TEXT	SEGMENT PARA USE32 PUBLIC 'CODE'
_TEXT	ENDS
;	COMDAT ?Find@?$CStringT@DV?$StrTraitATL@DV?$ChTraitsCRT@D@ATL@@@ATL@@@ATL@@QBEHPBDH@Z
_TEXT	SEGMENT PARA USE32 PUBLIC 'CODE'
_TEXT	ENDS
;	COMDAT ?Left@?$CStringT@DV?$StrTraitATL@DV?$ChTraitsCRT@D@ATL@@@ATL@@@ATL@@QBE?AV12@H@Z
_TEXT	SEGMENT PARA USE32 PUBLIC 'CODE'
_TEXT	ENDS
;	COMDAT ?Format@?$CStringT@DV?$StrTraitATL@DV?$ChTraitsCRT@D@ATL@@@ATL@@@ATL@@QAAXPBDZZ
_TEXT	SEGMENT PARA USE32 PUBLIC 'CODE'
_TEXT	ENDS
;	COMDAT ??8ATL@@YA_NABV?$CStringT@DV?$StrTraitATL@DV?$ChTraitsCRT@D@ATL@@@ATL@@@0@0@Z
_TEXT	SEGMENT PARA USE32 PUBLIC 'CODE'
_TEXT	ENDS
;	COMDAT ?end@?$_Tree@V?$_Tmap_traits@V?$CStringT@DV?$StrTraitATL@DV?$ChTraitsCRT@D@ATL@@@ATL@@@ATL@@EU?$less@V?$CStringT@DV?$StrTraitATL@DV?$ChTraitsCRT@D@ATL@@@ATL@@@ATL@@@std@@V?$allocator@U?$pair@$$CBV?$CStringT@DV?$StrTraitATL@DV?$ChTraitsCRT@D@ATL@@@ATL@@@ATL@@E@std@@@4@$0A@@std@@@std@@QAE?AViterator@12@XZ
_TEXT	SEGMENT PARA USE32 PUBLIC 'CODE'
_TEXT	ENDS
;	COMDAT ?find@?$_Tree@V?$_Tmap_traits@V?$CStringT@DV?$StrTraitATL@DV?$ChTraitsCRT@D@ATL@@@ATL@@@ATL@@EU?$less@V?$CStringT@DV?$StrTraitATL@DV?$ChTraitsCRT@D@ATL@@@ATL@@@ATL@@@std@@V?$allocator@U?$pair@$$CBV?$CStringT@DV?$StrTraitATL@DV?$ChTraitsCRT@D@ATL@@@ATL@@@ATL@@E@std@@@4@$0A@@std@@@std@@QAE?AViterator@12@ABV?$CStringT@DV?$StrTraitATL@DV?$ChTraitsCRT@D@ATL@@@ATL@@@ATL@@@Z
_TEXT	SEGMENT PARA USE32 PUBLIC 'CODE'
_TEXT	ENDS
;	COMDAT ?begin@?$_Tree@V?$_Tmap_traits@KPAVCTPlayer@@U?$less@K@std@@V?$allocator@U?$pair@$$CBKPAVCTPlayer@@@std@@@3@$0A@@std@@@std@@QAE?AViterator@12@XZ
_TEXT	SEGMENT PARA USE32 PUBLIC 'CODE'
_TEXT	ENDS
;	COMDAT ?end@?$_Tree@V?$_Tmap_traits@KPAVCTPlayer@@U?$less@K@std@@V?$allocator@U?$pair@$$CBKPAVCTPlayer@@@std@@@3@$0A@@std@@@std@@QAE?AViterator@12@XZ
_TEXT	SEGMENT PARA USE32 PUBLIC 'CODE'
_TEXT	ENDS
;	COMDAT ?size@?$_Tree@V?$_Tmap_traits@KPAVCTPlayer@@U?$less@K@std@@V?$allocator@U?$pair@$$CBKPAVCTPlayer@@@std@@@3@$0A@@std@@@std@@QBEIXZ
_TEXT	SEGMENT PARA USE32 PUBLIC 'CODE'
_TEXT	ENDS
;	COMDAT ?insert@?$_Tree@V?$_Tmap_traits@KPAVCTPlayer@@U?$less@K@std@@V?$allocator@U?$pair@$$CBKPAVCTPlayer@@@std@@@3@$0A@@std@@@std@@QAE?AU?$pair@Viterator@?$_Tree@V?$_Tmap_traits@KPAVCTPlayer@@U?$less@K@std@@V?$allocator@U?$pair@$$CBKPAVCTPlayer@@@std@@@3@$0A@@std@@@std@@_N@2@ABU?$pair@$$CBKPAVCTPlayer@@@2@@Z
_TEXT	SEGMENT PARA USE32 PUBLIC 'CODE'
_TEXT	ENDS
;	COMDAT ?find@?$_Tree@V?$_Tmap_traits@KPAVCTPlayer@@U?$less@K@std@@V?$allocator@U?$pair@$$CBKPAVCTPlayer@@@std@@@3@$0A@@std@@@std@@QAE?AViterator@12@ABK@Z
_TEXT	SEGMENT PARA USE32 PUBLIC 'CODE'
_TEXT	ENDS
;	COMDAT ?begin@?$_Tree@V?$_Tmap_traits@GPAVCTParty@@U?$less@G@std@@V?$allocator@U?$pair@$$CBGPAVCTParty@@@std@@@3@$0A@@std@@@std@@QAE?AViterator@12@XZ
_TEXT	SEGMENT PARA USE32 PUBLIC 'CODE'
_TEXT	ENDS
;	COMDAT ?end@?$_Tree@V?$_Tmap_traits@GPAVCTParty@@U?$less@G@std@@V?$allocator@U?$pair@$$CBGPAVCTParty@@@std@@@3@$0A@@std@@@std@@QAE?AViterator@12@XZ
_TEXT	SEGMENT PARA USE32 PUBLIC 'CODE'
_TEXT	ENDS
;	COMDAT ?UnregisterAppId@?$CAtlServiceModuleT@VCTRelaySvrModule@@$0GE@@ATL@@QAEJXZ
_TEXT	SEGMENT PARA USE32 PUBLIC 'CODE'
_TEXT	ENDS
;	COMDAT ?IsInstalled@?$CAtlServiceModuleT@VCTRelaySvrModule@@$0GE@@ATL@@QAEHXZ
_TEXT	SEGMENT PARA USE32 PUBLIC 'CODE'
_TEXT	ENDS
;	COMDAT ?Uninstall@?$CAtlServiceModuleT@VCTRelaySvrModule@@$0GE@@ATL@@QAEHXZ
_TEXT	SEGMENT PARA USE32 PUBLIC 'CODE'
_TEXT	ENDS
;	COMDAT ?LogEvent@?$CAtlServiceModuleT@VCTRelaySvrModule@@$0GE@@ATL@@QAAXPBDZZ
_TEXT	SEGMENT PARA USE32 PUBLIC 'CODE'
_TEXT	ENDS
;	COMDAT ??1?$CAtlExeModuleT@VCTRelaySvrModule@@@ATL@@UAE@XZ
_TEXT	SEGMENT PARA USE32 PUBLIC 'CODE'
_TEXT	ENDS
;	COMDAT ?Unlock@?$CAtlExeModuleT@VCTRelaySvrModule@@@ATL@@UAEJXZ
_TEXT	SEGMENT PARA USE32 PUBLIC 'CODE'
_TEXT	ENDS
;	COMDAT ?RegisterServer@?$CAtlModuleT@VCTRelaySvrModule@@@ATL@@QAEJHPBU_GUID@@@Z
_TEXT	SEGMENT PARA USE32 PUBLIC 'CODE'
_TEXT	ENDS
;	COMDAT ?UnregisterServer@?$CAtlModuleT@VCTRelaySvrModule@@@ATL@@QAEJHPBU_GUID@@@Z
_TEXT	SEGMENT PARA USE32 PUBLIC 'CODE'
_TEXT	ENDS
;	COMDAT ?AddCommonRGSReplacements@?$CAtlModuleT@VCTRelaySvrModule@@@ATL@@UAEJPAUIRegistrarBase@@@Z
_TEXT	SEGMENT PARA USE32 PUBLIC 'CODE'
_TEXT	ENDS
;	COMDAT ?end@?$_Tree@V?$_Tmap_traits@GV?$map@KPAVCTPlayer@@U?$less@K@std@@V?$allocator@U?$pair@$$CBKPAVCTPlayer@@@std@@@3@@std@@U?$less@G@2@V?$allocator@U?$pair@$$CBGV?$map@KPAVCTPlayer@@U?$less@K@std@@V?$allocator@U?$pair@$$CBKPAVCTPlayer@@@std@@@3@@std@@@std@@@2@$0A@@std@@@std@@QAE?AViterator@12@XZ
_TEXT	SEGMENT PARA USE32 PUBLIC 'CODE'
_TEXT	ENDS
;	COMDAT ?find@?$_Tree@V?$_Tmap_traits@GV?$map@KPAVCTPlayer@@U?$less@K@std@@V?$allocator@U?$pair@$$CBKPAVCTPlayer@@@std@@@3@@std@@U?$less@G@2@V?$allocator@U?$pair@$$CBGV?$map@KPAVCTPlayer@@U?$less@K@std@@V?$allocator@U?$pair@$$CBKPAVCTPlayer@@@std@@@3@@std@@@std@@@2@$0A@@std@@@std@@QAE?AViterator@12@ABG@Z
_TEXT	SEGMENT PARA USE32 PUBLIC 'CODE'
_TEXT	ENDS
;	COMDAT ?size@?$vector@KV?$allocator@K@std@@@std@@QBEIXZ
_TEXT	SEGMENT PARA USE32 PUBLIC 'CODE'
_TEXT	ENDS
;	COMDAT ??A?$vector@KV?$allocator@K@std@@@std@@QAEAAKI@Z
_TEXT	SEGMENT PARA USE32 PUBLIC 'CODE'
_TEXT	ENDS
;	COMDAT ??0iterator@?$_Tree@V?$_Tmap_traits@KPAVCTPlayer@@U?$less@K@std@@V?$allocator@U?$pair@$$CBKPAVCTPlayer@@@std@@@3@$0A@@std@@@std@@QAE@XZ
_TEXT	SEGMENT PARA USE32 PUBLIC 'CODE'
_TEXT	ENDS
;	COMDAT ??Diterator@?$_Tree@V?$_Tmap_traits@KPAVCTPlayer@@U?$less@K@std@@V?$allocator@U?$pair@$$CBKPAVCTPlayer@@@std@@@3@$0A@@std@@@std@@QBEAAU?$pair@$$CBKPAVCTPlayer@@@2@XZ
_TEXT	SEGMENT PARA USE32 PUBLIC 'CODE'
_TEXT	ENDS
;	COMDAT ??Citerator@?$_Tree@V?$_Tmap_traits@KPAVCTPlayer@@U?$less@K@std@@V?$allocator@U?$pair@$$CBKPAVCTPlayer@@@std@@@3@$0A@@std@@@std@@QBEPAU?$pair@$$CBKPAVCTPlayer@@@2@XZ
_TEXT	SEGMENT PARA USE32 PUBLIC 'CODE'
_TEXT	ENDS
;	COMDAT ??Eiterator@?$_Tree@V?$_Tmap_traits@KPAVCTPlayer@@U?$less@K@std@@V?$allocator@U?$pair@$$CBKPAVCTPlayer@@@std@@@3@$0A@@std@@@std@@QAE?AV012@H@Z
_TEXT	SEGMENT PARA USE32 PUBLIC 'CODE'
_TEXT	ENDS
;	COMDAT ??9const_iterator@?$_Tree@V?$_Tmap_traits@KPAVCTPlayer@@U?$less@K@std@@V?$allocator@U?$pair@$$CBKPAVCTPlayer@@@std@@@3@$0A@@std@@@std@@QBE_NABV012@@Z
_TEXT	SEGMENT PARA USE32 PUBLIC 'CODE'
_TEXT	ENDS
;	COMDAT ??0?$pair@$$CBKPAVCTPlayer@@@std@@QAE@ABKABQAVCTPlayer@@@Z
_TEXT	SEGMENT PARA USE32 PUBLIC 'CODE'
_TEXT	ENDS
;	COMDAT ??Citerator@?$_Tree@V?$_Tmap_traits@GV?$map@KPAVCTPlayer@@U?$less@K@std@@V?$allocator@U?$pair@$$CBKPAVCTPlayer@@@std@@@3@@std@@U?$less@G@2@V?$allocator@U?$pair@$$CBGV?$map@KPAVCTPlayer@@U?$less@K@std@@V?$allocator@U?$pair@$$CBKPAVCTPlayer@@@std@@@3@@std@@@std@@@2@$0A@@std@@@std@@QBEPAU?$pair@$$CBGV?$map@KPAVCTPlayer@@U?$less@K@std@@V?$allocator@U?$pair@$$CBKPAVCTPlayer@@@std@@@3@@std@@@2@XZ
_TEXT	SEGMENT PARA USE32 PUBLIC 'CODE'
_TEXT	ENDS
;	COMDAT ??9const_iterator@?$_Tree@V?$_Tmap_traits@GV?$map@KPAVCTPlayer@@U?$less@K@std@@V?$allocator@U?$pair@$$CBKPAVCTPlayer@@@std@@@3@@std@@U?$less@G@2@V?$allocator@U?$pair@$$CBGV?$map@KPAVCTPlayer@@U?$less@K@std@@V?$allocator@U?$pair@$$CBKPAVCTPlayer@@@std@@@3@@std@@@std@@@2@$0A@@std@@@std@@QBE_NABV012@@Z
_TEXT	SEGMENT PARA USE32 PUBLIC 'CODE'
_TEXT	ENDS
;	COMDAT ??0iterator@?$_Tree@V?$_Tmap_traits@GPAVCTParty@@U?$less@G@std@@V?$allocator@U?$pair@$$CBGPAVCTParty@@@std@@@3@$0A@@std@@@std@@QAE@XZ
_TEXT	SEGMENT PARA USE32 PUBLIC 'CODE'
_TEXT	ENDS
;	COMDAT ??Diterator@?$_Tree@V?$_Tmap_traits@GPAVCTParty@@U?$less@G@std@@V?$allocator@U?$pair@$$CBGPAVCTParty@@@std@@@3@$0A@@std@@@std@@QBEAAU?$pair@$$CBGPAVCTParty@@@2@XZ
_TEXT	SEGMENT PARA USE32 PUBLIC 'CODE'
_TEXT	ENDS
;	COMDAT ??Eiterator@?$_Tree@V?$_Tmap_traits@GPAVCTParty@@U?$less@G@std@@V?$allocator@U?$pair@$$CBGPAVCTParty@@@std@@@3@$0A@@std@@@std@@QAE?AV012@H@Z
_TEXT	SEGMENT PARA USE32 PUBLIC 'CODE'
_TEXT	ENDS
;	COMDAT ??9const_iterator@?$_Tree@V?$_Tmap_traits@GPAVCTParty@@U?$less@G@std@@V?$allocator@U?$pair@$$CBGPAVCTParty@@@std@@@3@$0A@@std@@@std@@QBE_NABV012@@Z
_TEXT	SEGMENT PARA USE32 PUBLIC 'CODE'
_TEXT	ENDS
;	COMDAT ??Diterator@?$_Tree@V?$_Tmap_traits@V?$CStringT@DV?$StrTraitATL@DV?$ChTraitsCRT@D@ATL@@@ATL@@@ATL@@EU?$less@V?$CStringT@DV?$StrTraitATL@DV?$ChTraitsCRT@D@ATL@@@ATL@@@ATL@@@std@@V?$allocator@U?$pair@$$CBV?$CStringT@DV?$StrTraitATL@DV?$ChTraitsCRT@D@ATL@@@ATL@@@ATL@@E@std@@@4@$0A@@std@@@std@@QBEAAU?$pair@$$CBV?$CStringT@DV?$StrTraitATL@DV?$ChTraitsCRT@D@ATL@@@ATL@@@ATL@@E@2@XZ
_TEXT	SEGMENT PARA USE32 PUBLIC 'CODE'
_TEXT	ENDS
;	COMDAT ??8const_iterator@?$_Tree@V?$_Tmap_traits@V?$CStringT@DV?$StrTraitATL@DV?$ChTraitsCRT@D@ATL@@@ATL@@@ATL@@EU?$less@V?$CStringT@DV?$StrTraitATL@DV?$ChTraitsCRT@D@ATL@@@ATL@@@ATL@@@std@@V?$allocator@U?$pair@$$CBV?$CStringT@DV?$StrTraitATL@DV?$ChTraitsCRT@D@ATL@@@ATL@@@ATL@@E@std@@@4@$0A@@std@@@std@@QBE_NABV012@@Z
_TEXT	SEGMENT PARA USE32 PUBLIC 'CODE'
_TEXT	ENDS
;	COMDAT ??_G?$CAtlExeModuleT@VCTRelaySvrModule@@@ATL@@UAEPAXI@Z
_TEXT	SEGMENT PARA USE32 PUBLIC 'CODE'
_TEXT	ENDS
;	COMDAT ??1?$CAtlModuleT@VCTRelaySvrModule@@@ATL@@UAE@XZ
_TEXT	SEGMENT PARA USE32 PUBLIC 'CODE'
_TEXT	ENDS
;	COMDAT ??0?$CStringT@DV?$StrTraitATL@DV?$ChTraitsCRT@D@ATL@@@ATL@@@ATL@@QAE@PAUIAtlStringMgr@1@@Z
_TEXT	SEGMENT PARA USE32 PUBLIC 'CODE'
_TEXT	ENDS
;	COMDAT ??0?$CStringT@DV?$StrTraitATL@DV?$ChTraitsCRT@D@ATL@@@ATL@@@ATL@@QAE@PBDHPAUIAtlStringMgr@1@@Z
_TEXT	SEGMENT PARA USE32 PUBLIC 'CODE'
_TEXT	ENDS
;	COMDAT ?Compare@?$CStringT@DV?$StrTraitATL@DV?$ChTraitsCRT@D@ATL@@@ATL@@@ATL@@QBEHPBD@Z
_TEXT	SEGMENT PARA USE32 PUBLIC 'CODE'
_TEXT	ENDS
;	COMDAT ?Mid@?$CStringT@DV?$StrTraitATL@DV?$ChTraitsCRT@D@ATL@@@ATL@@@ATL@@QBE?AV12@HH@Z
_TEXT	SEGMENT PARA USE32 PUBLIC 'CODE'
_TEXT	ENDS
;	COMDAT ?FormatV@?$CStringT@DV?$StrTraitATL@DV?$ChTraitsCRT@D@ATL@@@ATL@@@ATL@@QAEXPBDPAD@Z
_TEXT	SEGMENT PARA USE32 PUBLIC 'CODE'
_TEXT	ENDS
;	COMDAT ??4?$CSimpleStringT@D$0A@@ATL@@QAEAAV01@ABV01@@Z
_TEXT	SEGMENT PARA USE32 PUBLIC 'CODE'
_TEXT	ENDS
;	COMDAT ?GetManager@?$CSimpleStringT@D$0A@@ATL@@QBEPAUIAtlStringMgr@2@XZ
_TEXT	SEGMENT PARA USE32 PUBLIC 'CODE'
_TEXT	ENDS
;	COMDAT ?StringFindString@?$ChTraitsCRT@D@ATL@@SAPBDPBD0@Z
_TEXT	SEGMENT PARA USE32 PUBLIC 'CODE'
_TEXT	ENDS
;	COMDAT ?StringSpanIncluding@?$ChTraitsCRT@D@ATL@@SAHPBD0@Z
_TEXT	SEGMENT PARA USE32 PUBLIC 'CODE'
_TEXT	ENDS
;	COMDAT ?StringSpanExcluding@?$ChTraitsCRT@D@ATL@@SAHPBD0@Z
_TEXT	SEGMENT PARA USE32 PUBLIC 'CODE'
_TEXT	ENDS
;	COMDAT ?_Key@?$_Tree@V?$_Tmap_traits@V?$CStringT@DV?$StrTraitATL@DV?$ChTraitsCRT@D@ATL@@@ATL@@@ATL@@EU?$less@V?$CStringT@DV?$StrTraitATL@DV?$ChTraitsCRT@D@ATL@@@ATL@@@ATL@@@std@@V?$allocator@U?$pair@$$CBV?$CStringT@DV?$StrTraitATL@DV?$ChTraitsCRT@D@ATL@@@ATL@@@ATL@@E@std@@@4@$0A@@std@@@std@@KAABV?$CStringT@DV?$StrTraitATL@DV?$ChTraitsCRT@D@ATL@@@ATL@@@ATL@@PAU_Node@?$_Tree_nod@V?$_Tmap_traits@V?$CStringT@DV?$StrTraitATL@DV?$ChTraitsCRT@D@ATL@@@ATL@@@ATL@@EU?$less@V?$CStringT@DV?$StrTraitATL@DV?$ChTraitsCRT@D@ATL@@@ATL@@@ATL@@@std@@V?$allocator@U?$pair@$$CBV?$CStringT@DV?$StrTraitATL@DV?$ChTraitsCRT@D@ATL@@@ATL@@@ATL@@E@std@@@4@$0A@@std@@@2@@Z
_TEXT	SEGMENT PARA USE32 PUBLIC 'CODE'
_TEXT	ENDS
;	COMDAT ?lower_bound@?$_Tree@V?$_Tmap_traits@V?$CStringT@DV?$StrTraitATL@DV?$ChTraitsCRT@D@ATL@@@ATL@@@ATL@@EU?$less@V?$CStringT@DV?$StrTraitATL@DV?$ChTraitsCRT@D@ATL@@@ATL@@@ATL@@@std@@V?$allocator@U?$pair@$$CBV?$CStringT@DV?$StrTraitATL@DV?$ChTraitsCRT@D@ATL@@@ATL@@@ATL@@E@std@@@4@$0A@@std@@@std@@QAE?AViterator@12@ABV?$CStringT@DV?$StrTraitATL@DV?$ChTraitsCRT@D@ATL@@@ATL@@@ATL@@@Z
_TEXT	SEGMENT PARA USE32 PUBLIC 'CODE'
_TEXT	ENDS
;	COMDAT ??R?$less@V?$CStringT@DV?$StrTraitATL@DV?$ChTraitsCRT@D@ATL@@@ATL@@@ATL@@@std@@QBE_NABV?$CStringT@DV?$StrTraitATL@DV?$ChTraitsCRT@D@ATL@@@ATL@@@ATL@@0@Z
_TEXT	SEGMENT PARA USE32 PUBLIC 'CODE'
_TEXT	ENDS
;	COMDAT ?_Isnil@?$_Tree@V?$_Tmap_traits@KPAVCTPlayer@@U?$less@K@std@@V?$allocator@U?$pair@$$CBKPAVCTPlayer@@@std@@@3@$0A@@std@@@std@@KAAADPAU_Node@?$_Tree_nod@V?$_Tmap_traits@KPAVCTPlayer@@U?$less@K@std@@V?$allocator@U?$pair@$$CBKPAVCTPlayer@@@std@@@3@$0A@@std@@@2@@Z
_TEXT	SEGMENT PARA USE32 PUBLIC 'CODE'
_TEXT	ENDS
;	COMDAT ?_Key@?$_Tree@V?$_Tmap_traits@KPAVCTPlayer@@U?$less@K@std@@V?$allocator@U?$pair@$$CBKPAVCTPlayer@@@std@@@3@$0A@@std@@@std@@KAABKPAU_Node@?$_Tree_nod@V?$_Tmap_traits@KPAVCTPlayer@@U?$less@K@std@@V?$allocator@U?$pair@$$CBKPAVCTPlayer@@@std@@@3@$0A@@std@@@2@@Z
_TEXT	SEGMENT PARA USE32 PUBLIC 'CODE'
_TEXT	ENDS
;	COMDAT ?_Left@?$_Tree@V?$_Tmap_traits@KPAVCTPlayer@@U?$less@K@std@@V?$allocator@U?$pair@$$CBKPAVCTPlayer@@@std@@@3@$0A@@std@@@std@@KAAAPAU_Node@?$_Tree_nod@V?$_Tmap_traits@KPAVCTPlayer@@U?$less@K@std@@V?$allocator@U?$pair@$$CBKPAVCTPlayer@@@std@@@3@$0A@@std@@@2@PAU342@@Z
_TEXT	SEGMENT PARA USE32 PUBLIC 'CODE'
_TEXT	ENDS
;	COMDAT ?_Right@?$_Tree@V?$_Tmap_traits@KPAVCTPlayer@@U?$less@K@std@@V?$allocator@U?$pair@$$CBKPAVCTPlayer@@@std@@@3@$0A@@std@@@std@@KAAAPAU_Node@?$_Tree_nod@V?$_Tmap_traits@KPAVCTPlayer@@U?$less@K@std@@V?$allocator@U?$pair@$$CBKPAVCTPlayer@@@std@@@3@$0A@@std@@@2@PAU342@@Z
_TEXT	SEGMENT PARA USE32 PUBLIC 'CODE'
_TEXT	ENDS
;	COMDAT ?lower_bound@?$_Tree@V?$_Tmap_traits@KPAVCTPlayer@@U?$less@K@std@@V?$allocator@U?$pair@$$CBKPAVCTPlayer@@@std@@@3@$0A@@std@@@std@@QAE?AViterator@12@ABK@Z
_TEXT	SEGMENT PARA USE32 PUBLIC 'CODE'
_TEXT	ENDS
;	COMDAT ?_Insert@?$_Tree@V?$_Tmap_traits@KPAVCTPlayer@@U?$less@K@std@@V?$allocator@U?$pair@$$CBKPAVCTPlayer@@@std@@@3@$0A@@std@@@std@@IAE?AViterator@12@_NPAU_Node@?$_Tree_nod@V?$_Tmap_traits@KPAVCTPlayer@@U?$less@K@std@@V?$allocator@U?$pair@$$CBKPAVCTPlayer@@@std@@@3@$0A@@std@@@2@ABU?$pair@$$CBKPAVCTPlayer@@@2@@Z
_TEXT	SEGMENT PARA USE32 PUBLIC 'CODE'
_TEXT	ENDS
;	COMDAT ?_Lmost@?$_Tree@V?$_Tmap_traits@KPAVCTPlayer@@U?$less@K@std@@V?$allocator@U?$pair@$$CBKPAVCTPlayer@@@std@@@3@$0A@@std@@@std@@IAEAAPAU_Node@?$_Tree_nod@V?$_Tmap_traits@KPAVCTPlayer@@U?$less@K@std@@V?$allocator@U?$pair@$$CBKPAVCTPlayer@@@std@@@3@$0A@@std@@@2@XZ
_TEXT	SEGMENT PARA USE32 PUBLIC 'CODE'
_TEXT	ENDS
;	COMDAT ?_Root@?$_Tree@V?$_Tmap_traits@KPAVCTPlayer@@U?$less@K@std@@V?$allocator@U?$pair@$$CBKPAVCTPlayer@@@std@@@3@$0A@@std@@@std@@IAEAAPAU_Node@?$_Tree_nod@V?$_Tmap_traits@KPAVCTPlayer@@U?$less@K@std@@V?$allocator@U?$pair@$$CBKPAVCTPlayer@@@std@@@3@$0A@@std@@@2@XZ
_TEXT	SEGMENT PARA USE32 PUBLIC 'CODE'
_TEXT	ENDS
;	COMDAT ?_Kfn@?$_Tmap_traits@KPAVCTPlayer@@U?$less@K@std@@V?$allocator@U?$pair@$$CBKPAVCTPlayer@@@std@@@3@$0A@@std@@SAABKABU?$pair@$$CBKPAVCTPlayer@@@2@@Z
_TEXT	SEGMENT PARA USE32 PUBLIC 'CODE'
_TEXT	ENDS
;	COMDAT ??R?$less@K@std@@QBE_NABK0@Z
_TEXT	SEGMENT PARA USE32 PUBLIC 'CODE'
_TEXT	ENDS
;	COMDAT ?_Lmost@?$_Tree@V?$_Tmap_traits@GPAVCTParty@@U?$less@G@std@@V?$allocator@U?$pair@$$CBGPAVCTParty@@@std@@@3@$0A@@std@@@std@@IAEAAPAU_Node@?$_Tree_nod@V?$_Tmap_traits@GPAVCTParty@@U?$less@G@std@@V?$allocator@U?$pair@$$CBGPAVCTParty@@@std@@@3@$0A@@std@@@2@XZ
_TEXT	SEGMENT PARA USE32 PUBLIC 'CODE'
_TEXT	ENDS
;	COMDAT ??R?$less@G@std@@QBE_NABG0@Z
_TEXT	SEGMENT PARA USE32 PUBLIC 'CODE'
_TEXT	ENDS
;	COMDAT ?UninitializeCom@?$CAtlExeModuleT@VCTRelaySvrModule@@@ATL@@SAXXZ
_TEXT	SEGMENT PARA USE32 PUBLIC 'CODE'
_TEXT	ENDS
;	COMDAT ?_Key@?$_Tree@V?$_Tmap_traits@GV?$map@KPAVCTPlayer@@U?$less@K@std@@V?$allocator@U?$pair@$$CBKPAVCTPlayer@@@std@@@3@@std@@U?$less@G@2@V?$allocator@U?$pair@$$CBGV?$map@KPAVCTPlayer@@U?$less@K@std@@V?$allocator@U?$pair@$$CBKPAVCTPlayer@@@std@@@3@@std@@@std@@@2@$0A@@std@@@std@@KAABGPAU_Node@?$_Tree_nod@V?$_Tmap_traits@GV?$map@KPAVCTPlayer@@U?$less@K@std@@V?$allocator@U?$pair@$$CBKPAVCTPlayer@@@std@@@3@@std@@U?$less@G@2@V?$allocator@U?$pair@$$CBGV?$map@KPAVCTPlayer@@U?$less@K@std@@V?$allocator@U?$pair@$$CBKPAVCTPlayer@@@std@@@3@@std@@@std@@@2@$0A@@std@@@2@@Z
_TEXT	SEGMENT PARA USE32 PUBLIC 'CODE'
_TEXT	ENDS
;	COMDAT ?lower_bound@?$_Tree@V?$_Tmap_traits@GV?$map@KPAVCTPlayer@@U?$less@K@std@@V?$allocator@U?$pair@$$CBKPAVCTPlayer@@@std@@@3@@std@@U?$less@G@2@V?$allocator@U?$pair@$$CBGV?$map@KPAVCTPlayer@@U?$less@K@std@@V?$allocator@U?$pair@$$CBKPAVCTPlayer@@@std@@@3@@std@@@std@@@2@$0A@@std@@@std@@QAE?AViterator@12@ABG@Z
_TEXT	SEGMENT PARA USE32 PUBLIC 'CODE'
_TEXT	ENDS
;	COMDAT ?begin@?$vector@KV?$allocator@K@std@@@std@@QAE?AViterator@12@XZ
_TEXT	SEGMENT PARA USE32 PUBLIC 'CODE'
_TEXT	ENDS
;	COMDAT ??0iterator@?$_Tree@V?$_Tmap_traits@KPAVCTPlayer@@U?$less@K@std@@V?$allocator@U?$pair@$$CBKPAVCTPlayer@@@std@@@3@$0A@@std@@@std@@QAE@PAU_Node@?$_Tree_nod@V?$_Tmap_traits@KPAVCTPlayer@@U?$less@K@std@@V?$allocator@U?$pair@$$CBKPAVCTPlayer@@@std@@@3@$0A@@std@@@2@@Z
_TEXT	SEGMENT PARA USE32 PUBLIC 'CODE'
_TEXT	ENDS
;	COMDAT ??Eiterator@?$_Tree@V?$_Tmap_traits@KPAVCTPlayer@@U?$less@K@std@@V?$allocator@U?$pair@$$CBKPAVCTPlayer@@@std@@@3@$0A@@std@@@std@@QAEAAV012@XZ
_TEXT	SEGMENT PARA USE32 PUBLIC 'CODE'
_TEXT	ENDS
;	COMDAT ??Fiterator@?$_Tree@V?$_Tmap_traits@KPAVCTPlayer@@U?$less@K@std@@V?$allocator@U?$pair@$$CBKPAVCTPlayer@@@std@@@3@$0A@@std@@@std@@QAEAAV012@XZ
_TEXT	SEGMENT PARA USE32 PUBLIC 'CODE'
_TEXT	ENDS
;	COMDAT ??0const_iterator@?$_Tree@V?$_Tmap_traits@KPAVCTPlayer@@U?$less@K@std@@V?$allocator@U?$pair@$$CBKPAVCTPlayer@@@std@@@3@$0A@@std@@@std@@QAE@XZ
_TEXT	SEGMENT PARA USE32 PUBLIC 'CODE'
_TEXT	ENDS
;	COMDAT ??Dconst_iterator@?$_Tree@V?$_Tmap_traits@KPAVCTPlayer@@U?$less@K@std@@V?$allocator@U?$pair@$$CBKPAVCTPlayer@@@std@@@3@$0A@@std@@@std@@QBEABU?$pair@$$CBKPAVCTPlayer@@@2@XZ
_TEXT	SEGMENT PARA USE32 PUBLIC 'CODE'
_TEXT	ENDS
;	COMDAT ??8const_iterator@?$_Tree@V?$_Tmap_traits@KPAVCTPlayer@@U?$less@K@std@@V?$allocator@U?$pair@$$CBKPAVCTPlayer@@@std@@@3@$0A@@std@@@std@@QBE_NABV012@@Z
_TEXT	SEGMENT PARA USE32 PUBLIC 'CODE'
_TEXT	ENDS
;	COMDAT ?_Mynode@const_iterator@?$_Tree@V?$_Tmap_traits@KPAVCTPlayer@@U?$less@K@std@@V?$allocator@U?$pair@$$CBKPAVCTPlayer@@@std@@@3@$0A@@std@@@std@@QBEPAU_Node@?$_Tree_nod@V?$_Tmap_traits@KPAVCTPlayer@@U?$less@K@std@@V?$allocator@U?$pair@$$CBKPAVCTPlayer@@@std@@@3@$0A@@std@@@3@XZ
_TEXT	SEGMENT PARA USE32 PUBLIC 'CODE'
_TEXT	ENDS
;	COMDAT ??0?$pair@Viterator@?$_Tree@V?$_Tmap_traits@KPAVCTPlayer@@U?$less@K@std@@V?$allocator@U?$pair@$$CBKPAVCTPlayer@@@std@@@3@$0A@@std@@@std@@_N@std@@QAE@ABViterator@?$_Tree@V?$_Tmap_traits@KPAVCTPlayer@@U?$less@K@std@@V?$allocator@U?$pair@$$CBKPAVCTPlayer@@@std@@@3@$0A@@std@@@1@AB_N@Z
_TEXT	SEGMENT PARA USE32 PUBLIC 'CODE'
_TEXT	ENDS
;	COMDAT ??0iterator@?$_Tree@V?$_Tmap_traits@GV?$map@KPAVCTPlayer@@U?$less@K@std@@V?$allocator@U?$pair@$$CBKPAVCTPlayer@@@std@@@3@@std@@U?$less@G@2@V?$allocator@U?$pair@$$CBGV?$map@KPAVCTPlayer@@U?$less@K@std@@V?$allocator@U?$pair@$$CBKPAVCTPlayer@@@std@@@3@@std@@@std@@@2@$0A@@std@@@std@@QAE@PAU_Node@?$_Tree_nod@V?$_Tmap_traits@GV?$map@KPAVCTPlayer@@U?$less@K@std@@V?$allocator@U?$pair@$$CBKPAVCTPlayer@@@std@@@3@@std@@U?$less@G@2@V?$allocator@U?$pair@$$CBGV?$map@KPAVCTPlayer@@U?$less@K@std@@V?$allocator@U?$pair@$$CBKPAVCTPlayer@@@std@@@3@@std@@@std@@@2@$0A@@std@@@2@@Z
_TEXT	SEGMENT PARA USE32 PUBLIC 'CODE'
_TEXT	ENDS
;	COMDAT ??Diterator@?$_Tree@V?$_Tmap_traits@GV?$map@KPAVCTPlayer@@U?$less@K@std@@V?$allocator@U?$pair@$$CBKPAVCTPlayer@@@std@@@3@@std@@U?$less@G@2@V?$allocator@U?$pair@$$CBGV?$map@KPAVCTPlayer@@U?$less@K@std@@V?$allocator@U?$pair@$$CBKPAVCTPlayer@@@std@@@3@@std@@@std@@@2@$0A@@std@@@std@@QBEAAU?$pair@$$CBGV?$map@KPAVCTPlayer@@U?$less@K@std@@V?$allocator@U?$pair@$$CBKPAVCTPlayer@@@std@@@3@@std@@@2@XZ
_TEXT	SEGMENT PARA USE32 PUBLIC 'CODE'
_TEXT	ENDS
;	COMDAT ??8const_iterator@?$_Tree@V?$_Tmap_traits@GV?$map@KPAVCTPlayer@@U?$less@K@std@@V?$allocator@U?$pair@$$CBKPAVCTPlayer@@@std@@@3@@std@@U?$less@G@2@V?$allocator@U?$pair@$$CBGV?$map@KPAVCTPlayer@@U?$less@K@std@@V?$allocator@U?$pair@$$CBKPAVCTPlayer@@@std@@@3@@std@@@std@@@2@$0A@@std@@@std@@QBE_NABV012@@Z
_TEXT	SEGMENT PARA USE32 PUBLIC 'CODE'
_TEXT	ENDS
;	COMDAT ?_Mynode@const_iterator@?$_Tree@V?$_Tmap_traits@GV?$map@KPAVCTPlayer@@U?$less@K@std@@V?$allocator@U?$pair@$$CBKPAVCTPlayer@@@std@@@3@@std@@U?$less@G@2@V?$allocator@U?$pair@$$CBGV?$map@KPAVCTPlayer@@U?$less@K@std@@V?$allocator@U?$pair@$$CBKPAVCTPlayer@@@std@@@3@@std@@@std@@@2@$0A@@std@@@std@@QBEPAU_Node@?$_Tree_nod@V?$_Tmap_traits@GV?$map@KPAVCTPlayer@@U?$less@K@std@@V?$allocator@U?$pair@$$CBKPAVCTPlayer@@@std@@@3@@std@@U?$less@G@2@V?$allocator@U?$pair@$$CBGV?$map@KPAVCTPlayer@@U?$less@K@std@@V?$allocator@U?$pair@$$CBKPAVCTPlayer@@@std@@@3@@std@@@std@@@2@$0A@@std@@@3@XZ
_TEXT	SEGMENT PARA USE32 PUBLIC 'CODE'
_TEXT	ENDS
;	COMDAT ??0iterator@?$_Tree@V?$_Tmap_traits@GPAVCTParty@@U?$less@G@std@@V?$allocator@U?$pair@$$CBGPAVCTParty@@@std@@@3@$0A@@std@@@std@@QAE@PAU_Node@?$_Tree_nod@V?$_Tmap_traits@GPAVCTParty@@U?$less@G@std@@V?$allocator@U?$pair@$$CBGPAVCTParty@@@std@@@3@$0A@@std@@@2@@Z
_TEXT	SEGMENT PARA USE32 PUBLIC 'CODE'
_TEXT	ENDS
;	COMDAT ??Eiterator@?$_Tree@V?$_Tmap_traits@GPAVCTParty@@U?$less@G@std@@V?$allocator@U?$pair@$$CBGPAVCTParty@@@std@@@3@$0A@@std@@@std@@QAEAAV012@XZ
_TEXT	SEGMENT PARA USE32 PUBLIC 'CODE'
_TEXT	ENDS
;	COMDAT ??0const_iterator@?$_Tree@V?$_Tmap_traits@GPAVCTParty@@U?$less@G@std@@V?$allocator@U?$pair@$$CBGPAVCTParty@@@std@@@3@$0A@@std@@@std@@QAE@XZ
_TEXT	SEGMENT PARA USE32 PUBLIC 'CODE'
_TEXT	ENDS
;	COMDAT ??Dconst_iterator@?$_Tree@V?$_Tmap_traits@GPAVCTParty@@U?$less@G@std@@V?$allocator@U?$pair@$$CBGPAVCTParty@@@std@@@3@$0A@@std@@@std@@QBEABU?$pair@$$CBGPAVCTParty@@@2@XZ
_TEXT	SEGMENT PARA USE32 PUBLIC 'CODE'
_TEXT	ENDS
;	COMDAT ??8const_iterator@?$_Tree@V?$_Tmap_traits@GPAVCTParty@@U?$less@G@std@@V?$allocator@U?$pair@$$CBGPAVCTParty@@@std@@@3@$0A@@std@@@std@@QBE_NABV012@@Z
_TEXT	SEGMENT PARA USE32 PUBLIC 'CODE'
_TEXT	ENDS
;	COMDAT ??0iterator@?$_Tree@V?$_Tmap_traits@V?$CStringT@DV?$StrTraitATL@DV?$ChTraitsCRT@D@ATL@@@ATL@@@ATL@@EU?$less@V?$CStringT@DV?$StrTraitATL@DV?$ChTraitsCRT@D@ATL@@@ATL@@@ATL@@@std@@V?$allocator@U?$pair@$$CBV?$CStringT@DV?$StrTraitATL@DV?$ChTraitsCRT@D@ATL@@@ATL@@@ATL@@E@std@@@4@$0A@@std@@@std@@QAE@PAU_Node@?$_Tree_nod@V?$_Tmap_traits@V?$CStringT@DV?$StrTraitATL@DV?$ChTraitsCRT@D@ATL@@@ATL@@@ATL@@EU?$less@V?$CStringT@DV?$StrTraitATL@DV?$ChTraitsCRT@D@ATL@@@ATL@@@ATL@@@std@@V?$allocator@U?$pair@$$CBV?$CStringT@DV?$StrTraitATL@DV?$ChTraitsCRT@D@ATL@@@ATL@@@ATL@@E@std@@@4@$0A@@std@@@2@@Z
_TEXT	SEGMENT PARA USE32 PUBLIC 'CODE'
_TEXT	ENDS
;	COMDAT ??Dconst_iterator@?$_Tree@V?$_Tmap_traits@V?$CStringT@DV?$StrTraitATL@DV?$ChTraitsCRT@D@ATL@@@ATL@@@ATL@@EU?$less@V?$CStringT@DV?$StrTraitATL@DV?$ChTraitsCRT@D@ATL@@@ATL@@@ATL@@@std@@V?$allocator@U?$pair@$$CBV?$CStringT@DV?$StrTraitATL@DV?$ChTraitsCRT@D@ATL@@@ATL@@@ATL@@E@std@@@4@$0A@@std@@@std@@QBEABU?$pair@$$CBV?$CStringT@DV?$StrTraitATL@DV?$ChTraitsCRT@D@ATL@@@ATL@@@ATL@@E@2@XZ
_TEXT	SEGMENT PARA USE32 PUBLIC 'CODE'
_TEXT	ENDS
;	COMDAT ?_Mynode@const_iterator@?$_Tree@V?$_Tmap_traits@V?$CStringT@DV?$StrTraitATL@DV?$ChTraitsCRT@D@ATL@@@ATL@@@ATL@@EU?$less@V?$CStringT@DV?$StrTraitATL@DV?$ChTraitsCRT@D@ATL@@@ATL@@@ATL@@@std@@V?$allocator@U?$pair@$$CBV?$CStringT@DV?$StrTraitATL@DV?$ChTraitsCRT@D@ATL@@@ATL@@@ATL@@E@std@@@4@$0A@@std@@@std@@QBEPAU_Node@?$_Tree_nod@V?$_Tmap_traits@V?$CStringT@DV?$StrTraitATL@DV?$ChTraitsCRT@D@ATL@@@ATL@@@ATL@@EU?$less@V?$CStringT@DV?$StrTraitATL@DV?$ChTraitsCRT@D@ATL@@@ATL@@@ATL@@@std@@V?$allocator@U?$pair@$$CBV?$CStringT@DV?$StrTraitATL@DV?$ChTraitsCRT@D@ATL@@@ATL@@@ATL@@E@std@@@4@$0A@@std@@@3@XZ
_TEXT	SEGMENT PARA USE32 PUBLIC 'CODE'
_TEXT	ENDS
;	COMDAT ??Diterator@?$vector@KV?$allocator@K@std@@@std@@QBEAAKXZ
_TEXT	SEGMENT PARA USE32 PUBLIC 'CODE'
_TEXT	ENDS
;	COMDAT ??Hiterator@?$vector@KV?$allocator@K@std@@@std@@QBE?AV012@H@Z
_TEXT	SEGMENT PARA USE32 PUBLIC 'CODE'
_TEXT	ENDS
;	COMDAT ??0length_error@std@@QAE@ABV01@@Z
_TEXT	SEGMENT PARA USE32 PUBLIC 'CODE'
_TEXT	ENDS
;	COMDAT ??0logic_error@std@@QAE@ABV01@@Z
_TEXT	SEGMENT PARA USE32 PUBLIC 'CODE'
_TEXT	ENDS
;	COMDAT ??MATL@@YA_NABV?$CStringT@DV?$StrTraitATL@DV?$ChTraitsCRT@D@ATL@@@ATL@@@0@0@Z
_TEXT	SEGMENT PARA USE32 PUBLIC 'CODE'
_TEXT	ENDS
;	COMDAT ??0?$CSimpleStringT@D$0A@@ATL@@QAE@PBDHPAUIAtlStringMgr@1@@Z
_TEXT	SEGMENT PARA USE32 PUBLIC 'CODE'
_TEXT	ENDS
;	COMDAT ?StringCompare@?$ChTraitsCRT@D@ATL@@SAHPBD0@Z
_TEXT	SEGMENT PARA USE32 PUBLIC 'CODE'
_TEXT	ENDS
;	COMDAT ??0?$basic_string@DU?$char_traits@D@std@@V?$allocator@D@2@@std@@QAE@PBD@Z
_TEXT	SEGMENT PARA USE32 PUBLIC 'CODE'
_TEXT	ENDS
;	COMDAT ?_Myval@?$_Tree@V?$_Tmap_traits@V?$CStringT@DV?$StrTraitATL@DV?$ChTraitsCRT@D@ATL@@@ATL@@@ATL@@EU?$less@V?$CStringT@DV?$StrTraitATL@DV?$ChTraitsCRT@D@ATL@@@ATL@@@ATL@@@std@@V?$allocator@U?$pair@$$CBV?$CStringT@DV?$StrTraitATL@DV?$ChTraitsCRT@D@ATL@@@ATL@@@ATL@@E@std@@@4@$0A@@std@@@std@@KAAAU?$pair@$$CBV?$CStringT@DV?$StrTraitATL@DV?$ChTraitsCRT@D@ATL@@@ATL@@@ATL@@E@2@PAU_Node@?$_Tree_nod@V?$_Tmap_traits@V?$CStringT@DV?$StrTraitATL@DV?$ChTraitsCRT@D@ATL@@@ATL@@@ATL@@EU?$less@V?$CStringT@DV?$StrTraitATL@DV?$ChTraitsCRT@D@ATL@@@ATL@@@ATL@@@std@@V?$allocator@U?$pair@$$CBV?$CStringT@DV?$StrTraitATL@DV?$ChTraitsCRT@D@ATL@@@ATL@@@ATL@@E@std@@@4@$0A@@std@@@2@@Z
_TEXT	SEGMENT PARA USE32 PUBLIC 'CODE'
_TEXT	ENDS
;	COMDAT ?_Lbound@?$_Tree@V?$_Tmap_traits@V?$CStringT@DV?$StrTraitATL@DV?$ChTraitsCRT@D@ATL@@@ATL@@@ATL@@EU?$less@V?$CStringT@DV?$StrTraitATL@DV?$ChTraitsCRT@D@ATL@@@ATL@@@ATL@@@std@@V?$allocator@U?$pair@$$CBV?$CStringT@DV?$StrTraitATL@DV?$ChTraitsCRT@D@ATL@@@ATL@@@ATL@@E@std@@@4@$0A@@std@@@std@@IBEPAU_Node@?$_Tree_nod@V?$_Tmap_traits@V?$CStringT@DV?$StrTraitATL@DV?$ChTraitsCRT@D@ATL@@@ATL@@@ATL@@EU?$less@V?$CStringT@DV?$StrTraitATL@DV?$ChTraitsCRT@D@ATL@@@ATL@@@ATL@@@std@@V?$allocator@U?$pair@$$CBV?$CStringT@DV?$StrTraitATL@DV?$ChTraitsCRT@D@ATL@@@ATL@@@ATL@@E@std@@@4@$0A@@std@@@2@ABV?$CStringT@DV?$StrTraitATL@DV?$ChTraitsCRT@D@ATL@@@ATL@@@ATL@@@Z
_TEXT	SEGMENT PARA USE32 PUBLIC 'CODE'
_TEXT	ENDS
;	COMDAT ?_Kfn@?$_Tmap_traits@V?$CStringT@DV?$StrTraitATL@DV?$ChTraitsCRT@D@ATL@@@ATL@@@ATL@@EU?$less@V?$CStringT@DV?$StrTraitATL@DV?$ChTraitsCRT@D@ATL@@@ATL@@@ATL@@@std@@V?$allocator@U?$pair@$$CBV?$CStringT@DV?$StrTraitATL@DV?$ChTraitsCRT@D@ATL@@@ATL@@@ATL@@E@std@@@4@$0A@@std@@SAABV?$CStringT@DV?$StrTraitATL@DV?$ChTraitsCRT@D@ATL@@@ATL@@@ATL@@ABU?$pair@$$CBV?$CStringT@DV?$StrTraitATL@DV?$ChTraitsCRT@D@ATL@@@ATL@@@ATL@@E@2@@Z
_TEXT	SEGMENT PARA USE32 PUBLIC 'CODE'
_TEXT	ENDS
;	COMDAT ?_Color@?$_Tree@V?$_Tmap_traits@KPAVCTPlayer@@U?$less@K@std@@V?$allocator@U?$pair@$$CBKPAVCTPlayer@@@std@@@3@$0A@@std@@@std@@KAAADPAU_Node@?$_Tree_nod@V?$_Tmap_traits@KPAVCTPlayer@@U?$less@K@std@@V?$allocator@U?$pair@$$CBKPAVCTPlayer@@@std@@@3@$0A@@std@@@2@@Z
_TEXT	SEGMENT PARA USE32 PUBLIC 'CODE'
_TEXT	ENDS
;	COMDAT ?_Parent@?$_Tree@V?$_Tmap_traits@KPAVCTPlayer@@U?$less@K@std@@V?$allocator@U?$pair@$$CBKPAVCTPlayer@@@std@@@3@$0A@@std@@@std@@KAAAPAU_Node@?$_Tree_nod@V?$_Tmap_traits@KPAVCTPlayer@@U?$less@K@std@@V?$allocator@U?$pair@$$CBKPAVCTPlayer@@@std@@@3@$0A@@std@@@2@PAU342@@Z
_TEXT	SEGMENT PARA USE32 PUBLIC 'CODE'
_TEXT	ENDS
;	COMDAT ?_Myval@?$_Tree@V?$_Tmap_traits@KPAVCTPlayer@@U?$less@K@std@@V?$allocator@U?$pair@$$CBKPAVCTPlayer@@@std@@@3@$0A@@std@@@std@@KAAAU?$pair@$$CBKPAVCTPlayer@@@2@PAU_Node@?$_Tree_nod@V?$_Tmap_traits@KPAVCTPlayer@@U?$less@K@std@@V?$allocator@U?$pair@$$CBKPAVCTPlayer@@@std@@@3@$0A@@std@@@2@@Z
_TEXT	SEGMENT PARA USE32 PUBLIC 'CODE'
_TEXT	ENDS
;	COMDAT ?max_size@?$_Tree@V?$_Tmap_traits@KPAVCTPlayer@@U?$less@K@std@@V?$allocator@U?$pair@$$CBKPAVCTPlayer@@@std@@@3@$0A@@std@@@std@@QBEIXZ
_TEXT	SEGMENT PARA USE32 PUBLIC 'CODE'
_TEXT	ENDS
;	COMDAT ?_Lbound@?$_Tree@V?$_Tmap_traits@KPAVCTPlayer@@U?$less@K@std@@V?$allocator@U?$pair@$$CBKPAVCTPlayer@@@std@@@3@$0A@@std@@@std@@IBEPAU_Node@?$_Tree_nod@V?$_Tmap_traits@KPAVCTPlayer@@U?$less@K@std@@V?$allocator@U?$pair@$$CBKPAVCTPlayer@@@std@@@3@$0A@@std@@@2@ABK@Z
_TEXT	SEGMENT PARA USE32 PUBLIC 'CODE'
_TEXT	ENDS
;	COMDAT ?_Lrotate@?$_Tree@V?$_Tmap_traits@KPAVCTPlayer@@U?$less@K@std@@V?$allocator@U?$pair@$$CBKPAVCTPlayer@@@std@@@3@$0A@@std@@@std@@IAEXPAU_Node@?$_Tree_nod@V?$_Tmap_traits@KPAVCTPlayer@@U?$less@K@std@@V?$allocator@U?$pair@$$CBKPAVCTPlayer@@@std@@@3@$0A@@std@@@2@@Z
_TEXT	SEGMENT PARA USE32 PUBLIC 'CODE'
_TEXT	ENDS
;	COMDAT ?_Rmost@?$_Tree@V?$_Tmap_traits@KPAVCTPlayer@@U?$less@K@std@@V?$allocator@U?$pair@$$CBKPAVCTPlayer@@@std@@@3@$0A@@std@@@std@@IAEAAPAU_Node@?$_Tree_nod@V?$_Tmap_traits@KPAVCTPlayer@@U?$less@K@std@@V?$allocator@U?$pair@$$CBKPAVCTPlayer@@@std@@@3@$0A@@std@@@2@XZ
_TEXT	SEGMENT PARA USE32 PUBLIC 'CODE'
_TEXT	ENDS
;	COMDAT ?_Rrotate@?$_Tree@V?$_Tmap_traits@KPAVCTPlayer@@U?$less@K@std@@V?$allocator@U?$pair@$$CBKPAVCTPlayer@@@std@@@3@$0A@@std@@@std@@IAEXPAU_Node@?$_Tree_nod@V?$_Tmap_traits@KPAVCTPlayer@@U?$less@K@std@@V?$allocator@U?$pair@$$CBKPAVCTPlayer@@@std@@@3@$0A@@std@@@2@@Z
_TEXT	SEGMENT PARA USE32 PUBLIC 'CODE'
_TEXT	ENDS
;	COMDAT ?_Buynode@?$_Tree@V?$_Tmap_traits@KPAVCTPlayer@@U?$less@K@std@@V?$allocator@U?$pair@$$CBKPAVCTPlayer@@@std@@@3@$0A@@std@@@std@@IAEPAU_Node@?$_Tree_nod@V?$_Tmap_traits@KPAVCTPlayer@@U?$less@K@std@@V?$allocator@U?$pair@$$CBKPAVCTPlayer@@@std@@@3@$0A@@std@@@2@PAU342@00ABU?$pair@$$CBKPAVCTPlayer@@@2@D@Z
_TEXT	SEGMENT PARA USE32 PUBLIC 'CODE'
_TEXT	ENDS
;	COMDAT ?_Left@?$_Tree@V?$_Tmap_traits@GPAVCTParty@@U?$less@G@std@@V?$allocator@U?$pair@$$CBGPAVCTParty@@@std@@@3@$0A@@std@@@std@@KAAAPAU_Node@?$_Tree_nod@V?$_Tmap_traits@GPAVCTParty@@U?$less@G@std@@V?$allocator@U?$pair@$$CBGPAVCTParty@@@std@@@3@$0A@@std@@@2@PAU342@@Z
_TEXT	SEGMENT PARA USE32 PUBLIC 'CODE'
_TEXT	ENDS
;	COMDAT ?_Myval@?$_Tree@V?$_Tmap_traits@GPAVCTParty@@U?$less@G@std@@V?$allocator@U?$pair@$$CBGPAVCTParty@@@std@@@3@$0A@@std@@@std@@KAAAU?$pair@$$CBGPAVCTParty@@@2@PAU_Node@?$_Tree_nod@V?$_Tmap_traits@GPAVCTParty@@U?$less@G@std@@V?$allocator@U?$pair@$$CBGPAVCTParty@@@std@@@3@$0A@@std@@@2@@Z
_TEXT	SEGMENT PARA USE32 PUBLIC 'CODE'
_TEXT	ENDS
;	COMDAT ?_Myval@?$_Tree@V?$_Tmap_traits@GV?$map@KPAVCTPlayer@@U?$less@K@std@@V?$allocator@U?$pair@$$CBKPAVCTPlayer@@@std@@@3@@std@@U?$less@G@2@V?$allocator@U?$pair@$$CBGV?$map@KPAVCTPlayer@@U?$less@K@std@@V?$allocator@U?$pair@$$CBKPAVCTPlayer@@@std@@@3@@std@@@std@@@2@$0A@@std@@@std@@KAAAU?$pair@$$CBGV?$map@KPAVCTPlayer@@U?$less@K@std@@V?$allocator@U?$pair@$$CBKPAVCTPlayer@@@std@@@3@@std@@@2@PAU_Node@?$_Tree_nod@V?$_Tmap_traits@GV?$map@KPAVCTPlayer@@U?$less@K@std@@V?$allocator@U?$pair@$$CBKPAVCTPlayer@@@std@@@3@@std@@U?$less@G@2@V?$allocator@U?$pair@$$CBGV?$map@KPAVCTPlayer@@U?$less@K@std@@V?$allocator@U?$pair@$$CBKPAVCTPlayer@@@std@@@3@@std@@@std@@@2@$0A@@std@@@2@@Z
_TEXT	SEGMENT PARA USE32 PUBLIC 'CODE'
_TEXT	ENDS
;	COMDAT ?_Lbound@?$_Tree@V?$_Tmap_traits@GV?$map@KPAVCTPlayer@@U?$less@K@std@@V?$allocator@U?$pair@$$CBKPAVCTPlayer@@@std@@@3@@std@@U?$less@G@2@V?$allocator@U?$pair@$$CBGV?$map@KPAVCTPlayer@@U?$less@K@std@@V?$allocator@U?$pair@$$CBKPAVCTPlayer@@@std@@@3@@std@@@std@@@2@$0A@@std@@@std@@IBEPAU_Node@?$_Tree_nod@V?$_Tmap_traits@GV?$map@KPAVCTPlayer@@U?$less@K@std@@V?$allocator@U?$pair@$$CBKPAVCTPlayer@@@std@@@3@@std@@U?$less@G@2@V?$allocator@U?$pair@$$CBGV?$map@KPAVCTPlayer@@U?$less@K@std@@V?$allocator@U?$pair@$$CBKPAVCTPlayer@@@std@@@3@@std@@@std@@@2@$0A@@std@@@2@ABG@Z
_TEXT	SEGMENT PARA USE32 PUBLIC 'CODE'
_TEXT	ENDS
;	COMDAT ?_Kfn@?$_Tmap_traits@GV?$map@KPAVCTPlayer@@U?$less@K@std@@V?$allocator@U?$pair@$$CBKPAVCTPlayer@@@std@@@3@@std@@U?$less@G@2@V?$allocator@U?$pair@$$CBGV?$map@KPAVCTPlayer@@U?$less@K@std@@V?$allocator@U?$pair@$$CBKPAVCTPlayer@@@std@@@3@@std@@@std@@@2@$0A@@std@@SAABGABU?$pair@$$CBGV?$map@KPAVCTPlayer@@U?$less@K@std@@V?$allocator@U?$pair@$$CBKPAVCTPlayer@@@std@@@3@@std@@@2@@Z
_TEXT	SEGMENT PARA USE32 PUBLIC 'CODE'
_TEXT	ENDS
;	COMDAT ??0const_iterator@?$_Tree@V?$_Tmap_traits@KPAVCTPlayer@@U?$less@K@std@@V?$allocator@U?$pair@$$CBKPAVCTPlayer@@@std@@@3@$0A@@std@@@std@@QAE@PAU_Node@?$_Tree_nod@V?$_Tmap_traits@KPAVCTPlayer@@U?$less@K@std@@V?$allocator@U?$pair@$$CBKPAVCTPlayer@@@std@@@3@$0A@@std@@@2@@Z
_TEXT	SEGMENT PARA USE32 PUBLIC 'CODE'
_TEXT	ENDS
;	COMDAT ??Econst_iterator@?$_Tree@V?$_Tmap_traits@KPAVCTPlayer@@U?$less@K@std@@V?$allocator@U?$pair@$$CBKPAVCTPlayer@@@std@@@3@$0A@@std@@@std@@QAEAAV012@XZ
_TEXT	SEGMENT PARA USE32 PUBLIC 'CODE'
_TEXT	ENDS
;	COMDAT ??Fconst_iterator@?$_Tree@V?$_Tmap_traits@KPAVCTPlayer@@U?$less@K@std@@V?$allocator@U?$pair@$$CBKPAVCTPlayer@@@std@@@3@$0A@@std@@@std@@QAEAAV012@XZ
_TEXT	SEGMENT PARA USE32 PUBLIC 'CODE'
_TEXT	ENDS
;	COMDAT ??0const_iterator@?$_Tree@V?$_Tmap_traits@GV?$map@KPAVCTPlayer@@U?$less@K@std@@V?$allocator@U?$pair@$$CBKPAVCTPlayer@@@std@@@3@@std@@U?$less@G@2@V?$allocator@U?$pair@$$CBGV?$map@KPAVCTPlayer@@U?$less@K@std@@V?$allocator@U?$pair@$$CBKPAVCTPlayer@@@std@@@3@@std@@@std@@@2@$0A@@std@@@std@@QAE@PAU_Node@?$_Tree_nod@V?$_Tmap_traits@GV?$map@KPAVCTPlayer@@U?$less@K@std@@V?$allocator@U?$pair@$$CBKPAVCTPlayer@@@std@@@3@@std@@U?$less@G@2@V?$allocator@U?$pair@$$CBGV?$map@KPAVCTPlayer@@U?$less@K@std@@V?$allocator@U?$pair@$$CBKPAVCTPlayer@@@std@@@3@@std@@@std@@@2@$0A@@std@@@2@@Z
_TEXT	SEGMENT PARA USE32 PUBLIC 'CODE'
_TEXT	ENDS
;	COMDAT ??Dconst_iterator@?$_Tree@V?$_Tmap_traits@GV?$map@KPAVCTPlayer@@U?$less@K@std@@V?$allocator@U?$pair@$$CBKPAVCTPlayer@@@std@@@3@@std@@U?$less@G@2@V?$allocator@U?$pair@$$CBGV?$map@KPAVCTPlayer@@U?$less@K@std@@V?$allocator@U?$pair@$$CBKPAVCTPlayer@@@std@@@3@@std@@@std@@@2@$0A@@std@@@std@@QBEABU?$pair@$$CBGV?$map@KPAVCTPlayer@@U?$less@K@std@@V?$allocator@U?$pair@$$CBKPAVCTPlayer@@@std@@@3@@std@@@2@XZ
_TEXT	SEGMENT PARA USE32 PUBLIC 'CODE'
_TEXT	ENDS
;	COMDAT ??0const_iterator@?$_Tree@V?$_Tmap_traits@GPAVCTParty@@U?$less@G@std@@V?$allocator@U?$pair@$$CBGPAVCTParty@@@std@@@3@$0A@@std@@@std@@QAE@PAU_Node@?$_Tree_nod@V?$_Tmap_traits@GPAVCTParty@@U?$less@G@std@@V?$allocator@U?$pair@$$CBGPAVCTParty@@@std@@@3@$0A@@std@@@2@@Z
_TEXT	SEGMENT PARA USE32 PUBLIC 'CODE'
_TEXT	ENDS
;	COMDAT ??Econst_iterator@?$_Tree@V?$_Tmap_traits@GPAVCTParty@@U?$less@G@std@@V?$allocator@U?$pair@$$CBGPAVCTParty@@@std@@@3@$0A@@std@@@std@@QAEAAV012@XZ
_TEXT	SEGMENT PARA USE32 PUBLIC 'CODE'
_TEXT	ENDS
;	COMDAT ??0const_iterator@?$_Tree@V?$_Tmap_traits@V?$CStringT@DV?$StrTraitATL@DV?$ChTraitsCRT@D@ATL@@@ATL@@@ATL@@EU?$less@V?$CStringT@DV?$StrTraitATL@DV?$ChTraitsCRT@D@ATL@@@ATL@@@ATL@@@std@@V?$allocator@U?$pair@$$CBV?$CStringT@DV?$StrTraitATL@DV?$ChTraitsCRT@D@ATL@@@ATL@@@ATL@@E@std@@@4@$0A@@std@@@std@@QAE@PAU_Node@?$_Tree_nod@V?$_Tmap_traits@V?$CStringT@DV?$StrTraitATL@DV?$ChTraitsCRT@D@ATL@@@ATL@@@ATL@@EU?$less@V?$CStringT@DV?$StrTraitATL@DV?$ChTraitsCRT@D@ATL@@@ATL@@@ATL@@@std@@V?$allocator@U?$pair@$$CBV?$CStringT@DV?$StrTraitATL@DV?$ChTraitsCRT@D@ATL@@@ATL@@@ATL@@E@std@@@4@$0A@@std@@@2@@Z
_TEXT	SEGMENT PARA USE32 PUBLIC 'CODE'
_TEXT	ENDS
;	COMDAT ??0iterator@?$vector@KV?$allocator@K@std@@@std@@QAE@PAK@Z
_TEXT	SEGMENT PARA USE32 PUBLIC 'CODE'
_TEXT	ENDS
;	COMDAT ??Yiterator@?$vector@KV?$allocator@K@std@@@std@@QAEAAV012@H@Z
_TEXT	SEGMENT PARA USE32 PUBLIC 'CODE'
_TEXT	ENDS
;	COMDAT ??Dconst_iterator@?$vector@KV?$allocator@K@std@@@std@@QBEABKXZ
_TEXT	SEGMENT PARA USE32 PUBLIC 'CODE'
_TEXT	ENDS
;	COMDAT ??0?$allocator@D@std@@QAE@XZ
_TEXT	SEGMENT PARA USE32 PUBLIC 'CODE'
_TEXT	ENDS
;	COMDAT ?_Isnil@?$_Tree@V?$_Tmap_traits@V?$CStringT@DV?$StrTraitATL@DV?$ChTraitsCRT@D@ATL@@@ATL@@@ATL@@EU?$less@V?$CStringT@DV?$StrTraitATL@DV?$ChTraitsCRT@D@ATL@@@ATL@@@ATL@@@std@@V?$allocator@U?$pair@$$CBV?$CStringT@DV?$StrTraitATL@DV?$ChTraitsCRT@D@ATL@@@ATL@@@ATL@@E@std@@@4@$0A@@std@@@std@@KAAADPAU_Node@?$_Tree_nod@V?$_Tmap_traits@V?$CStringT@DV?$StrTraitATL@DV?$ChTraitsCRT@D@ATL@@@ATL@@@ATL@@EU?$less@V?$CStringT@DV?$StrTraitATL@DV?$ChTraitsCRT@D@ATL@@@ATL@@@ATL@@@std@@V?$allocator@U?$pair@$$CBV?$CStringT@DV?$StrTraitATL@DV?$ChTraitsCRT@D@ATL@@@ATL@@@ATL@@E@std@@@4@$0A@@std@@@2@@Z
_TEXT	SEGMENT PARA USE32 PUBLIC 'CODE'
_TEXT	ENDS
;	COMDAT ?_Left@?$_Tree@V?$_Tmap_traits@V?$CStringT@DV?$StrTraitATL@DV?$ChTraitsCRT@D@ATL@@@ATL@@@ATL@@EU?$less@V?$CStringT@DV?$StrTraitATL@DV?$ChTraitsCRT@D@ATL@@@ATL@@@ATL@@@std@@V?$allocator@U?$pair@$$CBV?$CStringT@DV?$StrTraitATL@DV?$ChTraitsCRT@D@ATL@@@ATL@@@ATL@@E@std@@@4@$0A@@std@@@std@@KAAAPAU_Node@?$_Tree_nod@V?$_Tmap_traits@V?$CStringT@DV?$StrTraitATL@DV?$ChTraitsCRT@D@ATL@@@ATL@@@ATL@@EU?$less@V?$CStringT@DV?$StrTraitATL@DV?$ChTraitsCRT@D@ATL@@@ATL@@@ATL@@@std@@V?$allocator@U?$pair@$$CBV?$CStringT@DV?$StrTraitATL@DV?$ChTraitsCRT@D@ATL@@@ATL@@@ATL@@E@std@@@4@$0A@@std@@@2@PAU342@@Z
_TEXT	SEGMENT PARA USE32 PUBLIC 'CODE'
_TEXT	ENDS
;	COMDAT ?_Right@?$_Tree@V?$_Tmap_traits@V?$CStringT@DV?$StrTraitATL@DV?$ChTraitsCRT@D@ATL@@@ATL@@@ATL@@EU?$less@V?$CStringT@DV?$StrTraitATL@DV?$ChTraitsCRT@D@ATL@@@ATL@@@ATL@@@std@@V?$allocator@U?$pair@$$CBV?$CStringT@DV?$StrTraitATL@DV?$ChTraitsCRT@D@ATL@@@ATL@@@ATL@@E@std@@@4@$0A@@std@@@std@@KAAAPAU_Node@?$_Tree_nod@V?$_Tmap_traits@V?$CStringT@DV?$StrTraitATL@DV?$ChTraitsCRT@D@ATL@@@ATL@@@ATL@@EU?$less@V?$CStringT@DV?$StrTraitATL@DV?$ChTraitsCRT@D@ATL@@@ATL@@@ATL@@@std@@V?$allocator@U?$pair@$$CBV?$CStringT@DV?$StrTraitATL@DV?$ChTraitsCRT@D@ATL@@@ATL@@@ATL@@E@std@@@4@$0A@@std@@@2@PAU342@@Z
_TEXT	SEGMENT PARA USE32 PUBLIC 'CODE'
_TEXT	ENDS
;	COMDAT ?_Root@?$_Tree@V?$_Tmap_traits@V?$CStringT@DV?$StrTraitATL@DV?$ChTraitsCRT@D@ATL@@@ATL@@@ATL@@EU?$less@V?$CStringT@DV?$StrTraitATL@DV?$ChTraitsCRT@D@ATL@@@ATL@@@ATL@@@std@@V?$allocator@U?$pair@$$CBV?$CStringT@DV?$StrTraitATL@DV?$ChTraitsCRT@D@ATL@@@ATL@@@ATL@@E@std@@@4@$0A@@std@@@std@@IBEAAPAU_Node@?$_Tree_nod@V?$_Tmap_traits@V?$CStringT@DV?$StrTraitATL@DV?$ChTraitsCRT@D@ATL@@@ATL@@@ATL@@EU?$less@V?$CStringT@DV?$StrTraitATL@DV?$ChTraitsCRT@D@ATL@@@ATL@@@ATL@@@std@@V?$allocator@U?$pair@$$CBV?$CStringT@DV?$StrTraitATL@DV?$ChTraitsCRT@D@ATL@@@ATL@@@ATL@@E@std@@@4@$0A@@std@@@2@XZ
_TEXT	SEGMENT PARA USE32 PUBLIC 'CODE'
_TEXT	ENDS
;	COMDAT ?_Root@?$_Tree@V?$_Tmap_traits@KPAVCTPlayer@@U?$less@K@std@@V?$allocator@U?$pair@$$CBKPAVCTPlayer@@@std@@@3@$0A@@std@@@std@@IBEAAPAU_Node@?$_Tree_nod@V?$_Tmap_traits@KPAVCTPlayer@@U?$less@K@std@@V?$allocator@U?$pair@$$CBKPAVCTPlayer@@@std@@@3@$0A@@std@@@2@XZ
_TEXT	SEGMENT PARA USE32 PUBLIC 'CODE'
_TEXT	ENDS
;	COMDAT ?max_size@?$allocator@U?$pair@$$CBKPAVCTPlayer@@@std@@@std@@QBEIXZ
_TEXT	SEGMENT PARA USE32 PUBLIC 'CODE'
_TEXT	ENDS
;	COMDAT ?deallocate@?$allocator@U_Node@?$_Tree_nod@V?$_Tmap_traits@KPAVCTPlayer@@U?$less@K@std@@V?$allocator@U?$pair@$$CBKPAVCTPlayer@@@std@@@3@$0A@@std@@@std@@@std@@QAEXPAU_Node@?$_Tree_nod@V?$_Tmap_traits@KPAVCTPlayer@@U?$less@K@std@@V?$allocator@U?$pair@$$CBKPAVCTPlayer@@@std@@@3@$0A@@std@@@2@I@Z
_TEXT	SEGMENT PARA USE32 PUBLIC 'CODE'
_TEXT	ENDS
;	COMDAT ?allocate@?$allocator@U_Node@?$_Tree_nod@V?$_Tmap_traits@KPAVCTPlayer@@U?$less@K@std@@V?$allocator@U?$pair@$$CBKPAVCTPlayer@@@std@@@3@$0A@@std@@@std@@@std@@QAEPAU_Node@?$_Tree_nod@V?$_Tmap_traits@KPAVCTPlayer@@U?$less@K@std@@V?$allocator@U?$pair@$$CBKPAVCTPlayer@@@std@@@3@$0A@@std@@@2@I@Z
_TEXT	SEGMENT PARA USE32 PUBLIC 'CODE'
_TEXT	ENDS
;	COMDAT ?_Isnil@?$_Tree@V?$_Tmap_traits@GV?$map@KPAVCTPlayer@@U?$less@K@std@@V?$allocator@U?$pair@$$CBKPAVCTPlayer@@@std@@@3@@std@@U?$less@G@2@V?$allocator@U?$pair@$$CBGV?$map@KPAVCTPlayer@@U?$less@K@std@@V?$allocator@U?$pair@$$CBKPAVCTPlayer@@@std@@@3@@std@@@std@@@2@$0A@@std@@@std@@KAAADPAU_Node@?$_Tree_nod@V?$_Tmap_traits@GV?$map@KPAVCTPlayer@@U?$less@K@std@@V?$allocator@U?$pair@$$CBKPAVCTPlayer@@@std@@@3@@std@@U?$less@G@2@V?$allocator@U?$pair@$$CBGV?$map@KPAVCTPlayer@@U?$less@K@std@@V?$allocator@U?$pair@$$CBKPAVCTPlayer@@@std@@@3@@std@@@std@@@2@$0A@@std@@@2@@Z
_TEXT	SEGMENT PARA USE32 PUBLIC 'CODE'
_TEXT	ENDS
;	COMDAT ?_Left@?$_Tree@V?$_Tmap_traits@GV?$map@KPAVCTPlayer@@U?$less@K@std@@V?$allocator@U?$pair@$$CBKPAVCTPlayer@@@std@@@3@@std@@U?$less@G@2@V?$allocator@U?$pair@$$CBGV?$map@KPAVCTPlayer@@U?$less@K@std@@V?$allocator@U?$pair@$$CBKPAVCTPlayer@@@std@@@3@@std@@@std@@@2@$0A@@std@@@std@@KAAAPAU_Node@?$_Tree_nod@V?$_Tmap_traits@GV?$map@KPAVCTPlayer@@U?$less@K@std@@V?$allocator@U?$pair@$$CBKPAVCTPlayer@@@std@@@3@@std@@U?$less@G@2@V?$allocator@U?$pair@$$CBGV?$map@KPAVCTPlayer@@U?$less@K@std@@V?$allocator@U?$pair@$$CBKPAVCTPlayer@@@std@@@3@@std@@@std@@@2@$0A@@std@@@2@PAU342@@Z
_TEXT	SEGMENT PARA USE32 PUBLIC 'CODE'
_TEXT	ENDS
;	COMDAT ?_Right@?$_Tree@V?$_Tmap_traits@GV?$map@KPAVCTPlayer@@U?$less@K@std@@V?$allocator@U?$pair@$$CBKPAVCTPlayer@@@std@@@3@@std@@U?$less@G@2@V?$allocator@U?$pair@$$CBGV?$map@KPAVCTPlayer@@U?$less@K@std@@V?$allocator@U?$pair@$$CBKPAVCTPlayer@@@std@@@3@@std@@@std@@@2@$0A@@std@@@std@@KAAAPAU_Node@?$_Tree_nod@V?$_Tmap_traits@GV?$map@KPAVCTPlayer@@U?$less@K@std@@V?$allocator@U?$pair@$$CBKPAVCTPlayer@@@std@@@3@@std@@U?$less@G@2@V?$allocator@U?$pair@$$CBGV?$map@KPAVCTPlayer@@U?$less@K@std@@V?$allocator@U?$pair@$$CBKPAVCTPlayer@@@std@@@3@@std@@@std@@@2@$0A@@std@@@2@PAU342@@Z
_TEXT	SEGMENT PARA USE32 PUBLIC 'CODE'
_TEXT	ENDS
;	COMDAT ?_Root@?$_Tree@V?$_Tmap_traits@GV?$map@KPAVCTPlayer@@U?$less@K@std@@V?$allocator@U?$pair@$$CBKPAVCTPlayer@@@std@@@3@@std@@U?$less@G@2@V?$allocator@U?$pair@$$CBGV?$map@KPAVCTPlayer@@U?$less@K@std@@V?$allocator@U?$pair@$$CBKPAVCTPlayer@@@std@@@3@@std@@@std@@@2@$0A@@std@@@std@@IBEAAPAU_Node@?$_Tree_nod@V?$_Tmap_traits@GV?$map@KPAVCTPlayer@@U?$less@K@std@@V?$allocator@U?$pair@$$CBKPAVCTPlayer@@@std@@@3@@std@@U?$less@G@2@V?$allocator@U?$pair@$$CBGV?$map@KPAVCTPlayer@@U?$less@K@std@@V?$allocator@U?$pair@$$CBKPAVCTPlayer@@@std@@@3@@std@@@std@@@2@$0A@@std@@@2@XZ
_TEXT	SEGMENT PARA USE32 PUBLIC 'CODE'
_TEXT	ENDS
;	COMDAT ?_Dec@const_iterator@?$_Tree@V?$_Tmap_traits@KPAVCTPlayer@@U?$less@K@std@@V?$allocator@U?$pair@$$CBKPAVCTPlayer@@@std@@@3@$0A@@std@@@std@@QAEXXZ
_TEXT	SEGMENT PARA USE32 PUBLIC 'CODE'
_TEXT	ENDS
;	COMDAT ?_Inc@const_iterator@?$_Tree@V?$_Tmap_traits@KPAVCTPlayer@@U?$less@K@std@@V?$allocator@U?$pair@$$CBKPAVCTPlayer@@@std@@@3@$0A@@std@@@std@@QAEXXZ
_TEXT	SEGMENT PARA USE32 PUBLIC 'CODE'
_TEXT	ENDS
;	COMDAT ?_Inc@const_iterator@?$_Tree@V?$_Tmap_traits@GPAVCTParty@@U?$less@G@std@@V?$allocator@U?$pair@$$CBGPAVCTParty@@@std@@@3@$0A@@std@@@std@@QAEXXZ
_TEXT	SEGMENT PARA USE32 PUBLIC 'CODE'
_TEXT	ENDS
;	COMDAT ??0const_iterator@?$vector@KV?$allocator@K@std@@@std@@QAE@PAK@Z
_TEXT	SEGMENT PARA USE32 PUBLIC 'CODE'
_TEXT	ENDS
;	COMDAT ??0_Node@?$_Tree_nod@V?$_Tmap_traits@KPAVCTPlayer@@U?$less@K@std@@V?$allocator@U?$pair@$$CBKPAVCTPlayer@@@std@@@3@$0A@@std@@@std@@QAE@PAU012@00ABU?$pair@$$CBKPAVCTPlayer@@@2@D@Z
_TEXT	SEGMENT PARA USE32 PUBLIC 'CODE'
_TEXT	ENDS
;	COMDAT ?_Parent@?$_Tree@V?$_Tmap_traits@V?$CStringT@DV?$StrTraitATL@DV?$ChTraitsCRT@D@ATL@@@ATL@@@ATL@@EU?$less@V?$CStringT@DV?$StrTraitATL@DV?$ChTraitsCRT@D@ATL@@@ATL@@@ATL@@@std@@V?$allocator@U?$pair@$$CBV?$CStringT@DV?$StrTraitATL@DV?$ChTraitsCRT@D@ATL@@@ATL@@@ATL@@E@std@@@4@$0A@@std@@@std@@KAAAPAU_Node@?$_Tree_nod@V?$_Tmap_traits@V?$CStringT@DV?$StrTraitATL@DV?$ChTraitsCRT@D@ATL@@@ATL@@@ATL@@EU?$less@V?$CStringT@DV?$StrTraitATL@DV?$ChTraitsCRT@D@ATL@@@ATL@@@ATL@@@std@@V?$allocator@U?$pair@$$CBV?$CStringT@DV?$StrTraitATL@DV?$ChTraitsCRT@D@ATL@@@ATL@@@ATL@@E@std@@@4@$0A@@std@@@2@PAU342@@Z
_TEXT	SEGMENT PARA USE32 PUBLIC 'CODE'
_TEXT	ENDS
;	COMDAT ?_Max@?$_Tree@V?$_Tmap_traits@KPAVCTPlayer@@U?$less@K@std@@V?$allocator@U?$pair@$$CBKPAVCTPlayer@@@std@@@3@$0A@@std@@@std@@KAPAU_Node@?$_Tree_nod@V?$_Tmap_traits@KPAVCTPlayer@@U?$less@K@std@@V?$allocator@U?$pair@$$CBKPAVCTPlayer@@@std@@@3@$0A@@std@@@2@PAU342@@Z
_TEXT	SEGMENT PARA USE32 PUBLIC 'CODE'
_TEXT	ENDS
;	COMDAT ?_Min@?$_Tree@V?$_Tmap_traits@KPAVCTPlayer@@U?$less@K@std@@V?$allocator@U?$pair@$$CBKPAVCTPlayer@@@std@@@3@$0A@@std@@@std@@KAPAU_Node@?$_Tree_nod@V?$_Tmap_traits@KPAVCTPlayer@@U?$less@K@std@@V?$allocator@U?$pair@$$CBKPAVCTPlayer@@@std@@@3@$0A@@std@@@2@PAU342@@Z
_TEXT	SEGMENT PARA USE32 PUBLIC 'CODE'
_TEXT	ENDS
;	COMDAT ?_Isnil@?$_Tree@V?$_Tmap_traits@GPAVCTParty@@U?$less@G@std@@V?$allocator@U?$pair@$$CBGPAVCTParty@@@std@@@3@$0A@@std@@@std@@KAAADPAU_Node@?$_Tree_nod@V?$_Tmap_traits@GPAVCTParty@@U?$less@G@std@@V?$allocator@U?$pair@$$CBGPAVCTParty@@@std@@@3@$0A@@std@@@2@@Z
_TEXT	SEGMENT PARA USE32 PUBLIC 'CODE'
_TEXT	ENDS
;	COMDAT ?_Parent@?$_Tree@V?$_Tmap_traits@GPAVCTParty@@U?$less@G@std@@V?$allocator@U?$pair@$$CBGPAVCTParty@@@std@@@3@$0A@@std@@@std@@KAAAPAU_Node@?$_Tree_nod@V?$_Tmap_traits@GPAVCTParty@@U?$less@G@std@@V?$allocator@U?$pair@$$CBGPAVCTParty@@@std@@@3@$0A@@std@@@2@PAU342@@Z
_TEXT	SEGMENT PARA USE32 PUBLIC 'CODE'
_TEXT	ENDS
;	COMDAT ?_Right@?$_Tree@V?$_Tmap_traits@GPAVCTParty@@U?$less@G@std@@V?$allocator@U?$pair@$$CBGPAVCTParty@@@std@@@3@$0A@@std@@@std@@KAAAPAU_Node@?$_Tree_nod@V?$_Tmap_traits@GPAVCTParty@@U?$less@G@std@@V?$allocator@U?$pair@$$CBGPAVCTParty@@@std@@@3@$0A@@std@@@2@PAU342@@Z
_TEXT	SEGMENT PARA USE32 PUBLIC 'CODE'
_TEXT	ENDS
;	COMDAT ?_Min@?$_Tree@V?$_Tmap_traits@GPAVCTParty@@U?$less@G@std@@V?$allocator@U?$pair@$$CBGPAVCTParty@@@std@@@3@$0A@@std@@@std@@KAPAU_Node@?$_Tree_nod@V?$_Tmap_traits@GPAVCTParty@@U?$less@G@std@@V?$allocator@U?$pair@$$CBGPAVCTParty@@@std@@@3@$0A@@std@@@2@PAU342@@Z
_TEXT	SEGMENT PARA USE32 PUBLIC 'CODE'
_TEXT	ENDS
;	COMDAT ?_Parent@?$_Tree@V?$_Tmap_traits@GV?$map@KPAVCTPlayer@@U?$less@K@std@@V?$allocator@U?$pair@$$CBKPAVCTPlayer@@@std@@@3@@std@@U?$less@G@2@V?$allocator@U?$pair@$$CBGV?$map@KPAVCTPlayer@@U?$less@K@std@@V?$allocator@U?$pair@$$CBKPAVCTPlayer@@@std@@@3@@std@@@std@@@2@$0A@@std@@@std@@KAAAPAU_Node@?$_Tree_nod@V?$_Tmap_traits@GV?$map@KPAVCTPlayer@@U?$less@K@std@@V?$allocator@U?$pair@$$CBKPAVCTPlayer@@@std@@@3@@std@@U?$less@G@2@V?$allocator@U?$pair@$$CBGV?$map@KPAVCTPlayer@@U?$less@K@std@@V?$allocator@U?$pair@$$CBKPAVCTPlayer@@@std@@@3@@std@@@std@@@2@$0A@@std@@@2@PAU342@@Z
_TEXT	SEGMENT PARA USE32 PUBLIC 'CODE'
_TEXT	ENDS
;	COMDAT ?Unlock@?$CComCritSecLock@VCComCriticalSection@ATL@@@ATL@@QAEXXZ
_TEXT	SEGMENT PARA USE32 PUBLIC 'CODE'
_TEXT	ENDS
;	COMDAT ??$_Allocate@U_Node@?$_Tree_nod@V?$_Tmap_traits@KPAVCTPlayer@@U?$less@K@std@@V?$allocator@U?$pair@$$CBKPAVCTPlayer@@@std@@@3@$0A@@std@@@std@@@std@@YAPAU_Node@?$_Tree_nod@V?$_Tmap_traits@KPAVCTPlayer@@U?$less@K@std@@V?$allocator@U?$pair@$$CBKPAVCTPlayer@@@std@@@3@$0A@@std@@@0@IPAU120@@Z
_TEXT	SEGMENT PARA USE32 PUBLIC 'CODE'
_TEXT	ENDS
;	COMDAT ?GetGITPtr@CAtlModule@ATL@@UAEJPAPAUIGlobalInterfaceTable@@@Z
_TEXT	SEGMENT PARA USE32 PUBLIC 'CODE'
_TEXT	ENDS
;	COMDAT __GUID_00000146_0000_0000_c000_000000000046
CONST	SEGMENT DWORD USE32 PUBLIC 'CONST'
CONST	ENDS
;	COMDAT _CLSID_StdGlobalInterfaceTable
CONST	SEGMENT DWORD USE32 PUBLIC 'CONST'
CONST	ENDS
;	COMDAT ?GetLockCount@CAtlModule@ATL@@UAEJXZ
_TEXT	SEGMENT PARA USE32 PUBLIC 'CODE'
_TEXT	ENDS
;	COMDAT ?Lock@CAtlModule@ATL@@UAEJXZ
_TEXT	SEGMENT PARA USE32 PUBLIC 'CODE'
_TEXT	ENDS
;	COMDAT ?Increment@CComMultiThreadModel@ATL@@SGKPAJ@Z
_TEXT	SEGMENT PARA USE32 PUBLIC 'CODE'
_TEXT	ENDS
;	COMDAT ?_Psave@?$_Facetptr@V?$ctype@G@std@@@std@@2PBVfacet@locale@2@B
_DATA	SEGMENT DWORD USE32 PUBLIC 'DATA'
_DATA	ENDS
;	COMDAT ?_Psave@?$_Facetptr@V?$ctype@D@std@@@std@@2PBVfacet@locale@2@B
_DATA	SEGMENT DWORD USE32 PUBLIC 'DATA'
_DATA	ENDS
;	COMDAT ?Unlock@CComCriticalSection@ATL@@QAEJXZ
_TEXT	SEGMENT PARA USE32 PUBLIC 'CODE'
_TEXT	ENDS
;	COMDAT ??3@YAXPAX0@Z
_TEXT	SEGMENT PARA USE32 PUBLIC 'CODE'
_TEXT	ENDS
;	COMDAT ??2@YAPAXIPAX@Z
_TEXT	SEGMENT PARA USE32 PUBLIC 'CODE'
_TEXT	ENDS
;	COMDAT ?assign@?$basic_string@DU?$char_traits@D@std@@V?$allocator@D@2@@std@@QAEAAV12@PBD@Z
_TEXT	SEGMENT PARA USE32 PUBLIC 'CODE'
_TEXT	ENDS
;	COMDAT ?assign@?$basic_string@DU?$char_traits@D@std@@V?$allocator@D@2@@std@@QAEAAV12@PBDI@Z
_TEXT	SEGMENT PARA USE32 PUBLIC 'CODE'
_TEXT	ENDS
;	COMDAT ?_Inside@?$basic_string@DU?$char_traits@D@std@@V?$allocator@D@2@@std@@IAE_NPBD@Z
_TEXT	SEGMENT PARA USE32 PUBLIC 'CODE'
_TEXT	ENDS
;	COMDAT ?assign@?$basic_string@DU?$char_traits@D@std@@V?$allocator@D@2@@std@@QAEAAV12@ABV12@II@Z
_TEXT	SEGMENT PARA USE32 PUBLIC 'CODE'
_TEXT	ENDS
;	COMDAT ?size@?$basic_string@DU?$char_traits@D@std@@V?$allocator@D@2@@std@@QBEIXZ
_TEXT	SEGMENT PARA USE32 PUBLIC 'CODE'
_TEXT	ENDS
;	COMDAT ?npos@?$basic_string@DU?$char_traits@D@std@@V?$allocator@D@2@@std@@2IB
CONST	SEGMENT DWORD USE32 PUBLIC 'CONST'
CONST	ENDS
;	COMDAT ?erase@?$basic_string@DU?$char_traits@D@std@@V?$allocator@D@2@@std@@QAEAAV12@II@Z
_TEXT	SEGMENT PARA USE32 PUBLIC 'CODE'
_TEXT	ENDS
;	COMDAT ?move@?$char_traits@D@std@@SAPADPADPBDI@Z
_TEXT	SEGMENT PARA USE32 PUBLIC 'CODE'
_TEXT	ENDS
;	COMDAT ?_Myptr@?$basic_string@DU?$char_traits@D@std@@V?$allocator@D@2@@std@@QBEPBDXZ
_TEXT	SEGMENT PARA USE32 PUBLIC 'CODE'
_TEXT	ENDS
;	COMDAT ?_Grow@?$basic_string@DU?$char_traits@D@std@@V?$allocator@D@2@@std@@IAE_NI_N@Z
_TEXT	SEGMENT PARA USE32 PUBLIC 'CODE'
_TEXT	ENDS
;	COMDAT ?max_size@?$basic_string@DU?$char_traits@D@std@@V?$allocator@D@2@@std@@QBEIXZ
_TEXT	SEGMENT PARA USE32 PUBLIC 'CODE'
_TEXT	ENDS
;	COMDAT ?max_size@?$allocator@D@std@@QBEIXZ
_TEXT	SEGMENT PARA USE32 PUBLIC 'CODE'
_TEXT	ENDS
;	COMDAT ?_Copy@?$basic_string@DU?$char_traits@D@std@@V?$allocator@D@2@@std@@IAEXII@Z
_TEXT	SEGMENT PARA USE32 PUBLIC 'CODE'
_TEXT	ENDS
;	COMDAT ?allocate@?$allocator@D@std@@QAEPADI@Z
_TEXT	SEGMENT PARA USE32 PUBLIC 'CODE'
_TEXT	ENDS
;	COMDAT ??$_Allocate@D@std@@YAPADIPAD@Z
_TEXT	SEGMENT PARA USE32 PUBLIC 'CODE'
_TEXT	ENDS
;	COMDAT ?copy@?$char_traits@D@std@@SAPADPADPBDI@Z
_TEXT	SEGMENT PARA USE32 PUBLIC 'CODE'
_TEXT	ENDS
;	COMDAT ?_Myptr@?$basic_string@DU?$char_traits@D@std@@V?$allocator@D@2@@std@@QAEPADXZ
_TEXT	SEGMENT PARA USE32 PUBLIC 'CODE'
_TEXT	ENDS
;	COMDAT ?_Eos@?$basic_string@DU?$char_traits@D@std@@V?$allocator@D@2@@std@@IAEXI@Z
_TEXT	SEGMENT PARA USE32 PUBLIC 'CODE'
_TEXT	ENDS
;	COMDAT ?assign@?$char_traits@D@std@@SAXAADABD@Z
_TEXT	SEGMENT PARA USE32 PUBLIC 'CODE'
_TEXT	ENDS
;	COMDAT ?length@?$char_traits@D@std@@SAIPBD@Z
_TEXT	SEGMENT PARA USE32 PUBLIC 'CODE'
_TEXT	ENDS
;	COMDAT ?_Tidy@?$basic_string@DU?$char_traits@D@std@@V?$allocator@D@2@@std@@IAEX_NI@Z
_TEXT	SEGMENT PARA USE32 PUBLIC 'CODE'
_TEXT	ENDS
;	COMDAT ?deallocate@?$allocator@D@std@@QAEXPADI@Z
_TEXT	SEGMENT PARA USE32 PUBLIC 'CODE'
_TEXT	ENDS
;	COMDAT ??0?$_String_val@DV?$allocator@D@std@@@std@@IAE@V?$allocator@D@1@@Z
_TEXT	SEGMENT PARA USE32 PUBLIC 'CODE'
_TEXT	ENDS
;	COMDAT ??0?$allocator@D@std@@QAE@ABV01@@Z
_TEXT	SEGMENT PARA USE32 PUBLIC 'CODE'
_TEXT	ENDS
;	COMDAT ?CopyChars@?$CSimpleStringT@D$0A@@ATL@@SAXPADPBDH@Z
_TEXT	SEGMENT PARA USE32 PUBLIC 'CODE'
_TEXT	ENDS
;	COMDAT ?SetLength@?$CSimpleStringT@D$0A@@ATL@@AAEXH@Z
_TEXT	SEGMENT PARA USE32 PUBLIC 'CODE'
_TEXT	ENDS
;	COMDAT ?ThrowMemoryException@?$CSimpleStringT@D$0A@@ATL@@KAXXZ
_TEXT	SEGMENT PARA USE32 PUBLIC 'CODE'
_TEXT	ENDS
;	COMDAT ??0?$basic_string@DU?$char_traits@D@std@@V?$allocator@D@2@@std@@QAE@ABV01@@Z
_TEXT	SEGMENT PARA USE32 PUBLIC 'CODE'
_TEXT	ENDS
;	COMDAT ??_7logic_error@std@@6B@
CONST	SEGMENT DWORD USE32 PUBLIC 'CONST'
CONST	ENDS
;	COMDAT ??_Glogic_error@std@@UAEPAXI@Z
_TEXT	SEGMENT PARA USE32 PUBLIC 'CODE'
_TEXT	ENDS
;	COMDAT ?what@logic_error@std@@UBEPBDXZ
_TEXT	SEGMENT PARA USE32 PUBLIC 'CODE'
_TEXT	ENDS
;	COMDAT ?c_str@?$basic_string@DU?$char_traits@D@std@@V?$allocator@D@2@@std@@QBEPBDXZ
_TEXT	SEGMENT PARA USE32 PUBLIC 'CODE'
_TEXT	ENDS
;	COMDAT ??_7length_error@std@@6B@
CONST	SEGMENT DWORD USE32 PUBLIC 'CONST'
CONST	ENDS
;	COMDAT ??_Glength_error@std@@UAEPAXI@Z
_TEXT	SEGMENT PARA USE32 PUBLIC 'CODE'
_TEXT	ENDS
;	COMDAT ??1logic_error@std@@UAE@XZ
_TEXT	SEGMENT PARA USE32 PUBLIC 'CODE'
_TEXT	ENDS
;	COMDAT __CTA3?AVlength_error@std@@
xdata$x	SEGMENT DWORD USE32 PUBLIC 'CONST'
xdata$x	ENDS
;	COMDAT ??1length_error@std@@UAE@XZ
_TEXT	SEGMENT PARA USE32 PUBLIC 'CODE'
_TEXT	ENDS
;	COMDAT __CT??_R0?AVexception@@@8??0exception@@QAE@ABV0@@Z12
xdata$x	SEGMENT DWORD USE32 PUBLIC 'CONST'
xdata$x	ENDS
;	COMDAT ??_R0?AVexception@@@8
_DATA	SEGMENT DWORD USE32 PUBLIC 'DATA'
_DATA	ENDS
;	COMDAT __CT??_R0?AVlogic_error@std@@@8??0logic_error@std@@QAE@ABV01@@Z40
xdata$x	SEGMENT DWORD USE32 PUBLIC 'CONST'
xdata$x	ENDS
;	COMDAT __CT??_R0?AVlength_error@std@@@8??0length_error@std@@QAE@ABV01@@Z40
xdata$x	SEGMENT DWORD USE32 PUBLIC 'CONST'
xdata$x	ENDS
;	COMDAT ??_R0?AVlogic_error@std@@@8
_DATA	SEGMENT DWORD USE32 PUBLIC 'DATA'
_DATA	ENDS
;	COMDAT ??_R0?AVlength_error@std@@@8
_DATA	SEGMENT DWORD USE32 PUBLIC 'DATA'
_DATA	ENDS
;	COMDAT __TI3?AVlength_error@std@@
xdata$x	SEGMENT DWORD USE32 PUBLIC 'CONST'
xdata$x	ENDS
;	COMDAT ??1?$basic_string@DU?$char_traits@D@std@@V?$allocator@D@2@@std@@QAE@XZ
_TEXT	SEGMENT PARA USE32 PUBLIC 'CODE'
_TEXT	ENDS
;	COMDAT ??0length_error@std@@QAE@ABV?$basic_string@DU?$char_traits@D@std@@V?$allocator@D@2@@1@@Z
_TEXT	SEGMENT PARA USE32 PUBLIC 'CODE'
_TEXT	ENDS
;	COMDAT ??0logic_error@std@@QAE@ABV?$basic_string@DU?$char_traits@D@std@@V?$allocator@D@2@@1@@Z
_TEXT	SEGMENT PARA USE32 PUBLIC 'CODE'
_TEXT	ENDS
;	COMDAT ?Attach@?$CSimpleStringT@D$0A@@ATL@@AAEXPAUCStringData@2@@Z
_TEXT	SEGMENT PARA USE32 PUBLIC 'CODE'
_TEXT	ENDS
;	COMDAT ?data@CStringData@ATL@@QAEPAXXZ
_TEXT	SEGMENT PARA USE32 PUBLIC 'CODE'
_TEXT	ENDS
;	COMDAT ?Release@CStringData@ATL@@QAEXXZ
_TEXT	SEGMENT PARA USE32 PUBLIC 'CODE'
_TEXT	ENDS
;	COMDAT ?CloneData@?$CSimpleStringT@D$0A@@ATL@@CAPAUCStringData@2@PAU32@@Z
_TEXT	SEGMENT PARA USE32 PUBLIC 'CODE'
_TEXT	ENDS
;	COMDAT ?AddRef@CStringData@ATL@@QAEXXZ
_TEXT	SEGMENT PARA USE32 PUBLIC 'CODE'
_TEXT	ENDS
;	COMDAT ?SetString@?$CSimpleStringT@D$0A@@ATL@@QAEXPBDH@Z
_TEXT	SEGMENT PARA USE32 PUBLIC 'CODE'
_TEXT	ENDS
;	COMDAT ?Empty@?$CSimpleStringT@D$0A@@ATL@@QAEXXZ
_TEXT	SEGMENT PARA USE32 PUBLIC 'CODE'
_TEXT	ENDS
;	COMDAT ?CopyCharsOverlapped@?$CSimpleStringT@D$0A@@ATL@@SAXPADPBDH@Z
_TEXT	SEGMENT PARA USE32 PUBLIC 'CODE'
_TEXT	ENDS
;	COMDAT ?IsLocked@CStringData@ATL@@QBE_NXZ
_TEXT	SEGMENT PARA USE32 PUBLIC 'CODE'
_TEXT	ENDS
;	COMDAT ?GetData@?$CSimpleStringT@D$0A@@ATL@@ABEPAUCStringData@2@XZ
_TEXT	SEGMENT PARA USE32 PUBLIC 'CODE'
_TEXT	ENDS
;	COMDAT ?ReleaseBufferSetLength@?$CSimpleStringT@D$0A@@ATL@@QAEXH@Z
_TEXT	SEGMENT PARA USE32 PUBLIC 'CODE'
_TEXT	ENDS
;	COMDAT ?Format@?$ChTraitsCRT@D@ATL@@SAHPADPBD0@Z
_TEXT	SEGMENT PARA USE32 PUBLIC 'CODE'
_TEXT	ENDS
;	COMDAT ?GetBuffer@?$CSimpleStringT@D$0A@@ATL@@QAEPADH@Z
_TEXT	SEGMENT PARA USE32 PUBLIC 'CODE'
_TEXT	ENDS
;	COMDAT ?PrepareWrite@?$CSimpleStringT@D$0A@@ATL@@AAEPADH@Z
_TEXT	SEGMENT PARA USE32 PUBLIC 'CODE'
_TEXT	ENDS
;	COMDAT ?PrepareWrite2@?$CSimpleStringT@D$0A@@ATL@@AAEXH@Z
_TEXT	SEGMENT PARA USE32 PUBLIC 'CODE'
_TEXT	ENDS
;	COMDAT ?IsShared@CStringData@ATL@@QBE_NXZ
_TEXT	SEGMENT PARA USE32 PUBLIC 'CODE'
_TEXT	ENDS
;	COMDAT ?Fork@?$CSimpleStringT@D$0A@@ATL@@AAEXH@Z
_TEXT	SEGMENT PARA USE32 PUBLIC 'CODE'
_TEXT	ENDS
;	COMDAT ?Reallocate@?$CSimpleStringT@D$0A@@ATL@@AAEXH@Z
_TEXT	SEGMENT PARA USE32 PUBLIC 'CODE'
_TEXT	ENDS
;	COMDAT ?GetFormattedLength@?$ChTraitsCRT@D@ATL@@SAHPBDPAD@Z
_TEXT	SEGMENT PARA USE32 PUBLIC 'CODE'
_TEXT	ENDS
;	COMDAT ??1?$CSimpleStringT@D$0A@@ATL@@QAE@XZ
_TEXT	SEGMENT PARA USE32 PUBLIC 'CODE'
_TEXT	ENDS
;	COMDAT ??0?$CSimpleStringT@D$0A@@ATL@@QAE@PAUIAtlStringMgr@1@@Z
_TEXT	SEGMENT PARA USE32 PUBLIC 'CODE'
_TEXT	ENDS
;	COMDAT ??1CAtlModule@ATL@@UAE@XZ
_TEXT	SEGMENT PARA USE32 PUBLIC 'CODE'
_TEXT	ENDS
;	COMDAT ?_pPerfUnRegFunc@ATL@@3P6AJXZA
_DATA	SEGMENT DWORD USE32 PUBLIC 'DATA'
_DATA	ENDS
;	COMDAT ?_pPerfRegFunc@ATL@@3P6AJPAUHINSTANCE__@@@ZA
_DATA	SEGMENT DWORD USE32 PUBLIC 'DATA'
_DATA	ENDS
;	COMDAT ?Decrement@CComMultiThreadModel@ATL@@SGKPAJ@Z
_TEXT	SEGMENT PARA USE32 PUBLIC 'CODE'
_TEXT	ENDS
;	COMDAT ?Term@CAtlModule@ATL@@QAEXXZ
_TEXT	SEGMENT PARA USE32 PUBLIC 'CODE'
_TEXT	ENDS
;	COMDAT ?AtlCallTermFunc@ATL@@YGXPAU_ATL_MODULE70@1@@Z
_TEXT	SEGMENT PARA USE32 PUBLIC 'CODE'
_TEXT	ENDS
;	COMDAT ?_AtlRaiseException@ATL@@YAXKK@Z
_TEXT	SEGMENT PARA USE32 PUBLIC 'CODE'
_TEXT	ENDS
;	COMDAT ?Term@CComCriticalSection@ATL@@QAEJXZ
_TEXT	SEGMENT PARA USE32 PUBLIC 'CODE'
_TEXT	ENDS
;	COMDAT ?Unlock@CAtlModule@ATL@@UAEJXZ
_TEXT	SEGMENT PARA USE32 PUBLIC 'CODE'
_TEXT	ENDS
;	COMDAT ?GetString@?$CSimpleStringT@D$0A@@ATL@@QBEPBDXZ
_TEXT	SEGMENT PARA USE32 PUBLIC 'CODE'
_TEXT	ENDS
;	COMDAT ?AtlThrow@ATL@@YGXJ@Z
_TEXT	SEGMENT PARA USE32 PUBLIC 'CODE'
_TEXT	ENDS
;	COMDAT ??0CAtlException@ATL@@QAE@J@Z
_TEXT	SEGMENT PARA USE32 PUBLIC 'CODE'
_TEXT	ENDS
;	COMDAT __TI1?AVCAtlException@ATL@@
xdata$x	SEGMENT DWORD USE32 PUBLIC 'CONST'
xdata$x	ENDS
;	COMDAT __CTA1?AVCAtlException@ATL@@
xdata$x	SEGMENT DWORD USE32 PUBLIC 'CONST'
xdata$x	ENDS
;	COMDAT __CT??_R0?AVCAtlException@ATL@@@84
xdata$x	SEGMENT DWORD USE32 PUBLIC 'CONST'
xdata$x	ENDS
;	COMDAT ??_R0?AVCAtlException@ATL@@@8
_DATA	SEGMENT DWORD USE32 PUBLIC 'DATA'
_DATA	ENDS
;	COMDAT ?GetLength@?$CSimpleStringT@D$0A@@ATL@@QBEHXZ
_TEXT	SEGMENT PARA USE32 PUBLIC 'CODE'
_TEXT	ENDS
;	COMDAT ?GetTime@CTime@ATL@@QBE_JXZ
_TEXT	SEGMENT PARA USE32 PUBLIC 'CODE'
_TEXT	ENDS
;	COMDAT ?GetYear@CTime@ATL@@QBEHXZ
_TEXT	SEGMENT PARA USE32 PUBLIC 'CODE'
_TEXT	ENDS
;	COMDAT ?GetLocalTm@CTime@ATL@@QBEPAUtm@@PAU3@@Z
_TEXT	SEGMENT PARA USE32 PUBLIC 'CODE'
_TEXT	ENDS
;	COMDAT ?GetMonth@CTime@ATL@@QBEHXZ
_TEXT	SEGMENT PARA USE32 PUBLIC 'CODE'
_TEXT	ENDS
;	COMDAT ?GetDay@CTime@ATL@@QBEHXZ
_TEXT	SEGMENT PARA USE32 PUBLIC 'CODE'
_TEXT	ENDS
;	COMDAT ?GetHour@CTime@ATL@@QBEHXZ
_TEXT	SEGMENT PARA USE32 PUBLIC 'CODE'
_TEXT	ENDS
;	COMDAT ?GetMinute@CTime@ATL@@QBEHXZ
_TEXT	SEGMENT PARA USE32 PUBLIC 'CODE'
_TEXT	ENDS
;	COMDAT ?GetSecond@CTime@ATL@@QBEHXZ
_TEXT	SEGMENT PARA USE32 PUBLIC 'CODE'
_TEXT	ENDS
;	COMDAT ??0CTime@ATL@@QAE@HHHHHHH@Z
_TEXT	SEGMENT PARA USE32 PUBLIC 'CODE'
_TEXT	ENDS
;	COMDAT ?GetTickCount@CTime@ATL@@SG?AV12@XZ
_TEXT	SEGMENT PARA USE32 PUBLIC 'CODE'
_TEXT	ENDS
;	COMDAT ??0CTime@ATL@@QAE@_J@Z
_TEXT	SEGMENT PARA USE32 PUBLIC 'CODE'
_TEXT	ENDS
;	COMDAT ??0?$CStringT@DV?$StrTraitATL@DV?$ChTraitsCRT@D@ATL@@@ATL@@@ATL@@QAE@ABV01@@Z
_TEXT	SEGMENT PARA USE32 PUBLIC 'CODE'
_TEXT	ENDS
;	COMDAT ??0?$CSimpleStringT@D$0A@@ATL@@QAE@ABV01@@Z
_TEXT	SEGMENT PARA USE32 PUBLIC 'CODE'
_TEXT	ENDS
;	COMDAT ??_C@_00CNPNBAHC@?$AA@
CONST	SEGMENT DWORD USE32 PUBLIC 'CONST'
CONST	ENDS
;	COMDAT ?tick@?1??OnCT_SERVICEMONITOR_ACK@CTRelaySvrModule@@IAEKPAUtagPACKETBUF@@@Z@4KA
_BSS	SEGMENT DWORD USE32 PUBLIC 'BSS'
_BSS	ENDS
;	COMDAT ?$S5@?1??OnCT_SERVICEMONITOR_ACK@CTRelaySvrModule@@IAEKPAUtagPACKETBUF@@@Z@4IA
_BSS	SEGMENT DWORD USE32 PUBLIC 'BSS'
_BSS	ENDS
;	COMDAT ?AtlLoadString@ATL@@YAHIPADH@Z
_TEXT	SEGMENT PARA USE32 PUBLIC 'CODE'
_TEXT	ENDS
;	COMDAT ??0?$CStringT@DV?$StrTraitATL@DV?$ChTraitsCRT@D@ATL@@@ATL@@@ATL@@QAE@XZ
_TEXT	SEGMENT PARA USE32 PUBLIC 'CODE'
_TEXT	ENDS
;	COMDAT ?GetDefaultManager@?$StrTraitATL@DV?$ChTraitsCRT@D@ATL@@@ATL@@SAPAUIAtlStringMgr@2@XZ
_TEXT	SEGMENT PARA USE32 PUBLIC 'CODE'
_TEXT	ENDS
;	COMDAT ??B?$CSimpleStringT@D$0A@@ATL@@QBEPBDXZ
_TEXT	SEGMENT PARA USE32 PUBLIC 'CODE'
_TEXT	ENDS
;	COMDAT ??1?$CStringT@DV?$StrTraitATL@DV?$ChTraitsCRT@D@ATL@@@ATL@@@ATL@@QAE@XZ
_TEXT	SEGMENT PARA USE32 PUBLIC 'CODE'
_TEXT	ENDS
;	COMDAT ??0?$CStringT@DV?$StrTraitATL@DV?$ChTraitsCRT@D@ATL@@@ATL@@@ATL@@QAE@PBD@Z
_TEXT	SEGMENT PARA USE32 PUBLIC 'CODE'
_TEXT	ENDS
;	COMDAT ?CheckImplicitLoad@?$CStringT@DV?$StrTraitATL@DV?$ChTraitsCRT@D@ATL@@@ATL@@@ATL@@AAE_NPBX@Z
_TEXT	SEGMENT PARA USE32 PUBLIC 'CODE'
_TEXT	ENDS
;	COMDAT ?LoadStringA@?$CStringT@DV?$StrTraitATL@DV?$ChTraitsCRT@D@ATL@@@ATL@@@ATL@@QAEHI@Z
_TEXT	SEGMENT PARA USE32 PUBLIC 'CODE'
_TEXT	ENDS
;	COMDAT ?FindStringResourceInstance@?$StrTraitATL@DV?$ChTraitsCRT@D@ATL@@@ATL@@SAPAUHINSTANCE__@@I@Z
_TEXT	SEGMENT PARA USE32 PUBLIC 'CODE'
_TEXT	ENDS
;	COMDAT ?AtlFindStringResourceInstance@ATL@@YAPAUHINSTANCE__@@IG@Z
_TEXT	SEGMENT PARA USE32 PUBLIC 'CODE'
_TEXT	ENDS
;	COMDAT ?AtlGetStringResourceImage@ATL@@YAPBUATLSTRINGRESOURCEIMAGE@1@PAUHINSTANCE__@@IG@Z
_TEXT	SEGMENT PARA USE32 PUBLIC 'CODE'
_TEXT	ENDS
;	COMDAT ?_AtlGetStringResourceImage@ATL@@YAPBUATLSTRINGRESOURCEIMAGE@1@PAUHINSTANCE__@@PAUHRSRC__@@I@Z
_TEXT	SEGMENT PARA USE32 PUBLIC 'CODE'
_TEXT	ENDS
;	COMDAT ?LoadStringA@?$CStringT@DV?$StrTraitATL@DV?$ChTraitsCRT@D@ATL@@@ATL@@@ATL@@QAEHPAUHINSTANCE__@@I@Z
_TEXT	SEGMENT PARA USE32 PUBLIC 'CODE'
_TEXT	ENDS
;	COMDAT ?AtlGetStringResourceImage@ATL@@YAPBUATLSTRINGRESOURCEIMAGE@1@PAUHINSTANCE__@@I@Z
_TEXT	SEGMENT PARA USE32 PUBLIC 'CODE'
_TEXT	ENDS
;	COMDAT ?GetBaseTypeLength@?$ChTraitsCRT@D@ATL@@SAHPBGH@Z
_TEXT	SEGMENT PARA USE32 PUBLIC 'CODE'
_TEXT	ENDS
;	COMDAT ?_AtlGetConversionACP@ATL@@YGIXZ
_TEXT	SEGMENT PARA USE32 PUBLIC 'CODE'
_TEXT	ENDS
;	COMDAT ?g_pfnGetThreadACP@ATL@@3P6GIXZA
_DATA	SEGMENT DWORD USE32 PUBLIC 'DATA'
_DATA	ENDS
;	COMDAT ?_AtlGetThreadACPThunk@ATL@@YGIXZ
_TEXT	SEGMENT PARA USE32 PUBLIC 'CODE'
_TEXT	ENDS
;	COMDAT ?_AtlGetThreadACPReal@ATL@@YGIXZ
_TEXT	SEGMENT PARA USE32 PUBLIC 'CODE'
_TEXT	ENDS
;	COMDAT ?_AtlGetThreadACPFake@ATL@@YGIXZ
_TEXT	SEGMENT PARA USE32 PUBLIC 'CODE'
_TEXT	ENDS
;	COMDAT ?InterlockedExchangePointer@@YGPAXPAPAXPAX@Z
_TEXT	SEGMENT PARA USE32 PUBLIC 'CODE'
_TEXT	ENDS
;	COMDAT ?ConvertToBaseType@?$ChTraitsCRT@D@ATL@@SAXPADHPBGH@Z
_TEXT	SEGMENT PARA USE32 PUBLIC 'CODE'
_TEXT	ENDS
;	COMDAT ??4?$CStringT@DV?$StrTraitATL@DV?$ChTraitsCRT@D@ATL@@@ATL@@@ATL@@QAEAAV01@PBD@Z
_TEXT	SEGMENT PARA USE32 PUBLIC 'CODE'
_TEXT	ENDS
;	COMDAT ??4?$CSimpleStringT@D$0A@@ATL@@QAEAAV01@PBD@Z
_TEXT	SEGMENT PARA USE32 PUBLIC 'CODE'
_TEXT	ENDS
;	COMDAT ?SetString@?$CSimpleStringT@D$0A@@ATL@@QAEXPBD@Z
_TEXT	SEGMENT PARA USE32 PUBLIC 'CODE'
_TEXT	ENDS
;	COMDAT ?StringLength@?$CSimpleStringT@D$0A@@ATL@@SAHPBD@Z
_TEXT	SEGMENT PARA USE32 PUBLIC 'CODE'
_TEXT	ENDS
;	COMDAT ?WordCmpI@CAtlModule@ATL@@SAHPBD0@Z
_TEXT	SEGMENT PARA USE32 PUBLIC 'CODE'
_TEXT	ENDS
;	COMDAT ?FindOneOf@CAtlModule@ATL@@SAPBDPBD0@Z
_TEXT	SEGMENT PARA USE32 PUBLIC 'CODE'
_TEXT	ENDS
;	COMDAT ?SetStringValue@CRegKey@ATL@@QAEJPBD0K@Z
_TEXT	SEGMENT PARA USE32 PUBLIC 'CODE'
_TEXT	ENDS
;	COMDAT ?DeleteValue@CRegKey@ATL@@QAEJPBD@Z
_TEXT	SEGMENT PARA USE32 PUBLIC 'CODE'
_TEXT	ENDS
;	COMDAT ??BCRegKey@ATL@@QBEPAUHKEY__@@XZ
_TEXT	SEGMENT PARA USE32 PUBLIC 'CODE'
_TEXT	ENDS
;	COMDAT ?Create@CRegKey@ATL@@QAEJPAUHKEY__@@PBDPADKKPAU_SECURITY_ATTRIBUTES@@PAK@Z
_TEXT	SEGMENT PARA USE32 PUBLIC 'CODE'
_TEXT	ENDS
;	COMDAT ?Close@CRegKey@ATL@@QAEJXZ
_TEXT	SEGMENT PARA USE32 PUBLIC 'CODE'
_TEXT	ENDS
;	COMDAT ?AtlHresultFromWin32@ATL@@YAJK@Z
_TEXT	SEGMENT PARA USE32 PUBLIC 'CODE'
_TEXT	ENDS
;	COMDAT ??_C@_05PDIKPLII@AppID?$AA@
CONST	SEGMENT DWORD USE32 PUBLIC 'CONST'
CONST	ENDS
;	COMDAT ?Open@CRegKey@ATL@@QAEJPAUHKEY__@@PBDK@Z
_TEXT	SEGMENT PARA USE32 PUBLIC 'CODE'
_TEXT	ENDS
;	COMDAT ??1CRegKey@ATL@@QAE@XZ
_TEXT	SEGMENT PARA USE32 PUBLIC 'CODE'
_TEXT	ENDS
;	COMDAT ??0CRegKey@ATL@@QAE@XZ
_TEXT	SEGMENT PARA USE32 PUBLIC 'CODE'
_TEXT	ENDS
;	COMDAT ?_pAtlModule@ATL@@3PAVCAtlModule@1@A
_DATA	SEGMENT DWORD USE32 PUBLIC 'DATA'
_DATA	ENDS
;	COMDAT ?UpdateRegistryFromResourceS@CAtlModule@ATL@@QAGJIHPAU_ATL_REGMAP_ENTRY@2@@Z
_TEXT	SEGMENT PARA USE32 PUBLIC 'CODE'
_TEXT	ENDS
;	COMDAT ??0CRegObject@ATL@@QAE@XZ
_TEXT	SEGMENT PARA USE32 PUBLIC 'CODE'
_TEXT	ENDS
;	COMDAT ??0IRegistrarBase@@QAE@XZ
_TEXT	SEGMENT PARA USE32 PUBLIC 'CODE'
_TEXT	ENDS
;	COMDAT ??0IUnknown@@QAE@XZ
_TEXT	SEGMENT PARA USE32 PUBLIC 'CODE'
_TEXT	ENDS
;	COMDAT ??_7CRegObject@ATL@@6B@
CONST	SEGMENT DWORD USE32 PUBLIC 'CONST'
CONST	ENDS
;	COMDAT ?QueryInterface@CRegObject@ATL@@UAGJABU_GUID@@PAPAX@Z
_TEXT	SEGMENT PARA USE32 PUBLIC 'CODE'
_TEXT	ENDS
;	COMDAT ?AddRef@CRegObject@ATL@@UAGKXZ
_TEXT	SEGMENT PARA USE32 PUBLIC 'CODE'
_TEXT	ENDS
;	COMDAT ?Release@CRegObject@ATL@@UAGKXZ
_TEXT	SEGMENT PARA USE32 PUBLIC 'CODE'
_TEXT	ENDS
;	COMDAT ?ClearReplacements@CRegObject@ATL@@UAGJXZ
_TEXT	SEGMENT PARA USE32 PUBLIC 'CODE'
_TEXT	ENDS
;	COMDAT ?Lock@CComFakeCriticalSection@ATL@@QAEJXZ
_TEXT	SEGMENT PARA USE32 PUBLIC 'CODE'
_TEXT	ENDS
;	COMDAT ?ClearReplacements@CExpansionVector@ATL@@QAEJXZ
_TEXT	SEGMENT PARA USE32 PUBLIC 'CODE'
_TEXT	ENDS
;	COMDAT ?GetSize@?$CSimpleMap@PADPAGVCExpansionVectorEqualHelper@ATL@@@ATL@@QBEHXZ
_TEXT	SEGMENT PARA USE32 PUBLIC 'CODE'
_TEXT	ENDS
;	COMDAT ?GetKeyAt@?$CSimpleMap@PADPAGVCExpansionVectorEqualHelper@ATL@@@ATL@@QBEAAPADH@Z
_TEXT	SEGMENT PARA USE32 PUBLIC 'CODE'
_TEXT	ENDS
;	COMDAT ?GetValueAt@?$CSimpleMap@PADPAGVCExpansionVectorEqualHelper@ATL@@@ATL@@QBEAAPAGH@Z
_TEXT	SEGMENT PARA USE32 PUBLIC 'CODE'
_TEXT	ENDS
;	COMDAT ?RemoveAll@?$CSimpleMap@PADPAGVCExpansionVectorEqualHelper@ATL@@@ATL@@QAEXXZ
_TEXT	SEGMENT PARA USE32 PUBLIC 'CODE'
_TEXT	ENDS
;	COMDAT ?Unlock@CComFakeCriticalSection@ATL@@QAEJXZ
_TEXT	SEGMENT PARA USE32 PUBLIC 'CODE'
_TEXT	ENDS
;	COMDAT ??_GCRegObject@ATL@@UAEPAXI@Z
_TEXT	SEGMENT PARA USE32 PUBLIC 'CODE'
_TEXT	ENDS
;	COMDAT ??0CExpansionVector@ATL@@QAE@XZ
_TEXT	SEGMENT PARA USE32 PUBLIC 'CODE'
_TEXT	ENDS
;	COMDAT ??0?$CSimpleMap@PADPAGVCExpansionVectorEqualHelper@ATL@@@ATL@@QAE@XZ
_TEXT	SEGMENT PARA USE32 PUBLIC 'CODE'
_TEXT	ENDS
;	COMDAT ??1?$CSimpleMap@PADPAGVCExpansionVectorEqualHelper@ATL@@@ATL@@QAE@XZ
_TEXT	SEGMENT PARA USE32 PUBLIC 'CODE'
_TEXT	ENDS
;	COMDAT ??1CExpansionVector@ATL@@QAE@XZ
_TEXT	SEGMENT PARA USE32 PUBLIC 'CODE'
_TEXT	ENDS
;	COMDAT ??1CRegObject@ATL@@UAE@XZ
_TEXT	SEGMENT PARA USE32 PUBLIC 'CODE'
_TEXT	ENDS
;	COMDAT ??0?$CAtlSafeAllocBufferManager@VCCRTAllocator@ATL@@@_ATL_SAFE_ALLOCA_IMPL@ATL@@QAE@XZ
_TEXT	SEGMENT PARA USE32 PUBLIC 'CODE'
_TEXT	ENDS
;	COMDAT ??1?$CAtlSafeAllocBufferManager@VCCRTAllocator@ATL@@@_ATL_SAFE_ALLOCA_IMPL@ATL@@QAE@XZ
_TEXT	SEGMENT PARA USE32 PUBLIC 'CODE'
_TEXT	ENDS
;	COMDAT ?Free@CCRTAllocator@ATL@@SAXPAX@Z
_TEXT	SEGMENT PARA USE32 PUBLIC 'CODE'
_TEXT	ENDS
;	COMDAT ?GetModuleInstance@CAtlBaseModule@ATL@@QAEPAUHINSTANCE__@@XZ
_TEXT	SEGMENT PARA USE32 PUBLIC 'CODE'
_TEXT	ENDS
;	COMDAT ?AtlHresultFromLastError@ATL@@YAJXZ
_TEXT	SEGMENT PARA USE32 PUBLIC 'CODE'
_TEXT	ENDS
;	COMDAT ?AtlA2WHelper@@YGPAGPAGPBDHI@Z
_TEXT	SEGMENT PARA USE32 PUBLIC 'CODE'
_TEXT	ENDS
;	COMDAT ?_AtlVerifyStackAvailable@_ATL_SAFE_ALLOCA_IMPL@ATL@@YA_NK@Z
_TEXT	SEGMENT PARA USE32 PUBLIC 'CODE'
_TEXT	ENDS
;	COMDAT ?Allocate@?$CAtlSafeAllocBufferManager@VCCRTAllocator@ATL@@@_ATL_SAFE_ALLOCA_IMPL@ATL@@QAEPAXK@Z
_TEXT	SEGMENT PARA USE32 PUBLIC 'CODE'
_TEXT	ENDS
;	COMDAT ?Allocate@CCRTAllocator@ATL@@SAPAXI@Z
_TEXT	SEGMENT PARA USE32 PUBLIC 'CODE'
_TEXT	ENDS
;	COMDAT ?GetData@CAtlSafeAllocBufferNode@?$CAtlSafeAllocBufferManager@VCCRTAllocator@ATL@@@_ATL_SAFE_ALLOCA_IMPL@ATL@@QAEPAXXZ
_TEXT	SEGMENT PARA USE32 PUBLIC 'CODE'
_TEXT	ENDS
;	COMDAT ?EscapeSingleQuote@CAtlModule@ATL@@SAXPAGPBG@Z
_TEXT	SEGMENT PARA USE32 PUBLIC 'CODE'
_TEXT	ENDS
;	COMDAT ?ocscpy@@YAPAGPAGPBG@Z
_TEXT	SEGMENT PARA USE32 PUBLIC 'CODE'
_TEXT	ENDS
;	COMDAT ?ocslen@@YAHPBG@Z
_TEXT	SEGMENT PARA USE32 PUBLIC 'CODE'
_TEXT	ENDS
;	COMDAT ??_C@_1O@MNLDABAF@?$AAM?$AAo?$AAd?$AAu?$AAl?$AAe?$AA?$AA@
CONST	SEGMENT DWORD USE32 PUBLIC 'CONST'
CONST	ENDS
;	COMDAT ?AddReplacement@CRegObject@ATL@@UAGJPBG0@Z
_TEXT	SEGMENT PARA USE32 PUBLIC 'CODE'
_TEXT	ENDS
;	COMDAT ?AtlW2AHelper@@YGPADPADPBGHI@Z
_TEXT	SEGMENT PARA USE32 PUBLIC 'CODE'
_TEXT	ENDS
;	COMDAT ?Add@CExpansionVector@ATL@@QAEHPBDPBG@Z
_TEXT	SEGMENT PARA USE32 PUBLIC 'CODE'
_TEXT	ENDS
;	COMDAT ?Add@?$CSimpleMap@PADPAGVCExpansionVectorEqualHelper@ATL@@@ATL@@QAEHABQADABQAG@Z
_TEXT	SEGMENT PARA USE32 PUBLIC 'CODE'
_TEXT	ENDS
;	COMDAT ?InternalSetAtIndex@?$CSimpleMap@PADPAGVCExpansionVectorEqualHelper@ATL@@@ATL@@QAEXHABQADABQAG@Z
_TEXT	SEGMENT PARA USE32 PUBLIC 'CODE'
_TEXT	ENDS
;	COMDAT ??$?2PAD@?$Wrapper@PAD@?$CSimpleMap@PADPAGVCExpansionVectorEqualHelper@ATL@@@ATL@@SAPAXIPAPAD@Z
_TEXT	SEGMENT PARA USE32 PUBLIC 'CODE'
_TEXT	ENDS
;	COMDAT ??$?3PAD@?$Wrapper@PAD@?$CSimpleMap@PADPAGVCExpansionVectorEqualHelper@ATL@@@ATL@@SAXPAXPAPAD@Z
_TEXT	SEGMENT PARA USE32 PUBLIC 'CODE'
_TEXT	ENDS
;	COMDAT ??0?$Wrapper@PAD@?$CSimpleMap@PADPAGVCExpansionVectorEqualHelper@ATL@@@ATL@@QAE@ABQAD@Z
_TEXT	SEGMENT PARA USE32 PUBLIC 'CODE'
_TEXT	ENDS
;	COMDAT ??$?2PAG@?$Wrapper@PAG@?$CSimpleMap@PADPAGVCExpansionVectorEqualHelper@ATL@@@ATL@@SAPAXIPAPAG@Z
_TEXT	SEGMENT PARA USE32 PUBLIC 'CODE'
_TEXT	ENDS
;	COMDAT ??$?3PAG@?$Wrapper@PAG@?$CSimpleMap@PADPAGVCExpansionVectorEqualHelper@ATL@@@ATL@@SAXPAXPAPAG@Z
_TEXT	SEGMENT PARA USE32 PUBLIC 'CODE'
_TEXT	ENDS
;	COMDAT ??0?$Wrapper@PAG@?$CSimpleMap@PADPAGVCExpansionVectorEqualHelper@ATL@@@ATL@@QAE@ABQAG@Z
_TEXT	SEGMENT PARA USE32 PUBLIC 'CODE'
_TEXT	ENDS
;	COMDAT ??_C@_1BG@JBACFMF@?$AAM?$AAo?$AAd?$AAu?$AAl?$AAe?$AA_?$AAR?$AAa?$AAw?$AA?$AA@
CONST	SEGMENT DWORD USE32 PUBLIC 'CONST'
CONST	ENDS
;	COMDAT ??_C@_1BC@KAILKFFG@?$AAR?$AAE?$AAG?$AAI?$AAS?$AAT?$AAR?$AAY?$AA?$AA@
CONST	SEGMENT DWORD USE32 PUBLIC 'CONST'
CONST	ENDS
;	COMDAT ?ResourceRegister@CRegObject@ATL@@QAGJPBGI0@Z
_TEXT	SEGMENT PARA USE32 PUBLIC 'CODE'
_TEXT	ENDS
;	COMDAT ?RegisterFromResource@CRegObject@ATL@@IAEJPBGPBD1H@Z
_TEXT	SEGMENT PARA USE32 PUBLIC 'CODE'
_TEXT	ENDS
;	COMDAT ??0CRegParser@ATL@@QAE@PAVCRegObject@1@@Z
_TEXT	SEGMENT PARA USE32 PUBLIC 'CODE'
_TEXT	ENDS
;	COMDAT ??0?$CTempBuffer@D$0EAA@VCCRTAllocator@ATL@@@ATL@@QAE@XZ
_TEXT	SEGMENT PARA USE32 PUBLIC 'CODE'
_TEXT	ENDS
;	COMDAT ??1?$CTempBuffer@D$0EAA@VCCRTAllocator@ATL@@@ATL@@QAE@XZ
_TEXT	SEGMENT PARA USE32 PUBLIC 'CODE'
_TEXT	ENDS
;	COMDAT ?FreeHeap@?$CTempBuffer@D$0EAA@VCCRTAllocator@ATL@@@ATL@@AAEXXZ
_TEXT	SEGMENT PARA USE32 PUBLIC 'CODE'
_TEXT	ENDS
;	COMDAT ?Allocate@?$CTempBuffer@D$0EAA@VCCRTAllocator@ATL@@@ATL@@QAEPADI@Z
_TEXT	SEGMENT PARA USE32 PUBLIC 'CODE'
_TEXT	ENDS
;	COMDAT ?AllocateBytes@?$CTempBuffer@D$0EAA@VCCRTAllocator@ATL@@@ATL@@QAEPADI@Z
_TEXT	SEGMENT PARA USE32 PUBLIC 'CODE'
_TEXT	ENDS
;	COMDAT ?AllocateHeap@?$CTempBuffer@D$0EAA@VCCRTAllocator@ATL@@@ATL@@AAEXI@Z
_TEXT	SEGMENT PARA USE32 PUBLIC 'CODE'
_TEXT	ENDS
;	COMDAT ?RegisterBuffer@CRegParser@ATL@@QAEJPADH@Z
_TEXT	SEGMENT PARA USE32 PUBLIC 'CODE'
_TEXT	ENDS
;	COMDAT ?PreProcessBuffer@CRegParser@ATL@@QAEJPADPAPAD@Z
_TEXT	SEGMENT PARA USE32 PUBLIC 'CODE'
_TEXT	ENDS
;	COMDAT ??0CParseBuffer@CRegParser@ATL@@QAE@H@Z
_TEXT	SEGMENT PARA USE32 PUBLIC 'CODE'
_TEXT	ENDS
;	COMDAT ??1CParseBuffer@CRegParser@ATL@@QAE@XZ
_TEXT	SEGMENT PARA USE32 PUBLIC 'CODE'
_TEXT	ENDS
;	COMDAT ?StrChrA@CRegParser@ATL@@KAPADPADD@Z
_TEXT	SEGMENT PARA USE32 PUBLIC 'CODE'
_TEXT	ENDS
;	COMDAT ?StrFromMap@CRegObject@ATL@@QAEPBGPAD@Z
_TEXT	SEGMENT PARA USE32 PUBLIC 'CODE'
_TEXT	ENDS
;	COMDAT ?Lookup@?$CSimpleMap@PADPAGVCExpansionVectorEqualHelper@ATL@@@ATL@@QBEPAGABQAD@Z
_TEXT	SEGMENT PARA USE32 PUBLIC 'CODE'
_TEXT	ENDS
;	COMDAT ?FindKey@?$CSimpleMap@PADPAGVCExpansionVectorEqualHelper@ATL@@@ATL@@QBEHABQAD@Z
_TEXT	SEGMENT PARA USE32 PUBLIC 'CODE'
_TEXT	ENDS
;	COMDAT ?IsEqualKey@CExpansionVectorEqualHelper@ATL@@SA_NQAD0@Z
_TEXT	SEGMENT PARA USE32 PUBLIC 'CODE'
_TEXT	ENDS
;	COMDAT ?AddString@CParseBuffer@CRegParser@ATL@@QAEHPBG@Z
_TEXT	SEGMENT PARA USE32 PUBLIC 'CODE'
_TEXT	ENDS
;	COMDAT ?Append@CParseBuffer@CRegParser@ATL@@QAEHPBDH@Z
_TEXT	SEGMENT PARA USE32 PUBLIC 'CODE'
_TEXT	ENDS
;	COMDAT ?AddChar@CParseBuffer@CRegParser@ATL@@QAEHPBD@Z
_TEXT	SEGMENT PARA USE32 PUBLIC 'CODE'
_TEXT	ENDS
;	COMDAT ?Detach@CParseBuffer@CRegParser@ATL@@QAEPADXZ
_TEXT	SEGMENT PARA USE32 PUBLIC 'CODE'
_TEXT	ENDS
;	COMDAT ?HKeyFromString@CRegParser@ATL@@KAPAUHKEY__@@PAD@Z
_TEXT	SEGMENT PARA USE32 PUBLIC 'CODE'
_TEXT	ENDS
;	COMDAT ??_C@_04OHBKMIBJ@HKCR?$AA@
CONST	SEGMENT DWORD USE32 PUBLIC 'CONST'
CONST	ENDS
;	COMDAT ??_C@_04KIFLFONO@HKCU?$AA@
CONST	SEGMENT DWORD USE32 PUBLIC 'CONST'
CONST	ENDS
;	COMDAT ??_C@_04CBBMIBLK@HKLM?$AA@
CONST	SEGMENT DWORD USE32 PUBLIC 'CONST'
CONST	ENDS
;	COMDAT ??_C@_03DLBIJLAB@HKU?$AA@
CONST	SEGMENT DWORD USE32 PUBLIC 'CONST'
CONST	ENDS
;	COMDAT ??_C@_04OFOCGAOH@HKPD?$AA@
CONST	SEGMENT DWORD USE32 PUBLIC 'CONST'
CONST	ENDS
;	COMDAT ??_C@_04POMNGLEL@HKDD?$AA@
CONST	SEGMENT DWORD USE32 PUBLIC 'CONST'
CONST	ENDS
;	COMDAT ??_C@_04LEMDOLAJ@HKCC?$AA@
CONST	SEGMENT DWORD USE32 PUBLIC 'CONST'
CONST	ENDS
;	COMDAT ??_C@_0BC@JBJOLKMF@HKEY_CLASSES_ROOT?$AA@
CONST	SEGMENT DWORD USE32 PUBLIC 'CONST'
CONST	ENDS
;	COMDAT ??_C@_0BC@GMMMKLBI@HKEY_CURRENT_USER?$AA@
CONST	SEGMENT DWORD USE32 PUBLIC 'CONST'
CONST	ENDS
;	COMDAT ??_C@_0BD@GIIFIKDM@HKEY_LOCAL_MACHINE?$AA@
CONST	SEGMENT DWORD USE32 PUBLIC 'CONST'
CONST	ENDS
;	COMDAT ??_C@_0L@OEMMANAM@HKEY_USERS?$AA@
CONST	SEGMENT DWORD USE32 PUBLIC 'CONST'
CONST	ENDS
;	COMDAT ??_C@_0BG@IDBEHNDO@HKEY_PERFORMANCE_DATA?$AA@
CONST	SEGMENT DWORD USE32 PUBLIC 'CONST'
CONST	ENDS
;	COMDAT ??_C@_0O@MJDLIIGK@HKEY_DYN_DATA?$AA@
CONST	SEGMENT DWORD USE32 PUBLIC 'CONST'
CONST	ENDS
;	COMDAT ??_C@_0BE@NLNNHLLF@HKEY_CURRENT_CONFIG?$AA@
CONST	SEGMENT DWORD USE32 PUBLIC 'CONST'
CONST	ENDS
;	COMDAT ?map@?2??HKeyFromString@CRegParser@ATL@@KAPAUHKEY__@@PAD@Z@4QBUkeymap@23@B
CONST	SEGMENT DWORD USE32 PUBLIC 'CONST'
CONST	ENDS
;	COMDAT ?NextToken@CRegParser@ATL@@IAEJPAD@Z
_TEXT	SEGMENT PARA USE32 PUBLIC 'CODE'
_TEXT	ENDS
;	COMDAT ?EndOfVar@CRegParser@ATL@@IAEHXZ
_TEXT	SEGMENT PARA USE32 PUBLIC 'CODE'
_TEXT	ENDS
;	COMDAT ?IsSpace@CRegParser@ATL@@IAEHD@Z
_TEXT	SEGMENT PARA USE32 PUBLIC 'CODE'
_TEXT	ENDS
;	COMDAT ?GenerateError@CRegParser@ATL@@IAEJI@Z
_TEXT	SEGMENT PARA USE32 PUBLIC 'CODE'
_TEXT	ENDS
;	COMDAT ?RegisterSubkeys@CRegParser@ATL@@IAEJPADPAUHKEY__@@HH@Z
_TEXT	SEGMENT PARA USE32 PUBLIC 'CODE'
_TEXT	ENDS
;	COMDAT ??_C@_06JBKGCNBB@Delete?$AA@
CONST	SEGMENT DWORD USE32 PUBLIC 'CONST'
CONST	ENDS
;	COMDAT ??_C@_0M@DBGDLGLL@ForceRemove?$AA@
CONST	SEGMENT DWORD USE32 PUBLIC 'CONST'
CONST	ENDS
;	COMDAT ??_C@_08KAAPDIAN@NoRemove?$AA@
CONST	SEGMENT DWORD USE32 PUBLIC 'CONST'
CONST	ENDS
;	COMDAT ??_C@_03LAIAPFCB@Val?$AA@
CONST	SEGMENT DWORD USE32 PUBLIC 'CONST'
CONST	ENDS
;	COMDAT ?AddValue@CRegParser@ATL@@IAEJAAVCRegKey@2@PBDPAD@Z
_TEXT	SEGMENT PARA USE32 PUBLIC 'CODE'
_TEXT	ENDS
;	COMDAT ?VTFromRegType@CRegParser@ATL@@KAHPBDAAG@Z
_TEXT	SEGMENT PARA USE32 PUBLIC 'CODE'
_TEXT	ENDS
;	COMDAT ??_C@_01CPLAODJH@S?$AA@
CONST	SEGMENT DWORD USE32 PUBLIC 'CONST'
CONST	ENDS
;	COMDAT ??_C@_01PLPBNMEI@M?$AA@
CONST	SEGMENT DWORD USE32 PUBLIC 'CONST'
CONST	ENDS
;	COMDAT ??_C@_01CKDDGHAB@D?$AA@
CONST	SEGMENT DWORD USE32 PUBLIC 'CONST'
CONST	ENDS
;	COMDAT ??_C@_01HMGJMAIH@B?$AA@
CONST	SEGMENT DWORD USE32 PUBLIC 'CONST'
CONST	ENDS
;	COMDAT ?map@?2??VTFromRegType@CRegParser@ATL@@KAHPBDAAG@Z@4QBUtypemap@23@B
_DATA	SEGMENT DWORD USE32 PUBLIC 'DATA'
_DATA	ENDS
;	COMDAT ?$S4@?2??VTFromRegType@CRegParser@ATL@@KAHPBDAAG@Z@4IA
_BSS	SEGMENT DWORD USE32 PUBLIC 'BSS'
_BSS	ENDS
;	COMDAT ??0?$CTempBuffer@D$0BAA@VCCRTAllocator@ATL@@@ATL@@QAE@XZ
_TEXT	SEGMENT PARA USE32 PUBLIC 'CODE'
_TEXT	ENDS
;	COMDAT ??1?$CTempBuffer@D$0BAA@VCCRTAllocator@ATL@@@ATL@@QAE@XZ
_TEXT	SEGMENT PARA USE32 PUBLIC 'CODE'
_TEXT	ENDS
;	COMDAT ?FreeHeap@?$CTempBuffer@D$0BAA@VCCRTAllocator@ATL@@@ATL@@AAEXXZ
_TEXT	SEGMENT PARA USE32 PUBLIC 'CODE'
_TEXT	ENDS
;	COMDAT ?Allocate@?$CTempBuffer@D$0BAA@VCCRTAllocator@ATL@@@ATL@@QAEPADI@Z
_TEXT	SEGMENT PARA USE32 PUBLIC 'CODE'
_TEXT	ENDS
;	COMDAT ?AllocateBytes@?$CTempBuffer@D$0BAA@VCCRTAllocator@ATL@@@ATL@@QAEPADI@Z
_TEXT	SEGMENT PARA USE32 PUBLIC 'CODE'
_TEXT	ENDS
;	COMDAT ?AllocateHeap@?$CTempBuffer@D$0BAA@VCCRTAllocator@ATL@@@ATL@@AAEXI@Z
_TEXT	SEGMENT PARA USE32 PUBLIC 'CODE'
_TEXT	ENDS
;	COMDAT ?SetMultiStringValue@CRegKey@ATL@@QAEJPBD0@Z
_TEXT	SEGMENT PARA USE32 PUBLIC 'CODE'
_TEXT	ENDS
;	COMDAT ??B?$CTempBuffer@D$0BAA@VCCRTAllocator@ATL@@@ATL@@QBEPADXZ
_TEXT	SEGMENT PARA USE32 PUBLIC 'CODE'
_TEXT	ENDS
;	COMDAT ?SetDWORDValue@CRegKey@ATL@@QAEJPBDK@Z
_TEXT	SEGMENT PARA USE32 PUBLIC 'CODE'
_TEXT	ENDS
;	COMDAT ??0?$CTempBuffer@E$0BAA@VCCRTAllocator@ATL@@@ATL@@QAE@XZ
_TEXT	SEGMENT PARA USE32 PUBLIC 'CODE'
_TEXT	ENDS
;	COMDAT ??1?$CTempBuffer@E$0BAA@VCCRTAllocator@ATL@@@ATL@@QAE@XZ
_TEXT	SEGMENT PARA USE32 PUBLIC 'CODE'
_TEXT	ENDS
;	COMDAT ?FreeHeap@?$CTempBuffer@E$0BAA@VCCRTAllocator@ATL@@@ATL@@AAEXXZ
_TEXT	SEGMENT PARA USE32 PUBLIC 'CODE'
_TEXT	ENDS
;	COMDAT ?Allocate@?$CTempBuffer@E$0BAA@VCCRTAllocator@ATL@@@ATL@@QAEPAEI@Z
_TEXT	SEGMENT PARA USE32 PUBLIC 'CODE'
_TEXT	ENDS
;	COMDAT ?AllocateBytes@?$CTempBuffer@E$0BAA@VCCRTAllocator@ATL@@@ATL@@QAEPAEI@Z
_TEXT	SEGMENT PARA USE32 PUBLIC 'CODE'
_TEXT	ENDS
;	COMDAT ?AllocateHeap@?$CTempBuffer@E$0BAA@VCCRTAllocator@ATL@@@ATL@@AAEXI@Z
_TEXT	SEGMENT PARA USE32 PUBLIC 'CODE'
_TEXT	ENDS
;	COMDAT ?ChToByte@CRegParser@ATL@@KAED@Z
_TEXT	SEGMENT PARA USE32 PUBLIC 'CODE'
_TEXT	ENDS
;	COMDAT ??B?$CTempBuffer@E$0BAA@VCCRTAllocator@ATL@@@ATL@@QBEPAEXZ
_TEXT	SEGMENT PARA USE32 PUBLIC 'CODE'
_TEXT	ENDS
;	COMDAT ?SkipAssignment@CRegParser@ATL@@IAEJPAD@Z
_TEXT	SEGMENT PARA USE32 PUBLIC 'CODE'
_TEXT	ENDS
;	COMDAT ?HasSubKeys@CRegParser@ATL@@IAEHPAUHKEY__@@@Z
_TEXT	SEGMENT PARA USE32 PUBLIC 'CODE'
_TEXT	ENDS
;	COMDAT ?CanForceRemoveKey@CRegParser@ATL@@IAEHPBD@Z
_TEXT	SEGMENT PARA USE32 PUBLIC 'CODE'
_TEXT	ENDS
;	COMDAT ?rgszNeverDelete@CRegParser@ATL@@1QBQBDB
CONST	SEGMENT DWORD USE32 PUBLIC 'CONST'
CONST	ENDS
;	COMDAT ??_C@_05GIBEAPNE@CLSID?$AA@
CONST	SEGMENT DWORD USE32 PUBLIC 'CONST'
CONST	ENDS
;	COMDAT ??_C@_0BF@HDDNNDFH@Component?5Categories?$AA@
CONST	SEGMENT DWORD USE32 PUBLIC 'CONST'
CONST	ENDS
;	COMDAT ??_C@_08PICKODJL@FileType?$AA@
CONST	SEGMENT DWORD USE32 PUBLIC 'CONST'
CONST	ENDS
;	COMDAT ??_C@_09JKPGEJCH@Interface?$AA@
CONST	SEGMENT DWORD USE32 PUBLIC 'CONST'
CONST	ENDS
;	COMDAT ??_C@_08PPIOJEA@Hardware?$AA@
CONST	SEGMENT DWORD USE32 PUBLIC 'CONST'
CONST	ENDS
;	COMDAT ??_C@_04IHBFOLAC@Mime?$AA@
CONST	SEGMENT DWORD USE32 PUBLIC 'CONST'
CONST	ENDS
;	COMDAT ??_C@_03DDIMFGBA@SAM?$AA@
CONST	SEGMENT DWORD USE32 PUBLIC 'CONST'
CONST	ENDS
;	COMDAT ??_C@_08LOPHEHKG@SECURITY?$AA@
CONST	SEGMENT DWORD USE32 PUBLIC 'CONST'
CONST	ENDS
;	COMDAT ??_C@_06FDHFNJBJ@SYSTEM?$AA@
CONST	SEGMENT DWORD USE32 PUBLIC 'CONST'
CONST	ENDS
;	COMDAT ??_C@_08KEKAJNJI@Software?$AA@
CONST	SEGMENT DWORD USE32 PUBLIC 'CONST'
CONST	ENDS
;	COMDAT ??_C@_07KJLOKDKB@TypeLib?$AA@
CONST	SEGMENT DWORD USE32 PUBLIC 'CONST'
CONST	ENDS
;	COMDAT ?RecurseDeleteKey@CRegKey@ATL@@QAEJPBD@Z
_TEXT	SEGMENT PARA USE32 PUBLIC 'CODE'
_TEXT	ENDS
;	COMDAT ?Attach@CRegKey@ATL@@QAEXPAUHKEY__@@@Z
_TEXT	SEGMENT PARA USE32 PUBLIC 'CODE'
_TEXT	ENDS
;	COMDAT ?DeleteSubKey@CRegKey@ATL@@QAEJPBD@Z
_TEXT	SEGMENT PARA USE32 PUBLIC 'CODE'
_TEXT	ENDS
;	COMDAT ?Detach@CRegKey@ATL@@QAEPAUHKEY__@@XZ
_TEXT	SEGMENT PARA USE32 PUBLIC 'CODE'
_TEXT	ENDS
;	COMDAT ?SkipWhiteSpace@CRegParser@ATL@@IAEXXZ
_TEXT	SEGMENT PARA USE32 PUBLIC 'CODE'
_TEXT	ENDS
;	COMDAT ??B?$CTempBuffer@D$0EAA@VCCRTAllocator@ATL@@@ATL@@QBEPADXZ
_TEXT	SEGMENT PARA USE32 PUBLIC 'CODE'
_TEXT	ENDS
;	COMDAT ?ResourceUnregister@CRegObject@ATL@@QAGJPBGI0@Z
_TEXT	SEGMENT PARA USE32 PUBLIC 'CODE'
_TEXT	ENDS
;	COMDAT ??_C@_1M@PPPPCDEP@?$AAA?$AAP?$AAP?$AAI?$AAD?$AA?$AA@
CONST	SEGMENT DWORD USE32 PUBLIC 'CONST'
CONST	ENDS
;	COMDAT ?m_libid@CAtlModule@ATL@@2U_GUID@@A
_DATA	SEGMENT DWORD USE32 PUBLIC 'DATA'
_DATA	ENDS
sxdata	SEGMENT DWORD USE32 'SXDATA'
sxdata	ENDS
FLAT	GROUP _DATA, CONST, _BSS
	ASSUME	CS: FLAT, DS: FLAT, SS: FLAT
endif

INCLUDELIB LIBCMT
INCLUDELIB OLDNAMES

PUBLIC	?rgszNeverDelete@CRegParser@ATL@@1QBQBDB	; ATL::CRegParser::rgszNeverDelete
PUBLIC	?g_pfnGetThreadACP@ATL@@3P6GIXZA		; ATL::g_pfnGetThreadACP
PUBLIC	?_AtlGetThreadACPThunk@ATL@@YGIXZ		; ATL::_AtlGetThreadACPThunk
PUBLIC	??_C@_0BF@HDDNNDFH@Component?5Categories?$AA@	; `string'
PUBLIC	??_C@_08PICKODJL@FileType?$AA@			; `string'
PUBLIC	??_C@_09JKPGEJCH@Interface?$AA@			; `string'
PUBLIC	??_C@_08PPIOJEA@Hardware?$AA@			; `string'
PUBLIC	??_C@_04IHBFOLAC@Mime?$AA@			; `string'
PUBLIC	??_C@_03DDIMFGBA@SAM?$AA@			; `string'
PUBLIC	??_C@_08LOPHEHKG@SECURITY?$AA@			; `string'
PUBLIC	??_C@_06FDHFNJBJ@SYSTEM?$AA@			; `string'
PUBLIC	??_C@_08KEKAJNJI@Software?$AA@			; `string'
PUBLIC	??_C@_07KJLOKDKB@TypeLib?$AA@			; `string'
PUBLIC	?_pAtlModule@ATL@@3PAVCAtlModule@1@A		; ATL::_pAtlModule
PUBLIC	?m_libid@CAtlModule@ATL@@2U_GUID@@A		; ATL::CAtlModule::m_libid
PUBLIC	_CLSID_StdGlobalInterfaceTable
PUBLIC	??_C@_05GIBEAPNE@CLSID?$AA@			; `string'
PUBLIC	??_C@_05PDIKPLII@AppID?$AA@			; `string'
PUBLIC	??_C@_01CPLAODJH@S?$AA@				; `string'
PUBLIC	??_C@_01PLPBNMEI@M?$AA@				; `string'
PUBLIC	??_C@_01CKDDGHAB@D?$AA@				; `string'
PUBLIC	??_C@_01HMGJMAIH@B?$AA@				; `string'
PUBLIC	??_C@_03LAIAPFCB@Val?$AA@			; `string'
PUBLIC	??_C@_0M@DBGDLGLL@ForceRemove?$AA@		; `string'
PUBLIC	??_C@_08KAAPDIAN@NoRemove?$AA@			; `string'
PUBLIC	??_C@_06JBKGCNBB@Delete?$AA@			; `string'
PUBLIC	?_pPerfRegFunc@ATL@@3P6AJPAUHINSTANCE__@@@ZA	; ATL::_pPerfRegFunc
PUBLIC	?_pPerfUnRegFunc@ATL@@3P6AJXZA			; ATL::_pPerfUnRegFunc
;	COMDAT ?_pAtlModule@ATL@@3PAVCAtlModule@1@A
_BSS	SEGMENT
?_pAtlModule@ATL@@3PAVCAtlModule@1@A DD 01H DUP (?)	; ATL::_pAtlModule
_BSS	ENDS
;	COMDAT ?m_libid@CAtlModule@ATL@@2U_GUID@@A
_BSS	SEGMENT
?m_libid@CAtlModule@ATL@@2U_GUID@@A DB 010H DUP (?)	; ATL::CAtlModule::m_libid
_BSS	ENDS
;	COMDAT ?_pPerfRegFunc@ATL@@3P6AJPAUHINSTANCE__@@@ZA
_BSS	SEGMENT
?_pPerfRegFunc@ATL@@3P6AJPAUHINSTANCE__@@@ZA DD 01H DUP (?) ; ATL::_pPerfRegFunc
_BSS	ENDS
;	COMDAT ?_pPerfUnRegFunc@ATL@@3P6AJXZA
_BSS	SEGMENT
?_pPerfUnRegFunc@ATL@@3P6AJXZA DD 01H DUP (?)		; ATL::_pPerfUnRegFunc
_BSS	ENDS
;	COMDAT ?g_pfnGetThreadACP@ATL@@3P6GIXZA
_DATA	SEGMENT
?g_pfnGetThreadACP@ATL@@3P6GIXZA DD FLAT:?_AtlGetThreadACPThunk@ATL@@YGIXZ ; ATL::g_pfnGetThreadACP
_DATA	ENDS
;	COMDAT _CLSID_StdGlobalInterfaceTable
CONST	SEGMENT
_CLSID_StdGlobalInterfaceTable DD 0323H
	DW	00H
	DW	00H
	DB	0c0H
	DB	00H
	DB	00H
	DB	00H
	DB	00H
	DB	00H
	DB	00H
	DB	046H
CONST	ENDS
;	COMDAT ??_C@_01CPLAODJH@S?$AA@
CONST	SEGMENT
??_C@_01CPLAODJH@S?$AA@ DB 'S', 00H			; `string'
CONST	ENDS
CONST	SEGMENT
_szStringVal DD	FLAT:??_C@_01CPLAODJH@S?$AA@
CONST	ENDS
;	COMDAT ??_C@_01PLPBNMEI@M?$AA@
CONST	SEGMENT
??_C@_01PLPBNMEI@M?$AA@ DB 'M', 00H			; `string'
CONST	ENDS
CONST	SEGMENT
_multiszStringVal DD FLAT:??_C@_01PLPBNMEI@M?$AA@
CONST	ENDS
;	COMDAT ??_C@_01CKDDGHAB@D?$AA@
CONST	SEGMENT
??_C@_01CKDDGHAB@D?$AA@ DB 'D', 00H			; `string'
CONST	ENDS
CONST	SEGMENT
_szDwordVal DD	FLAT:??_C@_01CKDDGHAB@D?$AA@
CONST	ENDS
;	COMDAT ??_C@_01HMGJMAIH@B?$AA@
CONST	SEGMENT
??_C@_01HMGJMAIH@B?$AA@ DB 'B', 00H			; `string'
CONST	ENDS
CONST	SEGMENT
_szBinaryVal DD	FLAT:??_C@_01HMGJMAIH@B?$AA@
CONST	ENDS
;	COMDAT ??_C@_03LAIAPFCB@Val?$AA@
CONST	SEGMENT
??_C@_03LAIAPFCB@Val?$AA@ DB 'Val', 00H			; `string'
CONST	ENDS
CONST	SEGMENT
_szValToken DD	FLAT:??_C@_03LAIAPFCB@Val?$AA@
CONST	ENDS
;	COMDAT ??_C@_0M@DBGDLGLL@ForceRemove?$AA@
CONST	SEGMENT
??_C@_0M@DBGDLGLL@ForceRemove?$AA@ DB 'ForceRemove', 00H ; `string'
CONST	ENDS
CONST	SEGMENT
_szForceRemove DD FLAT:??_C@_0M@DBGDLGLL@ForceRemove?$AA@
CONST	ENDS
;	COMDAT ??_C@_08KAAPDIAN@NoRemove?$AA@
CONST	SEGMENT
??_C@_08KAAPDIAN@NoRemove?$AA@ DB 'NoRemove', 00H	; `string'
CONST	ENDS
CONST	SEGMENT
_szNoRemove DD	FLAT:??_C@_08KAAPDIAN@NoRemove?$AA@
CONST	ENDS
;	COMDAT ??_C@_06JBKGCNBB@Delete?$AA@
CONST	SEGMENT
??_C@_06JBKGCNBB@Delete?$AA@ DB 'Delete', 00H		; `string'
CONST	ENDS
CONST	SEGMENT
_szDelete DD	FLAT:??_C@_06JBKGCNBB@Delete?$AA@
CONST	ENDS
;	COMDAT ??_C@_05PDIKPLII@AppID?$AA@
CONST	SEGMENT
??_C@_05PDIKPLII@AppID?$AA@ DB 'AppID', 00H		; `string'
CONST	ENDS
;	COMDAT ??_C@_05GIBEAPNE@CLSID?$AA@
CONST	SEGMENT
??_C@_05GIBEAPNE@CLSID?$AA@ DB 'CLSID', 00H		; `string'
CONST	ENDS
;	COMDAT ??_C@_0BF@HDDNNDFH@Component?5Categories?$AA@
CONST	SEGMENT
??_C@_0BF@HDDNNDFH@Component?5Categories?$AA@ DB 'Component Categories', 00H ; `string'
CONST	ENDS
;	COMDAT ??_C@_08PICKODJL@FileType?$AA@
CONST	SEGMENT
??_C@_08PICKODJL@FileType?$AA@ DB 'FileType', 00H	; `string'
CONST	ENDS
;	COMDAT ??_C@_09JKPGEJCH@Interface?$AA@
CONST	SEGMENT
??_C@_09JKPGEJCH@Interface?$AA@ DB 'Interface', 00H	; `string'
CONST	ENDS
;	COMDAT ??_C@_08PPIOJEA@Hardware?$AA@
CONST	SEGMENT
??_C@_08PPIOJEA@Hardware?$AA@ DB 'Hardware', 00H	; `string'
CONST	ENDS
;	COMDAT ??_C@_04IHBFOLAC@Mime?$AA@
CONST	SEGMENT
??_C@_04IHBFOLAC@Mime?$AA@ DB 'Mime', 00H		; `string'
CONST	ENDS
;	COMDAT ??_C@_03DDIMFGBA@SAM?$AA@
CONST	SEGMENT
??_C@_03DDIMFGBA@SAM?$AA@ DB 'SAM', 00H			; `string'
CONST	ENDS
;	COMDAT ??_C@_08LOPHEHKG@SECURITY?$AA@
CONST	SEGMENT
??_C@_08LOPHEHKG@SECURITY?$AA@ DB 'SECURITY', 00H	; `string'
CONST	ENDS
;	COMDAT ??_C@_06FDHFNJBJ@SYSTEM?$AA@
CONST	SEGMENT
??_C@_06FDHFNJBJ@SYSTEM?$AA@ DB 'SYSTEM', 00H		; `string'
CONST	ENDS
;	COMDAT ??_C@_08KEKAJNJI@Software?$AA@
CONST	SEGMENT
??_C@_08KEKAJNJI@Software?$AA@ DB 'Software', 00H	; `string'
CONST	ENDS
;	COMDAT ??_C@_07KJLOKDKB@TypeLib?$AA@
CONST	SEGMENT
??_C@_07KJLOKDKB@TypeLib?$AA@ DB 'TypeLib', 00H		; `string'
CONST	ENDS
;	COMDAT ?rgszNeverDelete@CRegParser@ATL@@1QBQBDB
CONST	SEGMENT
?rgszNeverDelete@CRegParser@ATL@@1QBQBDB DD FLAT:??_C@_05PDIKPLII@AppID?$AA@ ; ATL::CRegParser::rgszNeverDelete
	DD	FLAT:??_C@_05GIBEAPNE@CLSID?$AA@
	DD	FLAT:??_C@_0BF@HDDNNDFH@Component?5Categories?$AA@
	DD	FLAT:??_C@_08PICKODJL@FileType?$AA@
	DD	FLAT:??_C@_09JKPGEJCH@Interface?$AA@
	DD	FLAT:??_C@_08PPIOJEA@Hardware?$AA@
	DD	FLAT:??_C@_04IHBFOLAC@Mime?$AA@
	DD	FLAT:??_C@_03DDIMFGBA@SAM?$AA@
	DD	FLAT:??_C@_08LOPHEHKG@SECURITY?$AA@
	DD	FLAT:??_C@_06FDHFNJBJ@SYSTEM?$AA@
	DD	FLAT:??_C@_08KEKAJNJI@Software?$AA@
	DD	FLAT:??_C@_07KJLOKDKB@TypeLib?$AA@
CONST	ENDS
PUBLIC	?OnCT_SERVICEDATACLEAR_ACK@CTRelaySvrModule@@IAEKPAUtagPACKETBUF@@@Z ; CTRelaySvrModule::OnCT_SERVICEDATACLEAR_ACK
; Function compile flags: /Ogty
; File c:\users\pierr\desktop\4story - oldschool\sources\tserver\trelaysvr\cshandler.cpp
;	COMDAT ?OnCT_SERVICEDATACLEAR_ACK@CTRelaySvrModule@@IAEKPAUtagPACKETBUF@@@Z
_TEXT	SEGMENT
_pBUF$ = 8						; size = 4
?OnCT_SERVICEDATACLEAR_ACK@CTRelaySvrModule@@IAEKPAUtagPACKETBUF@@@Z PROC NEAR ; CTRelaySvrModule::OnCT_SERVICEDATACLEAR_ACK, COMDAT
; _this$ = ecx

; 122  : 	return EC_NOERROR;

  00000	33 c0		 xor	 eax, eax

; 123  : }

  00002	c2 04 00	 ret	 4
?OnCT_SERVICEDATACLEAR_ACK@CTRelaySvrModule@@IAEKPAUtagPACKETBUF@@@Z ENDP ; CTRelaySvrModule::OnCT_SERVICEDATACLEAR_ACK
_TEXT	ENDS
PUBLIC	?OnCT_CTRLSVR_REQ@CTRelaySvrModule@@IAEKPAUtagPACKETBUF@@@Z ; CTRelaySvrModule::OnCT_CTRLSVR_REQ
; Function compile flags: /Ogty
;	COMDAT ?OnCT_CTRLSVR_REQ@CTRelaySvrModule@@IAEKPAUtagPACKETBUF@@@Z
_TEXT	SEGMENT
_pBUF$ = 8						; size = 4
?OnCT_CTRLSVR_REQ@CTRelaySvrModule@@IAEKPAUtagPACKETBUF@@@Z PROC NEAR ; CTRelaySvrModule::OnCT_CTRLSVR_REQ, COMDAT
; _this$ = ecx

; 127  : 	return EC_NOERROR;

  00000	33 c0		 xor	 eax, eax

; 128  : }

  00002	c2 04 00	 ret	 4
?OnCT_CTRLSVR_REQ@CTRelaySvrModule@@IAEKPAUtagPACKETBUF@@@Z ENDP ; CTRelaySvrModule::OnCT_CTRLSVR_REQ
_TEXT	ENDS
PUBLIC	?InterlockedExchangePointer@@YGPAXPAPAXPAX@Z	; InterlockedExchangePointer
EXTRN	__imp__InterlockedExchange@8:NEAR
; Function compile flags: /Ogty
; File c:\program files (x86)\microsoft visual studio .net 2003\vc7\atlmfc\include\atlconv.h
;	COMDAT ?InterlockedExchangePointer@@YGPAXPAPAXPAX@Z
_TEXT	SEGMENT
_pp$ = 8						; size = 4
_pNew$ = 12						; size = 4
?InterlockedExchangePointer@@YGPAXPAPAXPAX@Z PROC NEAR	; InterlockedExchangePointer, COMDAT

; 92   : 	return( reinterpret_cast<void*>(static_cast<LONG_PTR>(::InterlockedExchange(reinterpret_cast<LONG*>(pp), static_cast<LONG>(reinterpret_cast<LONG_PTR>(pNew))))) );

  00000	ff 25 00 00 00
	00		 jmp	 DWORD PTR __imp__InterlockedExchange@8
?InterlockedExchangePointer@@YGPAXPAPAXPAX@Z ENDP	; InterlockedExchangePointer
_TEXT	ENDS
PUBLIC	?_AtlGetThreadACPFake@ATL@@YGIXZ		; ATL::_AtlGetThreadACPFake
EXTRN	___security_cookie:DWORD
EXTRN	@__security_check_cookie@4:NEAR
EXTRN	__imp__GetACP@0:NEAR
EXTRN	__imp__GetLocaleInfoA@16:NEAR
EXTRN	__imp__GetThreadLocale@0:NEAR
; Function compile flags: /Ogty
;	COMDAT ?_AtlGetThreadACPFake@ATL@@YGIXZ
_TEXT	SEGMENT
_szACP$ = -12						; size = 7
__$ArrayPad$ = -4					; size = 4
__$ReturnAddr$ = 4					; size = 4
?_AtlGetThreadACPFake@ATL@@YGIXZ PROC NEAR		; ATL::_AtlGetThreadACPFake, COMDAT

; 101  : {

  00000	83 ec 0c	 sub	 esp, 12			; 0000000cH
  00003	a1 00 00 00 00	 mov	 eax, DWORD PTR ___security_cookie
  00008	56		 push	 esi
  00009	89 44 24 0c	 mov	 DWORD PTR __$ArrayPad$[esp+16], eax

; 102  : 	UINT nACP = 0;

  0000d	33 f6		 xor	 esi, esi

; 103  : 
; 104  : 	LCID lcidThread = ::GetThreadLocale();

  0000f	ff 15 00 00 00
	00		 call	 DWORD PTR __imp__GetThreadLocale@0

; 105  : 
; 106  : 	char szACP[7];
; 107  : 	// GetLocaleInfoA will fail for a Unicode-only LCID, but those are only supported on 
; 108  : 	// Windows 2000.  Since Windows 2000 supports CP_THREAD_ACP, this code path is never
; 109  : 	// executed on Windows 2000.
; 110  : 	if (::GetLocaleInfoA(lcidThread, LOCALE_IDEFAULTANSICODEPAGE, szACP, 7) != 0)

  00015	6a 07		 push	 7
  00017	8d 4c 24 08	 lea	 ecx, DWORD PTR _szACP$[esp+20]
  0001b	51		 push	 ecx
  0001c	68 04 10 00 00	 push	 4100			; 00001004H
  00021	50		 push	 eax
  00022	ff 15 00 00 00
	00		 call	 DWORD PTR __imp__GetLocaleInfoA@16
  00028	85 c0		 test	 eax, eax
  0002a	74 21		 je	 SHORT $L109746

; 111  : 	{
; 112  : 		char* pch = szACP;
; 113  : 		while (*pch != '\0')

  0002c	8a 44 24 04	 mov	 al, BYTE PTR _szACP$[esp+16]
  00030	84 c0		 test	 al, al
  00032	8d 4c 24 04	 lea	 ecx, DWORD PTR _szACP$[esp+16]
  00036	74 15		 je	 SHORT $L109746
$L58550:

; 114  : 		{
; 115  : 			nACP *= 10;
; 116  : 			nACP += *pch++ - '0';

  00038	0f be c0	 movsx	 eax, al
  0003b	8d 14 b6	 lea	 edx, DWORD PTR [esi+esi*4]
  0003e	41		 inc	 ecx
  0003f	8d 74 50 d0	 lea	 esi, DWORD PTR [eax+edx*2-48]
  00043	8a 01		 mov	 al, BYTE PTR [ecx]
  00045	84 c0		 test	 al, al
  00047	75 ef		 jne	 SHORT $L58550

; 117  : 		}
; 118  : 	}
; 119  : 	// Use the Default ANSI Code Page if we were unable to get the thread ACP or if one does not exist.
; 120  : 	if (nACP == 0)

  00049	85 f6		 test	 esi, esi
  0004b	75 14		 jne	 SHORT $L109747
$L109746:

; 121  : 		nACP = ::GetACP();

  0004d	ff 15 00 00 00
	00		 call	 DWORD PTR __imp__GetACP@0
  00053	5e		 pop	 esi

; 122  : 
; 123  : 	return nACP;
; 124  : }

  00054	8b 4c 24 08	 mov	 ecx, DWORD PTR __$ArrayPad$[esp+12]
  00058	e8 00 00 00 00	 call	 @__security_check_cookie@4
  0005d	83 c4 0c	 add	 esp, 12			; 0000000cH
  00060	c3		 ret	 0
$L109747:
  00061	8b 4c 24 0c	 mov	 ecx, DWORD PTR __$ArrayPad$[esp+16]
  00065	8b c6		 mov	 eax, esi
  00067	5e		 pop	 esi
  00068	e8 00 00 00 00	 call	 @__security_check_cookie@4
  0006d	83 c4 0c	 add	 esp, 12			; 0000000cH
  00070	c3		 ret	 0
?_AtlGetThreadACPFake@ATL@@YGIXZ ENDP			; ATL::_AtlGetThreadACPFake
_TEXT	ENDS
PUBLIC	?_AtlGetThreadACPReal@ATL@@YGIXZ		; ATL::_AtlGetThreadACPReal
; Function compile flags: /Ogty
;	COMDAT ?_AtlGetThreadACPReal@ATL@@YGIXZ
_TEXT	SEGMENT
?_AtlGetThreadACPReal@ATL@@YGIXZ PROC NEAR		; ATL::_AtlGetThreadACPReal, COMDAT

; 128  : 	return( CP_THREAD_ACP );

  00000	b8 03 00 00 00	 mov	 eax, 3

; 129  : }

  00005	c3		 ret	 0
?_AtlGetThreadACPReal@ATL@@YGIXZ ENDP			; ATL::_AtlGetThreadACPReal
_TEXT	ENDS
EXTRN	__imp__GetVersionExA@4:NEAR
; Function compile flags: /Ogty
;	COMDAT ?_AtlGetThreadACPThunk@ATL@@YGIXZ
_TEXT	SEGMENT
_ver$ = -152						; size = 148
__$ArrayPad$ = -4					; size = 4
__$ReturnAddr$ = 4					; size = 4
?_AtlGetThreadACPThunk@ATL@@YGIXZ PROC NEAR		; ATL::_AtlGetThreadACPThunk, COMDAT

; 134  : {

  00000	81 ec 98 00 00
	00		 sub	 esp, 152		; 00000098H
  00006	a1 00 00 00 00	 mov	 eax, DWORD PTR ___security_cookie
  0000b	89 84 24 94 00
	00 00		 mov	 DWORD PTR __$ArrayPad$[esp+152], eax

; 135  : 	OSVERSIONINFO ver;
; 136  : 	ATLGETTHREADACP pfnGetThreadACP;
; 137  : 
; 138  : 	ver.dwOSVersionInfoSize = sizeof( ver );
; 139  : 	::GetVersionEx( &ver );

  00012	8d 04 24	 lea	 eax, DWORD PTR _ver$[esp+152]
  00015	50		 push	 eax
  00016	c7 44 24 04 94
	00 00 00	 mov	 DWORD PTR _ver$[esp+156], 148 ; 00000094H
  0001e	ff 15 00 00 00
	00		 call	 DWORD PTR __imp__GetVersionExA@4

; 140  : 	if( (ver.dwPlatformId == VER_PLATFORM_WIN32_NT) && (ver.dwMajorVersion >= 5) )

  00024	83 7c 24 10 02	 cmp	 DWORD PTR _ver$[esp+168], 2
  00029	75 0c		 jne	 SHORT $L58560
  0002b	83 7c 24 04 05	 cmp	 DWORD PTR _ver$[esp+156], 5

; 141  : 	{
; 142  : 		// On Win2K, CP_THREAD_ACP is supported
; 143  : 		pfnGetThreadACP = _AtlGetThreadACPReal;

  00030	b8 00 00 00 00	 mov	 eax, OFFSET FLAT:?_AtlGetThreadACPReal@ATL@@YGIXZ ; ATL::_AtlGetThreadACPReal
  00035	73 05		 jae	 SHORT $L58561
$L58560:

; 144  : 	}
; 145  : 	else
; 146  : 	{
; 147  : 		pfnGetThreadACP = _AtlGetThreadACPFake;

  00037	b8 00 00 00 00	 mov	 eax, OFFSET FLAT:?_AtlGetThreadACPFake@ATL@@YGIXZ ; ATL::_AtlGetThreadACPFake
$L58561:

; 148  : 	}
; 149  : 	InterlockedExchangePointer( reinterpret_cast< void** >(&g_pfnGetThreadACP), pfnGetThreadACP );

  0003c	50		 push	 eax
  0003d	68 00 00 00 00	 push	 OFFSET FLAT:?g_pfnGetThreadACP@ATL@@3P6GIXZA ; ATL::g_pfnGetThreadACP
  00042	ff 15 00 00 00
	00		 call	 DWORD PTR __imp__InterlockedExchange@8

; 150  : 
; 151  : 	return( g_pfnGetThreadACP() );

  00048	ff 15 00 00 00
	00		 call	 DWORD PTR ?g_pfnGetThreadACP@ATL@@3P6GIXZA ; ATL::g_pfnGetThreadACP

; 152  : }

  0004e	8b 8c 24 94 00
	00 00		 mov	 ecx, DWORD PTR __$ArrayPad$[esp+152]
  00055	e8 00 00 00 00	 call	 @__security_check_cookie@4
  0005a	81 c4 98 00 00
	00		 add	 esp, 152		; 00000098H
  00060	c3		 ret	 0
?_AtlGetThreadACPThunk@ATL@@YGIXZ ENDP			; ATL::_AtlGetThreadACPThunk
_TEXT	ENDS
PUBLIC	?_AtlGetConversionACP@ATL@@YGIXZ		; ATL::_AtlGetConversionACP
; Function compile flags: /Ogty
;	COMDAT ?_AtlGetConversionACP@ATL@@YGIXZ
_TEXT	SEGMENT
?_AtlGetConversionACP@ATL@@YGIXZ PROC NEAR		; ATL::_AtlGetConversionACP, COMDAT

; 158  : 	return( g_pfnGetThreadACP() );

  00000	ff 25 00 00 00
	00		 jmp	 DWORD PTR ?g_pfnGetThreadACP@ATL@@3P6GIXZA ; ATL::g_pfnGetThreadACP
?_AtlGetConversionACP@ATL@@YGIXZ ENDP			; ATL::_AtlGetConversionACP
_TEXT	ENDS
PUBLIC	??0CAtlException@ATL@@QAE@J@Z			; ATL::CAtlException::CAtlException
; Function compile flags: /Ogty
; File c:\program files (x86)\microsoft visual studio .net 2003\vc7\atlmfc\include\atlexcept.h
;	COMDAT ??0CAtlException@ATL@@QAE@J@Z
_TEXT	SEGMENT
_hr$ = 8						; size = 4
??0CAtlException@ATL@@QAE@J@Z PROC NEAR			; ATL::CAtlException::CAtlException, COMDAT
; _this$ = ecx

; 40   : 	{

  00000	8b c1		 mov	 eax, ecx
  00002	8b 4c 24 04	 mov	 ecx, DWORD PTR _hr$[esp-4]
  00006	89 08		 mov	 DWORD PTR [eax], ecx

; 41   : 	}

  00008	c2 04 00	 ret	 4
??0CAtlException@ATL@@QAE@J@Z ENDP			; ATL::CAtlException::CAtlException
_TEXT	ENDS
PUBLIC	?AtlThrow@ATL@@YGXJ@Z				; ATL::AtlThrow
PUBLIC	__TI1?AVCAtlException@ATL@@
PUBLIC	__CTA1?AVCAtlException@ATL@@
PUBLIC	??_R0?AVCAtlException@ATL@@@8			; ATL::CAtlException `RTTI Type Descriptor'
PUBLIC	__CT??_R0?AVCAtlException@ATL@@@84
EXTRN	__CxxThrowException@8:NEAR
EXTRN	??_7type_info@@6B@:DWORD			; type_info::`vftable'
;	COMDAT __TI1?AVCAtlException@ATL@@
xdata$x	SEGMENT
__TI1?AVCAtlException@ATL@@ DD 00H
	DD	00H
	DD	00H
	DD	FLAT:__CTA1?AVCAtlException@ATL@@
xdata$x	ENDS
;	COMDAT __CTA1?AVCAtlException@ATL@@
xdata$x	SEGMENT
__CTA1?AVCAtlException@ATL@@ DD 01H
	DD	FLAT:__CT??_R0?AVCAtlException@ATL@@@84
xdata$x	ENDS
;	COMDAT __CT??_R0?AVCAtlException@ATL@@@84
xdata$x	SEGMENT
__CT??_R0?AVCAtlException@ATL@@@84 DD 00H
	DD	FLAT:??_R0?AVCAtlException@ATL@@@8
	DD	00H
	DD	0ffffffffH
	ORG $+4
	DD	04H
	DD	00H
xdata$x	ENDS
;	COMDAT ??_R0?AVCAtlException@ATL@@@8
_DATA	SEGMENT
??_R0?AVCAtlException@ATL@@@8 DD FLAT:??_7type_info@@6B@ ; ATL::CAtlException `RTTI Type Descriptor'
	DD	00H
	DB	'.?AVCAtlException@ATL@@', 00H
; Function compile flags: /Ogty
_DATA	ENDS
;	COMDAT ?AtlThrow@ATL@@YGXJ@Z
_TEXT	SEGMENT
$T109772 = 8						; size = 4
_hr$ = 8						; size = 4
?AtlThrow@ATL@@YGXJ@Z PROC NEAR				; ATL::AtlThrow, COMDAT

; 62   : 	ATLTRACE(atlTraceException, 0, _T("AtlThrow: hr = 0x%x\n"), hr );
; 63   : #ifdef _AFX
; 64   : 	if( hr == E_OUTOFMEMORY )
; 65   : 	{
; 66   : 		AfxThrowMemoryException();
; 67   : 	}
; 68   : 	else
; 69   : 	{
; 70   : 		AfxThrowOleException( hr );
; 71   : 	}
; 72   : #else
; 73   : 	throw CAtlException( hr );

  00000	8b 44 24 04	 mov	 eax, DWORD PTR _hr$[esp-4]
  00004	68 00 00 00 00	 push	 OFFSET FLAT:__TI1?AVCAtlException@ATL@@
  00009	8d 4c 24 08	 lea	 ecx, DWORD PTR $T109772[esp]
  0000d	51		 push	 ecx
  0000e	89 44 24 0c	 mov	 DWORD PTR $T109772[esp+4], eax
  00012	e8 00 00 00 00	 call	 __CxxThrowException@8
$L109779:
$L109778:
  00017	cc		 int	 3
?AtlThrow@ATL@@YGXJ@Z ENDP				; ATL::AtlThrow
_TEXT	ENDS
PUBLIC	?OnCS_CORPSENEMYLIST_REQ@CTRelaySvrModule@@IAEKPAUtagPACKETBUF@@@Z ; CTRelaySvrModule::OnCS_CORPSENEMYLIST_REQ
EXTRN	?BroadcastCorps@CTRelaySvrModule@@QAEXPAVCTPlayer@@PAVCPacket@@G@Z:NEAR ; CTRelaySvrModule::BroadcastCorps
; Function compile flags: /Ogty
; File c:\users\pierr\desktop\4story - oldschool\sources\tserver\trelaysvr\cshandler.cpp
;	COMDAT ?OnCS_CORPSENEMYLIST_REQ@CTRelaySvrModule@@IAEKPAUtagPACKETBUF@@@Z
_TEXT	SEGMENT
_pBUF$ = 8						; size = 4
?OnCS_CORPSENEMYLIST_REQ@CTRelaySvrModule@@IAEKPAUtagPACKETBUF@@@Z PROC NEAR ; CTRelaySvrModule::OnCS_CORPSENEMYLIST_REQ, COMDAT
; _this$ = ecx

; 465  : 	CTPlayer* pPlayer  = (CTPlayer*)pBUF->m_pSESSION;

  00000	8b 54 24 04	 mov	 edx, DWORD PTR _pBUF$[esp-4]
  00004	8b 02		 mov	 eax, DWORD PTR [edx]

; 466  : 	if( !pPlayer || !pPlayer->m_bAuthorized )

  00006	85 c0		 test	 eax, eax
  00008	74 25		 je	 SHORT $L108066
  0000a	53		 push	 ebx
  0000b	8a 98 26 01 01
	00		 mov	 bl, BYTE PTR [eax+65830]
  00011	84 db		 test	 bl, bl
  00013	5b		 pop	 ebx
  00014	74 19		 je	 SHORT $L108066

; 468  : 
; 469  : 	if(pPlayer->m_wPartyID )

  00016	66 83 b8 1a 01
	01 00 00	 cmp	 WORD PTR [eax+65818], 0
  0001e	74 0f		 je	 SHORT $L108066

; 470  : 		BroadcastCorps(pPlayer, &pBUF->m_packet, CS_CORPSENEMYLIST_ACK);

  00020	68 b5 50 00 00	 push	 20661			; 000050b5H
  00025	83 c2 04	 add	 edx, 4
  00028	52		 push	 edx
  00029	50		 push	 eax
  0002a	e8 00 00 00 00	 call	 ?BroadcastCorps@CTRelaySvrModule@@QAEXPAVCTPlayer@@PAVCPacket@@G@Z ; CTRelaySvrModule::BroadcastCorps
$L108066:

; 467  : 		return EC_NOERROR;

  0002f	33 c0		 xor	 eax, eax

; 471  : 
; 472  : 	return EC_NOERROR;
; 473  : 
; 474  : }

  00031	c2 04 00	 ret	 4
?OnCS_CORPSENEMYLIST_REQ@CTRelaySvrModule@@IAEKPAUtagPACKETBUF@@@Z ENDP ; CTRelaySvrModule::OnCS_CORPSENEMYLIST_REQ
_TEXT	ENDS
PUBLIC	?OnCS_MOVECORPSENEMY_REQ@CTRelaySvrModule@@IAEKPAUtagPACKETBUF@@@Z ; CTRelaySvrModule::OnCS_MOVECORPSENEMY_REQ
; Function compile flags: /Ogty
;	COMDAT ?OnCS_MOVECORPSENEMY_REQ@CTRelaySvrModule@@IAEKPAUtagPACKETBUF@@@Z
_TEXT	SEGMENT
_pBUF$ = 8						; size = 4
?OnCS_MOVECORPSENEMY_REQ@CTRelaySvrModule@@IAEKPAUtagPACKETBUF@@@Z PROC NEAR ; CTRelaySvrModule::OnCS_MOVECORPSENEMY_REQ, COMDAT
; _this$ = ecx

; 478  : 	CTPlayer* pPlayer  = (CTPlayer*)pBUF->m_pSESSION;

  00000	8b 54 24 04	 mov	 edx, DWORD PTR _pBUF$[esp-4]
  00004	8b 02		 mov	 eax, DWORD PTR [edx]

; 479  : 	if( !pPlayer || !pPlayer->m_bAuthorized )

  00006	85 c0		 test	 eax, eax
  00008	74 25		 je	 SHORT $L108075
  0000a	53		 push	 ebx
  0000b	8a 98 26 01 01
	00		 mov	 bl, BYTE PTR [eax+65830]
  00011	84 db		 test	 bl, bl
  00013	5b		 pop	 ebx
  00014	74 19		 je	 SHORT $L108075

; 481  : 
; 482  : 	if(pPlayer->m_wPartyID)

  00016	66 83 b8 1a 01
	01 00 00	 cmp	 WORD PTR [eax+65818], 0
  0001e	74 0f		 je	 SHORT $L108075

; 483  : 		BroadcastCorps(pPlayer, &pBUF->m_packet, CS_MOVECORPSENEMY_ACK);

  00020	68 b7 50 00 00	 push	 20663			; 000050b7H
  00025	83 c2 04	 add	 edx, 4
  00028	52		 push	 edx
  00029	50		 push	 eax
  0002a	e8 00 00 00 00	 call	 ?BroadcastCorps@CTRelaySvrModule@@QAEXPAVCTPlayer@@PAVCPacket@@G@Z ; CTRelaySvrModule::BroadcastCorps
$L108075:

; 480  : 		return EC_NOERROR;

  0002f	33 c0		 xor	 eax, eax

; 484  : 
; 485  : 	return EC_NOERROR;
; 486  : }

  00031	c2 04 00	 ret	 4
?OnCS_MOVECORPSENEMY_REQ@CTRelaySvrModule@@IAEKPAUtagPACKETBUF@@@Z ENDP ; CTRelaySvrModule::OnCS_MOVECORPSENEMY_REQ
_TEXT	ENDS
PUBLIC	?OnCS_MOVECORPSUNIT_REQ@CTRelaySvrModule@@IAEKPAUtagPACKETBUF@@@Z ; CTRelaySvrModule::OnCS_MOVECORPSUNIT_REQ
; Function compile flags: /Ogty
;	COMDAT ?OnCS_MOVECORPSUNIT_REQ@CTRelaySvrModule@@IAEKPAUtagPACKETBUF@@@Z
_TEXT	SEGMENT
_pBUF$ = 8						; size = 4
?OnCS_MOVECORPSUNIT_REQ@CTRelaySvrModule@@IAEKPAUtagPACKETBUF@@@Z PROC NEAR ; CTRelaySvrModule::OnCS_MOVECORPSUNIT_REQ, COMDAT
; _this$ = ecx

; 490  : 	CTPlayer* pPlayer  = (CTPlayer*)pBUF->m_pSESSION;

  00000	8b 54 24 04	 mov	 edx, DWORD PTR _pBUF$[esp-4]
  00004	8b 02		 mov	 eax, DWORD PTR [edx]

; 491  : 	if( !pPlayer || !pPlayer->m_bAuthorized )

  00006	85 c0		 test	 eax, eax
  00008	74 25		 je	 SHORT $L108084
  0000a	53		 push	 ebx
  0000b	8a 98 26 01 01
	00		 mov	 bl, BYTE PTR [eax+65830]
  00011	84 db		 test	 bl, bl
  00013	5b		 pop	 ebx
  00014	74 19		 je	 SHORT $L108084

; 493  : 
; 494  : 	if(pPlayer->m_wPartyID)

  00016	66 83 b8 1a 01
	01 00 00	 cmp	 WORD PTR [eax+65818], 0
  0001e	74 0f		 je	 SHORT $L108084

; 495  : 		BroadcastCorps(pPlayer, &pBUF->m_packet, CS_MOVECORPSUNIT_ACK);

  00020	68 b9 50 00 00	 push	 20665			; 000050b9H
  00025	83 c2 04	 add	 edx, 4
  00028	52		 push	 edx
  00029	50		 push	 eax
  0002a	e8 00 00 00 00	 call	 ?BroadcastCorps@CTRelaySvrModule@@QAEXPAVCTPlayer@@PAVCPacket@@G@Z ; CTRelaySvrModule::BroadcastCorps
$L108084:

; 492  : 		return EC_NOERROR;

  0002f	33 c0		 xor	 eax, eax

; 496  : 
; 497  : 	return EC_NOERROR;
; 498  : }

  00031	c2 04 00	 ret	 4
?OnCS_MOVECORPSUNIT_REQ@CTRelaySvrModule@@IAEKPAUtagPACKETBUF@@@Z ENDP ; CTRelaySvrModule::OnCS_MOVECORPSUNIT_REQ
_TEXT	ENDS
PUBLIC	?OnCS_ADDCORPSENEMY_REQ@CTRelaySvrModule@@IAEKPAUtagPACKETBUF@@@Z ; CTRelaySvrModule::OnCS_ADDCORPSENEMY_REQ
; Function compile flags: /Ogty
;	COMDAT ?OnCS_ADDCORPSENEMY_REQ@CTRelaySvrModule@@IAEKPAUtagPACKETBUF@@@Z
_TEXT	SEGMENT
_pBUF$ = 8						; size = 4
?OnCS_ADDCORPSENEMY_REQ@CTRelaySvrModule@@IAEKPAUtagPACKETBUF@@@Z PROC NEAR ; CTRelaySvrModule::OnCS_ADDCORPSENEMY_REQ, COMDAT
; _this$ = ecx

; 502  : 	CTPlayer* pPlayer  = (CTPlayer*)pBUF->m_pSESSION;

  00000	8b 54 24 04	 mov	 edx, DWORD PTR _pBUF$[esp-4]
  00004	8b 02		 mov	 eax, DWORD PTR [edx]

; 503  : 	if( !pPlayer || !pPlayer->m_bAuthorized )

  00006	85 c0		 test	 eax, eax
  00008	74 25		 je	 SHORT $L108093
  0000a	53		 push	 ebx
  0000b	8a 98 26 01 01
	00		 mov	 bl, BYTE PTR [eax+65830]
  00011	84 db		 test	 bl, bl
  00013	5b		 pop	 ebx
  00014	74 19		 je	 SHORT $L108093

; 505  : 
; 506  : 	if(pPlayer->m_wPartyID)

  00016	66 83 b8 1a 01
	01 00 00	 cmp	 WORD PTR [eax+65818], 0
  0001e	74 0f		 je	 SHORT $L108093

; 507  : 		BroadcastCorps(pPlayer, &pBUF->m_packet, CS_ADDCORPSENEMY_ACK);

  00020	68 bb 50 00 00	 push	 20667			; 000050bbH
  00025	83 c2 04	 add	 edx, 4
  00028	52		 push	 edx
  00029	50		 push	 eax
  0002a	e8 00 00 00 00	 call	 ?BroadcastCorps@CTRelaySvrModule@@QAEXPAVCTPlayer@@PAVCPacket@@G@Z ; CTRelaySvrModule::BroadcastCorps
$L108093:

; 504  : 		return EC_NOERROR;

  0002f	33 c0		 xor	 eax, eax

; 508  : 
; 509  : 	return EC_NOERROR;
; 510  : }

  00031	c2 04 00	 ret	 4
?OnCS_ADDCORPSENEMY_REQ@CTRelaySvrModule@@IAEKPAUtagPACKETBUF@@@Z ENDP ; CTRelaySvrModule::OnCS_ADDCORPSENEMY_REQ
_TEXT	ENDS
PUBLIC	?OnCS_DELCORPSENEMY_REQ@CTRelaySvrModule@@IAEKPAUtagPACKETBUF@@@Z ; CTRelaySvrModule::OnCS_DELCORPSENEMY_REQ
; Function compile flags: /Ogty
;	COMDAT ?OnCS_DELCORPSENEMY_REQ@CTRelaySvrModule@@IAEKPAUtagPACKETBUF@@@Z
_TEXT	SEGMENT
_pBUF$ = 8						; size = 4
?OnCS_DELCORPSENEMY_REQ@CTRelaySvrModule@@IAEKPAUtagPACKETBUF@@@Z PROC NEAR ; CTRelaySvrModule::OnCS_DELCORPSENEMY_REQ, COMDAT
; _this$ = ecx

; 514  : 	CTPlayer* pPlayer  = (CTPlayer*)pBUF->m_pSESSION;

  00000	8b 54 24 04	 mov	 edx, DWORD PTR _pBUF$[esp-4]
  00004	8b 02		 mov	 eax, DWORD PTR [edx]

; 515  : 	if( !pPlayer || !pPlayer->m_bAuthorized )

  00006	85 c0		 test	 eax, eax
  00008	74 25		 je	 SHORT $L108102
  0000a	53		 push	 ebx
  0000b	8a 98 26 01 01
	00		 mov	 bl, BYTE PTR [eax+65830]
  00011	84 db		 test	 bl, bl
  00013	5b		 pop	 ebx
  00014	74 19		 je	 SHORT $L108102

; 517  : 
; 518  : 	if(pPlayer->m_wPartyID)

  00016	66 83 b8 1a 01
	01 00 00	 cmp	 WORD PTR [eax+65818], 0
  0001e	74 0f		 je	 SHORT $L108102

; 519  : 		BroadcastCorps(pPlayer, &pBUF->m_packet, CS_DELCORPSENEMY_ACK);

  00020	68 bd 50 00 00	 push	 20669			; 000050bdH
  00025	83 c2 04	 add	 edx, 4
  00028	52		 push	 edx
  00029	50		 push	 eax
  0002a	e8 00 00 00 00	 call	 ?BroadcastCorps@CTRelaySvrModule@@QAEXPAVCTPlayer@@PAVCPacket@@G@Z ; CTRelaySvrModule::BroadcastCorps
$L108102:

; 516  : 		return EC_NOERROR;

  0002f	33 c0		 xor	 eax, eax

; 520  : 
; 521  : 	return EC_NOERROR;
; 522  : }

  00031	c2 04 00	 ret	 4
?OnCS_DELCORPSENEMY_REQ@CTRelaySvrModule@@IAEKPAUtagPACKETBUF@@@Z ENDP ; CTRelaySvrModule::OnCS_DELCORPSENEMY_REQ
_TEXT	ENDS
PUBLIC	?OnCS_CORPSHP_REQ@CTRelaySvrModule@@IAEKPAUtagPACKETBUF@@@Z ; CTRelaySvrModule::OnCS_CORPSHP_REQ
; Function compile flags: /Ogty
;	COMDAT ?OnCS_CORPSHP_REQ@CTRelaySvrModule@@IAEKPAUtagPACKETBUF@@@Z
_TEXT	SEGMENT
_pBUF$ = 8						; size = 4
?OnCS_CORPSHP_REQ@CTRelaySvrModule@@IAEKPAUtagPACKETBUF@@@Z PROC NEAR ; CTRelaySvrModule::OnCS_CORPSHP_REQ, COMDAT
; _this$ = ecx

; 526  : 	CTPlayer* pPlayer  = (CTPlayer*)pBUF->m_pSESSION;

  00000	8b 54 24 04	 mov	 edx, DWORD PTR _pBUF$[esp-4]
  00004	8b 02		 mov	 eax, DWORD PTR [edx]

; 527  : 	if( !pPlayer || !pPlayer->m_bAuthorized )

  00006	85 c0		 test	 eax, eax
  00008	74 25		 je	 SHORT $L108111
  0000a	53		 push	 ebx
  0000b	8a 98 26 01 01
	00		 mov	 bl, BYTE PTR [eax+65830]
  00011	84 db		 test	 bl, bl
  00013	5b		 pop	 ebx
  00014	74 19		 je	 SHORT $L108111

; 529  : 
; 530  : 	if(pPlayer->m_wPartyID)

  00016	66 83 b8 1a 01
	01 00 00	 cmp	 WORD PTR [eax+65818], 0
  0001e	74 0f		 je	 SHORT $L108111

; 531  : 		BroadcastCorps(pPlayer, &pBUF->m_packet, CS_CORPSHP_ACK);

  00020	68 fe 50 00 00	 push	 20734			; 000050feH
  00025	83 c2 04	 add	 edx, 4
  00028	52		 push	 edx
  00029	50		 push	 eax
  0002a	e8 00 00 00 00	 call	 ?BroadcastCorps@CTRelaySvrModule@@QAEXPAVCTPlayer@@PAVCPacket@@G@Z ; CTRelaySvrModule::BroadcastCorps
$L108111:

; 528  : 		return EC_NOERROR;

  0002f	33 c0		 xor	 eax, eax

; 532  : 
; 533  : 	return EC_NOERROR;
; 534  : }

  00031	c2 04 00	 ret	 4
?OnCS_CORPSHP_REQ@CTRelaySvrModule@@IAEKPAUtagPACKETBUF@@@Z ENDP ; CTRelaySvrModule::OnCS_CORPSHP_REQ
_TEXT	ENDS
PUBLIC	?_AtlGetStringResourceImage@ATL@@YAPBUATLSTRINGRESOURCEIMAGE@1@PAUHINSTANCE__@@PAUHRSRC__@@I@Z ; ATL::_AtlGetStringResourceImage
EXTRN	__imp__LockResource@4:NEAR
EXTRN	__imp__LoadResource@8:NEAR
EXTRN	__imp__SizeofResource@8:NEAR
; Function compile flags: /Ogty
; File c:\program files (x86)\microsoft visual studio .net 2003\vc7\atlmfc\include\atlcore.h
;	COMDAT ?_AtlGetStringResourceImage@ATL@@YAPBUATLSTRINGRESOURCEIMAGE@1@PAUHINSTANCE__@@PAUHRSRC__@@I@Z
_TEXT	SEGMENT
_hInstance$ = 8						; size = 4
_hResource$ = 12					; size = 4
_id$ = 16						; size = 4
?_AtlGetStringResourceImage@ATL@@YAPBUATLSTRINGRESOURCEIMAGE@1@PAUHINSTANCE__@@PAUHRSRC__@@I@Z PROC NEAR ; ATL::_AtlGetStringResourceImage, COMDAT

; 239  : {

  00000	53		 push	 ebx

; 240  : 	const ATLSTRINGRESOURCEIMAGE* pImage;
; 241  : 	const ATLSTRINGRESOURCEIMAGE* pImageEnd;
; 242  : 	ULONG nResourceSize;
; 243  : 	HGLOBAL hGlobal;
; 244  : 	UINT iIndex;
; 245  : 
; 246  : 	hGlobal = ::LoadResource( hInstance, hResource );

  00001	8b 5c 24 08	 mov	 ebx, DWORD PTR _hInstance$[esp]
  00005	57		 push	 edi
  00006	8b 7c 24 10	 mov	 edi, DWORD PTR _hResource$[esp+4]
  0000a	57		 push	 edi
  0000b	53		 push	 ebx
  0000c	ff 15 00 00 00
	00		 call	 DWORD PTR __imp__LoadResource@8

; 247  : 	if( hGlobal == NULL )

  00012	85 c0		 test	 eax, eax
  00014	75 03		 jne	 SHORT $L59408
  00016	5f		 pop	 edi
  00017	5b		 pop	 ebx

; 272  : 	{
; 273  : 		return( NULL );
; 274  : 	}
; 275  : 
; 276  : 	return( pImage );
; 277  : }

  00018	c3		 ret	 0
$L59408:
  00019	56		 push	 esi

; 248  : 	{
; 249  : 		return( NULL );
; 250  : 	}
; 251  : 
; 252  : 	pImage = (const ATLSTRINGRESOURCEIMAGE*)::LockResource( hGlobal );

  0001a	50		 push	 eax
  0001b	ff 15 00 00 00
	00		 call	 DWORD PTR __imp__LockResource@4
  00021	8b f0		 mov	 esi, eax

; 253  : 	if( pImage == NULL )

  00023	85 f6		 test	 esi, esi
  00025	75 06		 jne	 SHORT $L59410
$L109803:
  00027	5e		 pop	 esi
  00028	5f		 pop	 edi

; 254  : 	{
; 255  : 		return( NULL );

  00029	33 c0		 xor	 eax, eax
  0002b	5b		 pop	 ebx

; 272  : 	{
; 273  : 		return( NULL );
; 274  : 	}
; 275  : 
; 276  : 	return( pImage );
; 277  : }

  0002c	c3		 ret	 0
$L59410:

; 256  : 	}
; 257  : 
; 258  : 	nResourceSize = ::SizeofResource( hInstance, hResource );

  0002d	57		 push	 edi
  0002e	53		 push	 ebx
  0002f	ff 15 00 00 00
	00		 call	 DWORD PTR __imp__SizeofResource@8

; 259  : 	pImageEnd = (const ATLSTRINGRESOURCEIMAGE*)(LPBYTE( pImage )+nResourceSize);
; 260  : 	iIndex = id&0x000f;

  00035	8b 4c 24 18	 mov	 ecx, DWORD PTR _id$[esp+8]
  00039	03 c6		 add	 eax, esi
  0003b	83 e1 0f	 and	 ecx, 15			; 0000000fH

; 261  : 
; 262  : 	while( (iIndex > 0) && (pImage < pImageEnd) )

  0003e	76 0e		 jbe	 SHORT $L59414
$L59413:
  00040	3b f0		 cmp	 esi, eax
  00042	73 e3		 jae	 SHORT $L109803

; 263  : 	{
; 264  : 		pImage = (const ATLSTRINGRESOURCEIMAGE*)(LPBYTE( pImage )+(sizeof( ATLSTRINGRESOURCEIMAGE )+(pImage->nLength*sizeof( WCHAR ))));
; 265  : 		iIndex--;

  00044	49		 dec	 ecx
  00045	0f b7 16	 movzx	 edx, WORD PTR [esi]
  00048	8d 74 56 02	 lea	 esi, DWORD PTR [esi+edx*2+2]
  0004c	75 f2		 jne	 SHORT $L59413
$L59414:

; 266  : 	}
; 267  : 	if( pImage >= pImageEnd )

  0004e	3b f0		 cmp	 esi, eax

; 268  : 	{
; 269  : 		return( NULL );

  00050	73 d5		 jae	 SHORT $L109803

; 270  : 	}
; 271  : 	if( pImage->nLength == 0 )

  00052	66 8b 06	 mov	 ax, WORD PTR [esi]
  00055	66 f7 d8	 neg	 ax
  00058	1b c0		 sbb	 eax, eax
  0005a	23 c6		 and	 eax, esi
  0005c	5e		 pop	 esi
  0005d	5f		 pop	 edi
  0005e	5b		 pop	 ebx

; 272  : 	{
; 273  : 		return( NULL );
; 274  : 	}
; 275  : 
; 276  : 	return( pImage );
; 277  : }

  0005f	c3		 ret	 0
?_AtlGetStringResourceImage@ATL@@YAPBUATLSTRINGRESOURCEIMAGE@1@PAUHINSTANCE__@@PAUHRSRC__@@I@Z ENDP ; ATL::_AtlGetStringResourceImage
_TEXT	ENDS
PUBLIC	?AtlGetStringResourceImage@ATL@@YAPBUATLSTRINGRESOURCEIMAGE@1@PAUHINSTANCE__@@I@Z ; ATL::AtlGetStringResourceImage
EXTRN	__imp__FindResourceA@12:NEAR
; Function compile flags: /Ogty
;	COMDAT ?AtlGetStringResourceImage@ATL@@YAPBUATLSTRINGRESOURCEIMAGE@1@PAUHINSTANCE__@@I@Z
_TEXT	SEGMENT
_hInstance$ = 8						; size = 4
_id$ = 12						; size = 4
?AtlGetStringResourceImage@ATL@@YAPBUATLSTRINGRESOURCEIMAGE@1@PAUHINSTANCE__@@I@Z PROC NEAR ; ATL::AtlGetStringResourceImage, COMDAT

; 280  : {

  00000	56		 push	 esi

; 281  : 	HRSRC hResource;
; 282  : 
; 283  : 	hResource = ::FindResource( hInstance, MAKEINTRESOURCE( ((id>>4)+1) ), RT_STRING );

  00001	8b 74 24 0c	 mov	 esi, DWORD PTR _id$[esp]
  00005	8b c6		 mov	 eax, esi
  00007	c1 e8 04	 shr	 eax, 4
  0000a	57		 push	 edi
  0000b	8b 7c 24 0c	 mov	 edi, DWORD PTR _hInstance$[esp+4]
  0000f	40		 inc	 eax
  00010	0f b7 c8	 movzx	 ecx, ax
  00013	6a 06		 push	 6
  00015	51		 push	 ecx
  00016	57		 push	 edi
  00017	ff 15 00 00 00
	00		 call	 DWORD PTR __imp__FindResourceA@12

; 284  : 	if( hResource == NULL )

  0001d	85 c0		 test	 eax, eax
  0001f	75 03		 jne	 SHORT $L59431
  00021	5f		 pop	 edi
  00022	5e		 pop	 esi

; 290  : }

  00023	c3		 ret	 0
$L59431:

; 285  : 	{
; 286  : 		return( NULL );
; 287  : 	}
; 288  : 
; 289  : 	return _AtlGetStringResourceImage( hInstance, hResource, id );

  00024	56		 push	 esi
  00025	50		 push	 eax
  00026	57		 push	 edi
  00027	e8 00 00 00 00	 call	 ?_AtlGetStringResourceImage@ATL@@YAPBUATLSTRINGRESOURCEIMAGE@1@PAUHINSTANCE__@@PAUHRSRC__@@I@Z ; ATL::_AtlGetStringResourceImage
  0002c	83 c4 0c	 add	 esp, 12			; 0000000cH
  0002f	5f		 pop	 edi
  00030	5e		 pop	 esi

; 290  : }

  00031	c3		 ret	 0
?AtlGetStringResourceImage@ATL@@YAPBUATLSTRINGRESOURCEIMAGE@1@PAUHINSTANCE__@@I@Z ENDP ; ATL::AtlGetStringResourceImage
_TEXT	ENDS
PUBLIC	?AtlGetStringResourceImage@ATL@@YAPBUATLSTRINGRESOURCEIMAGE@1@PAUHINSTANCE__@@IG@Z ; ATL::AtlGetStringResourceImage
EXTRN	__imp__FindResourceExA@16:NEAR
; Function compile flags: /Ogty
;	COMDAT ?AtlGetStringResourceImage@ATL@@YAPBUATLSTRINGRESOURCEIMAGE@1@PAUHINSTANCE__@@IG@Z
_TEXT	SEGMENT
_hInstance$ = 8						; size = 4
_id$ = 12						; size = 4
_wLanguage$ = 16					; size = 2
?AtlGetStringResourceImage@ATL@@YAPBUATLSTRINGRESOURCEIMAGE@1@PAUHINSTANCE__@@IG@Z PROC NEAR ; ATL::AtlGetStringResourceImage, COMDAT

; 294  : 	HRSRC hResource;
; 295  : 
; 296  : 	hResource = ::FindResourceEx( hInstance, RT_STRING, MAKEINTRESOURCE( ((id>>4)+1) ), wLanguage );

  00000	8b 44 24 0c	 mov	 eax, DWORD PTR _wLanguage$[esp-4]
  00004	56		 push	 esi
  00005	8b 74 24 0c	 mov	 esi, DWORD PTR _id$[esp]
  00009	8b ce		 mov	 ecx, esi
  0000b	57		 push	 edi
  0000c	8b 7c 24 0c	 mov	 edi, DWORD PTR _hInstance$[esp+4]
  00010	c1 e9 04	 shr	 ecx, 4
  00013	41		 inc	 ecx
  00014	50		 push	 eax
  00015	0f b7 d1	 movzx	 edx, cx
  00018	52		 push	 edx
  00019	6a 06		 push	 6
  0001b	57		 push	 edi
  0001c	ff 15 00 00 00
	00		 call	 DWORD PTR __imp__FindResourceExA@16

; 297  : 	if( hResource == NULL )

  00022	85 c0		 test	 eax, eax
  00024	75 03		 jne	 SHORT $L59445
  00026	5f		 pop	 edi
  00027	5e		 pop	 esi

; 303  : }

  00028	c3		 ret	 0
$L59445:

; 298  : 	{
; 299  : 		return( NULL );
; 300  : 	}
; 301  : 
; 302  : 	return _AtlGetStringResourceImage( hInstance, hResource, id );

  00029	56		 push	 esi
  0002a	50		 push	 eax
  0002b	57		 push	 edi
  0002c	e8 00 00 00 00	 call	 ?_AtlGetStringResourceImage@ATL@@YAPBUATLSTRINGRESOURCEIMAGE@1@PAUHINSTANCE__@@PAUHRSRC__@@I@Z ; ATL::_AtlGetStringResourceImage
  00031	83 c4 0c	 add	 esp, 12			; 0000000cH
  00034	5f		 pop	 edi
  00035	5e		 pop	 esi

; 303  : }

  00036	c3		 ret	 0
?AtlGetStringResourceImage@ATL@@YAPBUATLSTRINGRESOURCEIMAGE@1@PAUHINSTANCE__@@IG@Z ENDP ; ATL::AtlGetStringResourceImage
_TEXT	ENDS
PUBLIC	?AtlFindStringResourceInstance@ATL@@YAPAUHINSTANCE__@@IG@Z ; ATL::AtlFindStringResourceInstance
EXTRN	?GetHInstanceAt@CAtlBaseModule@ATL@@QAEPAUHINSTANCE__@@H@Z:NEAR ; ATL::CAtlBaseModule::GetHInstanceAt
EXTRN	?_AtlBaseModule@ATL@@3VCAtlBaseModule@1@A:BYTE	; ATL::_AtlBaseModule
; Function compile flags: /Ogty
;	COMDAT ?AtlFindStringResourceInstance@ATL@@YAPAUHINSTANCE__@@IG@Z
_TEXT	SEGMENT
_nID$ = 8						; size = 4
_wLanguage$ = 12					; size = 2
?AtlFindStringResourceInstance@ATL@@YAPAUHINSTANCE__@@IG@Z PROC NEAR ; ATL::AtlFindStringResourceInstance, COMDAT

; 380  : {

  00000	53		 push	 ebx
  00001	55		 push	 ebp
  00002	56		 push	 esi
  00003	57		 push	 edi

; 381  : 	const ATLSTRINGRESOURCEIMAGE* p = NULL;

  00004	33 ff		 xor	 edi, edi

; 382  : 	HINSTANCE hInst = _AtlBaseModule.GetHInstanceAt(0);

  00006	57		 push	 edi
  00007	b9 00 00 00 00	 mov	 ecx, OFFSET FLAT:?_AtlBaseModule@ATL@@3VCAtlBaseModule@1@A
  0000c	e8 00 00 00 00	 call	 ?GetHInstanceAt@CAtlBaseModule@ATL@@QAEPAUHINSTANCE__@@H@Z ; ATL::CAtlBaseModule::GetHInstanceAt
  00011	8b f0		 mov	 esi, eax

; 383  : 
; 384  : 	for (int i = 1; hInst != NULL && p == NULL; hInst = _AtlBaseModule.GetHInstanceAt(i++))

  00013	85 f6		 test	 esi, esi
  00015	bd 01 00 00 00	 mov	 ebp, 1
  0001a	74 47		 je	 SHORT $L59538
  0001c	8b 5c 24 14	 mov	 ebx, DWORD PTR _nID$[esp+12]
$L59536:
  00020	85 ff		 test	 edi, edi
  00022	75 3f		 jne	 SHORT $L59538

; 385  : 	{
; 386  : 		p = AtlGetStringResourceImage(hInst, nID, wLanguage);

  00024	8b 44 24 18	 mov	 eax, DWORD PTR _wLanguage$[esp+12]
  00028	8b cb		 mov	 ecx, ebx
  0002a	c1 e9 04	 shr	 ecx, 4
  0002d	41		 inc	 ecx
  0002e	50		 push	 eax
  0002f	0f b7 d1	 movzx	 edx, cx
  00032	52		 push	 edx
  00033	6a 06		 push	 6
  00035	56		 push	 esi
  00036	ff 15 00 00 00
	00		 call	 DWORD PTR __imp__FindResourceExA@16
  0003c	85 c0		 test	 eax, eax
  0003e	74 11		 je	 SHORT $L109822
$L109817:
  00040	53		 push	 ebx
  00041	50		 push	 eax
  00042	56		 push	 esi
  00043	e8 00 00 00 00	 call	 ?_AtlGetStringResourceImage@ATL@@YAPBUATLSTRINGRESOURCEIMAGE@1@PAUHINSTANCE__@@PAUHRSRC__@@I@Z ; ATL::_AtlGetStringResourceImage
  00048	8b f8		 mov	 edi, eax
  0004a	83 c4 0c	 add	 esp, 12			; 0000000cH

; 387  : 		if (p != NULL)

  0004d	85 ff		 test	 edi, edi
  0004f	75 19		 jne	 SHORT $L109820
$L109822:

; 383  : 
; 384  : 	for (int i = 1; hInst != NULL && p == NULL; hInst = _AtlBaseModule.GetHInstanceAt(i++))

  00051	55		 push	 ebp
  00052	b9 00 00 00 00	 mov	 ecx, OFFSET FLAT:?_AtlBaseModule@ATL@@3VCAtlBaseModule@1@A
  00057	e8 00 00 00 00	 call	 ?GetHInstanceAt@CAtlBaseModule@ATL@@QAEPAUHINSTANCE__@@H@Z ; ATL::CAtlBaseModule::GetHInstanceAt
  0005c	8b f0		 mov	 esi, eax
  0005e	45		 inc	 ebp
  0005f	85 f6		 test	 esi, esi
  00061	75 bd		 jne	 SHORT $L59536
$L59538:
  00063	5f		 pop	 edi
  00064	5e		 pop	 esi
  00065	5d		 pop	 ebp

; 389  : 	}
; 390  : 
; 391  : 	return NULL;

  00066	33 c0		 xor	 eax, eax
  00068	5b		 pop	 ebx

; 392  : }

  00069	c3		 ret	 0
$L109820:
  0006a	5f		 pop	 edi

; 388  : 			return hInst;

  0006b	8b c6		 mov	 eax, esi
  0006d	5e		 pop	 esi
  0006e	5d		 pop	 ebp
  0006f	5b		 pop	 ebx

; 392  : }

  00070	c3		 ret	 0
?AtlFindStringResourceInstance@ATL@@YAPAUHINSTANCE__@@IG@Z ENDP ; ATL::AtlFindStringResourceInstance
_TEXT	ENDS
PUBLIC	?OnCS_CHECKRELAY_REQ@CTRelaySvrModule@@IAEKPAUtagPACKETBUF@@@Z ; CTRelaySvrModule::OnCS_CHECKRELAY_REQ
; Function compile flags: /Ogty
; File c:\users\pierr\desktop\4story - oldschool\sources\tserver\trelaysvr\cshandler.cpp
;	COMDAT ?OnCS_CHECKRELAY_REQ@CTRelaySvrModule@@IAEKPAUtagPACKETBUF@@@Z
_TEXT	SEGMENT
_pBUF$ = 8						; size = 4
?OnCS_CHECKRELAY_REQ@CTRelaySvrModule@@IAEKPAUtagPACKETBUF@@@Z PROC NEAR ; CTRelaySvrModule::OnCS_CHECKRELAY_REQ, COMDAT
; _this$ = ecx

; 651  : 	return EC_NOERROR;

  00000	33 c0		 xor	 eax, eax

; 652  : }

  00002	c2 04 00	 ret	 4
?OnCS_CHECKRELAY_REQ@CTRelaySvrModule@@IAEKPAUtagPACKETBUF@@@Z ENDP ; CTRelaySvrModule::OnCS_CHECKRELAY_REQ
_TEXT	ENDS
PUBLIC	?OnDM_UDPLOG_REQ@CTRelaySvrModule@@IAEKPAUtagPACKETBUF@@@Z ; CTRelaySvrModule::OnDM_UDPLOG_REQ
EXTRN	?Log@CUdpSocket@@QAEXPAU_UDPPACKET@@@Z:NEAR	; CUdpSocket::Log
EXTRN	??2@YAPAXI@Z:NEAR				; operator new
EXTRN	?Read@CPacket@@QAEXPAXH@Z:NEAR			; CPacket::Read
; Function compile flags: /Ogty
;	COMDAT ?OnDM_UDPLOG_REQ@CTRelaySvrModule@@IAEKPAUtagPACKETBUF@@@Z
_TEXT	SEGMENT
_pBUF$ = 8						; size = 4
?OnDM_UDPLOG_REQ@CTRelaySvrModule@@IAEKPAUtagPACKETBUF@@@Z PROC NEAR ; CTRelaySvrModule::OnDM_UDPLOG_REQ, COMDAT
; _this$ = ecx

; 679  : {

  00000	53		 push	 ebx
  00001	56		 push	 esi
  00002	57		 push	 edi

; 680  : 	_LPUDPPACKET pUDPPacket = new _UDPPACKET;

  00003	68 24 04 00 00	 push	 1060			; 00000424H
  00008	8b d9		 mov	 ebx, ecx
  0000a	e8 00 00 00 00	 call	 ??2@YAPAXI@Z		; operator new
  0000f	8b f0		 mov	 esi, eax

; 681  : 	memset( pUDPPacket, 0x00, sizeof(_UDPPACKET));

  00011	33 c0		 xor	 eax, eax
  00013	83 c4 04	 add	 esp, 4
  00016	b9 09 01 00 00	 mov	 ecx, 265		; 00000109H
  0001b	8b fe		 mov	 edi, esi
  0001d	f3 ab		 rep stosd

; 682  : 
; 683  : 	pBUF->m_packet.Read( &pUDPPacket->szPacket, sizeof(_LOG_DATA_));

  0001f	8b 4c 24 10	 mov	 ecx, DWORD PTR _pBUF$[esp+8]
  00023	68 f8 03 00 00	 push	 1016			; 000003f8H
  00028	8d 46 24	 lea	 eax, DWORD PTR [esi+36]
  0002b	50		 push	 eax
  0002c	83 c1 04	 add	 ecx, 4
  0002f	e8 00 00 00 00	 call	 ?Read@CPacket@@QAEXPAXH@Z ; CPacket::Read

; 684  : 				
; 685  : 	m_pUdpSocket->Log(pUDPPacket);

  00034	8b 8b 74 14 02
	00		 mov	 ecx, DWORD PTR [ebx+136308]
  0003a	56		 push	 esi
  0003b	e8 00 00 00 00	 call	 ?Log@CUdpSocket@@QAEXPAU_UDPPACKET@@@Z ; CUdpSocket::Log
  00040	5f		 pop	 edi
  00041	5e		 pop	 esi

; 686  : 
; 687  : 	return EC_NOERROR;

  00042	33 c0		 xor	 eax, eax
  00044	5b		 pop	 ebx

; 688  : }

  00045	c2 04 00	 ret	 4
?OnDM_UDPLOG_REQ@CTRelaySvrModule@@IAEKPAUtagPACKETBUF@@@Z ENDP ; CTRelaySvrModule::OnDM_UDPLOG_REQ
_TEXT	ENDS
PUBLIC	?size@?$_Tree@V?$_Tmap_traits@KPAVCTPlayer@@U?$less@K@std@@V?$allocator@U?$pair@$$CBKPAVCTPlayer@@@std@@@3@$0A@@std@@@std@@QBEIXZ ; std::_Tree<std::_Tmap_traits<unsigned long,CTPlayer *,std::less<unsigned long>,std::allocator<std::pair<unsigned long const ,CTPlayer *> >,0> >::size
; Function compile flags: /Ogty
; File c:\program files (x86)\microsoft visual studio .net 2003\vc7\include\xtree
;	COMDAT ?size@?$_Tree@V?$_Tmap_traits@KPAVCTPlayer@@U?$less@K@std@@V?$allocator@U?$pair@$$CBKPAVCTPlayer@@@std@@@3@$0A@@std@@@std@@QBEIXZ
_TEXT	SEGMENT
?size@?$_Tree@V?$_Tmap_traits@KPAVCTPlayer@@U?$less@K@std@@V?$allocator@U?$pair@$$CBKPAVCTPlayer@@@std@@@3@$0A@@std@@@std@@QBEIXZ PROC NEAR ; std::_Tree<std::_Tmap_traits<unsigned long,CTPlayer *,std::less<unsigned long>,std::allocator<std::pair<unsigned long const ,CTPlayer *> >,0> >::size, COMDAT
; _this$ = ecx

; 448  : 		return (_Mysize);

  00000	8b 41 08	 mov	 eax, DWORD PTR [ecx+8]

; 449  : 		}

  00003	c3		 ret	 0
?size@?$_Tree@V?$_Tmap_traits@KPAVCTPlayer@@U?$less@K@std@@V?$allocator@U?$pair@$$CBKPAVCTPlayer@@@std@@@3@$0A@@std@@@std@@QBEIXZ ENDP ; std::_Tree<std::_Tmap_traits<unsigned long,CTPlayer *,std::less<unsigned long>,std::allocator<std::pair<unsigned long const ,CTPlayer *> >,0> >::size
_TEXT	ENDS
PUBLIC	?LogEvent@?$CAtlServiceModuleT@VCTRelaySvrModule@@$0GE@@ATL@@QAAXPBDZZ ; ATL::CAtlServiceModuleT<CTRelaySvrModule,100>::LogEvent
EXTRN	_puts:NEAR
EXTRN	__imp__DeregisterEventSource@4:NEAR
EXTRN	__imp__RegisterEventSourceA@8:NEAR
EXTRN	__imp__ReportEventA@36:NEAR
EXTRN	_vsprintf:NEAR
; Function compile flags: /Ogty
; File c:\program files (x86)\microsoft visual studio .net 2003\vc7\atlmfc\include\atlbase.h
;	COMDAT ?LogEvent@?$CAtlServiceModuleT@VCTRelaySvrModule@@$0GE@@ATL@@QAAXPBDZZ
_TEXT	SEGMENT
_lpszStrings$ = -264					; size = 4
_chMsg$ = -260						; size = 256
__$ArrayPad$ = -4					; size = 4
__$ReturnAddr$ = 4					; size = 4
_this$ = 8						; size = 4
_pszFormat$ = 12					; size = 4
?LogEvent@?$CAtlServiceModuleT@VCTRelaySvrModule@@$0GE@@ATL@@QAAXPBDZZ PROC NEAR ; ATL::CAtlServiceModuleT<CTRelaySvrModule,100>::LogEvent, COMDAT

; 3835 : 	{

  00000	81 ec 08 01 00
	00		 sub	 esp, 264		; 00000108H
  00006	a1 00 00 00 00	 mov	 eax, DWORD PTR ___security_cookie

; 3836 : 		TCHAR chMsg[256];
; 3837 : 		HANDLE hEventSource;
; 3838 : 		LPTSTR lpszStrings[1];
; 3839 : 		va_list pArg;
; 3840 : 
; 3841 : 		va_start(pArg, pszFormat);
; 3842 : 		_vstprintf(chMsg, pszFormat, pArg);

  0000b	8b 8c 24 10 01
	00 00		 mov	 ecx, DWORD PTR _pszFormat$[esp+260]
  00012	89 84 24 04 01
	00 00		 mov	 DWORD PTR __$ArrayPad$[esp+264], eax
  00019	56		 push	 esi
  0001a	8d 84 24 18 01
	00 00		 lea	 eax, DWORD PTR _pszFormat$[esp+268]
  00021	50		 push	 eax
  00022	51		 push	 ecx
  00023	8d 54 24 10	 lea	 edx, DWORD PTR _chMsg$[esp+276]
  00027	52		 push	 edx
  00028	e8 00 00 00 00	 call	 _vsprintf

; 3843 : 		va_end(pArg);
; 3844 : 
; 3845 : 		lpszStrings[0] = chMsg;
; 3846 : 
; 3847 : 		if (!m_bService)

  0002d	8b b4 24 1c 01
	00 00		 mov	 esi, DWORD PTR _this$[esp+276]
  00034	8d 44 24 14	 lea	 eax, DWORD PTR _chMsg$[esp+280]
  00038	89 44 24 10	 mov	 DWORD PTR _lpszStrings$[esp+280], eax
  0003c	8b 86 4c 01 00
	00		 mov	 eax, DWORD PTR [esi+332]
  00042	83 c4 0c	 add	 esp, 12			; 0000000cH
  00045	85 c0		 test	 eax, eax
  00047	75 0d		 jne	 SHORT $L108497

; 3848 : 		{
; 3849 : 			// Not running as a service, so print out the error message 
; 3850 : 			// to the console if possible
; 3851 : 			_putts(chMsg);

  00049	8d 4c 24 08	 lea	 ecx, DWORD PTR _chMsg$[esp+268]
  0004d	51		 push	 ecx
  0004e	e8 00 00 00 00	 call	 _puts
  00053	83 c4 04	 add	 esp, 4
$L108497:

; 3852 : 		}
; 3853 : 
; 3854 : 		/* Get a handle to use with ReportEvent(). */
; 3855 : 		hEventSource = RegisterEventSource(NULL, m_szServiceName);

  00056	83 c6 2c	 add	 esi, 44			; 0000002cH
  00059	56		 push	 esi
  0005a	6a 00		 push	 0
  0005c	ff 15 00 00 00
	00		 call	 DWORD PTR __imp__RegisterEventSourceA@8
  00062	8b f0		 mov	 esi, eax

; 3856 : 		if (hEventSource != NULL)

  00064	85 f6		 test	 esi, esi
  00066	74 21		 je	 SHORT $L108498

; 3857 : 		{
; 3858 : 			/* Write to event log. */
; 3859 : 			ReportEvent(hEventSource, EVENTLOG_INFORMATION_TYPE, 0, 0, NULL, 1, 0, (LPCTSTR*) &lpszStrings[0], NULL);

  00068	6a 00		 push	 0
  0006a	8d 54 24 08	 lea	 edx, DWORD PTR _lpszStrings$[esp+272]
  0006e	52		 push	 edx
  0006f	6a 00		 push	 0
  00071	6a 01		 push	 1
  00073	6a 00		 push	 0
  00075	6a 00		 push	 0
  00077	6a 00		 push	 0
  00079	6a 04		 push	 4
  0007b	56		 push	 esi
  0007c	ff 15 00 00 00
	00		 call	 DWORD PTR __imp__ReportEventA@36

; 3860 : 			DeregisterEventSource(hEventSource);

  00082	56		 push	 esi
  00083	ff 15 00 00 00
	00		 call	 DWORD PTR __imp__DeregisterEventSource@4
$L108498:

; 3861 : 		}
; 3862 : 	}

  00089	8b 8c 24 08 01
	00 00		 mov	 ecx, DWORD PTR __$ArrayPad$[esp+268]
  00090	5e		 pop	 esi
  00091	e8 00 00 00 00	 call	 @__security_check_cookie@4
  00096	81 c4 08 01 00
	00		 add	 esp, 264		; 00000108H
  0009c	c3		 ret	 0
?LogEvent@?$CAtlServiceModuleT@VCTRelaySvrModule@@$0GE@@ATL@@QAAXPBDZZ ENDP ; ATL::CAtlServiceModuleT<CTRelaySvrModule,100>::LogEvent
_TEXT	ENDS
PUBLIC	?size@?$vector@KV?$allocator@K@std@@@std@@QBEIXZ ; std::vector<unsigned long,std::allocator<unsigned long> >::size
; Function compile flags: /Ogty
; File c:\program files (x86)\microsoft visual studio .net 2003\vc7\include\vector
;	COMDAT ?size@?$vector@KV?$allocator@K@std@@@std@@QBEIXZ
_TEXT	SEGMENT
?size@?$vector@KV?$allocator@K@std@@@std@@QBEIXZ PROC NEAR ; std::vector<unsigned long,std::allocator<unsigned long> >::size, COMDAT
; _this$ = ecx

; 516  : 		return (_Myfirst == 0 ? 0 : _Mylast - _Myfirst);

  00000	8b 51 04	 mov	 edx, DWORD PTR [ecx+4]
  00003	85 d2		 test	 edx, edx
  00005	75 03		 jne	 SHORT $L109841
  00007	33 c0		 xor	 eax, eax

; 517  : 		}

  00009	c3		 ret	 0
$L109841:

; 516  : 		return (_Myfirst == 0 ? 0 : _Mylast - _Myfirst);

  0000a	8b 41 08	 mov	 eax, DWORD PTR [ecx+8]
  0000d	2b c2		 sub	 eax, edx
  0000f	c1 f8 02	 sar	 eax, 2

; 517  : 		}

  00012	c3		 ret	 0
?size@?$vector@KV?$allocator@K@std@@@std@@QBEIXZ ENDP	; std::vector<unsigned long,std::allocator<unsigned long> >::size
_TEXT	ENDS
PUBLIC	??0?$pair@$$CBKPAVCTPlayer@@@std@@QAE@ABKABQAVCTPlayer@@@Z ; std::pair<unsigned long const ,CTPlayer *>::pair<unsigned long const ,CTPlayer *>
; Function compile flags: /Ogty
; File c:\program files (x86)\microsoft visual studio .net 2003\vc7\include\utility
;	COMDAT ??0?$pair@$$CBKPAVCTPlayer@@@std@@QAE@ABKABQAVCTPlayer@@@Z
_TEXT	SEGMENT
__Val1$ = 8						; size = 4
__Val2$ = 12						; size = 4
??0?$pair@$$CBKPAVCTPlayer@@@std@@QAE@ABKABQAVCTPlayer@@@Z PROC NEAR ; std::pair<unsigned long const ,CTPlayer *>::pair<unsigned long const ,CTPlayer *>, COMDAT
; _this$ = ecx

; 34   : 		{	// construct from specified values

  00000	8b c1		 mov	 eax, ecx
  00002	8b 4c 24 04	 mov	 ecx, DWORD PTR __Val1$[esp-4]
  00006	8b 11		 mov	 edx, DWORD PTR [ecx]
  00008	8b 4c 24 08	 mov	 ecx, DWORD PTR __Val2$[esp-4]
  0000c	89 10		 mov	 DWORD PTR [eax], edx
  0000e	8b 11		 mov	 edx, DWORD PTR [ecx]
  00010	89 50 04	 mov	 DWORD PTR [eax+4], edx

; 35   : 		}

  00013	c2 08 00	 ret	 8
??0?$pair@$$CBKPAVCTPlayer@@@std@@QAE@ABKABQAVCTPlayer@@@Z ENDP ; std::pair<unsigned long const ,CTPlayer *>::pair<unsigned long const ,CTPlayer *>
_TEXT	ENDS
PUBLIC	??8const_iterator@?$_Tree@V?$_Tmap_traits@V?$CStringT@DV?$StrTraitATL@DV?$ChTraitsCRT@D@ATL@@@ATL@@@ATL@@EU?$less@V?$CStringT@DV?$StrTraitATL@DV?$ChTraitsCRT@D@ATL@@@ATL@@@ATL@@@std@@V?$allocator@U?$pair@$$CBV?$CStringT@DV?$StrTraitATL@DV?$ChTraitsCRT@D@ATL@@@ATL@@@ATL@@E@std@@@4@$0A@@std@@@std@@QBE_NABV012@@Z ; std::_Tree<std::_Tmap_traits<ATL::CStringT<char,ATL::StrTraitATL<char,ATL::ChTraitsCRT<char> > >,unsigned char,std::less<ATL::CStringT<char,ATL::StrTraitATL<char,ATL::ChTraitsCRT<char> > > >,std::allocator<std::pair<ATL::CStringT<char,ATL::StrTraitATL<char,ATL::ChTraitsCRT<char> > > const ,unsigned char> >,0> >::const_iterator::operator==
; Function compile flags: /Ogty
; File c:\program files (x86)\microsoft visual studio .net 2003\vc7\include\xtree
;	COMDAT ??8const_iterator@?$_Tree@V?$_Tmap_traits@V?$CStringT@DV?$StrTraitATL@DV?$ChTraitsCRT@D@ATL@@@ATL@@@ATL@@EU?$less@V?$CStringT@DV?$StrTraitATL@DV?$ChTraitsCRT@D@ATL@@@ATL@@@ATL@@@std@@V?$allocator@U?$pair@$$CBV?$CStringT@DV?$StrTraitATL@DV?$ChTraitsCRT@D@ATL@@@ATL@@@ATL@@E@std@@@4@$0A@@std@@@std@@QBE_NABV012@@Z
_TEXT	SEGMENT
__Right$ = 8						; size = 4
??8const_iterator@?$_Tree@V?$_Tmap_traits@V?$CStringT@DV?$StrTraitATL@DV?$ChTraitsCRT@D@ATL@@@ATL@@@ATL@@EU?$less@V?$CStringT@DV?$StrTraitATL@DV?$ChTraitsCRT@D@ATL@@@ATL@@@ATL@@@std@@V?$allocator@U?$pair@$$CBV?$CStringT@DV?$StrTraitATL@DV?$ChTraitsCRT@D@ATL@@@ATL@@@ATL@@E@std@@@4@$0A@@std@@@std@@QBE_NABV012@@Z PROC NEAR ; std::_Tree<std::_Tmap_traits<ATL::CStringT<char,ATL::StrTraitATL<char,ATL::ChTraitsCRT<char> > >,unsigned char,std::less<ATL::CStringT<char,ATL::StrTraitATL<char,ATL::ChTraitsCRT<char> > > >,std::allocator<std::pair<ATL::CStringT<char,ATL::StrTraitATL<char,ATL::ChTraitsCRT<char> > > const ,unsigned char> >,0> >::const_iterator::operator==, COMDAT
; _this$ = ecx

; 241  : 			return (_Ptr == _Right._Ptr);

  00000	8b 01		 mov	 eax, DWORD PTR [ecx]
  00002	8b 4c 24 04	 mov	 ecx, DWORD PTR __Right$[esp-4]
  00006	2b 01		 sub	 eax, DWORD PTR [ecx]
  00008	f7 d8		 neg	 eax
  0000a	1b c0		 sbb	 eax, eax
  0000c	40		 inc	 eax

; 242  : 			}

  0000d	c2 04 00	 ret	 4
??8const_iterator@?$_Tree@V?$_Tmap_traits@V?$CStringT@DV?$StrTraitATL@DV?$ChTraitsCRT@D@ATL@@@ATL@@@ATL@@EU?$less@V?$CStringT@DV?$StrTraitATL@DV?$ChTraitsCRT@D@ATL@@@ATL@@@ATL@@@std@@V?$allocator@U?$pair@$$CBV?$CStringT@DV?$StrTraitATL@DV?$ChTraitsCRT@D@ATL@@@ATL@@@ATL@@E@std@@@4@$0A@@std@@@std@@QBE_NABV012@@Z ENDP ; std::_Tree<std::_Tmap_traits<ATL::CStringT<char,ATL::StrTraitATL<char,ATL::ChTraitsCRT<char> > >,unsigned char,std::less<ATL::CStringT<char,ATL::StrTraitATL<char,ATL::ChTraitsCRT<char> > > >,std::allocator<std::pair<ATL::CStringT<char,ATL::StrTraitATL<char,ATL::ChTraitsCRT<char> > > const ,unsigned char> >,0> >::const_iterator::operator==
_TEXT	ENDS
PUBLIC	?StringFindString@?$ChTraitsCRT@D@ATL@@SAPBDPBD0@Z ; ATL::ChTraitsCRT<char>::StringFindString
EXTRN	__mbsstr:NEAR
; Function compile flags: /Ogty
; File c:\program files (x86)\microsoft visual studio .net 2003\vc7\atlmfc\include\cstringt.h
;	COMDAT ?StringFindString@?$ChTraitsCRT@D@ATL@@SAPBDPBD0@Z
_TEXT	SEGMENT
_pszBlock$ = 8						; size = 4
_pszMatch$ = 12						; size = 4
?StringFindString@?$ChTraitsCRT@D@ATL@@SAPBDPBD0@Z PROC NEAR ; ATL::ChTraitsCRT<char>::StringFindString, COMDAT

; 356  : 		return reinterpret_cast< LPCSTR >( _mbsstr( reinterpret_cast< const unsigned char* >( pszBlock ),
; 357  : 			reinterpret_cast< const unsigned char* >( pszMatch ) ) );

  00000	e9 00 00 00 00	 jmp	 __mbsstr
?StringFindString@?$ChTraitsCRT@D@ATL@@SAPBDPBD0@Z ENDP	; ATL::ChTraitsCRT<char>::StringFindString
_TEXT	ENDS
PUBLIC	?_Isnil@?$_Tree@V?$_Tmap_traits@KPAVCTPlayer@@U?$less@K@std@@V?$allocator@U?$pair@$$CBKPAVCTPlayer@@@std@@@3@$0A@@std@@@std@@KAAADPAU_Node@?$_Tree_nod@V?$_Tmap_traits@KPAVCTPlayer@@U?$less@K@std@@V?$allocator@U?$pair@$$CBKPAVCTPlayer@@@std@@@3@$0A@@std@@@2@@Z ; std::_Tree<std::_Tmap_traits<unsigned long,CTPlayer *,std::less<unsigned long>,std::allocator<std::pair<unsigned long const ,CTPlayer *> >,0> >::_Isnil
; Function compile flags: /Ogty
; File c:\program files (x86)\microsoft visual studio .net 2003\vc7\include\xtree
;	COMDAT ?_Isnil@?$_Tree@V?$_Tmap_traits@KPAVCTPlayer@@U?$less@K@std@@V?$allocator@U?$pair@$$CBKPAVCTPlayer@@@std@@@3@$0A@@std@@@std@@KAAADPAU_Node@?$_Tree_nod@V?$_Tmap_traits@KPAVCTPlayer@@U?$less@K@std@@V?$allocator@U?$pair@$$CBKPAVCTPlayer@@@std@@@3@$0A@@std@@@2@@Z
_TEXT	SEGMENT
__Pnode$ = 8						; size = 4
?_Isnil@?$_Tree@V?$_Tmap_traits@KPAVCTPlayer@@U?$less@K@std@@V?$allocator@U?$pair@$$CBKPAVCTPlayer@@@std@@@3@$0A@@std@@@std@@KAAADPAU_Node@?$_Tree_nod@V?$_Tmap_traits@KPAVCTPlayer@@U?$less@K@std@@V?$allocator@U?$pair@$$CBKPAVCTPlayer@@@std@@@3@$0A@@std@@@2@@Z PROC NEAR ; std::_Tree<std::_Tmap_traits<unsigned long,CTPlayer *,std::less<unsigned long>,std::allocator<std::pair<unsigned long const ,CTPlayer *> >,0> >::_Isnil, COMDAT

; 137  : 		return ((_Charref)(*_Pnode)._Isnil);

  00000	8b 44 24 04	 mov	 eax, DWORD PTR __Pnode$[esp-4]
  00004	83 c0 15	 add	 eax, 21			; 00000015H

; 138  : 		}

  00007	c3		 ret	 0
?_Isnil@?$_Tree@V?$_Tmap_traits@KPAVCTPlayer@@U?$less@K@std@@V?$allocator@U?$pair@$$CBKPAVCTPlayer@@@std@@@3@$0A@@std@@@std@@KAAADPAU_Node@?$_Tree_nod@V?$_Tmap_traits@KPAVCTPlayer@@U?$less@K@std@@V?$allocator@U?$pair@$$CBKPAVCTPlayer@@@std@@@3@$0A@@std@@@2@@Z ENDP ; std::_Tree<std::_Tmap_traits<unsigned long,CTPlayer *,std::less<unsigned long>,std::allocator<std::pair<unsigned long const ,CTPlayer *> >,0> >::_Isnil
_TEXT	ENDS
PUBLIC	?_Left@?$_Tree@V?$_Tmap_traits@KPAVCTPlayer@@U?$less@K@std@@V?$allocator@U?$pair@$$CBKPAVCTPlayer@@@std@@@3@$0A@@std@@@std@@KAAAPAU_Node@?$_Tree_nod@V?$_Tmap_traits@KPAVCTPlayer@@U?$less@K@std@@V?$allocator@U?$pair@$$CBKPAVCTPlayer@@@std@@@3@$0A@@std@@@2@PAU342@@Z ; std::_Tree<std::_Tmap_traits<unsigned long,CTPlayer *,std::less<unsigned long>,std::allocator<std::pair<unsigned long const ,CTPlayer *> >,0> >::_Left
; Function compile flags: /Ogty
;	COMDAT ?_Left@?$_Tree@V?$_Tmap_traits@KPAVCTPlayer@@U?$less@K@std@@V?$allocator@U?$pair@$$CBKPAVCTPlayer@@@std@@@3@$0A@@std@@@std@@KAAAPAU_Node@?$_Tree_nod@V?$_Tmap_traits@KPAVCTPlayer@@U?$less@K@std@@V?$allocator@U?$pair@$$CBKPAVCTPlayer@@@std@@@3@$0A@@std@@@2@PAU342@@Z
_TEXT	SEGMENT
__Pnode$ = 8						; size = 4
?_Left@?$_Tree@V?$_Tmap_traits@KPAVCTPlayer@@U?$less@K@std@@V?$allocator@U?$pair@$$CBKPAVCTPlayer@@@std@@@3@$0A@@std@@@std@@KAAAPAU_Node@?$_Tree_nod@V?$_Tmap_traits@KPAVCTPlayer@@U?$less@K@std@@V?$allocator@U?$pair@$$CBKPAVCTPlayer@@@std@@@3@$0A@@std@@@2@PAU342@@Z PROC NEAR ; std::_Tree<std::_Tmap_traits<unsigned long,CTPlayer *,std::less<unsigned long>,std::allocator<std::pair<unsigned long const ,CTPlayer *> >,0> >::_Left, COMDAT

; 147  : 		return ((_Nodepref)(*_Pnode)._Left);

  00000	8b 44 24 04	 mov	 eax, DWORD PTR __Pnode$[esp-4]

; 148  : 		}

  00004	c3		 ret	 0
?_Left@?$_Tree@V?$_Tmap_traits@KPAVCTPlayer@@U?$less@K@std@@V?$allocator@U?$pair@$$CBKPAVCTPlayer@@@std@@@3@$0A@@std@@@std@@KAAAPAU_Node@?$_Tree_nod@V?$_Tmap_traits@KPAVCTPlayer@@U?$less@K@std@@V?$allocator@U?$pair@$$CBKPAVCTPlayer@@@std@@@3@$0A@@std@@@2@PAU342@@Z ENDP ; std::_Tree<std::_Tmap_traits<unsigned long,CTPlayer *,std::less<unsigned long>,std::allocator<std::pair<unsigned long const ,CTPlayer *> >,0> >::_Left
_TEXT	ENDS
PUBLIC	?_Right@?$_Tree@V?$_Tmap_traits@KPAVCTPlayer@@U?$less@K@std@@V?$allocator@U?$pair@$$CBKPAVCTPlayer@@@std@@@3@$0A@@std@@@std@@KAAAPAU_Node@?$_Tree_nod@V?$_Tmap_traits@KPAVCTPlayer@@U?$less@K@std@@V?$allocator@U?$pair@$$CBKPAVCTPlayer@@@std@@@3@$0A@@std@@@2@PAU342@@Z ; std::_Tree<std::_Tmap_traits<unsigned long,CTPlayer *,std::less<unsigned long>,std::allocator<std::pair<unsigned long const ,CTPlayer *> >,0> >::_Right
; Function compile flags: /Ogty
;	COMDAT ?_Right@?$_Tree@V?$_Tmap_traits@KPAVCTPlayer@@U?$less@K@std@@V?$allocator@U?$pair@$$CBKPAVCTPlayer@@@std@@@3@$0A@@std@@@std@@KAAAPAU_Node@?$_Tree_nod@V?$_Tmap_traits@KPAVCTPlayer@@U?$less@K@std@@V?$allocator@U?$pair@$$CBKPAVCTPlayer@@@std@@@3@$0A@@std@@@2@PAU342@@Z
_TEXT	SEGMENT
__Pnode$ = 8						; size = 4
?_Right@?$_Tree@V?$_Tmap_traits@KPAVCTPlayer@@U?$less@K@std@@V?$allocator@U?$pair@$$CBKPAVCTPlayer@@@std@@@3@$0A@@std@@@std@@KAAAPAU_Node@?$_Tree_nod@V?$_Tmap_traits@KPAVCTPlayer@@U?$less@K@std@@V?$allocator@U?$pair@$$CBKPAVCTPlayer@@@std@@@3@$0A@@std@@@2@PAU342@@Z PROC NEAR ; std::_Tree<std::_Tmap_traits<unsigned long,CTPlayer *,std::less<unsigned long>,std::allocator<std::pair<unsigned long const ,CTPlayer *> >,0> >::_Right, COMDAT

; 157  : 		return ((_Nodepref)(*_Pnode)._Right);

  00000	8b 44 24 04	 mov	 eax, DWORD PTR __Pnode$[esp-4]
  00004	83 c0 08	 add	 eax, 8

; 158  : 		}

  00007	c3		 ret	 0
?_Right@?$_Tree@V?$_Tmap_traits@KPAVCTPlayer@@U?$less@K@std@@V?$allocator@U?$pair@$$CBKPAVCTPlayer@@@std@@@3@$0A@@std@@@std@@KAAAPAU_Node@?$_Tree_nod@V?$_Tmap_traits@KPAVCTPlayer@@U?$less@K@std@@V?$allocator@U?$pair@$$CBKPAVCTPlayer@@@std@@@3@$0A@@std@@@2@PAU342@@Z ENDP ; std::_Tree<std::_Tmap_traits<unsigned long,CTPlayer *,std::less<unsigned long>,std::allocator<std::pair<unsigned long const ,CTPlayer *> >,0> >::_Right
_TEXT	ENDS
PUBLIC	?_Lmost@?$_Tree@V?$_Tmap_traits@KPAVCTPlayer@@U?$less@K@std@@V?$allocator@U?$pair@$$CBKPAVCTPlayer@@@std@@@3@$0A@@std@@@std@@IAEAAPAU_Node@?$_Tree_nod@V?$_Tmap_traits@KPAVCTPlayer@@U?$less@K@std@@V?$allocator@U?$pair@$$CBKPAVCTPlayer@@@std@@@3@$0A@@std@@@2@XZ ; std::_Tree<std::_Tmap_traits<unsigned long,CTPlayer *,std::less<unsigned long>,std::allocator<std::pair<unsigned long const ,CTPlayer *> >,0> >::_Lmost
; Function compile flags: /Ogty
;	COMDAT ?_Lmost@?$_Tree@V?$_Tmap_traits@KPAVCTPlayer@@U?$less@K@std@@V?$allocator@U?$pair@$$CBKPAVCTPlayer@@@std@@@3@$0A@@std@@@std@@IAEAAPAU_Node@?$_Tree_nod@V?$_Tmap_traits@KPAVCTPlayer@@U?$less@K@std@@V?$allocator@U?$pair@$$CBKPAVCTPlayer@@@std@@@3@$0A@@std@@@2@XZ
_TEXT	SEGMENT
?_Lmost@?$_Tree@V?$_Tmap_traits@KPAVCTPlayer@@U?$less@K@std@@V?$allocator@U?$pair@$$CBKPAVCTPlayer@@@std@@@3@$0A@@std@@@std@@IAEAAPAU_Node@?$_Tree_nod@V?$_Tmap_traits@KPAVCTPlayer@@U?$less@K@std@@V?$allocator@U?$pair@$$CBKPAVCTPlayer@@@std@@@3@$0A@@std@@@2@XZ PROC NEAR ; std::_Tree<std::_Tmap_traits<unsigned long,CTPlayer *,std::less<unsigned long>,std::allocator<std::pair<unsigned long const ,CTPlayer *> >,0> >::_Lmost, COMDAT
; _this$ = ecx

; 1005 : 		return (_Left(_Myhead));

  00000	8b 41 04	 mov	 eax, DWORD PTR [ecx+4]

; 1006 : 		}

  00003	c3		 ret	 0
?_Lmost@?$_Tree@V?$_Tmap_traits@KPAVCTPlayer@@U?$less@K@std@@V?$allocator@U?$pair@$$CBKPAVCTPlayer@@@std@@@3@$0A@@std@@@std@@IAEAAPAU_Node@?$_Tree_nod@V?$_Tmap_traits@KPAVCTPlayer@@U?$less@K@std@@V?$allocator@U?$pair@$$CBKPAVCTPlayer@@@std@@@3@$0A@@std@@@2@XZ ENDP ; std::_Tree<std::_Tmap_traits<unsigned long,CTPlayer *,std::less<unsigned long>,std::allocator<std::pair<unsigned long const ,CTPlayer *> >,0> >::_Lmost
_TEXT	ENDS
PUBLIC	?_Kfn@?$_Tmap_traits@KPAVCTPlayer@@U?$less@K@std@@V?$allocator@U?$pair@$$CBKPAVCTPlayer@@@std@@@3@$0A@@std@@SAABKABU?$pair@$$CBKPAVCTPlayer@@@2@@Z ; std::_Tmap_traits<unsigned long,CTPlayer *,std::less<unsigned long>,std::allocator<std::pair<unsigned long const ,CTPlayer *> >,0>::_Kfn
; Function compile flags: /Ogty
; File c:\program files (x86)\microsoft visual studio .net 2003\vc7\include\map
;	COMDAT ?_Kfn@?$_Tmap_traits@KPAVCTPlayer@@U?$less@K@std@@V?$allocator@U?$pair@$$CBKPAVCTPlayer@@@std@@@3@$0A@@std@@SAABKABU?$pair@$$CBKPAVCTPlayer@@@2@@Z
_TEXT	SEGMENT
__Val$ = 8						; size = 4
?_Kfn@?$_Tmap_traits@KPAVCTPlayer@@U?$less@K@std@@V?$allocator@U?$pair@$$CBKPAVCTPlayer@@@std@@@3@$0A@@std@@SAABKABU?$pair@$$CBKPAVCTPlayer@@@2@@Z PROC NEAR ; std::_Tmap_traits<unsigned long,CTPlayer *,std::less<unsigned long>,std::allocator<std::pair<unsigned long const ,CTPlayer *> >,0>::_Kfn, COMDAT

; 64   : 		return (_Val.first);

  00000	8b 44 24 04	 mov	 eax, DWORD PTR __Val$[esp-4]

; 65   : 		}

  00004	c3		 ret	 0
?_Kfn@?$_Tmap_traits@KPAVCTPlayer@@U?$less@K@std@@V?$allocator@U?$pair@$$CBKPAVCTPlayer@@@std@@@3@$0A@@std@@SAABKABU?$pair@$$CBKPAVCTPlayer@@@2@@Z ENDP ; std::_Tmap_traits<unsigned long,CTPlayer *,std::less<unsigned long>,std::allocator<std::pair<unsigned long const ,CTPlayer *> >,0>::_Kfn
_TEXT	ENDS
PUBLIC	??R?$less@K@std@@QBE_NABK0@Z			; std::less<unsigned long>::operator()
; Function compile flags: /Ogty
; File c:\program files (x86)\microsoft visual studio .net 2003\vc7\include\functional
;	COMDAT ??R?$less@K@std@@QBE_NABK0@Z
_TEXT	SEGMENT
__Left$ = 8						; size = 4
__Right$ = 12						; size = 4
??R?$less@K@std@@QBE_NABK0@Z PROC NEAR			; std::less<unsigned long>::operator(), COMDAT
; _this$ = ecx

; 139  : 		return (_Left < _Right);

  00000	8b 44 24 04	 mov	 eax, DWORD PTR __Left$[esp-4]
  00004	8b 08		 mov	 ecx, DWORD PTR [eax]
  00006	8b 54 24 08	 mov	 edx, DWORD PTR __Right$[esp-4]
  0000a	3b 0a		 cmp	 ecx, DWORD PTR [edx]
  0000c	1b c0		 sbb	 eax, eax
  0000e	f7 d8		 neg	 eax

; 140  : 		}

  00010	c2 08 00	 ret	 8
??R?$less@K@std@@QBE_NABK0@Z ENDP			; std::less<unsigned long>::operator()
_TEXT	ENDS
PUBLIC	??R?$less@G@std@@QBE_NABG0@Z			; std::less<unsigned short>::operator()
; Function compile flags: /Ogty
;	COMDAT ??R?$less@G@std@@QBE_NABG0@Z
_TEXT	SEGMENT
__Left$ = 8						; size = 4
__Right$ = 12						; size = 4
??R?$less@G@std@@QBE_NABG0@Z PROC NEAR			; std::less<unsigned short>::operator(), COMDAT
; _this$ = ecx

; 139  : 		return (_Left < _Right);

  00000	8b 44 24 04	 mov	 eax, DWORD PTR __Left$[esp-4]
  00004	66 8b 08	 mov	 cx, WORD PTR [eax]
  00007	8b 54 24 08	 mov	 edx, DWORD PTR __Right$[esp-4]
  0000b	66 3b 0a	 cmp	 cx, WORD PTR [edx]
  0000e	1b c0		 sbb	 eax, eax
  00010	f7 d8		 neg	 eax

; 140  : 		}

  00012	c2 08 00	 ret	 8
??R?$less@G@std@@QBE_NABG0@Z ENDP			; std::less<unsigned short>::operator()
_TEXT	ENDS
PUBLIC	??0const_iterator@?$_Tree@V?$_Tmap_traits@KPAVCTPlayer@@U?$less@K@std@@V?$allocator@U?$pair@$$CBKPAVCTPlayer@@@std@@@3@$0A@@std@@@std@@QAE@XZ ; std::_Tree<std::_Tmap_traits<unsigned long,CTPlayer *,std::less<unsigned long>,std::allocator<std::pair<unsigned long const ,CTPlayer *> >,0> >::const_iterator::const_iterator
; Function compile flags: /Ogty
; File c:\program files (x86)\microsoft visual studio .net 2003\vc7\include\xtree
;	COMDAT ??0const_iterator@?$_Tree@V?$_Tmap_traits@KPAVCTPlayer@@U?$less@K@std@@V?$allocator@U?$pair@$$CBKPAVCTPlayer@@@std@@@3@$0A@@std@@@std@@QAE@XZ
_TEXT	SEGMENT
??0const_iterator@?$_Tree@V?$_Tmap_traits@KPAVCTPlayer@@U?$less@K@std@@V?$allocator@U?$pair@$$CBKPAVCTPlayer@@@std@@@3@$0A@@std@@@std@@QAE@XZ PROC NEAR ; std::_Tree<std::_Tmap_traits<unsigned long,CTPlayer *,std::less<unsigned long>,std::allocator<std::pair<unsigned long const ,CTPlayer *> >,0> >::const_iterator::const_iterator, COMDAT
; _this$ = ecx

; 193  : 			{	// construct with null node pointer

  00000	8b c1		 mov	 eax, ecx
  00002	c7 00 00 00 00
	00		 mov	 DWORD PTR [eax], 0

; 194  : 			}

  00008	c3		 ret	 0
??0const_iterator@?$_Tree@V?$_Tmap_traits@KPAVCTPlayer@@U?$less@K@std@@V?$allocator@U?$pair@$$CBKPAVCTPlayer@@@std@@@3@$0A@@std@@@std@@QAE@XZ ENDP ; std::_Tree<std::_Tmap_traits<unsigned long,CTPlayer *,std::less<unsigned long>,std::allocator<std::pair<unsigned long const ,CTPlayer *> >,0> >::const_iterator::const_iterator
_TEXT	ENDS
PUBLIC	??8const_iterator@?$_Tree@V?$_Tmap_traits@KPAVCTPlayer@@U?$less@K@std@@V?$allocator@U?$pair@$$CBKPAVCTPlayer@@@std@@@3@$0A@@std@@@std@@QBE_NABV012@@Z ; std::_Tree<std::_Tmap_traits<unsigned long,CTPlayer *,std::less<unsigned long>,std::allocator<std::pair<unsigned long const ,CTPlayer *> >,0> >::const_iterator::operator==
; Function compile flags: /Ogty
;	COMDAT ??8const_iterator@?$_Tree@V?$_Tmap_traits@KPAVCTPlayer@@U?$less@K@std@@V?$allocator@U?$pair@$$CBKPAVCTPlayer@@@std@@@3@$0A@@std@@@std@@QBE_NABV012@@Z
_TEXT	SEGMENT
__Right$ = 8						; size = 4
??8const_iterator@?$_Tree@V?$_Tmap_traits@KPAVCTPlayer@@U?$less@K@std@@V?$allocator@U?$pair@$$CBKPAVCTPlayer@@@std@@@3@$0A@@std@@@std@@QBE_NABV012@@Z PROC NEAR ; std::_Tree<std::_Tmap_traits<unsigned long,CTPlayer *,std::less<unsigned long>,std::allocator<std::pair<unsigned long const ,CTPlayer *> >,0> >::const_iterator::operator==, COMDAT
; _this$ = ecx

; 241  : 			return (_Ptr == _Right._Ptr);

  00000	8b 01		 mov	 eax, DWORD PTR [ecx]
  00002	8b 4c 24 04	 mov	 ecx, DWORD PTR __Right$[esp-4]
  00006	2b 01		 sub	 eax, DWORD PTR [ecx]
  00008	f7 d8		 neg	 eax
  0000a	1b c0		 sbb	 eax, eax
  0000c	40		 inc	 eax

; 242  : 			}

  0000d	c2 04 00	 ret	 4
??8const_iterator@?$_Tree@V?$_Tmap_traits@KPAVCTPlayer@@U?$less@K@std@@V?$allocator@U?$pair@$$CBKPAVCTPlayer@@@std@@@3@$0A@@std@@@std@@QBE_NABV012@@Z ENDP ; std::_Tree<std::_Tmap_traits<unsigned long,CTPlayer *,std::less<unsigned long>,std::allocator<std::pair<unsigned long const ,CTPlayer *> >,0> >::const_iterator::operator==
_TEXT	ENDS
PUBLIC	?_Mynode@const_iterator@?$_Tree@V?$_Tmap_traits@KPAVCTPlayer@@U?$less@K@std@@V?$allocator@U?$pair@$$CBKPAVCTPlayer@@@std@@@3@$0A@@std@@@std@@QBEPAU_Node@?$_Tree_nod@V?$_Tmap_traits@KPAVCTPlayer@@U?$less@K@std@@V?$allocator@U?$pair@$$CBKPAVCTPlayer@@@std@@@3@$0A@@std@@@3@XZ ; std::_Tree<std::_Tmap_traits<unsigned long,CTPlayer *,std::less<unsigned long>,std::allocator<std::pair<unsigned long const ,CTPlayer *> >,0> >::const_iterator::_Mynode
; Function compile flags: /Ogty
;	COMDAT ?_Mynode@const_iterator@?$_Tree@V?$_Tmap_traits@KPAVCTPlayer@@U?$less@K@std@@V?$allocator@U?$pair@$$CBKPAVCTPlayer@@@std@@@3@$0A@@std@@@std@@QBEPAU_Node@?$_Tree_nod@V?$_Tmap_traits@KPAVCTPlayer@@U?$less@K@std@@V?$allocator@U?$pair@$$CBKPAVCTPlayer@@@std@@@3@$0A@@std@@@3@XZ
_TEXT	SEGMENT
?_Mynode@const_iterator@?$_Tree@V?$_Tmap_traits@KPAVCTPlayer@@U?$less@K@std@@V?$allocator@U?$pair@$$CBKPAVCTPlayer@@@std@@@3@$0A@@std@@@std@@QBEPAU_Node@?$_Tree_nod@V?$_Tmap_traits@KPAVCTPlayer@@U?$less@K@std@@V?$allocator@U?$pair@$$CBKPAVCTPlayer@@@std@@@3@$0A@@std@@@3@XZ PROC NEAR ; std::_Tree<std::_Tmap_traits<unsigned long,CTPlayer *,std::less<unsigned long>,std::allocator<std::pair<unsigned long const ,CTPlayer *> >,0> >::const_iterator::_Mynode, COMDAT
; _this$ = ecx

; 284  : 			return (_Ptr);

  00000	8b 01		 mov	 eax, DWORD PTR [ecx]

; 285  : 			}

  00002	c3		 ret	 0
?_Mynode@const_iterator@?$_Tree@V?$_Tmap_traits@KPAVCTPlayer@@U?$less@K@std@@V?$allocator@U?$pair@$$CBKPAVCTPlayer@@@std@@@3@$0A@@std@@@std@@QBEPAU_Node@?$_Tree_nod@V?$_Tmap_traits@KPAVCTPlayer@@U?$less@K@std@@V?$allocator@U?$pair@$$CBKPAVCTPlayer@@@std@@@3@$0A@@std@@@3@XZ ENDP ; std::_Tree<std::_Tmap_traits<unsigned long,CTPlayer *,std::less<unsigned long>,std::allocator<std::pair<unsigned long const ,CTPlayer *> >,0> >::const_iterator::_Mynode
_TEXT	ENDS
PUBLIC	??0?$pair@Viterator@?$_Tree@V?$_Tmap_traits@KPAVCTPlayer@@U?$less@K@std@@V?$allocator@U?$pair@$$CBKPAVCTPlayer@@@std@@@3@$0A@@std@@@std@@_N@std@@QAE@ABViterator@?$_Tree@V?$_Tmap_traits@KPAVCTPlayer@@U?$less@K@std@@V?$allocator@U?$pair@$$CBKPAVCTPlayer@@@std@@@3@$0A@@std@@@1@AB_N@Z ; std::pair<std::_Tree<std::_Tmap_traits<unsigned long,CTPlayer *,std::less<unsigned long>,std::allocator<std::pair<unsigned long const ,CTPlayer *> >,0> >::iterator,bool>::pair<std::_Tree<std::_Tmap_traits<unsigned long,CTPlayer *,std::less<unsigned long>,std::allocator<std::pair<unsigned long const ,CTPlayer *> >,0> >::iterator,bool>
; Function compile flags: /Ogty
; File c:\program files (x86)\microsoft visual studio .net 2003\vc7\include\utility
;	COMDAT ??0?$pair@Viterator@?$_Tree@V?$_Tmap_traits@KPAVCTPlayer@@U?$less@K@std@@V?$allocator@U?$pair@$$CBKPAVCTPlayer@@@std@@@3@$0A@@std@@@std@@_N@std@@QAE@ABViterator@?$_Tree@V?$_Tmap_traits@KPAVCTPlayer@@U?$less@K@std@@V?$allocator@U?$pair@$$CBKPAVCTPlayer@@@std@@@3@$0A@@std@@@1@AB_N@Z
_TEXT	SEGMENT
__Val1$ = 8						; size = 4
__Val2$ = 12						; size = 4
??0?$pair@Viterator@?$_Tree@V?$_Tmap_traits@KPAVCTPlayer@@U?$less@K@std@@V?$allocator@U?$pair@$$CBKPAVCTPlayer@@@std@@@3@$0A@@std@@@std@@_N@std@@QAE@ABViterator@?$_Tree@V?$_Tmap_traits@KPAVCTPlayer@@U?$less@K@std@@V?$allocator@U?$pair@$$CBKPAVCTPlayer@@@std@@@3@$0A@@std@@@1@AB_N@Z PROC NEAR ; std::pair<std::_Tree<std::_Tmap_traits<unsigned long,CTPlayer *,std::less<unsigned long>,std::allocator<std::pair<unsigned long const ,CTPlayer *> >,0> >::iterator,bool>::pair<std::_Tree<std::_Tmap_traits<unsigned long,CTPlayer *,std::less<unsigned long>,std::allocator<std::pair<unsigned long const ,CTPlayer *> >,0> >::iterator,bool>, COMDAT
; _this$ = ecx

; 34   : 		{	// construct from specified values

  00000	8b c1		 mov	 eax, ecx
  00002	8b 4c 24 04	 mov	 ecx, DWORD PTR __Val1$[esp-4]
  00006	8b 11		 mov	 edx, DWORD PTR [ecx]
  00008	8b 4c 24 08	 mov	 ecx, DWORD PTR __Val2$[esp-4]
  0000c	89 10		 mov	 DWORD PTR [eax], edx
  0000e	8a 11		 mov	 dl, BYTE PTR [ecx]
  00010	88 50 04	 mov	 BYTE PTR [eax+4], dl

; 35   : 		}

  00013	c2 08 00	 ret	 8
??0?$pair@Viterator@?$_Tree@V?$_Tmap_traits@KPAVCTPlayer@@U?$less@K@std@@V?$allocator@U?$pair@$$CBKPAVCTPlayer@@@std@@@3@$0A@@std@@@std@@_N@std@@QAE@ABViterator@?$_Tree@V?$_Tmap_traits@KPAVCTPlayer@@U?$less@K@std@@V?$allocator@U?$pair@$$CBKPAVCTPlayer@@@std@@@3@$0A@@std@@@1@AB_N@Z ENDP ; std::pair<std::_Tree<std::_Tmap_traits<unsigned long,CTPlayer *,std::less<unsigned long>,std::allocator<std::pair<unsigned long const ,CTPlayer *> >,0> >::iterator,bool>::pair<std::_Tree<std::_Tmap_traits<unsigned long,CTPlayer *,std::less<unsigned long>,std::allocator<std::pair<unsigned long const ,CTPlayer *> >,0> >::iterator,bool>
_TEXT	ENDS
PUBLIC	??8const_iterator@?$_Tree@V?$_Tmap_traits@GV?$map@KPAVCTPlayer@@U?$less@K@std@@V?$allocator@U?$pair@$$CBKPAVCTPlayer@@@std@@@3@@std@@U?$less@G@2@V?$allocator@U?$pair@$$CBGV?$map@KPAVCTPlayer@@U?$less@K@std@@V?$allocator@U?$pair@$$CBKPAVCTPlayer@@@std@@@3@@std@@@std@@@2@$0A@@std@@@std@@QBE_NABV012@@Z ; std::_Tree<std::_Tmap_traits<unsigned short,std::map<unsigned long,CTPlayer *,std::less<unsigned long>,std::allocator<std::pair<unsigned long const ,CTPlayer *> > >,std::less<unsigned short>,std::allocator<std::pair<unsigned short const ,std::map<unsigned long,CTPlayer *,std::less<unsigned long>,std::allocator<std::pair<unsigned long const ,CTPlayer *> > > > >,0> >::const_iterator::operator==
; Function compile flags: /Ogty
; File c:\program files (x86)\microsoft visual studio .net 2003\vc7\include\xtree
;	COMDAT ??8const_iterator@?$_Tree@V?$_Tmap_traits@GV?$map@KPAVCTPlayer@@U?$less@K@std@@V?$allocator@U?$pair@$$CBKPAVCTPlayer@@@std@@@3@@std@@U?$less@G@2@V?$allocator@U?$pair@$$CBGV?$map@KPAVCTPlayer@@U?$less@K@std@@V?$allocator@U?$pair@$$CBKPAVCTPlayer@@@std@@@3@@std@@@std@@@2@$0A@@std@@@std@@QBE_NABV012@@Z
_TEXT	SEGMENT
__Right$ = 8						; size = 4
??8const_iterator@?$_Tree@V?$_Tmap_traits@GV?$map@KPAVCTPlayer@@U?$less@K@std@@V?$allocator@U?$pair@$$CBKPAVCTPlayer@@@std@@@3@@std@@U?$less@G@2@V?$allocator@U?$pair@$$CBGV?$map@KPAVCTPlayer@@U?$less@K@std@@V?$allocator@U?$pair@$$CBKPAVCTPlayer@@@std@@@3@@std@@@std@@@2@$0A@@std@@@std@@QBE_NABV012@@Z PROC NEAR ; std::_Tree<std::_Tmap_traits<unsigned short,std::map<unsigned long,CTPlayer *,std::less<unsigned long>,std::allocator<std::pair<unsigned long const ,CTPlayer *> > >,std::less<unsigned short>,std::allocator<std::pair<unsigned short const ,std::map<unsigned long,CTPlayer *,std::less<unsigned long>,std::allocator<std::pair<unsigned long const ,CTPlayer *> > > > >,0> >::const_iterator::operator==, COMDAT
; _this$ = ecx

; 241  : 			return (_Ptr == _Right._Ptr);

  00000	8b 01		 mov	 eax, DWORD PTR [ecx]
  00002	8b 4c 24 04	 mov	 ecx, DWORD PTR __Right$[esp-4]
  00006	2b 01		 sub	 eax, DWORD PTR [ecx]
  00008	f7 d8		 neg	 eax
  0000a	1b c0		 sbb	 eax, eax
  0000c	40		 inc	 eax

; 242  : 			}

  0000d	c2 04 00	 ret	 4
??8const_iterator@?$_Tree@V?$_Tmap_traits@GV?$map@KPAVCTPlayer@@U?$less@K@std@@V?$allocator@U?$pair@$$CBKPAVCTPlayer@@@std@@@3@@std@@U?$less@G@2@V?$allocator@U?$pair@$$CBGV?$map@KPAVCTPlayer@@U?$less@K@std@@V?$allocator@U?$pair@$$CBKPAVCTPlayer@@@std@@@3@@std@@@std@@@2@$0A@@std@@@std@@QBE_NABV012@@Z ENDP ; std::_Tree<std::_Tmap_traits<unsigned short,std::map<unsigned long,CTPlayer *,std::less<unsigned long>,std::allocator<std::pair<unsigned long const ,CTPlayer *> > >,std::less<unsigned short>,std::allocator<std::pair<unsigned short const ,std::map<unsigned long,CTPlayer *,std::less<unsigned long>,std::allocator<std::pair<unsigned long const ,CTPlayer *> > > > >,0> >::const_iterator::operator==
_TEXT	ENDS
PUBLIC	?_Mynode@const_iterator@?$_Tree@V?$_Tmap_traits@GV?$map@KPAVCTPlayer@@U?$less@K@std@@V?$allocator@U?$pair@$$CBKPAVCTPlayer@@@std@@@3@@std@@U?$less@G@2@V?$allocator@U?$pair@$$CBGV?$map@KPAVCTPlayer@@U?$less@K@std@@V?$allocator@U?$pair@$$CBKPAVCTPlayer@@@std@@@3@@std@@@std@@@2@$0A@@std@@@std@@QBEPAU_Node@?$_Tree_nod@V?$_Tmap_traits@GV?$map@KPAVCTPlayer@@U?$less@K@std@@V?$allocator@U?$pair@$$CBKPAVCTPlayer@@@std@@@3@@std@@U?$less@G@2@V?$allocator@U?$pair@$$CBGV?$map@KPAVCTPlayer@@U?$less@K@std@@V?$allocator@U?$pair@$$CBKPAVCTPlayer@@@std@@@3@@std@@@std@@@2@$0A@@std@@@3@XZ ; std::_Tree<std::_Tmap_traits<unsigned short,std::map<unsigned long,CTPlayer *,std::less<unsigned long>,std::allocator<std::pair<unsigned long const ,CTPlayer *> > >,std::less<unsigned short>,std::allocator<std::pair<unsigned short const ,std::map<unsigned long,CTPlayer *,std::less<unsigned long>,std::allocator<std::pair<unsigned long const ,CTPlayer *> > > > >,0> >::const_iterator::_Mynode
; Function compile flags: /Ogty
;	COMDAT ?_Mynode@const_iterator@?$_Tree@V?$_Tmap_traits@GV?$map@KPAVCTPlayer@@U?$less@K@std@@V?$allocator@U?$pair@$$CBKPAVCTPlayer@@@std@@@3@@std@@U?$less@G@2@V?$allocator@U?$pair@$$CBGV?$map@KPAVCTPlayer@@U?$less@K@std@@V?$allocator@U?$pair@$$CBKPAVCTPlayer@@@std@@@3@@std@@@std@@@2@$0A@@std@@@std@@QBEPAU_Node@?$_Tree_nod@V?$_Tmap_traits@GV?$map@KPAVCTPlayer@@U?$less@K@std@@V?$allocator@U?$pair@$$CBKPAVCTPlayer@@@std@@@3@@std@@U?$less@G@2@V?$allocator@U?$pair@$$CBGV?$map@KPAVCTPlayer@@U?$less@K@std@@V?$allocator@U?$pair@$$CBKPAVCTPlayer@@@std@@@3@@std@@@std@@@2@$0A@@std@@@3@XZ
_TEXT	SEGMENT
?_Mynode@const_iterator@?$_Tree@V?$_Tmap_traits@GV?$map@KPAVCTPlayer@@U?$less@K@std@@V?$allocator@U?$pair@$$CBKPAVCTPlayer@@@std@@@3@@std@@U?$less@G@2@V?$allocator@U?$pair@$$CBGV?$map@KPAVCTPlayer@@U?$less@K@std@@V?$allocator@U?$pair@$$CBKPAVCTPlayer@@@std@@@3@@std@@@std@@@2@$0A@@std@@@std@@QBEPAU_Node@?$_Tree_nod@V?$_Tmap_traits@GV?$map@KPAVCTPlayer@@U?$less@K@std@@V?$allocator@U?$pair@$$CBKPAVCTPlayer@@@std@@@3@@std@@U?$less@G@2@V?$allocator@U?$pair@$$CBGV?$map@KPAVCTPlayer@@U?$less@K@std@@V?$allocator@U?$pair@$$CBKPAVCTPlayer@@@std@@@3@@std@@@std@@@2@$0A@@std@@@3@XZ PROC NEAR ; std::_Tree<std::_Tmap_traits<unsigned short,std::map<unsigned long,CTPlayer *,std::less<unsigned long>,std::allocator<std::pair<unsigned long const ,CTPlayer *> > >,std::less<unsigned short>,std::allocator<std::pair<unsigned short const ,std::map<unsigned long,CTPlayer *,std::less<unsigned long>,std::allocator<std::pair<unsigned long const ,CTPlayer *> > > > >,0> >::const_iterator::_Mynode, COMDAT
; _this$ = ecx

; 284  : 			return (_Ptr);

  00000	8b 01		 mov	 eax, DWORD PTR [ecx]

; 285  : 			}

  00002	c3		 ret	 0
?_Mynode@const_iterator@?$_Tree@V?$_Tmap_traits@GV?$map@KPAVCTPlayer@@U?$less@K@std@@V?$allocator@U?$pair@$$CBKPAVCTPlayer@@@std@@@3@@std@@U?$less@G@2@V?$allocator@U?$pair@$$CBGV?$map@KPAVCTPlayer@@U?$less@K@std@@V?$allocator@U?$pair@$$CBKPAVCTPlayer@@@std@@@3@@std@@@std@@@2@$0A@@std@@@std@@QBEPAU_Node@?$_Tree_nod@V?$_Tmap_traits@GV?$map@KPAVCTPlayer@@U?$less@K@std@@V?$allocator@U?$pair@$$CBKPAVCTPlayer@@@std@@@3@@std@@U?$less@G@2@V?$allocator@U?$pair@$$CBGV?$map@KPAVCTPlayer@@U?$less@K@std@@V?$allocator@U?$pair@$$CBKPAVCTPlayer@@@std@@@3@@std@@@std@@@2@$0A@@std@@@3@XZ ENDP ; std::_Tree<std::_Tmap_traits<unsigned short,std::map<unsigned long,CTPlayer *,std::less<unsigned long>,std::allocator<std::pair<unsigned long const ,CTPlayer *> > >,std::less<unsigned short>,std::allocator<std::pair<unsigned short const ,std::map<unsigned long,CTPlayer *,std::less<unsigned long>,std::allocator<std::pair<unsigned long const ,CTPlayer *> > > > >,0> >::const_iterator::_Mynode
_TEXT	ENDS
PUBLIC	??0const_iterator@?$_Tree@V?$_Tmap_traits@GPAVCTParty@@U?$less@G@std@@V?$allocator@U?$pair@$$CBGPAVCTParty@@@std@@@3@$0A@@std@@@std@@QAE@XZ ; std::_Tree<std::_Tmap_traits<unsigned short,CTParty *,std::less<unsigned short>,std::allocator<std::pair<unsigned short const ,CTParty *> >,0> >::const_iterator::const_iterator
; Function compile flags: /Ogty
;	COMDAT ??0const_iterator@?$_Tree@V?$_Tmap_traits@GPAVCTParty@@U?$less@G@std@@V?$allocator@U?$pair@$$CBGPAVCTParty@@@std@@@3@$0A@@std@@@std@@QAE@XZ
_TEXT	SEGMENT
??0const_iterator@?$_Tree@V?$_Tmap_traits@GPAVCTParty@@U?$less@G@std@@V?$allocator@U?$pair@$$CBGPAVCTParty@@@std@@@3@$0A@@std@@@std@@QAE@XZ PROC NEAR ; std::_Tree<std::_Tmap_traits<unsigned short,CTParty *,std::less<unsigned short>,std::allocator<std::pair<unsigned short const ,CTParty *> >,0> >::const_iterator::const_iterator, COMDAT
; _this$ = ecx

; 193  : 			{	// construct with null node pointer

  00000	8b c1		 mov	 eax, ecx
  00002	c7 00 00 00 00
	00		 mov	 DWORD PTR [eax], 0

; 194  : 			}

  00008	c3		 ret	 0
??0const_iterator@?$_Tree@V?$_Tmap_traits@GPAVCTParty@@U?$less@G@std@@V?$allocator@U?$pair@$$CBGPAVCTParty@@@std@@@3@$0A@@std@@@std@@QAE@XZ ENDP ; std::_Tree<std::_Tmap_traits<unsigned short,CTParty *,std::less<unsigned short>,std::allocator<std::pair<unsigned short const ,CTParty *> >,0> >::const_iterator::const_iterator
_TEXT	ENDS
PUBLIC	??8const_iterator@?$_Tree@V?$_Tmap_traits@GPAVCTParty@@U?$less@G@std@@V?$allocator@U?$pair@$$CBGPAVCTParty@@@std@@@3@$0A@@std@@@std@@QBE_NABV012@@Z ; std::_Tree<std::_Tmap_traits<unsigned short,CTParty *,std::less<unsigned short>,std::allocator<std::pair<unsigned short const ,CTParty *> >,0> >::const_iterator::operator==
; Function compile flags: /Ogty
;	COMDAT ??8const_iterator@?$_Tree@V?$_Tmap_traits@GPAVCTParty@@U?$less@G@std@@V?$allocator@U?$pair@$$CBGPAVCTParty@@@std@@@3@$0A@@std@@@std@@QBE_NABV012@@Z
_TEXT	SEGMENT
__Right$ = 8						; size = 4
??8const_iterator@?$_Tree@V?$_Tmap_traits@GPAVCTParty@@U?$less@G@std@@V?$allocator@U?$pair@$$CBGPAVCTParty@@@std@@@3@$0A@@std@@@std@@QBE_NABV012@@Z PROC NEAR ; std::_Tree<std::_Tmap_traits<unsigned short,CTParty *,std::less<unsigned short>,std::allocator<std::pair<unsigned short const ,CTParty *> >,0> >::const_iterator::operator==, COMDAT
; _this$ = ecx

; 241  : 			return (_Ptr == _Right._Ptr);

  00000	8b 01		 mov	 eax, DWORD PTR [ecx]
  00002	8b 4c 24 04	 mov	 ecx, DWORD PTR __Right$[esp-4]
  00006	2b 01		 sub	 eax, DWORD PTR [ecx]
  00008	f7 d8		 neg	 eax
  0000a	1b c0		 sbb	 eax, eax
  0000c	40		 inc	 eax

; 242  : 			}

  0000d	c2 04 00	 ret	 4
??8const_iterator@?$_Tree@V?$_Tmap_traits@GPAVCTParty@@U?$less@G@std@@V?$allocator@U?$pair@$$CBGPAVCTParty@@@std@@@3@$0A@@std@@@std@@QBE_NABV012@@Z ENDP ; std::_Tree<std::_Tmap_traits<unsigned short,CTParty *,std::less<unsigned short>,std::allocator<std::pair<unsigned short const ,CTParty *> >,0> >::const_iterator::operator==
_TEXT	ENDS
PUBLIC	?_Mynode@const_iterator@?$_Tree@V?$_Tmap_traits@V?$CStringT@DV?$StrTraitATL@DV?$ChTraitsCRT@D@ATL@@@ATL@@@ATL@@EU?$less@V?$CStringT@DV?$StrTraitATL@DV?$ChTraitsCRT@D@ATL@@@ATL@@@ATL@@@std@@V?$allocator@U?$pair@$$CBV?$CStringT@DV?$StrTraitATL@DV?$ChTraitsCRT@D@ATL@@@ATL@@@ATL@@E@std@@@4@$0A@@std@@@std@@QBEPAU_Node@?$_Tree_nod@V?$_Tmap_traits@V?$CStringT@DV?$StrTraitATL@DV?$ChTraitsCRT@D@ATL@@@ATL@@@ATL@@EU?$less@V?$CStringT@DV?$StrTraitATL@DV?$ChTraitsCRT@D@ATL@@@ATL@@@ATL@@@std@@V?$allocator@U?$pair@$$CBV?$CStringT@DV?$StrTraitATL@DV?$ChTraitsCRT@D@ATL@@@ATL@@@ATL@@E@std@@@4@$0A@@std@@@3@XZ ; std::_Tree<std::_Tmap_traits<ATL::CStringT<char,ATL::StrTraitATL<char,ATL::ChTraitsCRT<char> > >,unsigned char,std::less<ATL::CStringT<char,ATL::StrTraitATL<char,ATL::ChTraitsCRT<char> > > >,std::allocator<std::pair<ATL::CStringT<char,ATL::StrTraitATL<char,ATL::ChTraitsCRT<char> > > const ,unsigned char> >,0> >::const_iterator::_Mynode
; Function compile flags: /Ogty
;	COMDAT ?_Mynode@const_iterator@?$_Tree@V?$_Tmap_traits@V?$CStringT@DV?$StrTraitATL@DV?$ChTraitsCRT@D@ATL@@@ATL@@@ATL@@EU?$less@V?$CStringT@DV?$StrTraitATL@DV?$ChTraitsCRT@D@ATL@@@ATL@@@ATL@@@std@@V?$allocator@U?$pair@$$CBV?$CStringT@DV?$StrTraitATL@DV?$ChTraitsCRT@D@ATL@@@ATL@@@ATL@@E@std@@@4@$0A@@std@@@std@@QBEPAU_Node@?$_Tree_nod@V?$_Tmap_traits@V?$CStringT@DV?$StrTraitATL@DV?$ChTraitsCRT@D@ATL@@@ATL@@@ATL@@EU?$less@V?$CStringT@DV?$StrTraitATL@DV?$ChTraitsCRT@D@ATL@@@ATL@@@ATL@@@std@@V?$allocator@U?$pair@$$CBV?$CStringT@DV?$StrTraitATL@DV?$ChTraitsCRT@D@ATL@@@ATL@@@ATL@@E@std@@@4@$0A@@std@@@3@XZ
_TEXT	SEGMENT
?_Mynode@const_iterator@?$_Tree@V?$_Tmap_traits@V?$CStringT@DV?$StrTraitATL@DV?$ChTraitsCRT@D@ATL@@@ATL@@@ATL@@EU?$less@V?$CStringT@DV?$StrTraitATL@DV?$ChTraitsCRT@D@ATL@@@ATL@@@ATL@@@std@@V?$allocator@U?$pair@$$CBV?$CStringT@DV?$StrTraitATL@DV?$ChTraitsCRT@D@ATL@@@ATL@@@ATL@@E@std@@@4@$0A@@std@@@std@@QBEPAU_Node@?$_Tree_nod@V?$_Tmap_traits@V?$CStringT@DV?$StrTraitATL@DV?$ChTraitsCRT@D@ATL@@@ATL@@@ATL@@EU?$less@V?$CStringT@DV?$StrTraitATL@DV?$ChTraitsCRT@D@ATL@@@ATL@@@ATL@@@std@@V?$allocator@U?$pair@$$CBV?$CStringT@DV?$StrTraitATL@DV?$ChTraitsCRT@D@ATL@@@ATL@@@ATL@@E@std@@@4@$0A@@std@@@3@XZ PROC NEAR ; std::_Tree<std::_Tmap_traits<ATL::CStringT<char,ATL::StrTraitATL<char,ATL::ChTraitsCRT<char> > >,unsigned char,std::less<ATL::CStringT<char,ATL::StrTraitATL<char,ATL::ChTraitsCRT<char> > > >,std::allocator<std::pair<ATL::CStringT<char,ATL::StrTraitATL<char,ATL::ChTraitsCRT<char> > > const ,unsigned char> >,0> >::const_iterator::_Mynode, COMDAT
; _this$ = ecx

; 284  : 			return (_Ptr);

  00000	8b 01		 mov	 eax, DWORD PTR [ecx]

; 285  : 			}

  00002	c3		 ret	 0
?_Mynode@const_iterator@?$_Tree@V?$_Tmap_traits@V?$CStringT@DV?$StrTraitATL@DV?$ChTraitsCRT@D@ATL@@@ATL@@@ATL@@EU?$less@V?$CStringT@DV?$StrTraitATL@DV?$ChTraitsCRT@D@ATL@@@ATL@@@ATL@@@std@@V?$allocator@U?$pair@$$CBV?$CStringT@DV?$StrTraitATL@DV?$ChTraitsCRT@D@ATL@@@ATL@@@ATL@@E@std@@@4@$0A@@std@@@std@@QBEPAU_Node@?$_Tree_nod@V?$_Tmap_traits@V?$CStringT@DV?$StrTraitATL@DV?$ChTraitsCRT@D@ATL@@@ATL@@@ATL@@EU?$less@V?$CStringT@DV?$StrTraitATL@DV?$ChTraitsCRT@D@ATL@@@ATL@@@ATL@@@std@@V?$allocator@U?$pair@$$CBV?$CStringT@DV?$StrTraitATL@DV?$ChTraitsCRT@D@ATL@@@ATL@@@ATL@@E@std@@@4@$0A@@std@@@3@XZ ENDP ; std::_Tree<std::_Tmap_traits<ATL::CStringT<char,ATL::StrTraitATL<char,ATL::ChTraitsCRT<char> > >,unsigned char,std::less<ATL::CStringT<char,ATL::StrTraitATL<char,ATL::ChTraitsCRT<char> > > >,std::allocator<std::pair<ATL::CStringT<char,ATL::StrTraitATL<char,ATL::ChTraitsCRT<char> > > const ,unsigned char> >,0> >::const_iterator::_Mynode
_TEXT	ENDS
PUBLIC	?StringCompare@?$ChTraitsCRT@D@ATL@@SAHPBD0@Z	; ATL::ChTraitsCRT<char>::StringCompare
EXTRN	__mbscmp:NEAR
; Function compile flags: /Ogty
; File c:\program files (x86)\microsoft visual studio .net 2003\vc7\atlmfc\include\cstringt.h
;	COMDAT ?StringCompare@?$ChTraitsCRT@D@ATL@@SAHPBD0@Z
_TEXT	SEGMENT
_pszA$ = 8						; size = 4
_pszB$ = 12						; size = 4
?StringCompare@?$ChTraitsCRT@D@ATL@@SAHPBD0@Z PROC NEAR	; ATL::ChTraitsCRT<char>::StringCompare, COMDAT

; 336  : 		return _mbscmp( reinterpret_cast< const unsigned char* >( pszA ), reinterpret_cast< const unsigned char* >( pszB ) );

  00000	e9 00 00 00 00	 jmp	 __mbscmp
?StringCompare@?$ChTraitsCRT@D@ATL@@SAHPBD0@Z ENDP	; ATL::ChTraitsCRT<char>::StringCompare
_TEXT	ENDS
PUBLIC	?_Myval@?$_Tree@V?$_Tmap_traits@V?$CStringT@DV?$StrTraitATL@DV?$ChTraitsCRT@D@ATL@@@ATL@@@ATL@@EU?$less@V?$CStringT@DV?$StrTraitATL@DV?$ChTraitsCRT@D@ATL@@@ATL@@@ATL@@@std@@V?$allocator@U?$pair@$$CBV?$CStringT@DV?$StrTraitATL@DV?$ChTraitsCRT@D@ATL@@@ATL@@@ATL@@E@std@@@4@$0A@@std@@@std@@KAAAU?$pair@$$CBV?$CStringT@DV?$StrTraitATL@DV?$ChTraitsCRT@D@ATL@@@ATL@@@ATL@@E@2@PAU_Node@?$_Tree_nod@V?$_Tmap_traits@V?$CStringT@DV?$StrTraitATL@DV?$ChTraitsCRT@D@ATL@@@ATL@@@ATL@@EU?$less@V?$CStringT@DV?$StrTraitATL@DV?$ChTraitsCRT@D@ATL@@@ATL@@@ATL@@@std@@V?$allocator@U?$pair@$$CBV?$CStringT@DV?$StrTraitATL@DV?$ChTraitsCRT@D@ATL@@@ATL@@@ATL@@E@std@@@4@$0A@@std@@@2@@Z ; std::_Tree<std::_Tmap_traits<ATL::CStringT<char,ATL::StrTraitATL<char,ATL::ChTraitsCRT<char> > >,unsigned char,std::less<ATL::CStringT<char,ATL::StrTraitATL<char,ATL::ChTraitsCRT<char> > > >,std::allocator<std::pair<ATL::CStringT<char,ATL::StrTraitATL<char,ATL::ChTraitsCRT<char> > > const ,unsigned char> >,0> >::_Myval
; Function compile flags: /Ogty
; File c:\program files (x86)\microsoft visual studio .net 2003\vc7\include\xtree
;	COMDAT ?_Myval@?$_Tree@V?$_Tmap_traits@V?$CStringT@DV?$StrTraitATL@DV?$ChTraitsCRT@D@ATL@@@ATL@@@ATL@@EU?$less@V?$CStringT@DV?$StrTraitATL@DV?$ChTraitsCRT@D@ATL@@@ATL@@@ATL@@@std@@V?$allocator@U?$pair@$$CBV?$CStringT@DV?$StrTraitATL@DV?$ChTraitsCRT@D@ATL@@@ATL@@@ATL@@E@std@@@4@$0A@@std@@@std@@KAAAU?$pair@$$CBV?$CStringT@DV?$StrTraitATL@DV?$ChTraitsCRT@D@ATL@@@ATL@@@ATL@@E@2@PAU_Node@?$_Tree_nod@V?$_Tmap_traits@V?$CStringT@DV?$StrTraitATL@DV?$ChTraitsCRT@D@ATL@@@ATL@@@ATL@@EU?$less@V?$CStringT@DV?$StrTraitATL@DV?$ChTraitsCRT@D@ATL@@@ATL@@@ATL@@@std@@V?$allocator@U?$pair@$$CBV?$CStringT@DV?$StrTraitATL@DV?$ChTraitsCRT@D@ATL@@@ATL@@@ATL@@E@std@@@4@$0A@@std@@@2@@Z
_TEXT	SEGMENT
__Pnode$ = 8						; size = 4
?_Myval@?$_Tree@V?$_Tmap_traits@V?$CStringT@DV?$StrTraitATL@DV?$ChTraitsCRT@D@ATL@@@ATL@@@ATL@@EU?$less@V?$CStringT@DV?$StrTraitATL@DV?$ChTraitsCRT@D@ATL@@@ATL@@@ATL@@@std@@V?$allocator@U?$pair@$$CBV?$CStringT@DV?$StrTraitATL@DV?$ChTraitsCRT@D@ATL@@@ATL@@@ATL@@E@std@@@4@$0A@@std@@@std@@KAAAU?$pair@$$CBV?$CStringT@DV?$StrTraitATL@DV?$ChTraitsCRT@D@ATL@@@ATL@@@ATL@@E@2@PAU_Node@?$_Tree_nod@V?$_Tmap_traits@V?$CStringT@DV?$StrTraitATL@DV?$ChTraitsCRT@D@ATL@@@ATL@@@ATL@@EU?$less@V?$CStringT@DV?$StrTraitATL@DV?$ChTraitsCRT@D@ATL@@@ATL@@@ATL@@@std@@V?$allocator@U?$pair@$$CBV?$CStringT@DV?$StrTraitATL@DV?$ChTraitsCRT@D@ATL@@@ATL@@@ATL@@E@std@@@4@$0A@@std@@@2@@Z PROC NEAR ; std::_Tree<std::_Tmap_traits<ATL::CStringT<char,ATL::StrTraitATL<char,ATL::ChTraitsCRT<char> > >,unsigned char,std::less<ATL::CStringT<char,ATL::StrTraitATL<char,ATL::ChTraitsCRT<char> > > >,std::allocator<std::pair<ATL::CStringT<char,ATL::StrTraitATL<char,ATL::ChTraitsCRT<char> > > const ,unsigned char> >,0> >::_Myval, COMDAT

; 162  : 		return ((_Vref)(*_Pnode)._Myval);

  00000	8b 44 24 04	 mov	 eax, DWORD PTR __Pnode$[esp-4]
  00004	83 c0 0c	 add	 eax, 12			; 0000000cH

; 163  : 		}

  00007	c3		 ret	 0
?_Myval@?$_Tree@V?$_Tmap_traits@V?$CStringT@DV?$StrTraitATL@DV?$ChTraitsCRT@D@ATL@@@ATL@@@ATL@@EU?$less@V?$CStringT@DV?$StrTraitATL@DV?$ChTraitsCRT@D@ATL@@@ATL@@@ATL@@@std@@V?$allocator@U?$pair@$$CBV?$CStringT@DV?$StrTraitATL@DV?$ChTraitsCRT@D@ATL@@@ATL@@@ATL@@E@std@@@4@$0A@@std@@@std@@KAAAU?$pair@$$CBV?$CStringT@DV?$StrTraitATL@DV?$ChTraitsCRT@D@ATL@@@ATL@@@ATL@@E@2@PAU_Node@?$_Tree_nod@V?$_Tmap_traits@V?$CStringT@DV?$StrTraitATL@DV?$ChTraitsCRT@D@ATL@@@ATL@@@ATL@@EU?$less@V?$CStringT@DV?$StrTraitATL@DV?$ChTraitsCRT@D@ATL@@@ATL@@@ATL@@@std@@V?$allocator@U?$pair@$$CBV?$CStringT@DV?$StrTraitATL@DV?$ChTraitsCRT@D@ATL@@@ATL@@@ATL@@E@std@@@4@$0A@@std@@@2@@Z ENDP ; std::_Tree<std::_Tmap_traits<ATL::CStringT<char,ATL::StrTraitATL<char,ATL::ChTraitsCRT<char> > >,unsigned char,std::less<ATL::CStringT<char,ATL::StrTraitATL<char,ATL::ChTraitsCRT<char> > > >,std::allocator<std::pair<ATL::CStringT<char,ATL::StrTraitATL<char,ATL::ChTraitsCRT<char> > > const ,unsigned char> >,0> >::_Myval
_TEXT	ENDS
PUBLIC	?_Kfn@?$_Tmap_traits@V?$CStringT@DV?$StrTraitATL@DV?$ChTraitsCRT@D@ATL@@@ATL@@@ATL@@EU?$less@V?$CStringT@DV?$StrTraitATL@DV?$ChTraitsCRT@D@ATL@@@ATL@@@ATL@@@std@@V?$allocator@U?$pair@$$CBV?$CStringT@DV?$StrTraitATL@DV?$ChTraitsCRT@D@ATL@@@ATL@@@ATL@@E@std@@@4@$0A@@std@@SAABV?$CStringT@DV?$StrTraitATL@DV?$ChTraitsCRT@D@ATL@@@ATL@@@ATL@@ABU?$pair@$$CBV?$CStringT@DV?$StrTraitATL@DV?$ChTraitsCRT@D@ATL@@@ATL@@@ATL@@E@2@@Z ; std::_Tmap_traits<ATL::CStringT<char,ATL::StrTraitATL<char,ATL::ChTraitsCRT<char> > >,unsigned char,std::less<ATL::CStringT<char,ATL::StrTraitATL<char,ATL::ChTraitsCRT<char> > > >,std::allocator<std::pair<ATL::CStringT<char,ATL::StrTraitATL<char,ATL::ChTraitsCRT<char> > > const ,unsigned char> >,0>::_Kfn
; Function compile flags: /Ogty
; File c:\program files (x86)\microsoft visual studio .net 2003\vc7\include\map
;	COMDAT ?_Kfn@?$_Tmap_traits@V?$CStringT@DV?$StrTraitATL@DV?$ChTraitsCRT@D@ATL@@@ATL@@@ATL@@EU?$less@V?$CStringT@DV?$StrTraitATL@DV?$ChTraitsCRT@D@ATL@@@ATL@@@ATL@@@std@@V?$allocator@U?$pair@$$CBV?$CStringT@DV?$StrTraitATL@DV?$ChTraitsCRT@D@ATL@@@ATL@@@ATL@@E@std@@@4@$0A@@std@@SAABV?$CStringT@DV?$StrTraitATL@DV?$ChTraitsCRT@D@ATL@@@ATL@@@ATL@@ABU?$pair@$$CBV?$CStringT@DV?$StrTraitATL@DV?$ChTraitsCRT@D@ATL@@@ATL@@@ATL@@E@2@@Z
_TEXT	SEGMENT
__Val$ = 8						; size = 4
?_Kfn@?$_Tmap_traits@V?$CStringT@DV?$StrTraitATL@DV?$ChTraitsCRT@D@ATL@@@ATL@@@ATL@@EU?$less@V?$CStringT@DV?$StrTraitATL@DV?$ChTraitsCRT@D@ATL@@@ATL@@@ATL@@@std@@V?$allocator@U?$pair@$$CBV?$CStringT@DV?$StrTraitATL@DV?$ChTraitsCRT@D@ATL@@@ATL@@@ATL@@E@std@@@4@$0A@@std@@SAABV?$CStringT@DV?$StrTraitATL@DV?$ChTraitsCRT@D@ATL@@@ATL@@@ATL@@ABU?$pair@$$CBV?$CStringT@DV?$StrTraitATL@DV?$ChTraitsCRT@D@ATL@@@ATL@@@ATL@@E@2@@Z PROC NEAR ; std::_Tmap_traits<ATL::CStringT<char,ATL::StrTraitATL<char,ATL::ChTraitsCRT<char> > >,unsigned char,std::less<ATL::CStringT<char,ATL::StrTraitATL<char,ATL::ChTraitsCRT<char> > > >,std::allocator<std::pair<ATL::CStringT<char,ATL::StrTraitATL<char,ATL::ChTraitsCRT<char> > > const ,unsigned char> >,0>::_Kfn, COMDAT

; 64   : 		return (_Val.first);

  00000	8b 44 24 04	 mov	 eax, DWORD PTR __Val$[esp-4]

; 65   : 		}

  00004	c3		 ret	 0
?_Kfn@?$_Tmap_traits@V?$CStringT@DV?$StrTraitATL@DV?$ChTraitsCRT@D@ATL@@@ATL@@@ATL@@EU?$less@V?$CStringT@DV?$StrTraitATL@DV?$ChTraitsCRT@D@ATL@@@ATL@@@ATL@@@std@@V?$allocator@U?$pair@$$CBV?$CStringT@DV?$StrTraitATL@DV?$ChTraitsCRT@D@ATL@@@ATL@@@ATL@@E@std@@@4@$0A@@std@@SAABV?$CStringT@DV?$StrTraitATL@DV?$ChTraitsCRT@D@ATL@@@ATL@@@ATL@@ABU?$pair@$$CBV?$CStringT@DV?$StrTraitATL@DV?$ChTraitsCRT@D@ATL@@@ATL@@@ATL@@E@2@@Z ENDP ; std::_Tmap_traits<ATL::CStringT<char,ATL::StrTraitATL<char,ATL::ChTraitsCRT<char> > >,unsigned char,std::less<ATL::CStringT<char,ATL::StrTraitATL<char,ATL::ChTraitsCRT<char> > > >,std::allocator<std::pair<ATL::CStringT<char,ATL::StrTraitATL<char,ATL::ChTraitsCRT<char> > > const ,unsigned char> >,0>::_Kfn
_TEXT	ENDS
PUBLIC	?_Color@?$_Tree@V?$_Tmap_traits@KPAVCTPlayer@@U?$less@K@std@@V?$allocator@U?$pair@$$CBKPAVCTPlayer@@@std@@@3@$0A@@std@@@std@@KAAADPAU_Node@?$_Tree_nod@V?$_Tmap_traits@KPAVCTPlayer@@U?$less@K@std@@V?$allocator@U?$pair@$$CBKPAVCTPlayer@@@std@@@3@$0A@@std@@@2@@Z ; std::_Tree<std::_Tmap_traits<unsigned long,CTPlayer *,std::less<unsigned long>,std::allocator<std::pair<unsigned long const ,CTPlayer *> >,0> >::_Color
; Function compile flags: /Ogty
; File c:\program files (x86)\microsoft visual studio .net 2003\vc7\include\xtree
;	COMDAT ?_Color@?$_Tree@V?$_Tmap_traits@KPAVCTPlayer@@U?$less@K@std@@V?$allocator@U?$pair@$$CBKPAVCTPlayer@@@std@@@3@$0A@@std@@@std@@KAAADPAU_Node@?$_Tree_nod@V?$_Tmap_traits@KPAVCTPlayer@@U?$less@K@std@@V?$allocator@U?$pair@$$CBKPAVCTPlayer@@@std@@@3@$0A@@std@@@2@@Z
_TEXT	SEGMENT
__Pnode$ = 8						; size = 4
?_Color@?$_Tree@V?$_Tmap_traits@KPAVCTPlayer@@U?$less@K@std@@V?$allocator@U?$pair@$$CBKPAVCTPlayer@@@std@@@3@$0A@@std@@@std@@KAAADPAU_Node@?$_Tree_nod@V?$_Tmap_traits@KPAVCTPlayer@@U?$less@K@std@@V?$allocator@U?$pair@$$CBKPAVCTPlayer@@@std@@@3@$0A@@std@@@2@@Z PROC NEAR ; std::_Tree<std::_Tmap_traits<unsigned long,CTPlayer *,std::less<unsigned long>,std::allocator<std::pair<unsigned long const ,CTPlayer *> >,0> >::_Color, COMDAT

; 132  : 		return ((_Charref)(*_Pnode)._Color);

  00000	8b 44 24 04	 mov	 eax, DWORD PTR __Pnode$[esp-4]
  00004	83 c0 14	 add	 eax, 20			; 00000014H

; 133  : 		}

  00007	c3		 ret	 0
?_Color@?$_Tree@V?$_Tmap_traits@KPAVCTPlayer@@U?$less@K@std@@V?$allocator@U?$pair@$$CBKPAVCTPlayer@@@std@@@3@$0A@@std@@@std@@KAAADPAU_Node@?$_Tree_nod@V?$_Tmap_traits@KPAVCTPlayer@@U?$less@K@std@@V?$allocator@U?$pair@$$CBKPAVCTPlayer@@@std@@@3@$0A@@std@@@2@@Z ENDP ; std::_Tree<std::_Tmap_traits<unsigned long,CTPlayer *,std::less<unsigned long>,std::allocator<std::pair<unsigned long const ,CTPlayer *> >,0> >::_Color
_TEXT	ENDS
PUBLIC	?_Parent@?$_Tree@V?$_Tmap_traits@KPAVCTPlayer@@U?$less@K@std@@V?$allocator@U?$pair@$$CBKPAVCTPlayer@@@std@@@3@$0A@@std@@@std@@KAAAPAU_Node@?$_Tree_nod@V?$_Tmap_traits@KPAVCTPlayer@@U?$less@K@std@@V?$allocator@U?$pair@$$CBKPAVCTPlayer@@@std@@@3@$0A@@std@@@2@PAU342@@Z ; std::_Tree<std::_Tmap_traits<unsigned long,CTPlayer *,std::less<unsigned long>,std::allocator<std::pair<unsigned long const ,CTPlayer *> >,0> >::_Parent
; Function compile flags: /Ogty
;	COMDAT ?_Parent@?$_Tree@V?$_Tmap_traits@KPAVCTPlayer@@U?$less@K@std@@V?$allocator@U?$pair@$$CBKPAVCTPlayer@@@std@@@3@$0A@@std@@@std@@KAAAPAU_Node@?$_Tree_nod@V?$_Tmap_traits@KPAVCTPlayer@@U?$less@K@std@@V?$allocator@U?$pair@$$CBKPAVCTPlayer@@@std@@@3@$0A@@std@@@2@PAU342@@Z
_TEXT	SEGMENT
__Pnode$ = 8						; size = 4
?_Parent@?$_Tree@V?$_Tmap_traits@KPAVCTPlayer@@U?$less@K@std@@V?$allocator@U?$pair@$$CBKPAVCTPlayer@@@std@@@3@$0A@@std@@@std@@KAAAPAU_Node@?$_Tree_nod@V?$_Tmap_traits@KPAVCTPlayer@@U?$less@K@std@@V?$allocator@U?$pair@$$CBKPAVCTPlayer@@@std@@@3@$0A@@std@@@2@PAU342@@Z PROC NEAR ; std::_Tree<std::_Tmap_traits<unsigned long,CTPlayer *,std::less<unsigned long>,std::allocator<std::pair<unsigned long const ,CTPlayer *> >,0> >::_Parent, COMDAT

; 152  : 		return ((_Nodepref)(*_Pnode)._Parent);

  00000	8b 44 24 04	 mov	 eax, DWORD PTR __Pnode$[esp-4]
  00004	83 c0 04	 add	 eax, 4

; 153  : 		}

  00007	c3		 ret	 0
?_Parent@?$_Tree@V?$_Tmap_traits@KPAVCTPlayer@@U?$less@K@std@@V?$allocator@U?$pair@$$CBKPAVCTPlayer@@@std@@@3@$0A@@std@@@std@@KAAAPAU_Node@?$_Tree_nod@V?$_Tmap_traits@KPAVCTPlayer@@U?$less@K@std@@V?$allocator@U?$pair@$$CBKPAVCTPlayer@@@std@@@3@$0A@@std@@@2@PAU342@@Z ENDP ; std::_Tree<std::_Tmap_traits<unsigned long,CTPlayer *,std::less<unsigned long>,std::allocator<std::pair<unsigned long const ,CTPlayer *> >,0> >::_Parent
_TEXT	ENDS
PUBLIC	?_Myval@?$_Tree@V?$_Tmap_traits@KPAVCTPlayer@@U?$less@K@std@@V?$allocator@U?$pair@$$CBKPAVCTPlayer@@@std@@@3@$0A@@std@@@std@@KAAAU?$pair@$$CBKPAVCTPlayer@@@2@PAU_Node@?$_Tree_nod@V?$_Tmap_traits@KPAVCTPlayer@@U?$less@K@std@@V?$allocator@U?$pair@$$CBKPAVCTPlayer@@@std@@@3@$0A@@std@@@2@@Z ; std::_Tree<std::_Tmap_traits<unsigned long,CTPlayer *,std::less<unsigned long>,std::allocator<std::pair<unsigned long const ,CTPlayer *> >,0> >::_Myval
; Function compile flags: /Ogty
;	COMDAT ?_Myval@?$_Tree@V?$_Tmap_traits@KPAVCTPlayer@@U?$less@K@std@@V?$allocator@U?$pair@$$CBKPAVCTPlayer@@@std@@@3@$0A@@std@@@std@@KAAAU?$pair@$$CBKPAVCTPlayer@@@2@PAU_Node@?$_Tree_nod@V?$_Tmap_traits@KPAVCTPlayer@@U?$less@K@std@@V?$allocator@U?$pair@$$CBKPAVCTPlayer@@@std@@@3@$0A@@std@@@2@@Z
_TEXT	SEGMENT
__Pnode$ = 8						; size = 4
?_Myval@?$_Tree@V?$_Tmap_traits@KPAVCTPlayer@@U?$less@K@std@@V?$allocator@U?$pair@$$CBKPAVCTPlayer@@@std@@@3@$0A@@std@@@std@@KAAAU?$pair@$$CBKPAVCTPlayer@@@2@PAU_Node@?$_Tree_nod@V?$_Tmap_traits@KPAVCTPlayer@@U?$less@K@std@@V?$allocator@U?$pair@$$CBKPAVCTPlayer@@@std@@@3@$0A@@std@@@2@@Z PROC NEAR ; std::_Tree<std::_Tmap_traits<unsigned long,CTPlayer *,std::less<unsigned long>,std::allocator<std::pair<unsigned long const ,CTPlayer *> >,0> >::_Myval, COMDAT

; 162  : 		return ((_Vref)(*_Pnode)._Myval);

  00000	8b 44 24 04	 mov	 eax, DWORD PTR __Pnode$[esp-4]
  00004	83 c0 0c	 add	 eax, 12			; 0000000cH

; 163  : 		}

  00007	c3		 ret	 0
?_Myval@?$_Tree@V?$_Tmap_traits@KPAVCTPlayer@@U?$less@K@std@@V?$allocator@U?$pair@$$CBKPAVCTPlayer@@@std@@@3@$0A@@std@@@std@@KAAAU?$pair@$$CBKPAVCTPlayer@@@2@PAU_Node@?$_Tree_nod@V?$_Tmap_traits@KPAVCTPlayer@@U?$less@K@std@@V?$allocator@U?$pair@$$CBKPAVCTPlayer@@@std@@@3@$0A@@std@@@2@@Z ENDP ; std::_Tree<std::_Tmap_traits<unsigned long,CTPlayer *,std::less<unsigned long>,std::allocator<std::pair<unsigned long const ,CTPlayer *> >,0> >::_Myval
_TEXT	ENDS
PUBLIC	?_Rmost@?$_Tree@V?$_Tmap_traits@KPAVCTPlayer@@U?$less@K@std@@V?$allocator@U?$pair@$$CBKPAVCTPlayer@@@std@@@3@$0A@@std@@@std@@IAEAAPAU_Node@?$_Tree_nod@V?$_Tmap_traits@KPAVCTPlayer@@U?$less@K@std@@V?$allocator@U?$pair@$$CBKPAVCTPlayer@@@std@@@3@$0A@@std@@@2@XZ ; std::_Tree<std::_Tmap_traits<unsigned long,CTPlayer *,std::less<unsigned long>,std::allocator<std::pair<unsigned long const ,CTPlayer *> >,0> >::_Rmost
; Function compile flags: /Ogty
;	COMDAT ?_Rmost@?$_Tree@V?$_Tmap_traits@KPAVCTPlayer@@U?$less@K@std@@V?$allocator@U?$pair@$$CBKPAVCTPlayer@@@std@@@3@$0A@@std@@@std@@IAEAAPAU_Node@?$_Tree_nod@V?$_Tmap_traits@KPAVCTPlayer@@U?$less@K@std@@V?$allocator@U?$pair@$$CBKPAVCTPlayer@@@std@@@3@$0A@@std@@@2@XZ
_TEXT	SEGMENT
?_Rmost@?$_Tree@V?$_Tmap_traits@KPAVCTPlayer@@U?$less@K@std@@V?$allocator@U?$pair@$$CBKPAVCTPlayer@@@std@@@3@$0A@@std@@@std@@IAEAAPAU_Node@?$_Tree_nod@V?$_Tmap_traits@KPAVCTPlayer@@U?$less@K@std@@V?$allocator@U?$pair@$$CBKPAVCTPlayer@@@std@@@3@$0A@@std@@@2@XZ PROC NEAR ; std::_Tree<std::_Tmap_traits<unsigned long,CTPlayer *,std::less<unsigned long>,std::allocator<std::pair<unsigned long const ,CTPlayer *> >,0> >::_Rmost, COMDAT
; _this$ = ecx

; 1049 : 		return (_Right(_Myhead));

  00000	8b 41 04	 mov	 eax, DWORD PTR [ecx+4]
  00003	83 c0 08	 add	 eax, 8

; 1050 : 		}

  00006	c3		 ret	 0
?_Rmost@?$_Tree@V?$_Tmap_traits@KPAVCTPlayer@@U?$less@K@std@@V?$allocator@U?$pair@$$CBKPAVCTPlayer@@@std@@@3@$0A@@std@@@std@@IAEAAPAU_Node@?$_Tree_nod@V?$_Tmap_traits@KPAVCTPlayer@@U?$less@K@std@@V?$allocator@U?$pair@$$CBKPAVCTPlayer@@@std@@@3@$0A@@std@@@2@XZ ENDP ; std::_Tree<std::_Tmap_traits<unsigned long,CTPlayer *,std::less<unsigned long>,std::allocator<std::pair<unsigned long const ,CTPlayer *> >,0> >::_Rmost
_TEXT	ENDS
PUBLIC	?_Left@?$_Tree@V?$_Tmap_traits@GPAVCTParty@@U?$less@G@std@@V?$allocator@U?$pair@$$CBGPAVCTParty@@@std@@@3@$0A@@std@@@std@@KAAAPAU_Node@?$_Tree_nod@V?$_Tmap_traits@GPAVCTParty@@U?$less@G@std@@V?$allocator@U?$pair@$$CBGPAVCTParty@@@std@@@3@$0A@@std@@@2@PAU342@@Z ; std::_Tree<std::_Tmap_traits<unsigned short,CTParty *,std::less<unsigned short>,std::allocator<std::pair<unsigned short const ,CTParty *> >,0> >::_Left
; Function compile flags: /Ogty
;	COMDAT ?_Left@?$_Tree@V?$_Tmap_traits@GPAVCTParty@@U?$less@G@std@@V?$allocator@U?$pair@$$CBGPAVCTParty@@@std@@@3@$0A@@std@@@std@@KAAAPAU_Node@?$_Tree_nod@V?$_Tmap_traits@GPAVCTParty@@U?$less@G@std@@V?$allocator@U?$pair@$$CBGPAVCTParty@@@std@@@3@$0A@@std@@@2@PAU342@@Z
_TEXT	SEGMENT
__Pnode$ = 8						; size = 4
?_Left@?$_Tree@V?$_Tmap_traits@GPAVCTParty@@U?$less@G@std@@V?$allocator@U?$pair@$$CBGPAVCTParty@@@std@@@3@$0A@@std@@@std@@KAAAPAU_Node@?$_Tree_nod@V?$_Tmap_traits@GPAVCTParty@@U?$less@G@std@@V?$allocator@U?$pair@$$CBGPAVCTParty@@@std@@@3@$0A@@std@@@2@PAU342@@Z PROC NEAR ; std::_Tree<std::_Tmap_traits<unsigned short,CTParty *,std::less<unsigned short>,std::allocator<std::pair<unsigned short const ,CTParty *> >,0> >::_Left, COMDAT

; 147  : 		return ((_Nodepref)(*_Pnode)._Left);

  00000	8b 44 24 04	 mov	 eax, DWORD PTR __Pnode$[esp-4]

; 148  : 		}

  00004	c3		 ret	 0
?_Left@?$_Tree@V?$_Tmap_traits@GPAVCTParty@@U?$less@G@std@@V?$allocator@U?$pair@$$CBGPAVCTParty@@@std@@@3@$0A@@std@@@std@@KAAAPAU_Node@?$_Tree_nod@V?$_Tmap_traits@GPAVCTParty@@U?$less@G@std@@V?$allocator@U?$pair@$$CBGPAVCTParty@@@std@@@3@$0A@@std@@@2@PAU342@@Z ENDP ; std::_Tree<std::_Tmap_traits<unsigned short,CTParty *,std::less<unsigned short>,std::allocator<std::pair<unsigned short const ,CTParty *> >,0> >::_Left
_TEXT	ENDS
PUBLIC	?_Myval@?$_Tree@V?$_Tmap_traits@GPAVCTParty@@U?$less@G@std@@V?$allocator@U?$pair@$$CBGPAVCTParty@@@std@@@3@$0A@@std@@@std@@KAAAU?$pair@$$CBGPAVCTParty@@@2@PAU_Node@?$_Tree_nod@V?$_Tmap_traits@GPAVCTParty@@U?$less@G@std@@V?$allocator@U?$pair@$$CBGPAVCTParty@@@std@@@3@$0A@@std@@@2@@Z ; std::_Tree<std::_Tmap_traits<unsigned short,CTParty *,std::less<unsigned short>,std::allocator<std::pair<unsigned short const ,CTParty *> >,0> >::_Myval
; Function compile flags: /Ogty
;	COMDAT ?_Myval@?$_Tree@V?$_Tmap_traits@GPAVCTParty@@U?$less@G@std@@V?$allocator@U?$pair@$$CBGPAVCTParty@@@std@@@3@$0A@@std@@@std@@KAAAU?$pair@$$CBGPAVCTParty@@@2@PAU_Node@?$_Tree_nod@V?$_Tmap_traits@GPAVCTParty@@U?$less@G@std@@V?$allocator@U?$pair@$$CBGPAVCTParty@@@std@@@3@$0A@@std@@@2@@Z
_TEXT	SEGMENT
__Pnode$ = 8						; size = 4
?_Myval@?$_Tree@V?$_Tmap_traits@GPAVCTParty@@U?$less@G@std@@V?$allocator@U?$pair@$$CBGPAVCTParty@@@std@@@3@$0A@@std@@@std@@KAAAU?$pair@$$CBGPAVCTParty@@@2@PAU_Node@?$_Tree_nod@V?$_Tmap_traits@GPAVCTParty@@U?$less@G@std@@V?$allocator@U?$pair@$$CBGPAVCTParty@@@std@@@3@$0A@@std@@@2@@Z PROC NEAR ; std::_Tree<std::_Tmap_traits<unsigned short,CTParty *,std::less<unsigned short>,std::allocator<std::pair<unsigned short const ,CTParty *> >,0> >::_Myval, COMDAT

; 162  : 		return ((_Vref)(*_Pnode)._Myval);

  00000	8b 44 24 04	 mov	 eax, DWORD PTR __Pnode$[esp-4]
  00004	83 c0 0c	 add	 eax, 12			; 0000000cH

; 163  : 		}

  00007	c3		 ret	 0
?_Myval@?$_Tree@V?$_Tmap_traits@GPAVCTParty@@U?$less@G@std@@V?$allocator@U?$pair@$$CBGPAVCTParty@@@std@@@3@$0A@@std@@@std@@KAAAU?$pair@$$CBGPAVCTParty@@@2@PAU_Node@?$_Tree_nod@V?$_Tmap_traits@GPAVCTParty@@U?$less@G@std@@V?$allocator@U?$pair@$$CBGPAVCTParty@@@std@@@3@$0A@@std@@@2@@Z ENDP ; std::_Tree<std::_Tmap_traits<unsigned short,CTParty *,std::less<unsigned short>,std::allocator<std::pair<unsigned short const ,CTParty *> >,0> >::_Myval
_TEXT	ENDS
PUBLIC	?_Myval@?$_Tree@V?$_Tmap_traits@GV?$map@KPAVCTPlayer@@U?$less@K@std@@V?$allocator@U?$pair@$$CBKPAVCTPlayer@@@std@@@3@@std@@U?$less@G@2@V?$allocator@U?$pair@$$CBGV?$map@KPAVCTPlayer@@U?$less@K@std@@V?$allocator@U?$pair@$$CBKPAVCTPlayer@@@std@@@3@@std@@@std@@@2@$0A@@std@@@std@@KAAAU?$pair@$$CBGV?$map@KPAVCTPlayer@@U?$less@K@std@@V?$allocator@U?$pair@$$CBKPAVCTPlayer@@@std@@@3@@std@@@2@PAU_Node@?$_Tree_nod@V?$_Tmap_traits@GV?$map@KPAVCTPlayer@@U?$less@K@std@@V?$allocator@U?$pair@$$CBKPAVCTPlayer@@@std@@@3@@std@@U?$less@G@2@V?$allocator@U?$pair@$$CBGV?$map@KPAVCTPlayer@@U?$less@K@std@@V?$allocator@U?$pair@$$CBKPAVCTPlayer@@@std@@@3@@std@@@std@@@2@$0A@@std@@@2@@Z ; std::_Tree<std::_Tmap_traits<unsigned short,std::map<unsigned long,CTPlayer *,std::less<unsigned long>,std::allocator<std::pair<unsigned long const ,CTPlayer *> > >,std::less<unsigned short>,std::allocator<std::pair<unsigned short const ,std::map<unsigned long,CTPlayer *,std::less<unsigned long>,std::allocator<std::pair<unsigned long const ,CTPlayer *> > > > >,0> >::_Myval
; Function compile flags: /Ogty
;	COMDAT ?_Myval@?$_Tree@V?$_Tmap_traits@GV?$map@KPAVCTPlayer@@U?$less@K@std@@V?$allocator@U?$pair@$$CBKPAVCTPlayer@@@std@@@3@@std@@U?$less@G@2@V?$allocator@U?$pair@$$CBGV?$map@KPAVCTPlayer@@U?$less@K@std@@V?$allocator@U?$pair@$$CBKPAVCTPlayer@@@std@@@3@@std@@@std@@@2@$0A@@std@@@std@@KAAAU?$pair@$$CBGV?$map@KPAVCTPlayer@@U?$less@K@std@@V?$allocator@U?$pair@$$CBKPAVCTPlayer@@@std@@@3@@std@@@2@PAU_Node@?$_Tree_nod@V?$_Tmap_traits@GV?$map@KPAVCTPlayer@@U?$less@K@std@@V?$allocator@U?$pair@$$CBKPAVCTPlayer@@@std@@@3@@std@@U?$less@G@2@V?$allocator@U?$pair@$$CBGV?$map@KPAVCTPlayer@@U?$less@K@std@@V?$allocator@U?$pair@$$CBKPAVCTPlayer@@@std@@@3@@std@@@std@@@2@$0A@@std@@@2@@Z
_TEXT	SEGMENT
__Pnode$ = 8						; size = 4
?_Myval@?$_Tree@V?$_Tmap_traits@GV?$map@KPAVCTPlayer@@U?$less@K@std@@V?$allocator@U?$pair@$$CBKPAVCTPlayer@@@std@@@3@@std@@U?$less@G@2@V?$allocator@U?$pair@$$CBGV?$map@KPAVCTPlayer@@U?$less@K@std@@V?$allocator@U?$pair@$$CBKPAVCTPlayer@@@std@@@3@@std@@@std@@@2@$0A@@std@@@std@@KAAAU?$pair@$$CBGV?$map@KPAVCTPlayer@@U?$less@K@std@@V?$allocator@U?$pair@$$CBKPAVCTPlayer@@@std@@@3@@std@@@2@PAU_Node@?$_Tree_nod@V?$_Tmap_traits@GV?$map@KPAVCTPlayer@@U?$less@K@std@@V?$allocator@U?$pair@$$CBKPAVCTPlayer@@@std@@@3@@std@@U?$less@G@2@V?$allocator@U?$pair@$$CBGV?$map@KPAVCTPlayer@@U?$less@K@std@@V?$allocator@U?$pair@$$CBKPAVCTPlayer@@@std@@@3@@std@@@std@@@2@$0A@@std@@@2@@Z PROC NEAR ; std::_Tree<std::_Tmap_traits<unsigned short,std::map<unsigned long,CTPlayer *,std::less<unsigned long>,std::allocator<std::pair<unsigned long const ,CTPlayer *> > >,std::less<unsigned short>,std::allocator<std::pair<unsigned short const ,std::map<unsigned long,CTPlayer *,std::less<unsigned long>,std::allocator<std::pair<unsigned long const ,CTPlayer *> > > > >,0> >::_Myval, COMDAT

; 162  : 		return ((_Vref)(*_Pnode)._Myval);

  00000	8b 44 24 04	 mov	 eax, DWORD PTR __Pnode$[esp-4]
  00004	83 c0 0c	 add	 eax, 12			; 0000000cH

; 163  : 		}

  00007	c3		 ret	 0
?_Myval@?$_Tree@V?$_Tmap_traits@GV?$map@KPAVCTPlayer@@U?$less@K@std@@V?$allocator@U?$pair@$$CBKPAVCTPlayer@@@std@@@3@@std@@U?$less@G@2@V?$allocator@U?$pair@$$CBGV?$map@KPAVCTPlayer@@U?$less@K@std@@V?$allocator@U?$pair@$$CBKPAVCTPlayer@@@std@@@3@@std@@@std@@@2@$0A@@std@@@std@@KAAAU?$pair@$$CBGV?$map@KPAVCTPlayer@@U?$less@K@std@@V?$allocator@U?$pair@$$CBKPAVCTPlayer@@@std@@@3@@std@@@2@PAU_Node@?$_Tree_nod@V?$_Tmap_traits@GV?$map@KPAVCTPlayer@@U?$less@K@std@@V?$allocator@U?$pair@$$CBKPAVCTPlayer@@@std@@@3@@std@@U?$less@G@2@V?$allocator@U?$pair@$$CBGV?$map@KPAVCTPlayer@@U?$less@K@std@@V?$allocator@U?$pair@$$CBKPAVCTPlayer@@@std@@@3@@std@@@std@@@2@$0A@@std@@@2@@Z ENDP ; std::_Tree<std::_Tmap_traits<unsigned short,std::map<unsigned long,CTPlayer *,std::less<unsigned long>,std::allocator<std::pair<unsigned long const ,CTPlayer *> > >,std::less<unsigned short>,std::allocator<std::pair<unsigned short const ,std::map<unsigned long,CTPlayer *,std::less<unsigned long>,std::allocator<std::pair<unsigned long const ,CTPlayer *> > > > >,0> >::_Myval
_TEXT	ENDS
PUBLIC	?_Kfn@?$_Tmap_traits@GV?$map@KPAVCTPlayer@@U?$less@K@std@@V?$allocator@U?$pair@$$CBKPAVCTPlayer@@@std@@@3@@std@@U?$less@G@2@V?$allocator@U?$pair@$$CBGV?$map@KPAVCTPlayer@@U?$less@K@std@@V?$allocator@U?$pair@$$CBKPAVCTPlayer@@@std@@@3@@std@@@std@@@2@$0A@@std@@SAABGABU?$pair@$$CBGV?$map@KPAVCTPlayer@@U?$less@K@std@@V?$allocator@U?$pair@$$CBKPAVCTPlayer@@@std@@@3@@std@@@2@@Z ; std::_Tmap_traits<unsigned short,std::map<unsigned long,CTPlayer *,std::less<unsigned long>,std::allocator<std::pair<unsigned long const ,CTPlayer *> > >,std::less<unsigned short>,std::allocator<std::pair<unsigned short const ,std::map<unsigned long,CTPlayer *,std::less<unsigned long>,std::allocator<std::pair<unsigned long const ,CTPlayer *> > > > >,0>::_Kfn
; Function compile flags: /Ogty
; File c:\program files (x86)\microsoft visual studio .net 2003\vc7\include\map
;	COMDAT ?_Kfn@?$_Tmap_traits@GV?$map@KPAVCTPlayer@@U?$less@K@std@@V?$allocator@U?$pair@$$CBKPAVCTPlayer@@@std@@@3@@std@@U?$less@G@2@V?$allocator@U?$pair@$$CBGV?$map@KPAVCTPlayer@@U?$less@K@std@@V?$allocator@U?$pair@$$CBKPAVCTPlayer@@@std@@@3@@std@@@std@@@2@$0A@@std@@SAABGABU?$pair@$$CBGV?$map@KPAVCTPlayer@@U?$less@K@std@@V?$allocator@U?$pair@$$CBKPAVCTPlayer@@@std@@@3@@std@@@2@@Z
_TEXT	SEGMENT
__Val$ = 8						; size = 4
?_Kfn@?$_Tmap_traits@GV?$map@KPAVCTPlayer@@U?$less@K@std@@V?$allocator@U?$pair@$$CBKPAVCTPlayer@@@std@@@3@@std@@U?$less@G@2@V?$allocator@U?$pair@$$CBGV?$map@KPAVCTPlayer@@U?$less@K@std@@V?$allocator@U?$pair@$$CBKPAVCTPlayer@@@std@@@3@@std@@@std@@@2@$0A@@std@@SAABGABU?$pair@$$CBGV?$map@KPAVCTPlayer@@U?$less@K@std@@V?$allocator@U?$pair@$$CBKPAVCTPlayer@@@std@@@3@@std@@@2@@Z PROC NEAR ; std::_Tmap_traits<unsigned short,std::map<unsigned long,CTPlayer *,std::less<unsigned long>,std::allocator<std::pair<unsigned long const ,CTPlayer *> > >,std::less<unsigned short>,std::allocator<std::pair<unsigned short const ,std::map<unsigned long,CTPlayer *,std::less<unsigned long>,std::allocator<std::pair<unsigned long const ,CTPlayer *> > > > >,0>::_Kfn, COMDAT

; 64   : 		return (_Val.first);

  00000	8b 44 24 04	 mov	 eax, DWORD PTR __Val$[esp-4]

; 65   : 		}

  00004	c3		 ret	 0
?_Kfn@?$_Tmap_traits@GV?$map@KPAVCTPlayer@@U?$less@K@std@@V?$allocator@U?$pair@$$CBKPAVCTPlayer@@@std@@@3@@std@@U?$less@G@2@V?$allocator@U?$pair@$$CBGV?$map@KPAVCTPlayer@@U?$less@K@std@@V?$allocator@U?$pair@$$CBKPAVCTPlayer@@@std@@@3@@std@@@std@@@2@$0A@@std@@SAABGABU?$pair@$$CBGV?$map@KPAVCTPlayer@@U?$less@K@std@@V?$allocator@U?$pair@$$CBKPAVCTPlayer@@@std@@@3@@std@@@2@@Z ENDP ; std::_Tmap_traits<unsigned short,std::map<unsigned long,CTPlayer *,std::less<unsigned long>,std::allocator<std::pair<unsigned long const ,CTPlayer *> > >,std::less<unsigned short>,std::allocator<std::pair<unsigned short const ,std::map<unsigned long,CTPlayer *,std::less<unsigned long>,std::allocator<std::pair<unsigned long const ,CTPlayer *> > > > >,0>::_Kfn
_TEXT	ENDS
PUBLIC	??0const_iterator@?$_Tree@V?$_Tmap_traits@KPAVCTPlayer@@U?$less@K@std@@V?$allocator@U?$pair@$$CBKPAVCTPlayer@@@std@@@3@$0A@@std@@@std@@QAE@PAU_Node@?$_Tree_nod@V?$_Tmap_traits@KPAVCTPlayer@@U?$less@K@std@@V?$allocator@U?$pair@$$CBKPAVCTPlayer@@@std@@@3@$0A@@std@@@2@@Z ; std::_Tree<std::_Tmap_traits<unsigned long,CTPlayer *,std::less<unsigned long>,std::allocator<std::pair<unsigned long const ,CTPlayer *> >,0> >::const_iterator::const_iterator
; Function compile flags: /Ogty
; File c:\program files (x86)\microsoft visual studio .net 2003\vc7\include\xtree
;	COMDAT ??0const_iterator@?$_Tree@V?$_Tmap_traits@KPAVCTPlayer@@U?$less@K@std@@V?$allocator@U?$pair@$$CBKPAVCTPlayer@@@std@@@3@$0A@@std@@@std@@QAE@PAU_Node@?$_Tree_nod@V?$_Tmap_traits@KPAVCTPlayer@@U?$less@K@std@@V?$allocator@U?$pair@$$CBKPAVCTPlayer@@@std@@@3@$0A@@std@@@2@@Z
_TEXT	SEGMENT
__Pnode$ = 8						; size = 4
??0const_iterator@?$_Tree@V?$_Tmap_traits@KPAVCTPlayer@@U?$less@K@std@@V?$allocator@U?$pair@$$CBKPAVCTPlayer@@@std@@@3@$0A@@std@@@std@@QAE@PAU_Node@?$_Tree_nod@V?$_Tmap_traits@KPAVCTPlayer@@U?$less@K@std@@V?$allocator@U?$pair@$$CBKPAVCTPlayer@@@std@@@3@$0A@@std@@@2@@Z PROC NEAR ; std::_Tree<std::_Tmap_traits<unsigned long,CTPlayer *,std::less<unsigned long>,std::allocator<std::pair<unsigned long const ,CTPlayer *> >,0> >::const_iterator::const_iterator, COMDAT
; _this$ = ecx

; 200  : 			{	// construct with node pointer _Pnode

  00000	8b c1		 mov	 eax, ecx
  00002	8b 4c 24 04	 mov	 ecx, DWORD PTR __Pnode$[esp-4]
  00006	89 08		 mov	 DWORD PTR [eax], ecx

; 201  : 			}

  00008	c2 04 00	 ret	 4
??0const_iterator@?$_Tree@V?$_Tmap_traits@KPAVCTPlayer@@U?$less@K@std@@V?$allocator@U?$pair@$$CBKPAVCTPlayer@@@std@@@3@$0A@@std@@@std@@QAE@PAU_Node@?$_Tree_nod@V?$_Tmap_traits@KPAVCTPlayer@@U?$less@K@std@@V?$allocator@U?$pair@$$CBKPAVCTPlayer@@@std@@@3@$0A@@std@@@2@@Z ENDP ; std::_Tree<std::_Tmap_traits<unsigned long,CTPlayer *,std::less<unsigned long>,std::allocator<std::pair<unsigned long const ,CTPlayer *> >,0> >::const_iterator::const_iterator
_TEXT	ENDS
PUBLIC	??0const_iterator@?$_Tree@V?$_Tmap_traits@GV?$map@KPAVCTPlayer@@U?$less@K@std@@V?$allocator@U?$pair@$$CBKPAVCTPlayer@@@std@@@3@@std@@U?$less@G@2@V?$allocator@U?$pair@$$CBGV?$map@KPAVCTPlayer@@U?$less@K@std@@V?$allocator@U?$pair@$$CBKPAVCTPlayer@@@std@@@3@@std@@@std@@@2@$0A@@std@@@std@@QAE@PAU_Node@?$_Tree_nod@V?$_Tmap_traits@GV?$map@KPAVCTPlayer@@U?$less@K@std@@V?$allocator@U?$pair@$$CBKPAVCTPlayer@@@std@@@3@@std@@U?$less@G@2@V?$allocator@U?$pair@$$CBGV?$map@KPAVCTPlayer@@U?$less@K@std@@V?$allocator@U?$pair@$$CBKPAVCTPlayer@@@std@@@3@@std@@@std@@@2@$0A@@std@@@2@@Z ; std::_Tree<std::_Tmap_traits<unsigned short,std::map<unsigned long,CTPlayer *,std::less<unsigned long>,std::allocator<std::pair<unsigned long const ,CTPlayer *> > >,std::less<unsigned short>,std::allocator<std::pair<unsigned short const ,std::map<unsigned long,CTPlayer *,std::less<unsigned long>,std::allocator<std::pair<unsigned long const ,CTPlayer *> > > > >,0> >::const_iterator::const_iterator
; Function compile flags: /Ogty
;	COMDAT ??0const_iterator@?$_Tree@V?$_Tmap_traits@GV?$map@KPAVCTPlayer@@U?$less@K@std@@V?$allocator@U?$pair@$$CBKPAVCTPlayer@@@std@@@3@@std@@U?$less@G@2@V?$allocator@U?$pair@$$CBGV?$map@KPAVCTPlayer@@U?$less@K@std@@V?$allocator@U?$pair@$$CBKPAVCTPlayer@@@std@@@3@@std@@@std@@@2@$0A@@std@@@std@@QAE@PAU_Node@?$_Tree_nod@V?$_Tmap_traits@GV?$map@KPAVCTPlayer@@U?$less@K@std@@V?$allocator@U?$pair@$$CBKPAVCTPlayer@@@std@@@3@@std@@U?$less@G@2@V?$allocator@U?$pair@$$CBGV?$map@KPAVCTPlayer@@U?$less@K@std@@V?$allocator@U?$pair@$$CBKPAVCTPlayer@@@std@@@3@@std@@@std@@@2@$0A@@std@@@2@@Z
_TEXT	SEGMENT
__Pnode$ = 8						; size = 4
??0const_iterator@?$_Tree@V?$_Tmap_traits@GV?$map@KPAVCTPlayer@@U?$less@K@std@@V?$allocator@U?$pair@$$CBKPAVCTPlayer@@@std@@@3@@std@@U?$less@G@2@V?$allocator@U?$pair@$$CBGV?$map@KPAVCTPlayer@@U?$less@K@std@@V?$allocator@U?$pair@$$CBKPAVCTPlayer@@@std@@@3@@std@@@std@@@2@$0A@@std@@@std@@QAE@PAU_Node@?$_Tree_nod@V?$_Tmap_traits@GV?$map@KPAVCTPlayer@@U?$less@K@std@@V?$allocator@U?$pair@$$CBKPAVCTPlayer@@@std@@@3@@std@@U?$less@G@2@V?$allocator@U?$pair@$$CBGV?$map@KPAVCTPlayer@@U?$less@K@std@@V?$allocator@U?$pair@$$CBKPAVCTPlayer@@@std@@@3@@std@@@std@@@2@$0A@@std@@@2@@Z PROC NEAR ; std::_Tree<std::_Tmap_traits<unsigned short,std::map<unsigned long,CTPlayer *,std::less<unsigned long>,std::allocator<std::pair<unsigned long const ,CTPlayer *> > >,std::less<unsigned short>,std::allocator<std::pair<unsigned short const ,std::map<unsigned long,CTPlayer *,std::less<unsigned long>,std::allocator<std::pair<unsigned long const ,CTPlayer *> > > > >,0> >::const_iterator::const_iterator, COMDAT
; _this$ = ecx

; 200  : 			{	// construct with node pointer _Pnode

  00000	8b c1		 mov	 eax, ecx
  00002	8b 4c 24 04	 mov	 ecx, DWORD PTR __Pnode$[esp-4]
  00006	89 08		 mov	 DWORD PTR [eax], ecx

; 201  : 			}

  00008	c2 04 00	 ret	 4
??0const_iterator@?$_Tree@V?$_Tmap_traits@GV?$map@KPAVCTPlayer@@U?$less@K@std@@V?$allocator@U?$pair@$$CBKPAVCTPlayer@@@std@@@3@@std@@U?$less@G@2@V?$allocator@U?$pair@$$CBGV?$map@KPAVCTPlayer@@U?$less@K@std@@V?$allocator@U?$pair@$$CBKPAVCTPlayer@@@std@@@3@@std@@@std@@@2@$0A@@std@@@std@@QAE@PAU_Node@?$_Tree_nod@V?$_Tmap_traits@GV?$map@KPAVCTPlayer@@U?$less@K@std@@V?$allocator@U?$pair@$$CBKPAVCTPlayer@@@std@@@3@@std@@U?$less@G@2@V?$allocator@U?$pair@$$CBGV?$map@KPAVCTPlayer@@U?$less@K@std@@V?$allocator@U?$pair@$$CBKPAVCTPlayer@@@std@@@3@@std@@@std@@@2@$0A@@std@@@2@@Z ENDP ; std::_Tree<std::_Tmap_traits<unsigned short,std::map<unsigned long,CTPlayer *,std::less<unsigned long>,std::allocator<std::pair<unsigned long const ,CTPlayer *> > >,std::less<unsigned short>,std::allocator<std::pair<unsigned short const ,std::map<unsigned long,CTPlayer *,std::less<unsigned long>,std::allocator<std::pair<unsigned long const ,CTPlayer *> > > > >,0> >::const_iterator::const_iterator
_TEXT	ENDS
PUBLIC	??Dconst_iterator@?$_Tree@V?$_Tmap_traits@GV?$map@KPAVCTPlayer@@U?$less@K@std@@V?$allocator@U?$pair@$$CBKPAVCTPlayer@@@std@@@3@@std@@U?$less@G@2@V?$allocator@U?$pair@$$CBGV?$map@KPAVCTPlayer@@U?$less@K@std@@V?$allocator@U?$pair@$$CBKPAVCTPlayer@@@std@@@3@@std@@@std@@@2@$0A@@std@@@std@@QBEABU?$pair@$$CBGV?$map@KPAVCTPlayer@@U?$less@K@std@@V?$allocator@U?$pair@$$CBKPAVCTPlayer@@@std@@@3@@std@@@2@XZ ; std::_Tree<std::_Tmap_traits<unsigned short,std::map<unsigned long,CTPlayer *,std::less<unsigned long>,std::allocator<std::pair<unsigned long const ,CTPlayer *> > >,std::less<unsigned short>,std::allocator<std::pair<unsigned short const ,std::map<unsigned long,CTPlayer *,std::less<unsigned long>,std::allocator<std::pair<unsigned long const ,CTPlayer *> > > > >,0> >::const_iterator::operator*
; Function compile flags: /Ogty
;	COMDAT ??Dconst_iterator@?$_Tree@V?$_Tmap_traits@GV?$map@KPAVCTPlayer@@U?$less@K@std@@V?$allocator@U?$pair@$$CBKPAVCTPlayer@@@std@@@3@@std@@U?$less@G@2@V?$allocator@U?$pair@$$CBGV?$map@KPAVCTPlayer@@U?$less@K@std@@V?$allocator@U?$pair@$$CBKPAVCTPlayer@@@std@@@3@@std@@@std@@@2@$0A@@std@@@std@@QBEABU?$pair@$$CBGV?$map@KPAVCTPlayer@@U?$less@K@std@@V?$allocator@U?$pair@$$CBKPAVCTPlayer@@@std@@@3@@std@@@2@XZ
_TEXT	SEGMENT
??Dconst_iterator@?$_Tree@V?$_Tmap_traits@GV?$map@KPAVCTPlayer@@U?$less@K@std@@V?$allocator@U?$pair@$$CBKPAVCTPlayer@@@std@@@3@@std@@U?$less@G@2@V?$allocator@U?$pair@$$CBGV?$map@KPAVCTPlayer@@U?$less@K@std@@V?$allocator@U?$pair@$$CBKPAVCTPlayer@@@std@@@3@@std@@@std@@@2@$0A@@std@@@std@@QBEABU?$pair@$$CBGV?$map@KPAVCTPlayer@@U?$less@K@std@@V?$allocator@U?$pair@$$CBKPAVCTPlayer@@@std@@@3@@std@@@2@XZ PROC NEAR ; std::_Tree<std::_Tmap_traits<unsigned short,std::map<unsigned long,CTPlayer *,std::less<unsigned long>,std::allocator<std::pair<unsigned long const ,CTPlayer *> > >,std::less<unsigned short>,std::allocator<std::pair<unsigned short const ,std::map<unsigned long,CTPlayer *,std::less<unsigned long>,std::allocator<std::pair<unsigned long const ,CTPlayer *> > > > >,0> >::const_iterator::operator*, COMDAT
; _this$ = ecx

; 205  : 			return (_Myval(_Ptr));

  00000	8b 01		 mov	 eax, DWORD PTR [ecx]
  00002	83 c0 0c	 add	 eax, 12			; 0000000cH

; 206  : 			}

  00005	c3		 ret	 0
??Dconst_iterator@?$_Tree@V?$_Tmap_traits@GV?$map@KPAVCTPlayer@@U?$less@K@std@@V?$allocator@U?$pair@$$CBKPAVCTPlayer@@@std@@@3@@std@@U?$less@G@2@V?$allocator@U?$pair@$$CBGV?$map@KPAVCTPlayer@@U?$less@K@std@@V?$allocator@U?$pair@$$CBKPAVCTPlayer@@@std@@@3@@std@@@std@@@2@$0A@@std@@@std@@QBEABU?$pair@$$CBGV?$map@KPAVCTPlayer@@U?$less@K@std@@V?$allocator@U?$pair@$$CBKPAVCTPlayer@@@std@@@3@@std@@@2@XZ ENDP ; std::_Tree<std::_Tmap_traits<unsigned short,std::map<unsigned long,CTPlayer *,std::less<unsigned long>,std::allocator<std::pair<unsigned long const ,CTPlayer *> > >,std::less<unsigned short>,std::allocator<std::pair<unsigned short const ,std::map<unsigned long,CTPlayer *,std::less<unsigned long>,std::allocator<std::pair<unsigned long const ,CTPlayer *> > > > >,0> >::const_iterator::operator*
_TEXT	ENDS
PUBLIC	??0const_iterator@?$_Tree@V?$_Tmap_traits@GPAVCTParty@@U?$less@G@std@@V?$allocator@U?$pair@$$CBGPAVCTParty@@@std@@@3@$0A@@std@@@std@@QAE@PAU_Node@?$_Tree_nod@V?$_Tmap_traits@GPAVCTParty@@U?$less@G@std@@V?$allocator@U?$pair@$$CBGPAVCTParty@@@std@@@3@$0A@@std@@@2@@Z ; std::_Tree<std::_Tmap_traits<unsigned short,CTParty *,std::less<unsigned short>,std::allocator<std::pair<unsigned short const ,CTParty *> >,0> >::const_iterator::const_iterator
; Function compile flags: /Ogty
;	COMDAT ??0const_iterator@?$_Tree@V?$_Tmap_traits@GPAVCTParty@@U?$less@G@std@@V?$allocator@U?$pair@$$CBGPAVCTParty@@@std@@@3@$0A@@std@@@std@@QAE@PAU_Node@?$_Tree_nod@V?$_Tmap_traits@GPAVCTParty@@U?$less@G@std@@V?$allocator@U?$pair@$$CBGPAVCTParty@@@std@@@3@$0A@@std@@@2@@Z
_TEXT	SEGMENT
__Pnode$ = 8						; size = 4
??0const_iterator@?$_Tree@V?$_Tmap_traits@GPAVCTParty@@U?$less@G@std@@V?$allocator@U?$pair@$$CBGPAVCTParty@@@std@@@3@$0A@@std@@@std@@QAE@PAU_Node@?$_Tree_nod@V?$_Tmap_traits@GPAVCTParty@@U?$less@G@std@@V?$allocator@U?$pair@$$CBGPAVCTParty@@@std@@@3@$0A@@std@@@2@@Z PROC NEAR ; std::_Tree<std::_Tmap_traits<unsigned short,CTParty *,std::less<unsigned short>,std::allocator<std::pair<unsigned short const ,CTParty *> >,0> >::const_iterator::const_iterator, COMDAT
; _this$ = ecx

; 200  : 			{	// construct with node pointer _Pnode

  00000	8b c1		 mov	 eax, ecx
  00002	8b 4c 24 04	 mov	 ecx, DWORD PTR __Pnode$[esp-4]
  00006	89 08		 mov	 DWORD PTR [eax], ecx

; 201  : 			}

  00008	c2 04 00	 ret	 4
??0const_iterator@?$_Tree@V?$_Tmap_traits@GPAVCTParty@@U?$less@G@std@@V?$allocator@U?$pair@$$CBGPAVCTParty@@@std@@@3@$0A@@std@@@std@@QAE@PAU_Node@?$_Tree_nod@V?$_Tmap_traits@GPAVCTParty@@U?$less@G@std@@V?$allocator@U?$pair@$$CBGPAVCTParty@@@std@@@3@$0A@@std@@@2@@Z ENDP ; std::_Tree<std::_Tmap_traits<unsigned short,CTParty *,std::less<unsigned short>,std::allocator<std::pair<unsigned short const ,CTParty *> >,0> >::const_iterator::const_iterator
_TEXT	ENDS
PUBLIC	??0const_iterator@?$_Tree@V?$_Tmap_traits@V?$CStringT@DV?$StrTraitATL@DV?$ChTraitsCRT@D@ATL@@@ATL@@@ATL@@EU?$less@V?$CStringT@DV?$StrTraitATL@DV?$ChTraitsCRT@D@ATL@@@ATL@@@ATL@@@std@@V?$allocator@U?$pair@$$CBV?$CStringT@DV?$StrTraitATL@DV?$ChTraitsCRT@D@ATL@@@ATL@@@ATL@@E@std@@@4@$0A@@std@@@std@@QAE@PAU_Node@?$_Tree_nod@V?$_Tmap_traits@V?$CStringT@DV?$StrTraitATL@DV?$ChTraitsCRT@D@ATL@@@ATL@@@ATL@@EU?$less@V?$CStringT@DV?$StrTraitATL@DV?$ChTraitsCRT@D@ATL@@@ATL@@@ATL@@@std@@V?$allocator@U?$pair@$$CBV?$CStringT@DV?$StrTraitATL@DV?$ChTraitsCRT@D@ATL@@@ATL@@@ATL@@E@std@@@4@$0A@@std@@@2@@Z ; std::_Tree<std::_Tmap_traits<ATL::CStringT<char,ATL::StrTraitATL<char,ATL::ChTraitsCRT<char> > >,unsigned char,std::less<ATL::CStringT<char,ATL::StrTraitATL<char,ATL::ChTraitsCRT<char> > > >,std::allocator<std::pair<ATL::CStringT<char,ATL::StrTraitATL<char,ATL::ChTraitsCRT<char> > > const ,unsigned char> >,0> >::const_iterator::const_iterator
; Function compile flags: /Ogty
;	COMDAT ??0const_iterator@?$_Tree@V?$_Tmap_traits@V?$CStringT@DV?$StrTraitATL@DV?$ChTraitsCRT@D@ATL@@@ATL@@@ATL@@EU?$less@V?$CStringT@DV?$StrTraitATL@DV?$ChTraitsCRT@D@ATL@@@ATL@@@ATL@@@std@@V?$allocator@U?$pair@$$CBV?$CStringT@DV?$StrTraitATL@DV?$ChTraitsCRT@D@ATL@@@ATL@@@ATL@@E@std@@@4@$0A@@std@@@std@@QAE@PAU_Node@?$_Tree_nod@V?$_Tmap_traits@V?$CStringT@DV?$StrTraitATL@DV?$ChTraitsCRT@D@ATL@@@ATL@@@ATL@@EU?$less@V?$CStringT@DV?$StrTraitATL@DV?$ChTraitsCRT@D@ATL@@@ATL@@@ATL@@@std@@V?$allocator@U?$pair@$$CBV?$CStringT@DV?$StrTraitATL@DV?$ChTraitsCRT@D@ATL@@@ATL@@@ATL@@E@std@@@4@$0A@@std@@@2@@Z
_TEXT	SEGMENT
__Pnode$ = 8						; size = 4
??0const_iterator@?$_Tree@V?$_Tmap_traits@V?$CStringT@DV?$StrTraitATL@DV?$ChTraitsCRT@D@ATL@@@ATL@@@ATL@@EU?$less@V?$CStringT@DV?$StrTraitATL@DV?$ChTraitsCRT@D@ATL@@@ATL@@@ATL@@@std@@V?$allocator@U?$pair@$$CBV?$CStringT@DV?$StrTraitATL@DV?$ChTraitsCRT@D@ATL@@@ATL@@@ATL@@E@std@@@4@$0A@@std@@@std@@QAE@PAU_Node@?$_Tree_nod@V?$_Tmap_traits@V?$CStringT@DV?$StrTraitATL@DV?$ChTraitsCRT@D@ATL@@@ATL@@@ATL@@EU?$less@V?$CStringT@DV?$StrTraitATL@DV?$ChTraitsCRT@D@ATL@@@ATL@@@ATL@@@std@@V?$allocator@U?$pair@$$CBV?$CStringT@DV?$StrTraitATL@DV?$ChTraitsCRT@D@ATL@@@ATL@@@ATL@@E@std@@@4@$0A@@std@@@2@@Z PROC NEAR ; std::_Tree<std::_Tmap_traits<ATL::CStringT<char,ATL::StrTraitATL<char,ATL::ChTraitsCRT<char> > >,unsigned char,std::less<ATL::CStringT<char,ATL::StrTraitATL<char,ATL::ChTraitsCRT<char> > > >,std::allocator<std::pair<ATL::CStringT<char,ATL::StrTraitATL<char,ATL::ChTraitsCRT<char> > > const ,unsigned char> >,0> >::const_iterator::const_iterator, COMDAT
; _this$ = ecx

; 200  : 			{	// construct with node pointer _Pnode

  00000	8b c1		 mov	 eax, ecx
  00002	8b 4c 24 04	 mov	 ecx, DWORD PTR __Pnode$[esp-4]
  00006	89 08		 mov	 DWORD PTR [eax], ecx

; 201  : 			}

  00008	c2 04 00	 ret	 4
??0const_iterator@?$_Tree@V?$_Tmap_traits@V?$CStringT@DV?$StrTraitATL@DV?$ChTraitsCRT@D@ATL@@@ATL@@@ATL@@EU?$less@V?$CStringT@DV?$StrTraitATL@DV?$ChTraitsCRT@D@ATL@@@ATL@@@ATL@@@std@@V?$allocator@U?$pair@$$CBV?$CStringT@DV?$StrTraitATL@DV?$ChTraitsCRT@D@ATL@@@ATL@@@ATL@@E@std@@@4@$0A@@std@@@std@@QAE@PAU_Node@?$_Tree_nod@V?$_Tmap_traits@V?$CStringT@DV?$StrTraitATL@DV?$ChTraitsCRT@D@ATL@@@ATL@@@ATL@@EU?$less@V?$CStringT@DV?$StrTraitATL@DV?$ChTraitsCRT@D@ATL@@@ATL@@@ATL@@@std@@V?$allocator@U?$pair@$$CBV?$CStringT@DV?$StrTraitATL@DV?$ChTraitsCRT@D@ATL@@@ATL@@@ATL@@E@std@@@4@$0A@@std@@@2@@Z ENDP ; std::_Tree<std::_Tmap_traits<ATL::CStringT<char,ATL::StrTraitATL<char,ATL::ChTraitsCRT<char> > >,unsigned char,std::less<ATL::CStringT<char,ATL::StrTraitATL<char,ATL::ChTraitsCRT<char> > > >,std::allocator<std::pair<ATL::CStringT<char,ATL::StrTraitATL<char,ATL::ChTraitsCRT<char> > > const ,unsigned char> >,0> >::const_iterator::const_iterator
_TEXT	ENDS
PUBLIC	??Yiterator@?$vector@KV?$allocator@K@std@@@std@@QAEAAV012@H@Z ; std::vector<unsigned long,std::allocator<unsigned long> >::iterator::operator+=
; Function compile flags: /Ogty
; File c:\program files (x86)\microsoft visual studio .net 2003\vc7\include\vector
;	COMDAT ??Yiterator@?$vector@KV?$allocator@K@std@@@std@@QAEAAV012@H@Z
_TEXT	SEGMENT
__Off$ = 8						; size = 4
??Yiterator@?$vector@KV?$allocator@K@std@@@std@@QAEAAV012@H@Z PROC NEAR ; std::vector<unsigned long,std::allocator<unsigned long> >::iterator::operator+=, COMDAT
; _this$ = ecx

; 255  : 			{	// increment by integer

  00000	8b c1		 mov	 eax, ecx

; 256  : 			this->_Myptr += _Off;

  00002	8b 4c 24 04	 mov	 ecx, DWORD PTR __Off$[esp-4]
  00006	8d 14 8d 00 00
	00 00		 lea	 edx, DWORD PTR [ecx*4]
  0000d	01 10		 add	 DWORD PTR [eax], edx

; 257  : 			return (*this);
; 258  : 			}

  0000f	c2 04 00	 ret	 4
??Yiterator@?$vector@KV?$allocator@K@std@@@std@@QAEAAV012@H@Z ENDP ; std::vector<unsigned long,std::allocator<unsigned long> >::iterator::operator+=
_TEXT	ENDS
PUBLIC	??Dconst_iterator@?$vector@KV?$allocator@K@std@@@std@@QBEABKXZ ; std::vector<unsigned long,std::allocator<unsigned long> >::const_iterator::operator*
; Function compile flags: /Ogty
;	COMDAT ??Dconst_iterator@?$vector@KV?$allocator@K@std@@@std@@QBEABKXZ
_TEXT	SEGMENT
??Dconst_iterator@?$vector@KV?$allocator@K@std@@@std@@QBEABKXZ PROC NEAR ; std::vector<unsigned long,std::allocator<unsigned long> >::const_iterator::operator*, COMDAT
; _this$ = ecx

; 80   : 
; 81   : 
; 82   : 			return (*_Myptr);

  00000	8b 01		 mov	 eax, DWORD PTR [ecx]

; 83   : 			}

  00002	c3		 ret	 0
??Dconst_iterator@?$vector@KV?$allocator@K@std@@@std@@QBEABKXZ ENDP ; std::vector<unsigned long,std::allocator<unsigned long> >::const_iterator::operator*
_TEXT	ENDS
PUBLIC	??0?$allocator@D@std@@QAE@XZ			; std::allocator<char>::allocator<char>
; Function compile flags: /Ogty
; File c:\program files (x86)\microsoft visual studio .net 2003\vc7\include\xmemory
;	COMDAT ??0?$allocator@D@std@@QAE@XZ
_TEXT	SEGMENT
??0?$allocator@D@std@@QAE@XZ PROC NEAR			; std::allocator<char>::allocator<char>, COMDAT
; _this$ = ecx

; 111  : 	allocator()

  00000	8b c1		 mov	 eax, ecx

; 112  : 		{	// construct default allocator (do nothing)
; 113  : 		}

  00002	c3		 ret	 0
??0?$allocator@D@std@@QAE@XZ ENDP			; std::allocator<char>::allocator<char>
_TEXT	ENDS
PUBLIC	?_Isnil@?$_Tree@V?$_Tmap_traits@V?$CStringT@DV?$StrTraitATL@DV?$ChTraitsCRT@D@ATL@@@ATL@@@ATL@@EU?$less@V?$CStringT@DV?$StrTraitATL@DV?$ChTraitsCRT@D@ATL@@@ATL@@@ATL@@@std@@V?$allocator@U?$pair@$$CBV?$CStringT@DV?$StrTraitATL@DV?$ChTraitsCRT@D@ATL@@@ATL@@@ATL@@E@std@@@4@$0A@@std@@@std@@KAAADPAU_Node@?$_Tree_nod@V?$_Tmap_traits@V?$CStringT@DV?$StrTraitATL@DV?$ChTraitsCRT@D@ATL@@@ATL@@@ATL@@EU?$less@V?$CStringT@DV?$StrTraitATL@DV?$ChTraitsCRT@D@ATL@@@ATL@@@ATL@@@std@@V?$allocator@U?$pair@$$CBV?$CStringT@DV?$StrTraitATL@DV?$ChTraitsCRT@D@ATL@@@ATL@@@ATL@@E@std@@@4@$0A@@std@@@2@@Z ; std::_Tree<std::_Tmap_traits<ATL::CStringT<char,ATL::StrTraitATL<char,ATL::ChTraitsCRT<char> > >,unsigned char,std::less<ATL::CStringT<char,ATL::StrTraitATL<char,ATL::ChTraitsCRT<char> > > >,std::allocator<std::pair<ATL::CStringT<char,ATL::StrTraitATL<char,ATL::ChTraitsCRT<char> > > const ,unsigned char> >,0> >::_Isnil
; Function compile flags: /Ogty
; File c:\program files (x86)\microsoft visual studio .net 2003\vc7\include\xtree
;	COMDAT ?_Isnil@?$_Tree@V?$_Tmap_traits@V?$CStringT@DV?$StrTraitATL@DV?$ChTraitsCRT@D@ATL@@@ATL@@@ATL@@EU?$less@V?$CStringT@DV?$StrTraitATL@DV?$ChTraitsCRT@D@ATL@@@ATL@@@ATL@@@std@@V?$allocator@U?$pair@$$CBV?$CStringT@DV?$StrTraitATL@DV?$ChTraitsCRT@D@ATL@@@ATL@@@ATL@@E@std@@@4@$0A@@std@@@std@@KAAADPAU_Node@?$_Tree_nod@V?$_Tmap_traits@V?$CStringT@DV?$StrTraitATL@DV?$ChTraitsCRT@D@ATL@@@ATL@@@ATL@@EU?$less@V?$CStringT@DV?$StrTraitATL@DV?$ChTraitsCRT@D@ATL@@@ATL@@@ATL@@@std@@V?$allocator@U?$pair@$$CBV?$CStringT@DV?$StrTraitATL@DV?$ChTraitsCRT@D@ATL@@@ATL@@@ATL@@E@std@@@4@$0A@@std@@@2@@Z
_TEXT	SEGMENT
__Pnode$ = 8						; size = 4
?_Isnil@?$_Tree@V?$_Tmap_traits@V?$CStringT@DV?$StrTraitATL@DV?$ChTraitsCRT@D@ATL@@@ATL@@@ATL@@EU?$less@V?$CStringT@DV?$StrTraitATL@DV?$ChTraitsCRT@D@ATL@@@ATL@@@ATL@@@std@@V?$allocator@U?$pair@$$CBV?$CStringT@DV?$StrTraitATL@DV?$ChTraitsCRT@D@ATL@@@ATL@@@ATL@@E@std@@@4@$0A@@std@@@std@@KAAADPAU_Node@?$_Tree_nod@V?$_Tmap_traits@V?$CStringT@DV?$StrTraitATL@DV?$ChTraitsCRT@D@ATL@@@ATL@@@ATL@@EU?$less@V?$CStringT@DV?$StrTraitATL@DV?$ChTraitsCRT@D@ATL@@@ATL@@@ATL@@@std@@V?$allocator@U?$pair@$$CBV?$CStringT@DV?$StrTraitATL@DV?$ChTraitsCRT@D@ATL@@@ATL@@@ATL@@E@std@@@4@$0A@@std@@@2@@Z PROC NEAR ; std::_Tree<std::_Tmap_traits<ATL::CStringT<char,ATL::StrTraitATL<char,ATL::ChTraitsCRT<char> > >,unsigned char,std::less<ATL::CStringT<char,ATL::StrTraitATL<char,ATL::ChTraitsCRT<char> > > >,std::allocator<std::pair<ATL::CStringT<char,ATL::StrTraitATL<char,ATL::ChTraitsCRT<char> > > const ,unsigned char> >,0> >::_Isnil, COMDAT

; 137  : 		return ((_Charref)(*_Pnode)._Isnil);

  00000	8b 44 24 04	 mov	 eax, DWORD PTR __Pnode$[esp-4]
  00004	83 c0 15	 add	 eax, 21			; 00000015H

; 138  : 		}

  00007	c3		 ret	 0
?_Isnil@?$_Tree@V?$_Tmap_traits@V?$CStringT@DV?$StrTraitATL@DV?$ChTraitsCRT@D@ATL@@@ATL@@@ATL@@EU?$less@V?$CStringT@DV?$StrTraitATL@DV?$ChTraitsCRT@D@ATL@@@ATL@@@ATL@@@std@@V?$allocator@U?$pair@$$CBV?$CStringT@DV?$StrTraitATL@DV?$ChTraitsCRT@D@ATL@@@ATL@@@ATL@@E@std@@@4@$0A@@std@@@std@@KAAADPAU_Node@?$_Tree_nod@V?$_Tmap_traits@V?$CStringT@DV?$StrTraitATL@DV?$ChTraitsCRT@D@ATL@@@ATL@@@ATL@@EU?$less@V?$CStringT@DV?$StrTraitATL@DV?$ChTraitsCRT@D@ATL@@@ATL@@@ATL@@@std@@V?$allocator@U?$pair@$$CBV?$CStringT@DV?$StrTraitATL@DV?$ChTraitsCRT@D@ATL@@@ATL@@@ATL@@E@std@@@4@$0A@@std@@@2@@Z ENDP ; std::_Tree<std::_Tmap_traits<ATL::CStringT<char,ATL::StrTraitATL<char,ATL::ChTraitsCRT<char> > >,unsigned char,std::less<ATL::CStringT<char,ATL::StrTraitATL<char,ATL::ChTraitsCRT<char> > > >,std::allocator<std::pair<ATL::CStringT<char,ATL::StrTraitATL<char,ATL::ChTraitsCRT<char> > > const ,unsigned char> >,0> >::_Isnil
_TEXT	ENDS
PUBLIC	?_Left@?$_Tree@V?$_Tmap_traits@V?$CStringT@DV?$StrTraitATL@DV?$ChTraitsCRT@D@ATL@@@ATL@@@ATL@@EU?$less@V?$CStringT@DV?$StrTraitATL@DV?$ChTraitsCRT@D@ATL@@@ATL@@@ATL@@@std@@V?$allocator@U?$pair@$$CBV?$CStringT@DV?$StrTraitATL@DV?$ChTraitsCRT@D@ATL@@@ATL@@@ATL@@E@std@@@4@$0A@@std@@@std@@KAAAPAU_Node@?$_Tree_nod@V?$_Tmap_traits@V?$CStringT@DV?$StrTraitATL@DV?$ChTraitsCRT@D@ATL@@@ATL@@@ATL@@EU?$less@V?$CStringT@DV?$StrTraitATL@DV?$ChTraitsCRT@D@ATL@@@ATL@@@ATL@@@std@@V?$allocator@U?$pair@$$CBV?$CStringT@DV?$StrTraitATL@DV?$ChTraitsCRT@D@ATL@@@ATL@@@ATL@@E@std@@@4@$0A@@std@@@2@PAU342@@Z ; std::_Tree<std::_Tmap_traits<ATL::CStringT<char,ATL::StrTraitATL<char,ATL::ChTraitsCRT<char> > >,unsigned char,std::less<ATL::CStringT<char,ATL::StrTraitATL<char,ATL::ChTraitsCRT<char> > > >,std::allocator<std::pair<ATL::CStringT<char,ATL::StrTraitATL<char,ATL::ChTraitsCRT<char> > > const ,unsigned char> >,0> >::_Left
; Function compile flags: /Ogty
;	COMDAT ?_Left@?$_Tree@V?$_Tmap_traits@V?$CStringT@DV?$StrTraitATL@DV?$ChTraitsCRT@D@ATL@@@ATL@@@ATL@@EU?$less@V?$CStringT@DV?$StrTraitATL@DV?$ChTraitsCRT@D@ATL@@@ATL@@@ATL@@@std@@V?$allocator@U?$pair@$$CBV?$CStringT@DV?$StrTraitATL@DV?$ChTraitsCRT@D@ATL@@@ATL@@@ATL@@E@std@@@4@$0A@@std@@@std@@KAAAPAU_Node@?$_Tree_nod@V?$_Tmap_traits@V?$CStringT@DV?$StrTraitATL@DV?$ChTraitsCRT@D@ATL@@@ATL@@@ATL@@EU?$less@V?$CStringT@DV?$StrTraitATL@DV?$ChTraitsCRT@D@ATL@@@ATL@@@ATL@@@std@@V?$allocator@U?$pair@$$CBV?$CStringT@DV?$StrTraitATL@DV?$ChTraitsCRT@D@ATL@@@ATL@@@ATL@@E@std@@@4@$0A@@std@@@2@PAU342@@Z
_TEXT	SEGMENT
__Pnode$ = 8						; size = 4
?_Left@?$_Tree@V?$_Tmap_traits@V?$CStringT@DV?$StrTraitATL@DV?$ChTraitsCRT@D@ATL@@@ATL@@@ATL@@EU?$less@V?$CStringT@DV?$StrTraitATL@DV?$ChTraitsCRT@D@ATL@@@ATL@@@ATL@@@std@@V?$allocator@U?$pair@$$CBV?$CStringT@DV?$StrTraitATL@DV?$ChTraitsCRT@D@ATL@@@ATL@@@ATL@@E@std@@@4@$0A@@std@@@std@@KAAAPAU_Node@?$_Tree_nod@V?$_Tmap_traits@V?$CStringT@DV?$StrTraitATL@DV?$ChTraitsCRT@D@ATL@@@ATL@@@ATL@@EU?$less@V?$CStringT@DV?$StrTraitATL@DV?$ChTraitsCRT@D@ATL@@@ATL@@@ATL@@@std@@V?$allocator@U?$pair@$$CBV?$CStringT@DV?$StrTraitATL@DV?$ChTraitsCRT@D@ATL@@@ATL@@@ATL@@E@std@@@4@$0A@@std@@@2@PAU342@@Z PROC NEAR ; std::_Tree<std::_Tmap_traits<ATL::CStringT<char,ATL::StrTraitATL<char,ATL::ChTraitsCRT<char> > >,unsigned char,std::less<ATL::CStringT<char,ATL::StrTraitATL<char,ATL::ChTraitsCRT<char> > > >,std::allocator<std::pair<ATL::CStringT<char,ATL::StrTraitATL<char,ATL::ChTraitsCRT<char> > > const ,unsigned char> >,0> >::_Left, COMDAT

; 147  : 		return ((_Nodepref)(*_Pnode)._Left);

  00000	8b 44 24 04	 mov	 eax, DWORD PTR __Pnode$[esp-4]

; 148  : 		}

  00004	c3		 ret	 0
?_Left@?$_Tree@V?$_Tmap_traits@V?$CStringT@DV?$StrTraitATL@DV?$ChTraitsCRT@D@ATL@@@ATL@@@ATL@@EU?$less@V?$CStringT@DV?$StrTraitATL@DV?$ChTraitsCRT@D@ATL@@@ATL@@@ATL@@@std@@V?$allocator@U?$pair@$$CBV?$CStringT@DV?$StrTraitATL@DV?$ChTraitsCRT@D@ATL@@@ATL@@@ATL@@E@std@@@4@$0A@@std@@@std@@KAAAPAU_Node@?$_Tree_nod@V?$_Tmap_traits@V?$CStringT@DV?$StrTraitATL@DV?$ChTraitsCRT@D@ATL@@@ATL@@@ATL@@EU?$less@V?$CStringT@DV?$StrTraitATL@DV?$ChTraitsCRT@D@ATL@@@ATL@@@ATL@@@std@@V?$allocator@U?$pair@$$CBV?$CStringT@DV?$StrTraitATL@DV?$ChTraitsCRT@D@ATL@@@ATL@@@ATL@@E@std@@@4@$0A@@std@@@2@PAU342@@Z ENDP ; std::_Tree<std::_Tmap_traits<ATL::CStringT<char,ATL::StrTraitATL<char,ATL::ChTraitsCRT<char> > >,unsigned char,std::less<ATL::CStringT<char,ATL::StrTraitATL<char,ATL::ChTraitsCRT<char> > > >,std::allocator<std::pair<ATL::CStringT<char,ATL::StrTraitATL<char,ATL::ChTraitsCRT<char> > > const ,unsigned char> >,0> >::_Left
_TEXT	ENDS
PUBLIC	?_Right@?$_Tree@V?$_Tmap_traits@V?$CStringT@DV?$StrTraitATL@DV?$ChTraitsCRT@D@ATL@@@ATL@@@ATL@@EU?$less@V?$CStringT@DV?$StrTraitATL@DV?$ChTraitsCRT@D@ATL@@@ATL@@@ATL@@@std@@V?$allocator@U?$pair@$$CBV?$CStringT@DV?$StrTraitATL@DV?$ChTraitsCRT@D@ATL@@@ATL@@@ATL@@E@std@@@4@$0A@@std@@@std@@KAAAPAU_Node@?$_Tree_nod@V?$_Tmap_traits@V?$CStringT@DV?$StrTraitATL@DV?$ChTraitsCRT@D@ATL@@@ATL@@@ATL@@EU?$less@V?$CStringT@DV?$StrTraitATL@DV?$ChTraitsCRT@D@ATL@@@ATL@@@ATL@@@std@@V?$allocator@U?$pair@$$CBV?$CStringT@DV?$StrTraitATL@DV?$ChTraitsCRT@D@ATL@@@ATL@@@ATL@@E@std@@@4@$0A@@std@@@2@PAU342@@Z ; std::_Tree<std::_Tmap_traits<ATL::CStringT<char,ATL::StrTraitATL<char,ATL::ChTraitsCRT<char> > >,unsigned char,std::less<ATL::CStringT<char,ATL::StrTraitATL<char,ATL::ChTraitsCRT<char> > > >,std::allocator<std::pair<ATL::CStringT<char,ATL::StrTraitATL<char,ATL::ChTraitsCRT<char> > > const ,unsigned char> >,0> >::_Right
; Function compile flags: /Ogty
;	COMDAT ?_Right@?$_Tree@V?$_Tmap_traits@V?$CStringT@DV?$StrTraitATL@DV?$ChTraitsCRT@D@ATL@@@ATL@@@ATL@@EU?$less@V?$CStringT@DV?$StrTraitATL@DV?$ChTraitsCRT@D@ATL@@@ATL@@@ATL@@@std@@V?$allocator@U?$pair@$$CBV?$CStringT@DV?$StrTraitATL@DV?$ChTraitsCRT@D@ATL@@@ATL@@@ATL@@E@std@@@4@$0A@@std@@@std@@KAAAPAU_Node@?$_Tree_nod@V?$_Tmap_traits@V?$CStringT@DV?$StrTraitATL@DV?$ChTraitsCRT@D@ATL@@@ATL@@@ATL@@EU?$less@V?$CStringT@DV?$StrTraitATL@DV?$ChTraitsCRT@D@ATL@@@ATL@@@ATL@@@std@@V?$allocator@U?$pair@$$CBV?$CStringT@DV?$StrTraitATL@DV?$ChTraitsCRT@D@ATL@@@ATL@@@ATL@@E@std@@@4@$0A@@std@@@2@PAU342@@Z
_TEXT	SEGMENT
__Pnode$ = 8						; size = 4
?_Right@?$_Tree@V?$_Tmap_traits@V?$CStringT@DV?$StrTraitATL@DV?$ChTraitsCRT@D@ATL@@@ATL@@@ATL@@EU?$less@V?$CStringT@DV?$StrTraitATL@DV?$ChTraitsCRT@D@ATL@@@ATL@@@ATL@@@std@@V?$allocator@U?$pair@$$CBV?$CStringT@DV?$StrTraitATL@DV?$ChTraitsCRT@D@ATL@@@ATL@@@ATL@@E@std@@@4@$0A@@std@@@std@@KAAAPAU_Node@?$_Tree_nod@V?$_Tmap_traits@V?$CStringT@DV?$StrTraitATL@DV?$ChTraitsCRT@D@ATL@@@ATL@@@ATL@@EU?$less@V?$CStringT@DV?$StrTraitATL@DV?$ChTraitsCRT@D@ATL@@@ATL@@@ATL@@@std@@V?$allocator@U?$pair@$$CBV?$CStringT@DV?$StrTraitATL@DV?$ChTraitsCRT@D@ATL@@@ATL@@@ATL@@E@std@@@4@$0A@@std@@@2@PAU342@@Z PROC NEAR ; std::_Tree<std::_Tmap_traits<ATL::CStringT<char,ATL::StrTraitATL<char,ATL::ChTraitsCRT<char> > >,unsigned char,std::less<ATL::CStringT<char,ATL::StrTraitATL<char,ATL::ChTraitsCRT<char> > > >,std::allocator<std::pair<ATL::CStringT<char,ATL::StrTraitATL<char,ATL::ChTraitsCRT<char> > > const ,unsigned char> >,0> >::_Right, COMDAT

; 157  : 		return ((_Nodepref)(*_Pnode)._Right);

  00000	8b 44 24 04	 mov	 eax, DWORD PTR __Pnode$[esp-4]
  00004	83 c0 08	 add	 eax, 8

; 158  : 		}

  00007	c3		 ret	 0
?_Right@?$_Tree@V?$_Tmap_traits@V?$CStringT@DV?$StrTraitATL@DV?$ChTraitsCRT@D@ATL@@@ATL@@@ATL@@EU?$less@V?$CStringT@DV?$StrTraitATL@DV?$ChTraitsCRT@D@ATL@@@ATL@@@ATL@@@std@@V?$allocator@U?$pair@$$CBV?$CStringT@DV?$StrTraitATL@DV?$ChTraitsCRT@D@ATL@@@ATL@@@ATL@@E@std@@@4@$0A@@std@@@std@@KAAAPAU_Node@?$_Tree_nod@V?$_Tmap_traits@V?$CStringT@DV?$StrTraitATL@DV?$ChTraitsCRT@D@ATL@@@ATL@@@ATL@@EU?$less@V?$CStringT@DV?$StrTraitATL@DV?$ChTraitsCRT@D@ATL@@@ATL@@@ATL@@@std@@V?$allocator@U?$pair@$$CBV?$CStringT@DV?$StrTraitATL@DV?$ChTraitsCRT@D@ATL@@@ATL@@@ATL@@E@std@@@4@$0A@@std@@@2@PAU342@@Z ENDP ; std::_Tree<std::_Tmap_traits<ATL::CStringT<char,ATL::StrTraitATL<char,ATL::ChTraitsCRT<char> > >,unsigned char,std::less<ATL::CStringT<char,ATL::StrTraitATL<char,ATL::ChTraitsCRT<char> > > >,std::allocator<std::pair<ATL::CStringT<char,ATL::StrTraitATL<char,ATL::ChTraitsCRT<char> > > const ,unsigned char> >,0> >::_Right
_TEXT	ENDS
PUBLIC	?_Root@?$_Tree@V?$_Tmap_traits@KPAVCTPlayer@@U?$less@K@std@@V?$allocator@U?$pair@$$CBKPAVCTPlayer@@@std@@@3@$0A@@std@@@std@@IBEAAPAU_Node@?$_Tree_nod@V?$_Tmap_traits@KPAVCTPlayer@@U?$less@K@std@@V?$allocator@U?$pair@$$CBKPAVCTPlayer@@@std@@@3@$0A@@std@@@2@XZ ; std::_Tree<std::_Tmap_traits<unsigned long,CTPlayer *,std::less<unsigned long>,std::allocator<std::pair<unsigned long const ,CTPlayer *> >,0> >::_Root
; Function compile flags: /Ogty
;	COMDAT ?_Root@?$_Tree@V?$_Tmap_traits@KPAVCTPlayer@@U?$less@K@std@@V?$allocator@U?$pair@$$CBKPAVCTPlayer@@@std@@@3@$0A@@std@@@std@@IBEAAPAU_Node@?$_Tree_nod@V?$_Tmap_traits@KPAVCTPlayer@@U?$less@K@std@@V?$allocator@U?$pair@$$CBKPAVCTPlayer@@@std@@@3@$0A@@std@@@2@XZ
_TEXT	SEGMENT
?_Root@?$_Tree@V?$_Tmap_traits@KPAVCTPlayer@@U?$less@K@std@@V?$allocator@U?$pair@$$CBKPAVCTPlayer@@@std@@@3@$0A@@std@@@std@@IBEAAPAU_Node@?$_Tree_nod@V?$_Tmap_traits@KPAVCTPlayer@@U?$less@K@std@@V?$allocator@U?$pair@$$CBKPAVCTPlayer@@@std@@@3@$0A@@std@@@2@XZ PROC NEAR ; std::_Tree<std::_Tmap_traits<unsigned long,CTPlayer *,std::less<unsigned long>,std::allocator<std::pair<unsigned long const ,CTPlayer *> >,0> >::_Root, COMDAT
; _this$ = ecx

; 1064 : 		return (_Parent(_Myhead));

  00000	8b 41 04	 mov	 eax, DWORD PTR [ecx+4]
  00003	83 c0 04	 add	 eax, 4

; 1065 : 		}

  00006	c3		 ret	 0
?_Root@?$_Tree@V?$_Tmap_traits@KPAVCTPlayer@@U?$less@K@std@@V?$allocator@U?$pair@$$CBKPAVCTPlayer@@@std@@@3@$0A@@std@@@std@@IBEAAPAU_Node@?$_Tree_nod@V?$_Tmap_traits@KPAVCTPlayer@@U?$less@K@std@@V?$allocator@U?$pair@$$CBKPAVCTPlayer@@@std@@@3@$0A@@std@@@2@XZ ENDP ; std::_Tree<std::_Tmap_traits<unsigned long,CTPlayer *,std::less<unsigned long>,std::allocator<std::pair<unsigned long const ,CTPlayer *> >,0> >::_Root
_TEXT	ENDS
PUBLIC	?max_size@?$allocator@U?$pair@$$CBKPAVCTPlayer@@@std@@@std@@QBEIXZ ; std::allocator<std::pair<unsigned long const ,CTPlayer *> >::max_size
; Function compile flags: /Ogty
; File c:\program files (x86)\microsoft visual studio .net 2003\vc7\include\xmemory
;	COMDAT ?max_size@?$allocator@U?$pair@$$CBKPAVCTPlayer@@@std@@@std@@QBEIXZ
_TEXT	SEGMENT
?max_size@?$allocator@U?$pair@$$CBKPAVCTPlayer@@@std@@@std@@QBEIXZ PROC NEAR ; std::allocator<std::pair<unsigned long const ,CTPlayer *> >::max_size, COMDAT
; _this$ = ecx

; 157  : 		_SIZT _Count = (_SIZT)(-1) / sizeof (_Ty);
; 158  : 		return (0 < _Count ? _Count : 1);

  00000	b8 ff ff ff 1f	 mov	 eax, 536870911		; 1fffffffH

; 159  : 		}

  00005	c3		 ret	 0
?max_size@?$allocator@U?$pair@$$CBKPAVCTPlayer@@@std@@@std@@QBEIXZ ENDP ; std::allocator<std::pair<unsigned long const ,CTPlayer *> >::max_size
_TEXT	ENDS
PUBLIC	?deallocate@?$allocator@U_Node@?$_Tree_nod@V?$_Tmap_traits@KPAVCTPlayer@@U?$less@K@std@@V?$allocator@U?$pair@$$CBKPAVCTPlayer@@@std@@@3@$0A@@std@@@std@@@std@@QAEXPAU_Node@?$_Tree_nod@V?$_Tmap_traits@KPAVCTPlayer@@U?$less@K@std@@V?$allocator@U?$pair@$$CBKPAVCTPlayer@@@std@@@3@$0A@@std@@@2@I@Z ; std::allocator<std::_Tree_nod<std::_Tmap_traits<unsigned long,CTPlayer *,std::less<unsigned long>,std::allocator<std::pair<unsigned long const ,CTPlayer *> >,0> >::_Node>::deallocate
EXTRN	??3@YAXPAX@Z:NEAR				; operator delete
; Function compile flags: /Ogty
;	COMDAT ?deallocate@?$allocator@U_Node@?$_Tree_nod@V?$_Tmap_traits@KPAVCTPlayer@@U?$less@K@std@@V?$allocator@U?$pair@$$CBKPAVCTPlayer@@@std@@@3@$0A@@std@@@std@@@std@@QAEXPAU_Node@?$_Tree_nod@V?$_Tmap_traits@KPAVCTPlayer@@U?$less@K@std@@V?$allocator@U?$pair@$$CBKPAVCTPlayer@@@std@@@3@$0A@@std@@@2@I@Z
_TEXT	SEGMENT
__Ptr$ = 8						; size = 4
___formal$ = 12						; size = 4
?deallocate@?$allocator@U_Node@?$_Tree_nod@V?$_Tmap_traits@KPAVCTPlayer@@U?$less@K@std@@V?$allocator@U?$pair@$$CBKPAVCTPlayer@@@std@@@3@$0A@@std@@@std@@@std@@QAEXPAU_Node@?$_Tree_nod@V?$_Tmap_traits@KPAVCTPlayer@@U?$less@K@std@@V?$allocator@U?$pair@$$CBKPAVCTPlayer@@@std@@@3@$0A@@std@@@2@I@Z PROC NEAR ; std::allocator<std::_Tree_nod<std::_Tmap_traits<unsigned long,CTPlayer *,std::less<unsigned long>,std::allocator<std::pair<unsigned long const ,CTPlayer *> >,0> >::_Node>::deallocate, COMDAT
; _this$ = ecx

; 132  : 		operator delete(_Ptr);

  00000	8b 44 24 04	 mov	 eax, DWORD PTR __Ptr$[esp-4]
  00004	50		 push	 eax
  00005	e8 00 00 00 00	 call	 ??3@YAXPAX@Z		; operator delete
  0000a	59		 pop	 ecx

; 133  : 		}

  0000b	c2 08 00	 ret	 8
?deallocate@?$allocator@U_Node@?$_Tree_nod@V?$_Tmap_traits@KPAVCTPlayer@@U?$less@K@std@@V?$allocator@U?$pair@$$CBKPAVCTPlayer@@@std@@@3@$0A@@std@@@std@@@std@@QAEXPAU_Node@?$_Tree_nod@V?$_Tmap_traits@KPAVCTPlayer@@U?$less@K@std@@V?$allocator@U?$pair@$$CBKPAVCTPlayer@@@std@@@3@$0A@@std@@@2@I@Z ENDP ; std::allocator<std::_Tree_nod<std::_Tmap_traits<unsigned long,CTPlayer *,std::less<unsigned long>,std::allocator<std::pair<unsigned long const ,CTPlayer *> >,0> >::_Node>::deallocate
_TEXT	ENDS
PUBLIC	?_Isnil@?$_Tree@V?$_Tmap_traits@GV?$map@KPAVCTPlayer@@U?$less@K@std@@V?$allocator@U?$pair@$$CBKPAVCTPlayer@@@std@@@3@@std@@U?$less@G@2@V?$allocator@U?$pair@$$CBGV?$map@KPAVCTPlayer@@U?$less@K@std@@V?$allocator@U?$pair@$$CBKPAVCTPlayer@@@std@@@3@@std@@@std@@@2@$0A@@std@@@std@@KAAADPAU_Node@?$_Tree_nod@V?$_Tmap_traits@GV?$map@KPAVCTPlayer@@U?$less@K@std@@V?$allocator@U?$pair@$$CBKPAVCTPlayer@@@std@@@3@@std@@U?$less@G@2@V?$allocator@U?$pair@$$CBGV?$map@KPAVCTPlayer@@U?$less@K@std@@V?$allocator@U?$pair@$$CBKPAVCTPlayer@@@std@@@3@@std@@@std@@@2@$0A@@std@@@2@@Z ; std::_Tree<std::_Tmap_traits<unsigned short,std::map<unsigned long,CTPlayer *,std::less<unsigned long>,std::allocator<std::pair<unsigned long const ,CTPlayer *> > >,std::less<unsigned short>,std::allocator<std::pair<unsigned short const ,std::map<unsigned long,CTPlayer *,std::less<unsigned long>,std::allocator<std::pair<unsigned long const ,CTPlayer *> > > > >,0> >::_Isnil
; Function compile flags: /Ogty
; File c:\program files (x86)\microsoft visual studio .net 2003\vc7\include\xtree
;	COMDAT ?_Isnil@?$_Tree@V?$_Tmap_traits@GV?$map@KPAVCTPlayer@@U?$less@K@std@@V?$allocator@U?$pair@$$CBKPAVCTPlayer@@@std@@@3@@std@@U?$less@G@2@V?$allocator@U?$pair@$$CBGV?$map@KPAVCTPlayer@@U?$less@K@std@@V?$allocator@U?$pair@$$CBKPAVCTPlayer@@@std@@@3@@std@@@std@@@2@$0A@@std@@@std@@KAAADPAU_Node@?$_Tree_nod@V?$_Tmap_traits@GV?$map@KPAVCTPlayer@@U?$less@K@std@@V?$allocator@U?$pair@$$CBKPAVCTPlayer@@@std@@@3@@std@@U?$less@G@2@V?$allocator@U?$pair@$$CBGV?$map@KPAVCTPlayer@@U?$less@K@std@@V?$allocator@U?$pair@$$CBKPAVCTPlayer@@@std@@@3@@std@@@std@@@2@$0A@@std@@@2@@Z
_TEXT	SEGMENT
__Pnode$ = 8						; size = 4
?_Isnil@?$_Tree@V?$_Tmap_traits@GV?$map@KPAVCTPlayer@@U?$less@K@std@@V?$allocator@U?$pair@$$CBKPAVCTPlayer@@@std@@@3@@std@@U?$less@G@2@V?$allocator@U?$pair@$$CBGV?$map@KPAVCTPlayer@@U?$less@K@std@@V?$allocator@U?$pair@$$CBKPAVCTPlayer@@@std@@@3@@std@@@std@@@2@$0A@@std@@@std@@KAAADPAU_Node@?$_Tree_nod@V?$_Tmap_traits@GV?$map@KPAVCTPlayer@@U?$less@K@std@@V?$allocator@U?$pair@$$CBKPAVCTPlayer@@@std@@@3@@std@@U?$less@G@2@V?$allocator@U?$pair@$$CBGV?$map@KPAVCTPlayer@@U?$less@K@std@@V?$allocator@U?$pair@$$CBKPAVCTPlayer@@@std@@@3@@std@@@std@@@2@$0A@@std@@@2@@Z PROC NEAR ; std::_Tree<std::_Tmap_traits<unsigned short,std::map<unsigned long,CTPlayer *,std::less<unsigned long>,std::allocator<std::pair<unsigned long const ,CTPlayer *> > >,std::less<unsigned short>,std::allocator<std::pair<unsigned short const ,std::map<unsigned long,CTPlayer *,std::less<unsigned long>,std::allocator<std::pair<unsigned long const ,CTPlayer *> > > > >,0> >::_Isnil, COMDAT

; 137  : 		return ((_Charref)(*_Pnode)._Isnil);

  00000	8b 44 24 04	 mov	 eax, DWORD PTR __Pnode$[esp-4]
  00004	83 c0 1d	 add	 eax, 29			; 0000001dH

; 138  : 		}

  00007	c3		 ret	 0
?_Isnil@?$_Tree@V?$_Tmap_traits@GV?$map@KPAVCTPlayer@@U?$less@K@std@@V?$allocator@U?$pair@$$CBKPAVCTPlayer@@@std@@@3@@std@@U?$less@G@2@V?$allocator@U?$pair@$$CBGV?$map@KPAVCTPlayer@@U?$less@K@std@@V?$allocator@U?$pair@$$CBKPAVCTPlayer@@@std@@@3@@std@@@std@@@2@$0A@@std@@@std@@KAAADPAU_Node@?$_Tree_nod@V?$_Tmap_traits@GV?$map@KPAVCTPlayer@@U?$less@K@std@@V?$allocator@U?$pair@$$CBKPAVCTPlayer@@@std@@@3@@std@@U?$less@G@2@V?$allocator@U?$pair@$$CBGV?$map@KPAVCTPlayer@@U?$less@K@std@@V?$allocator@U?$pair@$$CBKPAVCTPlayer@@@std@@@3@@std@@@std@@@2@$0A@@std@@@2@@Z ENDP ; std::_Tree<std::_Tmap_traits<unsigned short,std::map<unsigned long,CTPlayer *,std::less<unsigned long>,std::allocator<std::pair<unsigned long const ,CTPlayer *> > >,std::less<unsigned short>,std::allocator<std::pair<unsigned short const ,std::map<unsigned long,CTPlayer *,std::less<unsigned long>,std::allocator<std::pair<unsigned long const ,CTPlayer *> > > > >,0> >::_Isnil
_TEXT	ENDS
PUBLIC	?_Left@?$_Tree@V?$_Tmap_traits@GV?$map@KPAVCTPlayer@@U?$less@K@std@@V?$allocator@U?$pair@$$CBKPAVCTPlayer@@@std@@@3@@std@@U?$less@G@2@V?$allocator@U?$pair@$$CBGV?$map@KPAVCTPlayer@@U?$less@K@std@@V?$allocator@U?$pair@$$CBKPAVCTPlayer@@@std@@@3@@std@@@std@@@2@$0A@@std@@@std@@KAAAPAU_Node@?$_Tree_nod@V?$_Tmap_traits@GV?$map@KPAVCTPlayer@@U?$less@K@std@@V?$allocator@U?$pair@$$CBKPAVCTPlayer@@@std@@@3@@std@@U?$less@G@2@V?$allocator@U?$pair@$$CBGV?$map@KPAVCTPlayer@@U?$less@K@std@@V?$allocator@U?$pair@$$CBKPAVCTPlayer@@@std@@@3@@std@@@std@@@2@$0A@@std@@@2@PAU342@@Z ; std::_Tree<std::_Tmap_traits<unsigned short,std::map<unsigned long,CTPlayer *,std::less<unsigned long>,std::allocator<std::pair<unsigned long const ,CTPlayer *> > >,std::less<unsigned short>,std::allocator<std::pair<unsigned short const ,std::map<unsigned long,CTPlayer *,std::less<unsigned long>,std::allocator<std::pair<unsigned long const ,CTPlayer *> > > > >,0> >::_Left
; Function compile flags: /Ogty
;	COMDAT ?_Left@?$_Tree@V?$_Tmap_traits@GV?$map@KPAVCTPlayer@@U?$less@K@std@@V?$allocator@U?$pair@$$CBKPAVCTPlayer@@@std@@@3@@std@@U?$less@G@2@V?$allocator@U?$pair@$$CBGV?$map@KPAVCTPlayer@@U?$less@K@std@@V?$allocator@U?$pair@$$CBKPAVCTPlayer@@@std@@@3@@std@@@std@@@2@$0A@@std@@@std@@KAAAPAU_Node@?$_Tree_nod@V?$_Tmap_traits@GV?$map@KPAVCTPlayer@@U?$less@K@std@@V?$allocator@U?$pair@$$CBKPAVCTPlayer@@@std@@@3@@std@@U?$less@G@2@V?$allocator@U?$pair@$$CBGV?$map@KPAVCTPlayer@@U?$less@K@std@@V?$allocator@U?$pair@$$CBKPAVCTPlayer@@@std@@@3@@std@@@std@@@2@$0A@@std@@@2@PAU342@@Z
_TEXT	SEGMENT
__Pnode$ = 8						; size = 4
?_Left@?$_Tree@V?$_Tmap_traits@GV?$map@KPAVCTPlayer@@U?$less@K@std@@V?$allocator@U?$pair@$$CBKPAVCTPlayer@@@std@@@3@@std@@U?$less@G@2@V?$allocator@U?$pair@$$CBGV?$map@KPAVCTPlayer@@U?$less@K@std@@V?$allocator@U?$pair@$$CBKPAVCTPlayer@@@std@@@3@@std@@@std@@@2@$0A@@std@@@std@@KAAAPAU_Node@?$_Tree_nod@V?$_Tmap_traits@GV?$map@KPAVCTPlayer@@U?$less@K@std@@V?$allocator@U?$pair@$$CBKPAVCTPlayer@@@std@@@3@@std@@U?$less@G@2@V?$allocator@U?$pair@$$CBGV?$map@KPAVCTPlayer@@U?$less@K@std@@V?$allocator@U?$pair@$$CBKPAVCTPlayer@@@std@@@3@@std@@@std@@@2@$0A@@std@@@2@PAU342@@Z PROC NEAR ; std::_Tree<std::_Tmap_traits<unsigned short,std::map<unsigned long,CTPlayer *,std::less<unsigned long>,std::allocator<std::pair<unsigned long const ,CTPlayer *> > >,std::less<unsigned short>,std::allocator<std::pair<unsigned short const ,std::map<unsigned long,CTPlayer *,std::less<unsigned long>,std::allocator<std::pair<unsigned long const ,CTPlayer *> > > > >,0> >::_Left, COMDAT

; 147  : 		return ((_Nodepref)(*_Pnode)._Left);

  00000	8b 44 24 04	 mov	 eax, DWORD PTR __Pnode$[esp-4]

; 148  : 		}

  00004	c3		 ret	 0
?_Left@?$_Tree@V?$_Tmap_traits@GV?$map@KPAVCTPlayer@@U?$less@K@std@@V?$allocator@U?$pair@$$CBKPAVCTPlayer@@@std@@@3@@std@@U?$less@G@2@V?$allocator@U?$pair@$$CBGV?$map@KPAVCTPlayer@@U?$less@K@std@@V?$allocator@U?$pair@$$CBKPAVCTPlayer@@@std@@@3@@std@@@std@@@2@$0A@@std@@@std@@KAAAPAU_Node@?$_Tree_nod@V?$_Tmap_traits@GV?$map@KPAVCTPlayer@@U?$less@K@std@@V?$allocator@U?$pair@$$CBKPAVCTPlayer@@@std@@@3@@std@@U?$less@G@2@V?$allocator@U?$pair@$$CBGV?$map@KPAVCTPlayer@@U?$less@K@std@@V?$allocator@U?$pair@$$CBKPAVCTPlayer@@@std@@@3@@std@@@std@@@2@$0A@@std@@@2@PAU342@@Z ENDP ; std::_Tree<std::_Tmap_traits<unsigned short,std::map<unsigned long,CTPlayer *,std::less<unsigned long>,std::allocator<std::pair<unsigned long const ,CTPlayer *> > >,std::less<unsigned short>,std::allocator<std::pair<unsigned short const ,std::map<unsigned long,CTPlayer *,std::less<unsigned long>,std::allocator<std::pair<unsigned long const ,CTPlayer *> > > > >,0> >::_Left
_TEXT	ENDS
PUBLIC	?_Right@?$_Tree@V?$_Tmap_traits@GV?$map@KPAVCTPlayer@@U?$less@K@std@@V?$allocator@U?$pair@$$CBKPAVCTPlayer@@@std@@@3@@std@@U?$less@G@2@V?$allocator@U?$pair@$$CBGV?$map@KPAVCTPlayer@@U?$less@K@std@@V?$allocator@U?$pair@$$CBKPAVCTPlayer@@@std@@@3@@std@@@std@@@2@$0A@@std@@@std@@KAAAPAU_Node@?$_Tree_nod@V?$_Tmap_traits@GV?$map@KPAVCTPlayer@@U?$less@K@std@@V?$allocator@U?$pair@$$CBKPAVCTPlayer@@@std@@@3@@std@@U?$less@G@2@V?$allocator@U?$pair@$$CBGV?$map@KPAVCTPlayer@@U?$less@K@std@@V?$allocator@U?$pair@$$CBKPAVCTPlayer@@@std@@@3@@std@@@std@@@2@$0A@@std@@@2@PAU342@@Z ; std::_Tree<std::_Tmap_traits<unsigned short,std::map<unsigned long,CTPlayer *,std::less<unsigned long>,std::allocator<std::pair<unsigned long const ,CTPlayer *> > >,std::less<unsigned short>,std::allocator<std::pair<unsigned short const ,std::map<unsigned long,CTPlayer *,std::less<unsigned long>,std::allocator<std::pair<unsigned long const ,CTPlayer *> > > > >,0> >::_Right
; Function compile flags: /Ogty
;	COMDAT ?_Right@?$_Tree@V?$_Tmap_traits@GV?$map@KPAVCTPlayer@@U?$less@K@std@@V?$allocator@U?$pair@$$CBKPAVCTPlayer@@@std@@@3@@std@@U?$less@G@2@V?$allocator@U?$pair@$$CBGV?$map@KPAVCTPlayer@@U?$less@K@std@@V?$allocator@U?$pair@$$CBKPAVCTPlayer@@@std@@@3@@std@@@std@@@2@$0A@@std@@@std@@KAAAPAU_Node@?$_Tree_nod@V?$_Tmap_traits@GV?$map@KPAVCTPlayer@@U?$less@K@std@@V?$allocator@U?$pair@$$CBKPAVCTPlayer@@@std@@@3@@std@@U?$less@G@2@V?$allocator@U?$pair@$$CBGV?$map@KPAVCTPlayer@@U?$less@K@std@@V?$allocator@U?$pair@$$CBKPAVCTPlayer@@@std@@@3@@std@@@std@@@2@$0A@@std@@@2@PAU342@@Z
_TEXT	SEGMENT
__Pnode$ = 8						; size = 4
?_Right@?$_Tree@V?$_Tmap_traits@GV?$map@KPAVCTPlayer@@U?$less@K@std@@V?$allocator@U?$pair@$$CBKPAVCTPlayer@@@std@@@3@@std@@U?$less@G@2@V?$allocator@U?$pair@$$CBGV?$map@KPAVCTPlayer@@U?$less@K@std@@V?$allocator@U?$pair@$$CBKPAVCTPlayer@@@std@@@3@@std@@@std@@@2@$0A@@std@@@std@@KAAAPAU_Node@?$_Tree_nod@V?$_Tmap_traits@GV?$map@KPAVCTPlayer@@U?$less@K@std@@V?$allocator@U?$pair@$$CBKPAVCTPlayer@@@std@@@3@@std@@U?$less@G@2@V?$allocator@U?$pair@$$CBGV?$map@KPAVCTPlayer@@U?$less@K@std@@V?$allocator@U?$pair@$$CBKPAVCTPlayer@@@std@@@3@@std@@@std@@@2@$0A@@std@@@2@PAU342@@Z PROC NEAR ; std::_Tree<std::_Tmap_traits<unsigned short,std::map<unsigned long,CTPlayer *,std::less<unsigned long>,std::allocator<std::pair<unsigned long const ,CTPlayer *> > >,std::less<unsigned short>,std::allocator<std::pair<unsigned short const ,std::map<unsigned long,CTPlayer *,std::less<unsigned long>,std::allocator<std::pair<unsigned long const ,CTPlayer *> > > > >,0> >::_Right, COMDAT

; 157  : 		return ((_Nodepref)(*_Pnode)._Right);

  00000	8b 44 24 04	 mov	 eax, DWORD PTR __Pnode$[esp-4]
  00004	83 c0 08	 add	 eax, 8

; 158  : 		}

  00007	c3		 ret	 0
?_Right@?$_Tree@V?$_Tmap_traits@GV?$map@KPAVCTPlayer@@U?$less@K@std@@V?$allocator@U?$pair@$$CBKPAVCTPlayer@@@std@@@3@@std@@U?$less@G@2@V?$allocator@U?$pair@$$CBGV?$map@KPAVCTPlayer@@U?$less@K@std@@V?$allocator@U?$pair@$$CBKPAVCTPlayer@@@std@@@3@@std@@@std@@@2@$0A@@std@@@std@@KAAAPAU_Node@?$_Tree_nod@V?$_Tmap_traits@GV?$map@KPAVCTPlayer@@U?$less@K@std@@V?$allocator@U?$pair@$$CBKPAVCTPlayer@@@std@@@3@@std@@U?$less@G@2@V?$allocator@U?$pair@$$CBGV?$map@KPAVCTPlayer@@U?$less@K@std@@V?$allocator@U?$pair@$$CBKPAVCTPlayer@@@std@@@3@@std@@@std@@@2@$0A@@std@@@2@PAU342@@Z ENDP ; std::_Tree<std::_Tmap_traits<unsigned short,std::map<unsigned long,CTPlayer *,std::less<unsigned long>,std::allocator<std::pair<unsigned long const ,CTPlayer *> > >,std::less<unsigned short>,std::allocator<std::pair<unsigned short const ,std::map<unsigned long,CTPlayer *,std::less<unsigned long>,std::allocator<std::pair<unsigned long const ,CTPlayer *> > > > >,0> >::_Right
_TEXT	ENDS
PUBLIC	??0const_iterator@?$vector@KV?$allocator@K@std@@@std@@QAE@PAK@Z ; std::vector<unsigned long,std::allocator<unsigned long> >::const_iterator::const_iterator
; Function compile flags: /Ogty
; File c:\program files (x86)\microsoft visual studio .net 2003\vc7\include\vector
;	COMDAT ??0const_iterator@?$vector@KV?$allocator@K@std@@@std@@QAE@PAK@Z
_TEXT	SEGMENT
__Ptr$ = 8						; size = 4
??0const_iterator@?$vector@KV?$allocator@K@std@@@std@@QAE@PAK@Z PROC NEAR ; std::vector<unsigned long,std::allocator<unsigned long> >::const_iterator::const_iterator, COMDAT
; _this$ = ecx

; 73   : 		const_iterator(_Tptr _Ptr)

  00000	8b c1		 mov	 eax, ecx

; 74   : 			{	// construct with pointer _Ptr
; 75   : 			_Myptr = _Ptr;

  00002	8b 4c 24 04	 mov	 ecx, DWORD PTR __Ptr$[esp-4]
  00006	89 08		 mov	 DWORD PTR [eax], ecx

; 76   : 			}

  00008	c2 04 00	 ret	 4
??0const_iterator@?$vector@KV?$allocator@K@std@@@std@@QAE@PAK@Z ENDP ; std::vector<unsigned long,std::allocator<unsigned long> >::const_iterator::const_iterator
_TEXT	ENDS
PUBLIC	??0_Node@?$_Tree_nod@V?$_Tmap_traits@KPAVCTPlayer@@U?$less@K@std@@V?$allocator@U?$pair@$$CBKPAVCTPlayer@@@std@@@3@$0A@@std@@@std@@QAE@PAU012@00ABU?$pair@$$CBKPAVCTPlayer@@@2@D@Z ; std::_Tree_nod<std::_Tmap_traits<unsigned long,CTPlayer *,std::less<unsigned long>,std::allocator<std::pair<unsigned long const ,CTPlayer *> >,0> >::_Node::_Node
; Function compile flags: /Ogty
; File c:\program files (x86)\microsoft visual studio .net 2003\vc7\include\xtree
;	COMDAT ??0_Node@?$_Tree_nod@V?$_Tmap_traits@KPAVCTPlayer@@U?$less@K@std@@V?$allocator@U?$pair@$$CBKPAVCTPlayer@@@std@@@3@$0A@@std@@@std@@QAE@PAU012@00ABU?$pair@$$CBKPAVCTPlayer@@@2@D@Z
_TEXT	SEGMENT
__Larg$ = 8						; size = 4
__Parg$ = 12						; size = 4
__Rarg$ = 16						; size = 4
__Val$ = 20						; size = 4
__Carg$ = 24						; size = 1
??0_Node@?$_Tree_nod@V?$_Tmap_traits@KPAVCTPlayer@@U?$less@K@std@@V?$allocator@U?$pair@$$CBKPAVCTPlayer@@@std@@@3@$0A@@std@@@std@@QAE@PAU012@00ABU?$pair@$$CBKPAVCTPlayer@@@2@D@Z PROC NEAR ; std::_Tree_nod<std::_Tmap_traits<unsigned long,CTPlayer *,std::less<unsigned long>,std::allocator<std::pair<unsigned long const ,CTPlayer *> >,0> >::_Node::_Node, COMDAT
; _this$ = ecx

; 40   : 			{	// construct a node with value

  00000	8b 54 24 08	 mov	 edx, DWORD PTR __Parg$[esp-4]
  00004	8b c1		 mov	 eax, ecx
  00006	8b 4c 24 04	 mov	 ecx, DWORD PTR __Larg$[esp-4]
  0000a	89 08		 mov	 DWORD PTR [eax], ecx
  0000c	8b 4c 24 0c	 mov	 ecx, DWORD PTR __Rarg$[esp-4]
  00010	89 48 08	 mov	 DWORD PTR [eax+8], ecx
  00013	8b 4c 24 10	 mov	 ecx, DWORD PTR __Val$[esp-4]
  00017	89 50 04	 mov	 DWORD PTR [eax+4], edx
  0001a	8b 11		 mov	 edx, DWORD PTR [ecx]
  0001c	89 50 0c	 mov	 DWORD PTR [eax+12], edx
  0001f	8b 49 04	 mov	 ecx, DWORD PTR [ecx+4]
  00022	8a 54 24 14	 mov	 dl, BYTE PTR __Carg$[esp-4]
  00026	89 48 10	 mov	 DWORD PTR [eax+16], ecx
  00029	88 50 14	 mov	 BYTE PTR [eax+20], dl
  0002c	c6 40 15 00	 mov	 BYTE PTR [eax+21], 0

; 41   : 			}

  00030	c2 14 00	 ret	 20			; 00000014H
??0_Node@?$_Tree_nod@V?$_Tmap_traits@KPAVCTPlayer@@U?$less@K@std@@V?$allocator@U?$pair@$$CBKPAVCTPlayer@@@std@@@3@$0A@@std@@@std@@QAE@PAU012@00ABU?$pair@$$CBKPAVCTPlayer@@@2@D@Z ENDP ; std::_Tree_nod<std::_Tmap_traits<unsigned long,CTPlayer *,std::less<unsigned long>,std::allocator<std::pair<unsigned long const ,CTPlayer *> >,0> >::_Node::_Node
_TEXT	ENDS
PUBLIC	?_Parent@?$_Tree@V?$_Tmap_traits@V?$CStringT@DV?$StrTraitATL@DV?$ChTraitsCRT@D@ATL@@@ATL@@@ATL@@EU?$less@V?$CStringT@DV?$StrTraitATL@DV?$ChTraitsCRT@D@ATL@@@ATL@@@ATL@@@std@@V?$allocator@U?$pair@$$CBV?$CStringT@DV?$StrTraitATL@DV?$ChTraitsCRT@D@ATL@@@ATL@@@ATL@@E@std@@@4@$0A@@std@@@std@@KAAAPAU_Node@?$_Tree_nod@V?$_Tmap_traits@V?$CStringT@DV?$StrTraitATL@DV?$ChTraitsCRT@D@ATL@@@ATL@@@ATL@@EU?$less@V?$CStringT@DV?$StrTraitATL@DV?$ChTraitsCRT@D@ATL@@@ATL@@@ATL@@@std@@V?$allocator@U?$pair@$$CBV?$CStringT@DV?$StrTraitATL@DV?$ChTraitsCRT@D@ATL@@@ATL@@@ATL@@E@std@@@4@$0A@@std@@@2@PAU342@@Z ; std::_Tree<std::_Tmap_traits<ATL::CStringT<char,ATL::StrTraitATL<char,ATL::ChTraitsCRT<char> > >,unsigned char,std::less<ATL::CStringT<char,ATL::StrTraitATL<char,ATL::ChTraitsCRT<char> > > >,std::allocator<std::pair<ATL::CStringT<char,ATL::StrTraitATL<char,ATL::ChTraitsCRT<char> > > const ,unsigned char> >,0> >::_Parent
; Function compile flags: /Ogty
;	COMDAT ?_Parent@?$_Tree@V?$_Tmap_traits@V?$CStringT@DV?$StrTraitATL@DV?$ChTraitsCRT@D@ATL@@@ATL@@@ATL@@EU?$less@V?$CStringT@DV?$StrTraitATL@DV?$ChTraitsCRT@D@ATL@@@ATL@@@ATL@@@std@@V?$allocator@U?$pair@$$CBV?$CStringT@DV?$StrTraitATL@DV?$ChTraitsCRT@D@ATL@@@ATL@@@ATL@@E@std@@@4@$0A@@std@@@std@@KAAAPAU_Node@?$_Tree_nod@V?$_Tmap_traits@V?$CStringT@DV?$StrTraitATL@DV?$ChTraitsCRT@D@ATL@@@ATL@@@ATL@@EU?$less@V?$CStringT@DV?$StrTraitATL@DV?$ChTraitsCRT@D@ATL@@@ATL@@@ATL@@@std@@V?$allocator@U?$pair@$$CBV?$CStringT@DV?$StrTraitATL@DV?$ChTraitsCRT@D@ATL@@@ATL@@@ATL@@E@std@@@4@$0A@@std@@@2@PAU342@@Z
_TEXT	SEGMENT
__Pnode$ = 8						; size = 4
?_Parent@?$_Tree@V?$_Tmap_traits@V?$CStringT@DV?$StrTraitATL@DV?$ChTraitsCRT@D@ATL@@@ATL@@@ATL@@EU?$less@V?$CStringT@DV?$StrTraitATL@DV?$ChTraitsCRT@D@ATL@@@ATL@@@ATL@@@std@@V?$allocator@U?$pair@$$CBV?$CStringT@DV?$StrTraitATL@DV?$ChTraitsCRT@D@ATL@@@ATL@@@ATL@@E@std@@@4@$0A@@std@@@std@@KAAAPAU_Node@?$_Tree_nod@V?$_Tmap_traits@V?$CStringT@DV?$StrTraitATL@DV?$ChTraitsCRT@D@ATL@@@ATL@@@ATL@@EU?$less@V?$CStringT@DV?$StrTraitATL@DV?$ChTraitsCRT@D@ATL@@@ATL@@@ATL@@@std@@V?$allocator@U?$pair@$$CBV?$CStringT@DV?$StrTraitATL@DV?$ChTraitsCRT@D@ATL@@@ATL@@@ATL@@E@std@@@4@$0A@@std@@@2@PAU342@@Z PROC NEAR ; std::_Tree<std::_Tmap_traits<ATL::CStringT<char,ATL::StrTraitATL<char,ATL::ChTraitsCRT<char> > >,unsigned char,std::less<ATL::CStringT<char,ATL::StrTraitATL<char,ATL::ChTraitsCRT<char> > > >,std::allocator<std::pair<ATL::CStringT<char,ATL::StrTraitATL<char,ATL::ChTraitsCRT<char> > > const ,unsigned char> >,0> >::_Parent, COMDAT

; 152  : 		return ((_Nodepref)(*_Pnode)._Parent);

  00000	8b 44 24 04	 mov	 eax, DWORD PTR __Pnode$[esp-4]
  00004	83 c0 04	 add	 eax, 4

; 153  : 		}

  00007	c3		 ret	 0
?_Parent@?$_Tree@V?$_Tmap_traits@V?$CStringT@DV?$StrTraitATL@DV?$ChTraitsCRT@D@ATL@@@ATL@@@ATL@@EU?$less@V?$CStringT@DV?$StrTraitATL@DV?$ChTraitsCRT@D@ATL@@@ATL@@@ATL@@@std@@V?$allocator@U?$pair@$$CBV?$CStringT@DV?$StrTraitATL@DV?$ChTraitsCRT@D@ATL@@@ATL@@@ATL@@E@std@@@4@$0A@@std@@@std@@KAAAPAU_Node@?$_Tree_nod@V?$_Tmap_traits@V?$CStringT@DV?$StrTraitATL@DV?$ChTraitsCRT@D@ATL@@@ATL@@@ATL@@EU?$less@V?$CStringT@DV?$StrTraitATL@DV?$ChTraitsCRT@D@ATL@@@ATL@@@ATL@@@std@@V?$allocator@U?$pair@$$CBV?$CStringT@DV?$StrTraitATL@DV?$ChTraitsCRT@D@ATL@@@ATL@@@ATL@@E@std@@@4@$0A@@std@@@2@PAU342@@Z ENDP ; std::_Tree<std::_Tmap_traits<ATL::CStringT<char,ATL::StrTraitATL<char,ATL::ChTraitsCRT<char> > >,unsigned char,std::less<ATL::CStringT<char,ATL::StrTraitATL<char,ATL::ChTraitsCRT<char> > > >,std::allocator<std::pair<ATL::CStringT<char,ATL::StrTraitATL<char,ATL::ChTraitsCRT<char> > > const ,unsigned char> >,0> >::_Parent
_TEXT	ENDS
PUBLIC	?_Max@?$_Tree@V?$_Tmap_traits@KPAVCTPlayer@@U?$less@K@std@@V?$allocator@U?$pair@$$CBKPAVCTPlayer@@@std@@@3@$0A@@std@@@std@@KAPAU_Node@?$_Tree_nod@V?$_Tmap_traits@KPAVCTPlayer@@U?$less@K@std@@V?$allocator@U?$pair@$$CBKPAVCTPlayer@@@std@@@3@$0A@@std@@@2@PAU342@@Z ; std::_Tree<std::_Tmap_traits<unsigned long,CTPlayer *,std::less<unsigned long>,std::allocator<std::pair<unsigned long const ,CTPlayer *> >,0> >::_Max
; Function compile flags: /Ogty
;	COMDAT ?_Max@?$_Tree@V?$_Tmap_traits@KPAVCTPlayer@@U?$less@K@std@@V?$allocator@U?$pair@$$CBKPAVCTPlayer@@@std@@@3@$0A@@std@@@std@@KAPAU_Node@?$_Tree_nod@V?$_Tmap_traits@KPAVCTPlayer@@U?$less@K@std@@V?$allocator@U?$pair@$$CBKPAVCTPlayer@@@std@@@3@$0A@@std@@@2@PAU342@@Z
_TEXT	SEGMENT
__Pnode$ = 8						; size = 4
?_Max@?$_Tree@V?$_Tmap_traits@KPAVCTPlayer@@U?$less@K@std@@V?$allocator@U?$pair@$$CBKPAVCTPlayer@@@std@@@3@$0A@@std@@@std@@KAPAU_Node@?$_Tree_nod@V?$_Tmap_traits@KPAVCTPlayer@@U?$less@K@std@@V?$allocator@U?$pair@$$CBKPAVCTPlayer@@@std@@@3@$0A@@std@@@2@PAU342@@Z PROC NEAR ; std::_Tree<std::_Tmap_traits<unsigned long,CTPlayer *,std::less<unsigned long>,std::allocator<std::pair<unsigned long const ,CTPlayer *> >,0> >::_Max, COMDAT

; 1035 : 		while (!_Isnil(_Right(_Pnode)))

  00000	8b 44 24 04	 mov	 eax, DWORD PTR __Pnode$[esp-4]
  00004	8b 48 08	 mov	 ecx, DWORD PTR [eax+8]
  00007	8a 51 15	 mov	 dl, BYTE PTR [ecx+21]
  0000a	84 d2		 test	 dl, dl
  0000c	75 0e		 jne	 SHORT $L109136
  0000e	8b ff		 npad	 2
$L109135:

; 1036 : 			_Pnode = _Right(_Pnode);

  00010	8b c1		 mov	 eax, ecx
  00012	8b 48 08	 mov	 ecx, DWORD PTR [eax+8]
  00015	8a 51 15	 mov	 dl, BYTE PTR [ecx+21]
  00018	84 d2		 test	 dl, dl
  0001a	74 f4		 je	 SHORT $L109135
$L109136:

; 1037 : 		return (_Pnode);
; 1038 : 		}

  0001c	c3		 ret	 0
?_Max@?$_Tree@V?$_Tmap_traits@KPAVCTPlayer@@U?$less@K@std@@V?$allocator@U?$pair@$$CBKPAVCTPlayer@@@std@@@3@$0A@@std@@@std@@KAPAU_Node@?$_Tree_nod@V?$_Tmap_traits@KPAVCTPlayer@@U?$less@K@std@@V?$allocator@U?$pair@$$CBKPAVCTPlayer@@@std@@@3@$0A@@std@@@2@PAU342@@Z ENDP ; std::_Tree<std::_Tmap_traits<unsigned long,CTPlayer *,std::less<unsigned long>,std::allocator<std::pair<unsigned long const ,CTPlayer *> >,0> >::_Max
_TEXT	ENDS
PUBLIC	?_Min@?$_Tree@V?$_Tmap_traits@KPAVCTPlayer@@U?$less@K@std@@V?$allocator@U?$pair@$$CBKPAVCTPlayer@@@std@@@3@$0A@@std@@@std@@KAPAU_Node@?$_Tree_nod@V?$_Tmap_traits@KPAVCTPlayer@@U?$less@K@std@@V?$allocator@U?$pair@$$CBKPAVCTPlayer@@@std@@@3@$0A@@std@@@2@PAU342@@Z ; std::_Tree<std::_Tmap_traits<unsigned long,CTPlayer *,std::less<unsigned long>,std::allocator<std::pair<unsigned long const ,CTPlayer *> >,0> >::_Min
; Function compile flags: /Ogty
;	COMDAT ?_Min@?$_Tree@V?$_Tmap_traits@KPAVCTPlayer@@U?$less@K@std@@V?$allocator@U?$pair@$$CBKPAVCTPlayer@@@std@@@3@$0A@@std@@@std@@KAPAU_Node@?$_Tree_nod@V?$_Tmap_traits@KPAVCTPlayer@@U?$less@K@std@@V?$allocator@U?$pair@$$CBKPAVCTPlayer@@@std@@@3@$0A@@std@@@2@PAU342@@Z
_TEXT	SEGMENT
__Pnode$ = 8						; size = 4
?_Min@?$_Tree@V?$_Tmap_traits@KPAVCTPlayer@@U?$less@K@std@@V?$allocator@U?$pair@$$CBKPAVCTPlayer@@@std@@@3@$0A@@std@@@std@@KAPAU_Node@?$_Tree_nod@V?$_Tmap_traits@KPAVCTPlayer@@U?$less@K@std@@V?$allocator@U?$pair@$$CBKPAVCTPlayer@@@std@@@3@$0A@@std@@@2@PAU342@@Z PROC NEAR ; std::_Tree<std::_Tmap_traits<unsigned long,CTPlayer *,std::less<unsigned long>,std::allocator<std::pair<unsigned long const ,CTPlayer *> >,0> >::_Min, COMDAT

; 1042 : 		while (!_Isnil(_Left(_Pnode)))

  00000	8b 44 24 04	 mov	 eax, DWORD PTR __Pnode$[esp-4]
  00004	8b 08		 mov	 ecx, DWORD PTR [eax]
  00006	8a 51 15	 mov	 dl, BYTE PTR [ecx+21]
  00009	84 d2		 test	 dl, dl
  0000b	75 0e		 jne	 SHORT $L109140
  0000d	8d 49 00	 npad	 3
$L109139:

; 1043 : 			_Pnode = _Left(_Pnode);

  00010	8b c1		 mov	 eax, ecx
  00012	8b 08		 mov	 ecx, DWORD PTR [eax]
  00014	8a 51 15	 mov	 dl, BYTE PTR [ecx+21]
  00017	84 d2		 test	 dl, dl
  00019	74 f5		 je	 SHORT $L109139
$L109140:

; 1044 : 		return (_Pnode);
; 1045 : 		}

  0001b	c3		 ret	 0
?_Min@?$_Tree@V?$_Tmap_traits@KPAVCTPlayer@@U?$less@K@std@@V?$allocator@U?$pair@$$CBKPAVCTPlayer@@@std@@@3@$0A@@std@@@std@@KAPAU_Node@?$_Tree_nod@V?$_Tmap_traits@KPAVCTPlayer@@U?$less@K@std@@V?$allocator@U?$pair@$$CBKPAVCTPlayer@@@std@@@3@$0A@@std@@@2@PAU342@@Z ENDP ; std::_Tree<std::_Tmap_traits<unsigned long,CTPlayer *,std::less<unsigned long>,std::allocator<std::pair<unsigned long const ,CTPlayer *> >,0> >::_Min
_TEXT	ENDS
PUBLIC	?_Isnil@?$_Tree@V?$_Tmap_traits@GPAVCTParty@@U?$less@G@std@@V?$allocator@U?$pair@$$CBGPAVCTParty@@@std@@@3@$0A@@std@@@std@@KAAADPAU_Node@?$_Tree_nod@V?$_Tmap_traits@GPAVCTParty@@U?$less@G@std@@V?$allocator@U?$pair@$$CBGPAVCTParty@@@std@@@3@$0A@@std@@@2@@Z ; std::_Tree<std::_Tmap_traits<unsigned short,CTParty *,std::less<unsigned short>,std::allocator<std::pair<unsigned short const ,CTParty *> >,0> >::_Isnil
; Function compile flags: /Ogty
;	COMDAT ?_Isnil@?$_Tree@V?$_Tmap_traits@GPAVCTParty@@U?$less@G@std@@V?$allocator@U?$pair@$$CBGPAVCTParty@@@std@@@3@$0A@@std@@@std@@KAAADPAU_Node@?$_Tree_nod@V?$_Tmap_traits@GPAVCTParty@@U?$less@G@std@@V?$allocator@U?$pair@$$CBGPAVCTParty@@@std@@@3@$0A@@std@@@2@@Z
_TEXT	SEGMENT
__Pnode$ = 8						; size = 4
?_Isnil@?$_Tree@V?$_Tmap_traits@GPAVCTParty@@U?$less@G@std@@V?$allocator@U?$pair@$$CBGPAVCTParty@@@std@@@3@$0A@@std@@@std@@KAAADPAU_Node@?$_Tree_nod@V?$_Tmap_traits@GPAVCTParty@@U?$less@G@std@@V?$allocator@U?$pair@$$CBGPAVCTParty@@@std@@@3@$0A@@std@@@2@@Z PROC NEAR ; std::_Tree<std::_Tmap_traits<unsigned short,CTParty *,std::less<unsigned short>,std::allocator<std::pair<unsigned short const ,CTParty *> >,0> >::_Isnil, COMDAT

; 137  : 		return ((_Charref)(*_Pnode)._Isnil);

  00000	8b 44 24 04	 mov	 eax, DWORD PTR __Pnode$[esp-4]
  00004	83 c0 15	 add	 eax, 21			; 00000015H

; 138  : 		}

  00007	c3		 ret	 0
?_Isnil@?$_Tree@V?$_Tmap_traits@GPAVCTParty@@U?$less@G@std@@V?$allocator@U?$pair@$$CBGPAVCTParty@@@std@@@3@$0A@@std@@@std@@KAAADPAU_Node@?$_Tree_nod@V?$_Tmap_traits@GPAVCTParty@@U?$less@G@std@@V?$allocator@U?$pair@$$CBGPAVCTParty@@@std@@@3@$0A@@std@@@2@@Z ENDP ; std::_Tree<std::_Tmap_traits<unsigned short,CTParty *,std::less<unsigned short>,std::allocator<std::pair<unsigned short const ,CTParty *> >,0> >::_Isnil
_TEXT	ENDS
PUBLIC	?_Parent@?$_Tree@V?$_Tmap_traits@GPAVCTParty@@U?$less@G@std@@V?$allocator@U?$pair@$$CBGPAVCTParty@@@std@@@3@$0A@@std@@@std@@KAAAPAU_Node@?$_Tree_nod@V?$_Tmap_traits@GPAVCTParty@@U?$less@G@std@@V?$allocator@U?$pair@$$CBGPAVCTParty@@@std@@@3@$0A@@std@@@2@PAU342@@Z ; std::_Tree<std::_Tmap_traits<unsigned short,CTParty *,std::less<unsigned short>,std::allocator<std::pair<unsigned short const ,CTParty *> >,0> >::_Parent
; Function compile flags: /Ogty
;	COMDAT ?_Parent@?$_Tree@V?$_Tmap_traits@GPAVCTParty@@U?$less@G@std@@V?$allocator@U?$pair@$$CBGPAVCTParty@@@std@@@3@$0A@@std@@@std@@KAAAPAU_Node@?$_Tree_nod@V?$_Tmap_traits@GPAVCTParty@@U?$less@G@std@@V?$allocator@U?$pair@$$CBGPAVCTParty@@@std@@@3@$0A@@std@@@2@PAU342@@Z
_TEXT	SEGMENT
__Pnode$ = 8						; size = 4
?_Parent@?$_Tree@V?$_Tmap_traits@GPAVCTParty@@U?$less@G@std@@V?$allocator@U?$pair@$$CBGPAVCTParty@@@std@@@3@$0A@@std@@@std@@KAAAPAU_Node@?$_Tree_nod@V?$_Tmap_traits@GPAVCTParty@@U?$less@G@std@@V?$allocator@U?$pair@$$CBGPAVCTParty@@@std@@@3@$0A@@std@@@2@PAU342@@Z PROC NEAR ; std::_Tree<std::_Tmap_traits<unsigned short,CTParty *,std::less<unsigned short>,std::allocator<std::pair<unsigned short const ,CTParty *> >,0> >::_Parent, COMDAT

; 152  : 		return ((_Nodepref)(*_Pnode)._Parent);

  00000	8b 44 24 04	 mov	 eax, DWORD PTR __Pnode$[esp-4]
  00004	83 c0 04	 add	 eax, 4

; 153  : 		}

  00007	c3		 ret	 0
?_Parent@?$_Tree@V?$_Tmap_traits@GPAVCTParty@@U?$less@G@std@@V?$allocator@U?$pair@$$CBGPAVCTParty@@@std@@@3@$0A@@std@@@std@@KAAAPAU_Node@?$_Tree_nod@V?$_Tmap_traits@GPAVCTParty@@U?$less@G@std@@V?$allocator@U?$pair@$$CBGPAVCTParty@@@std@@@3@$0A@@std@@@2@PAU342@@Z ENDP ; std::_Tree<std::_Tmap_traits<unsigned short,CTParty *,std::less<unsigned short>,std::allocator<std::pair<unsigned short const ,CTParty *> >,0> >::_Parent
_TEXT	ENDS
PUBLIC	?_Right@?$_Tree@V?$_Tmap_traits@GPAVCTParty@@U?$less@G@std@@V?$allocator@U?$pair@$$CBGPAVCTParty@@@std@@@3@$0A@@std@@@std@@KAAAPAU_Node@?$_Tree_nod@V?$_Tmap_traits@GPAVCTParty@@U?$less@G@std@@V?$allocator@U?$pair@$$CBGPAVCTParty@@@std@@@3@$0A@@std@@@2@PAU342@@Z ; std::_Tree<std::_Tmap_traits<unsigned short,CTParty *,std::less<unsigned short>,std::allocator<std::pair<unsigned short const ,CTParty *> >,0> >::_Right
; Function compile flags: /Ogty
;	COMDAT ?_Right@?$_Tree@V?$_Tmap_traits@GPAVCTParty@@U?$less@G@std@@V?$allocator@U?$pair@$$CBGPAVCTParty@@@std@@@3@$0A@@std@@@std@@KAAAPAU_Node@?$_Tree_nod@V?$_Tmap_traits@GPAVCTParty@@U?$less@G@std@@V?$allocator@U?$pair@$$CBGPAVCTParty@@@std@@@3@$0A@@std@@@2@PAU342@@Z
_TEXT	SEGMENT
__Pnode$ = 8						; size = 4
?_Right@?$_Tree@V?$_Tmap_traits@GPAVCTParty@@U?$less@G@std@@V?$allocator@U?$pair@$$CBGPAVCTParty@@@std@@@3@$0A@@std@@@std@@KAAAPAU_Node@?$_Tree_nod@V?$_Tmap_traits@GPAVCTParty@@U?$less@G@std@@V?$allocator@U?$pair@$$CBGPAVCTParty@@@std@@@3@$0A@@std@@@2@PAU342@@Z PROC NEAR ; std::_Tree<std::_Tmap_traits<unsigned short,CTParty *,std::less<unsigned short>,std::allocator<std::pair<unsigned short const ,CTParty *> >,0> >::_Right, COMDAT

; 157  : 		return ((_Nodepref)(*_Pnode)._Right);

  00000	8b 44 24 04	 mov	 eax, DWORD PTR __Pnode$[esp-4]
  00004	83 c0 08	 add	 eax, 8

; 158  : 		}

  00007	c3		 ret	 0
?_Right@?$_Tree@V?$_Tmap_traits@GPAVCTParty@@U?$less@G@std@@V?$allocator@U?$pair@$$CBGPAVCTParty@@@std@@@3@$0A@@std@@@std@@KAAAPAU_Node@?$_Tree_nod@V?$_Tmap_traits@GPAVCTParty@@U?$less@G@std@@V?$allocator@U?$pair@$$CBGPAVCTParty@@@std@@@3@$0A@@std@@@2@PAU342@@Z ENDP ; std::_Tree<std::_Tmap_traits<unsigned short,CTParty *,std::less<unsigned short>,std::allocator<std::pair<unsigned short const ,CTParty *> >,0> >::_Right
_TEXT	ENDS
PUBLIC	?_Min@?$_Tree@V?$_Tmap_traits@GPAVCTParty@@U?$less@G@std@@V?$allocator@U?$pair@$$CBGPAVCTParty@@@std@@@3@$0A@@std@@@std@@KAPAU_Node@?$_Tree_nod@V?$_Tmap_traits@GPAVCTParty@@U?$less@G@std@@V?$allocator@U?$pair@$$CBGPAVCTParty@@@std@@@3@$0A@@std@@@2@PAU342@@Z ; std::_Tree<std::_Tmap_traits<unsigned short,CTParty *,std::less<unsigned short>,std::allocator<std::pair<unsigned short const ,CTParty *> >,0> >::_Min
; Function compile flags: /Ogty
;	COMDAT ?_Min@?$_Tree@V?$_Tmap_traits@GPAVCTParty@@U?$less@G@std@@V?$allocator@U?$pair@$$CBGPAVCTParty@@@std@@@3@$0A@@std@@@std@@KAPAU_Node@?$_Tree_nod@V?$_Tmap_traits@GPAVCTParty@@U?$less@G@std@@V?$allocator@U?$pair@$$CBGPAVCTParty@@@std@@@3@$0A@@std@@@2@PAU342@@Z
_TEXT	SEGMENT
__Pnode$ = 8						; size = 4
?_Min@?$_Tree@V?$_Tmap_traits@GPAVCTParty@@U?$less@G@std@@V?$allocator@U?$pair@$$CBGPAVCTParty@@@std@@@3@$0A@@std@@@std@@KAPAU_Node@?$_Tree_nod@V?$_Tmap_traits@GPAVCTParty@@U?$less@G@std@@V?$allocator@U?$pair@$$CBGPAVCTParty@@@std@@@3@$0A@@std@@@2@PAU342@@Z PROC NEAR ; std::_Tree<std::_Tmap_traits<unsigned short,CTParty *,std::less<unsigned short>,std::allocator<std::pair<unsigned short const ,CTParty *> >,0> >::_Min, COMDAT

; 1042 : 		while (!_Isnil(_Left(_Pnode)))

  00000	8b 44 24 04	 mov	 eax, DWORD PTR __Pnode$[esp-4]
  00004	8b 08		 mov	 ecx, DWORD PTR [eax]
  00006	8a 51 15	 mov	 dl, BYTE PTR [ecx+21]
  00009	84 d2		 test	 dl, dl
  0000b	75 0e		 jne	 SHORT $L109150
  0000d	8d 49 00	 npad	 3
$L109149:

; 1043 : 			_Pnode = _Left(_Pnode);

  00010	8b c1		 mov	 eax, ecx
  00012	8b 08		 mov	 ecx, DWORD PTR [eax]
  00014	8a 51 15	 mov	 dl, BYTE PTR [ecx+21]
  00017	84 d2		 test	 dl, dl
  00019	74 f5		 je	 SHORT $L109149
$L109150:

; 1044 : 		return (_Pnode);
; 1045 : 		}

  0001b	c3		 ret	 0
?_Min@?$_Tree@V?$_Tmap_traits@GPAVCTParty@@U?$less@G@std@@V?$allocator@U?$pair@$$CBGPAVCTParty@@@std@@@3@$0A@@std@@@std@@KAPAU_Node@?$_Tree_nod@V?$_Tmap_traits@GPAVCTParty@@U?$less@G@std@@V?$allocator@U?$pair@$$CBGPAVCTParty@@@std@@@3@$0A@@std@@@2@PAU342@@Z ENDP ; std::_Tree<std::_Tmap_traits<unsigned short,CTParty *,std::less<unsigned short>,std::allocator<std::pair<unsigned short const ,CTParty *> >,0> >::_Min
_TEXT	ENDS
PUBLIC	?_Parent@?$_Tree@V?$_Tmap_traits@GV?$map@KPAVCTPlayer@@U?$less@K@std@@V?$allocator@U?$pair@$$CBKPAVCTPlayer@@@std@@@3@@std@@U?$less@G@2@V?$allocator@U?$pair@$$CBGV?$map@KPAVCTPlayer@@U?$less@K@std@@V?$allocator@U?$pair@$$CBKPAVCTPlayer@@@std@@@3@@std@@@std@@@2@$0A@@std@@@std@@KAAAPAU_Node@?$_Tree_nod@V?$_Tmap_traits@GV?$map@KPAVCTPlayer@@U?$less@K@std@@V?$allocator@U?$pair@$$CBKPAVCTPlayer@@@std@@@3@@std@@U?$less@G@2@V?$allocator@U?$pair@$$CBGV?$map@KPAVCTPlayer@@U?$less@K@std@@V?$allocator@U?$pair@$$CBKPAVCTPlayer@@@std@@@3@@std@@@std@@@2@$0A@@std@@@2@PAU342@@Z ; std::_Tree<std::_Tmap_traits<unsigned short,std::map<unsigned long,CTPlayer *,std::less<unsigned long>,std::allocator<std::pair<unsigned long const ,CTPlayer *> > >,std::less<unsigned short>,std::allocator<std::pair<unsigned short const ,std::map<unsigned long,CTPlayer *,std::less<unsigned long>,std::allocator<std::pair<unsigned long const ,CTPlayer *> > > > >,0> >::_Parent
; Function compile flags: /Ogty
;	COMDAT ?_Parent@?$_Tree@V?$_Tmap_traits@GV?$map@KPAVCTPlayer@@U?$less@K@std@@V?$allocator@U?$pair@$$CBKPAVCTPlayer@@@std@@@3@@std@@U?$less@G@2@V?$allocator@U?$pair@$$CBGV?$map@KPAVCTPlayer@@U?$less@K@std@@V?$allocator@U?$pair@$$CBKPAVCTPlayer@@@std@@@3@@std@@@std@@@2@$0A@@std@@@std@@KAAAPAU_Node@?$_Tree_nod@V?$_Tmap_traits@GV?$map@KPAVCTPlayer@@U?$less@K@std@@V?$allocator@U?$pair@$$CBKPAVCTPlayer@@@std@@@3@@std@@U?$less@G@2@V?$allocator@U?$pair@$$CBGV?$map@KPAVCTPlayer@@U?$less@K@std@@V?$allocator@U?$pair@$$CBKPAVCTPlayer@@@std@@@3@@std@@@std@@@2@$0A@@std@@@2@PAU342@@Z
_TEXT	SEGMENT
__Pnode$ = 8						; size = 4
?_Parent@?$_Tree@V?$_Tmap_traits@GV?$map@KPAVCTPlayer@@U?$less@K@std@@V?$allocator@U?$pair@$$CBKPAVCTPlayer@@@std@@@3@@std@@U?$less@G@2@V?$allocator@U?$pair@$$CBGV?$map@KPAVCTPlayer@@U?$less@K@std@@V?$allocator@U?$pair@$$CBKPAVCTPlayer@@@std@@@3@@std@@@std@@@2@$0A@@std@@@std@@KAAAPAU_Node@?$_Tree_nod@V?$_Tmap_traits@GV?$map@KPAVCTPlayer@@U?$less@K@std@@V?$allocator@U?$pair@$$CBKPAVCTPlayer@@@std@@@3@@std@@U?$less@G@2@V?$allocator@U?$pair@$$CBGV?$map@KPAVCTPlayer@@U?$less@K@std@@V?$allocator@U?$pair@$$CBKPAVCTPlayer@@@std@@@3@@std@@@std@@@2@$0A@@std@@@2@PAU342@@Z PROC NEAR ; std::_Tree<std::_Tmap_traits<unsigned short,std::map<unsigned long,CTPlayer *,std::less<unsigned long>,std::allocator<std::pair<unsigned long const ,CTPlayer *> > >,std::less<unsigned short>,std::allocator<std::pair<unsigned short const ,std::map<unsigned long,CTPlayer *,std::less<unsigned long>,std::allocator<std::pair<unsigned long const ,CTPlayer *> > > > >,0> >::_Parent, COMDAT

; 152  : 		return ((_Nodepref)(*_Pnode)._Parent);

  00000	8b 44 24 04	 mov	 eax, DWORD PTR __Pnode$[esp-4]
  00004	83 c0 04	 add	 eax, 4

; 153  : 		}

  00007	c3		 ret	 0
?_Parent@?$_Tree@V?$_Tmap_traits@GV?$map@KPAVCTPlayer@@U?$less@K@std@@V?$allocator@U?$pair@$$CBKPAVCTPlayer@@@std@@@3@@std@@U?$less@G@2@V?$allocator@U?$pair@$$CBGV?$map@KPAVCTPlayer@@U?$less@K@std@@V?$allocator@U?$pair@$$CBKPAVCTPlayer@@@std@@@3@@std@@@std@@@2@$0A@@std@@@std@@KAAAPAU_Node@?$_Tree_nod@V?$_Tmap_traits@GV?$map@KPAVCTPlayer@@U?$less@K@std@@V?$allocator@U?$pair@$$CBKPAVCTPlayer@@@std@@@3@@std@@U?$less@G@2@V?$allocator@U?$pair@$$CBGV?$map@KPAVCTPlayer@@U?$less@K@std@@V?$allocator@U?$pair@$$CBKPAVCTPlayer@@@std@@@3@@std@@@std@@@2@$0A@@std@@@2@PAU342@@Z ENDP ; std::_Tree<std::_Tmap_traits<unsigned short,std::map<unsigned long,CTPlayer *,std::less<unsigned long>,std::allocator<std::pair<unsigned long const ,CTPlayer *> > >,std::less<unsigned short>,std::allocator<std::pair<unsigned short const ,std::map<unsigned long,CTPlayer *,std::less<unsigned long>,std::allocator<std::pair<unsigned long const ,CTPlayer *> > > > >,0> >::_Parent
_TEXT	ENDS
PUBLIC	??$_Allocate@U_Node@?$_Tree_nod@V?$_Tmap_traits@KPAVCTPlayer@@U?$less@K@std@@V?$allocator@U?$pair@$$CBKPAVCTPlayer@@@std@@@3@$0A@@std@@@std@@@std@@YAPAU_Node@?$_Tree_nod@V?$_Tmap_traits@KPAVCTPlayer@@U?$less@K@std@@V?$allocator@U?$pair@$$CBKPAVCTPlayer@@@std@@@3@$0A@@std@@@0@IPAU120@@Z ; std::_Allocate<std::_Tree_nod<std::_Tmap_traits<unsigned long,CTPlayer *,std::less<unsigned long>,std::allocator<std::pair<unsigned long const ,CTPlayer *> >,0> >::_Node>
; Function compile flags: /Ogty
; File c:\program files (x86)\microsoft visual studio .net 2003\vc7\include\xmemory
;	COMDAT ??$_Allocate@U_Node@?$_Tree_nod@V?$_Tmap_traits@KPAVCTPlayer@@U?$less@K@std@@V?$allocator@U?$pair@$$CBKPAVCTPlayer@@@std@@@3@$0A@@std@@@std@@@std@@YAPAU_Node@?$_Tree_nod@V?$_Tmap_traits@KPAVCTPlayer@@U?$less@K@std@@V?$allocator@U?$pair@$$CBKPAVCTPlayer@@@std@@@3@$0A@@std@@@0@IPAU120@@Z
_TEXT	SEGMENT
__Count$ = 8						; size = 4
___formal$ = 12						; size = 4
??$_Allocate@U_Node@?$_Tree_nod@V?$_Tmap_traits@KPAVCTPlayer@@U?$less@K@std@@V?$allocator@U?$pair@$$CBKPAVCTPlayer@@@std@@@3@$0A@@std@@@std@@@std@@YAPAU_Node@?$_Tree_nod@V?$_Tmap_traits@KPAVCTPlayer@@U?$less@K@std@@V?$allocator@U?$pair@$$CBKPAVCTPlayer@@@std@@@3@$0A@@std@@@0@IPAU120@@Z PROC NEAR ; std::_Allocate<std::_Tree_nod<std::_Tmap_traits<unsigned long,CTPlayer *,std::less<unsigned long>,std::allocator<std::pair<unsigned long const ,CTPlayer *> >,0> >::_Node>, COMDAT

; 34   : 	return ((_Ty _FARQ *)operator new(_Count * sizeof (_Ty)));

  00000	8b 44 24 04	 mov	 eax, DWORD PTR __Count$[esp-4]
  00004	8d 04 40	 lea	 eax, DWORD PTR [eax+eax*2]
  00007	c1 e0 03	 shl	 eax, 3
  0000a	50		 push	 eax
  0000b	e8 00 00 00 00	 call	 ??2@YAPAXI@Z		; operator new
  00010	83 c4 04	 add	 esp, 4

; 35   : 	}

  00013	c3		 ret	 0
??$_Allocate@U_Node@?$_Tree_nod@V?$_Tmap_traits@KPAVCTPlayer@@U?$less@K@std@@V?$allocator@U?$pair@$$CBKPAVCTPlayer@@@std@@@3@$0A@@std@@@std@@@std@@YAPAU_Node@?$_Tree_nod@V?$_Tmap_traits@KPAVCTPlayer@@U?$less@K@std@@V?$allocator@U?$pair@$$CBKPAVCTPlayer@@@std@@@3@$0A@@std@@@0@IPAU120@@Z ENDP ; std::_Allocate<std::_Tree_nod<std::_Tmap_traits<unsigned long,CTPlayer *,std::less<unsigned long>,std::allocator<std::pair<unsigned long const ,CTPlayer *> >,0> >::_Node>
_TEXT	ENDS
PUBLIC	?data@CStringData@ATL@@QAEPAXXZ			; ATL::CStringData::data
; Function compile flags: /Ogty
; File c:\program files (x86)\microsoft visual studio .net 2003\vc7\atlmfc\include\atlsimpstr.h
;	COMDAT ?data@CStringData@ATL@@QAEPAXXZ
_TEXT	SEGMENT
?data@CStringData@ATL@@QAEPAXXZ PROC NEAR		; ATL::CStringData::data, COMDAT
; _this$ = ecx

; 66   : 		return (this+1);

  00000	8d 41 10	 lea	 eax, DWORD PTR [ecx+16]

; 67   : 	}

  00003	c3		 ret	 0
?data@CStringData@ATL@@QAEPAXXZ ENDP			; ATL::CStringData::data
_TEXT	ENDS
PUBLIC	?AddRef@CStringData@ATL@@QAEXXZ			; ATL::CStringData::AddRef
; Function compile flags: /Ogty
;	COMDAT ?AddRef@CStringData@ATL@@QAEXXZ
_TEXT	SEGMENT
?AddRef@CStringData@ATL@@QAEXXZ PROC NEAR		; ATL::CStringData::AddRef, COMDAT
; _this$ = ecx

; 71   : 		ATLASSERT(nRefs > 0);
; 72   : 		_InterlockedIncrement(&nRefs);

  00000	83 c1 0c	 add	 ecx, 12			; 0000000cH
  00003	b8 01 00 00 00	 mov	 eax, 1
  00008	f0 0f c1 01	 lock	  xadd	 DWORD PTR [ecx], eax

; 73   : 	}

  0000c	c3		 ret	 0
?AddRef@CStringData@ATL@@QAEXXZ ENDP			; ATL::CStringData::AddRef
_TEXT	ENDS
PUBLIC	?IsLocked@CStringData@ATL@@QBE_NXZ		; ATL::CStringData::IsLocked
; Function compile flags: /Ogty
;	COMDAT ?IsLocked@CStringData@ATL@@QBE_NXZ
_TEXT	SEGMENT
?IsLocked@CStringData@ATL@@QBE_NXZ PROC NEAR		; ATL::CStringData::IsLocked, COMDAT
; _this$ = ecx

; 76   : 		return nRefs < 0;

  00000	8b 51 0c	 mov	 edx, DWORD PTR [ecx+12]
  00003	33 c0		 xor	 eax, eax
  00005	85 d2		 test	 edx, edx
  00007	0f 9c c0	 setl	 al

; 77   : 	}

  0000a	c3		 ret	 0
?IsLocked@CStringData@ATL@@QBE_NXZ ENDP			; ATL::CStringData::IsLocked
_TEXT	ENDS
PUBLIC	?IsShared@CStringData@ATL@@QBE_NXZ		; ATL::CStringData::IsShared
; Function compile flags: /Ogty
;	COMDAT ?IsShared@CStringData@ATL@@QBE_NXZ
_TEXT	SEGMENT
?IsShared@CStringData@ATL@@QBE_NXZ PROC NEAR		; ATL::CStringData::IsShared, COMDAT
; _this$ = ecx

; 80   : 		return( nRefs > 1 ); 

  00000	8b 51 0c	 mov	 edx, DWORD PTR [ecx+12]
  00003	33 c0		 xor	 eax, eax
  00005	83 fa 01	 cmp	 edx, 1
  00008	0f 9f c0	 setg	 al

; 81   : 	}

  0000b	c3		 ret	 0
?IsShared@CStringData@ATL@@QBE_NXZ ENDP			; ATL::CStringData::IsShared
_TEXT	ENDS
PUBLIC	?Release@CStringData@ATL@@QAEXXZ		; ATL::CStringData::Release
; Function compile flags: /Ogty
;	COMDAT ?Release@CStringData@ATL@@QAEXXZ
_TEXT	SEGMENT
?Release@CStringData@ATL@@QAEXXZ PROC NEAR		; ATL::CStringData::Release, COMDAT
; _this$ = ecx

; 93   : 		ATLASSERT( nRefs != 0 );
; 94   : 
; 95   : 		if( _InterlockedDecrement( &nRefs ) <= 0 )

  00000	8d 41 0c	 lea	 eax, DWORD PTR [ecx+12]
  00003	83 ca ff	 or	 edx, -1
  00006	f0 0f c1 10	 lock	  xadd	 DWORD PTR [eax], edx
  0000a	4a		 dec	 edx
  0000b	85 d2		 test	 edx, edx
  0000d	7f 0a		 jg	 SHORT $L73499

; 96   : 		{
; 97   : 			pStringMgr->Free( this );

  0000f	8b 01		 mov	 eax, DWORD PTR [ecx]
  00011	8b 10		 mov	 edx, DWORD PTR [eax]
  00013	51		 push	 ecx
  00014	8b c8		 mov	 ecx, eax
  00016	ff 52 04	 call	 DWORD PTR [edx+4]
$L73499:

; 98   : 		}
; 99   : 	}

  00019	c3		 ret	 0
?Release@CStringData@ATL@@QAEXXZ ENDP			; ATL::CStringData::Release
_TEXT	ENDS
PUBLIC	??2@YAPAXIPAX@Z					; operator new
; Function compile flags: /Ogty
; File c:\program files (x86)\microsoft visual studio .net 2003\vc7\include\new.h
;	COMDAT ??2@YAPAXIPAX@Z
_TEXT	SEGMENT
___formal$ = 8						; size = 4
__P$ = 12						; size = 4
??2@YAPAXIPAX@Z PROC NEAR				; operator new, COMDAT

; 109  :         {return (_P); }

  00000	8b 44 24 08	 mov	 eax, DWORD PTR __P$[esp-4]
  00004	c3		 ret	 0
??2@YAPAXIPAX@Z ENDP					; operator new
_TEXT	ENDS
PUBLIC	??3@YAXPAX0@Z					; operator delete
; Function compile flags: /Ogty
;	COMDAT ??3@YAXPAX0@Z
_TEXT	SEGMENT
___formal$ = 8						; size = 4
___formal$ = 12						; size = 4
??3@YAXPAX0@Z PROC NEAR					; operator delete, COMDAT

; 112  :         {return; }

  00000	c3		 ret	 0
??3@YAXPAX0@Z ENDP					; operator delete
_TEXT	ENDS
PUBLIC	??0CTime@ATL@@QAE@_J@Z				; ATL::CTime::CTime
; Function compile flags: /Ogty
; File c:\program files (x86)\microsoft visual studio .net 2003\vc7\atlmfc\include\atltime.inl
;	COMDAT ??0CTime@ATL@@QAE@_J@Z
_TEXT	SEGMENT
_time$ = 8						; size = 8
??0CTime@ATL@@QAE@_J@Z PROC NEAR			; ATL::CTime::CTime, COMDAT
; _this$ = ecx

; 149  : {

  00000	8b 54 24 08	 mov	 edx, DWORD PTR _time$[esp]
  00004	8b c1		 mov	 eax, ecx
  00006	8b 4c 24 04	 mov	 ecx, DWORD PTR _time$[esp-4]
  0000a	89 08		 mov	 DWORD PTR [eax], ecx
  0000c	89 50 04	 mov	 DWORD PTR [eax+4], edx

; 150  : }

  0000f	c2 08 00	 ret	 8
??0CTime@ATL@@QAE@_J@Z ENDP				; ATL::CTime::CTime
_TEXT	ENDS
PUBLIC	??0CTime@ATL@@QAE@HHHHHHH@Z			; ATL::CTime::CTime
EXTRN	__mktime64:NEAR
; Function compile flags: /Ogty
;	COMDAT ??0CTime@ATL@@QAE@HHHHHHH@Z
_TEXT	SEGMENT
_atm$ = -36						; size = 36
_nYear$ = 8						; size = 4
_nMonth$ = 12						; size = 4
_nDay$ = 16						; size = 4
_nHour$ = 20						; size = 4
_nMin$ = 24						; size = 4
_nSec$ = 28						; size = 4
_nDST$ = 32						; size = 4
??0CTime@ATL@@QAE@HHHHHHH@Z PROC NEAR			; ATL::CTime::CTime, COMDAT
; _this$ = ecx

; 154  : {

  00000	83 ec 24	 sub	 esp, 36			; 00000024H

; 155  : 	struct tm atm;
; 156  : 	atm.tm_sec = nSec;

  00003	8b 44 24 3c	 mov	 eax, DWORD PTR _nSec$[esp+32]

; 157  : 	atm.tm_min = nMin;
; 158  : 	atm.tm_hour = nHour;

  00007	8b 54 24 34	 mov	 edx, DWORD PTR _nHour$[esp+32]
  0000b	56		 push	 esi
  0000c	8b f1		 mov	 esi, ecx
  0000e	8b 4c 24 3c	 mov	 ecx, DWORD PTR _nMin$[esp+36]
  00012	89 4c 24 08	 mov	 DWORD PTR _atm$[esp+44], ecx

; 159  : 	ATLASSERT(nDay >= 1 && nDay <= 31);
; 160  : 	atm.tm_mday = nDay;
; 161  : 	ATLASSERT(nMonth >= 1 && nMonth <= 12);
; 162  : 	atm.tm_mon = nMonth - 1;        // tm_mon is 0 based

  00016	8b 4c 24 30	 mov	 ecx, DWORD PTR _nMonth$[esp+36]
  0001a	89 44 24 04	 mov	 DWORD PTR _atm$[esp+40], eax
  0001e	8b 44 24 34	 mov	 eax, DWORD PTR _nDay$[esp+36]
  00022	49		 dec	 ecx
  00023	89 54 24 0c	 mov	 DWORD PTR _atm$[esp+48], edx

; 163  : 	ATLASSERT(nYear >= 1900);
; 164  : 	atm.tm_year = nYear - 1900;     // tm_year is 1900 based

  00027	8b 54 24 2c	 mov	 edx, DWORD PTR _nYear$[esp+36]
  0002b	89 4c 24 14	 mov	 DWORD PTR _atm$[esp+56], ecx
  0002f	89 44 24 10	 mov	 DWORD PTR _atm$[esp+52], eax

; 165  : 	atm.tm_isdst = nDST;

  00033	8b 44 24 44	 mov	 eax, DWORD PTR _nDST$[esp+36]

; 166  : 	m_time = _mktime64(&atm);

  00037	8d 4c 24 04	 lea	 ecx, DWORD PTR _atm$[esp+40]
  0003b	81 c2 94 f8 ff
	ff		 add	 edx, -1900		; fffff894H
  00041	51		 push	 ecx
  00042	89 54 24 1c	 mov	 DWORD PTR _atm$[esp+64], edx
  00046	89 44 24 28	 mov	 DWORD PTR _atm$[esp+76], eax
  0004a	e8 00 00 00 00	 call	 __mktime64
  0004f	89 56 04	 mov	 DWORD PTR [esi+4], edx

; 167  : 	ATLASSERT(m_time != -1);       // indicates an illegal input time
; 168  : 	
; 169  : 	if(m_time == -1)

  00052	8b 4e 04	 mov	 ecx, DWORD PTR [esi+4]
  00055	8b d0		 mov	 edx, eax
  00057	23 d1		 and	 edx, ecx
  00059	83 c4 04	 add	 esp, 4
  0005c	83 fa ff	 cmp	 edx, -1
  0005f	89 06		 mov	 DWORD PTR [esi], eax
  00061	75 0a		 jne	 SHORT $L77176

; 170  : 		AtlThrow(E_INVALIDARG);

  00063	68 57 00 07 80	 push	 -2147024809		; 80070057H
  00068	e8 00 00 00 00	 call	 ?AtlThrow@ATL@@YGXJ@Z	; ATL::AtlThrow
$L110098:
$L77176:

; 171  : }

  0006d	8b c6		 mov	 eax, esi
  0006f	5e		 pop	 esi
  00070	83 c4 24	 add	 esp, 36			; 00000024H
  00073	c2 1c 00	 ret	 28			; 0000001cH
$L110097:
??0CTime@ATL@@QAE@HHHHHHH@Z ENDP			; ATL::CTime::CTime
_TEXT	ENDS
PUBLIC	?GetLocalTm@CTime@ATL@@QBEPAUtm@@PAU3@@Z	; ATL::CTime::GetLocalTm
EXTRN	__localtime64:NEAR
; Function compile flags: /Ogty
;	COMDAT ?GetLocalTm@CTime@ATL@@QBEPAUtm@@PAU3@@Z
_TEXT	SEGMENT
_ptm$ = 8						; size = 4
?GetLocalTm@CTime@ATL@@QBEPAUtm@@PAU3@@Z PROC NEAR	; ATL::CTime::GetLocalTm, COMDAT
; _this$ = ecx

; 320  : {

  00000	53		 push	 ebx

; 321  : 	if (ptm != NULL)

  00001	8b 5c 24 08	 mov	 ebx, DWORD PTR _ptm$[esp]

; 322  : 	{
; 323  : 		struct tm* ptmTemp = _localtime64(&m_time);

  00005	51		 push	 ecx
  00006	e8 00 00 00 00	 call	 __localtime64
  0000b	83 c4 04	 add	 esp, 4
  0000e	85 db		 test	 ebx, ebx
  00010	74 19		 je	 SHORT $L77285

; 324  : 		if (ptmTemp == NULL)

  00012	85 c0		 test	 eax, eax
  00014	75 04		 jne	 SHORT $L77284
  00016	5b		 pop	 ebx

; 329  : 	}
; 330  : 	else
; 331  : 		return _localtime64(&m_time);
; 332  : }

  00017	c2 04 00	 ret	 4
$L77284:
  0001a	56		 push	 esi
  0001b	57		 push	 edi

; 325  : 			return NULL;    // indicates the m_time was not initialized!
; 326  : 
; 327  : 		*ptm = *ptmTemp;

  0001c	8b f0		 mov	 esi, eax
  0001e	b9 09 00 00 00	 mov	 ecx, 9
  00023	8b fb		 mov	 edi, ebx
  00025	f3 a5		 rep movsd
  00027	5f		 pop	 edi

; 328  : 		return ptm;

  00028	8b c3		 mov	 eax, ebx
  0002a	5e		 pop	 esi
$L77285:
  0002b	5b		 pop	 ebx

; 329  : 	}
; 330  : 	else
; 331  : 		return _localtime64(&m_time);
; 332  : }

  0002c	c2 04 00	 ret	 4
?GetLocalTm@CTime@ATL@@QBEPAUtm@@PAU3@@Z ENDP		; ATL::CTime::GetLocalTm
_TEXT	ENDS
PUBLIC	?GetTime@CTime@ATL@@QBE_JXZ			; ATL::CTime::GetTime
; Function compile flags: /Ogty
;	COMDAT ?GetTime@CTime@ATL@@QBE_JXZ
_TEXT	SEGMENT
?GetTime@CTime@ATL@@QBE_JXZ PROC NEAR			; ATL::CTime::GetTime, COMDAT
; _this$ = ecx

; 354  : 	return( m_time );

  00000	8b 01		 mov	 eax, DWORD PTR [ecx]
  00002	8b 51 04	 mov	 edx, DWORD PTR [ecx+4]

; 355  : }

  00005	c3		 ret	 0
?GetTime@CTime@ATL@@QBE_JXZ ENDP			; ATL::CTime::GetTime
_TEXT	ENDS
PUBLIC	?GetYear@CTime@ATL@@QBEHXZ			; ATL::CTime::GetYear
; Function compile flags: /Ogty
;	COMDAT ?GetYear@CTime@ATL@@QBEHXZ
_TEXT	SEGMENT
?GetYear@CTime@ATL@@QBEHXZ PROC NEAR			; ATL::CTime::GetYear, COMDAT
; _this$ = ecx

; 359  : 	struct tm * ptm;
; 360  : 	ptm = GetLocalTm();

  00000	51		 push	 ecx
  00001	e8 00 00 00 00	 call	 __localtime64
  00006	83 c4 04	 add	 esp, 4

; 361  : 	return ptm ? (ptm->tm_year) + 1900 : 0 ; 

  00009	85 c0		 test	 eax, eax
  0000b	74 09		 je	 SHORT $L110108
  0000d	8b 40 14	 mov	 eax, DWORD PTR [eax+20]
  00010	05 6c 07 00 00	 add	 eax, 1900		; 0000076cH

; 362  : }

  00015	c3		 ret	 0
$L110108:

; 361  : 	return ptm ? (ptm->tm_year) + 1900 : 0 ; 

  00016	33 c0		 xor	 eax, eax

; 362  : }

  00018	c3		 ret	 0
?GetYear@CTime@ATL@@QBEHXZ ENDP				; ATL::CTime::GetYear
_TEXT	ENDS
PUBLIC	?GetMonth@CTime@ATL@@QBEHXZ			; ATL::CTime::GetMonth
; Function compile flags: /Ogty
;	COMDAT ?GetMonth@CTime@ATL@@QBEHXZ
_TEXT	SEGMENT
?GetMonth@CTime@ATL@@QBEHXZ PROC NEAR			; ATL::CTime::GetMonth, COMDAT
; _this$ = ecx

; 366  : 	struct tm * ptm;
; 367  : 	ptm = GetLocalTm();

  00000	51		 push	 ecx
  00001	e8 00 00 00 00	 call	 __localtime64
  00006	83 c4 04	 add	 esp, 4

; 368  : 	return ptm ? ptm->tm_mon + 1 : 0;

  00009	85 c0		 test	 eax, eax
  0000b	74 05		 je	 SHORT $L110121
  0000d	8b 40 10	 mov	 eax, DWORD PTR [eax+16]
  00010	40		 inc	 eax

; 369  : }

  00011	c3		 ret	 0
$L110121:

; 368  : 	return ptm ? ptm->tm_mon + 1 : 0;

  00012	33 c0		 xor	 eax, eax

; 369  : }

  00014	c3		 ret	 0
?GetMonth@CTime@ATL@@QBEHXZ ENDP			; ATL::CTime::GetMonth
_TEXT	ENDS
PUBLIC	?GetDay@CTime@ATL@@QBEHXZ			; ATL::CTime::GetDay
; Function compile flags: /Ogty
;	COMDAT ?GetDay@CTime@ATL@@QBEHXZ
_TEXT	SEGMENT
?GetDay@CTime@ATL@@QBEHXZ PROC NEAR			; ATL::CTime::GetDay, COMDAT
; _this$ = ecx

; 373  : 	struct tm * ptm;
; 374  : 	ptm = GetLocalTm();

  00000	51		 push	 ecx
  00001	e8 00 00 00 00	 call	 __localtime64
  00006	83 c4 04	 add	 esp, 4

; 375  : 	return ptm ? ptm->tm_mday : 0 ; 

  00009	85 c0		 test	 eax, eax
  0000b	74 04		 je	 SHORT $L110134
  0000d	8b 40 0c	 mov	 eax, DWORD PTR [eax+12]

; 376  : }

  00010	c3		 ret	 0
$L110134:

; 375  : 	return ptm ? ptm->tm_mday : 0 ; 

  00011	33 c0		 xor	 eax, eax

; 376  : }

  00013	c3		 ret	 0
?GetDay@CTime@ATL@@QBEHXZ ENDP				; ATL::CTime::GetDay
_TEXT	ENDS
PUBLIC	?GetHour@CTime@ATL@@QBEHXZ			; ATL::CTime::GetHour
; Function compile flags: /Ogty
;	COMDAT ?GetHour@CTime@ATL@@QBEHXZ
_TEXT	SEGMENT
?GetHour@CTime@ATL@@QBEHXZ PROC NEAR			; ATL::CTime::GetHour, COMDAT
; _this$ = ecx

; 380  : 	struct tm * ptm;
; 381  : 	ptm = GetLocalTm();

  00000	51		 push	 ecx
  00001	e8 00 00 00 00	 call	 __localtime64
  00006	83 c4 04	 add	 esp, 4

; 382  : 	return ptm ? ptm->tm_hour : -1 ; 

  00009	85 c0		 test	 eax, eax
  0000b	74 04		 je	 SHORT $L110147
  0000d	8b 40 08	 mov	 eax, DWORD PTR [eax+8]

; 383  : }

  00010	c3		 ret	 0
$L110147:

; 382  : 	return ptm ? ptm->tm_hour : -1 ; 

  00011	83 c8 ff	 or	 eax, -1

; 383  : }

  00014	c3		 ret	 0
?GetHour@CTime@ATL@@QBEHXZ ENDP				; ATL::CTime::GetHour
_TEXT	ENDS
PUBLIC	?GetMinute@CTime@ATL@@QBEHXZ			; ATL::CTime::GetMinute
; Function compile flags: /Ogty
;	COMDAT ?GetMinute@CTime@ATL@@QBEHXZ
_TEXT	SEGMENT
?GetMinute@CTime@ATL@@QBEHXZ PROC NEAR			; ATL::CTime::GetMinute, COMDAT
; _this$ = ecx

; 387  : 	struct tm * ptm;
; 388  : 	ptm = GetLocalTm();

  00000	51		 push	 ecx
  00001	e8 00 00 00 00	 call	 __localtime64
  00006	83 c4 04	 add	 esp, 4

; 389  : 	return ptm ? ptm->tm_min : -1 ; 

  00009	85 c0		 test	 eax, eax
  0000b	74 04		 je	 SHORT $L110160
  0000d	8b 40 04	 mov	 eax, DWORD PTR [eax+4]

; 390  : }

  00010	c3		 ret	 0
$L110160:

; 389  : 	return ptm ? ptm->tm_min : -1 ; 

  00011	83 c8 ff	 or	 eax, -1

; 390  : }

  00014	c3		 ret	 0
?GetMinute@CTime@ATL@@QBEHXZ ENDP			; ATL::CTime::GetMinute
_TEXT	ENDS
PUBLIC	?GetSecond@CTime@ATL@@QBEHXZ			; ATL::CTime::GetSecond
; Function compile flags: /Ogty
;	COMDAT ?GetSecond@CTime@ATL@@QBEHXZ
_TEXT	SEGMENT
?GetSecond@CTime@ATL@@QBEHXZ PROC NEAR			; ATL::CTime::GetSecond, COMDAT
; _this$ = ecx

; 394  : 	struct tm * ptm;
; 395  : 	ptm = GetLocalTm();

  00000	51		 push	 ecx
  00001	e8 00 00 00 00	 call	 __localtime64
  00006	83 c4 04	 add	 esp, 4

; 396  : 	return ptm ? ptm->tm_sec : -1 ;

  00009	85 c0		 test	 eax, eax
  0000b	74 03		 je	 SHORT $L110173
  0000d	8b 00		 mov	 eax, DWORD PTR [eax]

; 397  : }

  0000f	c3		 ret	 0
$L110173:

; 396  : 	return ptm ? ptm->tm_sec : -1 ;

  00010	83 c8 ff	 or	 eax, -1

; 397  : }

  00013	c3		 ret	 0
?GetSecond@CTime@ATL@@QBEHXZ ENDP			; ATL::CTime::GetSecond
_TEXT	ENDS
PUBLIC	?assign@?$char_traits@D@std@@SAXAADABD@Z	; std::char_traits<char>::assign
; Function compile flags: /Ogty
; File c:\program files (x86)\microsoft visual studio .net 2003\vc7\include\iosfwd
;	COMDAT ?assign@?$char_traits@D@std@@SAXAADABD@Z
_TEXT	SEGMENT
__Left$ = 8						; size = 4
__Right$ = 12						; size = 4
?assign@?$char_traits@D@std@@SAXAADABD@Z PROC NEAR	; std::char_traits<char>::assign, COMDAT

; 331  : 		_Left = _Right;

  00000	8b 44 24 08	 mov	 eax, DWORD PTR __Right$[esp-4]
  00004	8a 08		 mov	 cl, BYTE PTR [eax]
  00006	8b 54 24 04	 mov	 edx, DWORD PTR __Left$[esp-4]
  0000a	88 0a		 mov	 BYTE PTR [edx], cl

; 332  : 		}

  0000c	c3		 ret	 0
?assign@?$char_traits@D@std@@SAXAADABD@Z ENDP		; std::char_traits<char>::assign
_TEXT	ENDS
PUBLIC	?length@?$char_traits@D@std@@SAIPBD@Z		; std::char_traits<char>::length
; Function compile flags: /Ogty
;	COMDAT ?length@?$char_traits@D@std@@SAIPBD@Z
_TEXT	SEGMENT
__First$ = 8						; size = 4
?length@?$char_traits@D@std@@SAIPBD@Z PROC NEAR		; std::char_traits<char>::length, COMDAT

; 352  : 		return (::strlen(_First));

  00000	8b 44 24 04	 mov	 eax, DWORD PTR __First$[esp-4]
  00004	8d 50 01	 lea	 edx, DWORD PTR [eax+1]
$L110189:
  00007	8a 08		 mov	 cl, BYTE PTR [eax]
  00009	40		 inc	 eax
  0000a	84 c9		 test	 cl, cl
  0000c	75 f9		 jne	 SHORT $L110189
  0000e	2b c2		 sub	 eax, edx

; 353  : 		}

  00010	c3		 ret	 0
?length@?$char_traits@D@std@@SAIPBD@Z ENDP		; std::char_traits<char>::length
_TEXT	ENDS
PUBLIC	?copy@?$char_traits@D@std@@SAPADPADPBDI@Z	; std::char_traits<char>::copy
; Function compile flags: /Ogty
;	COMDAT ?copy@?$char_traits@D@std@@SAPADPADPBDI@Z
_TEXT	SEGMENT
__First1$ = 8						; size = 4
__First2$ = 12						; size = 4
__Count$ = 16						; size = 4
?copy@?$char_traits@D@std@@SAPADPADPBDI@Z PROC NEAR	; std::char_traits<char>::copy, COMDAT

; 358  : 		return ((_Elem *)::memcpy(_First1, _First2, _Count));

  00000	8b 4c 24 0c	 mov	 ecx, DWORD PTR __Count$[esp-4]
  00004	56		 push	 esi
  00005	8b 74 24 0c	 mov	 esi, DWORD PTR __First2$[esp]
  00009	57		 push	 edi
  0000a	8b 7c 24 0c	 mov	 edi, DWORD PTR __First1$[esp+4]
  0000e	8b c1		 mov	 eax, ecx
  00010	8b d7		 mov	 edx, edi
  00012	c1 e9 02	 shr	 ecx, 2
  00015	f3 a5		 rep movsd
  00017	8b c8		 mov	 ecx, eax
  00019	83 e1 03	 and	 ecx, 3
  0001c	f3 a4		 rep movsb
  0001e	5f		 pop	 edi
  0001f	8b c2		 mov	 eax, edx
  00021	5e		 pop	 esi

; 359  : 		}

  00022	c3		 ret	 0
?copy@?$char_traits@D@std@@SAPADPADPBDI@Z ENDP		; std::char_traits<char>::copy
_TEXT	ENDS
PUBLIC	?move@?$char_traits@D@std@@SAPADPADPBDI@Z	; std::char_traits<char>::move
EXTRN	_memmove:NEAR
; Function compile flags: /Ogty
;	COMDAT ?move@?$char_traits@D@std@@SAPADPADPBDI@Z
_TEXT	SEGMENT
__First1$ = 8						; size = 4
__First2$ = 12						; size = 4
__Count$ = 16						; size = 4
?move@?$char_traits@D@std@@SAPADPADPBDI@Z PROC NEAR	; std::char_traits<char>::move, COMDAT

; 370  : 		return ((_Elem *)::memmove(_First1, _First2, _Count));

  00000	e9 00 00 00 00	 jmp	 _memmove
?move@?$char_traits@D@std@@SAPADPADPBDI@Z ENDP		; std::char_traits<char>::move
_TEXT	ENDS
PUBLIC	??B?$CSimpleStringT@D$0A@@ATL@@QBEPBDXZ		; ATL::CSimpleStringT<char,0>::operator char const *
; Function compile flags: /Ogty
; File c:\program files (x86)\microsoft visual studio .net 2003\vc7\atlmfc\include\atlsimpstr.h
;	COMDAT ??B?$CSimpleStringT@D$0A@@ATL@@QBEPBDXZ
_TEXT	SEGMENT
??B?$CSimpleStringT@D$0A@@ATL@@QBEPBDXZ PROC NEAR	; ATL::CSimpleStringT<char,0>::operator char const *, COMDAT
; _this$ = ecx

; 379  : 		return( m_pszData );

  00000	8b 01		 mov	 eax, DWORD PTR [ecx]

; 380  : 	}

  00002	c3		 ret	 0
??B?$CSimpleStringT@D$0A@@ATL@@QBEPBDXZ ENDP		; ATL::CSimpleStringT<char,0>::operator char const *
_TEXT	ENDS
PUBLIC	?size@?$basic_string@DU?$char_traits@D@std@@V?$allocator@D@2@@std@@QBEIXZ ; std::basic_string<char,std::char_traits<char>,std::allocator<char> >::size
; Function compile flags: /Ogty
; File c:\program files (x86)\microsoft visual studio .net 2003\vc7\include\xstring
;	COMDAT ?size@?$basic_string@DU?$char_traits@D@std@@V?$allocator@D@2@@std@@QBEIXZ
_TEXT	SEGMENT
?size@?$basic_string@DU?$char_traits@D@std@@V?$allocator@D@2@@std@@QBEIXZ PROC NEAR ; std::basic_string<char,std::char_traits<char>,std::allocator<char> >::size, COMDAT
; _this$ = ecx

; 1109 : 		return (_Mysize);

  00000	8b 41 14	 mov	 eax, DWORD PTR [ecx+20]

; 1110 : 		}

  00003	c3		 ret	 0
?size@?$basic_string@DU?$char_traits@D@std@@V?$allocator@D@2@@std@@QBEIXZ ENDP ; std::basic_string<char,std::char_traits<char>,std::allocator<char> >::size
_TEXT	ENDS
PUBLIC	?FindStringResourceInstance@?$StrTraitATL@DV?$ChTraitsCRT@D@ATL@@@ATL@@SAPAUHINSTANCE__@@I@Z ; ATL::StrTraitATL<char,ATL::ChTraitsCRT<char> >::FindStringResourceInstance
; Function compile flags: /Ogty
; File c:\program files (x86)\microsoft visual studio .net 2003\vc7\atlmfc\include\atlstr.h
;	COMDAT ?FindStringResourceInstance@?$StrTraitATL@DV?$ChTraitsCRT@D@ATL@@@ATL@@SAPAUHINSTANCE__@@I@Z
_TEXT	SEGMENT
_nID$ = 8						; size = 4
?FindStringResourceInstance@?$StrTraitATL@DV?$ChTraitsCRT@D@ATL@@@ATL@@SAPAUHINSTANCE__@@I@Z PROC NEAR ; ATL::StrTraitATL<char,ATL::ChTraitsCRT<char> >::FindStringResourceInstance, COMDAT

; 949  : 		return( AtlFindStringResourceInstance( nID ) );

  00000	8b 44 24 04	 mov	 eax, DWORD PTR _nID$[esp-4]
  00004	6a 00		 push	 0
  00006	50		 push	 eax
  00007	e8 00 00 00 00	 call	 ?AtlFindStringResourceInstance@ATL@@YAPAUHINSTANCE__@@IG@Z ; ATL::AtlFindStringResourceInstance
  0000c	83 c4 08	 add	 esp, 8

; 950  : 	}

  0000f	c3		 ret	 0
?FindStringResourceInstance@?$StrTraitATL@DV?$ChTraitsCRT@D@ATL@@@ATL@@SAPAUHINSTANCE__@@I@Z ENDP ; ATL::StrTraitATL<char,ATL::ChTraitsCRT<char> >::FindStringResourceInstance
_TEXT	ENDS
PUBLIC	?GetDefaultManager@?$StrTraitATL@DV?$ChTraitsCRT@D@ATL@@@ATL@@SAPAUIAtlStringMgr@2@XZ ; ATL::StrTraitATL<char,ATL::ChTraitsCRT<char> >::GetDefaultManager
EXTRN	?g_strmgr@ATL@@3VCAtlStringMgr@1@A:BYTE		; ATL::g_strmgr
; Function compile flags: /Ogty
;	COMDAT ?GetDefaultManager@?$StrTraitATL@DV?$ChTraitsCRT@D@ATL@@@ATL@@SAPAUIAtlStringMgr@2@XZ
_TEXT	SEGMENT
?GetDefaultManager@?$StrTraitATL@DV?$ChTraitsCRT@D@ATL@@@ATL@@SAPAUIAtlStringMgr@2@XZ PROC NEAR ; ATL::StrTraitATL<char,ATL::ChTraitsCRT<char> >::GetDefaultManager, COMDAT

; 954  : 		return( &g_strmgr );

  00000	b8 00 00 00 00	 mov	 eax, OFFSET FLAT:?g_strmgr@ATL@@3VCAtlStringMgr@1@A ; ATL::g_strmgr

; 955  : 	}

  00005	c3		 ret	 0
?GetDefaultManager@?$StrTraitATL@DV?$ChTraitsCRT@D@ATL@@@ATL@@SAPAUIAtlStringMgr@2@XZ ENDP ; ATL::StrTraitATL<char,ATL::ChTraitsCRT<char> >::GetDefaultManager
_TEXT	ENDS
PUBLIC	?_Myptr@?$basic_string@DU?$char_traits@D@std@@V?$allocator@D@2@@std@@QBEPBDXZ ; std::basic_string<char,std::char_traits<char>,std::allocator<char> >::_Myptr
; Function compile flags: /Ogty
; File c:\program files (x86)\microsoft visual studio .net 2003\vc7\include\xstring
;	COMDAT ?_Myptr@?$basic_string@DU?$char_traits@D@std@@V?$allocator@D@2@@std@@QBEPBDXZ
_TEXT	SEGMENT
?_Myptr@?$basic_string@DU?$char_traits@D@std@@V?$allocator@D@2@@std@@QBEPBDXZ PROC NEAR ; std::basic_string<char,std::char_traits<char>,std::allocator<char> >::_Myptr, COMDAT
; _this$ = ecx

; 1537 : 		return (_BUF_SIZE <= _Myres ? _Bx._Ptr : _Bx._Buf);

  00000	83 79 18 10	 cmp	 DWORD PTR [ecx+24], 16	; 00000010H
  00004	72 04		 jb	 SHORT $L110212
  00006	8b 41 04	 mov	 eax, DWORD PTR [ecx+4]

; 1538 : 		}

  00009	c3		 ret	 0
$L110212:

; 1537 : 		return (_BUF_SIZE <= _Myres ? _Bx._Ptr : _Bx._Buf);

  0000a	8d 41 04	 lea	 eax, DWORD PTR [ecx+4]

; 1538 : 		}

  0000d	c3		 ret	 0
?_Myptr@?$basic_string@DU?$char_traits@D@std@@V?$allocator@D@2@@std@@QBEPBDXZ ENDP ; std::basic_string<char,std::char_traits<char>,std::allocator<char> >::_Myptr
_TEXT	ENDS
PUBLIC	??0?$allocator@D@std@@QAE@ABV01@@Z		; std::allocator<char>::allocator<char>
; Function compile flags: /Ogty
; File c:\program files (x86)\microsoft visual studio .net 2003\vc7\include\xmemory
;	COMDAT ??0?$allocator@D@std@@QAE@ABV01@@Z
_TEXT	SEGMENT
___formal$ = 8						; size = 4
??0?$allocator@D@std@@QAE@ABV01@@Z PROC NEAR		; std::allocator<char>::allocator<char>, COMDAT
; _this$ = ecx

; 115  : 	allocator(const allocator<_Ty>&)

  00000	8b c1		 mov	 eax, ecx

; 116  : 		{	// construct by copying (do nothing)
; 117  : 		}

  00002	c2 04 00	 ret	 4
??0?$allocator@D@std@@QAE@ABV01@@Z ENDP			; std::allocator<char>::allocator<char>
_TEXT	ENDS
PUBLIC	?Attach@?$CSimpleStringT@D$0A@@ATL@@AAEXPAUCStringData@2@@Z ; ATL::CSimpleStringT<char,0>::Attach
; Function compile flags: /Ogty
; File c:\program files (x86)\microsoft visual studio .net 2003\vc7\atlmfc\include\atlsimpstr.h
;	COMDAT ?Attach@?$CSimpleStringT@D$0A@@ATL@@AAEXPAUCStringData@2@@Z
_TEXT	SEGMENT
_pData$ = 8						; size = 4
?Attach@?$CSimpleStringT@D$0A@@ATL@@AAEXPAUCStringData@2@@Z PROC NEAR ; ATL::CSimpleStringT<char,0>::Attach, COMDAT
; _this$ = ecx

; 712  : 		m_pszData = static_cast< PXSTR >( pData->data() );

  00000	8b 44 24 04	 mov	 eax, DWORD PTR _pData$[esp-4]
  00004	83 c0 10	 add	 eax, 16			; 00000010H
  00007	89 01		 mov	 DWORD PTR [ecx], eax

; 713  : 	}

  00009	c2 04 00	 ret	 4
?Attach@?$CSimpleStringT@D$0A@@ATL@@AAEXPAUCStringData@2@@Z ENDP ; ATL::CSimpleStringT<char,0>::Attach
_TEXT	ENDS
PUBLIC	?GetData@?$CSimpleStringT@D$0A@@ATL@@ABEPAUCStringData@2@XZ ; ATL::CSimpleStringT<char,0>::GetData
; Function compile flags: /Ogty
;	COMDAT ?GetData@?$CSimpleStringT@D$0A@@ATL@@ABEPAUCStringData@2@XZ
_TEXT	SEGMENT
?GetData@?$CSimpleStringT@D$0A@@ATL@@ABEPAUCStringData@2@XZ PROC NEAR ; ATL::CSimpleStringT<char,0>::GetData, COMDAT
; _this$ = ecx

; 731  : 		return( reinterpret_cast< CStringData* >( m_pszData )-1 );

  00000	8b 01		 mov	 eax, DWORD PTR [ecx]
  00002	83 e8 10	 sub	 eax, 16			; 00000010H

; 732  : 	}

  00005	c3		 ret	 0
?GetData@?$CSimpleStringT@D$0A@@ATL@@ABEPAUCStringData@2@XZ ENDP ; ATL::CSimpleStringT<char,0>::GetData
_TEXT	ENDS
PUBLIC	?GetBaseTypeLength@?$ChTraitsCRT@D@ATL@@SAHPBGH@Z ; ATL::ChTraitsCRT<char>::GetBaseTypeLength
EXTRN	__imp__WideCharToMultiByte@32:NEAR
; Function compile flags: /Ogty
; File c:\program files (x86)\microsoft visual studio .net 2003\vc7\atlmfc\include\cstringt.h
;	COMDAT ?GetBaseTypeLength@?$ChTraitsCRT@D@ATL@@SAHPBGH@Z
_TEXT	SEGMENT
_pszSource$ = 8						; size = 4
_nLength$ = 12						; size = 4
?GetBaseTypeLength@?$ChTraitsCRT@D@ATL@@SAHPBGH@Z PROC NEAR ; ATL::ChTraitsCRT<char>::GetBaseTypeLength, COMDAT

; 437  : 		// Returns required buffer length in XCHARs
; 438  : 		return ::WideCharToMultiByte( _AtlGetConversionACP(), 0, pszSource, nLength, NULL, 0, NULL, NULL );

  00000	8b 44 24 08	 mov	 eax, DWORD PTR _nLength$[esp-4]
  00004	8b 4c 24 04	 mov	 ecx, DWORD PTR _pszSource$[esp-4]
  00008	6a 00		 push	 0
  0000a	6a 00		 push	 0
  0000c	6a 00		 push	 0
  0000e	6a 00		 push	 0
  00010	50		 push	 eax
  00011	51		 push	 ecx
  00012	6a 00		 push	 0
  00014	ff 15 00 00 00
	00		 call	 DWORD PTR ?g_pfnGetThreadACP@ATL@@3P6GIXZA ; ATL::g_pfnGetThreadACP
  0001a	50		 push	 eax
  0001b	ff 15 00 00 00
	00		 call	 DWORD PTR __imp__WideCharToMultiByte@32

; 439  : 	}

  00021	c3		 ret	 0
?GetBaseTypeLength@?$ChTraitsCRT@D@ATL@@SAHPBGH@Z ENDP	; ATL::ChTraitsCRT<char>::GetBaseTypeLength
_TEXT	ENDS
PUBLIC	?ConvertToBaseType@?$ChTraitsCRT@D@ATL@@SAXPADHPBGH@Z ; ATL::ChTraitsCRT<char>::ConvertToBaseType
; Function compile flags: /Ogty
;	COMDAT ?ConvertToBaseType@?$ChTraitsCRT@D@ATL@@SAXPADHPBGH@Z
_TEXT	SEGMENT
_pszDest$ = 8						; size = 4
_nDestLength$ = 12					; size = 4
_pszSrc$ = 16						; size = 4
_nSrcLength$ = 20					; size = 4
?ConvertToBaseType@?$ChTraitsCRT@D@ATL@@SAXPADHPBGH@Z PROC NEAR ; ATL::ChTraitsCRT<char>::ConvertToBaseType, COMDAT

; 452  : 		// nLen is in XCHARs
; 453  : 		::WideCharToMultiByte( _AtlGetConversionACP(), 0, pszSrc, nSrcLength, pszDest, nDestLength, NULL, NULL );

  00000	8b 44 24 08	 mov	 eax, DWORD PTR _nDestLength$[esp-4]
  00004	8b 4c 24 04	 mov	 ecx, DWORD PTR _pszDest$[esp-4]
  00008	8b 54 24 10	 mov	 edx, DWORD PTR _nSrcLength$[esp-4]
  0000c	6a 00		 push	 0
  0000e	6a 00		 push	 0
  00010	50		 push	 eax
  00011	8b 44 24 18	 mov	 eax, DWORD PTR _pszSrc$[esp+8]
  00015	51		 push	 ecx
  00016	52		 push	 edx
  00017	50		 push	 eax
  00018	6a 00		 push	 0
  0001a	ff 15 00 00 00
	00		 call	 DWORD PTR ?g_pfnGetThreadACP@ATL@@3P6GIXZA ; ATL::g_pfnGetThreadACP
  00020	50		 push	 eax
  00021	ff 15 00 00 00
	00		 call	 DWORD PTR __imp__WideCharToMultiByte@32

; 454  : 	}

  00027	c3		 ret	 0
?ConvertToBaseType@?$ChTraitsCRT@D@ATL@@SAXPADHPBGH@Z ENDP ; ATL::ChTraitsCRT<char>::ConvertToBaseType
_TEXT	ENDS
PUBLIC	?_Myptr@?$basic_string@DU?$char_traits@D@std@@V?$allocator@D@2@@std@@QAEPADXZ ; std::basic_string<char,std::char_traits<char>,std::allocator<char> >::_Myptr
; Function compile flags: /Ogty
; File c:\program files (x86)\microsoft visual studio .net 2003\vc7\include\xstring
;	COMDAT ?_Myptr@?$basic_string@DU?$char_traits@D@std@@V?$allocator@D@2@@std@@QAEPADXZ
_TEXT	SEGMENT
?_Myptr@?$basic_string@DU?$char_traits@D@std@@V?$allocator@D@2@@std@@QAEPADXZ PROC NEAR ; std::basic_string<char,std::char_traits<char>,std::allocator<char> >::_Myptr, COMDAT
; _this$ = ecx

; 1532 : 		return (_BUF_SIZE <= _Myres ? _Bx._Ptr : _Bx._Buf);

  00000	83 79 18 10	 cmp	 DWORD PTR [ecx+24], 16	; 00000010H
  00004	72 04		 jb	 SHORT $L110241
  00006	8b 41 04	 mov	 eax, DWORD PTR [ecx+4]

; 1533 : 		}

  00009	c3		 ret	 0
$L110241:

; 1532 : 		return (_BUF_SIZE <= _Myres ? _Bx._Ptr : _Bx._Buf);

  0000a	8d 41 04	 lea	 eax, DWORD PTR [ecx+4]

; 1533 : 		}

  0000d	c3		 ret	 0
?_Myptr@?$basic_string@DU?$char_traits@D@std@@V?$allocator@D@2@@std@@QAEPADXZ ENDP ; std::basic_string<char,std::char_traits<char>,std::allocator<char> >::_Myptr
_TEXT	ENDS
PUBLIC	?deallocate@?$allocator@D@std@@QAEXPADI@Z	; std::allocator<char>::deallocate
; Function compile flags: /Ogty
; File c:\program files (x86)\microsoft visual studio .net 2003\vc7\include\xmemory
;	COMDAT ?deallocate@?$allocator@D@std@@QAEXPADI@Z
_TEXT	SEGMENT
__Ptr$ = 8						; size = 4
___formal$ = 12						; size = 4
?deallocate@?$allocator@D@std@@QAEXPADI@Z PROC NEAR	; std::allocator<char>::deallocate, COMDAT
; _this$ = ecx

; 132  : 		operator delete(_Ptr);

  00000	8b 44 24 04	 mov	 eax, DWORD PTR __Ptr$[esp-4]
  00004	50		 push	 eax
  00005	e8 00 00 00 00	 call	 ??3@YAXPAX@Z		; operator delete
  0000a	59		 pop	 ecx

; 133  : 		}

  0000b	c2 08 00	 ret	 8
?deallocate@?$allocator@D@std@@QAEXPADI@Z ENDP		; std::allocator<char>::deallocate
_TEXT	ENDS
PUBLIC	?CopyChars@?$CSimpleStringT@D$0A@@ATL@@SAXPADPBDH@Z ; ATL::CSimpleStringT<char,0>::CopyChars
; Function compile flags: /Ogty
; File c:\program files (x86)\microsoft visual studio .net 2003\vc7\atlmfc\include\atlsimpstr.h
;	COMDAT ?CopyChars@?$CSimpleStringT@D$0A@@ATL@@SAXPADPBDH@Z
_TEXT	SEGMENT
_pchDest$ = 8						; size = 4
_pchSrc$ = 12						; size = 4
_nChars$ = 16						; size = 4
?CopyChars@?$CSimpleStringT@D$0A@@ATL@@SAXPADPBDH@Z PROC NEAR ; ATL::CSimpleStringT<char,0>::CopyChars, COMDAT

; 653  : 		memcpy( pchDest, pchSrc, nChars*sizeof( XCHAR ) );

  00000	8b 4c 24 0c	 mov	 ecx, DWORD PTR _nChars$[esp-4]
  00004	56		 push	 esi
  00005	8b 74 24 0c	 mov	 esi, DWORD PTR _pchSrc$[esp]
  00009	8b c1		 mov	 eax, ecx
  0000b	57		 push	 edi
  0000c	8b 7c 24 0c	 mov	 edi, DWORD PTR _pchDest$[esp+4]
  00010	c1 e9 02	 shr	 ecx, 2
  00013	f3 a5		 rep movsd
  00015	8b c8		 mov	 ecx, eax
  00017	83 e1 03	 and	 ecx, 3
  0001a	f3 a4		 rep movsb
  0001c	5f		 pop	 edi
  0001d	5e		 pop	 esi

; 654  : 	}

  0001e	c3		 ret	 0
?CopyChars@?$CSimpleStringT@D$0A@@ATL@@SAXPADPBDH@Z ENDP ; ATL::CSimpleStringT<char,0>::CopyChars
_TEXT	ENDS
PUBLIC	?ThrowMemoryException@?$CSimpleStringT@D$0A@@ATL@@KAXXZ ; ATL::CSimpleStringT<char,0>::ThrowMemoryException
; Function compile flags: /Ogty
;	COMDAT ?ThrowMemoryException@?$CSimpleStringT@D$0A@@ATL@@KAXXZ
_TEXT	SEGMENT
?ThrowMemoryException@?$CSimpleStringT@D$0A@@ATL@@KAXXZ PROC NEAR ; ATL::CSimpleStringT<char,0>::ThrowMemoryException, COMDAT

; 705  : 		AtlThrow( E_OUTOFMEMORY );

  00000	68 0e 00 07 80	 push	 -2147024882		; 8007000eH
  00005	e8 00 00 00 00	 call	 ?AtlThrow@ATL@@YGXJ@Z	; ATL::AtlThrow
$L110253:
$L110252:
  0000a	cc		 int	 3
?ThrowMemoryException@?$CSimpleStringT@D$0A@@ATL@@KAXXZ ENDP ; ATL::CSimpleStringT<char,0>::ThrowMemoryException
_TEXT	ENDS
PUBLIC	?Fork@?$CSimpleStringT@D$0A@@ATL@@AAEXH@Z	; ATL::CSimpleStringT<char,0>::Fork
; Function compile flags: /Ogty
;	COMDAT ?Fork@?$CSimpleStringT@D$0A@@ATL@@AAEXH@Z
_TEXT	SEGMENT
_this$ = -4						; size = 4
tv181 = 8						; size = 4
_nLength$ = 8						; size = 4
?Fork@?$CSimpleStringT@D$0A@@ATL@@AAEXH@Z PROC NEAR	; ATL::CSimpleStringT<char,0>::Fork, COMDAT
; _this$ = ecx

; 715  : 	{

  00000	51		 push	 ecx
  00001	53		 push	 ebx

; 716  : 		CStringData* pOldData = GetData();

  00002	8b 19		 mov	 ebx, DWORD PTR [ecx]
  00004	83 eb 10	 sub	 ebx, 16			; 00000010H
  00007	55		 push	 ebp

; 717  : 		int nOldLength = pOldData->nDataLength;

  00008	8b 6b 04	 mov	 ebp, DWORD PTR [ebx+4]
  0000b	89 4c 24 08	 mov	 DWORD PTR _this$[esp+12], ecx

; 718  : 		CStringData* pNewData = pOldData->pStringMgr->Clone()->Allocate( nLength, sizeof( XCHAR ) );

  0000f	8b 0b		 mov	 ecx, DWORD PTR [ebx]
  00011	8b 01		 mov	 eax, DWORD PTR [ecx]
  00013	56		 push	 esi
  00014	ff 50 10	 call	 DWORD PTR [eax+16]
  00017	8b 74 24 14	 mov	 esi, DWORD PTR _nLength$[esp+12]
  0001b	8b 10		 mov	 edx, DWORD PTR [eax]
  0001d	6a 01		 push	 1
  0001f	56		 push	 esi
  00020	8b c8		 mov	 ecx, eax
  00022	ff 12		 call	 DWORD PTR [edx]

; 719  : 		if( pNewData == NULL )

  00024	85 c0		 test	 eax, eax
  00026	75 05		 jne	 SHORT $L103827

; 720  : 		{
; 721  : 			ThrowMemoryException();

  00028	e8 00 00 00 00	 call	 ?ThrowMemoryException@?$CSimpleStringT@D$0A@@ATL@@KAXXZ ; ATL::CSimpleStringT<char,0>::ThrowMemoryException
$L110284:
$L103827:

; 722  : 		}
; 723  : 		int nCharsToCopy = ((nOldLength < nLength) ? nOldLength : nLength)+1;  // Copy '\0'

  0002d	3b ee		 cmp	 ebp, esi
  0002f	7d 02		 jge	 SHORT $L110258
  00031	8b f5		 mov	 esi, ebp
$L110258:
  00033	8d 4e 01	 lea	 ecx, DWORD PTR [esi+1]

; 724  : 		CopyChars( PXSTR( pNewData->data() ), PCXSTR( pOldData->data() ), nCharsToCopy );

  00036	8b d1		 mov	 edx, ecx
  00038	57		 push	 edi
  00039	c1 e9 02	 shr	 ecx, 2
  0003c	8d 78 10	 lea	 edi, DWORD PTR [eax+16]
  0003f	89 7c 24 18	 mov	 DWORD PTR tv181[esp+16], edi
  00043	8d 73 10	 lea	 esi, DWORD PTR [ebx+16]
  00046	f3 a5		 rep movsd
  00048	8b ca		 mov	 ecx, edx
  0004a	83 e1 03	 and	 ecx, 3
  0004d	f3 a4		 rep movsb

; 725  : 		pNewData->nDataLength = nOldLength;

  0004f	89 68 04	 mov	 DWORD PTR [eax+4], ebp

; 726  : 		pOldData->Release();

  00052	8d 43 0c	 lea	 eax, DWORD PTR [ebx+12]
  00055	83 c9 ff	 or	 ecx, -1
  00058	f0 0f c1 08	 lock	  xadd	 DWORD PTR [eax], ecx
  0005c	49		 dec	 ecx
  0005d	85 c9		 test	 ecx, ecx
  0005f	5f		 pop	 edi
  00060	7f 08		 jg	 SHORT $L110274
  00062	8b 0b		 mov	 ecx, DWORD PTR [ebx]
  00064	8b 11		 mov	 edx, DWORD PTR [ecx]
  00066	53		 push	 ebx
  00067	ff 52 04	 call	 DWORD PTR [edx+4]
$L110274:

; 727  : 		Attach( pNewData );

  0006a	8b 44 24 14	 mov	 eax, DWORD PTR tv181[esp+12]
  0006e	8b 4c 24 0c	 mov	 ecx, DWORD PTR _this$[esp+16]
  00072	5e		 pop	 esi
  00073	5d		 pop	 ebp
  00074	89 01		 mov	 DWORD PTR [ecx], eax
  00076	5b		 pop	 ebx

; 728  : 	}

  00077	59		 pop	 ecx
  00078	c2 04 00	 ret	 4
$L110283:
?Fork@?$CSimpleStringT@D$0A@@ATL@@AAEXH@Z ENDP		; ATL::CSimpleStringT<char,0>::Fork
_TEXT	ENDS
PUBLIC	?Reallocate@?$CSimpleStringT@D$0A@@ATL@@AAEXH@Z	; ATL::CSimpleStringT<char,0>::Reallocate
; Function compile flags: /Ogty
;	COMDAT ?Reallocate@?$CSimpleStringT@D$0A@@ATL@@AAEXH@Z
_TEXT	SEGMENT
_nLength$ = 8						; size = 4
?Reallocate@?$CSimpleStringT@D$0A@@ATL@@AAEXH@Z PROC NEAR ; ATL::CSimpleStringT<char,0>::Reallocate, COMDAT
; _this$ = ecx

; 776  : 	{

  00000	56		 push	 esi
  00001	57		 push	 edi

; 777  : 		CStringData* pOldData = GetData();
; 778  : 		ATLASSERT( pOldData->nAllocLength < nLength );
; 779  : 		IAtlStringMgr* pStringMgr = pOldData->pStringMgr;
; 780  : 		CStringData* pNewData = pStringMgr->Reallocate( pOldData, nLength, sizeof( XCHAR ) );

  00002	8b 7c 24 0c	 mov	 edi, DWORD PTR _nLength$[esp+4]
  00006	8b f1		 mov	 esi, ecx
  00008	8b 06		 mov	 eax, DWORD PTR [esi]
  0000a	8b 48 f0	 mov	 ecx, DWORD PTR [eax-16]
  0000d	8b 11		 mov	 edx, DWORD PTR [ecx]
  0000f	83 e8 10	 sub	 eax, 16			; 00000010H
  00012	6a 01		 push	 1
  00014	57		 push	 edi
  00015	50		 push	 eax
  00016	ff 52 08	 call	 DWORD PTR [edx+8]

; 781  : 		if( pNewData == NULL )

  00019	85 c0		 test	 eax, eax
  0001b	75 05		 jne	 SHORT $L103836

; 782  : 		{
; 783  : 			ThrowMemoryException();

  0001d	e8 00 00 00 00	 call	 ?ThrowMemoryException@?$CSimpleStringT@D$0A@@ATL@@KAXXZ ; ATL::CSimpleStringT<char,0>::ThrowMemoryException
$L110300:
$L103836:

; 784  : 		}
; 785  : 		Attach( pNewData );

  00022	83 c0 10	 add	 eax, 16			; 00000010H
  00025	5f		 pop	 edi
  00026	89 06		 mov	 DWORD PTR [esi], eax
  00028	5e		 pop	 esi

; 786  : 	}

  00029	c2 04 00	 ret	 4
$L110299:
?Reallocate@?$CSimpleStringT@D$0A@@ATL@@AAEXH@Z ENDP	; ATL::CSimpleStringT<char,0>::Reallocate
_TEXT	ENDS
PUBLIC	?SetLength@?$CSimpleStringT@D$0A@@ATL@@AAEXH@Z	; ATL::CSimpleStringT<char,0>::SetLength
; Function compile flags: /Ogty
;	COMDAT ?SetLength@?$CSimpleStringT@D$0A@@ATL@@AAEXH@Z
_TEXT	SEGMENT
_nLength$ = 8						; size = 4
?SetLength@?$CSimpleStringT@D$0A@@ATL@@AAEXH@Z PROC NEAR ; ATL::CSimpleStringT<char,0>::SetLength, COMDAT
; _this$ = ecx

; 790  : 		ATLASSERT( nLength >= 0 );
; 791  : 		ATLASSERT( nLength <= GetData()->nAllocLength );
; 792  : 
; 793  : 		if( nLength < 0 || nLength > GetData()->nAllocLength)

  00000	8b 44 24 04	 mov	 eax, DWORD PTR _nLength$[esp-4]
  00004	85 c0		 test	 eax, eax
  00006	7c 13		 jl	 SHORT $L103842
  00008	8b 11		 mov	 edx, DWORD PTR [ecx]
  0000a	3b 42 f8	 cmp	 eax, DWORD PTR [edx-8]
  0000d	7f 0c		 jg	 SHORT $L103842

; 794  : 			AtlThrow(E_INVALIDARG);
; 795  : 			
; 796  : 		GetData()->nDataLength = nLength;

  0000f	89 42 f4	 mov	 DWORD PTR [edx-12], eax

; 797  : 		m_pszData[nLength] = 0;

  00012	8b 09		 mov	 ecx, DWORD PTR [ecx]
  00014	c6 04 08 00	 mov	 BYTE PTR [eax+ecx], 0

; 798  : 	}

  00018	c2 04 00	 ret	 4
$L103842:
  0001b	68 57 00 07 80	 push	 -2147024809		; 80070057H
  00020	e8 00 00 00 00	 call	 ?AtlThrow@ATL@@YGXJ@Z	; ATL::AtlThrow
$L110311:
$L110310:
  00025	cc		 int	 3
?SetLength@?$CSimpleStringT@D$0A@@ATL@@AAEXH@Z ENDP	; ATL::CSimpleStringT<char,0>::SetLength
_TEXT	ENDS
PUBLIC	?_Inside@?$basic_string@DU?$char_traits@D@std@@V?$allocator@D@2@@std@@IAE_NPBD@Z ; std::basic_string<char,std::char_traits<char>,std::allocator<char> >::_Inside
; Function compile flags: /Ogty
; File c:\program files (x86)\microsoft visual studio .net 2003\vc7\include\xstring
;	COMDAT ?_Inside@?$basic_string@DU?$char_traits@D@std@@V?$allocator@D@2@@std@@IAE_NPBD@Z
_TEXT	SEGMENT
__Ptr$ = 8						; size = 4
?_Inside@?$basic_string@DU?$char_traits@D@std@@V?$allocator@D@2@@std@@IAE_NPBD@Z PROC NEAR ; std::basic_string<char,std::char_traits<char>,std::allocator<char> >::_Inside, COMDAT
; _this$ = ecx

; 1494 : 		{	// test if _Ptr points inside string

  00000	56		 push	 esi

; 1495 : 		if (_Ptr < _Myptr() || _Myptr() + _Mysize <= _Ptr)

  00001	8b 71 18	 mov	 esi, DWORD PTR [ecx+24]
  00004	83 fe 10	 cmp	 esi, 16			; 00000010H
  00007	57		 push	 edi
  00008	8d 41 04	 lea	 eax, DWORD PTR [ecx+4]
  0000b	72 04		 jb	 SHORT $L110320
  0000d	8b 10		 mov	 edx, DWORD PTR [eax]
  0000f	eb 02		 jmp	 SHORT $L110321
$L110320:
  00011	8b d0		 mov	 edx, eax
$L110321:
  00013	8b 7c 24 0c	 mov	 edi, DWORD PTR __Ptr$[esp+4]
  00017	3b fa		 cmp	 edi, edx
  00019	72 17		 jb	 SHORT $L103860
  0001b	83 fe 10	 cmp	 esi, 16			; 00000010H
  0001e	72 02		 jb	 SHORT $L110328
  00020	8b 00		 mov	 eax, DWORD PTR [eax]
$L110328:
  00022	8b 49 14	 mov	 ecx, DWORD PTR [ecx+20]
  00025	03 c8		 add	 ecx, eax
  00027	3b cf		 cmp	 ecx, edi
  00029	76 07		 jbe	 SHORT $L103860
  0002b	5f		 pop	 edi

; 1497 : 		else
; 1498 : 			return (true);

  0002c	b0 01		 mov	 al, 1
  0002e	5e		 pop	 esi

; 1499 : 		}

  0002f	c2 04 00	 ret	 4
$L103860:
  00032	5f		 pop	 edi

; 1496 : 			return (false);	// don't ask

  00033	32 c0		 xor	 al, al
  00035	5e		 pop	 esi

; 1499 : 		}

  00036	c2 04 00	 ret	 4
?_Inside@?$basic_string@DU?$char_traits@D@std@@V?$allocator@D@2@@std@@IAE_NPBD@Z ENDP ; std::basic_string<char,std::char_traits<char>,std::allocator<char> >::_Inside
_TEXT	ENDS
PUBLIC	?StringLength@?$CSimpleStringT@D$0A@@ATL@@SAHPBD@Z ; ATL::CSimpleStringT<char,0>::StringLength
; Function compile flags: /Ogty
; File c:\program files (x86)\microsoft visual studio .net 2003\vc7\atlmfc\include\atlsimpstr.h
;	COMDAT ?StringLength@?$CSimpleStringT@D$0A@@ATL@@SAHPBD@Z
_TEXT	SEGMENT
_psz$ = 8						; size = 4
?StringLength@?$CSimpleStringT@D$0A@@ATL@@SAHPBD@Z PROC NEAR ; ATL::CSimpleStringT<char,0>::StringLength, COMDAT

; 678  : 		if( psz == NULL )

  00000	8b 44 24 04	 mov	 eax, DWORD PTR _psz$[esp-4]
  00004	85 c0		 test	 eax, eax
  00006	75 01		 jne	 SHORT $L103874

; 683  : 	}

  00008	c3		 ret	 0
$L103874:

; 679  : 		{
; 680  : 			return( 0 );
; 681  : 		}
; 682  : 		return( int( strlen( psz ) ) );

  00009	8d 50 01	 lea	 edx, DWORD PTR [eax+1]
  0000c	8d 64 24 00	 npad	 4
$L110332:
  00010	8a 08		 mov	 cl, BYTE PTR [eax]
  00012	40		 inc	 eax
  00013	84 c9		 test	 cl, cl
  00015	75 f9		 jne	 SHORT $L110332
  00017	2b c2		 sub	 eax, edx

; 683  : 	}

  00019	c3		 ret	 0
?StringLength@?$CSimpleStringT@D$0A@@ATL@@SAHPBD@Z ENDP	; ATL::CSimpleStringT<char,0>::StringLength
_TEXT	ENDS
PUBLIC	?max_size@?$allocator@D@std@@QBEIXZ		; std::allocator<char>::max_size
; Function compile flags: /Ogty
; File c:\program files (x86)\microsoft visual studio .net 2003\vc7\include\xmemory
;	COMDAT ?max_size@?$allocator@D@std@@QBEIXZ
_TEXT	SEGMENT
?max_size@?$allocator@D@std@@QBEIXZ PROC NEAR		; std::allocator<char>::max_size, COMDAT
; _this$ = ecx

; 157  : 		_SIZT _Count = (_SIZT)(-1) / sizeof (_Ty);
; 158  : 		return (0 < _Count ? _Count : 1);

  00000	83 c8 ff	 or	 eax, -1

; 159  : 		}

  00003	c3		 ret	 0
?max_size@?$allocator@D@std@@QBEIXZ ENDP		; std::allocator<char>::max_size
_TEXT	ENDS
PUBLIC	?Empty@?$CSimpleStringT@D$0A@@ATL@@QAEXXZ	; ATL::CSimpleStringT<char,0>::Empty
; Function compile flags: /Ogty
; File c:\program files (x86)\microsoft visual studio .net 2003\vc7\atlmfc\include\atlsimpstr.h
;	COMDAT ?Empty@?$CSimpleStringT@D$0A@@ATL@@QAEXXZ
_TEXT	SEGMENT
?Empty@?$CSimpleStringT@D$0A@@ATL@@QAEXXZ PROC NEAR	; ATL::CSimpleStringT<char,0>::Empty, COMDAT
; _this$ = ecx

; 421  : 	{

  00000	56		 push	 esi
  00001	8b f1		 mov	 esi, ecx

; 422  : 		CStringData* pOldData = GetData();

  00003	8b 0e		 mov	 ecx, DWORD PTR [esi]

; 423  : 		IAtlStringMgr* pStringMgr = pOldData->pStringMgr;
; 424  : 		if( pOldData->nDataLength == 0 )

  00005	8b 51 f4	 mov	 edx, DWORD PTR [ecx-12]
  00008	85 d2		 test	 edx, edx
  0000a	8d 41 f0	 lea	 eax, DWORD PTR [ecx-16]
  0000d	57		 push	 edi
  0000e	8b 38		 mov	 edi, DWORD PTR [eax]
  00010	74 4c		 je	 SHORT $L110371
  00012	53		 push	 ebx

; 425  : 		{
; 426  : 			return;
; 427  : 		}
; 428  : 
; 429  : 		if( pOldData->IsLocked() )

  00013	8b 58 0c	 mov	 ebx, DWORD PTR [eax+12]
  00016	8d 50 0c	 lea	 edx, DWORD PTR [eax+12]
  00019	85 db		 test	 ebx, ebx
  0001b	5b		 pop	 ebx
  0001c	7d 20		 jge	 SHORT $L103893

; 430  : 		{
; 431  : 			// Don't reallocate a locked buffer that's shrinking
; 432  : 			SetLength( 0 );

  0001e	8b 41 f8	 mov	 eax, DWORD PTR [ecx-8]
  00021	85 c0		 test	 eax, eax
  00023	7d 0a		 jge	 SHORT $L110355
  00025	68 57 00 07 80	 push	 -2147024809		; 80070057H
  0002a	e8 00 00 00 00	 call	 ?AtlThrow@ATL@@YGXJ@Z	; ATL::AtlThrow
$L110376:
$L110355:
  0002f	c7 41 f4 00 00
	00 00		 mov	 DWORD PTR [ecx-12], 0
  00036	8b 06		 mov	 eax, DWORD PTR [esi]
  00038	5f		 pop	 edi
  00039	c6 00 00	 mov	 BYTE PTR [eax], 0
  0003c	5e		 pop	 esi

; 439  : 		}
; 440  : 	}

  0003d	c3		 ret	 0
$L103893:

; 433  : 		}
; 434  : 		else
; 435  : 		{
; 436  : 			pOldData->Release();

  0003e	83 c9 ff	 or	 ecx, -1
  00041	f0 0f c1 0a	 lock	  xadd	 DWORD PTR [edx], ecx
  00045	49		 dec	 ecx
  00046	85 c9		 test	 ecx, ecx
  00048	7f 08		 jg	 SHORT $L110366
  0004a	8b 08		 mov	 ecx, DWORD PTR [eax]
  0004c	8b 11		 mov	 edx, DWORD PTR [ecx]
  0004e	50		 push	 eax
  0004f	ff 52 04	 call	 DWORD PTR [edx+4]
$L110366:

; 437  : 			CStringData* pNewData = pStringMgr->GetNilString();

  00052	8b 07		 mov	 eax, DWORD PTR [edi]
  00054	8b cf		 mov	 ecx, edi
  00056	ff 50 0c	 call	 DWORD PTR [eax+12]

; 438  : 			Attach( pNewData );

  00059	83 c0 10	 add	 eax, 16			; 00000010H
  0005c	89 06		 mov	 DWORD PTR [esi], eax
$L110371:
  0005e	5f		 pop	 edi
  0005f	5e		 pop	 esi

; 439  : 		}
; 440  : 	}

  00060	c3		 ret	 0
$L110375:
?Empty@?$CSimpleStringT@D$0A@@ATL@@QAEXXZ ENDP		; ATL::CSimpleStringT<char,0>::Empty
_TEXT	ENDS
PUBLIC	?GetString@?$CSimpleStringT@D$0A@@ATL@@QBEPBDXZ	; ATL::CSimpleStringT<char,0>::GetString
; Function compile flags: /Ogty
;	COMDAT ?GetString@?$CSimpleStringT@D$0A@@ATL@@QBEPBDXZ
_TEXT	SEGMENT
?GetString@?$CSimpleStringT@D$0A@@ATL@@QBEPBDXZ PROC NEAR ; ATL::CSimpleStringT<char,0>::GetString, COMDAT
; _this$ = ecx

; 510  : 		return( m_pszData );

  00000	8b 01		 mov	 eax, DWORD PTR [ecx]

; 511  : 	}

  00002	c3		 ret	 0
?GetString@?$CSimpleStringT@D$0A@@ATL@@QBEPBDXZ ENDP	; ATL::CSimpleStringT<char,0>::GetString
_TEXT	ENDS
PUBLIC	?CopyCharsOverlapped@?$CSimpleStringT@D$0A@@ATL@@SAXPADPBDH@Z ; ATL::CSimpleStringT<char,0>::CopyCharsOverlapped
; Function compile flags: /Ogty
;	COMDAT ?CopyCharsOverlapped@?$CSimpleStringT@D$0A@@ATL@@SAXPADPBDH@Z
_TEXT	SEGMENT
_pchDest$ = 8						; size = 4
_pchSrc$ = 12						; size = 4
_nChars$ = 16						; size = 4
?CopyCharsOverlapped@?$CSimpleStringT@D$0A@@ATL@@SAXPADPBDH@Z PROC NEAR ; ATL::CSimpleStringT<char,0>::CopyCharsOverlapped, COMDAT

; 657  : 		memmove( pchDest, pchSrc, nChars*sizeof( XCHAR ) );

  00000	e9 00 00 00 00	 jmp	 _memmove
?CopyCharsOverlapped@?$CSimpleStringT@D$0A@@ATL@@SAXPADPBDH@Z ENDP ; ATL::CSimpleStringT<char,0>::CopyCharsOverlapped
_TEXT	ENDS
PUBLIC	??$_Allocate@D@std@@YAPADIPAD@Z			; std::_Allocate<char>
; Function compile flags: /Ogty
; File c:\program files (x86)\microsoft visual studio .net 2003\vc7\include\xmemory
;	COMDAT ??$_Allocate@D@std@@YAPADIPAD@Z
_TEXT	SEGMENT
__Count$ = 8						; size = 4
___formal$ = 12						; size = 4
??$_Allocate@D@std@@YAPADIPAD@Z PROC NEAR		; std::_Allocate<char>, COMDAT

; 34   : 	return ((_Ty _FARQ *)operator new(_Count * sizeof (_Ty)));

  00000	8b 44 24 04	 mov	 eax, DWORD PTR __Count$[esp-4]
  00004	50		 push	 eax
  00005	e8 00 00 00 00	 call	 ??2@YAPAXI@Z		; operator new
  0000a	83 c4 04	 add	 esp, 4

; 35   : 	}

  0000d	c3		 ret	 0
??$_Allocate@D@std@@YAPADIPAD@Z ENDP			; std::_Allocate<char>
_TEXT	ENDS
PUBLIC	??0iterator@?$_Tree@V?$_Tmap_traits@KPAVCTPlayer@@U?$less@K@std@@V?$allocator@U?$pair@$$CBKPAVCTPlayer@@@std@@@3@$0A@@std@@@std@@QAE@XZ ; std::_Tree<std::_Tmap_traits<unsigned long,CTPlayer *,std::less<unsigned long>,std::allocator<std::pair<unsigned long const ,CTPlayer *> >,0> >::iterator::iterator
; Function compile flags: /Ogty
; File c:\program files (x86)\microsoft visual studio .net 2003\vc7\include\xtree
;	COMDAT ??0iterator@?$_Tree@V?$_Tmap_traits@KPAVCTPlayer@@U?$less@K@std@@V?$allocator@U?$pair@$$CBKPAVCTPlayer@@@std@@@3@$0A@@std@@@std@@QAE@XZ
_TEXT	SEGMENT
??0iterator@?$_Tree@V?$_Tmap_traits@KPAVCTPlayer@@U?$less@K@std@@V?$allocator@U?$pair@$$CBKPAVCTPlayer@@@std@@@3@$0A@@std@@@std@@QAE@XZ PROC NEAR ; std::_Tree<std::_Tmap_traits<unsigned long,CTPlayer *,std::less<unsigned long>,std::allocator<std::pair<unsigned long const ,CTPlayer *> >,0> >::iterator::iterator, COMDAT
; _this$ = ecx

; 304  : 		iterator()

  00000	8b c1		 mov	 eax, ecx
  00002	c7 00 00 00 00
	00		 mov	 DWORD PTR [eax], 0

; 305  : 			{	// construct with null node pointer
; 306  : 			}

  00008	c3		 ret	 0
??0iterator@?$_Tree@V?$_Tmap_traits@KPAVCTPlayer@@U?$less@K@std@@V?$allocator@U?$pair@$$CBKPAVCTPlayer@@@std@@@3@$0A@@std@@@std@@QAE@XZ ENDP ; std::_Tree<std::_Tmap_traits<unsigned long,CTPlayer *,std::less<unsigned long>,std::allocator<std::pair<unsigned long const ,CTPlayer *> >,0> >::iterator::iterator
_TEXT	ENDS
PUBLIC	??9const_iterator@?$_Tree@V?$_Tmap_traits@KPAVCTPlayer@@U?$less@K@std@@V?$allocator@U?$pair@$$CBKPAVCTPlayer@@@std@@@3@$0A@@std@@@std@@QBE_NABV012@@Z ; std::_Tree<std::_Tmap_traits<unsigned long,CTPlayer *,std::less<unsigned long>,std::allocator<std::pair<unsigned long const ,CTPlayer *> >,0> >::const_iterator::operator!=
; Function compile flags: /Ogty
;	COMDAT ??9const_iterator@?$_Tree@V?$_Tmap_traits@KPAVCTPlayer@@U?$less@K@std@@V?$allocator@U?$pair@$$CBKPAVCTPlayer@@@std@@@3@$0A@@std@@@std@@QBE_NABV012@@Z
_TEXT	SEGMENT
__Right$ = 8						; size = 4
??9const_iterator@?$_Tree@V?$_Tmap_traits@KPAVCTPlayer@@U?$less@K@std@@V?$allocator@U?$pair@$$CBKPAVCTPlayer@@@std@@@3@$0A@@std@@@std@@QBE_NABV012@@Z PROC NEAR ; std::_Tree<std::_Tmap_traits<unsigned long,CTPlayer *,std::less<unsigned long>,std::allocator<std::pair<unsigned long const ,CTPlayer *> >,0> >::const_iterator::operator!=, COMDAT
; _this$ = ecx

; 246  : 			return (!(*this == _Right));

  00000	8b 01		 mov	 eax, DWORD PTR [ecx]
  00002	8b 54 24 04	 mov	 edx, DWORD PTR __Right$[esp-4]
  00006	56		 push	 esi
  00007	8b 32		 mov	 esi, DWORD PTR [edx]
  00009	33 c9		 xor	 ecx, ecx
  0000b	3b c6		 cmp	 eax, esi
  0000d	0f 95 c1	 setne	 cl
  00010	8a c1		 mov	 al, cl
  00012	5e		 pop	 esi

; 247  : 			}

  00013	c2 04 00	 ret	 4
??9const_iterator@?$_Tree@V?$_Tmap_traits@KPAVCTPlayer@@U?$less@K@std@@V?$allocator@U?$pair@$$CBKPAVCTPlayer@@@std@@@3@$0A@@std@@@std@@QBE_NABV012@@Z ENDP ; std::_Tree<std::_Tmap_traits<unsigned long,CTPlayer *,std::less<unsigned long>,std::allocator<std::pair<unsigned long const ,CTPlayer *> >,0> >::const_iterator::operator!=
_TEXT	ENDS
PUBLIC	??9const_iterator@?$_Tree@V?$_Tmap_traits@GV?$map@KPAVCTPlayer@@U?$less@K@std@@V?$allocator@U?$pair@$$CBKPAVCTPlayer@@@std@@@3@@std@@U?$less@G@2@V?$allocator@U?$pair@$$CBGV?$map@KPAVCTPlayer@@U?$less@K@std@@V?$allocator@U?$pair@$$CBKPAVCTPlayer@@@std@@@3@@std@@@std@@@2@$0A@@std@@@std@@QBE_NABV012@@Z ; std::_Tree<std::_Tmap_traits<unsigned short,std::map<unsigned long,CTPlayer *,std::less<unsigned long>,std::allocator<std::pair<unsigned long const ,CTPlayer *> > >,std::less<unsigned short>,std::allocator<std::pair<unsigned short const ,std::map<unsigned long,CTPlayer *,std::less<unsigned long>,std::allocator<std::pair<unsigned long const ,CTPlayer *> > > > >,0> >::const_iterator::operator!=
; Function compile flags: /Ogty
;	COMDAT ??9const_iterator@?$_Tree@V?$_Tmap_traits@GV?$map@KPAVCTPlayer@@U?$less@K@std@@V?$allocator@U?$pair@$$CBKPAVCTPlayer@@@std@@@3@@std@@U?$less@G@2@V?$allocator@U?$pair@$$CBGV?$map@KPAVCTPlayer@@U?$less@K@std@@V?$allocator@U?$pair@$$CBKPAVCTPlayer@@@std@@@3@@std@@@std@@@2@$0A@@std@@@std@@QBE_NABV012@@Z
_TEXT	SEGMENT
__Right$ = 8						; size = 4
??9const_iterator@?$_Tree@V?$_Tmap_traits@GV?$map@KPAVCTPlayer@@U?$less@K@std@@V?$allocator@U?$pair@$$CBKPAVCTPlayer@@@std@@@3@@std@@U?$less@G@2@V?$allocator@U?$pair@$$CBGV?$map@KPAVCTPlayer@@U?$less@K@std@@V?$allocator@U?$pair@$$CBKPAVCTPlayer@@@std@@@3@@std@@@std@@@2@$0A@@std@@@std@@QBE_NABV012@@Z PROC NEAR ; std::_Tree<std::_Tmap_traits<unsigned short,std::map<unsigned long,CTPlayer *,std::less<unsigned long>,std::allocator<std::pair<unsigned long const ,CTPlayer *> > >,std::less<unsigned short>,std::allocator<std::pair<unsigned short const ,std::map<unsigned long,CTPlayer *,std::less<unsigned long>,std::allocator<std::pair<unsigned long const ,CTPlayer *> > > > >,0> >::const_iterator::operator!=, COMDAT
; _this$ = ecx

; 246  : 			return (!(*this == _Right));

  00000	8b 01		 mov	 eax, DWORD PTR [ecx]
  00002	8b 54 24 04	 mov	 edx, DWORD PTR __Right$[esp-4]
  00006	56		 push	 esi
  00007	8b 32		 mov	 esi, DWORD PTR [edx]
  00009	33 c9		 xor	 ecx, ecx
  0000b	3b c6		 cmp	 eax, esi
  0000d	0f 95 c1	 setne	 cl
  00010	8a c1		 mov	 al, cl
  00012	5e		 pop	 esi

; 247  : 			}

  00013	c2 04 00	 ret	 4
??9const_iterator@?$_Tree@V?$_Tmap_traits@GV?$map@KPAVCTPlayer@@U?$less@K@std@@V?$allocator@U?$pair@$$CBKPAVCTPlayer@@@std@@@3@@std@@U?$less@G@2@V?$allocator@U?$pair@$$CBGV?$map@KPAVCTPlayer@@U?$less@K@std@@V?$allocator@U?$pair@$$CBKPAVCTPlayer@@@std@@@3@@std@@@std@@@2@$0A@@std@@@std@@QBE_NABV012@@Z ENDP ; std::_Tree<std::_Tmap_traits<unsigned short,std::map<unsigned long,CTPlayer *,std::less<unsigned long>,std::allocator<std::pair<unsigned long const ,CTPlayer *> > >,std::less<unsigned short>,std::allocator<std::pair<unsigned short const ,std::map<unsigned long,CTPlayer *,std::less<unsigned long>,std::allocator<std::pair<unsigned long const ,CTPlayer *> > > > >,0> >::const_iterator::operator!=
_TEXT	ENDS
PUBLIC	??0iterator@?$_Tree@V?$_Tmap_traits@GPAVCTParty@@U?$less@G@std@@V?$allocator@U?$pair@$$CBGPAVCTParty@@@std@@@3@$0A@@std@@@std@@QAE@XZ ; std::_Tree<std::_Tmap_traits<unsigned short,CTParty *,std::less<unsigned short>,std::allocator<std::pair<unsigned short const ,CTParty *> >,0> >::iterator::iterator
; Function compile flags: /Ogty
;	COMDAT ??0iterator@?$_Tree@V?$_Tmap_traits@GPAVCTParty@@U?$less@G@std@@V?$allocator@U?$pair@$$CBGPAVCTParty@@@std@@@3@$0A@@std@@@std@@QAE@XZ
_TEXT	SEGMENT
??0iterator@?$_Tree@V?$_Tmap_traits@GPAVCTParty@@U?$less@G@std@@V?$allocator@U?$pair@$$CBGPAVCTParty@@@std@@@3@$0A@@std@@@std@@QAE@XZ PROC NEAR ; std::_Tree<std::_Tmap_traits<unsigned short,CTParty *,std::less<unsigned short>,std::allocator<std::pair<unsigned short const ,CTParty *> >,0> >::iterator::iterator, COMDAT
; _this$ = ecx

; 304  : 		iterator()

  00000	8b c1		 mov	 eax, ecx
  00002	c7 00 00 00 00
	00		 mov	 DWORD PTR [eax], 0

; 305  : 			{	// construct with null node pointer
; 306  : 			}

  00008	c3		 ret	 0
??0iterator@?$_Tree@V?$_Tmap_traits@GPAVCTParty@@U?$less@G@std@@V?$allocator@U?$pair@$$CBGPAVCTParty@@@std@@@3@$0A@@std@@@std@@QAE@XZ ENDP ; std::_Tree<std::_Tmap_traits<unsigned short,CTParty *,std::less<unsigned short>,std::allocator<std::pair<unsigned short const ,CTParty *> >,0> >::iterator::iterator
_TEXT	ENDS
PUBLIC	??9const_iterator@?$_Tree@V?$_Tmap_traits@GPAVCTParty@@U?$less@G@std@@V?$allocator@U?$pair@$$CBGPAVCTParty@@@std@@@3@$0A@@std@@@std@@QBE_NABV012@@Z ; std::_Tree<std::_Tmap_traits<unsigned short,CTParty *,std::less<unsigned short>,std::allocator<std::pair<unsigned short const ,CTParty *> >,0> >::const_iterator::operator!=
; Function compile flags: /Ogty
;	COMDAT ??9const_iterator@?$_Tree@V?$_Tmap_traits@GPAVCTParty@@U?$less@G@std@@V?$allocator@U?$pair@$$CBGPAVCTParty@@@std@@@3@$0A@@std@@@std@@QBE_NABV012@@Z
_TEXT	SEGMENT
__Right$ = 8						; size = 4
??9const_iterator@?$_Tree@V?$_Tmap_traits@GPAVCTParty@@U?$less@G@std@@V?$allocator@U?$pair@$$CBGPAVCTParty@@@std@@@3@$0A@@std@@@std@@QBE_NABV012@@Z PROC NEAR ; std::_Tree<std::_Tmap_traits<unsigned short,CTParty *,std::less<unsigned short>,std::allocator<std::pair<unsigned short const ,CTParty *> >,0> >::const_iterator::operator!=, COMDAT
; _this$ = ecx

; 246  : 			return (!(*this == _Right));

  00000	8b 01		 mov	 eax, DWORD PTR [ecx]
  00002	8b 54 24 04	 mov	 edx, DWORD PTR __Right$[esp-4]
  00006	56		 push	 esi
  00007	8b 32		 mov	 esi, DWORD PTR [edx]
  00009	33 c9		 xor	 ecx, ecx
  0000b	3b c6		 cmp	 eax, esi
  0000d	0f 95 c1	 setne	 cl
  00010	8a c1		 mov	 al, cl
  00012	5e		 pop	 esi

; 247  : 			}

  00013	c2 04 00	 ret	 4
??9const_iterator@?$_Tree@V?$_Tmap_traits@GPAVCTParty@@U?$less@G@std@@V?$allocator@U?$pair@$$CBGPAVCTParty@@@std@@@3@$0A@@std@@@std@@QBE_NABV012@@Z ENDP ; std::_Tree<std::_Tmap_traits<unsigned short,CTParty *,std::less<unsigned short>,std::allocator<std::pair<unsigned short const ,CTParty *> >,0> >::const_iterator::operator!=
_TEXT	ENDS
PUBLIC	?Compare@?$CStringT@DV?$StrTraitATL@DV?$ChTraitsCRT@D@ATL@@@ATL@@@ATL@@QBEHPBD@Z ; ATL::CStringT<char,ATL::StrTraitATL<char,ATL::ChTraitsCRT<char> > >::Compare
; Function compile flags: /Ogty
; File c:\program files (x86)\microsoft visual studio .net 2003\vc7\atlmfc\include\cstringt.h
;	COMDAT ?Compare@?$CStringT@DV?$StrTraitATL@DV?$ChTraitsCRT@D@ATL@@@ATL@@@ATL@@QBEHPBD@Z
_TEXT	SEGMENT
_psz$ = 8						; size = 4
?Compare@?$CStringT@DV?$StrTraitATL@DV?$ChTraitsCRT@D@ATL@@@ATL@@@ATL@@QBEHPBD@Z PROC NEAR ; ATL::CStringT<char,ATL::StrTraitATL<char,ATL::ChTraitsCRT<char> > >::Compare, COMDAT
; _this$ = ecx

; 1088 : 		ATLASSERT( AtlIsValidString( psz ) );
; 1089 : 		return( StringTraits::StringCompare( GetString(), psz ) );

  00000	8b 44 24 04	 mov	 eax, DWORD PTR _psz$[esp-4]
  00004	8b 09		 mov	 ecx, DWORD PTR [ecx]
  00006	50		 push	 eax
  00007	51		 push	 ecx
  00008	e8 00 00 00 00	 call	 __mbscmp
  0000d	83 c4 08	 add	 esp, 8

; 1090 : 	}

  00010	c2 04 00	 ret	 4
?Compare@?$CStringT@DV?$StrTraitATL@DV?$ChTraitsCRT@D@ATL@@@ATL@@@ATL@@QBEHPBD@Z ENDP ; ATL::CStringT<char,ATL::StrTraitATL<char,ATL::ChTraitsCRT<char> > >::Compare
_TEXT	ENDS
PUBLIC	?GetManager@?$CSimpleStringT@D$0A@@ATL@@QBEPAUIAtlStringMgr@2@XZ ; ATL::CSimpleStringT<char,0>::GetManager
; Function compile flags: /Ogty
; File c:\program files (x86)\microsoft visual studio .net 2003\vc7\atlmfc\include\atlsimpstr.h
;	COMDAT ?GetManager@?$CSimpleStringT@D$0A@@ATL@@QBEPAUIAtlStringMgr@2@XZ
_TEXT	SEGMENT
?GetManager@?$CSimpleStringT@D$0A@@ATL@@QBEPAUIAtlStringMgr@2@XZ PROC NEAR ; ATL::CSimpleStringT<char,0>::GetManager, COMDAT
; _this$ = ecx

; 505  : 		return( GetData()->pStringMgr->Clone() );

  00000	8b 01		 mov	 eax, DWORD PTR [ecx]
  00002	8b 48 f0	 mov	 ecx, DWORD PTR [eax-16]
  00005	8b 11		 mov	 edx, DWORD PTR [ecx]
  00007	ff 62 10	 jmp	 DWORD PTR [edx+16]
?GetManager@?$CSimpleStringT@D$0A@@ATL@@QBEPAUIAtlStringMgr@2@XZ ENDP ; ATL::CSimpleStringT<char,0>::GetManager
_TEXT	ENDS
PUBLIC	?_Key@?$_Tree@V?$_Tmap_traits@V?$CStringT@DV?$StrTraitATL@DV?$ChTraitsCRT@D@ATL@@@ATL@@@ATL@@EU?$less@V?$CStringT@DV?$StrTraitATL@DV?$ChTraitsCRT@D@ATL@@@ATL@@@ATL@@@std@@V?$allocator@U?$pair@$$CBV?$CStringT@DV?$StrTraitATL@DV?$ChTraitsCRT@D@ATL@@@ATL@@@ATL@@E@std@@@4@$0A@@std@@@std@@KAABV?$CStringT@DV?$StrTraitATL@DV?$ChTraitsCRT@D@ATL@@@ATL@@@ATL@@PAU_Node@?$_Tree_nod@V?$_Tmap_traits@V?$CStringT@DV?$StrTraitATL@DV?$ChTraitsCRT@D@ATL@@@ATL@@@ATL@@EU?$less@V?$CStringT@DV?$StrTraitATL@DV?$ChTraitsCRT@D@ATL@@@ATL@@@ATL@@@std@@V?$allocator@U?$pair@$$CBV?$CStringT@DV?$StrTraitATL@DV?$ChTraitsCRT@D@ATL@@@ATL@@@ATL@@E@std@@@4@$0A@@std@@@2@@Z ; std::_Tree<std::_Tmap_traits<ATL::CStringT<char,ATL::StrTraitATL<char,ATL::ChTraitsCRT<char> > >,unsigned char,std::less<ATL::CStringT<char,ATL::StrTraitATL<char,ATL::ChTraitsCRT<char> > > >,std::allocator<std::pair<ATL::CStringT<char,ATL::StrTraitATL<char,ATL::ChTraitsCRT<char> > > const ,unsigned char> >,0> >::_Key
; Function compile flags: /Ogty
; File c:\program files (x86)\microsoft visual studio .net 2003\vc7\include\xtree
;	COMDAT ?_Key@?$_Tree@V?$_Tmap_traits@V?$CStringT@DV?$StrTraitATL@DV?$ChTraitsCRT@D@ATL@@@ATL@@@ATL@@EU?$less@V?$CStringT@DV?$StrTraitATL@DV?$ChTraitsCRT@D@ATL@@@ATL@@@ATL@@@std@@V?$allocator@U?$pair@$$CBV?$CStringT@DV?$StrTraitATL@DV?$ChTraitsCRT@D@ATL@@@ATL@@@ATL@@E@std@@@4@$0A@@std@@@std@@KAABV?$CStringT@DV?$StrTraitATL@DV?$ChTraitsCRT@D@ATL@@@ATL@@@ATL@@PAU_Node@?$_Tree_nod@V?$_Tmap_traits@V?$CStringT@DV?$StrTraitATL@DV?$ChTraitsCRT@D@ATL@@@ATL@@@ATL@@EU?$less@V?$CStringT@DV?$StrTraitATL@DV?$ChTraitsCRT@D@ATL@@@ATL@@@ATL@@@std@@V?$allocator@U?$pair@$$CBV?$CStringT@DV?$StrTraitATL@DV?$ChTraitsCRT@D@ATL@@@ATL@@@ATL@@E@std@@@4@$0A@@std@@@2@@Z
_TEXT	SEGMENT
__Pnode$ = 8						; size = 4
?_Key@?$_Tree@V?$_Tmap_traits@V?$CStringT@DV?$StrTraitATL@DV?$ChTraitsCRT@D@ATL@@@ATL@@@ATL@@EU?$less@V?$CStringT@DV?$StrTraitATL@DV?$ChTraitsCRT@D@ATL@@@ATL@@@ATL@@@std@@V?$allocator@U?$pair@$$CBV?$CStringT@DV?$StrTraitATL@DV?$ChTraitsCRT@D@ATL@@@ATL@@@ATL@@E@std@@@4@$0A@@std@@@std@@KAABV?$CStringT@DV?$StrTraitATL@DV?$ChTraitsCRT@D@ATL@@@ATL@@@ATL@@PAU_Node@?$_Tree_nod@V?$_Tmap_traits@V?$CStringT@DV?$StrTraitATL@DV?$ChTraitsCRT@D@ATL@@@ATL@@@ATL@@EU?$less@V?$CStringT@DV?$StrTraitATL@DV?$ChTraitsCRT@D@ATL@@@ATL@@@ATL@@@std@@V?$allocator@U?$pair@$$CBV?$CStringT@DV?$StrTraitATL@DV?$ChTraitsCRT@D@ATL@@@ATL@@@ATL@@E@std@@@4@$0A@@std@@@2@@Z PROC NEAR ; std::_Tree<std::_Tmap_traits<ATL::CStringT<char,ATL::StrTraitATL<char,ATL::ChTraitsCRT<char> > >,unsigned char,std::less<ATL::CStringT<char,ATL::StrTraitATL<char,ATL::ChTraitsCRT<char> > > >,std::allocator<std::pair<ATL::CStringT<char,ATL::StrTraitATL<char,ATL::ChTraitsCRT<char> > > const ,unsigned char> >,0> >::_Key, COMDAT

; 142  : 		return (_Mybase::_Kfn(_Myval(_Pnode)));

  00000	8b 44 24 04	 mov	 eax, DWORD PTR __Pnode$[esp-4]
  00004	83 c0 0c	 add	 eax, 12			; 0000000cH

; 143  : 		}

  00007	c3		 ret	 0
?_Key@?$_Tree@V?$_Tmap_traits@V?$CStringT@DV?$StrTraitATL@DV?$ChTraitsCRT@D@ATL@@@ATL@@@ATL@@EU?$less@V?$CStringT@DV?$StrTraitATL@DV?$ChTraitsCRT@D@ATL@@@ATL@@@ATL@@@std@@V?$allocator@U?$pair@$$CBV?$CStringT@DV?$StrTraitATL@DV?$ChTraitsCRT@D@ATL@@@ATL@@@ATL@@E@std@@@4@$0A@@std@@@std@@KAABV?$CStringT@DV?$StrTraitATL@DV?$ChTraitsCRT@D@ATL@@@ATL@@@ATL@@PAU_Node@?$_Tree_nod@V?$_Tmap_traits@V?$CStringT@DV?$StrTraitATL@DV?$ChTraitsCRT@D@ATL@@@ATL@@@ATL@@EU?$less@V?$CStringT@DV?$StrTraitATL@DV?$ChTraitsCRT@D@ATL@@@ATL@@@ATL@@@std@@V?$allocator@U?$pair@$$CBV?$CStringT@DV?$StrTraitATL@DV?$ChTraitsCRT@D@ATL@@@ATL@@@ATL@@E@std@@@4@$0A@@std@@@2@@Z ENDP ; std::_Tree<std::_Tmap_traits<ATL::CStringT<char,ATL::StrTraitATL<char,ATL::ChTraitsCRT<char> > >,unsigned char,std::less<ATL::CStringT<char,ATL::StrTraitATL<char,ATL::ChTraitsCRT<char> > > >,std::allocator<std::pair<ATL::CStringT<char,ATL::StrTraitATL<char,ATL::ChTraitsCRT<char> > > const ,unsigned char> >,0> >::_Key
_TEXT	ENDS
PUBLIC	?_Key@?$_Tree@V?$_Tmap_traits@KPAVCTPlayer@@U?$less@K@std@@V?$allocator@U?$pair@$$CBKPAVCTPlayer@@@std@@@3@$0A@@std@@@std@@KAABKPAU_Node@?$_Tree_nod@V?$_Tmap_traits@KPAVCTPlayer@@U?$less@K@std@@V?$allocator@U?$pair@$$CBKPAVCTPlayer@@@std@@@3@$0A@@std@@@2@@Z ; std::_Tree<std::_Tmap_traits<unsigned long,CTPlayer *,std::less<unsigned long>,std::allocator<std::pair<unsigned long const ,CTPlayer *> >,0> >::_Key
; Function compile flags: /Ogty
;	COMDAT ?_Key@?$_Tree@V?$_Tmap_traits@KPAVCTPlayer@@U?$less@K@std@@V?$allocator@U?$pair@$$CBKPAVCTPlayer@@@std@@@3@$0A@@std@@@std@@KAABKPAU_Node@?$_Tree_nod@V?$_Tmap_traits@KPAVCTPlayer@@U?$less@K@std@@V?$allocator@U?$pair@$$CBKPAVCTPlayer@@@std@@@3@$0A@@std@@@2@@Z
_TEXT	SEGMENT
__Pnode$ = 8						; size = 4
?_Key@?$_Tree@V?$_Tmap_traits@KPAVCTPlayer@@U?$less@K@std@@V?$allocator@U?$pair@$$CBKPAVCTPlayer@@@std@@@3@$0A@@std@@@std@@KAABKPAU_Node@?$_Tree_nod@V?$_Tmap_traits@KPAVCTPlayer@@U?$less@K@std@@V?$allocator@U?$pair@$$CBKPAVCTPlayer@@@std@@@3@$0A@@std@@@2@@Z PROC NEAR ; std::_Tree<std::_Tmap_traits<unsigned long,CTPlayer *,std::less<unsigned long>,std::allocator<std::pair<unsigned long const ,CTPlayer *> >,0> >::_Key, COMDAT

; 142  : 		return (_Mybase::_Kfn(_Myval(_Pnode)));

  00000	8b 44 24 04	 mov	 eax, DWORD PTR __Pnode$[esp-4]
  00004	83 c0 0c	 add	 eax, 12			; 0000000cH

; 143  : 		}

  00007	c3		 ret	 0
?_Key@?$_Tree@V?$_Tmap_traits@KPAVCTPlayer@@U?$less@K@std@@V?$allocator@U?$pair@$$CBKPAVCTPlayer@@@std@@@3@$0A@@std@@@std@@KAABKPAU_Node@?$_Tree_nod@V?$_Tmap_traits@KPAVCTPlayer@@U?$less@K@std@@V?$allocator@U?$pair@$$CBKPAVCTPlayer@@@std@@@3@$0A@@std@@@2@@Z ENDP ; std::_Tree<std::_Tmap_traits<unsigned long,CTPlayer *,std::less<unsigned long>,std::allocator<std::pair<unsigned long const ,CTPlayer *> >,0> >::_Key
_TEXT	ENDS
PUBLIC	?_Root@?$_Tree@V?$_Tmap_traits@KPAVCTPlayer@@U?$less@K@std@@V?$allocator@U?$pair@$$CBKPAVCTPlayer@@@std@@@3@$0A@@std@@@std@@IAEAAPAU_Node@?$_Tree_nod@V?$_Tmap_traits@KPAVCTPlayer@@U?$less@K@std@@V?$allocator@U?$pair@$$CBKPAVCTPlayer@@@std@@@3@$0A@@std@@@2@XZ ; std::_Tree<std::_Tmap_traits<unsigned long,CTPlayer *,std::less<unsigned long>,std::allocator<std::pair<unsigned long const ,CTPlayer *> >,0> >::_Root
; Function compile flags: /Ogty
;	COMDAT ?_Root@?$_Tree@V?$_Tmap_traits@KPAVCTPlayer@@U?$less@K@std@@V?$allocator@U?$pair@$$CBKPAVCTPlayer@@@std@@@3@$0A@@std@@@std@@IAEAAPAU_Node@?$_Tree_nod@V?$_Tmap_traits@KPAVCTPlayer@@U?$less@K@std@@V?$allocator@U?$pair@$$CBKPAVCTPlayer@@@std@@@3@$0A@@std@@@2@XZ
_TEXT	SEGMENT
?_Root@?$_Tree@V?$_Tmap_traits@KPAVCTPlayer@@U?$less@K@std@@V?$allocator@U?$pair@$$CBKPAVCTPlayer@@@std@@@3@$0A@@std@@@std@@IAEAAPAU_Node@?$_Tree_nod@V?$_Tmap_traits@KPAVCTPlayer@@U?$less@K@std@@V?$allocator@U?$pair@$$CBKPAVCTPlayer@@@std@@@3@$0A@@std@@@2@XZ PROC NEAR ; std::_Tree<std::_Tmap_traits<unsigned long,CTPlayer *,std::less<unsigned long>,std::allocator<std::pair<unsigned long const ,CTPlayer *> >,0> >::_Root, COMDAT
; _this$ = ecx

; 1059 : 		return (_Parent(_Myhead));

  00000	8b 41 04	 mov	 eax, DWORD PTR [ecx+4]
  00003	83 c0 04	 add	 eax, 4

; 1060 : 		}

  00006	c3		 ret	 0
?_Root@?$_Tree@V?$_Tmap_traits@KPAVCTPlayer@@U?$less@K@std@@V?$allocator@U?$pair@$$CBKPAVCTPlayer@@@std@@@3@$0A@@std@@@std@@IAEAAPAU_Node@?$_Tree_nod@V?$_Tmap_traits@KPAVCTPlayer@@U?$less@K@std@@V?$allocator@U?$pair@$$CBKPAVCTPlayer@@@std@@@3@$0A@@std@@@2@XZ ENDP ; std::_Tree<std::_Tmap_traits<unsigned long,CTPlayer *,std::less<unsigned long>,std::allocator<std::pair<unsigned long const ,CTPlayer *> >,0> >::_Root
_TEXT	ENDS
PUBLIC	?_Lmost@?$_Tree@V?$_Tmap_traits@GPAVCTParty@@U?$less@G@std@@V?$allocator@U?$pair@$$CBGPAVCTParty@@@std@@@3@$0A@@std@@@std@@IAEAAPAU_Node@?$_Tree_nod@V?$_Tmap_traits@GPAVCTParty@@U?$less@G@std@@V?$allocator@U?$pair@$$CBGPAVCTParty@@@std@@@3@$0A@@std@@@2@XZ ; std::_Tree<std::_Tmap_traits<unsigned short,CTParty *,std::less<unsigned short>,std::allocator<std::pair<unsigned short const ,CTParty *> >,0> >::_Lmost
; Function compile flags: /Ogty
;	COMDAT ?_Lmost@?$_Tree@V?$_Tmap_traits@GPAVCTParty@@U?$less@G@std@@V?$allocator@U?$pair@$$CBGPAVCTParty@@@std@@@3@$0A@@std@@@std@@IAEAAPAU_Node@?$_Tree_nod@V?$_Tmap_traits@GPAVCTParty@@U?$less@G@std@@V?$allocator@U?$pair@$$CBGPAVCTParty@@@std@@@3@$0A@@std@@@2@XZ
_TEXT	SEGMENT
?_Lmost@?$_Tree@V?$_Tmap_traits@GPAVCTParty@@U?$less@G@std@@V?$allocator@U?$pair@$$CBGPAVCTParty@@@std@@@3@$0A@@std@@@std@@IAEAAPAU_Node@?$_Tree_nod@V?$_Tmap_traits@GPAVCTParty@@U?$less@G@std@@V?$allocator@U?$pair@$$CBGPAVCTParty@@@std@@@3@$0A@@std@@@2@XZ PROC NEAR ; std::_Tree<std::_Tmap_traits<unsigned short,CTParty *,std::less<unsigned short>,std::allocator<std::pair<unsigned short const ,CTParty *> >,0> >::_Lmost, COMDAT
; _this$ = ecx

; 1005 : 		return (_Left(_Myhead));

  00000	8b 41 04	 mov	 eax, DWORD PTR [ecx+4]

; 1006 : 		}

  00003	c3		 ret	 0
?_Lmost@?$_Tree@V?$_Tmap_traits@GPAVCTParty@@U?$less@G@std@@V?$allocator@U?$pair@$$CBGPAVCTParty@@@std@@@3@$0A@@std@@@std@@IAEAAPAU_Node@?$_Tree_nod@V?$_Tmap_traits@GPAVCTParty@@U?$less@G@std@@V?$allocator@U?$pair@$$CBGPAVCTParty@@@std@@@3@$0A@@std@@@2@XZ ENDP ; std::_Tree<std::_Tmap_traits<unsigned short,CTParty *,std::less<unsigned short>,std::allocator<std::pair<unsigned short const ,CTParty *> >,0> >::_Lmost
_TEXT	ENDS
PUBLIC	?_Key@?$_Tree@V?$_Tmap_traits@GV?$map@KPAVCTPlayer@@U?$less@K@std@@V?$allocator@U?$pair@$$CBKPAVCTPlayer@@@std@@@3@@std@@U?$less@G@2@V?$allocator@U?$pair@$$CBGV?$map@KPAVCTPlayer@@U?$less@K@std@@V?$allocator@U?$pair@$$CBKPAVCTPlayer@@@std@@@3@@std@@@std@@@2@$0A@@std@@@std@@KAABGPAU_Node@?$_Tree_nod@V?$_Tmap_traits@GV?$map@KPAVCTPlayer@@U?$less@K@std@@V?$allocator@U?$pair@$$CBKPAVCTPlayer@@@std@@@3@@std@@U?$less@G@2@V?$allocator@U?$pair@$$CBGV?$map@KPAVCTPlayer@@U?$less@K@std@@V?$allocator@U?$pair@$$CBKPAVCTPlayer@@@std@@@3@@std@@@std@@@2@$0A@@std@@@2@@Z ; std::_Tree<std::_Tmap_traits<unsigned short,std::map<unsigned long,CTPlayer *,std::less<unsigned long>,std::allocator<std::pair<unsigned long const ,CTPlayer *> > >,std::less<unsigned short>,std::allocator<std::pair<unsigned short const ,std::map<unsigned long,CTPlayer *,std::less<unsigned long>,std::allocator<std::pair<unsigned long const ,CTPlayer *> > > > >,0> >::_Key
; Function compile flags: /Ogty
;	COMDAT ?_Key@?$_Tree@V?$_Tmap_traits@GV?$map@KPAVCTPlayer@@U?$less@K@std@@V?$allocator@U?$pair@$$CBKPAVCTPlayer@@@std@@@3@@std@@U?$less@G@2@V?$allocator@U?$pair@$$CBGV?$map@KPAVCTPlayer@@U?$less@K@std@@V?$allocator@U?$pair@$$CBKPAVCTPlayer@@@std@@@3@@std@@@std@@@2@$0A@@std@@@std@@KAABGPAU_Node@?$_Tree_nod@V?$_Tmap_traits@GV?$map@KPAVCTPlayer@@U?$less@K@std@@V?$allocator@U?$pair@$$CBKPAVCTPlayer@@@std@@@3@@std@@U?$less@G@2@V?$allocator@U?$pair@$$CBGV?$map@KPAVCTPlayer@@U?$less@K@std@@V?$allocator@U?$pair@$$CBKPAVCTPlayer@@@std@@@3@@std@@@std@@@2@$0A@@std@@@2@@Z
_TEXT	SEGMENT
__Pnode$ = 8						; size = 4
?_Key@?$_Tree@V?$_Tmap_traits@GV?$map@KPAVCTPlayer@@U?$less@K@std@@V?$allocator@U?$pair@$$CBKPAVCTPlayer@@@std@@@3@@std@@U?$less@G@2@V?$allocator@U?$pair@$$CBGV?$map@KPAVCTPlayer@@U?$less@K@std@@V?$allocator@U?$pair@$$CBKPAVCTPlayer@@@std@@@3@@std@@@std@@@2@$0A@@std@@@std@@KAABGPAU_Node@?$_Tree_nod@V?$_Tmap_traits@GV?$map@KPAVCTPlayer@@U?$less@K@std@@V?$allocator@U?$pair@$$CBKPAVCTPlayer@@@std@@@3@@std@@U?$less@G@2@V?$allocator@U?$pair@$$CBGV?$map@KPAVCTPlayer@@U?$less@K@std@@V?$allocator@U?$pair@$$CBKPAVCTPlayer@@@std@@@3@@std@@@std@@@2@$0A@@std@@@2@@Z PROC NEAR ; std::_Tree<std::_Tmap_traits<unsigned short,std::map<unsigned long,CTPlayer *,std::less<unsigned long>,std::allocator<std::pair<unsigned long const ,CTPlayer *> > >,std::less<unsigned short>,std::allocator<std::pair<unsigned short const ,std::map<unsigned long,CTPlayer *,std::less<unsigned long>,std::allocator<std::pair<unsigned long const ,CTPlayer *> > > > >,0> >::_Key, COMDAT

; 142  : 		return (_Mybase::_Kfn(_Myval(_Pnode)));

  00000	8b 44 24 04	 mov	 eax, DWORD PTR __Pnode$[esp-4]
  00004	83 c0 0c	 add	 eax, 12			; 0000000cH

; 143  : 		}

  00007	c3		 ret	 0
?_Key@?$_Tree@V?$_Tmap_traits@GV?$map@KPAVCTPlayer@@U?$less@K@std@@V?$allocator@U?$pair@$$CBKPAVCTPlayer@@@std@@@3@@std@@U?$less@G@2@V?$allocator@U?$pair@$$CBGV?$map@KPAVCTPlayer@@U?$less@K@std@@V?$allocator@U?$pair@$$CBKPAVCTPlayer@@@std@@@3@@std@@@std@@@2@$0A@@std@@@std@@KAABGPAU_Node@?$_Tree_nod@V?$_Tmap_traits@GV?$map@KPAVCTPlayer@@U?$less@K@std@@V?$allocator@U?$pair@$$CBKPAVCTPlayer@@@std@@@3@@std@@U?$less@G@2@V?$allocator@U?$pair@$$CBGV?$map@KPAVCTPlayer@@U?$less@K@std@@V?$allocator@U?$pair@$$CBKPAVCTPlayer@@@std@@@3@@std@@@std@@@2@$0A@@std@@@2@@Z ENDP ; std::_Tree<std::_Tmap_traits<unsigned short,std::map<unsigned long,CTPlayer *,std::less<unsigned long>,std::allocator<std::pair<unsigned long const ,CTPlayer *> > >,std::less<unsigned short>,std::allocator<std::pair<unsigned short const ,std::map<unsigned long,CTPlayer *,std::less<unsigned long>,std::allocator<std::pair<unsigned long const ,CTPlayer *> > > > >,0> >::_Key
_TEXT	ENDS
PUBLIC	??0iterator@?$_Tree@V?$_Tmap_traits@KPAVCTPlayer@@U?$less@K@std@@V?$allocator@U?$pair@$$CBKPAVCTPlayer@@@std@@@3@$0A@@std@@@std@@QAE@PAU_Node@?$_Tree_nod@V?$_Tmap_traits@KPAVCTPlayer@@U?$less@K@std@@V?$allocator@U?$pair@$$CBKPAVCTPlayer@@@std@@@3@$0A@@std@@@2@@Z ; std::_Tree<std::_Tmap_traits<unsigned long,CTPlayer *,std::less<unsigned long>,std::allocator<std::pair<unsigned long const ,CTPlayer *> >,0> >::iterator::iterator
; Function compile flags: /Ogty
;	COMDAT ??0iterator@?$_Tree@V?$_Tmap_traits@KPAVCTPlayer@@U?$less@K@std@@V?$allocator@U?$pair@$$CBKPAVCTPlayer@@@std@@@3@$0A@@std@@@std@@QAE@PAU_Node@?$_Tree_nod@V?$_Tmap_traits@KPAVCTPlayer@@U?$less@K@std@@V?$allocator@U?$pair@$$CBKPAVCTPlayer@@@std@@@3@$0A@@std@@@2@@Z
_TEXT	SEGMENT
__Pnode$ = 8						; size = 4
??0iterator@?$_Tree@V?$_Tmap_traits@KPAVCTPlayer@@U?$less@K@std@@V?$allocator@U?$pair@$$CBKPAVCTPlayer@@@std@@@3@$0A@@std@@@std@@QAE@PAU_Node@?$_Tree_nod@V?$_Tmap_traits@KPAVCTPlayer@@U?$less@K@std@@V?$allocator@U?$pair@$$CBKPAVCTPlayer@@@std@@@3@$0A@@std@@@2@@Z PROC NEAR ; std::_Tree<std::_Tmap_traits<unsigned long,CTPlayer *,std::less<unsigned long>,std::allocator<std::pair<unsigned long const ,CTPlayer *> >,0> >::iterator::iterator, COMDAT
; _this$ = ecx

; 312  : 			{	// construct with node pointer _Pnode

  00000	8b c1		 mov	 eax, ecx
  00002	8b 4c 24 04	 mov	 ecx, DWORD PTR __Pnode$[esp-4]
  00006	89 08		 mov	 DWORD PTR [eax], ecx

; 313  : 			}

  00008	c2 04 00	 ret	 4
??0iterator@?$_Tree@V?$_Tmap_traits@KPAVCTPlayer@@U?$less@K@std@@V?$allocator@U?$pair@$$CBKPAVCTPlayer@@@std@@@3@$0A@@std@@@std@@QAE@PAU_Node@?$_Tree_nod@V?$_Tmap_traits@KPAVCTPlayer@@U?$less@K@std@@V?$allocator@U?$pair@$$CBKPAVCTPlayer@@@std@@@3@$0A@@std@@@2@@Z ENDP ; std::_Tree<std::_Tmap_traits<unsigned long,CTPlayer *,std::less<unsigned long>,std::allocator<std::pair<unsigned long const ,CTPlayer *> >,0> >::iterator::iterator
_TEXT	ENDS
PUBLIC	??Dconst_iterator@?$_Tree@V?$_Tmap_traits@KPAVCTPlayer@@U?$less@K@std@@V?$allocator@U?$pair@$$CBKPAVCTPlayer@@@std@@@3@$0A@@std@@@std@@QBEABU?$pair@$$CBKPAVCTPlayer@@@2@XZ ; std::_Tree<std::_Tmap_traits<unsigned long,CTPlayer *,std::less<unsigned long>,std::allocator<std::pair<unsigned long const ,CTPlayer *> >,0> >::const_iterator::operator*
; Function compile flags: /Ogty
;	COMDAT ??Dconst_iterator@?$_Tree@V?$_Tmap_traits@KPAVCTPlayer@@U?$less@K@std@@V?$allocator@U?$pair@$$CBKPAVCTPlayer@@@std@@@3@$0A@@std@@@std@@QBEABU?$pair@$$CBKPAVCTPlayer@@@2@XZ
_TEXT	SEGMENT
??Dconst_iterator@?$_Tree@V?$_Tmap_traits@KPAVCTPlayer@@U?$less@K@std@@V?$allocator@U?$pair@$$CBKPAVCTPlayer@@@std@@@3@$0A@@std@@@std@@QBEABU?$pair@$$CBKPAVCTPlayer@@@2@XZ PROC NEAR ; std::_Tree<std::_Tmap_traits<unsigned long,CTPlayer *,std::less<unsigned long>,std::allocator<std::pair<unsigned long const ,CTPlayer *> >,0> >::const_iterator::operator*, COMDAT
; _this$ = ecx

; 205  : 			return (_Myval(_Ptr));

  00000	8b 01		 mov	 eax, DWORD PTR [ecx]
  00002	83 c0 0c	 add	 eax, 12			; 0000000cH

; 206  : 			}

  00005	c3		 ret	 0
??Dconst_iterator@?$_Tree@V?$_Tmap_traits@KPAVCTPlayer@@U?$less@K@std@@V?$allocator@U?$pair@$$CBKPAVCTPlayer@@@std@@@3@$0A@@std@@@std@@QBEABU?$pair@$$CBKPAVCTPlayer@@@2@XZ ENDP ; std::_Tree<std::_Tmap_traits<unsigned long,CTPlayer *,std::less<unsigned long>,std::allocator<std::pair<unsigned long const ,CTPlayer *> >,0> >::const_iterator::operator*
_TEXT	ENDS
PUBLIC	??0iterator@?$_Tree@V?$_Tmap_traits@GV?$map@KPAVCTPlayer@@U?$less@K@std@@V?$allocator@U?$pair@$$CBKPAVCTPlayer@@@std@@@3@@std@@U?$less@G@2@V?$allocator@U?$pair@$$CBGV?$map@KPAVCTPlayer@@U?$less@K@std@@V?$allocator@U?$pair@$$CBKPAVCTPlayer@@@std@@@3@@std@@@std@@@2@$0A@@std@@@std@@QAE@PAU_Node@?$_Tree_nod@V?$_Tmap_traits@GV?$map@KPAVCTPlayer@@U?$less@K@std@@V?$allocator@U?$pair@$$CBKPAVCTPlayer@@@std@@@3@@std@@U?$less@G@2@V?$allocator@U?$pair@$$CBGV?$map@KPAVCTPlayer@@U?$less@K@std@@V?$allocator@U?$pair@$$CBKPAVCTPlayer@@@std@@@3@@std@@@std@@@2@$0A@@std@@@2@@Z ; std::_Tree<std::_Tmap_traits<unsigned short,std::map<unsigned long,CTPlayer *,std::less<unsigned long>,std::allocator<std::pair<unsigned long const ,CTPlayer *> > >,std::less<unsigned short>,std::allocator<std::pair<unsigned short const ,std::map<unsigned long,CTPlayer *,std::less<unsigned long>,std::allocator<std::pair<unsigned long const ,CTPlayer *> > > > >,0> >::iterator::iterator
; Function compile flags: /Ogty
;	COMDAT ??0iterator@?$_Tree@V?$_Tmap_traits@GV?$map@KPAVCTPlayer@@U?$less@K@std@@V?$allocator@U?$pair@$$CBKPAVCTPlayer@@@std@@@3@@std@@U?$less@G@2@V?$allocator@U?$pair@$$CBGV?$map@KPAVCTPlayer@@U?$less@K@std@@V?$allocator@U?$pair@$$CBKPAVCTPlayer@@@std@@@3@@std@@@std@@@2@$0A@@std@@@std@@QAE@PAU_Node@?$_Tree_nod@V?$_Tmap_traits@GV?$map@KPAVCTPlayer@@U?$less@K@std@@V?$allocator@U?$pair@$$CBKPAVCTPlayer@@@std@@@3@@std@@U?$less@G@2@V?$allocator@U?$pair@$$CBGV?$map@KPAVCTPlayer@@U?$less@K@std@@V?$allocator@U?$pair@$$CBKPAVCTPlayer@@@std@@@3@@std@@@std@@@2@$0A@@std@@@2@@Z
_TEXT	SEGMENT
__Pnode$ = 8						; size = 4
??0iterator@?$_Tree@V?$_Tmap_traits@GV?$map@KPAVCTPlayer@@U?$less@K@std@@V?$allocator@U?$pair@$$CBKPAVCTPlayer@@@std@@@3@@std@@U?$less@G@2@V?$allocator@U?$pair@$$CBGV?$map@KPAVCTPlayer@@U?$less@K@std@@V?$allocator@U?$pair@$$CBKPAVCTPlayer@@@std@@@3@@std@@@std@@@2@$0A@@std@@@std@@QAE@PAU_Node@?$_Tree_nod@V?$_Tmap_traits@GV?$map@KPAVCTPlayer@@U?$less@K@std@@V?$allocator@U?$pair@$$CBKPAVCTPlayer@@@std@@@3@@std@@U?$less@G@2@V?$allocator@U?$pair@$$CBGV?$map@KPAVCTPlayer@@U?$less@K@std@@V?$allocator@U?$pair@$$CBKPAVCTPlayer@@@std@@@3@@std@@@std@@@2@$0A@@std@@@2@@Z PROC NEAR ; std::_Tree<std::_Tmap_traits<unsigned short,std::map<unsigned long,CTPlayer *,std::less<unsigned long>,std::allocator<std::pair<unsigned long const ,CTPlayer *> > >,std::less<unsigned short>,std::allocator<std::pair<unsigned short const ,std::map<unsigned long,CTPlayer *,std::less<unsigned long>,std::allocator<std::pair<unsigned long const ,CTPlayer *> > > > >,0> >::iterator::iterator, COMDAT
; _this$ = ecx

; 312  : 			{	// construct with node pointer _Pnode

  00000	8b c1		 mov	 eax, ecx
  00002	8b 4c 24 04	 mov	 ecx, DWORD PTR __Pnode$[esp-4]
  00006	89 08		 mov	 DWORD PTR [eax], ecx

; 313  : 			}

  00008	c2 04 00	 ret	 4
??0iterator@?$_Tree@V?$_Tmap_traits@GV?$map@KPAVCTPlayer@@U?$less@K@std@@V?$allocator@U?$pair@$$CBKPAVCTPlayer@@@std@@@3@@std@@U?$less@G@2@V?$allocator@U?$pair@$$CBGV?$map@KPAVCTPlayer@@U?$less@K@std@@V?$allocator@U?$pair@$$CBKPAVCTPlayer@@@std@@@3@@std@@@std@@@2@$0A@@std@@@std@@QAE@PAU_Node@?$_Tree_nod@V?$_Tmap_traits@GV?$map@KPAVCTPlayer@@U?$less@K@std@@V?$allocator@U?$pair@$$CBKPAVCTPlayer@@@std@@@3@@std@@U?$less@G@2@V?$allocator@U?$pair@$$CBGV?$map@KPAVCTPlayer@@U?$less@K@std@@V?$allocator@U?$pair@$$CBKPAVCTPlayer@@@std@@@3@@std@@@std@@@2@$0A@@std@@@2@@Z ENDP ; std::_Tree<std::_Tmap_traits<unsigned short,std::map<unsigned long,CTPlayer *,std::less<unsigned long>,std::allocator<std::pair<unsigned long const ,CTPlayer *> > >,std::less<unsigned short>,std::allocator<std::pair<unsigned short const ,std::map<unsigned long,CTPlayer *,std::less<unsigned long>,std::allocator<std::pair<unsigned long const ,CTPlayer *> > > > >,0> >::iterator::iterator
_TEXT	ENDS
PUBLIC	??Diterator@?$_Tree@V?$_Tmap_traits@GV?$map@KPAVCTPlayer@@U?$less@K@std@@V?$allocator@U?$pair@$$CBKPAVCTPlayer@@@std@@@3@@std@@U?$less@G@2@V?$allocator@U?$pair@$$CBGV?$map@KPAVCTPlayer@@U?$less@K@std@@V?$allocator@U?$pair@$$CBKPAVCTPlayer@@@std@@@3@@std@@@std@@@2@$0A@@std@@@std@@QBEAAU?$pair@$$CBGV?$map@KPAVCTPlayer@@U?$less@K@std@@V?$allocator@U?$pair@$$CBKPAVCTPlayer@@@std@@@3@@std@@@2@XZ ; std::_Tree<std::_Tmap_traits<unsigned short,std::map<unsigned long,CTPlayer *,std::less<unsigned long>,std::allocator<std::pair<unsigned long const ,CTPlayer *> > >,std::less<unsigned short>,std::allocator<std::pair<unsigned short const ,std::map<unsigned long,CTPlayer *,std::less<unsigned long>,std::allocator<std::pair<unsigned long const ,CTPlayer *> > > > >,0> >::iterator::operator*
; Function compile flags: /Ogty
;	COMDAT ??Diterator@?$_Tree@V?$_Tmap_traits@GV?$map@KPAVCTPlayer@@U?$less@K@std@@V?$allocator@U?$pair@$$CBKPAVCTPlayer@@@std@@@3@@std@@U?$less@G@2@V?$allocator@U?$pair@$$CBGV?$map@KPAVCTPlayer@@U?$less@K@std@@V?$allocator@U?$pair@$$CBKPAVCTPlayer@@@std@@@3@@std@@@std@@@2@$0A@@std@@@std@@QBEAAU?$pair@$$CBGV?$map@KPAVCTPlayer@@U?$less@K@std@@V?$allocator@U?$pair@$$CBKPAVCTPlayer@@@std@@@3@@std@@@2@XZ
_TEXT	SEGMENT
??Diterator@?$_Tree@V?$_Tmap_traits@GV?$map@KPAVCTPlayer@@U?$less@K@std@@V?$allocator@U?$pair@$$CBKPAVCTPlayer@@@std@@@3@@std@@U?$less@G@2@V?$allocator@U?$pair@$$CBGV?$map@KPAVCTPlayer@@U?$less@K@std@@V?$allocator@U?$pair@$$CBKPAVCTPlayer@@@std@@@3@@std@@@std@@@2@$0A@@std@@@std@@QBEAAU?$pair@$$CBGV?$map@KPAVCTPlayer@@U?$less@K@std@@V?$allocator@U?$pair@$$CBKPAVCTPlayer@@@std@@@3@@std@@@2@XZ PROC NEAR ; std::_Tree<std::_Tmap_traits<unsigned short,std::map<unsigned long,CTPlayer *,std::less<unsigned long>,std::allocator<std::pair<unsigned long const ,CTPlayer *> > >,std::less<unsigned short>,std::allocator<std::pair<unsigned short const ,std::map<unsigned long,CTPlayer *,std::less<unsigned long>,std::allocator<std::pair<unsigned long const ,CTPlayer *> > > > >,0> >::iterator::operator*, COMDAT
; _this$ = ecx

; 317  : 			return ((reference)**(const_iterator *)this);

  00000	8b 01		 mov	 eax, DWORD PTR [ecx]
  00002	83 c0 0c	 add	 eax, 12			; 0000000cH

; 318  : 			}

  00005	c3		 ret	 0
??Diterator@?$_Tree@V?$_Tmap_traits@GV?$map@KPAVCTPlayer@@U?$less@K@std@@V?$allocator@U?$pair@$$CBKPAVCTPlayer@@@std@@@3@@std@@U?$less@G@2@V?$allocator@U?$pair@$$CBGV?$map@KPAVCTPlayer@@U?$less@K@std@@V?$allocator@U?$pair@$$CBKPAVCTPlayer@@@std@@@3@@std@@@std@@@2@$0A@@std@@@std@@QBEAAU?$pair@$$CBGV?$map@KPAVCTPlayer@@U?$less@K@std@@V?$allocator@U?$pair@$$CBKPAVCTPlayer@@@std@@@3@@std@@@2@XZ ENDP ; std::_Tree<std::_Tmap_traits<unsigned short,std::map<unsigned long,CTPlayer *,std::less<unsigned long>,std::allocator<std::pair<unsigned long const ,CTPlayer *> > >,std::less<unsigned short>,std::allocator<std::pair<unsigned short const ,std::map<unsigned long,CTPlayer *,std::less<unsigned long>,std::allocator<std::pair<unsigned long const ,CTPlayer *> > > > >,0> >::iterator::operator*
_TEXT	ENDS
PUBLIC	??0iterator@?$_Tree@V?$_Tmap_traits@GPAVCTParty@@U?$less@G@std@@V?$allocator@U?$pair@$$CBGPAVCTParty@@@std@@@3@$0A@@std@@@std@@QAE@PAU_Node@?$_Tree_nod@V?$_Tmap_traits@GPAVCTParty@@U?$less@G@std@@V?$allocator@U?$pair@$$CBGPAVCTParty@@@std@@@3@$0A@@std@@@2@@Z ; std::_Tree<std::_Tmap_traits<unsigned short,CTParty *,std::less<unsigned short>,std::allocator<std::pair<unsigned short const ,CTParty *> >,0> >::iterator::iterator
; Function compile flags: /Ogty
;	COMDAT ??0iterator@?$_Tree@V?$_Tmap_traits@GPAVCTParty@@U?$less@G@std@@V?$allocator@U?$pair@$$CBGPAVCTParty@@@std@@@3@$0A@@std@@@std@@QAE@PAU_Node@?$_Tree_nod@V?$_Tmap_traits@GPAVCTParty@@U?$less@G@std@@V?$allocator@U?$pair@$$CBGPAVCTParty@@@std@@@3@$0A@@std@@@2@@Z
_TEXT	SEGMENT
__Pnode$ = 8						; size = 4
??0iterator@?$_Tree@V?$_Tmap_traits@GPAVCTParty@@U?$less@G@std@@V?$allocator@U?$pair@$$CBGPAVCTParty@@@std@@@3@$0A@@std@@@std@@QAE@PAU_Node@?$_Tree_nod@V?$_Tmap_traits@GPAVCTParty@@U?$less@G@std@@V?$allocator@U?$pair@$$CBGPAVCTParty@@@std@@@3@$0A@@std@@@2@@Z PROC NEAR ; std::_Tree<std::_Tmap_traits<unsigned short,CTParty *,std::less<unsigned short>,std::allocator<std::pair<unsigned short const ,CTParty *> >,0> >::iterator::iterator, COMDAT
; _this$ = ecx

; 312  : 			{	// construct with node pointer _Pnode

  00000	8b c1		 mov	 eax, ecx
  00002	8b 4c 24 04	 mov	 ecx, DWORD PTR __Pnode$[esp-4]
  00006	89 08		 mov	 DWORD PTR [eax], ecx

; 313  : 			}

  00008	c2 04 00	 ret	 4
??0iterator@?$_Tree@V?$_Tmap_traits@GPAVCTParty@@U?$less@G@std@@V?$allocator@U?$pair@$$CBGPAVCTParty@@@std@@@3@$0A@@std@@@std@@QAE@PAU_Node@?$_Tree_nod@V?$_Tmap_traits@GPAVCTParty@@U?$less@G@std@@V?$allocator@U?$pair@$$CBGPAVCTParty@@@std@@@3@$0A@@std@@@2@@Z ENDP ; std::_Tree<std::_Tmap_traits<unsigned short,CTParty *,std::less<unsigned short>,std::allocator<std::pair<unsigned short const ,CTParty *> >,0> >::iterator::iterator
_TEXT	ENDS
PUBLIC	??Dconst_iterator@?$_Tree@V?$_Tmap_traits@GPAVCTParty@@U?$less@G@std@@V?$allocator@U?$pair@$$CBGPAVCTParty@@@std@@@3@$0A@@std@@@std@@QBEABU?$pair@$$CBGPAVCTParty@@@2@XZ ; std::_Tree<std::_Tmap_traits<unsigned short,CTParty *,std::less<unsigned short>,std::allocator<std::pair<unsigned short const ,CTParty *> >,0> >::const_iterator::operator*
; Function compile flags: /Ogty
;	COMDAT ??Dconst_iterator@?$_Tree@V?$_Tmap_traits@GPAVCTParty@@U?$less@G@std@@V?$allocator@U?$pair@$$CBGPAVCTParty@@@std@@@3@$0A@@std@@@std@@QBEABU?$pair@$$CBGPAVCTParty@@@2@XZ
_TEXT	SEGMENT
??Dconst_iterator@?$_Tree@V?$_Tmap_traits@GPAVCTParty@@U?$less@G@std@@V?$allocator@U?$pair@$$CBGPAVCTParty@@@std@@@3@$0A@@std@@@std@@QBEABU?$pair@$$CBGPAVCTParty@@@2@XZ PROC NEAR ; std::_Tree<std::_Tmap_traits<unsigned short,CTParty *,std::less<unsigned short>,std::allocator<std::pair<unsigned short const ,CTParty *> >,0> >::const_iterator::operator*, COMDAT
; _this$ = ecx

; 205  : 			return (_Myval(_Ptr));

  00000	8b 01		 mov	 eax, DWORD PTR [ecx]
  00002	83 c0 0c	 add	 eax, 12			; 0000000cH

; 206  : 			}

  00005	c3		 ret	 0
??Dconst_iterator@?$_Tree@V?$_Tmap_traits@GPAVCTParty@@U?$less@G@std@@V?$allocator@U?$pair@$$CBGPAVCTParty@@@std@@@3@$0A@@std@@@std@@QBEABU?$pair@$$CBGPAVCTParty@@@2@XZ ENDP ; std::_Tree<std::_Tmap_traits<unsigned short,CTParty *,std::less<unsigned short>,std::allocator<std::pair<unsigned short const ,CTParty *> >,0> >::const_iterator::operator*
_TEXT	ENDS
PUBLIC	??0iterator@?$_Tree@V?$_Tmap_traits@V?$CStringT@DV?$StrTraitATL@DV?$ChTraitsCRT@D@ATL@@@ATL@@@ATL@@EU?$less@V?$CStringT@DV?$StrTraitATL@DV?$ChTraitsCRT@D@ATL@@@ATL@@@ATL@@@std@@V?$allocator@U?$pair@$$CBV?$CStringT@DV?$StrTraitATL@DV?$ChTraitsCRT@D@ATL@@@ATL@@@ATL@@E@std@@@4@$0A@@std@@@std@@QAE@PAU_Node@?$_Tree_nod@V?$_Tmap_traits@V?$CStringT@DV?$StrTraitATL@DV?$ChTraitsCRT@D@ATL@@@ATL@@@ATL@@EU?$less@V?$CStringT@DV?$StrTraitATL@DV?$ChTraitsCRT@D@ATL@@@ATL@@@ATL@@@std@@V?$allocator@U?$pair@$$CBV?$CStringT@DV?$StrTraitATL@DV?$ChTraitsCRT@D@ATL@@@ATL@@@ATL@@E@std@@@4@$0A@@std@@@2@@Z ; std::_Tree<std::_Tmap_traits<ATL::CStringT<char,ATL::StrTraitATL<char,ATL::ChTraitsCRT<char> > >,unsigned char,std::less<ATL::CStringT<char,ATL::StrTraitATL<char,ATL::ChTraitsCRT<char> > > >,std::allocator<std::pair<ATL::CStringT<char,ATL::StrTraitATL<char,ATL::ChTraitsCRT<char> > > const ,unsigned char> >,0> >::iterator::iterator
; Function compile flags: /Ogty
;	COMDAT ??0iterator@?$_Tree@V?$_Tmap_traits@V?$CStringT@DV?$StrTraitATL@DV?$ChTraitsCRT@D@ATL@@@ATL@@@ATL@@EU?$less@V?$CStringT@DV?$StrTraitATL@DV?$ChTraitsCRT@D@ATL@@@ATL@@@ATL@@@std@@V?$allocator@U?$pair@$$CBV?$CStringT@DV?$StrTraitATL@DV?$ChTraitsCRT@D@ATL@@@ATL@@@ATL@@E@std@@@4@$0A@@std@@@std@@QAE@PAU_Node@?$_Tree_nod@V?$_Tmap_traits@V?$CStringT@DV?$StrTraitATL@DV?$ChTraitsCRT@D@ATL@@@ATL@@@ATL@@EU?$less@V?$CStringT@DV?$StrTraitATL@DV?$ChTraitsCRT@D@ATL@@@ATL@@@ATL@@@std@@V?$allocator@U?$pair@$$CBV?$CStringT@DV?$StrTraitATL@DV?$ChTraitsCRT@D@ATL@@@ATL@@@ATL@@E@std@@@4@$0A@@std@@@2@@Z
_TEXT	SEGMENT
__Pnode$ = 8						; size = 4
??0iterator@?$_Tree@V?$_Tmap_traits@V?$CStringT@DV?$StrTraitATL@DV?$ChTraitsCRT@D@ATL@@@ATL@@@ATL@@EU?$less@V?$CStringT@DV?$StrTraitATL@DV?$ChTraitsCRT@D@ATL@@@ATL@@@ATL@@@std@@V?$allocator@U?$pair@$$CBV?$CStringT@DV?$StrTraitATL@DV?$ChTraitsCRT@D@ATL@@@ATL@@@ATL@@E@std@@@4@$0A@@std@@@std@@QAE@PAU_Node@?$_Tree_nod@V?$_Tmap_traits@V?$CStringT@DV?$StrTraitATL@DV?$ChTraitsCRT@D@ATL@@@ATL@@@ATL@@EU?$less@V?$CStringT@DV?$StrTraitATL@DV?$ChTraitsCRT@D@ATL@@@ATL@@@ATL@@@std@@V?$allocator@U?$pair@$$CBV?$CStringT@DV?$StrTraitATL@DV?$ChTraitsCRT@D@ATL@@@ATL@@@ATL@@E@std@@@4@$0A@@std@@@2@@Z PROC NEAR ; std::_Tree<std::_Tmap_traits<ATL::CStringT<char,ATL::StrTraitATL<char,ATL::ChTraitsCRT<char> > >,unsigned char,std::less<ATL::CStringT<char,ATL::StrTraitATL<char,ATL::ChTraitsCRT<char> > > >,std::allocator<std::pair<ATL::CStringT<char,ATL::StrTraitATL<char,ATL::ChTraitsCRT<char> > > const ,unsigned char> >,0> >::iterator::iterator, COMDAT
; _this$ = ecx

; 312  : 			{	// construct with node pointer _Pnode

  00000	8b c1		 mov	 eax, ecx
  00002	8b 4c 24 04	 mov	 ecx, DWORD PTR __Pnode$[esp-4]
  00006	89 08		 mov	 DWORD PTR [eax], ecx

; 313  : 			}

  00008	c2 04 00	 ret	 4
??0iterator@?$_Tree@V?$_Tmap_traits@V?$CStringT@DV?$StrTraitATL@DV?$ChTraitsCRT@D@ATL@@@ATL@@@ATL@@EU?$less@V?$CStringT@DV?$StrTraitATL@DV?$ChTraitsCRT@D@ATL@@@ATL@@@ATL@@@std@@V?$allocator@U?$pair@$$CBV?$CStringT@DV?$StrTraitATL@DV?$ChTraitsCRT@D@ATL@@@ATL@@@ATL@@E@std@@@4@$0A@@std@@@std@@QAE@PAU_Node@?$_Tree_nod@V?$_Tmap_traits@V?$CStringT@DV?$StrTraitATL@DV?$ChTraitsCRT@D@ATL@@@ATL@@@ATL@@EU?$less@V?$CStringT@DV?$StrTraitATL@DV?$ChTraitsCRT@D@ATL@@@ATL@@@ATL@@@std@@V?$allocator@U?$pair@$$CBV?$CStringT@DV?$StrTraitATL@DV?$ChTraitsCRT@D@ATL@@@ATL@@@ATL@@E@std@@@4@$0A@@std@@@2@@Z ENDP ; std::_Tree<std::_Tmap_traits<ATL::CStringT<char,ATL::StrTraitATL<char,ATL::ChTraitsCRT<char> > >,unsigned char,std::less<ATL::CStringT<char,ATL::StrTraitATL<char,ATL::ChTraitsCRT<char> > > >,std::allocator<std::pair<ATL::CStringT<char,ATL::StrTraitATL<char,ATL::ChTraitsCRT<char> > > const ,unsigned char> >,0> >::iterator::iterator
_TEXT	ENDS
PUBLIC	??Dconst_iterator@?$_Tree@V?$_Tmap_traits@V?$CStringT@DV?$StrTraitATL@DV?$ChTraitsCRT@D@ATL@@@ATL@@@ATL@@EU?$less@V?$CStringT@DV?$StrTraitATL@DV?$ChTraitsCRT@D@ATL@@@ATL@@@ATL@@@std@@V?$allocator@U?$pair@$$CBV?$CStringT@DV?$StrTraitATL@DV?$ChTraitsCRT@D@ATL@@@ATL@@@ATL@@E@std@@@4@$0A@@std@@@std@@QBEABU?$pair@$$CBV?$CStringT@DV?$StrTraitATL@DV?$ChTraitsCRT@D@ATL@@@ATL@@@ATL@@E@2@XZ ; std::_Tree<std::_Tmap_traits<ATL::CStringT<char,ATL::StrTraitATL<char,ATL::ChTraitsCRT<char> > >,unsigned char,std::less<ATL::CStringT<char,ATL::StrTraitATL<char,ATL::ChTraitsCRT<char> > > >,std::allocator<std::pair<ATL::CStringT<char,ATL::StrTraitATL<char,ATL::ChTraitsCRT<char> > > const ,unsigned char> >,0> >::const_iterator::operator*
; Function compile flags: /Ogty
;	COMDAT ??Dconst_iterator@?$_Tree@V?$_Tmap_traits@V?$CStringT@DV?$StrTraitATL@DV?$ChTraitsCRT@D@ATL@@@ATL@@@ATL@@EU?$less@V?$CStringT@DV?$StrTraitATL@DV?$ChTraitsCRT@D@ATL@@@ATL@@@ATL@@@std@@V?$allocator@U?$pair@$$CBV?$CStringT@DV?$StrTraitATL@DV?$ChTraitsCRT@D@ATL@@@ATL@@@ATL@@E@std@@@4@$0A@@std@@@std@@QBEABU?$pair@$$CBV?$CStringT@DV?$StrTraitATL@DV?$ChTraitsCRT@D@ATL@@@ATL@@@ATL@@E@2@XZ
_TEXT	SEGMENT
??Dconst_iterator@?$_Tree@V?$_Tmap_traits@V?$CStringT@DV?$StrTraitATL@DV?$ChTraitsCRT@D@ATL@@@ATL@@@ATL@@EU?$less@V?$CStringT@DV?$StrTraitATL@DV?$ChTraitsCRT@D@ATL@@@ATL@@@ATL@@@std@@V?$allocator@U?$pair@$$CBV?$CStringT@DV?$StrTraitATL@DV?$ChTraitsCRT@D@ATL@@@ATL@@@ATL@@E@std@@@4@$0A@@std@@@std@@QBEABU?$pair@$$CBV?$CStringT@DV?$StrTraitATL@DV?$ChTraitsCRT@D@ATL@@@ATL@@@ATL@@E@2@XZ PROC NEAR ; std::_Tree<std::_Tmap_traits<ATL::CStringT<char,ATL::StrTraitATL<char,ATL::ChTraitsCRT<char> > >,unsigned char,std::less<ATL::CStringT<char,ATL::StrTraitATL<char,ATL::ChTraitsCRT<char> > > >,std::allocator<std::pair<ATL::CStringT<char,ATL::StrTraitATL<char,ATL::ChTraitsCRT<char> > > const ,unsigned char> >,0> >::const_iterator::operator*, COMDAT
; _this$ = ecx

; 205  : 			return (_Myval(_Ptr));

  00000	8b 01		 mov	 eax, DWORD PTR [ecx]
  00002	83 c0 0c	 add	 eax, 12			; 0000000cH

; 206  : 			}

  00005	c3		 ret	 0
??Dconst_iterator@?$_Tree@V?$_Tmap_traits@V?$CStringT@DV?$StrTraitATL@DV?$ChTraitsCRT@D@ATL@@@ATL@@@ATL@@EU?$less@V?$CStringT@DV?$StrTraitATL@DV?$ChTraitsCRT@D@ATL@@@ATL@@@ATL@@@std@@V?$allocator@U?$pair@$$CBV?$CStringT@DV?$StrTraitATL@DV?$ChTraitsCRT@D@ATL@@@ATL@@@ATL@@E@std@@@4@$0A@@std@@@std@@QBEABU?$pair@$$CBV?$CStringT@DV?$StrTraitATL@DV?$ChTraitsCRT@D@ATL@@@ATL@@@ATL@@E@2@XZ ENDP ; std::_Tree<std::_Tmap_traits<ATL::CStringT<char,ATL::StrTraitATL<char,ATL::ChTraitsCRT<char> > >,unsigned char,std::less<ATL::CStringT<char,ATL::StrTraitATL<char,ATL::ChTraitsCRT<char> > > >,std::allocator<std::pair<ATL::CStringT<char,ATL::StrTraitATL<char,ATL::ChTraitsCRT<char> > > const ,unsigned char> >,0> >::const_iterator::operator*
_TEXT	ENDS
PUBLIC	??Diterator@?$vector@KV?$allocator@K@std@@@std@@QBEAAKXZ ; std::vector<unsigned long,std::allocator<unsigned long> >::iterator::operator*
; Function compile flags: /Ogty
; File c:\program files (x86)\microsoft visual studio .net 2003\vc7\include\vector
;	COMDAT ??Diterator@?$vector@KV?$allocator@K@std@@@std@@QBEAAKXZ
_TEXT	SEGMENT
??Diterator@?$vector@KV?$allocator@K@std@@@std@@QBEAAKXZ PROC NEAR ; std::vector<unsigned long,std::allocator<unsigned long> >::iterator::operator*, COMDAT
; _this$ = ecx

; 220  : 			return ((reference)**(const_iterator *)this);

  00000	8b 01		 mov	 eax, DWORD PTR [ecx]

; 221  : 			}

  00002	c3		 ret	 0
??Diterator@?$vector@KV?$allocator@K@std@@@std@@QBEAAKXZ ENDP ; std::vector<unsigned long,std::allocator<unsigned long> >::iterator::operator*
_TEXT	ENDS
PUBLIC	??Hiterator@?$vector@KV?$allocator@K@std@@@std@@QBE?AV012@H@Z ; std::vector<unsigned long,std::allocator<unsigned long> >::iterator::operator+
; Function compile flags: /Ogty
;	COMDAT ??Hiterator@?$vector@KV?$allocator@K@std@@@std@@QBE?AV012@H@Z
_TEXT	SEGMENT
___$ReturnUdt$ = 8					; size = 4
__Off$ = 12						; size = 4
??Hiterator@?$vector@KV?$allocator@K@std@@@std@@QBE?AV012@H@Z PROC NEAR ; std::vector<unsigned long,std::allocator<unsigned long> >::iterator::operator+, COMDAT
; _this$ = ecx

; 262  : 			iterator _Tmp = *this;
; 263  : 			return (_Tmp += _Off);

  00000	8b 01		 mov	 eax, DWORD PTR [ecx]
  00002	8b 4c 24 08	 mov	 ecx, DWORD PTR __Off$[esp-4]
  00006	8d 14 88	 lea	 edx, DWORD PTR [eax+ecx*4]
  00009	8b 44 24 04	 mov	 eax, DWORD PTR ___$ReturnUdt$[esp-4]
  0000d	89 10		 mov	 DWORD PTR [eax], edx

; 264  : 			}

  0000f	c2 08 00	 ret	 8
??Hiterator@?$vector@KV?$allocator@K@std@@@std@@QBE?AV012@H@Z ENDP ; std::vector<unsigned long,std::allocator<unsigned long> >::iterator::operator+
_TEXT	ENDS
PUBLIC	??MATL@@YA_NABV?$CStringT@DV?$StrTraitATL@DV?$ChTraitsCRT@D@ATL@@@ATL@@@0@0@Z ; ATL::operator<
; Function compile flags: /Ogty
; File c:\program files (x86)\microsoft visual studio .net 2003\vc7\atlmfc\include\cstringt.h
;	COMDAT ??MATL@@YA_NABV?$CStringT@DV?$StrTraitATL@DV?$ChTraitsCRT@D@ATL@@@ATL@@@0@0@Z
_TEXT	SEGMENT
_str1$ = 8						; size = 4
_str2$ = 12						; size = 4
??MATL@@YA_NABV?$CStringT@DV?$StrTraitATL@DV?$ChTraitsCRT@D@ATL@@@ATL@@@0@0@Z PROC NEAR ; ATL::operator<, COMDAT

; 2149 : 		return( str1.Compare( str2 ) < 0 );

  00000	8b 44 24 08	 mov	 eax, DWORD PTR _str2$[esp-4]
  00004	8b 00		 mov	 eax, DWORD PTR [eax]
  00006	8b 4c 24 04	 mov	 ecx, DWORD PTR _str1$[esp-4]
  0000a	8b 09		 mov	 ecx, DWORD PTR [ecx]
  0000c	50		 push	 eax
  0000d	51		 push	 ecx
  0000e	e8 00 00 00 00	 call	 __mbscmp
  00013	33 d2		 xor	 edx, edx
  00015	83 c4 08	 add	 esp, 8
  00018	85 c0		 test	 eax, eax
  0001a	0f 9c c2	 setl	 dl
  0001d	8a c2		 mov	 al, dl

; 2150 : 	}

  0001f	c3		 ret	 0
??MATL@@YA_NABV?$CStringT@DV?$StrTraitATL@DV?$ChTraitsCRT@D@ATL@@@ATL@@@0@0@Z ENDP ; ATL::operator<
_TEXT	ENDS
PUBLIC	??0?$CSimpleStringT@D$0A@@ATL@@QAE@PBDHPAUIAtlStringMgr@1@@Z ; ATL::CSimpleStringT<char,0>::CSimpleStringT<char,0>
; Function compile flags: /Ogty
; File c:\program files (x86)\microsoft visual studio .net 2003\vc7\atlmfc\include\atlsimpstr.h
;	COMDAT ??0?$CSimpleStringT@D$0A@@ATL@@QAE@PBDHPAUIAtlStringMgr@1@@Z
_TEXT	SEGMENT
_pchSrc$ = 8						; size = 4
_nLength$ = 12						; size = 4
_pStringMgr$ = 16					; size = 4
??0?$CSimpleStringT@D$0A@@ATL@@QAE@PBDHPAUIAtlStringMgr@1@@Z PROC NEAR ; ATL::CSimpleStringT<char,0>::CSimpleStringT<char,0>, COMDAT
; _this$ = ecx

; 245  : 	CSimpleStringT( const XCHAR* pchSrc, int nLength, IAtlStringMgr* pStringMgr )

  00000	53		 push	 ebx
  00001	56		 push	 esi

; 246  : 	{
; 247  : 		ATLASSERT( pStringMgr != NULL );
; 248  : 		
; 249  : 		if(pchSrc == NULL && nLength != 0)

  00002	8b 74 24 0c	 mov	 esi, DWORD PTR _pchSrc$[esp+4]
  00006	85 f6		 test	 esi, esi
  00008	57		 push	 edi
  00009	8b 7c 24 14	 mov	 edi, DWORD PTR _nLength$[esp+8]
  0000d	8b d9		 mov	 ebx, ecx
  0000f	75 0e		 jne	 SHORT $L108897
  00011	85 ff		 test	 edi, edi
  00013	74 0a		 je	 SHORT $L108897

; 258  : 		SetLength( nLength );

$L110580:
  00015	68 57 00 07 80	 push	 -2147024809		; 80070057H
  0001a	e8 00 00 00 00	 call	 ?AtlThrow@ATL@@YGXJ@Z	; ATL::AtlThrow
$L110592:
$L108897:

; 250  : 			AtlThrow(E_INVALIDARG);
; 251  : 
; 252  : 		CStringData* pData = pStringMgr->Allocate( nLength, sizeof( XCHAR ) );

  0001f	8b 4c 24 18	 mov	 ecx, DWORD PTR _pStringMgr$[esp+8]
  00023	8b 01		 mov	 eax, DWORD PTR [ecx]
  00025	6a 01		 push	 1
  00027	57		 push	 edi
  00028	ff 10		 call	 DWORD PTR [eax]

; 253  : 		if( pData == NULL )

  0002a	85 c0		 test	 eax, eax
  0002c	75 05		 jne	 SHORT $L108901

; 254  : 		{
; 255  : 			ThrowMemoryException();

  0002e	e8 00 00 00 00	 call	 ?ThrowMemoryException@?$CSimpleStringT@D$0A@@ATL@@KAXXZ ; ATL::CSimpleStringT<char,0>::ThrowMemoryException
$L110593:
$L108901:

; 256  : 		}
; 257  : 		Attach( pData );

  00033	83 c0 10	 add	 eax, 16			; 00000010H

; 258  : 		SetLength( nLength );

  00036	85 ff		 test	 edi, edi
  00038	89 03		 mov	 DWORD PTR [ebx], eax
  0003a	7c d9		 jl	 SHORT $L110580
  0003c	3b 78 f8	 cmp	 edi, DWORD PTR [eax-8]
  0003f	7f d4		 jg	 SHORT $L110580
  00041	89 78 f4	 mov	 DWORD PTR [eax-12], edi
  00044	8b 0b		 mov	 ecx, DWORD PTR [ebx]
  00046	c6 04 0f 00	 mov	 BYTE PTR [edi+ecx], 0

; 259  : 		CopyChars( m_pszData, pchSrc, nLength );

  0004a	8b cf		 mov	 ecx, edi
  0004c	8b 3b		 mov	 edi, DWORD PTR [ebx]
  0004e	8b d1		 mov	 edx, ecx
  00050	c1 e9 02	 shr	 ecx, 2
  00053	f3 a5		 rep movsd
  00055	8b ca		 mov	 ecx, edx
  00057	83 e1 03	 and	 ecx, 3
  0005a	f3 a4		 rep movsb
  0005c	5f		 pop	 edi
  0005d	5e		 pop	 esi

; 260  : 	}

  0005e	8b c3		 mov	 eax, ebx
  00060	5b		 pop	 ebx
  00061	c2 0c 00	 ret	 12			; 0000000cH
$L110591:
??0?$CSimpleStringT@D$0A@@ATL@@QAE@PBDHPAUIAtlStringMgr@1@@Z ENDP ; ATL::CSimpleStringT<char,0>::CSimpleStringT<char,0>
_TEXT	ENDS
PUBLIC	?max_size@?$_Tree@V?$_Tmap_traits@KPAVCTPlayer@@U?$less@K@std@@V?$allocator@U?$pair@$$CBKPAVCTPlayer@@@std@@@3@$0A@@std@@@std@@QBEIXZ ; std::_Tree<std::_Tmap_traits<unsigned long,CTPlayer *,std::less<unsigned long>,std::allocator<std::pair<unsigned long const ,CTPlayer *> >,0> >::max_size
; Function compile flags: /Ogty
; File c:\program files (x86)\microsoft visual studio .net 2003\vc7\include\xtree
;	COMDAT ?max_size@?$_Tree@V?$_Tmap_traits@KPAVCTPlayer@@U?$less@K@std@@V?$allocator@U?$pair@$$CBKPAVCTPlayer@@@std@@@3@$0A@@std@@@std@@QBEIXZ
_TEXT	SEGMENT
?max_size@?$_Tree@V?$_Tmap_traits@KPAVCTPlayer@@U?$less@K@std@@V?$allocator@U?$pair@$$CBKPAVCTPlayer@@@std@@@3@$0A@@std@@@std@@QBEIXZ PROC NEAR ; std::_Tree<std::_Tmap_traits<unsigned long,CTPlayer *,std::less<unsigned long>,std::allocator<std::pair<unsigned long const ,CTPlayer *> >,0> >::max_size, COMDAT
; _this$ = ecx

; 453  : 		return (this->_Alval.max_size());

  00000	b8 ff ff ff 1f	 mov	 eax, 536870911		; 1fffffffH

; 454  : 		}

  00005	c3		 ret	 0
?max_size@?$_Tree@V?$_Tmap_traits@KPAVCTPlayer@@U?$less@K@std@@V?$allocator@U?$pair@$$CBKPAVCTPlayer@@@std@@@3@$0A@@std@@@std@@QBEIXZ ENDP ; std::_Tree<std::_Tmap_traits<unsigned long,CTPlayer *,std::less<unsigned long>,std::allocator<std::pair<unsigned long const ,CTPlayer *> >,0> >::max_size
_TEXT	ENDS
PUBLIC	?_Lbound@?$_Tree@V?$_Tmap_traits@KPAVCTPlayer@@U?$less@K@std@@V?$allocator@U?$pair@$$CBKPAVCTPlayer@@@std@@@3@$0A@@std@@@std@@IBEPAU_Node@?$_Tree_nod@V?$_Tmap_traits@KPAVCTPlayer@@U?$less@K@std@@V?$allocator@U?$pair@$$CBKPAVCTPlayer@@@std@@@3@$0A@@std@@@2@ABK@Z ; std::_Tree<std::_Tmap_traits<unsigned long,CTPlayer *,std::less<unsigned long>,std::allocator<std::pair<unsigned long const ,CTPlayer *> >,0> >::_Lbound
; Function compile flags: /Ogty
;	COMDAT ?_Lbound@?$_Tree@V?$_Tmap_traits@KPAVCTPlayer@@U?$less@K@std@@V?$allocator@U?$pair@$$CBKPAVCTPlayer@@@std@@@3@$0A@@std@@@std@@IBEPAU_Node@?$_Tree_nod@V?$_Tmap_traits@KPAVCTPlayer@@U?$less@K@std@@V?$allocator@U?$pair@$$CBKPAVCTPlayer@@@std@@@3@$0A@@std@@@2@ABK@Z
_TEXT	SEGMENT
__Keyval$ = 8						; size = 4
?_Lbound@?$_Tree@V?$_Tmap_traits@KPAVCTPlayer@@U?$less@K@std@@V?$allocator@U?$pair@$$CBKPAVCTPlayer@@@std@@@3@$0A@@std@@@std@@IBEPAU_Node@?$_Tree_nod@V?$_Tmap_traits@KPAVCTPlayer@@U?$less@K@std@@V?$allocator@U?$pair@$$CBKPAVCTPlayer@@@std@@@3@$0A@@std@@@2@ABK@Z PROC NEAR ; std::_Tree<std::_Tmap_traits<unsigned long,CTPlayer *,std::less<unsigned long>,std::allocator<std::pair<unsigned long const ,CTPlayer *> >,0> >::_Lbound, COMDAT
; _this$ = ecx

; 988  : 		_Nodeptr _Pnode = _Root();

  00000	8b 41 04	 mov	 eax, DWORD PTR [ecx+4]
  00003	8b 48 04	 mov	 ecx, DWORD PTR [eax+4]

; 989  : 		_Nodeptr _Wherenode = _Myhead;	// end() if search fails
; 990  : 
; 991  : 		while (!_Isnil(_Pnode))

  00006	8a 51 15	 mov	 dl, BYTE PTR [ecx+21]
  00009	84 d2		 test	 dl, dl
  0000b	75 1d		 jne	 SHORT $L108955
  0000d	8b 54 24 04	 mov	 edx, DWORD PTR __Keyval$[esp-4]
  00011	8b 12		 mov	 edx, DWORD PTR [edx]
  00013	53		 push	 ebx
$L108954:

; 992  : 			if (this->comp(_Key(_Pnode), _Keyval))

  00014	39 51 0c	 cmp	 DWORD PTR [ecx+12], edx
  00017	73 05		 jae	 SHORT $L108956

; 993  : 				_Pnode = _Right(_Pnode);	// descend right subtree

  00019	8b 49 08	 mov	 ecx, DWORD PTR [ecx+8]

; 994  : 			else

  0001c	eb 04		 jmp	 SHORT $L108957
$L108956:

; 995  : 				{	// _Pnode not less than _Keyval, remember it
; 996  : 				_Wherenode = _Pnode;

  0001e	8b c1		 mov	 eax, ecx

; 997  : 				_Pnode = _Left(_Pnode);	// descend left subtree

  00020	8b 09		 mov	 ecx, DWORD PTR [ecx]
$L108957:
  00022	8a 59 15	 mov	 bl, BYTE PTR [ecx+21]
  00025	84 db		 test	 bl, bl
  00027	74 eb		 je	 SHORT $L108954
  00029	5b		 pop	 ebx
$L108955:

; 998  : 				}
; 999  : 
; 1000 : 		return (_Wherenode);	// return best remembered candidate
; 1001 : 		}

  0002a	c2 04 00	 ret	 4
?_Lbound@?$_Tree@V?$_Tmap_traits@KPAVCTPlayer@@U?$less@K@std@@V?$allocator@U?$pair@$$CBKPAVCTPlayer@@@std@@@3@$0A@@std@@@std@@IBEPAU_Node@?$_Tree_nod@V?$_Tmap_traits@KPAVCTPlayer@@U?$less@K@std@@V?$allocator@U?$pair@$$CBKPAVCTPlayer@@@std@@@3@$0A@@std@@@2@ABK@Z ENDP ; std::_Tree<std::_Tmap_traits<unsigned long,CTPlayer *,std::less<unsigned long>,std::allocator<std::pair<unsigned long const ,CTPlayer *> >,0> >::_Lbound
_TEXT	ENDS
PUBLIC	?_Lrotate@?$_Tree@V?$_Tmap_traits@KPAVCTPlayer@@U?$less@K@std@@V?$allocator@U?$pair@$$CBKPAVCTPlayer@@@std@@@3@$0A@@std@@@std@@IAEXPAU_Node@?$_Tree_nod@V?$_Tmap_traits@KPAVCTPlayer@@U?$less@K@std@@V?$allocator@U?$pair@$$CBKPAVCTPlayer@@@std@@@3@$0A@@std@@@2@@Z ; std::_Tree<std::_Tmap_traits<unsigned long,CTPlayer *,std::less<unsigned long>,std::allocator<std::pair<unsigned long const ,CTPlayer *> >,0> >::_Lrotate
; Function compile flags: /Ogty
;	COMDAT ?_Lrotate@?$_Tree@V?$_Tmap_traits@KPAVCTPlayer@@U?$less@K@std@@V?$allocator@U?$pair@$$CBKPAVCTPlayer@@@std@@@3@$0A@@std@@@std@@IAEXPAU_Node@?$_Tree_nod@V?$_Tmap_traits@KPAVCTPlayer@@U?$less@K@std@@V?$allocator@U?$pair@$$CBKPAVCTPlayer@@@std@@@3@$0A@@std@@@2@@Z
_TEXT	SEGMENT
__Wherenode$ = 8					; size = 4
?_Lrotate@?$_Tree@V?$_Tmap_traits@KPAVCTPlayer@@U?$less@K@std@@V?$allocator@U?$pair@$$CBKPAVCTPlayer@@@std@@@3@$0A@@std@@@std@@IAEXPAU_Node@?$_Tree_nod@V?$_Tmap_traits@KPAVCTPlayer@@U?$less@K@std@@V?$allocator@U?$pair@$$CBKPAVCTPlayer@@@std@@@3@$0A@@std@@@2@@Z PROC NEAR ; std::_Tree<std::_Tmap_traits<unsigned long,CTPlayer *,std::less<unsigned long>,std::allocator<std::pair<unsigned long const ,CTPlayer *> >,0> >::_Lrotate, COMDAT
; _this$ = ecx

; 1015 : 		_Nodeptr _Pnode = _Right(_Wherenode);

  00000	8b 54 24 04	 mov	 edx, DWORD PTR __Wherenode$[esp-4]
  00004	8b 42 08	 mov	 eax, DWORD PTR [edx+8]
  00007	53		 push	 ebx
  00008	56		 push	 esi

; 1016 : 		_Right(_Wherenode) = _Left(_Pnode);

  00009	8b 30		 mov	 esi, DWORD PTR [eax]
  0000b	89 72 08	 mov	 DWORD PTR [edx+8], esi

; 1017 : 
; 1018 : 		if (!_Isnil(_Left(_Pnode)))

  0000e	8b 30		 mov	 esi, DWORD PTR [eax]
  00010	8a 5e 15	 mov	 bl, BYTE PTR [esi+21]
  00013	84 db		 test	 bl, bl
  00015	75 03		 jne	 SHORT $L108961

; 1019 : 			_Parent(_Left(_Pnode)) = _Wherenode;

  00017	89 56 04	 mov	 DWORD PTR [esi+4], edx
$L108961:

; 1020 : 		_Parent(_Pnode) = _Parent(_Wherenode);

  0001a	8b 72 04	 mov	 esi, DWORD PTR [edx+4]
  0001d	89 70 04	 mov	 DWORD PTR [eax+4], esi

; 1021 : 
; 1022 : 		if (_Wherenode == _Root())

  00020	8b 49 04	 mov	 ecx, DWORD PTR [ecx+4]
  00023	3b 51 04	 cmp	 edx, DWORD PTR [ecx+4]
  00026	75 0d		 jne	 SHORT $L108962

; 1023 : 			_Root() = _Pnode;

  00028	89 41 04	 mov	 DWORD PTR [ecx+4], eax
  0002b	5e		 pop	 esi

; 1028 : 
; 1029 : 		_Left(_Pnode) = _Wherenode;

  0002c	89 10		 mov	 DWORD PTR [eax], edx

; 1030 : 		_Parent(_Wherenode) = _Pnode;

  0002e	89 42 04	 mov	 DWORD PTR [edx+4], eax
  00031	5b		 pop	 ebx

; 1031 : 		}

  00032	c2 04 00	 ret	 4
$L108962:

; 1024 : 		else if (_Wherenode == _Left(_Parent(_Wherenode)))

  00035	8b 4a 04	 mov	 ecx, DWORD PTR [edx+4]
  00038	3b 11		 cmp	 edx, DWORD PTR [ecx]
  0003a	75 0c		 jne	 SHORT $L108964

; 1025 : 			_Left(_Parent(_Wherenode)) = _Pnode;

  0003c	89 01		 mov	 DWORD PTR [ecx], eax
  0003e	5e		 pop	 esi

; 1028 : 
; 1029 : 		_Left(_Pnode) = _Wherenode;

  0003f	89 10		 mov	 DWORD PTR [eax], edx

; 1030 : 		_Parent(_Wherenode) = _Pnode;

  00041	89 42 04	 mov	 DWORD PTR [edx+4], eax
  00044	5b		 pop	 ebx

; 1031 : 		}

  00045	c2 04 00	 ret	 4
$L108964:

; 1026 : 		else
; 1027 : 			_Right(_Parent(_Wherenode)) = _Pnode;

  00048	89 41 08	 mov	 DWORD PTR [ecx+8], eax
  0004b	5e		 pop	 esi

; 1028 : 
; 1029 : 		_Left(_Pnode) = _Wherenode;

  0004c	89 10		 mov	 DWORD PTR [eax], edx

; 1030 : 		_Parent(_Wherenode) = _Pnode;

  0004e	89 42 04	 mov	 DWORD PTR [edx+4], eax
  00051	5b		 pop	 ebx

; 1031 : 		}

  00052	c2 04 00	 ret	 4
?_Lrotate@?$_Tree@V?$_Tmap_traits@KPAVCTPlayer@@U?$less@K@std@@V?$allocator@U?$pair@$$CBKPAVCTPlayer@@@std@@@3@$0A@@std@@@std@@IAEXPAU_Node@?$_Tree_nod@V?$_Tmap_traits@KPAVCTPlayer@@U?$less@K@std@@V?$allocator@U?$pair@$$CBKPAVCTPlayer@@@std@@@3@$0A@@std@@@2@@Z ENDP ; std::_Tree<std::_Tmap_traits<unsigned long,CTPlayer *,std::less<unsigned long>,std::allocator<std::pair<unsigned long const ,CTPlayer *> >,0> >::_Lrotate
_TEXT	ENDS
PUBLIC	?_Rrotate@?$_Tree@V?$_Tmap_traits@KPAVCTPlayer@@U?$less@K@std@@V?$allocator@U?$pair@$$CBKPAVCTPlayer@@@std@@@3@$0A@@std@@@std@@IAEXPAU_Node@?$_Tree_nod@V?$_Tmap_traits@KPAVCTPlayer@@U?$less@K@std@@V?$allocator@U?$pair@$$CBKPAVCTPlayer@@@std@@@3@$0A@@std@@@2@@Z ; std::_Tree<std::_Tmap_traits<unsigned long,CTPlayer *,std::less<unsigned long>,std::allocator<std::pair<unsigned long const ,CTPlayer *> >,0> >::_Rrotate
; Function compile flags: /Ogty
;	COMDAT ?_Rrotate@?$_Tree@V?$_Tmap_traits@KPAVCTPlayer@@U?$less@K@std@@V?$allocator@U?$pair@$$CBKPAVCTPlayer@@@std@@@3@$0A@@std@@@std@@IAEXPAU_Node@?$_Tree_nod@V?$_Tmap_traits@KPAVCTPlayer@@U?$less@K@std@@V?$allocator@U?$pair@$$CBKPAVCTPlayer@@@std@@@3@$0A@@std@@@2@@Z
_TEXT	SEGMENT
__Wherenode$ = 8					; size = 4
?_Rrotate@?$_Tree@V?$_Tmap_traits@KPAVCTPlayer@@U?$less@K@std@@V?$allocator@U?$pair@$$CBKPAVCTPlayer@@@std@@@3@$0A@@std@@@std@@IAEXPAU_Node@?$_Tree_nod@V?$_Tmap_traits@KPAVCTPlayer@@U?$less@K@std@@V?$allocator@U?$pair@$$CBKPAVCTPlayer@@@std@@@3@$0A@@std@@@2@@Z PROC NEAR ; std::_Tree<std::_Tmap_traits<unsigned long,CTPlayer *,std::less<unsigned long>,std::allocator<std::pair<unsigned long const ,CTPlayer *> >,0> >::_Rrotate, COMDAT
; _this$ = ecx

; 1069 : 		_Nodeptr _Pnode = _Left(_Wherenode);

  00000	8b 54 24 04	 mov	 edx, DWORD PTR __Wherenode$[esp-4]
  00004	8b 02		 mov	 eax, DWORD PTR [edx]
  00006	53		 push	 ebx
  00007	56		 push	 esi

; 1070 : 		_Left(_Wherenode) = _Right(_Pnode);

  00008	8b 70 08	 mov	 esi, DWORD PTR [eax+8]
  0000b	89 32		 mov	 DWORD PTR [edx], esi

; 1071 : 
; 1072 : 		if (!_Isnil(_Right(_Pnode)))

  0000d	8b 70 08	 mov	 esi, DWORD PTR [eax+8]
  00010	8a 5e 15	 mov	 bl, BYTE PTR [esi+21]
  00013	84 db		 test	 bl, bl
  00015	75 03		 jne	 SHORT $L108971

; 1073 : 			_Parent(_Right(_Pnode)) = _Wherenode;

  00017	89 56 04	 mov	 DWORD PTR [esi+4], edx
$L108971:

; 1074 : 		_Parent(_Pnode) = _Parent(_Wherenode);

  0001a	8b 72 04	 mov	 esi, DWORD PTR [edx+4]
  0001d	89 70 04	 mov	 DWORD PTR [eax+4], esi

; 1075 : 
; 1076 : 		if (_Wherenode == _Root())

  00020	8b 49 04	 mov	 ecx, DWORD PTR [ecx+4]
  00023	3b 51 04	 cmp	 edx, DWORD PTR [ecx+4]
  00026	75 0e		 jne	 SHORT $L108972

; 1077 : 			_Root() = _Pnode;

  00028	89 41 04	 mov	 DWORD PTR [ecx+4], eax
  0002b	5e		 pop	 esi

; 1082 : 
; 1083 : 		_Right(_Pnode) = _Wherenode;

  0002c	89 50 08	 mov	 DWORD PTR [eax+8], edx

; 1084 : 		_Parent(_Wherenode) = _Pnode;

  0002f	89 42 04	 mov	 DWORD PTR [edx+4], eax
  00032	5b		 pop	 ebx

; 1085 : 		}

  00033	c2 04 00	 ret	 4
$L108972:

; 1078 : 		else if (_Wherenode == _Right(_Parent(_Wherenode)))

  00036	8b 4a 04	 mov	 ecx, DWORD PTR [edx+4]
  00039	3b 51 08	 cmp	 edx, DWORD PTR [ecx+8]
  0003c	75 0e		 jne	 SHORT $L108974

; 1079 : 			_Right(_Parent(_Wherenode)) = _Pnode;

  0003e	89 41 08	 mov	 DWORD PTR [ecx+8], eax
  00041	5e		 pop	 esi

; 1082 : 
; 1083 : 		_Right(_Pnode) = _Wherenode;

  00042	89 50 08	 mov	 DWORD PTR [eax+8], edx

; 1084 : 		_Parent(_Wherenode) = _Pnode;

  00045	89 42 04	 mov	 DWORD PTR [edx+4], eax
  00048	5b		 pop	 ebx

; 1085 : 		}

  00049	c2 04 00	 ret	 4
$L108974:

; 1080 : 		else
; 1081 : 			_Left(_Parent(_Wherenode)) = _Pnode;

  0004c	89 01		 mov	 DWORD PTR [ecx], eax
  0004e	5e		 pop	 esi

; 1082 : 
; 1083 : 		_Right(_Pnode) = _Wherenode;

  0004f	89 50 08	 mov	 DWORD PTR [eax+8], edx

; 1084 : 		_Parent(_Wherenode) = _Pnode;

  00052	89 42 04	 mov	 DWORD PTR [edx+4], eax
  00055	5b		 pop	 ebx

; 1085 : 		}

  00056	c2 04 00	 ret	 4
?_Rrotate@?$_Tree@V?$_Tmap_traits@KPAVCTPlayer@@U?$less@K@std@@V?$allocator@U?$pair@$$CBKPAVCTPlayer@@@std@@@3@$0A@@std@@@std@@IAEXPAU_Node@?$_Tree_nod@V?$_Tmap_traits@KPAVCTPlayer@@U?$less@K@std@@V?$allocator@U?$pair@$$CBKPAVCTPlayer@@@std@@@3@$0A@@std@@@2@@Z ENDP ; std::_Tree<std::_Tmap_traits<unsigned long,CTPlayer *,std::less<unsigned long>,std::allocator<std::pair<unsigned long const ,CTPlayer *> >,0> >::_Rrotate
_TEXT	ENDS
PUBLIC	??0iterator@?$vector@KV?$allocator@K@std@@@std@@QAE@PAK@Z ; std::vector<unsigned long,std::allocator<unsigned long> >::iterator::iterator
; Function compile flags: /Ogty
; File c:\program files (x86)\microsoft visual studio .net 2003\vc7\include\vector
;	COMDAT ??0iterator@?$vector@KV?$allocator@K@std@@@std@@QAE@PAK@Z
_TEXT	SEGMENT
__Ptr$ = 8						; size = 4
??0iterator@?$vector@KV?$allocator@K@std@@@std@@QAE@PAK@Z PROC NEAR ; std::vector<unsigned long,std::allocator<unsigned long> >::iterator::iterator, COMDAT
; _this$ = ecx

; 215  : 			{	// construct with pointer _Ptr

  00000	8b c1		 mov	 eax, ecx
  00002	8b 4c 24 04	 mov	 ecx, DWORD PTR __Ptr$[esp-4]
  00006	89 08		 mov	 DWORD PTR [eax], ecx

; 216  : 			}

  00008	c2 04 00	 ret	 4
??0iterator@?$vector@KV?$allocator@K@std@@@std@@QAE@PAK@Z ENDP ; std::vector<unsigned long,std::allocator<unsigned long> >::iterator::iterator
_TEXT	ENDS
PUBLIC	?_Root@?$_Tree@V?$_Tmap_traits@V?$CStringT@DV?$StrTraitATL@DV?$ChTraitsCRT@D@ATL@@@ATL@@@ATL@@EU?$less@V?$CStringT@DV?$StrTraitATL@DV?$ChTraitsCRT@D@ATL@@@ATL@@@ATL@@@std@@V?$allocator@U?$pair@$$CBV?$CStringT@DV?$StrTraitATL@DV?$ChTraitsCRT@D@ATL@@@ATL@@@ATL@@E@std@@@4@$0A@@std@@@std@@IBEAAPAU_Node@?$_Tree_nod@V?$_Tmap_traits@V?$CStringT@DV?$StrTraitATL@DV?$ChTraitsCRT@D@ATL@@@ATL@@@ATL@@EU?$less@V?$CStringT@DV?$StrTraitATL@DV?$ChTraitsCRT@D@ATL@@@ATL@@@ATL@@@std@@V?$allocator@U?$pair@$$CBV?$CStringT@DV?$StrTraitATL@DV?$ChTraitsCRT@D@ATL@@@ATL@@@ATL@@E@std@@@4@$0A@@std@@@2@XZ ; std::_Tree<std::_Tmap_traits<ATL::CStringT<char,ATL::StrTraitATL<char,ATL::ChTraitsCRT<char> > >,unsigned char,std::less<ATL::CStringT<char,ATL::StrTraitATL<char,ATL::ChTraitsCRT<char> > > >,std::allocator<std::pair<ATL::CStringT<char,ATL::StrTraitATL<char,ATL::ChTraitsCRT<char> > > const ,unsigned char> >,0> >::_Root
; Function compile flags: /Ogty
; File c:\program files (x86)\microsoft visual studio .net 2003\vc7\include\xtree
;	COMDAT ?_Root@?$_Tree@V?$_Tmap_traits@V?$CStringT@DV?$StrTraitATL@DV?$ChTraitsCRT@D@ATL@@@ATL@@@ATL@@EU?$less@V?$CStringT@DV?$StrTraitATL@DV?$ChTraitsCRT@D@ATL@@@ATL@@@ATL@@@std@@V?$allocator@U?$pair@$$CBV?$CStringT@DV?$StrTraitATL@DV?$ChTraitsCRT@D@ATL@@@ATL@@@ATL@@E@std@@@4@$0A@@std@@@std@@IBEAAPAU_Node@?$_Tree_nod@V?$_Tmap_traits@V?$CStringT@DV?$StrTraitATL@DV?$ChTraitsCRT@D@ATL@@@ATL@@@ATL@@EU?$less@V?$CStringT@DV?$StrTraitATL@DV?$ChTraitsCRT@D@ATL@@@ATL@@@ATL@@@std@@V?$allocator@U?$pair@$$CBV?$CStringT@DV?$StrTraitATL@DV?$ChTraitsCRT@D@ATL@@@ATL@@@ATL@@E@std@@@4@$0A@@std@@@2@XZ
_TEXT	SEGMENT
?_Root@?$_Tree@V?$_Tmap_traits@V?$CStringT@DV?$StrTraitATL@DV?$ChTraitsCRT@D@ATL@@@ATL@@@ATL@@EU?$less@V?$CStringT@DV?$StrTraitATL@DV?$ChTraitsCRT@D@ATL@@@ATL@@@ATL@@@std@@V?$allocator@U?$pair@$$CBV?$CStringT@DV?$StrTraitATL@DV?$ChTraitsCRT@D@ATL@@@ATL@@@ATL@@E@std@@@4@$0A@@std@@@std@@IBEAAPAU_Node@?$_Tree_nod@V?$_Tmap_traits@V?$CStringT@DV?$StrTraitATL@DV?$ChTraitsCRT@D@ATL@@@ATL@@@ATL@@EU?$less@V?$CStringT@DV?$StrTraitATL@DV?$ChTraitsCRT@D@ATL@@@ATL@@@ATL@@@std@@V?$allocator@U?$pair@$$CBV?$CStringT@DV?$StrTraitATL@DV?$ChTraitsCRT@D@ATL@@@ATL@@@ATL@@E@std@@@4@$0A@@std@@@2@XZ PROC NEAR ; std::_Tree<std::_Tmap_traits<ATL::CStringT<char,ATL::StrTraitATL<char,ATL::ChTraitsCRT<char> > >,unsigned char,std::less<ATL::CStringT<char,ATL::StrTraitATL<char,ATL::ChTraitsCRT<char> > > >,std::allocator<std::pair<ATL::CStringT<char,ATL::StrTraitATL<char,ATL::ChTraitsCRT<char> > > const ,unsigned char> >,0> >::_Root, COMDAT
; _this$ = ecx

; 1064 : 		return (_Parent(_Myhead));

  00000	8b 41 04	 mov	 eax, DWORD PTR [ecx+4]
  00003	83 c0 04	 add	 eax, 4

; 1065 : 		}

  00006	c3		 ret	 0
?_Root@?$_Tree@V?$_Tmap_traits@V?$CStringT@DV?$StrTraitATL@DV?$ChTraitsCRT@D@ATL@@@ATL@@@ATL@@EU?$less@V?$CStringT@DV?$StrTraitATL@DV?$ChTraitsCRT@D@ATL@@@ATL@@@ATL@@@std@@V?$allocator@U?$pair@$$CBV?$CStringT@DV?$StrTraitATL@DV?$ChTraitsCRT@D@ATL@@@ATL@@@ATL@@E@std@@@4@$0A@@std@@@std@@IBEAAPAU_Node@?$_Tree_nod@V?$_Tmap_traits@V?$CStringT@DV?$StrTraitATL@DV?$ChTraitsCRT@D@ATL@@@ATL@@@ATL@@EU?$less@V?$CStringT@DV?$StrTraitATL@DV?$ChTraitsCRT@D@ATL@@@ATL@@@ATL@@@std@@V?$allocator@U?$pair@$$CBV?$CStringT@DV?$StrTraitATL@DV?$ChTraitsCRT@D@ATL@@@ATL@@@ATL@@E@std@@@4@$0A@@std@@@2@XZ ENDP ; std::_Tree<std::_Tmap_traits<ATL::CStringT<char,ATL::StrTraitATL<char,ATL::ChTraitsCRT<char> > >,unsigned char,std::less<ATL::CStringT<char,ATL::StrTraitATL<char,ATL::ChTraitsCRT<char> > > >,std::allocator<std::pair<ATL::CStringT<char,ATL::StrTraitATL<char,ATL::ChTraitsCRT<char> > > const ,unsigned char> >,0> >::_Root
_TEXT	ENDS
PUBLIC	?allocate@?$allocator@U_Node@?$_Tree_nod@V?$_Tmap_traits@KPAVCTPlayer@@U?$less@K@std@@V?$allocator@U?$pair@$$CBKPAVCTPlayer@@@std@@@3@$0A@@std@@@std@@@std@@QAEPAU_Node@?$_Tree_nod@V?$_Tmap_traits@KPAVCTPlayer@@U?$less@K@std@@V?$allocator@U?$pair@$$CBKPAVCTPlayer@@@std@@@3@$0A@@std@@@2@I@Z ; std::allocator<std::_Tree_nod<std::_Tmap_traits<unsigned long,CTPlayer *,std::less<unsigned long>,std::allocator<std::pair<unsigned long const ,CTPlayer *> >,0> >::_Node>::allocate
; Function compile flags: /Ogty
; File c:\program files (x86)\microsoft visual studio .net 2003\vc7\include\xmemory
;	COMDAT ?allocate@?$allocator@U_Node@?$_Tree_nod@V?$_Tmap_traits@KPAVCTPlayer@@U?$less@K@std@@V?$allocator@U?$pair@$$CBKPAVCTPlayer@@@std@@@3@$0A@@std@@@std@@@std@@QAEPAU_Node@?$_Tree_nod@V?$_Tmap_traits@KPAVCTPlayer@@U?$less@K@std@@V?$allocator@U?$pair@$$CBKPAVCTPlayer@@@std@@@3@$0A@@std@@@2@I@Z
_TEXT	SEGMENT
__Count$ = 8						; size = 4
?allocate@?$allocator@U_Node@?$_Tree_nod@V?$_Tmap_traits@KPAVCTPlayer@@U?$less@K@std@@V?$allocator@U?$pair@$$CBKPAVCTPlayer@@@std@@@3@$0A@@std@@@std@@@std@@QAEPAU_Node@?$_Tree_nod@V?$_Tmap_traits@KPAVCTPlayer@@U?$less@K@std@@V?$allocator@U?$pair@$$CBKPAVCTPlayer@@@std@@@3@$0A@@std@@@2@I@Z PROC NEAR ; std::allocator<std::_Tree_nod<std::_Tmap_traits<unsigned long,CTPlayer *,std::less<unsigned long>,std::allocator<std::pair<unsigned long const ,CTPlayer *> >,0> >::_Node>::allocate, COMDAT
; _this$ = ecx

; 137  : 		return (_Allocate(_Count, (pointer)0));

  00000	8b 44 24 04	 mov	 eax, DWORD PTR __Count$[esp-4]
  00004	8d 04 40	 lea	 eax, DWORD PTR [eax+eax*2]
  00007	c1 e0 03	 shl	 eax, 3
  0000a	50		 push	 eax
  0000b	e8 00 00 00 00	 call	 ??2@YAPAXI@Z		; operator new
  00010	83 c4 04	 add	 esp, 4

; 138  : 		}

  00013	c2 04 00	 ret	 4
?allocate@?$allocator@U_Node@?$_Tree_nod@V?$_Tmap_traits@KPAVCTPlayer@@U?$less@K@std@@V?$allocator@U?$pair@$$CBKPAVCTPlayer@@@std@@@3@$0A@@std@@@std@@@std@@QAEPAU_Node@?$_Tree_nod@V?$_Tmap_traits@KPAVCTPlayer@@U?$less@K@std@@V?$allocator@U?$pair@$$CBKPAVCTPlayer@@@std@@@3@$0A@@std@@@2@I@Z ENDP ; std::allocator<std::_Tree_nod<std::_Tmap_traits<unsigned long,CTPlayer *,std::less<unsigned long>,std::allocator<std::pair<unsigned long const ,CTPlayer *> >,0> >::_Node>::allocate
_TEXT	ENDS
PUBLIC	?_Root@?$_Tree@V?$_Tmap_traits@GV?$map@KPAVCTPlayer@@U?$less@K@std@@V?$allocator@U?$pair@$$CBKPAVCTPlayer@@@std@@@3@@std@@U?$less@G@2@V?$allocator@U?$pair@$$CBGV?$map@KPAVCTPlayer@@U?$less@K@std@@V?$allocator@U?$pair@$$CBKPAVCTPlayer@@@std@@@3@@std@@@std@@@2@$0A@@std@@@std@@IBEAAPAU_Node@?$_Tree_nod@V?$_Tmap_traits@GV?$map@KPAVCTPlayer@@U?$less@K@std@@V?$allocator@U?$pair@$$CBKPAVCTPlayer@@@std@@@3@@std@@U?$less@G@2@V?$allocator@U?$pair@$$CBGV?$map@KPAVCTPlayer@@U?$less@K@std@@V?$allocator@U?$pair@$$CBKPAVCTPlayer@@@std@@@3@@std@@@std@@@2@$0A@@std@@@2@XZ ; std::_Tree<std::_Tmap_traits<unsigned short,std::map<unsigned long,CTPlayer *,std::less<unsigned long>,std::allocator<std::pair<unsigned long const ,CTPlayer *> > >,std::less<unsigned short>,std::allocator<std::pair<unsigned short const ,std::map<unsigned long,CTPlayer *,std::less<unsigned long>,std::allocator<std::pair<unsigned long const ,CTPlayer *> > > > >,0> >::_Root
; Function compile flags: /Ogty
; File c:\program files (x86)\microsoft visual studio .net 2003\vc7\include\xtree
;	COMDAT ?_Root@?$_Tree@V?$_Tmap_traits@GV?$map@KPAVCTPlayer@@U?$less@K@std@@V?$allocator@U?$pair@$$CBKPAVCTPlayer@@@std@@@3@@std@@U?$less@G@2@V?$allocator@U?$pair@$$CBGV?$map@KPAVCTPlayer@@U?$less@K@std@@V?$allocator@U?$pair@$$CBKPAVCTPlayer@@@std@@@3@@std@@@std@@@2@$0A@@std@@@std@@IBEAAPAU_Node@?$_Tree_nod@V?$_Tmap_traits@GV?$map@KPAVCTPlayer@@U?$less@K@std@@V?$allocator@U?$pair@$$CBKPAVCTPlayer@@@std@@@3@@std@@U?$less@G@2@V?$allocator@U?$pair@$$CBGV?$map@KPAVCTPlayer@@U?$less@K@std@@V?$allocator@U?$pair@$$CBKPAVCTPlayer@@@std@@@3@@std@@@std@@@2@$0A@@std@@@2@XZ
_TEXT	SEGMENT
?_Root@?$_Tree@V?$_Tmap_traits@GV?$map@KPAVCTPlayer@@U?$less@K@std@@V?$allocator@U?$pair@$$CBKPAVCTPlayer@@@std@@@3@@std@@U?$less@G@2@V?$allocator@U?$pair@$$CBGV?$map@KPAVCTPlayer@@U?$less@K@std@@V?$allocator@U?$pair@$$CBKPAVCTPlayer@@@std@@@3@@std@@@std@@@2@$0A@@std@@@std@@IBEAAPAU_Node@?$_Tree_nod@V?$_Tmap_traits@GV?$map@KPAVCTPlayer@@U?$less@K@std@@V?$allocator@U?$pair@$$CBKPAVCTPlayer@@@std@@@3@@std@@U?$less@G@2@V?$allocator@U?$pair@$$CBGV?$map@KPAVCTPlayer@@U?$less@K@std@@V?$allocator@U?$pair@$$CBKPAVCTPlayer@@@std@@@3@@std@@@std@@@2@$0A@@std@@@2@XZ PROC NEAR ; std::_Tree<std::_Tmap_traits<unsigned short,std::map<unsigned long,CTPlayer *,std::less<unsigned long>,std::allocator<std::pair<unsigned long const ,CTPlayer *> > >,std::less<unsigned short>,std::allocator<std::pair<unsigned short const ,std::map<unsigned long,CTPlayer *,std::less<unsigned long>,std::allocator<std::pair<unsigned long const ,CTPlayer *> > > > >,0> >::_Root, COMDAT
; _this$ = ecx

; 1064 : 		return (_Parent(_Myhead));

  00000	8b 41 04	 mov	 eax, DWORD PTR [ecx+4]
  00003	83 c0 04	 add	 eax, 4

; 1065 : 		}

  00006	c3		 ret	 0
?_Root@?$_Tree@V?$_Tmap_traits@GV?$map@KPAVCTPlayer@@U?$less@K@std@@V?$allocator@U?$pair@$$CBKPAVCTPlayer@@@std@@@3@@std@@U?$less@G@2@V?$allocator@U?$pair@$$CBGV?$map@KPAVCTPlayer@@U?$less@K@std@@V?$allocator@U?$pair@$$CBKPAVCTPlayer@@@std@@@3@@std@@@std@@@2@$0A@@std@@@std@@IBEAAPAU_Node@?$_Tree_nod@V?$_Tmap_traits@GV?$map@KPAVCTPlayer@@U?$less@K@std@@V?$allocator@U?$pair@$$CBKPAVCTPlayer@@@std@@@3@@std@@U?$less@G@2@V?$allocator@U?$pair@$$CBGV?$map@KPAVCTPlayer@@U?$less@K@std@@V?$allocator@U?$pair@$$CBKPAVCTPlayer@@@std@@@3@@std@@@std@@@2@$0A@@std@@@2@XZ ENDP ; std::_Tree<std::_Tmap_traits<unsigned short,std::map<unsigned long,CTPlayer *,std::less<unsigned long>,std::allocator<std::pair<unsigned long const ,CTPlayer *> > >,std::less<unsigned short>,std::allocator<std::pair<unsigned short const ,std::map<unsigned long,CTPlayer *,std::less<unsigned long>,std::allocator<std::pair<unsigned long const ,CTPlayer *> > > > >,0> >::_Root
_TEXT	ENDS
PUBLIC	?_Dec@const_iterator@?$_Tree@V?$_Tmap_traits@KPAVCTPlayer@@U?$less@K@std@@V?$allocator@U?$pair@$$CBKPAVCTPlayer@@@std@@@3@$0A@@std@@@std@@QAEXXZ ; std::_Tree<std::_Tmap_traits<unsigned long,CTPlayer *,std::less<unsigned long>,std::allocator<std::pair<unsigned long const ,CTPlayer *> >,0> >::const_iterator::_Dec
; Function compile flags: /Ogty
;	COMDAT ?_Dec@const_iterator@?$_Tree@V?$_Tmap_traits@KPAVCTPlayer@@U?$less@K@std@@V?$allocator@U?$pair@$$CBKPAVCTPlayer@@@std@@@3@$0A@@std@@@std@@QAEXXZ
_TEXT	SEGMENT
?_Dec@const_iterator@?$_Tree@V?$_Tmap_traits@KPAVCTPlayer@@U?$less@K@std@@V?$allocator@U?$pair@$$CBKPAVCTPlayer@@@std@@@3@$0A@@std@@@std@@QAEXXZ PROC NEAR ; std::_Tree<std::_Tmap_traits<unsigned long,CTPlayer *,std::less<unsigned long>,std::allocator<std::pair<unsigned long const ,CTPlayer *> >,0> >::const_iterator::_Dec, COMDAT
; _this$ = ecx

; 251  : 			if (_Isnil(_Ptr))

  00000	8b 01		 mov	 eax, DWORD PTR [ecx]
  00002	8a 50 15	 mov	 dl, BYTE PTR [eax+21]
  00005	84 d2		 test	 dl, dl
  00007	74 06		 je	 SHORT $L109094

; 252  : 				_Ptr = _Right(_Ptr);	// end() ==> rightmost

  00009	8b 40 08	 mov	 eax, DWORD PTR [eax+8]
  0000c	89 01		 mov	 DWORD PTR [ecx], eax

; 263  : 				}
; 264  : 			}

  0000e	c3		 ret	 0
$L109094:

; 253  : 			else if (!_Isnil(_Left(_Ptr)))

  0000f	8b 10		 mov	 edx, DWORD PTR [eax]
  00011	53		 push	 ebx
  00012	8a 5a 15	 mov	 bl, BYTE PTR [edx+21]
  00015	84 db		 test	 bl, bl
  00017	75 1a		 jne	 SHORT $L110866

; 254  : 				_Ptr = _Max(_Left(_Ptr));	// ==> largest of left subtree

  00019	8b 42 08	 mov	 eax, DWORD PTR [edx+8]
  0001c	8a 58 15	 mov	 bl, BYTE PTR [eax+21]
  0001f	84 db		 test	 bl, bl
  00021	75 0c		 jne	 SHORT $L110851
$L110850:
  00023	8b d0		 mov	 edx, eax
  00025	8b 42 08	 mov	 eax, DWORD PTR [edx+8]
  00028	8a 58 15	 mov	 bl, BYTE PTR [eax+21]
  0002b	84 db		 test	 bl, bl
  0002d	74 f4		 je	 SHORT $L110850
$L110851:
  0002f	89 11		 mov	 DWORD PTR [ecx], edx
  00031	5b		 pop	 ebx

; 263  : 				}
; 264  : 			}

  00032	c3		 ret	 0
$L110866:

; 255  : 			else
; 256  : 				{	// climb looking for left subtree
; 257  : 				_Nodeptr _Pnode;
; 258  : 				while (!_Isnil(_Pnode = _Parent(_Ptr))
; 259  : 					&& _Ptr == _Left(_Pnode))

  00033	8b 40 04	 mov	 eax, DWORD PTR [eax+4]
  00036	8a 50 15	 mov	 dl, BYTE PTR [eax+21]
  00039	84 d2		 test	 dl, dl
  0003b	75 1e		 jne	 SHORT $L110869
  0003d	8d 49 00	 npad	 3
$L109100:
  00040	8b 11		 mov	 edx, DWORD PTR [ecx]
  00042	3b 10		 cmp	 edx, DWORD PTR [eax]
  00044	75 0c		 jne	 SHORT $L109101

; 260  : 					_Ptr = _Pnode;	// ==> parent while left subtree

  00046	89 01		 mov	 DWORD PTR [ecx], eax
  00048	8b 40 04	 mov	 eax, DWORD PTR [eax+4]
  0004b	8a 50 15	 mov	 dl, BYTE PTR [eax+21]
  0004e	84 d2		 test	 dl, dl
  00050	74 ee		 je	 SHORT $L109100
$L109101:

; 261  : 				if (!_Isnil(_Pnode))

  00052	8a 50 15	 mov	 dl, BYTE PTR [eax+21]
  00055	84 d2		 test	 dl, dl
  00057	75 02		 jne	 SHORT $L110869

; 262  : 					_Ptr = _Pnode;	// ==> parent if not head

  00059	89 01		 mov	 DWORD PTR [ecx], eax
$L110869:
  0005b	5b		 pop	 ebx

; 263  : 				}
; 264  : 			}

  0005c	c3		 ret	 0
?_Dec@const_iterator@?$_Tree@V?$_Tmap_traits@KPAVCTPlayer@@U?$less@K@std@@V?$allocator@U?$pair@$$CBKPAVCTPlayer@@@std@@@3@$0A@@std@@@std@@QAEXXZ ENDP ; std::_Tree<std::_Tmap_traits<unsigned long,CTPlayer *,std::less<unsigned long>,std::allocator<std::pair<unsigned long const ,CTPlayer *> >,0> >::const_iterator::_Dec
_TEXT	ENDS
PUBLIC	?_Inc@const_iterator@?$_Tree@V?$_Tmap_traits@KPAVCTPlayer@@U?$less@K@std@@V?$allocator@U?$pair@$$CBKPAVCTPlayer@@@std@@@3@$0A@@std@@@std@@QAEXXZ ; std::_Tree<std::_Tmap_traits<unsigned long,CTPlayer *,std::less<unsigned long>,std::allocator<std::pair<unsigned long const ,CTPlayer *> >,0> >::const_iterator::_Inc
; Function compile flags: /Ogty
;	COMDAT ?_Inc@const_iterator@?$_Tree@V?$_Tmap_traits@KPAVCTPlayer@@U?$less@K@std@@V?$allocator@U?$pair@$$CBKPAVCTPlayer@@@std@@@3@$0A@@std@@@std@@QAEXXZ
_TEXT	SEGMENT
?_Inc@const_iterator@?$_Tree@V?$_Tmap_traits@KPAVCTPlayer@@U?$less@K@std@@V?$allocator@U?$pair@$$CBKPAVCTPlayer@@@std@@@3@$0A@@std@@@std@@QAEXXZ PROC NEAR ; std::_Tree<std::_Tmap_traits<unsigned long,CTPlayer *,std::less<unsigned long>,std::allocator<std::pair<unsigned long const ,CTPlayer *> >,0> >::const_iterator::_Inc, COMDAT
; _this$ = ecx

; 268  : 			if (_Isnil(_Ptr))

  00000	8b 01		 mov	 eax, DWORD PTR [ecx]
  00002	8a 50 15	 mov	 dl, BYTE PTR [eax+21]
  00005	84 d2		 test	 dl, dl
  00007	75 4d		 jne	 SHORT $L109108

; 269  : 				;	// end() shouldn't be incremented, don't move
; 270  : 			else if (!_Isnil(_Right(_Ptr)))

  00009	8b 50 08	 mov	 edx, DWORD PTR [eax+8]
  0000c	53		 push	 ebx
  0000d	8a 5a 15	 mov	 bl, BYTE PTR [edx+21]
  00010	84 db		 test	 bl, bl
  00012	75 1b		 jne	 SHORT $L110917

; 271  : 				_Ptr = _Min(_Right(_Ptr));	// ==> smallest of right subtree

  00014	8b 02		 mov	 eax, DWORD PTR [edx]
  00016	8a 58 15	 mov	 bl, BYTE PTR [eax+21]
  00019	84 db		 test	 bl, bl
  0001b	75 0e		 jne	 SHORT $L110905
  0001d	8d 49 00	 npad	 3
$L110904:
  00020	8b d0		 mov	 edx, eax
  00022	8b 02		 mov	 eax, DWORD PTR [edx]
  00024	8a 58 15	 mov	 bl, BYTE PTR [eax+21]
  00027	84 db		 test	 bl, bl
  00029	74 f5		 je	 SHORT $L110904
$L110905:
  0002b	89 11		 mov	 DWORD PTR [ecx], edx
  0002d	5b		 pop	 ebx

; 279  : 				}
; 280  : 			}

  0002e	c3		 ret	 0
$L110917:

; 272  : 			else
; 273  : 				{	// climb looking for right subtree
; 274  : 				_Nodeptr _Pnode;
; 275  : 				while (!_Isnil(_Pnode = _Parent(_Ptr))
; 276  : 					&& _Ptr == _Right(_Pnode))

  0002f	8b 40 04	 mov	 eax, DWORD PTR [eax+4]
  00032	8a 50 15	 mov	 dl, BYTE PTR [eax+21]
  00035	84 d2		 test	 dl, dl
  00037	75 1a		 jne	 SHORT $L109112
  00039	8d a4 24 00 00
	00 00		 npad	 7
$L109111:
  00040	8b 11		 mov	 edx, DWORD PTR [ecx]
  00042	3b 50 08	 cmp	 edx, DWORD PTR [eax+8]
  00045	75 0c		 jne	 SHORT $L109112

; 277  : 					_Ptr = _Pnode;	// ==> parent while right subtree

  00047	89 01		 mov	 DWORD PTR [ecx], eax
  00049	8b 40 04	 mov	 eax, DWORD PTR [eax+4]
  0004c	8a 50 15	 mov	 dl, BYTE PTR [eax+21]
  0004f	84 d2		 test	 dl, dl
  00051	74 ed		 je	 SHORT $L109111
$L109112:

; 278  : 				_Ptr = _Pnode;	// ==> parent (head if end())

  00053	89 01		 mov	 DWORD PTR [ecx], eax
  00055	5b		 pop	 ebx
$L109108:

; 279  : 				}
; 280  : 			}

  00056	c3		 ret	 0
?_Inc@const_iterator@?$_Tree@V?$_Tmap_traits@KPAVCTPlayer@@U?$less@K@std@@V?$allocator@U?$pair@$$CBKPAVCTPlayer@@@std@@@3@$0A@@std@@@std@@QAEXXZ ENDP ; std::_Tree<std::_Tmap_traits<unsigned long,CTPlayer *,std::less<unsigned long>,std::allocator<std::pair<unsigned long const ,CTPlayer *> >,0> >::const_iterator::_Inc
_TEXT	ENDS
PUBLIC	?_Inc@const_iterator@?$_Tree@V?$_Tmap_traits@GPAVCTParty@@U?$less@G@std@@V?$allocator@U?$pair@$$CBGPAVCTParty@@@std@@@3@$0A@@std@@@std@@QAEXXZ ; std::_Tree<std::_Tmap_traits<unsigned short,CTParty *,std::less<unsigned short>,std::allocator<std::pair<unsigned short const ,CTParty *> >,0> >::const_iterator::_Inc
; Function compile flags: /Ogty
;	COMDAT ?_Inc@const_iterator@?$_Tree@V?$_Tmap_traits@GPAVCTParty@@U?$less@G@std@@V?$allocator@U?$pair@$$CBGPAVCTParty@@@std@@@3@$0A@@std@@@std@@QAEXXZ
_TEXT	SEGMENT
?_Inc@const_iterator@?$_Tree@V?$_Tmap_traits@GPAVCTParty@@U?$less@G@std@@V?$allocator@U?$pair@$$CBGPAVCTParty@@@std@@@3@$0A@@std@@@std@@QAEXXZ PROC NEAR ; std::_Tree<std::_Tmap_traits<unsigned short,CTParty *,std::less<unsigned short>,std::allocator<std::pair<unsigned short const ,CTParty *> >,0> >::const_iterator::_Inc, COMDAT
; _this$ = ecx

; 268  : 			if (_Isnil(_Ptr))

  00000	8b 01		 mov	 eax, DWORD PTR [ecx]
  00002	8a 50 15	 mov	 dl, BYTE PTR [eax+21]
  00005	84 d2		 test	 dl, dl
  00007	75 4d		 jne	 SHORT $L109118

; 269  : 				;	// end() shouldn't be incremented, don't move
; 270  : 			else if (!_Isnil(_Right(_Ptr)))

  00009	8b 50 08	 mov	 edx, DWORD PTR [eax+8]
  0000c	53		 push	 ebx
  0000d	8a 5a 15	 mov	 bl, BYTE PTR [edx+21]
  00010	84 db		 test	 bl, bl
  00012	75 1b		 jne	 SHORT $L110967

; 271  : 				_Ptr = _Min(_Right(_Ptr));	// ==> smallest of right subtree

  00014	8b 02		 mov	 eax, DWORD PTR [edx]
  00016	8a 58 15	 mov	 bl, BYTE PTR [eax+21]
  00019	84 db		 test	 bl, bl
  0001b	75 0e		 jne	 SHORT $L110955
  0001d	8d 49 00	 npad	 3
$L110954:
  00020	8b d0		 mov	 edx, eax
  00022	8b 02		 mov	 eax, DWORD PTR [edx]
  00024	8a 58 15	 mov	 bl, BYTE PTR [eax+21]
  00027	84 db		 test	 bl, bl
  00029	74 f5		 je	 SHORT $L110954
$L110955:
  0002b	89 11		 mov	 DWORD PTR [ecx], edx
  0002d	5b		 pop	 ebx

; 279  : 				}
; 280  : 			}

  0002e	c3		 ret	 0
$L110967:

; 272  : 			else
; 273  : 				{	// climb looking for right subtree
; 274  : 				_Nodeptr _Pnode;
; 275  : 				while (!_Isnil(_Pnode = _Parent(_Ptr))
; 276  : 					&& _Ptr == _Right(_Pnode))

  0002f	8b 40 04	 mov	 eax, DWORD PTR [eax+4]
  00032	8a 50 15	 mov	 dl, BYTE PTR [eax+21]
  00035	84 d2		 test	 dl, dl
  00037	75 1a		 jne	 SHORT $L109122
  00039	8d a4 24 00 00
	00 00		 npad	 7
$L109121:
  00040	8b 11		 mov	 edx, DWORD PTR [ecx]
  00042	3b 50 08	 cmp	 edx, DWORD PTR [eax+8]
  00045	75 0c		 jne	 SHORT $L109122

; 277  : 					_Ptr = _Pnode;	// ==> parent while right subtree

  00047	89 01		 mov	 DWORD PTR [ecx], eax
  00049	8b 40 04	 mov	 eax, DWORD PTR [eax+4]
  0004c	8a 50 15	 mov	 dl, BYTE PTR [eax+21]
  0004f	84 d2		 test	 dl, dl
  00051	74 ed		 je	 SHORT $L109121
$L109122:

; 278  : 				_Ptr = _Pnode;	// ==> parent (head if end())

  00053	89 01		 mov	 DWORD PTR [ecx], eax
  00055	5b		 pop	 ebx
$L109118:

; 279  : 				}
; 280  : 			}

  00056	c3		 ret	 0
?_Inc@const_iterator@?$_Tree@V?$_Tmap_traits@GPAVCTParty@@U?$less@G@std@@V?$allocator@U?$pair@$$CBGPAVCTParty@@@std@@@3@$0A@@std@@@std@@QAEXXZ ENDP ; std::_Tree<std::_Tmap_traits<unsigned short,CTParty *,std::less<unsigned short>,std::allocator<std::pair<unsigned short const ,CTParty *> >,0> >::const_iterator::_Inc
_TEXT	ENDS
PUBLIC	?GetTickCount@CTime@ATL@@SG?AV12@XZ		; ATL::CTime::GetTickCount
EXTRN	__time64:NEAR
; Function compile flags: /Ogty
; File c:\program files (x86)\microsoft visual studio .net 2003\vc7\atlmfc\include\atltime.inl
;	COMDAT ?GetTickCount@CTime@ATL@@SG?AV12@XZ
_TEXT	SEGMENT
___$ReturnUdt$ = 8					; size = 4
?GetTickCount@CTime@ATL@@SG?AV12@XZ PROC NEAR		; ATL::CTime::GetTickCount, COMDAT

; 139  : 	return( CTime( ::_time64( NULL ) ) );

  00000	6a 00		 push	 0
  00002	e8 00 00 00 00	 call	 __time64
  00007	8b 4c 24 08	 mov	 ecx, DWORD PTR ___$ReturnUdt$[esp]
  0000b	89 01		 mov	 DWORD PTR [ecx], eax
  0000d	83 c4 04	 add	 esp, 4
  00010	89 51 04	 mov	 DWORD PTR [ecx+4], edx
  00013	8b c1		 mov	 eax, ecx

; 140  : }

  00015	c2 04 00	 ret	 4
?GetTickCount@CTime@ATL@@SG?AV12@XZ ENDP		; ATL::CTime::GetTickCount
_TEXT	ENDS
PUBLIC	??0?$CSimpleStringT@D$0A@@ATL@@QAE@PAUIAtlStringMgr@1@@Z ; ATL::CSimpleStringT<char,0>::CSimpleStringT<char,0>
; Function compile flags: /Ogty
; File c:\program files (x86)\microsoft visual studio .net 2003\vc7\atlmfc\include\atlsimpstr.h
;	COMDAT ??0?$CSimpleStringT@D$0A@@ATL@@QAE@PAUIAtlStringMgr@1@@Z
_TEXT	SEGMENT
_pStringMgr$ = 8					; size = 4
??0?$CSimpleStringT@D$0A@@ATL@@QAE@PAUIAtlStringMgr@1@@Z PROC NEAR ; ATL::CSimpleStringT<char,0>::CSimpleStringT<char,0>, COMDAT
; _this$ = ecx

; 210  : 	explicit CSimpleStringT( IAtlStringMgr* pStringMgr ) throw()

  00000	56		 push	 esi
  00001	8b f1		 mov	 esi, ecx

; 211  : 	{
; 212  : 		ATLASSERT( pStringMgr != NULL );
; 213  : 		CStringData* pData = pStringMgr->GetNilString();

  00003	8b 4c 24 08	 mov	 ecx, DWORD PTR _pStringMgr$[esp]
  00007	8b 01		 mov	 eax, DWORD PTR [ecx]
  00009	ff 50 0c	 call	 DWORD PTR [eax+12]

; 214  : 		Attach( pData );

  0000c	83 c0 10	 add	 eax, 16			; 00000010H
  0000f	89 06		 mov	 DWORD PTR [esi], eax

; 215  : 	}

  00011	8b c6		 mov	 eax, esi
  00013	5e		 pop	 esi
  00014	c2 04 00	 ret	 4
??0?$CSimpleStringT@D$0A@@ATL@@QAE@PAUIAtlStringMgr@1@@Z ENDP ; ATL::CSimpleStringT<char,0>::CSimpleStringT<char,0>
_TEXT	ENDS
PUBLIC	??1?$CSimpleStringT@D$0A@@ATL@@QAE@XZ		; ATL::CSimpleStringT<char,0>::~CSimpleStringT<char,0>
; Function compile flags: /Ogty
;	COMDAT ??1?$CSimpleStringT@D$0A@@ATL@@QAE@XZ
_TEXT	SEGMENT
??1?$CSimpleStringT@D$0A@@ATL@@QAE@XZ PROC NEAR		; ATL::CSimpleStringT<char,0>::~CSimpleStringT<char,0>, COMDAT
; _this$ = ecx

; 263  : 		CStringData* pData = GetData();

  00000	8b 01		 mov	 eax, DWORD PTR [ecx]
  00002	83 e8 10	 sub	 eax, 16			; 00000010H

; 264  : 		pData->Release();

  00005	8d 48 0c	 lea	 ecx, DWORD PTR [eax+12]
  00008	83 ca ff	 or	 edx, -1
  0000b	f0 0f c1 11	 lock	  xadd	 DWORD PTR [ecx], edx
  0000f	4a		 dec	 edx
  00010	85 d2		 test	 edx, edx
  00012	7f 08		 jg	 SHORT $L110998
  00014	8b 08		 mov	 ecx, DWORD PTR [eax]
  00016	8b 11		 mov	 edx, DWORD PTR [ecx]
  00018	50		 push	 eax
  00019	ff 52 04	 call	 DWORD PTR [edx+4]
$L110998:

; 265  : 	}

  0001c	c3		 ret	 0
??1?$CSimpleStringT@D$0A@@ATL@@QAE@XZ ENDP		; ATL::CSimpleStringT<char,0>::~CSimpleStringT<char,0>
_TEXT	ENDS
PUBLIC	??0?$_String_val@DV?$allocator@D@std@@@std@@IAE@V?$allocator@D@1@@Z ; std::_String_val<char,std::allocator<char> >::_String_val<char,std::allocator<char> >
; Function compile flags: /Ogty
; File c:\program files (x86)\microsoft visual studio .net 2003\vc7\include\xstring
;	COMDAT ??0?$_String_val@DV?$allocator@D@std@@@std@@IAE@V?$allocator@D@1@@Z
_TEXT	SEGMENT
__Al$ = 8						; size = 1
??0?$_String_val@DV?$allocator@D@std@@@std@@IAE@V?$allocator@D@1@@Z PROC NEAR ; std::_String_val<char,std::allocator<char> >::_String_val<char,std::allocator<char> >, COMDAT
; _this$ = ecx

; 34   : 		{	// construct allocator from _Al

  00000	8b c1		 mov	 eax, ecx

; 35   : 		}

  00002	c2 04 00	 ret	 4
??0?$_String_val@DV?$allocator@D@std@@@std@@IAE@V?$allocator@D@1@@Z ENDP ; std::_String_val<char,std::allocator<char> >::_String_val<char,std::allocator<char> >
_TEXT	ENDS
PUBLIC	?GetLength@?$CSimpleStringT@D$0A@@ATL@@QBEHXZ	; ATL::CSimpleStringT<char,0>::GetLength
; Function compile flags: /Ogty
; File c:\program files (x86)\microsoft visual studio .net 2003\vc7\atlmfc\include\atlsimpstr.h
;	COMDAT ?GetLength@?$CSimpleStringT@D$0A@@ATL@@QBEHXZ
_TEXT	SEGMENT
?GetLength@?$CSimpleStringT@D$0A@@ATL@@QBEHXZ PROC NEAR	; ATL::CSimpleStringT<char,0>::GetLength, COMDAT
; _this$ = ecx

; 501  : 		return( GetData()->nDataLength );

  00000	8b 01		 mov	 eax, DWORD PTR [ecx]
  00002	8b 40 f4	 mov	 eax, DWORD PTR [eax-12]

; 502  : 	}

  00005	c3		 ret	 0
?GetLength@?$CSimpleStringT@D$0A@@ATL@@QBEHXZ ENDP	; ATL::CSimpleStringT<char,0>::GetLength
_TEXT	ENDS
PUBLIC	?ReleaseBufferSetLength@?$CSimpleStringT@D$0A@@ATL@@QAEXH@Z ; ATL::CSimpleStringT<char,0>::ReleaseBufferSetLength
; Function compile flags: /Ogty
;	COMDAT ?ReleaseBufferSetLength@?$CSimpleStringT@D$0A@@ATL@@QAEXH@Z
_TEXT	SEGMENT
_nNewLength$ = 8					; size = 4
?ReleaseBufferSetLength@?$CSimpleStringT@D$0A@@ATL@@QAEXH@Z PROC NEAR ; ATL::CSimpleStringT<char,0>::ReleaseBufferSetLength, COMDAT
; _this$ = ecx

; 547  : 		ATLASSERT( nNewLength >= 0 );
; 548  : 		SetLength( nNewLength );

  00000	8b 44 24 04	 mov	 eax, DWORD PTR _nNewLength$[esp-4]
  00004	85 c0		 test	 eax, eax
  00006	7c 13		 jl	 SHORT $L111023
  00008	8b 11		 mov	 edx, DWORD PTR [ecx]
  0000a	3b 42 f8	 cmp	 eax, DWORD PTR [edx-8]
  0000d	7f 0c		 jg	 SHORT $L111023
  0000f	89 42 f4	 mov	 DWORD PTR [edx-12], eax
  00012	8b 09		 mov	 ecx, DWORD PTR [ecx]
  00014	c6 04 08 00	 mov	 BYTE PTR [eax+ecx], 0

; 549  : 	}

  00018	c2 04 00	 ret	 4
$L111023:
  0001b	68 57 00 07 80	 push	 -2147024809		; 80070057H
  00020	e8 00 00 00 00	 call	 ?AtlThrow@ATL@@YGXJ@Z	; ATL::AtlThrow
$L111031:
$L111030:
  00025	cc		 int	 3
?ReleaseBufferSetLength@?$CSimpleStringT@D$0A@@ATL@@QAEXH@Z ENDP ; ATL::CSimpleStringT<char,0>::ReleaseBufferSetLength
_TEXT	ENDS
PUBLIC	?PrepareWrite2@?$CSimpleStringT@D$0A@@ATL@@AAEXH@Z ; ATL::CSimpleStringT<char,0>::PrepareWrite2
; Function compile flags: /Ogty
;	COMDAT ?PrepareWrite2@?$CSimpleStringT@D$0A@@ATL@@AAEXH@Z
_TEXT	SEGMENT
_nLength$ = 8						; size = 4
?PrepareWrite2@?$CSimpleStringT@D$0A@@ATL@@AAEXH@Z PROC NEAR ; ATL::CSimpleStringT<char,0>::PrepareWrite2, COMDAT
; _this$ = ecx

; 747  : 		CStringData* pOldData = GetData();

  00000	8b 01		 mov	 eax, DWORD PTR [ecx]

; 748  : 		if( pOldData->nDataLength > nLength )

  00002	8b 54 24 04	 mov	 edx, DWORD PTR _nLength$[esp-4]
  00006	83 e8 10	 sub	 eax, 16			; 00000010H
  00009	56		 push	 esi
  0000a	8b 70 04	 mov	 esi, DWORD PTR [eax+4]
  0000d	3b f2		 cmp	 esi, edx
  0000f	7e 02		 jle	 SHORT $L103750

; 749  : 		{
; 750  : 			nLength = pOldData->nDataLength;

  00011	8b d6		 mov	 edx, esi
$L103750:

; 751  : 		}
; 752  : 		if( pOldData->IsShared() )

  00013	83 78 0c 01	 cmp	 DWORD PTR [eax+12], 1
  00017	5e		 pop	 esi
  00018	7e 09		 jle	 SHORT $L103751

; 753  : 		{
; 754  : 			Fork( nLength );

  0001a	89 54 24 04	 mov	 DWORD PTR _nLength$[esp-4], edx
  0001e	e9 00 00 00 00	 jmp	 ?Fork@?$CSimpleStringT@D$0A@@ATL@@AAEXH@Z ; ATL::CSimpleStringT<char,0>::Fork
$L103751:

; 755  : 		}
; 756  : 		else if( pOldData->nAllocLength < nLength )

  00023	8b 40 08	 mov	 eax, DWORD PTR [eax+8]
  00026	3b c2		 cmp	 eax, edx
  00028	7d 1f		 jge	 SHORT $L103753

; 757  : 		{
; 758  : 			// Grow exponentially, until we hit 1K.
; 759  : 			int nNewLength = pOldData->nAllocLength;
; 760  : 			if( nNewLength > 1024 )

  0002a	3d 00 04 00 00	 cmp	 eax, 1024		; 00000400H
  0002f	7e 07		 jle	 SHORT $L103755

; 761  : 			{
; 762  : 				nNewLength += 1024;

  00031	05 00 04 00 00	 add	 eax, 1024		; 00000400H

; 763  : 			}
; 764  : 			else

  00036	eb 02		 jmp	 SHORT $L103756
$L103755:

; 765  : 			{
; 766  : 				nNewLength *= 2;

  00038	03 c0		 add	 eax, eax
$L103756:

; 767  : 			}
; 768  : 			if( nNewLength < nLength )

  0003a	3b c2		 cmp	 eax, edx
  0003c	7d 02		 jge	 SHORT $L103757

; 769  : 			{
; 770  : 				nNewLength = nLength;

  0003e	8b c2		 mov	 eax, edx
$L103757:

; 771  : 			}
; 772  : 			Reallocate( nNewLength );

  00040	89 44 24 04	 mov	 DWORD PTR _nLength$[esp-4], eax
  00044	e9 00 00 00 00	 jmp	 ?Reallocate@?$CSimpleStringT@D$0A@@ATL@@AAEXH@Z ; ATL::CSimpleStringT<char,0>::Reallocate
$L103753:

; 773  : 		}
; 774  : 	}

  00049	c2 04 00	 ret	 4
?PrepareWrite2@?$CSimpleStringT@D$0A@@ATL@@AAEXH@Z ENDP	; ATL::CSimpleStringT<char,0>::PrepareWrite2
_TEXT	ENDS
PUBLIC	?CloneData@?$CSimpleStringT@D$0A@@ATL@@CAPAUCStringData@2@PAU32@@Z ; ATL::CSimpleStringT<char,0>::CloneData
; Function compile flags: /Ogty
;	COMDAT ?CloneData@?$CSimpleStringT@D$0A@@ATL@@CAPAUCStringData@2@PAU32@@Z
_TEXT	SEGMENT
_pData$ = 8						; size = 4
?CloneData@?$CSimpleStringT@D$0A@@ATL@@CAPAUCStringData@2@PAU32@@Z PROC NEAR ; ATL::CSimpleStringT<char,0>::CloneData, COMDAT

; 801  : 	{

  00000	56		 push	 esi

; 802  : 		CStringData* pNewData = NULL;
; 803  : 
; 804  : 		IAtlStringMgr* pNewStringMgr = pData->pStringMgr->Clone();

  00001	8b 74 24 08	 mov	 esi, DWORD PTR _pData$[esp]
  00005	8b 0e		 mov	 ecx, DWORD PTR [esi]
  00007	8b 01		 mov	 eax, DWORD PTR [ecx]
  00009	ff 50 10	 call	 DWORD PTR [eax+16]

; 805  : 		if( !pData->IsLocked() && (pNewStringMgr == pData->pStringMgr) )

  0000c	8b 56 0c	 mov	 edx, DWORD PTR [esi+12]
  0000f	85 d2		 test	 edx, edx
  00011	8d 4e 0c	 lea	 ecx, DWORD PTR [esi+12]
  00014	7c 11		 jl	 SHORT $L103761
  00016	3b 06		 cmp	 eax, DWORD PTR [esi]
  00018	75 0d		 jne	 SHORT $L103761

; 806  : 		{
; 807  : 			pNewData = pData;

  0001a	8b c6		 mov	 eax, esi

; 808  : 			pNewData->AddRef();

  0001c	ba 01 00 00 00	 mov	 edx, 1
  00021	f0 0f c1 11	 lock	  xadd	 DWORD PTR [ecx], edx
  00025	5e		 pop	 esi

; 819  : 		}
; 820  : 
; 821  : 		return( pNewData );
; 822  : 	}

  00026	c3		 ret	 0
$L103761:

; 809  : 		}
; 810  : 		else
; 811  : 		{
; 812  : 			pNewData = pNewStringMgr->Allocate( pData->nDataLength, sizeof( XCHAR ) );

  00027	8b 4e 04	 mov	 ecx, DWORD PTR [esi+4]
  0002a	8b 10		 mov	 edx, DWORD PTR [eax]
  0002c	6a 01		 push	 1
  0002e	51		 push	 ecx
  0002f	8b c8		 mov	 ecx, eax
  00031	ff 12		 call	 DWORD PTR [edx]

; 813  : 			if( pNewData == NULL )

  00033	85 c0		 test	 eax, eax
  00035	75 05		 jne	 SHORT $L103764

; 814  : 			{
; 815  : 				ThrowMemoryException();

  00037	e9 00 00 00 00	 jmp	 ?ThrowMemoryException@?$CSimpleStringT@D$0A@@ATL@@KAXXZ ; ATL::CSimpleStringT<char,0>::ThrowMemoryException
$L103764:

; 816  : 			}
; 817  : 			pNewData->nDataLength = pData->nDataLength;

  0003c	8b 56 04	 mov	 edx, DWORD PTR [esi+4]
  0003f	89 50 04	 mov	 DWORD PTR [eax+4], edx

; 818  : 			CopyChars( PXSTR( pNewData->data() ), PCXSTR( pData->data() ), pData->nDataLength+1 );  // Copy '\0'

  00042	8b 4e 04	 mov	 ecx, DWORD PTR [esi+4]
  00045	41		 inc	 ecx
  00046	8b d1		 mov	 edx, ecx
  00048	57		 push	 edi
  00049	c1 e9 02	 shr	 ecx, 2
  0004c	83 c6 10	 add	 esi, 16			; 00000010H
  0004f	8d 78 10	 lea	 edi, DWORD PTR [eax+16]
  00052	f3 a5		 rep movsd
  00054	8b ca		 mov	 ecx, edx
  00056	83 e1 03	 and	 ecx, 3
  00059	f3 a4		 rep movsb
  0005b	5f		 pop	 edi
  0005c	5e		 pop	 esi

; 819  : 		}
; 820  : 
; 821  : 		return( pNewData );
; 822  : 	}

  0005d	c3		 ret	 0
?CloneData@?$CSimpleStringT@D$0A@@ATL@@CAPAUCStringData@2@PAU32@@Z ENDP ; ATL::CSimpleStringT<char,0>::CloneData
_TEXT	ENDS
PUBLIC	?_Eos@?$basic_string@DU?$char_traits@D@std@@V?$allocator@D@2@@std@@IAEXI@Z ; std::basic_string<char,std::char_traits<char>,std::allocator<char> >::_Eos
; Function compile flags: /Ogty
; File c:\program files (x86)\microsoft visual studio .net 2003\vc7\include\xstring
;	COMDAT ?_Eos@?$basic_string@DU?$char_traits@D@std@@V?$allocator@D@2@@std@@IAEXI@Z
_TEXT	SEGMENT
__Newsize$ = 8						; size = 4
?_Eos@?$basic_string@DU?$char_traits@D@std@@V?$allocator@D@2@@std@@IAEXI@Z PROC NEAR ; std::basic_string<char,std::char_traits<char>,std::allocator<char> >::_Eos, COMDAT
; _this$ = ecx

; 1475 : 		_Traits::assign(_Myptr()[_Mysize = _Newsize], _Elem());

  00000	83 79 18 10	 cmp	 DWORD PTR [ecx+24], 16	; 00000010H
  00004	8b 44 24 04	 mov	 eax, DWORD PTR __Newsize$[esp-4]
  00008	89 41 14	 mov	 DWORD PTR [ecx+20], eax
  0000b	72 0a		 jb	 SHORT $L111070
  0000d	8b 49 04	 mov	 ecx, DWORD PTR [ecx+4]
  00010	c6 04 01 00	 mov	 BYTE PTR [ecx+eax], 0

; 1476 : 		}

  00014	c2 04 00	 ret	 4

; 1475 : 		_Traits::assign(_Myptr()[_Mysize = _Newsize], _Elem());

$L111070:
  00017	c6 44 01 04 00	 mov	 BYTE PTR [ecx+eax+4], 0

; 1476 : 		}

  0001c	c2 04 00	 ret	 4
?_Eos@?$basic_string@DU?$char_traits@D@std@@V?$allocator@D@2@@std@@IAEXI@Z ENDP ; std::basic_string<char,std::char_traits<char>,std::allocator<char> >::_Eos
_TEXT	ENDS
PUBLIC	?max_size@?$basic_string@DU?$char_traits@D@std@@V?$allocator@D@2@@std@@QBEIXZ ; std::basic_string<char,std::char_traits<char>,std::allocator<char> >::max_size
; Function compile flags: /Ogty
;	COMDAT ?max_size@?$basic_string@DU?$char_traits@D@std@@V?$allocator@D@2@@std@@QBEIXZ
_TEXT	SEGMENT
?max_size@?$basic_string@DU?$char_traits@D@std@@V?$allocator@D@2@@std@@QBEIXZ PROC NEAR ; std::basic_string<char,std::char_traits<char>,std::allocator<char> >::max_size, COMDAT
; _this$ = ecx

; 1114 : 		size_type _Num = _Mybase::_Alval.max_size();
; 1115 : 		return (_Num <= 1 ? 1 : _Num - 1);

  00000	b8 fe ff ff ff	 mov	 eax, -2			; fffffffeH

; 1116 : 		}

  00005	c3		 ret	 0
?max_size@?$basic_string@DU?$char_traits@D@std@@V?$allocator@D@2@@std@@QBEIXZ ENDP ; std::basic_string<char,std::char_traits<char>,std::allocator<char> >::max_size
_TEXT	ENDS
PUBLIC	?allocate@?$allocator@D@std@@QAEPADI@Z		; std::allocator<char>::allocate
; Function compile flags: /Ogty
; File c:\program files (x86)\microsoft visual studio .net 2003\vc7\include\xmemory
;	COMDAT ?allocate@?$allocator@D@std@@QAEPADI@Z
_TEXT	SEGMENT
__Count$ = 8						; size = 4
?allocate@?$allocator@D@std@@QAEPADI@Z PROC NEAR	; std::allocator<char>::allocate, COMDAT
; _this$ = ecx

; 137  : 		return (_Allocate(_Count, (pointer)0));

  00000	8b 44 24 04	 mov	 eax, DWORD PTR __Count$[esp-4]
  00004	50		 push	 eax
  00005	e8 00 00 00 00	 call	 ??2@YAPAXI@Z		; operator new
  0000a	83 c4 04	 add	 esp, 4

; 138  : 		}

  0000d	c2 04 00	 ret	 4
?allocate@?$allocator@D@std@@QAEPADI@Z ENDP		; std::allocator<char>::allocate
_TEXT	ENDS
PUBLIC	?Find@?$CStringT@DV?$StrTraitATL@DV?$ChTraitsCRT@D@ATL@@@ATL@@@ATL@@QBEHPBDH@Z ; ATL::CStringT<char,ATL::StrTraitATL<char,ATL::ChTraitsCRT<char> > >::Find
; Function compile flags: /Ogty
; File c:\program files (x86)\microsoft visual studio .net 2003\vc7\atlmfc\include\cstringt.h
;	COMDAT ?Find@?$CStringT@DV?$StrTraitATL@DV?$ChTraitsCRT@D@ATL@@@ATL@@@ATL@@QBEHPBDH@Z
_TEXT	SEGMENT
_pszSub$ = 8						; size = 4
_iStart$ = 12						; size = 4
?Find@?$CStringT@DV?$StrTraitATL@DV?$ChTraitsCRT@D@ATL@@@ATL@@@ATL@@QBEHPBDH@Z PROC NEAR ; ATL::CStringT<char,ATL::StrTraitATL<char,ATL::ChTraitsCRT<char> > >::Find, COMDAT
; _this$ = ecx

; 1391 : 		// iStart is in XCHARs
; 1392 : 		ATLASSERT( iStart >= 0 );
; 1393 : 		ATLASSERT( AtlIsValidString( pszSub ) );
; 1394 : 
; 1395 : 		if(pszSub == NULL)

  00000	8b 54 24 04	 mov	 edx, DWORD PTR _pszSub$[esp-4]
  00004	85 d2		 test	 edx, edx
  00006	56		 push	 esi
  00007	8b f1		 mov	 esi, ecx

; 1396 : 		{
; 1397 : 			return( -1 );

  00009	74 25		 je	 SHORT $L108341

; 1398 : 		}
; 1399 : 		// nLength is in XCHARs
; 1400 : 		int nLength = GetLength();
; 1401 : 		if( iStart < 0 || iStart > nLength )

  0000b	8b 4c 24 0c	 mov	 ecx, DWORD PTR _iStart$[esp]
  0000f	85 c9		 test	 ecx, ecx
  00011	7c 1d		 jl	 SHORT $L108341
  00013	8b 06		 mov	 eax, DWORD PTR [esi]
  00015	3b 48 f4	 cmp	 ecx, DWORD PTR [eax-12]
  00018	7f 16		 jg	 SHORT $L108341

; 1404 : 		}
; 1405 : 
; 1406 : 		// find first matching substring
; 1407 : 		PCXSTR psz = StringTraits::StringFindString( GetString()+iStart, pszSub );

  0001a	52		 push	 edx
  0001b	03 c1		 add	 eax, ecx
  0001d	50		 push	 eax
  0001e	e8 00 00 00 00	 call	 __mbsstr
  00023	83 c4 08	 add	 esp, 8

; 1408 : 
; 1409 : 		// return -1 for not found, distance from beginning otherwise
; 1410 : 		return( (psz == NULL) ? -1 : int( psz-GetString() ) );

  00026	85 c0		 test	 eax, eax
  00028	74 06		 je	 SHORT $L108341
  0002a	2b 06		 sub	 eax, DWORD PTR [esi]
  0002c	5e		 pop	 esi

; 1411 : 	}

  0002d	c2 08 00	 ret	 8
$L108341:

; 1402 : 		{
; 1403 : 			return( -1 );

  00030	83 c8 ff	 or	 eax, -1
  00033	5e		 pop	 esi

; 1411 : 	}

  00034	c2 08 00	 ret	 8
?Find@?$CStringT@DV?$StrTraitATL@DV?$ChTraitsCRT@D@ATL@@@ATL@@@ATL@@QBEHPBDH@Z ENDP ; ATL::CStringT<char,ATL::StrTraitATL<char,ATL::ChTraitsCRT<char> > >::Find
_TEXT	ENDS
PUBLIC	??8ATL@@YA_NABV?$CStringT@DV?$StrTraitATL@DV?$ChTraitsCRT@D@ATL@@@ATL@@@0@0@Z ; ATL::operator==
; Function compile flags: /Ogty
;	COMDAT ??8ATL@@YA_NABV?$CStringT@DV?$StrTraitATL@DV?$ChTraitsCRT@D@ATL@@@ATL@@@0@0@Z
_TEXT	SEGMENT
_str1$ = 8						; size = 4
_str2$ = 12						; size = 4
??8ATL@@YA_NABV?$CStringT@DV?$StrTraitATL@DV?$ChTraitsCRT@D@ATL@@@ATL@@@0@0@Z PROC NEAR ; ATL::operator==, COMDAT

; 2082 : 		return( str1.Compare( str2 ) == 0 );

  00000	8b 44 24 08	 mov	 eax, DWORD PTR _str2$[esp-4]
  00004	8b 00		 mov	 eax, DWORD PTR [eax]
  00006	8b 4c 24 04	 mov	 ecx, DWORD PTR _str1$[esp-4]
  0000a	8b 09		 mov	 ecx, DWORD PTR [ecx]
  0000c	50		 push	 eax
  0000d	51		 push	 ecx
  0000e	e8 00 00 00 00	 call	 __mbscmp
  00013	83 c4 08	 add	 esp, 8
  00016	f7 d8		 neg	 eax
  00018	1b c0		 sbb	 eax, eax
  0001a	40		 inc	 eax

; 2083 : 	}

  0001b	c3		 ret	 0
??8ATL@@YA_NABV?$CStringT@DV?$StrTraitATL@DV?$ChTraitsCRT@D@ATL@@@ATL@@@0@0@Z ENDP ; ATL::operator==
_TEXT	ENDS
PUBLIC	?end@?$_Tree@V?$_Tmap_traits@V?$CStringT@DV?$StrTraitATL@DV?$ChTraitsCRT@D@ATL@@@ATL@@@ATL@@EU?$less@V?$CStringT@DV?$StrTraitATL@DV?$ChTraitsCRT@D@ATL@@@ATL@@@ATL@@@std@@V?$allocator@U?$pair@$$CBV?$CStringT@DV?$StrTraitATL@DV?$ChTraitsCRT@D@ATL@@@ATL@@@ATL@@E@std@@@4@$0A@@std@@@std@@QAE?AViterator@12@XZ ; std::_Tree<std::_Tmap_traits<ATL::CStringT<char,ATL::StrTraitATL<char,ATL::ChTraitsCRT<char> > >,unsigned char,std::less<ATL::CStringT<char,ATL::StrTraitATL<char,ATL::ChTraitsCRT<char> > > >,std::allocator<std::pair<ATL::CStringT<char,ATL::StrTraitATL<char,ATL::ChTraitsCRT<char> > > const ,unsigned char> >,0> >::end
; Function compile flags: /Ogty
; File c:\program files (x86)\microsoft visual studio .net 2003\vc7\include\xtree
;	COMDAT ?end@?$_Tree@V?$_Tmap_traits@V?$CStringT@DV?$StrTraitATL@DV?$ChTraitsCRT@D@ATL@@@ATL@@@ATL@@EU?$less@V?$CStringT@DV?$StrTraitATL@DV?$ChTraitsCRT@D@ATL@@@ATL@@@ATL@@@std@@V?$allocator@U?$pair@$$CBV?$CStringT@DV?$StrTraitATL@DV?$ChTraitsCRT@D@ATL@@@ATL@@@ATL@@E@std@@@4@$0A@@std@@@std@@QAE?AViterator@12@XZ
_TEXT	SEGMENT
___$ReturnUdt$ = 8					; size = 4
?end@?$_Tree@V?$_Tmap_traits@V?$CStringT@DV?$StrTraitATL@DV?$ChTraitsCRT@D@ATL@@@ATL@@@ATL@@EU?$less@V?$CStringT@DV?$StrTraitATL@DV?$ChTraitsCRT@D@ATL@@@ATL@@@ATL@@@std@@V?$allocator@U?$pair@$$CBV?$CStringT@DV?$StrTraitATL@DV?$ChTraitsCRT@D@ATL@@@ATL@@@ATL@@E@std@@@4@$0A@@std@@@std@@QAE?AViterator@12@XZ PROC NEAR ; std::_Tree<std::_Tmap_traits<ATL::CStringT<char,ATL::StrTraitATL<char,ATL::ChTraitsCRT<char> > >,unsigned char,std::less<ATL::CStringT<char,ATL::StrTraitATL<char,ATL::ChTraitsCRT<char> > > >,std::allocator<std::pair<ATL::CStringT<char,ATL::StrTraitATL<char,ATL::ChTraitsCRT<char> > > const ,unsigned char> >,0> >::end, COMDAT
; _this$ = ecx

; 418  : 		return (_TREE_ITERATOR(_Myhead));

  00000	8b 49 04	 mov	 ecx, DWORD PTR [ecx+4]
  00003	8b 44 24 04	 mov	 eax, DWORD PTR ___$ReturnUdt$[esp-4]
  00007	89 08		 mov	 DWORD PTR [eax], ecx

; 419  : 		}

  00009	c2 04 00	 ret	 4
?end@?$_Tree@V?$_Tmap_traits@V?$CStringT@DV?$StrTraitATL@DV?$ChTraitsCRT@D@ATL@@@ATL@@@ATL@@EU?$less@V?$CStringT@DV?$StrTraitATL@DV?$ChTraitsCRT@D@ATL@@@ATL@@@ATL@@@std@@V?$allocator@U?$pair@$$CBV?$CStringT@DV?$StrTraitATL@DV?$ChTraitsCRT@D@ATL@@@ATL@@@ATL@@E@std@@@4@$0A@@std@@@std@@QAE?AViterator@12@XZ ENDP ; std::_Tree<std::_Tmap_traits<ATL::CStringT<char,ATL::StrTraitATL<char,ATL::ChTraitsCRT<char> > >,unsigned char,std::less<ATL::CStringT<char,ATL::StrTraitATL<char,ATL::ChTraitsCRT<char> > > >,std::allocator<std::pair<ATL::CStringT<char,ATL::StrTraitATL<char,ATL::ChTraitsCRT<char> > > const ,unsigned char> >,0> >::end
_TEXT	ENDS
PUBLIC	?begin@?$_Tree@V?$_Tmap_traits@KPAVCTPlayer@@U?$less@K@std@@V?$allocator@U?$pair@$$CBKPAVCTPlayer@@@std@@@3@$0A@@std@@@std@@QAE?AViterator@12@XZ ; std::_Tree<std::_Tmap_traits<unsigned long,CTPlayer *,std::less<unsigned long>,std::allocator<std::pair<unsigned long const ,CTPlayer *> >,0> >::begin
; Function compile flags: /Ogty
;	COMDAT ?begin@?$_Tree@V?$_Tmap_traits@KPAVCTPlayer@@U?$less@K@std@@V?$allocator@U?$pair@$$CBKPAVCTPlayer@@@std@@@3@$0A@@std@@@std@@QAE?AViterator@12@XZ
_TEXT	SEGMENT
___$ReturnUdt$ = 8					; size = 4
?begin@?$_Tree@V?$_Tmap_traits@KPAVCTPlayer@@U?$less@K@std@@V?$allocator@U?$pair@$$CBKPAVCTPlayer@@@std@@@3@$0A@@std@@@std@@QAE?AViterator@12@XZ PROC NEAR ; std::_Tree<std::_Tmap_traits<unsigned long,CTPlayer *,std::less<unsigned long>,std::allocator<std::pair<unsigned long const ,CTPlayer *> >,0> >::begin, COMDAT
; _this$ = ecx

; 408  : 		return (_TREE_ITERATOR(_Lmost()));

  00000	8b 41 04	 mov	 eax, DWORD PTR [ecx+4]
  00003	8b 08		 mov	 ecx, DWORD PTR [eax]
  00005	8b 44 24 04	 mov	 eax, DWORD PTR ___$ReturnUdt$[esp-4]
  00009	89 08		 mov	 DWORD PTR [eax], ecx

; 409  : 		}

  0000b	c2 04 00	 ret	 4
?begin@?$_Tree@V?$_Tmap_traits@KPAVCTPlayer@@U?$less@K@std@@V?$allocator@U?$pair@$$CBKPAVCTPlayer@@@std@@@3@$0A@@std@@@std@@QAE?AViterator@12@XZ ENDP ; std::_Tree<std::_Tmap_traits<unsigned long,CTPlayer *,std::less<unsigned long>,std::allocator<std::pair<unsigned long const ,CTPlayer *> >,0> >::begin
_TEXT	ENDS
PUBLIC	?end@?$_Tree@V?$_Tmap_traits@KPAVCTPlayer@@U?$less@K@std@@V?$allocator@U?$pair@$$CBKPAVCTPlayer@@@std@@@3@$0A@@std@@@std@@QAE?AViterator@12@XZ ; std::_Tree<std::_Tmap_traits<unsigned long,CTPlayer *,std::less<unsigned long>,std::allocator<std::pair<unsigned long const ,CTPlayer *> >,0> >::end
; Function compile flags: /Ogty
;	COMDAT ?end@?$_Tree@V?$_Tmap_traits@KPAVCTPlayer@@U?$less@K@std@@V?$allocator@U?$pair@$$CBKPAVCTPlayer@@@std@@@3@$0A@@std@@@std@@QAE?AViterator@12@XZ
_TEXT	SEGMENT
___$ReturnUdt$ = 8					; size = 4
?end@?$_Tree@V?$_Tmap_traits@KPAVCTPlayer@@U?$less@K@std@@V?$allocator@U?$pair@$$CBKPAVCTPlayer@@@std@@@3@$0A@@std@@@std@@QAE?AViterator@12@XZ PROC NEAR ; std::_Tree<std::_Tmap_traits<unsigned long,CTPlayer *,std::less<unsigned long>,std::allocator<std::pair<unsigned long const ,CTPlayer *> >,0> >::end, COMDAT
; _this$ = ecx

; 418  : 		return (_TREE_ITERATOR(_Myhead));

  00000	8b 49 04	 mov	 ecx, DWORD PTR [ecx+4]
  00003	8b 44 24 04	 mov	 eax, DWORD PTR ___$ReturnUdt$[esp-4]
  00007	89 08		 mov	 DWORD PTR [eax], ecx

; 419  : 		}

  00009	c2 04 00	 ret	 4
?end@?$_Tree@V?$_Tmap_traits@KPAVCTPlayer@@U?$less@K@std@@V?$allocator@U?$pair@$$CBKPAVCTPlayer@@@std@@@3@$0A@@std@@@std@@QAE?AViterator@12@XZ ENDP ; std::_Tree<std::_Tmap_traits<unsigned long,CTPlayer *,std::less<unsigned long>,std::allocator<std::pair<unsigned long const ,CTPlayer *> >,0> >::end
_TEXT	ENDS
PUBLIC	?begin@?$_Tree@V?$_Tmap_traits@GPAVCTParty@@U?$less@G@std@@V?$allocator@U?$pair@$$CBGPAVCTParty@@@std@@@3@$0A@@std@@@std@@QAE?AViterator@12@XZ ; std::_Tree<std::_Tmap_traits<unsigned short,CTParty *,std::less<unsigned short>,std::allocator<std::pair<unsigned short const ,CTParty *> >,0> >::begin
; Function compile flags: /Ogty
;	COMDAT ?begin@?$_Tree@V?$_Tmap_traits@GPAVCTParty@@U?$less@G@std@@V?$allocator@U?$pair@$$CBGPAVCTParty@@@std@@@3@$0A@@std@@@std@@QAE?AViterator@12@XZ
_TEXT	SEGMENT
___$ReturnUdt$ = 8					; size = 4
?begin@?$_Tree@V?$_Tmap_traits@GPAVCTParty@@U?$less@G@std@@V?$allocator@U?$pair@$$CBGPAVCTParty@@@std@@@3@$0A@@std@@@std@@QAE?AViterator@12@XZ PROC NEAR ; std::_Tree<std::_Tmap_traits<unsigned short,CTParty *,std::less<unsigned short>,std::allocator<std::pair<unsigned short const ,CTParty *> >,0> >::begin, COMDAT
; _this$ = ecx

; 408  : 		return (_TREE_ITERATOR(_Lmost()));

  00000	8b 41 04	 mov	 eax, DWORD PTR [ecx+4]
  00003	8b 08		 mov	 ecx, DWORD PTR [eax]
  00005	8b 44 24 04	 mov	 eax, DWORD PTR ___$ReturnUdt$[esp-4]
  00009	89 08		 mov	 DWORD PTR [eax], ecx

; 409  : 		}

  0000b	c2 04 00	 ret	 4
?begin@?$_Tree@V?$_Tmap_traits@GPAVCTParty@@U?$less@G@std@@V?$allocator@U?$pair@$$CBGPAVCTParty@@@std@@@3@$0A@@std@@@std@@QAE?AViterator@12@XZ ENDP ; std::_Tree<std::_Tmap_traits<unsigned short,CTParty *,std::less<unsigned short>,std::allocator<std::pair<unsigned short const ,CTParty *> >,0> >::begin
_TEXT	ENDS
PUBLIC	?end@?$_Tree@V?$_Tmap_traits@GPAVCTParty@@U?$less@G@std@@V?$allocator@U?$pair@$$CBGPAVCTParty@@@std@@@3@$0A@@std@@@std@@QAE?AViterator@12@XZ ; std::_Tree<std::_Tmap_traits<unsigned short,CTParty *,std::less<unsigned short>,std::allocator<std::pair<unsigned short const ,CTParty *> >,0> >::end
; Function compile flags: /Ogty
;	COMDAT ?end@?$_Tree@V?$_Tmap_traits@GPAVCTParty@@U?$less@G@std@@V?$allocator@U?$pair@$$CBGPAVCTParty@@@std@@@3@$0A@@std@@@std@@QAE?AViterator@12@XZ
_TEXT	SEGMENT
___$ReturnUdt$ = 8					; size = 4
?end@?$_Tree@V?$_Tmap_traits@GPAVCTParty@@U?$less@G@std@@V?$allocator@U?$pair@$$CBGPAVCTParty@@@std@@@3@$0A@@std@@@std@@QAE?AViterator@12@XZ PROC NEAR ; std::_Tree<std::_Tmap_traits<unsigned short,CTParty *,std::less<unsigned short>,std::allocator<std::pair<unsigned short const ,CTParty *> >,0> >::end, COMDAT
; _this$ = ecx

; 418  : 		return (_TREE_ITERATOR(_Myhead));

  00000	8b 49 04	 mov	 ecx, DWORD PTR [ecx+4]
  00003	8b 44 24 04	 mov	 eax, DWORD PTR ___$ReturnUdt$[esp-4]
  00007	89 08		 mov	 DWORD PTR [eax], ecx

; 419  : 		}

  00009	c2 04 00	 ret	 4
?end@?$_Tree@V?$_Tmap_traits@GPAVCTParty@@U?$less@G@std@@V?$allocator@U?$pair@$$CBGPAVCTParty@@@std@@@3@$0A@@std@@@std@@QAE?AViterator@12@XZ ENDP ; std::_Tree<std::_Tmap_traits<unsigned short,CTParty *,std::less<unsigned short>,std::allocator<std::pair<unsigned short const ,CTParty *> >,0> >::end
_TEXT	ENDS
PUBLIC	?end@?$_Tree@V?$_Tmap_traits@GV?$map@KPAVCTPlayer@@U?$less@K@std@@V?$allocator@U?$pair@$$CBKPAVCTPlayer@@@std@@@3@@std@@U?$less@G@2@V?$allocator@U?$pair@$$CBGV?$map@KPAVCTPlayer@@U?$less@K@std@@V?$allocator@U?$pair@$$CBKPAVCTPlayer@@@std@@@3@@std@@@std@@@2@$0A@@std@@@std@@QAE?AViterator@12@XZ ; std::_Tree<std::_Tmap_traits<unsigned short,std::map<unsigned long,CTPlayer *,std::less<unsigned long>,std::allocator<std::pair<unsigned long const ,CTPlayer *> > >,std::less<unsigned short>,std::allocator<std::pair<unsigned short const ,std::map<unsigned long,CTPlayer *,std::less<unsigned long>,std::allocator<std::pair<unsigned long const ,CTPlayer *> > > > >,0> >::end
; Function compile flags: /Ogty
;	COMDAT ?end@?$_Tree@V?$_Tmap_traits@GV?$map@KPAVCTPlayer@@U?$less@K@std@@V?$allocator@U?$pair@$$CBKPAVCTPlayer@@@std@@@3@@std@@U?$less@G@2@V?$allocator@U?$pair@$$CBGV?$map@KPAVCTPlayer@@U?$less@K@std@@V?$allocator@U?$pair@$$CBKPAVCTPlayer@@@std@@@3@@std@@@std@@@2@$0A@@std@@@std@@QAE?AViterator@12@XZ
_TEXT	SEGMENT
___$ReturnUdt$ = 8					; size = 4
?end@?$_Tree@V?$_Tmap_traits@GV?$map@KPAVCTPlayer@@U?$less@K@std@@V?$allocator@U?$pair@$$CBKPAVCTPlayer@@@std@@@3@@std@@U?$less@G@2@V?$allocator@U?$pair@$$CBGV?$map@KPAVCTPlayer@@U?$less@K@std@@V?$allocator@U?$pair@$$CBKPAVCTPlayer@@@std@@@3@@std@@@std@@@2@$0A@@std@@@std@@QAE?AViterator@12@XZ PROC NEAR ; std::_Tree<std::_Tmap_traits<unsigned short,std::map<unsigned long,CTPlayer *,std::less<unsigned long>,std::allocator<std::pair<unsigned long const ,CTPlayer *> > >,std::less<unsigned short>,std::allocator<std::pair<unsigned short const ,std::map<unsigned long,CTPlayer *,std::less<unsigned long>,std::allocator<std::pair<unsigned long const ,CTPlayer *> > > > >,0> >::end, COMDAT
; _this$ = ecx

; 418  : 		return (_TREE_ITERATOR(_Myhead));

  00000	8b 49 04	 mov	 ecx, DWORD PTR [ecx+4]
  00003	8b 44 24 04	 mov	 eax, DWORD PTR ___$ReturnUdt$[esp-4]
  00007	89 08		 mov	 DWORD PTR [eax], ecx

; 419  : 		}

  00009	c2 04 00	 ret	 4
?end@?$_Tree@V?$_Tmap_traits@GV?$map@KPAVCTPlayer@@U?$less@K@std@@V?$allocator@U?$pair@$$CBKPAVCTPlayer@@@std@@@3@@std@@U?$less@G@2@V?$allocator@U?$pair@$$CBGV?$map@KPAVCTPlayer@@U?$less@K@std@@V?$allocator@U?$pair@$$CBKPAVCTPlayer@@@std@@@3@@std@@@std@@@2@$0A@@std@@@std@@QAE?AViterator@12@XZ ENDP ; std::_Tree<std::_Tmap_traits<unsigned short,std::map<unsigned long,CTPlayer *,std::less<unsigned long>,std::allocator<std::pair<unsigned long const ,CTPlayer *> > >,std::less<unsigned short>,std::allocator<std::pair<unsigned short const ,std::map<unsigned long,CTPlayer *,std::less<unsigned long>,std::allocator<std::pair<unsigned long const ,CTPlayer *> > > > >,0> >::end
_TEXT	ENDS
PUBLIC	??Diterator@?$_Tree@V?$_Tmap_traits@KPAVCTPlayer@@U?$less@K@std@@V?$allocator@U?$pair@$$CBKPAVCTPlayer@@@std@@@3@$0A@@std@@@std@@QBEAAU?$pair@$$CBKPAVCTPlayer@@@2@XZ ; std::_Tree<std::_Tmap_traits<unsigned long,CTPlayer *,std::less<unsigned long>,std::allocator<std::pair<unsigned long const ,CTPlayer *> >,0> >::iterator::operator*
; Function compile flags: /Ogty
;	COMDAT ??Diterator@?$_Tree@V?$_Tmap_traits@KPAVCTPlayer@@U?$less@K@std@@V?$allocator@U?$pair@$$CBKPAVCTPlayer@@@std@@@3@$0A@@std@@@std@@QBEAAU?$pair@$$CBKPAVCTPlayer@@@2@XZ
_TEXT	SEGMENT
??Diterator@?$_Tree@V?$_Tmap_traits@KPAVCTPlayer@@U?$less@K@std@@V?$allocator@U?$pair@$$CBKPAVCTPlayer@@@std@@@3@$0A@@std@@@std@@QBEAAU?$pair@$$CBKPAVCTPlayer@@@2@XZ PROC NEAR ; std::_Tree<std::_Tmap_traits<unsigned long,CTPlayer *,std::less<unsigned long>,std::allocator<std::pair<unsigned long const ,CTPlayer *> >,0> >::iterator::operator*, COMDAT
; _this$ = ecx

; 317  : 			return ((reference)**(const_iterator *)this);

  00000	8b 01		 mov	 eax, DWORD PTR [ecx]
  00002	83 c0 0c	 add	 eax, 12			; 0000000cH

; 318  : 			}

  00005	c3		 ret	 0
??Diterator@?$_Tree@V?$_Tmap_traits@KPAVCTPlayer@@U?$less@K@std@@V?$allocator@U?$pair@$$CBKPAVCTPlayer@@@std@@@3@$0A@@std@@@std@@QBEAAU?$pair@$$CBKPAVCTPlayer@@@2@XZ ENDP ; std::_Tree<std::_Tmap_traits<unsigned long,CTPlayer *,std::less<unsigned long>,std::allocator<std::pair<unsigned long const ,CTPlayer *> >,0> >::iterator::operator*
_TEXT	ENDS
PUBLIC	??Citerator@?$_Tree@V?$_Tmap_traits@KPAVCTPlayer@@U?$less@K@std@@V?$allocator@U?$pair@$$CBKPAVCTPlayer@@@std@@@3@$0A@@std@@@std@@QBEPAU?$pair@$$CBKPAVCTPlayer@@@2@XZ ; std::_Tree<std::_Tmap_traits<unsigned long,CTPlayer *,std::less<unsigned long>,std::allocator<std::pair<unsigned long const ,CTPlayer *> >,0> >::iterator::operator->
; Function compile flags: /Ogty
;	COMDAT ??Citerator@?$_Tree@V?$_Tmap_traits@KPAVCTPlayer@@U?$less@K@std@@V?$allocator@U?$pair@$$CBKPAVCTPlayer@@@std@@@3@$0A@@std@@@std@@QBEPAU?$pair@$$CBKPAVCTPlayer@@@2@XZ
_TEXT	SEGMENT
??Citerator@?$_Tree@V?$_Tmap_traits@KPAVCTPlayer@@U?$less@K@std@@V?$allocator@U?$pair@$$CBKPAVCTPlayer@@@std@@@3@$0A@@std@@@std@@QBEPAU?$pair@$$CBKPAVCTPlayer@@@2@XZ PROC NEAR ; std::_Tree<std::_Tmap_traits<unsigned long,CTPlayer *,std::less<unsigned long>,std::allocator<std::pair<unsigned long const ,CTPlayer *> >,0> >::iterator::operator->, COMDAT
; _this$ = ecx

; 322  : 			return (&**this);

  00000	8b 01		 mov	 eax, DWORD PTR [ecx]
  00002	83 c0 0c	 add	 eax, 12			; 0000000cH

; 323  : 			}

  00005	c3		 ret	 0
??Citerator@?$_Tree@V?$_Tmap_traits@KPAVCTPlayer@@U?$less@K@std@@V?$allocator@U?$pair@$$CBKPAVCTPlayer@@@std@@@3@$0A@@std@@@std@@QBEPAU?$pair@$$CBKPAVCTPlayer@@@2@XZ ENDP ; std::_Tree<std::_Tmap_traits<unsigned long,CTPlayer *,std::less<unsigned long>,std::allocator<std::pair<unsigned long const ,CTPlayer *> >,0> >::iterator::operator->
_TEXT	ENDS
PUBLIC	??Citerator@?$_Tree@V?$_Tmap_traits@GV?$map@KPAVCTPlayer@@U?$less@K@std@@V?$allocator@U?$pair@$$CBKPAVCTPlayer@@@std@@@3@@std@@U?$less@G@2@V?$allocator@U?$pair@$$CBGV?$map@KPAVCTPlayer@@U?$less@K@std@@V?$allocator@U?$pair@$$CBKPAVCTPlayer@@@std@@@3@@std@@@std@@@2@$0A@@std@@@std@@QBEPAU?$pair@$$CBGV?$map@KPAVCTPlayer@@U?$less@K@std@@V?$allocator@U?$pair@$$CBKPAVCTPlayer@@@std@@@3@@std@@@2@XZ ; std::_Tree<std::_Tmap_traits<unsigned short,std::map<unsigned long,CTPlayer *,std::less<unsigned long>,std::allocator<std::pair<unsigned long const ,CTPlayer *> > >,std::less<unsigned short>,std::allocator<std::pair<unsigned short const ,std::map<unsigned long,CTPlayer *,std::less<unsigned long>,std::allocator<std::pair<unsigned long const ,CTPlayer *> > > > >,0> >::iterator::operator->
; Function compile flags: /Ogty
;	COMDAT ??Citerator@?$_Tree@V?$_Tmap_traits@GV?$map@KPAVCTPlayer@@U?$less@K@std@@V?$allocator@U?$pair@$$CBKPAVCTPlayer@@@std@@@3@@std@@U?$less@G@2@V?$allocator@U?$pair@$$CBGV?$map@KPAVCTPlayer@@U?$less@K@std@@V?$allocator@U?$pair@$$CBKPAVCTPlayer@@@std@@@3@@std@@@std@@@2@$0A@@std@@@std@@QBEPAU?$pair@$$CBGV?$map@KPAVCTPlayer@@U?$less@K@std@@V?$allocator@U?$pair@$$CBKPAVCTPlayer@@@std@@@3@@std@@@2@XZ
_TEXT	SEGMENT
??Citerator@?$_Tree@V?$_Tmap_traits@GV?$map@KPAVCTPlayer@@U?$less@K@std@@V?$allocator@U?$pair@$$CBKPAVCTPlayer@@@std@@@3@@std@@U?$less@G@2@V?$allocator@U?$pair@$$CBGV?$map@KPAVCTPlayer@@U?$less@K@std@@V?$allocator@U?$pair@$$CBKPAVCTPlayer@@@std@@@3@@std@@@std@@@2@$0A@@std@@@std@@QBEPAU?$pair@$$CBGV?$map@KPAVCTPlayer@@U?$less@K@std@@V?$allocator@U?$pair@$$CBKPAVCTPlayer@@@std@@@3@@std@@@2@XZ PROC NEAR ; std::_Tree<std::_Tmap_traits<unsigned short,std::map<unsigned long,CTPlayer *,std::less<unsigned long>,std::allocator<std::pair<unsigned long const ,CTPlayer *> > >,std::less<unsigned short>,std::allocator<std::pair<unsigned short const ,std::map<unsigned long,CTPlayer *,std::less<unsigned long>,std::allocator<std::pair<unsigned long const ,CTPlayer *> > > > >,0> >::iterator::operator->, COMDAT
; _this$ = ecx

; 322  : 			return (&**this);

  00000	8b 01		 mov	 eax, DWORD PTR [ecx]
  00002	83 c0 0c	 add	 eax, 12			; 0000000cH

; 323  : 			}

  00005	c3		 ret	 0
??Citerator@?$_Tree@V?$_Tmap_traits@GV?$map@KPAVCTPlayer@@U?$less@K@std@@V?$allocator@U?$pair@$$CBKPAVCTPlayer@@@std@@@3@@std@@U?$less@G@2@V?$allocator@U?$pair@$$CBGV?$map@KPAVCTPlayer@@U?$less@K@std@@V?$allocator@U?$pair@$$CBKPAVCTPlayer@@@std@@@3@@std@@@std@@@2@$0A@@std@@@std@@QBEPAU?$pair@$$CBGV?$map@KPAVCTPlayer@@U?$less@K@std@@V?$allocator@U?$pair@$$CBKPAVCTPlayer@@@std@@@3@@std@@@2@XZ ENDP ; std::_Tree<std::_Tmap_traits<unsigned short,std::map<unsigned long,CTPlayer *,std::less<unsigned long>,std::allocator<std::pair<unsigned long const ,CTPlayer *> > >,std::less<unsigned short>,std::allocator<std::pair<unsigned short const ,std::map<unsigned long,CTPlayer *,std::less<unsigned long>,std::allocator<std::pair<unsigned long const ,CTPlayer *> > > > >,0> >::iterator::operator->
_TEXT	ENDS
PUBLIC	??Diterator@?$_Tree@V?$_Tmap_traits@GPAVCTParty@@U?$less@G@std@@V?$allocator@U?$pair@$$CBGPAVCTParty@@@std@@@3@$0A@@std@@@std@@QBEAAU?$pair@$$CBGPAVCTParty@@@2@XZ ; std::_Tree<std::_Tmap_traits<unsigned short,CTParty *,std::less<unsigned short>,std::allocator<std::pair<unsigned short const ,CTParty *> >,0> >::iterator::operator*
; Function compile flags: /Ogty
;	COMDAT ??Diterator@?$_Tree@V?$_Tmap_traits@GPAVCTParty@@U?$less@G@std@@V?$allocator@U?$pair@$$CBGPAVCTParty@@@std@@@3@$0A@@std@@@std@@QBEAAU?$pair@$$CBGPAVCTParty@@@2@XZ
_TEXT	SEGMENT
??Diterator@?$_Tree@V?$_Tmap_traits@GPAVCTParty@@U?$less@G@std@@V?$allocator@U?$pair@$$CBGPAVCTParty@@@std@@@3@$0A@@std@@@std@@QBEAAU?$pair@$$CBGPAVCTParty@@@2@XZ PROC NEAR ; std::_Tree<std::_Tmap_traits<unsigned short,CTParty *,std::less<unsigned short>,std::allocator<std::pair<unsigned short const ,CTParty *> >,0> >::iterator::operator*, COMDAT
; _this$ = ecx

; 317  : 			return ((reference)**(const_iterator *)this);

  00000	8b 01		 mov	 eax, DWORD PTR [ecx]
  00002	83 c0 0c	 add	 eax, 12			; 0000000cH

; 318  : 			}

  00005	c3		 ret	 0
??Diterator@?$_Tree@V?$_Tmap_traits@GPAVCTParty@@U?$less@G@std@@V?$allocator@U?$pair@$$CBGPAVCTParty@@@std@@@3@$0A@@std@@@std@@QBEAAU?$pair@$$CBGPAVCTParty@@@2@XZ ENDP ; std::_Tree<std::_Tmap_traits<unsigned short,CTParty *,std::less<unsigned short>,std::allocator<std::pair<unsigned short const ,CTParty *> >,0> >::iterator::operator*
_TEXT	ENDS
PUBLIC	??Diterator@?$_Tree@V?$_Tmap_traits@V?$CStringT@DV?$StrTraitATL@DV?$ChTraitsCRT@D@ATL@@@ATL@@@ATL@@EU?$less@V?$CStringT@DV?$StrTraitATL@DV?$ChTraitsCRT@D@ATL@@@ATL@@@ATL@@@std@@V?$allocator@U?$pair@$$CBV?$CStringT@DV?$StrTraitATL@DV?$ChTraitsCRT@D@ATL@@@ATL@@@ATL@@E@std@@@4@$0A@@std@@@std@@QBEAAU?$pair@$$CBV?$CStringT@DV?$StrTraitATL@DV?$ChTraitsCRT@D@ATL@@@ATL@@@ATL@@E@2@XZ ; std::_Tree<std::_Tmap_traits<ATL::CStringT<char,ATL::StrTraitATL<char,ATL::ChTraitsCRT<char> > >,unsigned char,std::less<ATL::CStringT<char,ATL::StrTraitATL<char,ATL::ChTraitsCRT<char> > > >,std::allocator<std::pair<ATL::CStringT<char,ATL::StrTraitATL<char,ATL::ChTraitsCRT<char> > > const ,unsigned char> >,0> >::iterator::operator*
; Function compile flags: /Ogty
;	COMDAT ??Diterator@?$_Tree@V?$_Tmap_traits@V?$CStringT@DV?$StrTraitATL@DV?$ChTraitsCRT@D@ATL@@@ATL@@@ATL@@EU?$less@V?$CStringT@DV?$StrTraitATL@DV?$ChTraitsCRT@D@ATL@@@ATL@@@ATL@@@std@@V?$allocator@U?$pair@$$CBV?$CStringT@DV?$StrTraitATL@DV?$ChTraitsCRT@D@ATL@@@ATL@@@ATL@@E@std@@@4@$0A@@std@@@std@@QBEAAU?$pair@$$CBV?$CStringT@DV?$StrTraitATL@DV?$ChTraitsCRT@D@ATL@@@ATL@@@ATL@@E@2@XZ
_TEXT	SEGMENT
??Diterator@?$_Tree@V?$_Tmap_traits@V?$CStringT@DV?$StrTraitATL@DV?$ChTraitsCRT@D@ATL@@@ATL@@@ATL@@EU?$less@V?$CStringT@DV?$StrTraitATL@DV?$ChTraitsCRT@D@ATL@@@ATL@@@ATL@@@std@@V?$allocator@U?$pair@$$CBV?$CStringT@DV?$StrTraitATL@DV?$ChTraitsCRT@D@ATL@@@ATL@@@ATL@@E@std@@@4@$0A@@std@@@std@@QBEAAU?$pair@$$CBV?$CStringT@DV?$StrTraitATL@DV?$ChTraitsCRT@D@ATL@@@ATL@@@ATL@@E@2@XZ PROC NEAR ; std::_Tree<std::_Tmap_traits<ATL::CStringT<char,ATL::StrTraitATL<char,ATL::ChTraitsCRT<char> > >,unsigned char,std::less<ATL::CStringT<char,ATL::StrTraitATL<char,ATL::ChTraitsCRT<char> > > >,std::allocator<std::pair<ATL::CStringT<char,ATL::StrTraitATL<char,ATL::ChTraitsCRT<char> > > const ,unsigned char> >,0> >::iterator::operator*, COMDAT
; _this$ = ecx

; 317  : 			return ((reference)**(const_iterator *)this);

  00000	8b 01		 mov	 eax, DWORD PTR [ecx]
  00002	83 c0 0c	 add	 eax, 12			; 0000000cH

; 318  : 			}

  00005	c3		 ret	 0
??Diterator@?$_Tree@V?$_Tmap_traits@V?$CStringT@DV?$StrTraitATL@DV?$ChTraitsCRT@D@ATL@@@ATL@@@ATL@@EU?$less@V?$CStringT@DV?$StrTraitATL@DV?$ChTraitsCRT@D@ATL@@@ATL@@@ATL@@@std@@V?$allocator@U?$pair@$$CBV?$CStringT@DV?$StrTraitATL@DV?$ChTraitsCRT@D@ATL@@@ATL@@@ATL@@E@std@@@4@$0A@@std@@@std@@QBEAAU?$pair@$$CBV?$CStringT@DV?$StrTraitATL@DV?$ChTraitsCRT@D@ATL@@@ATL@@@ATL@@E@2@XZ ENDP ; std::_Tree<std::_Tmap_traits<ATL::CStringT<char,ATL::StrTraitATL<char,ATL::ChTraitsCRT<char> > >,unsigned char,std::less<ATL::CStringT<char,ATL::StrTraitATL<char,ATL::ChTraitsCRT<char> > > >,std::allocator<std::pair<ATL::CStringT<char,ATL::StrTraitATL<char,ATL::ChTraitsCRT<char> > > const ,unsigned char> >,0> >::iterator::operator*
_TEXT	ENDS
PUBLIC	??0?$CStringT@DV?$StrTraitATL@DV?$ChTraitsCRT@D@ATL@@@ATL@@@ATL@@QAE@PBDHPAUIAtlStringMgr@1@@Z ; ATL::CStringT<char,ATL::StrTraitATL<char,ATL::ChTraitsCRT<char> > >::CStringT<char,ATL::StrTraitATL<char,ATL::ChTraitsCRT<char> > >
; Function compile flags: /Ogty
; File c:\program files (x86)\microsoft visual studio .net 2003\vc7\atlmfc\include\cstringt.h
;	COMDAT ??0?$CStringT@DV?$StrTraitATL@DV?$ChTraitsCRT@D@ATL@@@ATL@@@ATL@@QAE@PBDHPAUIAtlStringMgr@1@@Z
_TEXT	SEGMENT
_pch$ = 8						; size = 4
_nLength$ = 12						; size = 4
_pStringMgr$ = 16					; size = 4
??0?$CStringT@DV?$StrTraitATL@DV?$ChTraitsCRT@D@ATL@@@ATL@@@ATL@@QAE@PBDHPAUIAtlStringMgr@1@@Z PROC NEAR ; ATL::CStringT<char,ATL::StrTraitATL<char,ATL::ChTraitsCRT<char> > >::CStringT<char,ATL::StrTraitATL<char,ATL::ChTraitsCRT<char> > >, COMDAT
; _this$ = ecx

; 923  : 	{

  00000	8b 44 24 0c	 mov	 eax, DWORD PTR _pStringMgr$[esp-4]
  00004	8b 54 24 04	 mov	 edx, DWORD PTR _pch$[esp-4]
  00008	56		 push	 esi
  00009	8b f1		 mov	 esi, ecx
  0000b	8b 4c 24 0c	 mov	 ecx, DWORD PTR _nLength$[esp]
  0000f	50		 push	 eax
  00010	51		 push	 ecx
  00011	52		 push	 edx
  00012	8b ce		 mov	 ecx, esi
  00014	e8 00 00 00 00	 call	 ??0?$CSimpleStringT@D$0A@@ATL@@QAE@PBDHPAUIAtlStringMgr@1@@Z ; ATL::CSimpleStringT<char,0>::CSimpleStringT<char,0>

; 924  : 	}

  00019	8b c6		 mov	 eax, esi
  0001b	5e		 pop	 esi
  0001c	c2 0c 00	 ret	 12			; 0000000cH
??0?$CStringT@DV?$StrTraitATL@DV?$ChTraitsCRT@D@ATL@@@ATL@@@ATL@@QAE@PBDHPAUIAtlStringMgr@1@@Z ENDP ; ATL::CStringT<char,ATL::StrTraitATL<char,ATL::ChTraitsCRT<char> > >::CStringT<char,ATL::StrTraitATL<char,ATL::ChTraitsCRT<char> > >
_TEXT	ENDS
PUBLIC	??R?$less@V?$CStringT@DV?$StrTraitATL@DV?$ChTraitsCRT@D@ATL@@@ATL@@@ATL@@@std@@QBE_NABV?$CStringT@DV?$StrTraitATL@DV?$ChTraitsCRT@D@ATL@@@ATL@@@ATL@@0@Z ; std::less<ATL::CStringT<char,ATL::StrTraitATL<char,ATL::ChTraitsCRT<char> > > >::operator()
; Function compile flags: /Ogty
; File c:\program files (x86)\microsoft visual studio .net 2003\vc7\include\functional
;	COMDAT ??R?$less@V?$CStringT@DV?$StrTraitATL@DV?$ChTraitsCRT@D@ATL@@@ATL@@@ATL@@@std@@QBE_NABV?$CStringT@DV?$StrTraitATL@DV?$ChTraitsCRT@D@ATL@@@ATL@@@ATL@@0@Z
_TEXT	SEGMENT
__Left$ = 8						; size = 4
__Right$ = 12						; size = 4
??R?$less@V?$CStringT@DV?$StrTraitATL@DV?$ChTraitsCRT@D@ATL@@@ATL@@@ATL@@@std@@QBE_NABV?$CStringT@DV?$StrTraitATL@DV?$ChTraitsCRT@D@ATL@@@ATL@@@ATL@@0@Z PROC NEAR ; std::less<ATL::CStringT<char,ATL::StrTraitATL<char,ATL::ChTraitsCRT<char> > > >::operator(), COMDAT
; _this$ = ecx

; 139  : 		return (_Left < _Right);

  00000	8b 44 24 08	 mov	 eax, DWORD PTR __Right$[esp-4]
  00004	8b 00		 mov	 eax, DWORD PTR [eax]
  00006	8b 4c 24 04	 mov	 ecx, DWORD PTR __Left$[esp-4]
  0000a	8b 09		 mov	 ecx, DWORD PTR [ecx]
  0000c	50		 push	 eax
  0000d	51		 push	 ecx
  0000e	e8 00 00 00 00	 call	 __mbscmp
  00013	33 d2		 xor	 edx, edx
  00015	83 c4 08	 add	 esp, 8
  00018	85 c0		 test	 eax, eax
  0001a	0f 9c c2	 setl	 dl
  0001d	8a c2		 mov	 al, dl

; 140  : 		}

  0001f	c2 08 00	 ret	 8
??R?$less@V?$CStringT@DV?$StrTraitATL@DV?$ChTraitsCRT@D@ATL@@@ATL@@@ATL@@@std@@QBE_NABV?$CStringT@DV?$StrTraitATL@DV?$ChTraitsCRT@D@ATL@@@ATL@@@ATL@@0@Z ENDP ; std::less<ATL::CStringT<char,ATL::StrTraitATL<char,ATL::ChTraitsCRT<char> > > >::operator()
_TEXT	ENDS
PUBLIC	?lower_bound@?$_Tree@V?$_Tmap_traits@KPAVCTPlayer@@U?$less@K@std@@V?$allocator@U?$pair@$$CBKPAVCTPlayer@@@std@@@3@$0A@@std@@@std@@QAE?AViterator@12@ABK@Z ; std::_Tree<std::_Tmap_traits<unsigned long,CTPlayer *,std::less<unsigned long>,std::allocator<std::pair<unsigned long const ,CTPlayer *> >,0> >::lower_bound
; Function compile flags: /Ogty
; File c:\program files (x86)\microsoft visual studio .net 2003\vc7\include\xtree
;	COMDAT ?lower_bound@?$_Tree@V?$_Tmap_traits@KPAVCTPlayer@@U?$less@K@std@@V?$allocator@U?$pair@$$CBKPAVCTPlayer@@@std@@@3@$0A@@std@@@std@@QAE?AViterator@12@ABK@Z
_TEXT	SEGMENT
___$ReturnUdt$ = 8					; size = 4
__Keyval$ = 12						; size = 4
?lower_bound@?$_Tree@V?$_Tmap_traits@KPAVCTPlayer@@U?$less@K@std@@V?$allocator@U?$pair@$$CBKPAVCTPlayer@@@std@@@3@$0A@@std@@@std@@QAE?AViterator@12@ABK@Z PROC NEAR ; std::_Tree<std::_Tmap_traits<unsigned long,CTPlayer *,std::less<unsigned long>,std::allocator<std::pair<unsigned long const ,CTPlayer *> >,0> >::lower_bound, COMDAT
; _this$ = ecx

; 810  : 		return (_TREE_ITERATOR(_Lbound(_Keyval)));

  00000	8b 49 04	 mov	 ecx, DWORD PTR [ecx+4]
  00003	8b 41 04	 mov	 eax, DWORD PTR [ecx+4]
  00006	8a 50 15	 mov	 dl, BYTE PTR [eax+21]
  00009	84 d2		 test	 dl, dl
  0000b	75 1d		 jne	 SHORT $L111406
  0000d	8b 54 24 08	 mov	 edx, DWORD PTR __Keyval$[esp-4]
  00011	8b 12		 mov	 edx, DWORD PTR [edx]
  00013	53		 push	 ebx
$L111374:
  00014	39 50 0c	 cmp	 DWORD PTR [eax+12], edx
  00017	73 05		 jae	 SHORT $L111376
  00019	8b 40 08	 mov	 eax, DWORD PTR [eax+8]
  0001c	eb 04		 jmp	 SHORT $L111377
$L111376:
  0001e	8b c8		 mov	 ecx, eax
  00020	8b 00		 mov	 eax, DWORD PTR [eax]
$L111377:
  00022	8a 58 15	 mov	 bl, BYTE PTR [eax+21]
  00025	84 db		 test	 bl, bl
  00027	74 eb		 je	 SHORT $L111374
  00029	5b		 pop	 ebx
$L111406:
  0002a	8b 44 24 04	 mov	 eax, DWORD PTR ___$ReturnUdt$[esp-4]
  0002e	89 08		 mov	 DWORD PTR [eax], ecx

; 811  : 		}

  00030	c2 08 00	 ret	 8
?lower_bound@?$_Tree@V?$_Tmap_traits@KPAVCTPlayer@@U?$less@K@std@@V?$allocator@U?$pair@$$CBKPAVCTPlayer@@@std@@@3@$0A@@std@@@std@@QAE?AViterator@12@ABK@Z ENDP ; std::_Tree<std::_Tmap_traits<unsigned long,CTPlayer *,std::less<unsigned long>,std::allocator<std::pair<unsigned long const ,CTPlayer *> >,0> >::lower_bound
_TEXT	ENDS
PUBLIC	?begin@?$vector@KV?$allocator@K@std@@@std@@QAE?AViterator@12@XZ ; std::vector<unsigned long,std::allocator<unsigned long> >::begin
; Function compile flags: /Ogty
; File c:\program files (x86)\microsoft visual studio .net 2003\vc7\include\vector
;	COMDAT ?begin@?$vector@KV?$allocator@K@std@@@std@@QAE?AViterator@12@XZ
_TEXT	SEGMENT
___$ReturnUdt$ = 8					; size = 4
?begin@?$vector@KV?$allocator@K@std@@@std@@QAE?AViterator@12@XZ PROC NEAR ; std::vector<unsigned long,std::allocator<unsigned long> >::begin, COMDAT
; _this$ = ecx

; 463  : 		return (iterator(_Myfirst));

  00000	8b 49 04	 mov	 ecx, DWORD PTR [ecx+4]
  00003	8b 44 24 04	 mov	 eax, DWORD PTR ___$ReturnUdt$[esp-4]
  00007	89 08		 mov	 DWORD PTR [eax], ecx

; 464  : 		}

  00009	c2 04 00	 ret	 4
?begin@?$vector@KV?$allocator@K@std@@@std@@QAE?AViterator@12@XZ ENDP ; std::vector<unsigned long,std::allocator<unsigned long> >::begin
_TEXT	ENDS
PUBLIC	?_Lbound@?$_Tree@V?$_Tmap_traits@V?$CStringT@DV?$StrTraitATL@DV?$ChTraitsCRT@D@ATL@@@ATL@@@ATL@@EU?$less@V?$CStringT@DV?$StrTraitATL@DV?$ChTraitsCRT@D@ATL@@@ATL@@@ATL@@@std@@V?$allocator@U?$pair@$$CBV?$CStringT@DV?$StrTraitATL@DV?$ChTraitsCRT@D@ATL@@@ATL@@@ATL@@E@std@@@4@$0A@@std@@@std@@IBEPAU_Node@?$_Tree_nod@V?$_Tmap_traits@V?$CStringT@DV?$StrTraitATL@DV?$ChTraitsCRT@D@ATL@@@ATL@@@ATL@@EU?$less@V?$CStringT@DV?$StrTraitATL@DV?$ChTraitsCRT@D@ATL@@@ATL@@@ATL@@@std@@V?$allocator@U?$pair@$$CBV?$CStringT@DV?$StrTraitATL@DV?$ChTraitsCRT@D@ATL@@@ATL@@@ATL@@E@std@@@4@$0A@@std@@@2@ABV?$CStringT@DV?$StrTraitATL@DV?$ChTraitsCRT@D@ATL@@@ATL@@@ATL@@@Z ; std::_Tree<std::_Tmap_traits<ATL::CStringT<char,ATL::StrTraitATL<char,ATL::ChTraitsCRT<char> > >,unsigned char,std::less<ATL::CStringT<char,ATL::StrTraitATL<char,ATL::ChTraitsCRT<char> > > >,std::allocator<std::pair<ATL::CStringT<char,ATL::StrTraitATL<char,ATL::ChTraitsCRT<char> > > const ,unsigned char> >,0> >::_Lbound
; Function compile flags: /Ogty
; File c:\program files (x86)\microsoft visual studio .net 2003\vc7\include\xtree
;	COMDAT ?_Lbound@?$_Tree@V?$_Tmap_traits@V?$CStringT@DV?$StrTraitATL@DV?$ChTraitsCRT@D@ATL@@@ATL@@@ATL@@EU?$less@V?$CStringT@DV?$StrTraitATL@DV?$ChTraitsCRT@D@ATL@@@ATL@@@ATL@@@std@@V?$allocator@U?$pair@$$CBV?$CStringT@DV?$StrTraitATL@DV?$ChTraitsCRT@D@ATL@@@ATL@@@ATL@@E@std@@@4@$0A@@std@@@std@@IBEPAU_Node@?$_Tree_nod@V?$_Tmap_traits@V?$CStringT@DV?$StrTraitATL@DV?$ChTraitsCRT@D@ATL@@@ATL@@@ATL@@EU?$less@V?$CStringT@DV?$StrTraitATL@DV?$ChTraitsCRT@D@ATL@@@ATL@@@ATL@@@std@@V?$allocator@U?$pair@$$CBV?$CStringT@DV?$StrTraitATL@DV?$ChTraitsCRT@D@ATL@@@ATL@@@ATL@@E@std@@@4@$0A@@std@@@2@ABV?$CStringT@DV?$StrTraitATL@DV?$ChTraitsCRT@D@ATL@@@ATL@@@ATL@@@Z
_TEXT	SEGMENT
__Keyval$ = 8						; size = 4
?_Lbound@?$_Tree@V?$_Tmap_traits@V?$CStringT@DV?$StrTraitATL@DV?$ChTraitsCRT@D@ATL@@@ATL@@@ATL@@EU?$less@V?$CStringT@DV?$StrTraitATL@DV?$ChTraitsCRT@D@ATL@@@ATL@@@ATL@@@std@@V?$allocator@U?$pair@$$CBV?$CStringT@DV?$StrTraitATL@DV?$ChTraitsCRT@D@ATL@@@ATL@@@ATL@@E@std@@@4@$0A@@std@@@std@@IBEPAU_Node@?$_Tree_nod@V?$_Tmap_traits@V?$CStringT@DV?$StrTraitATL@DV?$ChTraitsCRT@D@ATL@@@ATL@@@ATL@@EU?$less@V?$CStringT@DV?$StrTraitATL@DV?$ChTraitsCRT@D@ATL@@@ATL@@@ATL@@@std@@V?$allocator@U?$pair@$$CBV?$CStringT@DV?$StrTraitATL@DV?$ChTraitsCRT@D@ATL@@@ATL@@@ATL@@E@std@@@4@$0A@@std@@@2@ABV?$CStringT@DV?$StrTraitATL@DV?$ChTraitsCRT@D@ATL@@@ATL@@@ATL@@@Z PROC NEAR ; std::_Tree<std::_Tmap_traits<ATL::CStringT<char,ATL::StrTraitATL<char,ATL::ChTraitsCRT<char> > >,unsigned char,std::less<ATL::CStringT<char,ATL::StrTraitATL<char,ATL::ChTraitsCRT<char> > > >,std::allocator<std::pair<ATL::CStringT<char,ATL::StrTraitATL<char,ATL::ChTraitsCRT<char> > > const ,unsigned char> >,0> >::_Lbound, COMDAT
; _this$ = ecx

; 988  : 		_Nodeptr _Pnode = _Root();

  00000	8b 41 04	 mov	 eax, DWORD PTR [ecx+4]
  00003	56		 push	 esi
  00004	8b 70 04	 mov	 esi, DWORD PTR [eax+4]
  00007	57		 push	 edi

; 989  : 		_Nodeptr _Wherenode = _Myhead;	// end() if search fails

  00008	8b f8		 mov	 edi, eax

; 990  : 
; 991  : 		while (!_Isnil(_Pnode))

  0000a	8a 46 15	 mov	 al, BYTE PTR [esi+21]
  0000d	84 c0		 test	 al, al
  0000f	75 29		 jne	 SHORT $L111495
  00011	53		 push	 ebx
  00012	8b 5c 24 10	 mov	 ebx, DWORD PTR __Keyval$[esp+8]
$L108936:

; 992  : 			if (this->comp(_Key(_Pnode), _Keyval))

  00016	8b 03		 mov	 eax, DWORD PTR [ebx]
  00018	8b 4e 0c	 mov	 ecx, DWORD PTR [esi+12]
  0001b	50		 push	 eax
  0001c	51		 push	 ecx
  0001d	e8 00 00 00 00	 call	 __mbscmp
  00022	83 c4 08	 add	 esp, 8
  00025	85 c0		 test	 eax, eax
  00027	7d 05		 jge	 SHORT $L108938

; 993  : 				_Pnode = _Right(_Pnode);	// descend right subtree

  00029	8b 76 08	 mov	 esi, DWORD PTR [esi+8]

; 994  : 			else

  0002c	eb 04		 jmp	 SHORT $L108939
$L108938:

; 995  : 				{	// _Pnode not less than _Keyval, remember it
; 996  : 				_Wherenode = _Pnode;

  0002e	8b fe		 mov	 edi, esi

; 997  : 				_Pnode = _Left(_Pnode);	// descend left subtree

  00030	8b 36		 mov	 esi, DWORD PTR [esi]
$L108939:
  00032	8a 46 15	 mov	 al, BYTE PTR [esi+21]
  00035	84 c0		 test	 al, al
  00037	74 dd		 je	 SHORT $L108936
  00039	5b		 pop	 ebx
$L111495:

; 998  : 				}
; 999  : 
; 1000 : 		return (_Wherenode);	// return best remembered candidate

  0003a	8b c7		 mov	 eax, edi
  0003c	5f		 pop	 edi
  0003d	5e		 pop	 esi

; 1001 : 		}

  0003e	c2 04 00	 ret	 4
?_Lbound@?$_Tree@V?$_Tmap_traits@V?$CStringT@DV?$StrTraitATL@DV?$ChTraitsCRT@D@ATL@@@ATL@@@ATL@@EU?$less@V?$CStringT@DV?$StrTraitATL@DV?$ChTraitsCRT@D@ATL@@@ATL@@@ATL@@@std@@V?$allocator@U?$pair@$$CBV?$CStringT@DV?$StrTraitATL@DV?$ChTraitsCRT@D@ATL@@@ATL@@@ATL@@E@std@@@4@$0A@@std@@@std@@IBEPAU_Node@?$_Tree_nod@V?$_Tmap_traits@V?$CStringT@DV?$StrTraitATL@DV?$ChTraitsCRT@D@ATL@@@ATL@@@ATL@@EU?$less@V?$CStringT@DV?$StrTraitATL@DV?$ChTraitsCRT@D@ATL@@@ATL@@@ATL@@@std@@V?$allocator@U?$pair@$$CBV?$CStringT@DV?$StrTraitATL@DV?$ChTraitsCRT@D@ATL@@@ATL@@@ATL@@E@std@@@4@$0A@@std@@@2@ABV?$CStringT@DV?$StrTraitATL@DV?$ChTraitsCRT@D@ATL@@@ATL@@@ATL@@@Z ENDP ; std::_Tree<std::_Tmap_traits<ATL::CStringT<char,ATL::StrTraitATL<char,ATL::ChTraitsCRT<char> > >,unsigned char,std::less<ATL::CStringT<char,ATL::StrTraitATL<char,ATL::ChTraitsCRT<char> > > >,std::allocator<std::pair<ATL::CStringT<char,ATL::StrTraitATL<char,ATL::ChTraitsCRT<char> > > const ,unsigned char> >,0> >::_Lbound
_TEXT	ENDS
PUBLIC	?_Buynode@?$_Tree@V?$_Tmap_traits@KPAVCTPlayer@@U?$less@K@std@@V?$allocator@U?$pair@$$CBKPAVCTPlayer@@@std@@@3@$0A@@std@@@std@@IAEPAU_Node@?$_Tree_nod@V?$_Tmap_traits@KPAVCTPlayer@@U?$less@K@std@@V?$allocator@U?$pair@$$CBKPAVCTPlayer@@@std@@@3@$0A@@std@@@2@PAU342@00ABU?$pair@$$CBKPAVCTPlayer@@@2@D@Z ; std::_Tree<std::_Tmap_traits<unsigned long,CTPlayer *,std::less<unsigned long>,std::allocator<std::pair<unsigned long const ,CTPlayer *> >,0> >::_Buynode
; Function compile flags: /Ogty
;	COMDAT ?_Buynode@?$_Tree@V?$_Tmap_traits@KPAVCTPlayer@@U?$less@K@std@@V?$allocator@U?$pair@$$CBKPAVCTPlayer@@@std@@@3@$0A@@std@@@std@@IAEPAU_Node@?$_Tree_nod@V?$_Tmap_traits@KPAVCTPlayer@@U?$less@K@std@@V?$allocator@U?$pair@$$CBKPAVCTPlayer@@@std@@@3@$0A@@std@@@2@PAU342@00ABU?$pair@$$CBKPAVCTPlayer@@@2@D@Z
_TEXT	SEGMENT
__Larg$ = 8						; size = 4
__Parg$ = 12						; size = 4
__Rarg$ = 16						; size = 4
__Val$ = 20						; size = 4
__Carg$ = 24						; size = 1
?_Buynode@?$_Tree@V?$_Tmap_traits@KPAVCTPlayer@@U?$less@K@std@@V?$allocator@U?$pair@$$CBKPAVCTPlayer@@@std@@@3@$0A@@std@@@std@@IAEPAU_Node@?$_Tree_nod@V?$_Tmap_traits@KPAVCTPlayer@@U?$less@K@std@@V?$allocator@U?$pair@$$CBKPAVCTPlayer@@@std@@@3@$0A@@std@@@2@PAU342@00ABU?$pair@$$CBKPAVCTPlayer@@@2@D@Z PROC NEAR ; std::_Tree<std::_Tmap_traits<unsigned long,CTPlayer *,std::less<unsigned long>,std::allocator<std::pair<unsigned long const ,CTPlayer *> >,0> >::_Buynode, COMDAT
; _this$ = ecx

; 1131 : 		_Nodeptr _Wherenode = this->_Alnod.allocate(1);

  00000	6a 18		 push	 24			; 00000018H
  00002	e8 00 00 00 00	 call	 ??2@YAPAXI@Z		; operator new
  00007	83 c4 04	 add	 esp, 4

; 1132 : 		_TRY_BEGIN
; 1133 : 		new (_Wherenode) _Node(_Larg, _Parg, _Rarg, _Val, _Carg);

  0000a	85 c0		 test	 eax, eax
  0000c	74 2e		 je	 SHORT $L111501
  0000e	8b 4c 24 04	 mov	 ecx, DWORD PTR __Larg$[esp-4]
  00012	8b 54 24 08	 mov	 edx, DWORD PTR __Parg$[esp-4]
  00016	89 08		 mov	 DWORD PTR [eax], ecx
  00018	8b 4c 24 0c	 mov	 ecx, DWORD PTR __Rarg$[esp-4]
  0001c	89 48 08	 mov	 DWORD PTR [eax+8], ecx
  0001f	8b 4c 24 10	 mov	 ecx, DWORD PTR __Val$[esp-4]
  00023	89 50 04	 mov	 DWORD PTR [eax+4], edx
  00026	8b 11		 mov	 edx, DWORD PTR [ecx]
  00028	89 50 0c	 mov	 DWORD PTR [eax+12], edx
  0002b	8b 49 04	 mov	 ecx, DWORD PTR [ecx+4]
  0002e	8a 54 24 14	 mov	 dl, BYTE PTR __Carg$[esp-4]
  00032	89 48 10	 mov	 DWORD PTR [eax+16], ecx
  00035	88 50 14	 mov	 BYTE PTR [eax+20], dl
  00038	c6 40 15 00	 mov	 BYTE PTR [eax+21], 0
$L111501:

; 1134 : 		_CATCH_ALL
; 1135 : 		this->_Alnod.deallocate(_Wherenode, 1);
; 1136 : 		_RERAISE;
; 1137 : 		_CATCH_END
; 1138 : 		return (_Wherenode);
; 1139 : 		}

  0003c	c2 14 00	 ret	 20			; 00000014H
?_Buynode@?$_Tree@V?$_Tmap_traits@KPAVCTPlayer@@U?$less@K@std@@V?$allocator@U?$pair@$$CBKPAVCTPlayer@@@std@@@3@$0A@@std@@@std@@IAEPAU_Node@?$_Tree_nod@V?$_Tmap_traits@KPAVCTPlayer@@U?$less@K@std@@V?$allocator@U?$pair@$$CBKPAVCTPlayer@@@std@@@3@$0A@@std@@@2@PAU342@00ABU?$pair@$$CBKPAVCTPlayer@@@2@D@Z ENDP ; std::_Tree<std::_Tmap_traits<unsigned long,CTPlayer *,std::less<unsigned long>,std::allocator<std::pair<unsigned long const ,CTPlayer *> >,0> >::_Buynode
_TEXT	ENDS
PUBLIC	?_Lbound@?$_Tree@V?$_Tmap_traits@GV?$map@KPAVCTPlayer@@U?$less@K@std@@V?$allocator@U?$pair@$$CBKPAVCTPlayer@@@std@@@3@@std@@U?$less@G@2@V?$allocator@U?$pair@$$CBGV?$map@KPAVCTPlayer@@U?$less@K@std@@V?$allocator@U?$pair@$$CBKPAVCTPlayer@@@std@@@3@@std@@@std@@@2@$0A@@std@@@std@@IBEPAU_Node@?$_Tree_nod@V?$_Tmap_traits@GV?$map@KPAVCTPlayer@@U?$less@K@std@@V?$allocator@U?$pair@$$CBKPAVCTPlayer@@@std@@@3@@std@@U?$less@G@2@V?$allocator@U?$pair@$$CBGV?$map@KPAVCTPlayer@@U?$less@K@std@@V?$allocator@U?$pair@$$CBKPAVCTPlayer@@@std@@@3@@std@@@std@@@2@$0A@@std@@@2@ABG@Z ; std::_Tree<std::_Tmap_traits<unsigned short,std::map<unsigned long,CTPlayer *,std::less<unsigned long>,std::allocator<std::pair<unsigned long const ,CTPlayer *> > >,std::less<unsigned short>,std::allocator<std::pair<unsigned short const ,std::map<unsigned long,CTPlayer *,std::less<unsigned long>,std::allocator<std::pair<unsigned long const ,CTPlayer *> > > > >,0> >::_Lbound
; Function compile flags: /Ogty
;	COMDAT ?_Lbound@?$_Tree@V?$_Tmap_traits@GV?$map@KPAVCTPlayer@@U?$less@K@std@@V?$allocator@U?$pair@$$CBKPAVCTPlayer@@@std@@@3@@std@@U?$less@G@2@V?$allocator@U?$pair@$$CBGV?$map@KPAVCTPlayer@@U?$less@K@std@@V?$allocator@U?$pair@$$CBKPAVCTPlayer@@@std@@@3@@std@@@std@@@2@$0A@@std@@@std@@IBEPAU_Node@?$_Tree_nod@V?$_Tmap_traits@GV?$map@KPAVCTPlayer@@U?$less@K@std@@V?$allocator@U?$pair@$$CBKPAVCTPlayer@@@std@@@3@@std@@U?$less@G@2@V?$allocator@U?$pair@$$CBGV?$map@KPAVCTPlayer@@U?$less@K@std@@V?$allocator@U?$pair@$$CBKPAVCTPlayer@@@std@@@3@@std@@@std@@@2@$0A@@std@@@2@ABG@Z
_TEXT	SEGMENT
__Keyval$ = 8						; size = 4
?_Lbound@?$_Tree@V?$_Tmap_traits@GV?$map@KPAVCTPlayer@@U?$less@K@std@@V?$allocator@U?$pair@$$CBKPAVCTPlayer@@@std@@@3@@std@@U?$less@G@2@V?$allocator@U?$pair@$$CBGV?$map@KPAVCTPlayer@@U?$less@K@std@@V?$allocator@U?$pair@$$CBKPAVCTPlayer@@@std@@@3@@std@@@std@@@2@$0A@@std@@@std@@IBEPAU_Node@?$_Tree_nod@V?$_Tmap_traits@GV?$map@KPAVCTPlayer@@U?$less@K@std@@V?$allocator@U?$pair@$$CBKPAVCTPlayer@@@std@@@3@@std@@U?$less@G@2@V?$allocator@U?$pair@$$CBGV?$map@KPAVCTPlayer@@U?$less@K@std@@V?$allocator@U?$pair@$$CBKPAVCTPlayer@@@std@@@3@@std@@@std@@@2@$0A@@std@@@2@ABG@Z PROC NEAR ; std::_Tree<std::_Tmap_traits<unsigned short,std::map<unsigned long,CTPlayer *,std::less<unsigned long>,std::allocator<std::pair<unsigned long const ,CTPlayer *> > >,std::less<unsigned short>,std::allocator<std::pair<unsigned short const ,std::map<unsigned long,CTPlayer *,std::less<unsigned long>,std::allocator<std::pair<unsigned long const ,CTPlayer *> > > > >,0> >::_Lbound, COMDAT
; _this$ = ecx

; 988  : 		_Nodeptr _Pnode = _Root();

  00000	8b 41 04	 mov	 eax, DWORD PTR [ecx+4]
  00003	8b 48 04	 mov	 ecx, DWORD PTR [eax+4]

; 989  : 		_Nodeptr _Wherenode = _Myhead;	// end() if search fails
; 990  : 
; 991  : 		while (!_Isnil(_Pnode))

  00006	8a 51 1d	 mov	 dl, BYTE PTR [ecx+29]
  00009	84 d2		 test	 dl, dl
  0000b	75 1f		 jne	 SHORT $L109031
  0000d	8b 54 24 04	 mov	 edx, DWORD PTR __Keyval$[esp-4]
  00011	66 8b 12	 mov	 dx, WORD PTR [edx]
  00014	53		 push	 ebx
$L109030:

; 992  : 			if (this->comp(_Key(_Pnode), _Keyval))

  00015	66 39 51 0c	 cmp	 WORD PTR [ecx+12], dx
  00019	73 05		 jae	 SHORT $L109032

; 993  : 				_Pnode = _Right(_Pnode);	// descend right subtree

  0001b	8b 49 08	 mov	 ecx, DWORD PTR [ecx+8]

; 994  : 			else

  0001e	eb 04		 jmp	 SHORT $L109033
$L109032:

; 995  : 				{	// _Pnode not less than _Keyval, remember it
; 996  : 				_Wherenode = _Pnode;

  00020	8b c1		 mov	 eax, ecx

; 997  : 				_Pnode = _Left(_Pnode);	// descend left subtree

  00022	8b 09		 mov	 ecx, DWORD PTR [ecx]
$L109033:
  00024	8a 59 1d	 mov	 bl, BYTE PTR [ecx+29]
  00027	84 db		 test	 bl, bl
  00029	74 ea		 je	 SHORT $L109030
  0002b	5b		 pop	 ebx
$L109031:

; 998  : 				}
; 999  : 
; 1000 : 		return (_Wherenode);	// return best remembered candidate
; 1001 : 		}

  0002c	c2 04 00	 ret	 4
?_Lbound@?$_Tree@V?$_Tmap_traits@GV?$map@KPAVCTPlayer@@U?$less@K@std@@V?$allocator@U?$pair@$$CBKPAVCTPlayer@@@std@@@3@@std@@U?$less@G@2@V?$allocator@U?$pair@$$CBGV?$map@KPAVCTPlayer@@U?$less@K@std@@V?$allocator@U?$pair@$$CBKPAVCTPlayer@@@std@@@3@@std@@@std@@@2@$0A@@std@@@std@@IBEPAU_Node@?$_Tree_nod@V?$_Tmap_traits@GV?$map@KPAVCTPlayer@@U?$less@K@std@@V?$allocator@U?$pair@$$CBKPAVCTPlayer@@@std@@@3@@std@@U?$less@G@2@V?$allocator@U?$pair@$$CBGV?$map@KPAVCTPlayer@@U?$less@K@std@@V?$allocator@U?$pair@$$CBKPAVCTPlayer@@@std@@@3@@std@@@std@@@2@$0A@@std@@@2@ABG@Z ENDP ; std::_Tree<std::_Tmap_traits<unsigned short,std::map<unsigned long,CTPlayer *,std::less<unsigned long>,std::allocator<std::pair<unsigned long const ,CTPlayer *> > >,std::less<unsigned short>,std::allocator<std::pair<unsigned short const ,std::map<unsigned long,CTPlayer *,std::less<unsigned long>,std::allocator<std::pair<unsigned long const ,CTPlayer *> > > > >,0> >::_Lbound
_TEXT	ENDS
PUBLIC	??Econst_iterator@?$_Tree@V?$_Tmap_traits@KPAVCTPlayer@@U?$less@K@std@@V?$allocator@U?$pair@$$CBKPAVCTPlayer@@@std@@@3@$0A@@std@@@std@@QAEAAV012@XZ ; std::_Tree<std::_Tmap_traits<unsigned long,CTPlayer *,std::less<unsigned long>,std::allocator<std::pair<unsigned long const ,CTPlayer *> >,0> >::const_iterator::operator++
; Function compile flags: /Ogty
;	COMDAT ??Econst_iterator@?$_Tree@V?$_Tmap_traits@KPAVCTPlayer@@U?$less@K@std@@V?$allocator@U?$pair@$$CBKPAVCTPlayer@@@std@@@3@$0A@@std@@@std@@QAEAAV012@XZ
_TEXT	SEGMENT
??Econst_iterator@?$_Tree@V?$_Tmap_traits@KPAVCTPlayer@@U?$less@K@std@@V?$allocator@U?$pair@$$CBKPAVCTPlayer@@@std@@@3@$0A@@std@@@std@@QAEAAV012@XZ PROC NEAR ; std::_Tree<std::_Tmap_traits<unsigned long,CTPlayer *,std::less<unsigned long>,std::allocator<std::pair<unsigned long const ,CTPlayer *> >,0> >::const_iterator::operator++, COMDAT
; _this$ = ecx

; 214  : 			{	// preincrement

  00000	56		 push	 esi
  00001	8b f1		 mov	 esi, ecx

; 215  : 			_Inc();

  00003	e8 00 00 00 00	 call	 ?_Inc@const_iterator@?$_Tree@V?$_Tmap_traits@KPAVCTPlayer@@U?$less@K@std@@V?$allocator@U?$pair@$$CBKPAVCTPlayer@@@std@@@3@$0A@@std@@@std@@QAEXXZ ; std::_Tree<std::_Tmap_traits<unsigned long,CTPlayer *,std::less<unsigned long>,std::allocator<std::pair<unsigned long const ,CTPlayer *> >,0> >::const_iterator::_Inc

; 216  : 			return (*this);

  00008	8b c6		 mov	 eax, esi
  0000a	5e		 pop	 esi

; 217  : 			}

  0000b	c3		 ret	 0
??Econst_iterator@?$_Tree@V?$_Tmap_traits@KPAVCTPlayer@@U?$less@K@std@@V?$allocator@U?$pair@$$CBKPAVCTPlayer@@@std@@@3@$0A@@std@@@std@@QAEAAV012@XZ ENDP ; std::_Tree<std::_Tmap_traits<unsigned long,CTPlayer *,std::less<unsigned long>,std::allocator<std::pair<unsigned long const ,CTPlayer *> >,0> >::const_iterator::operator++
_TEXT	ENDS
PUBLIC	??Fconst_iterator@?$_Tree@V?$_Tmap_traits@KPAVCTPlayer@@U?$less@K@std@@V?$allocator@U?$pair@$$CBKPAVCTPlayer@@@std@@@3@$0A@@std@@@std@@QAEAAV012@XZ ; std::_Tree<std::_Tmap_traits<unsigned long,CTPlayer *,std::less<unsigned long>,std::allocator<std::pair<unsigned long const ,CTPlayer *> >,0> >::const_iterator::operator--
; Function compile flags: /Ogty
;	COMDAT ??Fconst_iterator@?$_Tree@V?$_Tmap_traits@KPAVCTPlayer@@U?$less@K@std@@V?$allocator@U?$pair@$$CBKPAVCTPlayer@@@std@@@3@$0A@@std@@@std@@QAEAAV012@XZ
_TEXT	SEGMENT
??Fconst_iterator@?$_Tree@V?$_Tmap_traits@KPAVCTPlayer@@U?$less@K@std@@V?$allocator@U?$pair@$$CBKPAVCTPlayer@@@std@@@3@$0A@@std@@@std@@QAEAAV012@XZ PROC NEAR ; std::_Tree<std::_Tmap_traits<unsigned long,CTPlayer *,std::less<unsigned long>,std::allocator<std::pair<unsigned long const ,CTPlayer *> >,0> >::const_iterator::operator--, COMDAT
; _this$ = ecx

; 227  : 			{	// predecrement

  00000	56		 push	 esi
  00001	8b f1		 mov	 esi, ecx

; 228  : 			_Dec();

  00003	e8 00 00 00 00	 call	 ?_Dec@const_iterator@?$_Tree@V?$_Tmap_traits@KPAVCTPlayer@@U?$less@K@std@@V?$allocator@U?$pair@$$CBKPAVCTPlayer@@@std@@@3@$0A@@std@@@std@@QAEXXZ ; std::_Tree<std::_Tmap_traits<unsigned long,CTPlayer *,std::less<unsigned long>,std::allocator<std::pair<unsigned long const ,CTPlayer *> >,0> >::const_iterator::_Dec

; 229  : 			return (*this);

  00008	8b c6		 mov	 eax, esi
  0000a	5e		 pop	 esi

; 230  : 			}

  0000b	c3		 ret	 0
??Fconst_iterator@?$_Tree@V?$_Tmap_traits@KPAVCTPlayer@@U?$less@K@std@@V?$allocator@U?$pair@$$CBKPAVCTPlayer@@@std@@@3@$0A@@std@@@std@@QAEAAV012@XZ ENDP ; std::_Tree<std::_Tmap_traits<unsigned long,CTPlayer *,std::less<unsigned long>,std::allocator<std::pair<unsigned long const ,CTPlayer *> >,0> >::const_iterator::operator--
_TEXT	ENDS
PUBLIC	??Econst_iterator@?$_Tree@V?$_Tmap_traits@GPAVCTParty@@U?$less@G@std@@V?$allocator@U?$pair@$$CBGPAVCTParty@@@std@@@3@$0A@@std@@@std@@QAEAAV012@XZ ; std::_Tree<std::_Tmap_traits<unsigned short,CTParty *,std::less<unsigned short>,std::allocator<std::pair<unsigned short const ,CTParty *> >,0> >::const_iterator::operator++
; Function compile flags: /Ogty
;	COMDAT ??Econst_iterator@?$_Tree@V?$_Tmap_traits@GPAVCTParty@@U?$less@G@std@@V?$allocator@U?$pair@$$CBGPAVCTParty@@@std@@@3@$0A@@std@@@std@@QAEAAV012@XZ
_TEXT	SEGMENT
??Econst_iterator@?$_Tree@V?$_Tmap_traits@GPAVCTParty@@U?$less@G@std@@V?$allocator@U?$pair@$$CBGPAVCTParty@@@std@@@3@$0A@@std@@@std@@QAEAAV012@XZ PROC NEAR ; std::_Tree<std::_Tmap_traits<unsigned short,CTParty *,std::less<unsigned short>,std::allocator<std::pair<unsigned short const ,CTParty *> >,0> >::const_iterator::operator++, COMDAT
; _this$ = ecx

; 214  : 			{	// preincrement

  00000	56		 push	 esi
  00001	8b f1		 mov	 esi, ecx

; 215  : 			_Inc();

  00003	e8 00 00 00 00	 call	 ?_Inc@const_iterator@?$_Tree@V?$_Tmap_traits@GPAVCTParty@@U?$less@G@std@@V?$allocator@U?$pair@$$CBGPAVCTParty@@@std@@@3@$0A@@std@@@std@@QAEXXZ ; std::_Tree<std::_Tmap_traits<unsigned short,CTParty *,std::less<unsigned short>,std::allocator<std::pair<unsigned short const ,CTParty *> >,0> >::const_iterator::_Inc

; 216  : 			return (*this);

  00008	8b c6		 mov	 eax, esi
  0000a	5e		 pop	 esi

; 217  : 			}

  0000b	c3		 ret	 0
??Econst_iterator@?$_Tree@V?$_Tmap_traits@GPAVCTParty@@U?$less@G@std@@V?$allocator@U?$pair@$$CBGPAVCTParty@@@std@@@3@$0A@@std@@@std@@QAEAAV012@XZ ENDP ; std::_Tree<std::_Tmap_traits<unsigned short,CTParty *,std::less<unsigned short>,std::allocator<std::pair<unsigned short const ,CTParty *> >,0> >::const_iterator::operator++
_TEXT	ENDS
PUBLIC	??0?$CStringT@DV?$StrTraitATL@DV?$ChTraitsCRT@D@ATL@@@ATL@@@ATL@@QAE@XZ ; ATL::CStringT<char,ATL::StrTraitATL<char,ATL::ChTraitsCRT<char> > >::CStringT<char,ATL::StrTraitATL<char,ATL::ChTraitsCRT<char> > >
; Function compile flags: /Ogty
; File c:\program files (x86)\microsoft visual studio .net 2003\vc7\atlmfc\include\cstringt.h
;	COMDAT ??0?$CStringT@DV?$StrTraitATL@DV?$ChTraitsCRT@D@ATL@@@ATL@@@ATL@@QAE@XZ
_TEXT	SEGMENT
??0?$CStringT@DV?$StrTraitATL@DV?$ChTraitsCRT@D@ATL@@@ATL@@@ATL@@QAE@XZ PROC NEAR ; ATL::CStringT<char,ATL::StrTraitATL<char,ATL::ChTraitsCRT<char> > >::CStringT<char,ATL::StrTraitATL<char,ATL::ChTraitsCRT<char> > >, COMDAT
; _this$ = ecx

; 796  : 	{

  00000	a1 00 00 00 00	 mov	 eax, DWORD PTR ?g_strmgr@ATL@@3VCAtlStringMgr@1@A
  00005	56		 push	 esi
  00006	8b f1		 mov	 esi, ecx
  00008	b9 00 00 00 00	 mov	 ecx, OFFSET FLAT:?g_strmgr@ATL@@3VCAtlStringMgr@1@A ; ATL::g_strmgr
  0000d	ff 50 0c	 call	 DWORD PTR [eax+12]
  00010	83 c0 10	 add	 eax, 16			; 00000010H
  00013	89 06		 mov	 DWORD PTR [esi], eax

; 797  : 	}

  00015	8b c6		 mov	 eax, esi
  00017	5e		 pop	 esi
  00018	c3		 ret	 0
??0?$CStringT@DV?$StrTraitATL@DV?$ChTraitsCRT@D@ATL@@@ATL@@@ATL@@QAE@XZ ENDP ; ATL::CStringT<char,ATL::StrTraitATL<char,ATL::ChTraitsCRT<char> > >::CStringT<char,ATL::StrTraitATL<char,ATL::ChTraitsCRT<char> > >
_TEXT	ENDS
PUBLIC	??1?$CStringT@DV?$StrTraitATL@DV?$ChTraitsCRT@D@ATL@@@ATL@@@ATL@@QAE@XZ ; ATL::CStringT<char,ATL::StrTraitATL<char,ATL::ChTraitsCRT<char> > >::~CStringT<char,ATL::StrTraitATL<char,ATL::ChTraitsCRT<char> > >
; Function compile flags: /Ogty
;	COMDAT ??1?$CStringT@DV?$StrTraitATL@DV?$ChTraitsCRT@D@ATL@@@ATL@@@ATL@@QAE@XZ
_TEXT	SEGMENT
??1?$CStringT@DV?$StrTraitATL@DV?$ChTraitsCRT@D@ATL@@@ATL@@@ATL@@QAE@XZ PROC NEAR ; ATL::CStringT<char,ATL::StrTraitATL<char,ATL::ChTraitsCRT<char> > >::~CStringT<char,ATL::StrTraitATL<char,ATL::ChTraitsCRT<char> > >, COMDAT
; _this$ = ecx

; 963  : 	}

  00000	8b 01		 mov	 eax, DWORD PTR [ecx]
  00002	83 e8 10	 sub	 eax, 16			; 00000010H
  00005	8d 48 0c	 lea	 ecx, DWORD PTR [eax+12]
  00008	83 ca ff	 or	 edx, -1
  0000b	f0 0f c1 11	 lock	  xadd	 DWORD PTR [ecx], edx
  0000f	4a		 dec	 edx
  00010	85 d2		 test	 edx, edx
  00012	7f 08		 jg	 SHORT $L111614
  00014	8b 08		 mov	 ecx, DWORD PTR [eax]
  00016	8b 11		 mov	 edx, DWORD PTR [ecx]
  00018	50		 push	 eax
  00019	ff 52 04	 call	 DWORD PTR [edx+4]
$L111614:
  0001c	c3		 ret	 0
??1?$CStringT@DV?$StrTraitATL@DV?$ChTraitsCRT@D@ATL@@@ATL@@@ATL@@QAE@XZ ENDP ; ATL::CStringT<char,ATL::StrTraitATL<char,ATL::ChTraitsCRT<char> > >::~CStringT<char,ATL::StrTraitATL<char,ATL::ChTraitsCRT<char> > >
_TEXT	ENDS
PUBLIC	??0?$CSimpleStringT@D$0A@@ATL@@QAE@ABV01@@Z	; ATL::CSimpleStringT<char,0>::CSimpleStringT<char,0>
; Function compile flags: /Ogty
; File c:\program files (x86)\microsoft visual studio .net 2003\vc7\atlmfc\include\atlsimpstr.h
;	COMDAT ??0?$CSimpleStringT@D$0A@@ATL@@QAE@ABV01@@Z
_TEXT	SEGMENT
_strSrc$ = 8						; size = 4
??0?$CSimpleStringT@D$0A@@ATL@@QAE@ABV01@@Z PROC NEAR	; ATL::CSimpleStringT<char,0>::CSimpleStringT<char,0>, COMDAT
; _this$ = ecx

; 218  : 	{
; 219  : 		CStringData* pSrcData = strSrc.GetData();

  00000	8b 44 24 04	 mov	 eax, DWORD PTR _strSrc$[esp-4]
  00004	8b 00		 mov	 eax, DWORD PTR [eax]
  00006	56		 push	 esi
  00007	83 e8 10	 sub	 eax, 16			; 00000010H

; 220  : 		CStringData* pNewData = CloneData( pSrcData );

  0000a	50		 push	 eax
  0000b	8b f1		 mov	 esi, ecx
  0000d	e8 00 00 00 00	 call	 ?CloneData@?$CSimpleStringT@D$0A@@ATL@@CAPAUCStringData@2@PAU32@@Z ; ATL::CSimpleStringT<char,0>::CloneData

; 221  : 		Attach( pNewData );

  00012	83 c0 10	 add	 eax, 16			; 00000010H
  00015	89 06		 mov	 DWORD PTR [esi], eax
  00017	83 c4 04	 add	 esp, 4

; 222  : 	}

  0001a	8b c6		 mov	 eax, esi
  0001c	5e		 pop	 esi
  0001d	c2 04 00	 ret	 4
??0?$CSimpleStringT@D$0A@@ATL@@QAE@ABV01@@Z ENDP	; ATL::CSimpleStringT<char,0>::CSimpleStringT<char,0>
_TEXT	ENDS
PUBLIC	?PrepareWrite@?$CSimpleStringT@D$0A@@ATL@@AAEPADH@Z ; ATL::CSimpleStringT<char,0>::PrepareWrite
; Function compile flags: /Ogty
;	COMDAT ?PrepareWrite@?$CSimpleStringT@D$0A@@ATL@@AAEPADH@Z
_TEXT	SEGMENT
_nLength$ = 8						; size = 4
?PrepareWrite@?$CSimpleStringT@D$0A@@ATL@@AAEPADH@Z PROC NEAR ; ATL::CSimpleStringT<char,0>::PrepareWrite, COMDAT
; _this$ = ecx

; 734  : 	{

  00000	56		 push	 esi
  00001	8b f1		 mov	 esi, ecx

; 735  : 		CStringData* pOldData = GetData();

  00003	8b 06		 mov	 eax, DWORD PTR [esi]

; 736  : 		int nShared = 1-pOldData->nRefs;  // nShared < 0 means true, >= 0 means false

  00005	8b 50 fc	 mov	 edx, DWORD PTR [eax-4]
  00008	83 e8 10	 sub	 eax, 16			; 00000010H
  0000b	b9 01 00 00 00	 mov	 ecx, 1
  00010	2b ca		 sub	 ecx, edx

; 737  : 		int nTooShort = pOldData->nAllocLength-nLength;  // nTooShort < 0 means true, >= 0 means false

  00012	8b 50 08	 mov	 edx, DWORD PTR [eax+8]
  00015	8b 44 24 08	 mov	 eax, DWORD PTR _nLength$[esp]
  00019	2b d0		 sub	 edx, eax

; 738  : 		if( (nShared|nTooShort) < 0 )  // If either sign bit is set (i.e. either is less than zero), we need to copy data

  0001b	0b ca		 or	 ecx, edx
  0001d	7d 08		 jge	 SHORT $L111636

; 739  : 		{
; 740  : 			PrepareWrite2( nLength );

  0001f	50		 push	 eax
  00020	8b ce		 mov	 ecx, esi
  00022	e8 00 00 00 00	 call	 ?PrepareWrite2@?$CSimpleStringT@D$0A@@ATL@@AAEXH@Z ; ATL::CSimpleStringT<char,0>::PrepareWrite2
$L111636:

; 741  : 		}
; 742  : 
; 743  : 		return( m_pszData );

  00027	8b 06		 mov	 eax, DWORD PTR [esi]
  00029	5e		 pop	 esi

; 744  : 	}

  0002a	c2 04 00	 ret	 4
?PrepareWrite@?$CSimpleStringT@D$0A@@ATL@@AAEPADH@Z ENDP ; ATL::CSimpleStringT<char,0>::PrepareWrite
_TEXT	ENDS
PUBLIC	?_Tidy@?$basic_string@DU?$char_traits@D@std@@V?$allocator@D@2@@std@@IAEX_NI@Z ; std::basic_string<char,std::char_traits<char>,std::allocator<char> >::_Tidy
; Function compile flags: /Ogty
; File c:\program files (x86)\microsoft visual studio .net 2003\vc7\include\xstring
;	COMDAT ?_Tidy@?$basic_string@DU?$char_traits@D@std@@V?$allocator@D@2@@std@@IAEX_NI@Z
_TEXT	SEGMENT
__Built$ = 8						; size = 1
__Newsize$ = 12						; size = 4
?_Tidy@?$basic_string@DU?$char_traits@D@std@@V?$allocator@D@2@@std@@IAEX_NI@Z PROC NEAR ; std::basic_string<char,std::char_traits<char>,std::allocator<char> >::_Tidy, COMDAT
; _this$ = ecx

; 1510 : 		if (!_Built)

  00000	8a 44 24 04	 mov	 al, BYTE PTR __Built$[esp-4]
  00004	84 c0		 test	 al, al
  00006	53		 push	 ebx
  00007	55		 push	 ebp
  00008	8b 6c 24 10	 mov	 ebp, DWORD PTR __Newsize$[esp+4]
  0000c	8b d9		 mov	 ebx, ecx
  0000e	74 2f		 je	 SHORT $L111645

; 1511 : 			;
; 1512 : 		else if (_BUF_SIZE <= _Myres)

  00010	83 7b 18 10	 cmp	 DWORD PTR [ebx+24], 16	; 00000010H
  00014	72 29		 jb	 SHORT $L111645

; 1513 : 			{	// copy any leftovers to small buffer and deallocate
; 1514 : 			_Elem *_Ptr = _Bx._Ptr;
; 1515 : 			if (0 < _Newsize)

  00016	85 ed		 test	 ebp, ebp
  00018	8b 43 04	 mov	 eax, DWORD PTR [ebx+4]
  0001b	57		 push	 edi
  0001c	8d 7b 04	 lea	 edi, DWORD PTR [ebx+4]
  0001f	76 14		 jbe	 SHORT $L111642
  00021	56		 push	 esi

; 1516 : 				_Traits::copy(_Bx._Buf, _Ptr, _Newsize);

  00022	8b cd		 mov	 ecx, ebp
  00024	8b d1		 mov	 edx, ecx
  00026	c1 e9 02	 shr	 ecx, 2
  00029	8b f0		 mov	 esi, eax
  0002b	f3 a5		 rep movsd
  0002d	8b ca		 mov	 ecx, edx
  0002f	83 e1 03	 and	 ecx, 3
  00032	f3 a4		 rep movsb
  00034	5e		 pop	 esi
$L111642:

; 1517 : 			_Mybase::_Alval.deallocate(_Ptr, _Myres + 1);

  00035	50		 push	 eax
  00036	e8 00 00 00 00	 call	 ??3@YAXPAX@Z		; operator delete
  0003b	83 c4 04	 add	 esp, 4
  0003e	5f		 pop	 edi
$L111645:

; 1518 : 			}
; 1519 : 		_Myres = _BUF_SIZE - 1;
; 1520 : 		_Eos(_Newsize);

  0003f	89 6b 14	 mov	 DWORD PTR [ebx+20], ebp
  00042	c7 43 18 0f 00
	00 00		 mov	 DWORD PTR [ebx+24], 15	; 0000000fH
  00049	c6 44 2b 04 00	 mov	 BYTE PTR [ebx+ebp+4], 0
  0004e	5d		 pop	 ebp
  0004f	5b		 pop	 ebx

; 1521 : 		}

  00050	c2 08 00	 ret	 8
?_Tidy@?$basic_string@DU?$char_traits@D@std@@V?$allocator@D@2@@std@@IAEX_NI@Z ENDP ; std::basic_string<char,std::char_traits<char>,std::allocator<char> >::_Tidy
_TEXT	ENDS
PUBLIC	?GetBuffer@?$CSimpleStringT@D$0A@@ATL@@QAEPADH@Z ; ATL::CSimpleStringT<char,0>::GetBuffer
; Function compile flags: /Ogty
; File c:\program files (x86)\microsoft visual studio .net 2003\vc7\atlmfc\include\atlsimpstr.h
;	COMDAT ?GetBuffer@?$CSimpleStringT@D$0A@@ATL@@QAEPADH@Z
_TEXT	SEGMENT
_nMinBufferLength$ = 8					; size = 4
?GetBuffer@?$CSimpleStringT@D$0A@@ATL@@QAEPADH@Z PROC NEAR ; ATL::CSimpleStringT<char,0>::GetBuffer, COMDAT
; _this$ = ecx

; 489  : 	{

  00000	56		 push	 esi
  00001	8b f1		 mov	 esi, ecx

; 490  : 		return( PrepareWrite( nMinBufferLength ) );

  00003	8b 06		 mov	 eax, DWORD PTR [esi]
  00005	8b 50 fc	 mov	 edx, DWORD PTR [eax-4]
  00008	83 e8 10	 sub	 eax, 16			; 00000010H
  0000b	b9 01 00 00 00	 mov	 ecx, 1
  00010	2b ca		 sub	 ecx, edx
  00012	8b 50 08	 mov	 edx, DWORD PTR [eax+8]
  00015	8b 44 24 08	 mov	 eax, DWORD PTR _nMinBufferLength$[esp]
  00019	2b d0		 sub	 edx, eax
  0001b	0b ca		 or	 ecx, edx
  0001d	7d 08		 jge	 SHORT $L111684
  0001f	50		 push	 eax
  00020	8b ce		 mov	 ecx, esi
  00022	e8 00 00 00 00	 call	 ?PrepareWrite2@?$CSimpleStringT@D$0A@@ATL@@AAEXH@Z ; ATL::CSimpleStringT<char,0>::PrepareWrite2
$L111684:
  00027	8b 06		 mov	 eax, DWORD PTR [esi]
  00029	5e		 pop	 esi

; 491  : 	}

  0002a	c2 04 00	 ret	 4
?GetBuffer@?$CSimpleStringT@D$0A@@ATL@@QAEPADH@Z ENDP	; ATL::CSimpleStringT<char,0>::GetBuffer
_TEXT	ENDS
PUBLIC	?erase@?$basic_string@DU?$char_traits@D@std@@V?$allocator@D@2@@std@@QAEAAV12@II@Z ; std::basic_string<char,std::char_traits<char>,std::allocator<char> >::erase
EXTRN	?_Xran@_String_base@std@@QBEXXZ:NEAR		; std::_String_base::_Xran
; Function compile flags: /Ogty
; File c:\program files (x86)\microsoft visual studio .net 2003\vc7\include\xstring
;	COMDAT ?erase@?$basic_string@DU?$char_traits@D@std@@V?$allocator@D@2@@std@@QAEAAV12@II@Z
_TEXT	SEGMENT
__Off$ = 8						; size = 4
__Count$ = 12						; size = 4
?erase@?$basic_string@DU?$char_traits@D@std@@V?$allocator@D@2@@std@@QAEAAV12@II@Z PROC NEAR ; std::basic_string<char,std::char_traits<char>,std::allocator<char> >::erase, COMDAT
; _this$ = ecx

; 792  : 		{	// erase elements [_Off, _Off + _Count)

  00000	55		 push	 ebp

; 793  : 		if (_Mysize < _Off)

  00001	8b 6c 24 08	 mov	 ebp, DWORD PTR __Off$[esp]
  00005	56		 push	 esi
  00006	8b f1		 mov	 esi, ecx
  00008	39 6e 14	 cmp	 DWORD PTR [esi+20], ebp
  0000b	57		 push	 edi
  0000c	73 05		 jae	 SHORT $L103775

; 794  : 			_String_base::_Xran();	// _Off off end

  0000e	e8 00 00 00 00	 call	 ?_Xran@_String_base@std@@QBEXXZ ; std::_String_base::_Xran
$L103775:

; 795  : 		if (_Mysize - _Off < _Count)

  00013	8b 46 14	 mov	 eax, DWORD PTR [esi+20]
  00016	8b 7c 24 14	 mov	 edi, DWORD PTR __Count$[esp+8]
  0001a	2b c5		 sub	 eax, ebp
  0001c	3b c7		 cmp	 eax, edi
  0001e	73 02		 jae	 SHORT $L103776

; 796  : 			_Count = _Mysize - _Off;	// trim _Count

  00020	8b f8		 mov	 edi, eax
$L103776:

; 797  : 		if (0 < _Count)

  00022	85 ff		 test	 edi, edi
  00024	76 47		 jbe	 SHORT $L111727

; 798  : 			{	// move elements down
; 799  : 			_Traits::move(_Myptr() + _Off, _Myptr() + _Off + _Count,
; 800  : 				_Mysize - _Off - _Count);

  00026	8b 4e 18	 mov	 ecx, DWORD PTR [esi+24]
  00029	83 f9 10	 cmp	 ecx, 16			; 00000010H
  0002c	53		 push	 ebx
  0002d	8d 5e 04	 lea	 ebx, DWORD PTR [esi+4]
  00030	72 04		 jb	 SHORT $L111692
  00032	8b 13		 mov	 edx, DWORD PTR [ebx]
  00034	eb 02		 jmp	 SHORT $L111693
$L111692:
  00036	8b d3		 mov	 edx, ebx
$L111693:
  00038	83 f9 10	 cmp	 ecx, 16			; 00000010H
  0003b	72 04		 jb	 SHORT $L111699
  0003d	8b 0b		 mov	 ecx, DWORD PTR [ebx]
  0003f	eb 02		 jmp	 SHORT $L111700
$L111699:
  00041	8b cb		 mov	 ecx, ebx
$L111700:
  00043	2b c7		 sub	 eax, edi

; 803  : 			}
; 804  : 		return (*this);

  00045	03 d5		 add	 edx, ebp
  00047	50		 push	 eax
  00048	03 d7		 add	 edx, edi
  0004a	52		 push	 edx
  0004b	03 cd		 add	 ecx, ebp
  0004d	51		 push	 ecx
  0004e	e8 00 00 00 00	 call	 _memmove
  00053	8b 46 14	 mov	 eax, DWORD PTR [esi+20]
  00056	8b 4e 18	 mov	 ecx, DWORD PTR [esi+24]
  00059	2b c7		 sub	 eax, edi
  0005b	83 c4 0c	 add	 esp, 12			; 0000000cH
  0005e	83 f9 10	 cmp	 ecx, 16			; 00000010H
  00061	89 46 14	 mov	 DWORD PTR [esi+20], eax
  00064	72 02		 jb	 SHORT $L111722

; 801  : 			size_type _Newsize = _Mysize - _Count;
; 802  : 			_Eos(_Newsize);

  00066	8b 1b		 mov	 ebx, DWORD PTR [ebx]
$L111722:
  00068	c6 04 03 00	 mov	 BYTE PTR [ebx+eax], 0
  0006c	5b		 pop	 ebx
$L111727:
  0006d	5f		 pop	 edi

; 803  : 			}
; 804  : 		return (*this);

  0006e	8b c6		 mov	 eax, esi
  00070	5e		 pop	 esi
  00071	5d		 pop	 ebp

; 805  : 		}

  00072	c2 08 00	 ret	 8
?erase@?$basic_string@DU?$char_traits@D@std@@V?$allocator@D@2@@std@@QAEAAV12@II@Z ENDP ; std::basic_string<char,std::char_traits<char>,std::allocator<char> >::erase
_TEXT	ENDS
PUBLIC	?_Copy@?$basic_string@DU?$char_traits@D@std@@V?$allocator@D@2@@std@@IAEXII@Z ; std::basic_string<char,std::char_traits<char>,std::allocator<char> >::_Copy
EXTRN	__except_list:DWORD
EXTRN	___CxxFrameHandler:NEAR
;	COMDAT xdata$x
; File c:\program files (x86)\microsoft visual studio .net 2003\vc7\include\iosfwd
xdata$x	SEGMENT
$T111932 DD	0ffffffffH
	DD	00H
	DD	0ffffffffH
	DD	00H
	DD	01H
	DD	00H
	DD	01H
	DD	00H
$T111934 DD	00H
	DD	00H
	DD	00H
	DD	FLAT:$L111734
$T111935 DD	00H
	DD	00H
	DD	00H
	DD	FLAT:$L111732
$T111933 DD	02H
	DD	02H
	DD	03H
	DD	01H
	DD	FLAT:$T111934
	DD	00H
	DD	00H
	DD	03H
	DD	01H
	DD	FLAT:$T111935
$T111926 DD	019930520H
	DD	04H
	DD	FLAT:$T111932
	DD	02H
	DD	FLAT:$T111933
	DD	2 DUP(00H)
; Function compile flags: /Ogty
; File c:\program files (x86)\microsoft visual studio .net 2003\vc7\include\xstring
xdata$x	ENDS
;	COMDAT ?_Copy@?$basic_string@DU?$char_traits@D@std@@V?$allocator@D@2@@std@@IAEXII@Z
_TEXT	SEGMENT
__Newres$ = -24						; size = 4
_this$ = -20						; size = 4
__$EHRec$ = -16						; size = 16
__Ptr$ = 8						; size = 4
__Newsize$ = 8						; size = 4
__Oldlen$ = 12						; size = 4
?_Copy@?$basic_string@DU?$char_traits@D@std@@V?$allocator@D@2@@std@@IAEXII@Z PROC NEAR ; std::basic_string<char,std::char_traits<char>,std::allocator<char> >::_Copy, COMDAT
; _this$ = ecx

; 1444 : 		{	// copy _Oldlen elements to newly allocated buffer

  00000	55		 push	 ebp
  00001	8b ec		 mov	 ebp, esp
  00003	6a ff		 push	 -1
  00005	68 00 00 00 00	 push	 __ehhandler$?_Copy@?$basic_string@DU?$char_traits@D@std@@V?$allocator@D@2@@std@@IAEXII@Z
  0000a	64 a1 00 00 00
	00		 mov	 eax, DWORD PTR fs:__except_list
  00010	50		 push	 eax
  00011	64 89 25 00 00
	00 00		 mov	 DWORD PTR fs:__except_list, esp
  00018	83 ec 0c	 sub	 esp, 12			; 0000000cH

; 1445 : 		size_type _Newres = _Newsize | _ALLOC_MASK;

  0001b	8b 45 08	 mov	 eax, DWORD PTR __Newsize$[ebp]
  0001e	53		 push	 ebx
  0001f	56		 push	 esi
  00020	8b d8		 mov	 ebx, eax
  00022	83 cb 0f	 or	 ebx, 15			; 0000000fH

; 1446 : 		if (max_size() < _Newres)

  00025	83 fb fe	 cmp	 ebx, -2			; fffffffeH
  00028	57		 push	 edi
  00029	8b f1		 mov	 esi, ecx
  0002b	89 65 f0	 mov	 DWORD PTR __$EHRec$[ebp], esp
  0002e	89 75 ec	 mov	 DWORD PTR _this$[ebp], esi
  00031	76 04		 jbe	 SHORT $L103850

; 1447 : 			_Newres = _Newsize;	// undo roundup if too big

  00033	8b d8		 mov	 ebx, eax

; 1448 : 		else if (_Newres / 3 < _Myres / 2

  00035	eb 22		 jmp	 SHORT $L103852
$L103850:

; 1449 : 			&& _Myres <= max_size() - _Myres / 2)

  00037	8b 7e 18	 mov	 edi, DWORD PTR [esi+24]
  0003a	b8 ab aa aa aa	 mov	 eax, -1431655765	; aaaaaaabH
  0003f	f7 e3		 mul	 ebx
  00041	8b cf		 mov	 ecx, edi
  00043	d1 e9		 shr	 ecx, 1
  00045	d1 ea		 shr	 edx, 1
  00047	3b d1		 cmp	 edx, ecx
  00049	73 0e		 jae	 SHORT $L103852
  0004b	b8 fe ff ff ff	 mov	 eax, -2			; fffffffeH
  00050	2b c1		 sub	 eax, ecx
  00052	3b f8		 cmp	 edi, eax
  00054	77 03		 ja	 SHORT $L103852

; 1450 : 			_Newres = _Myres + _Myres / 2;	// grow exponentially if possible

  00056	8d 1c 39	 lea	 ebx, DWORD PTR [ecx+edi]
$L103852:

; 1451 : 		_Elem *_Ptr;
; 1452 : 
; 1453 : 		_TRY_BEGIN
; 1454 : 			_Ptr = _Mybase::_Alval.allocate(_Newres + 1);

  00059	8d 4b 01	 lea	 ecx, DWORD PTR [ebx+1]
  0005c	51		 push	 ecx
  0005d	c7 45 fc 00 00
	00 00		 mov	 DWORD PTR __$EHRec$[ebp+12], 0
  00064	e8 00 00 00 00	 call	 ??2@YAPAXI@Z		; operator new
  00069	8b d0		 mov	 edx, eax
  0006b	83 c4 04	 add	 esp, 4
  0006e	89 55 08	 mov	 DWORD PTR __Ptr$[ebp], edx
  00071	eb 29		 jmp	 SHORT $L103854
$L111732:

; 1455 : 		_CATCH_ALL
; 1456 : 			_Newres = _Newsize;	// allocation failed, undo roundup and retry

  00073	8b 45 08	 mov	 eax, DWORD PTR __Newsize$[ebp]
  00076	89 45 e8	 mov	 DWORD PTR __Newres$[ebp], eax

; 1457 : 			_TRY_BEGIN
; 1458 : 				_Ptr = _Mybase::_Alval.allocate(_Newres + 1);

  00079	40		 inc	 eax
  0007a	89 65 f0	 mov	 DWORD PTR __$EHRec$[ebp], esp
  0007d	50		 push	 eax
  0007e	c6 45 fc 02	 mov	 BYTE PTR __$EHRec$[ebp+12], 2
  00082	e8 00 00 00 00	 call	 ??2@YAPAXI@Z		; operator new
  00087	89 45 08	 mov	 DWORD PTR __Ptr$[ebp], eax
  0008a	83 c4 04	 add	 esp, 4

; 1462 : 			_CATCH_END
; 1463 : 		_CATCH_END

  0008d	b8 00 00 00 00	 mov	 eax, $L111927
  00092	c3		 ret	 0
$L111927:
  00093	8b 5d e8	 mov	 ebx, DWORD PTR __Newres$[ebp]
  00096	8b 75 ec	 mov	 esi, DWORD PTR _this$[ebp]
  00099	8b 55 08	 mov	 edx, DWORD PTR __Ptr$[ebp]
$L103854:

; 1464 : 
; 1465 : 		if (0 < _Oldlen)

  0009c	8b 4d 0c	 mov	 ecx, DWORD PTR __Oldlen$[ebp]
  0009f	85 c9		 test	 ecx, ecx
  000a1	76 24		 jbe	 SHORT $L111852

; 1466 : 			_Traits::copy(_Ptr, _Myptr(), _Oldlen);	// copy existing elements

  000a3	83 7e 18 10	 cmp	 DWORD PTR [esi+24], 16	; 00000010H
  000a7	72 05		 jb	 SHORT $L111847
  000a9	8b 76 04	 mov	 esi, DWORD PTR [esi+4]
  000ac	eb 03		 jmp	 SHORT $L111848
$L111847:
  000ae	83 c6 04	 add	 esi, 4
$L111848:
  000b1	8b c1		 mov	 eax, ecx
  000b3	c1 e9 02	 shr	 ecx, 2
  000b6	8b fa		 mov	 edi, edx
  000b8	f3 a5		 rep movsd
  000ba	8b c8		 mov	 ecx, eax
  000bc	83 e1 03	 and	 ecx, 3
  000bf	f3 a4		 rep movsb
  000c1	8b 75 ec	 mov	 esi, DWORD PTR _this$[ebp]
  000c4	8b 4d 0c	 mov	 ecx, DWORD PTR __Oldlen$[ebp]
$L111852:

; 1467 : 		_Tidy(true);

  000c7	83 7e 18 10	 cmp	 DWORD PTR [esi+24], 16	; 00000010H
  000cb	72 12		 jb	 SHORT $L111894
  000cd	8b 4e 04	 mov	 ecx, DWORD PTR [esi+4]
  000d0	51		 push	 ecx
  000d1	e8 00 00 00 00	 call	 ??3@YAXPAX@Z		; operator delete
  000d6	8b 55 08	 mov	 edx, DWORD PTR __Ptr$[ebp]
  000d9	8b 4d 0c	 mov	 ecx, DWORD PTR __Oldlen$[ebp]
  000dc	83 c4 04	 add	 esp, 4
$L111894:

; 1468 : 		_Bx._Ptr = _Ptr;
; 1469 : 		_Myres = _Newres;
; 1470 : 		_Eos(_Oldlen);

  000df	83 fb 10	 cmp	 ebx, 16			; 00000010H
  000e2	8d 46 04	 lea	 eax, DWORD PTR [esi+4]
  000e5	c6 00 00	 mov	 BYTE PTR [eax], 0
  000e8	89 10		 mov	 DWORD PTR [eax], edx
  000ea	89 5e 18	 mov	 DWORD PTR [esi+24], ebx
  000ed	89 4e 14	 mov	 DWORD PTR [esi+20], ecx
  000f0	72 02		 jb	 SHORT $L111920
  000f2	8b c2		 mov	 eax, edx
$L111920:

; 1471 : 		}

  000f4	5f		 pop	 edi
  000f5	c6 04 08 00	 mov	 BYTE PTR [eax+ecx], 0
  000f9	8b 4d f4	 mov	 ecx, DWORD PTR __$EHRec$[ebp+4]
  000fc	5e		 pop	 esi
  000fd	64 89 0d 00 00
	00 00		 mov	 DWORD PTR fs:__except_list, ecx
  00104	5b		 pop	 ebx
  00105	8b e5		 mov	 esp, ebp
  00107	5d		 pop	 ebp
  00108	c2 08 00	 ret	 8
$L111734:

; 1459 : 			_CATCH_ALL
; 1460 : 			_Tidy(true);	// failed again, discard storage and reraise

  0010b	8b 75 ec	 mov	 esi, DWORD PTR _this$[ebp]
  0010e	83 7e 18 10	 cmp	 DWORD PTR [esi+24], 16	; 00000010H
  00112	72 0c		 jb	 SHORT $L111833
  00114	8b 56 04	 mov	 edx, DWORD PTR [esi+4]
  00117	52		 push	 edx
  00118	e8 00 00 00 00	 call	 ??3@YAXPAX@Z		; operator delete
  0011d	83 c4 04	 add	 esp, 4
$L111833:

; 1461 : 			_RERAISE;

  00120	6a 00		 push	 0
  00122	c7 46 18 0f 00
	00 00		 mov	 DWORD PTR [esi+24], 15	; 0000000fH
  00129	c7 46 14 00 00
	00 00		 mov	 DWORD PTR [esi+20], 0
  00130	6a 00		 push	 0
  00132	c6 46 04 00	 mov	 BYTE PTR [esi+4], 0
  00136	e8 00 00 00 00	 call	 __CxxThrowException@8
$L111937:
$L111931:
  0013b	cc		 int	 3
_TEXT	ENDS
;	COMDAT text$x
text$x	SEGMENT
__ehhandler$?_Copy@?$basic_string@DU?$char_traits@D@std@@V?$allocator@D@2@@std@@IAEXII@Z:
  00000	b8 00 00 00 00	 mov	 eax, OFFSET FLAT:$T111926
  00005	e9 00 00 00 00	 jmp	 ___CxxFrameHandler
text$x	ENDS
?_Copy@?$basic_string@DU?$char_traits@D@std@@V?$allocator@D@2@@std@@IAEXII@Z ENDP ; std::basic_string<char,std::char_traits<char>,std::allocator<char> >::_Copy
PUBLIC	?SetString@?$CSimpleStringT@D$0A@@ATL@@QAEXPBDH@Z ; ATL::CSimpleStringT<char,0>::SetString
; Function compile flags: /Ogty
; File c:\program files (x86)\microsoft visual studio .net 2003\vc7\atlmfc\include\atlsimpstr.h
;	COMDAT ?SetString@?$CSimpleStringT@D$0A@@ATL@@QAEXPBDH@Z
_TEXT	SEGMENT
_pszSrc$ = 8						; size = 4
_nLength$ = 12						; size = 4
?SetString@?$CSimpleStringT@D$0A@@ATL@@QAEXPBDH@Z PROC NEAR ; ATL::CSimpleStringT<char,0>::SetString, COMDAT
; _this$ = ecx

; 583  : 	{

  00000	53		 push	 ebx

; 584  : 		if( nLength == 0 )

  00001	8b 5c 24 0c	 mov	 ebx, DWORD PTR _nLength$[esp]
  00005	85 db		 test	 ebx, ebx
  00007	55		 push	 ebp
  00008	8b e9		 mov	 ebp, ecx
  0000a	75 0a		 jne	 SHORT $L103864

; 585  : 		{
; 586  : 			Empty();

  0000c	e8 00 00 00 00	 call	 ?Empty@?$CSimpleStringT@D$0A@@ATL@@QAEXXZ ; ATL::CSimpleStringT<char,0>::Empty
  00011	5d		 pop	 ebp
  00012	5b		 pop	 ebx

; 614  : 		}
; 615  : 	}

  00013	c2 08 00	 ret	 8
$L103864:

; 587  : 		}
; 588  : 		else
; 589  : 		{
; 590  : 			// It is possible that pszSrc points to a location inside of our 
; 591  : 			// buffer.  GetBuffer() might change m_pszData if (1) the buffer 
; 592  : 			// is shared or (2) the buffer is too small to hold the new 
; 593  : 			// string.  We detect this aliasing, and modify pszSrc to point
; 594  : 			// into the newly allocated buffer instead.
; 595  : 			
; 596  : 			if(pszSrc == NULL)

  00016	8b 54 24 0c	 mov	 edx, DWORD PTR _pszSrc$[esp+4]
  0001a	85 d2		 test	 edx, edx
  0001c	75 0a		 jne	 SHORT $L103866

; 612  : 			}
; 613  : 			ReleaseBufferSetLength( nLength );

$L112011:
  0001e	68 57 00 07 80	 push	 -2147024809		; 80070057H
  00023	e8 00 00 00 00	 call	 ?AtlThrow@ATL@@YGXJ@Z	; ATL::AtlThrow
$L112014:
$L103866:

; 597  : 				AtlThrow(E_INVALIDARG);			
; 598  : 				
; 599  : 			UINT nOldLength = GetLength();

  00028	8b 45 00	 mov	 eax, DWORD PTR [ebp]
  0002b	56		 push	 esi

; 600  : 			UINT_PTR nOffset = pszSrc-GetString();

  0002c	8b f2		 mov	 esi, edx
  0002e	2b f0		 sub	 esi, eax

; 601  : 			// If 0 <= nOffset <= nOldLength, then pszSrc points into our 
; 602  : 			// buffer
; 603  : 
; 604  : 			PXSTR pszBuffer = GetBuffer( nLength );

  00030	b9 01 00 00 00	 mov	 ecx, 1
  00035	2b 48 fc	 sub	 ecx, DWORD PTR [eax-4]
  00038	57		 push	 edi
  00039	8b 78 f4	 mov	 edi, DWORD PTR [eax-12]
  0003c	8b 40 f8	 mov	 eax, DWORD PTR [eax-8]
  0003f	2b c3		 sub	 eax, ebx
  00041	0b c8		 or	 ecx, eax
  00043	7d 0c		 jge	 SHORT $L111975
  00045	53		 push	 ebx
  00046	8b cd		 mov	 ecx, ebp
  00048	e8 00 00 00 00	 call	 ?PrepareWrite2@?$CSimpleStringT@D$0A@@ATL@@AAEXH@Z ; ATL::CSimpleStringT<char,0>::PrepareWrite2
  0004d	8b 54 24 14	 mov	 edx, DWORD PTR _pszSrc$[esp+12]
$L111975:

; 605  : 			if( nOffset <= nOldLength )

  00051	3b f7		 cmp	 esi, edi
  00053	8b 45 00	 mov	 eax, DWORD PTR [ebp]
  00056	77 10		 ja	 SHORT $L103871

; 606  : 			{
; 607  : 				CopyCharsOverlapped( pszBuffer, pszBuffer+nOffset, nLength );

  00058	53		 push	 ebx
  00059	8d 0c 30	 lea	 ecx, DWORD PTR [eax+esi]
  0005c	51		 push	 ecx
  0005d	50		 push	 eax
  0005e	e8 00 00 00 00	 call	 _memmove
  00063	83 c4 0c	 add	 esp, 12			; 0000000cH

; 608  : 			}
; 609  : 			else

  00066	eb 14		 jmp	 SHORT $L111984
$L103871:

; 610  : 			{
; 611  : 				CopyChars( pszBuffer, pszSrc, nLength );

  00068	8b cb		 mov	 ecx, ebx
  0006a	8b f2		 mov	 esi, edx
  0006c	8b d1		 mov	 edx, ecx
  0006e	c1 e9 02	 shr	 ecx, 2
  00071	8b f8		 mov	 edi, eax
  00073	f3 a5		 rep movsd
  00075	8b ca		 mov	 ecx, edx
  00077	83 e1 03	 and	 ecx, 3
  0007a	f3 a4		 rep movsb
$L111984:

; 612  : 			}
; 613  : 			ReleaseBufferSetLength( nLength );

  0007c	85 db		 test	 ebx, ebx
  0007e	5f		 pop	 edi
  0007f	5e		 pop	 esi
  00080	7c 9c		 jl	 SHORT $L112011
  00082	8b 45 00	 mov	 eax, DWORD PTR [ebp]
  00085	3b 58 f8	 cmp	 ebx, DWORD PTR [eax-8]
  00088	7f 94		 jg	 SHORT $L112011
  0008a	89 58 f4	 mov	 DWORD PTR [eax-12], ebx
  0008d	8b 45 00	 mov	 eax, DWORD PTR [ebp]
  00090	5d		 pop	 ebp
  00091	c6 04 03 00	 mov	 BYTE PTR [ebx+eax], 0
  00095	5b		 pop	 ebx

; 614  : 		}
; 615  : 	}

  00096	c2 08 00	 ret	 8
$L112013:
?SetString@?$CSimpleStringT@D$0A@@ATL@@QAEXPBDH@Z ENDP	; ATL::CSimpleStringT<char,0>::SetString
_TEXT	ENDS
PUBLIC	?find@?$_Tree@V?$_Tmap_traits@KPAVCTPlayer@@U?$less@K@std@@V?$allocator@U?$pair@$$CBKPAVCTPlayer@@@std@@@3@$0A@@std@@@std@@QAE?AViterator@12@ABK@Z ; std::_Tree<std::_Tmap_traits<unsigned long,CTPlayer *,std::less<unsigned long>,std::allocator<std::pair<unsigned long const ,CTPlayer *> >,0> >::find
; Function compile flags: /Ogty
; File c:\program files (x86)\microsoft visual studio .net 2003\vc7\include\xtree
;	COMDAT ?find@?$_Tree@V?$_Tmap_traits@KPAVCTPlayer@@U?$less@K@std@@V?$allocator@U?$pair@$$CBKPAVCTPlayer@@@std@@@3@$0A@@std@@@std@@QAE?AViterator@12@ABK@Z
_TEXT	SEGMENT
$T112021 = -4						; size = 4
___$ReturnUdt$ = 8					; size = 4
__Where$ = 12						; size = 4
__Keyval$ = 12						; size = 4
?find@?$_Tree@V?$_Tmap_traits@KPAVCTPlayer@@U?$less@K@std@@V?$allocator@U?$pair@$$CBKPAVCTPlayer@@@std@@@3@$0A@@std@@@std@@QAE?AViterator@12@ABK@Z PROC NEAR ; std::_Tree<std::_Tmap_traits<unsigned long,CTPlayer *,std::less<unsigned long>,std::allocator<std::pair<unsigned long const ,CTPlayer *> >,0> >::find, COMDAT
; _this$ = ecx

; 787  : 		{	// find an element in mutable sequence that matches _Keyval

  00000	51		 push	 ecx

; 788  : 		iterator _Where = lower_bound(_Keyval);

  00001	8b 51 04	 mov	 edx, DWORD PTR [ecx+4]
  00004	8b 42 04	 mov	 eax, DWORD PTR [edx+4]
  00007	53		 push	 ebx
  00008	8a 58 15	 mov	 bl, BYTE PTR [eax+21]
  0000b	84 db		 test	 bl, bl
  0000d	56		 push	 esi
  0000e	57		 push	 edi
  0000f	8b 7c 24 18	 mov	 edi, DWORD PTR __Keyval$[esp+12]
  00013	75 17		 jne	 SHORT $L112099
  00015	8b 37		 mov	 esi, DWORD PTR [edi]
$L112098:
  00017	39 70 0c	 cmp	 DWORD PTR [eax+12], esi
  0001a	73 05		 jae	 SHORT $L112100
  0001c	8b 40 08	 mov	 eax, DWORD PTR [eax+8]
  0001f	eb 04		 jmp	 SHORT $L112102
$L112100:
  00021	8b d0		 mov	 edx, eax
  00023	8b 00		 mov	 eax, DWORD PTR [eax]
$L112102:
  00025	8a 58 15	 mov	 bl, BYTE PTR [eax+21]
  00028	84 db		 test	 bl, bl
  0002a	74 eb		 je	 SHORT $L112098
$L112099:

; 789  : 		return (_Where == end() || this->comp(_Keyval, _Key(_Where._Mynode()))
; 790  : 			? end() : _Where);

  0002c	8b 41 04	 mov	 eax, DWORD PTR [ecx+4]
  0002f	3b d0		 cmp	 edx, eax
  00031	89 54 24 18	 mov	 DWORD PTR __Where$[esp+12], edx
  00035	74 1a		 je	 SHORT $L112020
  00037	8b 0f		 mov	 ecx, DWORD PTR [edi]
  00039	3b 4a 0c	 cmp	 ecx, DWORD PTR [edx+12]
  0003c	72 13		 jb	 SHORT $L112020
  0003e	8d 44 24 18	 lea	 eax, DWORD PTR __Where$[esp+12]
  00042	8b 10		 mov	 edx, DWORD PTR [eax]
  00044	8b 44 24 14	 mov	 eax, DWORD PTR ___$ReturnUdt$[esp+12]
  00048	5f		 pop	 edi
  00049	5e		 pop	 esi
  0004a	89 10		 mov	 DWORD PTR [eax], edx
  0004c	5b		 pop	 ebx

; 791  : 		}

  0004d	59		 pop	 ecx
  0004e	c2 08 00	 ret	 8
$L112020:

; 789  : 		return (_Where == end() || this->comp(_Keyval, _Key(_Where._Mynode()))
; 790  : 			? end() : _Where);

  00051	89 44 24 0c	 mov	 DWORD PTR $T112021[esp+16], eax
  00055	8d 44 24 0c	 lea	 eax, DWORD PTR $T112021[esp+16]
  00059	8b 10		 mov	 edx, DWORD PTR [eax]
  0005b	8b 44 24 14	 mov	 eax, DWORD PTR ___$ReturnUdt$[esp+12]
  0005f	5f		 pop	 edi
  00060	5e		 pop	 esi
  00061	89 10		 mov	 DWORD PTR [eax], edx
  00063	5b		 pop	 ebx

; 791  : 		}

  00064	59		 pop	 ecx
  00065	c2 08 00	 ret	 8
?find@?$_Tree@V?$_Tmap_traits@KPAVCTPlayer@@U?$less@K@std@@V?$allocator@U?$pair@$$CBKPAVCTPlayer@@@std@@@3@$0A@@std@@@std@@QAE?AViterator@12@ABK@Z ENDP ; std::_Tree<std::_Tmap_traits<unsigned long,CTPlayer *,std::less<unsigned long>,std::allocator<std::pair<unsigned long const ,CTPlayer *> >,0> >::find
_TEXT	ENDS
PUBLIC	??A?$vector@KV?$allocator@K@std@@@std@@QAEAAKI@Z ; std::vector<unsigned long,std::allocator<unsigned long> >::operator[]
; Function compile flags: /Ogty
; File c:\program files (x86)\microsoft visual studio .net 2003\vc7\include\vector
;	COMDAT ??A?$vector@KV?$allocator@K@std@@@std@@QAEAAKI@Z
_TEXT	SEGMENT
__Pos$ = 8						; size = 4
??A?$vector@KV?$allocator@K@std@@@std@@QAEAAKI@Z PROC NEAR ; std::vector<unsigned long,std::allocator<unsigned long> >::operator[], COMDAT
; _this$ = ecx

; 555  : 		return (*(begin() + _Pos));

  00000	8b 41 04	 mov	 eax, DWORD PTR [ecx+4]
  00003	8b 4c 24 04	 mov	 ecx, DWORD PTR __Pos$[esp-4]
  00007	8d 04 88	 lea	 eax, DWORD PTR [eax+ecx*4]

; 556  : 		}

  0000a	c2 04 00	 ret	 4
??A?$vector@KV?$allocator@K@std@@@std@@QAEAAKI@Z ENDP	; std::vector<unsigned long,std::allocator<unsigned long> >::operator[]
_TEXT	ENDS
PUBLIC	??4?$CSimpleStringT@D$0A@@ATL@@QAEAAV01@ABV01@@Z ; ATL::CSimpleStringT<char,0>::operator=
; Function compile flags: /Ogty
; File c:\program files (x86)\microsoft visual studio .net 2003\vc7\atlmfc\include\atlsimpstr.h
;	COMDAT ??4?$CSimpleStringT@D$0A@@ATL@@QAEAAV01@ABV01@@Z
_TEXT	SEGMENT
_strSrc$ = 8						; size = 4
??4?$CSimpleStringT@D$0A@@ATL@@QAEAAV01@ABV01@@Z PROC NEAR ; ATL::CSimpleStringT<char,0>::operator=, COMDAT
; _this$ = ecx

; 274  : 		CStringData* pSrcData = strSrc.GetData();

  00000	8b 44 24 04	 mov	 eax, DWORD PTR _strSrc$[esp-4]
  00004	56		 push	 esi
  00005	57		 push	 edi
  00006	8b f9		 mov	 edi, ecx
  00008	8b 08		 mov	 ecx, DWORD PTR [eax]

; 275  : 		CStringData* pOldData = GetData();

  0000a	8b 37		 mov	 esi, DWORD PTR [edi]
  0000c	8d 41 f0	 lea	 eax, DWORD PTR [ecx-16]
  0000f	83 ee 10	 sub	 esi, 16			; 00000010H

; 276  : 		if( pSrcData != pOldData)

  00012	3b c6		 cmp	 eax, esi
  00014	74 4d		 je	 SHORT $L112254

; 277  : 		{
; 278  : 			if( pOldData->IsLocked() || pSrcData->pStringMgr != pOldData->pStringMgr )

  00016	8b 56 0c	 mov	 edx, DWORD PTR [esi+12]
  00019	85 d2		 test	 edx, edx
  0001b	53		 push	 ebx
  0001c	8d 5e 0c	 lea	 ebx, DWORD PTR [esi+12]
  0001f	55		 push	 ebp
  00020	7c 33		 jl	 SHORT $L108726
  00022	8b 10		 mov	 edx, DWORD PTR [eax]
  00024	3b 16		 cmp	 edx, DWORD PTR [esi]
  00026	75 2d		 jne	 SHORT $L108726

; 281  : 			}
; 282  : 			else
; 283  : 			{
; 284  : 				CStringData* pNewData = CloneData( pSrcData );

  00028	50		 push	 eax
  00029	e8 00 00 00 00	 call	 ?CloneData@?$CSimpleStringT@D$0A@@ATL@@CAPAUCStringData@2@PAU32@@Z ; ATL::CSimpleStringT<char,0>::CloneData
  0002e	8b e8		 mov	 ebp, eax
  00030	83 c4 04	 add	 esp, 4

; 285  : 				pOldData->Release();

  00033	83 c8 ff	 or	 eax, -1
  00036	f0 0f c1 03	 lock	  xadd	 DWORD PTR [ebx], eax
  0003a	48		 dec	 eax
  0003b	85 c0		 test	 eax, eax
  0003d	7f 08		 jg	 SHORT $L112245
  0003f	8b 0e		 mov	 ecx, DWORD PTR [esi]
  00041	8b 11		 mov	 edx, DWORD PTR [ecx]
  00043	56		 push	 esi
  00044	ff 52 04	 call	 DWORD PTR [edx+4]
$L112245:

; 286  : 				Attach( pNewData );

  00047	83 c5 10	 add	 ebp, 16			; 00000010H
  0004a	89 2f		 mov	 DWORD PTR [edi], ebp
  0004c	5d		 pop	 ebp
  0004d	5b		 pop	 ebx

; 287  : 			}
; 288  : 		}
; 289  : 
; 290  : 		return( *this );

  0004e	8b c7		 mov	 eax, edi
  00050	5f		 pop	 edi
  00051	5e		 pop	 esi

; 291  : 	}

  00052	c2 04 00	 ret	 4
$L108726:

; 279  : 			{
; 280  : 				SetString( strSrc.GetString(), strSrc.GetLength() );

  00055	8b 41 f4	 mov	 eax, DWORD PTR [ecx-12]
  00058	50		 push	 eax
  00059	51		 push	 ecx
  0005a	8b cf		 mov	 ecx, edi
  0005c	e8 00 00 00 00	 call	 ?SetString@?$CSimpleStringT@D$0A@@ATL@@QAEXPBDH@Z ; ATL::CSimpleStringT<char,0>::SetString
  00061	5d		 pop	 ebp
  00062	5b		 pop	 ebx
$L112254:

; 287  : 			}
; 288  : 		}
; 289  : 
; 290  : 		return( *this );

  00063	8b c7		 mov	 eax, edi
  00065	5f		 pop	 edi
  00066	5e		 pop	 esi

; 291  : 	}

  00067	c2 04 00	 ret	 4
??4?$CSimpleStringT@D$0A@@ATL@@QAEAAV01@ABV01@@Z ENDP	; ATL::CSimpleStringT<char,0>::operator=
_TEXT	ENDS
PUBLIC	?lower_bound@?$_Tree@V?$_Tmap_traits@V?$CStringT@DV?$StrTraitATL@DV?$ChTraitsCRT@D@ATL@@@ATL@@@ATL@@EU?$less@V?$CStringT@DV?$StrTraitATL@DV?$ChTraitsCRT@D@ATL@@@ATL@@@ATL@@@std@@V?$allocator@U?$pair@$$CBV?$CStringT@DV?$StrTraitATL@DV?$ChTraitsCRT@D@ATL@@@ATL@@@ATL@@E@std@@@4@$0A@@std@@@std@@QAE?AViterator@12@ABV?$CStringT@DV?$StrTraitATL@DV?$ChTraitsCRT@D@ATL@@@ATL@@@ATL@@@Z ; std::_Tree<std::_Tmap_traits<ATL::CStringT<char,ATL::StrTraitATL<char,ATL::ChTraitsCRT<char> > >,unsigned char,std::less<ATL::CStringT<char,ATL::StrTraitATL<char,ATL::ChTraitsCRT<char> > > >,std::allocator<std::pair<ATL::CStringT<char,ATL::StrTraitATL<char,ATL::ChTraitsCRT<char> > > const ,unsigned char> >,0> >::lower_bound
; Function compile flags: /Ogty
; File c:\program files (x86)\microsoft visual studio .net 2003\vc7\include\xtree
;	COMDAT ?lower_bound@?$_Tree@V?$_Tmap_traits@V?$CStringT@DV?$StrTraitATL@DV?$ChTraitsCRT@D@ATL@@@ATL@@@ATL@@EU?$less@V?$CStringT@DV?$StrTraitATL@DV?$ChTraitsCRT@D@ATL@@@ATL@@@ATL@@@std@@V?$allocator@U?$pair@$$CBV?$CStringT@DV?$StrTraitATL@DV?$ChTraitsCRT@D@ATL@@@ATL@@@ATL@@E@std@@@4@$0A@@std@@@std@@QAE?AViterator@12@ABV?$CStringT@DV?$StrTraitATL@DV?$ChTraitsCRT@D@ATL@@@ATL@@@ATL@@@Z
_TEXT	SEGMENT
___$ReturnUdt$ = 8					; size = 4
__Keyval$ = 12						; size = 4
?lower_bound@?$_Tree@V?$_Tmap_traits@V?$CStringT@DV?$StrTraitATL@DV?$ChTraitsCRT@D@ATL@@@ATL@@@ATL@@EU?$less@V?$CStringT@DV?$StrTraitATL@DV?$ChTraitsCRT@D@ATL@@@ATL@@@ATL@@@std@@V?$allocator@U?$pair@$$CBV?$CStringT@DV?$StrTraitATL@DV?$ChTraitsCRT@D@ATL@@@ATL@@@ATL@@E@std@@@4@$0A@@std@@@std@@QAE?AViterator@12@ABV?$CStringT@DV?$StrTraitATL@DV?$ChTraitsCRT@D@ATL@@@ATL@@@ATL@@@Z PROC NEAR ; std::_Tree<std::_Tmap_traits<ATL::CStringT<char,ATL::StrTraitATL<char,ATL::ChTraitsCRT<char> > >,unsigned char,std::less<ATL::CStringT<char,ATL::StrTraitATL<char,ATL::ChTraitsCRT<char> > > >,std::allocator<std::pair<ATL::CStringT<char,ATL::StrTraitATL<char,ATL::ChTraitsCRT<char> > > const ,unsigned char> >,0> >::lower_bound, COMDAT
; _this$ = ecx

; 810  : 		return (_TREE_ITERATOR(_Lbound(_Keyval)));

  00000	8b 44 24 08	 mov	 eax, DWORD PTR __Keyval$[esp-4]
  00004	50		 push	 eax
  00005	e8 00 00 00 00	 call	 ?_Lbound@?$_Tree@V?$_Tmap_traits@V?$CStringT@DV?$StrTraitATL@DV?$ChTraitsCRT@D@ATL@@@ATL@@@ATL@@EU?$less@V?$CStringT@DV?$StrTraitATL@DV?$ChTraitsCRT@D@ATL@@@ATL@@@ATL@@@std@@V?$allocator@U?$pair@$$CBV?$CStringT@DV?$StrTraitATL@DV?$ChTraitsCRT@D@ATL@@@ATL@@@ATL@@E@std@@@4@$0A@@std@@@std@@IBEPAU_Node@?$_Tree_nod@V?$_Tmap_traits@V?$CStringT@DV?$StrTraitATL@DV?$ChTraitsCRT@D@ATL@@@ATL@@@ATL@@EU?$less@V?$CStringT@DV?$StrTraitATL@DV?$ChTraitsCRT@D@ATL@@@ATL@@@ATL@@@std@@V?$allocator@U?$pair@$$CBV?$CStringT@DV?$StrTraitATL@DV?$ChTraitsCRT@D@ATL@@@ATL@@@ATL@@E@std@@@4@$0A@@std@@@2@ABV?$CStringT@DV?$StrTraitATL@DV?$ChTraitsCRT@D@ATL@@@ATL@@@ATL@@@Z ; std::_Tree<std::_Tmap_traits<ATL::CStringT<char,ATL::StrTraitATL<char,ATL::ChTraitsCRT<char> > >,unsigned char,std::less<ATL::CStringT<char,ATL::StrTraitATL<char,ATL::ChTraitsCRT<char> > > >,std::allocator<std::pair<ATL::CStringT<char,ATL::StrTraitATL<char,ATL::ChTraitsCRT<char> > > const ,unsigned char> >,0> >::_Lbound
  0000a	8b 4c 24 04	 mov	 ecx, DWORD PTR ___$ReturnUdt$[esp-4]
  0000e	89 01		 mov	 DWORD PTR [ecx], eax
  00010	8b c1		 mov	 eax, ecx

; 811  : 		}

  00012	c2 08 00	 ret	 8
?lower_bound@?$_Tree@V?$_Tmap_traits@V?$CStringT@DV?$StrTraitATL@DV?$ChTraitsCRT@D@ATL@@@ATL@@@ATL@@EU?$less@V?$CStringT@DV?$StrTraitATL@DV?$ChTraitsCRT@D@ATL@@@ATL@@@ATL@@@std@@V?$allocator@U?$pair@$$CBV?$CStringT@DV?$StrTraitATL@DV?$ChTraitsCRT@D@ATL@@@ATL@@@ATL@@E@std@@@4@$0A@@std@@@std@@QAE?AViterator@12@ABV?$CStringT@DV?$StrTraitATL@DV?$ChTraitsCRT@D@ATL@@@ATL@@@ATL@@@Z ENDP ; std::_Tree<std::_Tmap_traits<ATL::CStringT<char,ATL::StrTraitATL<char,ATL::ChTraitsCRT<char> > >,unsigned char,std::less<ATL::CStringT<char,ATL::StrTraitATL<char,ATL::ChTraitsCRT<char> > > >,std::allocator<std::pair<ATL::CStringT<char,ATL::StrTraitATL<char,ATL::ChTraitsCRT<char> > > const ,unsigned char> >,0> >::lower_bound
_TEXT	ENDS
PUBLIC	?lower_bound@?$_Tree@V?$_Tmap_traits@GV?$map@KPAVCTPlayer@@U?$less@K@std@@V?$allocator@U?$pair@$$CBKPAVCTPlayer@@@std@@@3@@std@@U?$less@G@2@V?$allocator@U?$pair@$$CBGV?$map@KPAVCTPlayer@@U?$less@K@std@@V?$allocator@U?$pair@$$CBKPAVCTPlayer@@@std@@@3@@std@@@std@@@2@$0A@@std@@@std@@QAE?AViterator@12@ABG@Z ; std::_Tree<std::_Tmap_traits<unsigned short,std::map<unsigned long,CTPlayer *,std::less<unsigned long>,std::allocator<std::pair<unsigned long const ,CTPlayer *> > >,std::less<unsigned short>,std::allocator<std::pair<unsigned short const ,std::map<unsigned long,CTPlayer *,std::less<unsigned long>,std::allocator<std::pair<unsigned long const ,CTPlayer *> > > > >,0> >::lower_bound
; Function compile flags: /Ogty
;	COMDAT ?lower_bound@?$_Tree@V?$_Tmap_traits@GV?$map@KPAVCTPlayer@@U?$less@K@std@@V?$allocator@U?$pair@$$CBKPAVCTPlayer@@@std@@@3@@std@@U?$less@G@2@V?$allocator@U?$pair@$$CBGV?$map@KPAVCTPlayer@@U?$less@K@std@@V?$allocator@U?$pair@$$CBKPAVCTPlayer@@@std@@@3@@std@@@std@@@2@$0A@@std@@@std@@QAE?AViterator@12@ABG@Z
_TEXT	SEGMENT
___$ReturnUdt$ = 8					; size = 4
__Keyval$ = 12						; size = 4
?lower_bound@?$_Tree@V?$_Tmap_traits@GV?$map@KPAVCTPlayer@@U?$less@K@std@@V?$allocator@U?$pair@$$CBKPAVCTPlayer@@@std@@@3@@std@@U?$less@G@2@V?$allocator@U?$pair@$$CBGV?$map@KPAVCTPlayer@@U?$less@K@std@@V?$allocator@U?$pair@$$CBKPAVCTPlayer@@@std@@@3@@std@@@std@@@2@$0A@@std@@@std@@QAE?AViterator@12@ABG@Z PROC NEAR ; std::_Tree<std::_Tmap_traits<unsigned short,std::map<unsigned long,CTPlayer *,std::less<unsigned long>,std::allocator<std::pair<unsigned long const ,CTPlayer *> > >,std::less<unsigned short>,std::allocator<std::pair<unsigned short const ,std::map<unsigned long,CTPlayer *,std::less<unsigned long>,std::allocator<std::pair<unsigned long const ,CTPlayer *> > > > >,0> >::lower_bound, COMDAT
; _this$ = ecx

; 810  : 		return (_TREE_ITERATOR(_Lbound(_Keyval)));

  00000	8b 49 04	 mov	 ecx, DWORD PTR [ecx+4]
  00003	8b 41 04	 mov	 eax, DWORD PTR [ecx+4]
  00006	8a 50 1d	 mov	 dl, BYTE PTR [eax+29]
  00009	84 d2		 test	 dl, dl
  0000b	75 1f		 jne	 SHORT $L112342
  0000d	8b 54 24 08	 mov	 edx, DWORD PTR __Keyval$[esp-4]
  00011	66 8b 12	 mov	 dx, WORD PTR [edx]
  00014	53		 push	 ebx
$L112310:
  00015	66 39 50 0c	 cmp	 WORD PTR [eax+12], dx
  00019	73 05		 jae	 SHORT $L112312
  0001b	8b 40 08	 mov	 eax, DWORD PTR [eax+8]
  0001e	eb 04		 jmp	 SHORT $L112313
$L112312:
  00020	8b c8		 mov	 ecx, eax
  00022	8b 00		 mov	 eax, DWORD PTR [eax]
$L112313:
  00024	8a 58 1d	 mov	 bl, BYTE PTR [eax+29]
  00027	84 db		 test	 bl, bl
  00029	74 ea		 je	 SHORT $L112310
  0002b	5b		 pop	 ebx
$L112342:
  0002c	8b 44 24 04	 mov	 eax, DWORD PTR ___$ReturnUdt$[esp-4]
  00030	89 08		 mov	 DWORD PTR [eax], ecx

; 811  : 		}

  00032	c2 08 00	 ret	 8
?lower_bound@?$_Tree@V?$_Tmap_traits@GV?$map@KPAVCTPlayer@@U?$less@K@std@@V?$allocator@U?$pair@$$CBKPAVCTPlayer@@@std@@@3@@std@@U?$less@G@2@V?$allocator@U?$pair@$$CBGV?$map@KPAVCTPlayer@@U?$less@K@std@@V?$allocator@U?$pair@$$CBKPAVCTPlayer@@@std@@@3@@std@@@std@@@2@$0A@@std@@@std@@QAE?AViterator@12@ABG@Z ENDP ; std::_Tree<std::_Tmap_traits<unsigned short,std::map<unsigned long,CTPlayer *,std::less<unsigned long>,std::allocator<std::pair<unsigned long const ,CTPlayer *> > >,std::less<unsigned short>,std::allocator<std::pair<unsigned short const ,std::map<unsigned long,CTPlayer *,std::less<unsigned long>,std::allocator<std::pair<unsigned long const ,CTPlayer *> > > > >,0> >::lower_bound
_TEXT	ENDS
PUBLIC	??Eiterator@?$_Tree@V?$_Tmap_traits@KPAVCTPlayer@@U?$less@K@std@@V?$allocator@U?$pair@$$CBKPAVCTPlayer@@@std@@@3@$0A@@std@@@std@@QAEAAV012@XZ ; std::_Tree<std::_Tmap_traits<unsigned long,CTPlayer *,std::less<unsigned long>,std::allocator<std::pair<unsigned long const ,CTPlayer *> >,0> >::iterator::operator++
; Function compile flags: /Ogty
;	COMDAT ??Eiterator@?$_Tree@V?$_Tmap_traits@KPAVCTPlayer@@U?$less@K@std@@V?$allocator@U?$pair@$$CBKPAVCTPlayer@@@std@@@3@$0A@@std@@@std@@QAEAAV012@XZ
_TEXT	SEGMENT
??Eiterator@?$_Tree@V?$_Tmap_traits@KPAVCTPlayer@@U?$less@K@std@@V?$allocator@U?$pair@$$CBKPAVCTPlayer@@@std@@@3@$0A@@std@@@std@@QAEAAV012@XZ PROC NEAR ; std::_Tree<std::_Tmap_traits<unsigned long,CTPlayer *,std::less<unsigned long>,std::allocator<std::pair<unsigned long const ,CTPlayer *> >,0> >::iterator::operator++, COMDAT
; _this$ = ecx

; 326  : 			{	// preincrement

  00000	56		 push	 esi
  00001	8b f1		 mov	 esi, ecx

; 327  : 			++(*(const_iterator *)this);

  00003	e8 00 00 00 00	 call	 ?_Inc@const_iterator@?$_Tree@V?$_Tmap_traits@KPAVCTPlayer@@U?$less@K@std@@V?$allocator@U?$pair@$$CBKPAVCTPlayer@@@std@@@3@$0A@@std@@@std@@QAEXXZ ; std::_Tree<std::_Tmap_traits<unsigned long,CTPlayer *,std::less<unsigned long>,std::allocator<std::pair<unsigned long const ,CTPlayer *> >,0> >::const_iterator::_Inc

; 328  : 			return (*this);

  00008	8b c6		 mov	 eax, esi
  0000a	5e		 pop	 esi

; 329  : 			}

  0000b	c3		 ret	 0
??Eiterator@?$_Tree@V?$_Tmap_traits@KPAVCTPlayer@@U?$less@K@std@@V?$allocator@U?$pair@$$CBKPAVCTPlayer@@@std@@@3@$0A@@std@@@std@@QAEAAV012@XZ ENDP ; std::_Tree<std::_Tmap_traits<unsigned long,CTPlayer *,std::less<unsigned long>,std::allocator<std::pair<unsigned long const ,CTPlayer *> >,0> >::iterator::operator++
_TEXT	ENDS
PUBLIC	??Fiterator@?$_Tree@V?$_Tmap_traits@KPAVCTPlayer@@U?$less@K@std@@V?$allocator@U?$pair@$$CBKPAVCTPlayer@@@std@@@3@$0A@@std@@@std@@QAEAAV012@XZ ; std::_Tree<std::_Tmap_traits<unsigned long,CTPlayer *,std::less<unsigned long>,std::allocator<std::pair<unsigned long const ,CTPlayer *> >,0> >::iterator::operator--
; Function compile flags: /Ogty
;	COMDAT ??Fiterator@?$_Tree@V?$_Tmap_traits@KPAVCTPlayer@@U?$less@K@std@@V?$allocator@U?$pair@$$CBKPAVCTPlayer@@@std@@@3@$0A@@std@@@std@@QAEAAV012@XZ
_TEXT	SEGMENT
??Fiterator@?$_Tree@V?$_Tmap_traits@KPAVCTPlayer@@U?$less@K@std@@V?$allocator@U?$pair@$$CBKPAVCTPlayer@@@std@@@3@$0A@@std@@@std@@QAEAAV012@XZ PROC NEAR ; std::_Tree<std::_Tmap_traits<unsigned long,CTPlayer *,std::less<unsigned long>,std::allocator<std::pair<unsigned long const ,CTPlayer *> >,0> >::iterator::operator--, COMDAT
; _this$ = ecx

; 339  : 			{	// predecrement

  00000	56		 push	 esi
  00001	8b f1		 mov	 esi, ecx

; 340  : 			--(*(const_iterator *)this);

  00003	e8 00 00 00 00	 call	 ?_Dec@const_iterator@?$_Tree@V?$_Tmap_traits@KPAVCTPlayer@@U?$less@K@std@@V?$allocator@U?$pair@$$CBKPAVCTPlayer@@@std@@@3@$0A@@std@@@std@@QAEXXZ ; std::_Tree<std::_Tmap_traits<unsigned long,CTPlayer *,std::less<unsigned long>,std::allocator<std::pair<unsigned long const ,CTPlayer *> >,0> >::const_iterator::_Dec

; 341  : 			return (*this);

  00008	8b c6		 mov	 eax, esi
  0000a	5e		 pop	 esi

; 342  : 			}

  0000b	c3		 ret	 0
??Fiterator@?$_Tree@V?$_Tmap_traits@KPAVCTPlayer@@U?$less@K@std@@V?$allocator@U?$pair@$$CBKPAVCTPlayer@@@std@@@3@$0A@@std@@@std@@QAEAAV012@XZ ENDP ; std::_Tree<std::_Tmap_traits<unsigned long,CTPlayer *,std::less<unsigned long>,std::allocator<std::pair<unsigned long const ,CTPlayer *> >,0> >::iterator::operator--
_TEXT	ENDS
PUBLIC	??Eiterator@?$_Tree@V?$_Tmap_traits@GPAVCTParty@@U?$less@G@std@@V?$allocator@U?$pair@$$CBGPAVCTParty@@@std@@@3@$0A@@std@@@std@@QAEAAV012@XZ ; std::_Tree<std::_Tmap_traits<unsigned short,CTParty *,std::less<unsigned short>,std::allocator<std::pair<unsigned short const ,CTParty *> >,0> >::iterator::operator++
; Function compile flags: /Ogty
;	COMDAT ??Eiterator@?$_Tree@V?$_Tmap_traits@GPAVCTParty@@U?$less@G@std@@V?$allocator@U?$pair@$$CBGPAVCTParty@@@std@@@3@$0A@@std@@@std@@QAEAAV012@XZ
_TEXT	SEGMENT
??Eiterator@?$_Tree@V?$_Tmap_traits@GPAVCTParty@@U?$less@G@std@@V?$allocator@U?$pair@$$CBGPAVCTParty@@@std@@@3@$0A@@std@@@std@@QAEAAV012@XZ PROC NEAR ; std::_Tree<std::_Tmap_traits<unsigned short,CTParty *,std::less<unsigned short>,std::allocator<std::pair<unsigned short const ,CTParty *> >,0> >::iterator::operator++, COMDAT
; _this$ = ecx

; 326  : 			{	// preincrement

  00000	56		 push	 esi
  00001	8b f1		 mov	 esi, ecx

; 327  : 			++(*(const_iterator *)this);

  00003	e8 00 00 00 00	 call	 ?_Inc@const_iterator@?$_Tree@V?$_Tmap_traits@GPAVCTParty@@U?$less@G@std@@V?$allocator@U?$pair@$$CBGPAVCTParty@@@std@@@3@$0A@@std@@@std@@QAEXXZ ; std::_Tree<std::_Tmap_traits<unsigned short,CTParty *,std::less<unsigned short>,std::allocator<std::pair<unsigned short const ,CTParty *> >,0> >::const_iterator::_Inc

; 328  : 			return (*this);

  00008	8b c6		 mov	 eax, esi
  0000a	5e		 pop	 esi

; 329  : 			}

  0000b	c3		 ret	 0
??Eiterator@?$_Tree@V?$_Tmap_traits@GPAVCTParty@@U?$less@G@std@@V?$allocator@U?$pair@$$CBGPAVCTParty@@@std@@@3@$0A@@std@@@std@@QAEAAV012@XZ ENDP ; std::_Tree<std::_Tmap_traits<unsigned short,CTParty *,std::less<unsigned short>,std::allocator<std::pair<unsigned short const ,CTParty *> >,0> >::iterator::operator++
_TEXT	ENDS
PUBLIC	??0?$CStringT@DV?$StrTraitATL@DV?$ChTraitsCRT@D@ATL@@@ATL@@@ATL@@QAE@ABV01@@Z ; ATL::CStringT<char,ATL::StrTraitATL<char,ATL::ChTraitsCRT<char> > >::CStringT<char,ATL::StrTraitATL<char,ATL::ChTraitsCRT<char> > >
; Function compile flags: /Ogty
; File c:\program files (x86)\microsoft visual studio .net 2003\vc7\atlmfc\include\cstringt.h
;	COMDAT ??0?$CStringT@DV?$StrTraitATL@DV?$ChTraitsCRT@D@ATL@@@ATL@@@ATL@@QAE@ABV01@@Z
_TEXT	SEGMENT
_strSrc$ = 8						; size = 4
??0?$CStringT@DV?$StrTraitATL@DV?$ChTraitsCRT@D@ATL@@@ATL@@@ATL@@QAE@ABV01@@Z PROC NEAR ; ATL::CStringT<char,ATL::StrTraitATL<char,ATL::ChTraitsCRT<char> > >::CStringT<char,ATL::StrTraitATL<char,ATL::ChTraitsCRT<char> > >, COMDAT
; _this$ = ecx

; 814  : 	{

  00000	8b 44 24 04	 mov	 eax, DWORD PTR _strSrc$[esp-4]
  00004	8b 00		 mov	 eax, DWORD PTR [eax]
  00006	56		 push	 esi
  00007	83 e8 10	 sub	 eax, 16			; 00000010H
  0000a	50		 push	 eax
  0000b	8b f1		 mov	 esi, ecx
  0000d	e8 00 00 00 00	 call	 ?CloneData@?$CSimpleStringT@D$0A@@ATL@@CAPAUCStringData@2@PAU32@@Z ; ATL::CSimpleStringT<char,0>::CloneData
  00012	83 c0 10	 add	 eax, 16			; 00000010H
  00015	89 06		 mov	 DWORD PTR [esi], eax
  00017	83 c4 04	 add	 esp, 4

; 815  : 	}

  0001a	8b c6		 mov	 eax, esi
  0001c	5e		 pop	 esi
  0001d	c2 04 00	 ret	 4
??0?$CStringT@DV?$StrTraitATL@DV?$ChTraitsCRT@D@ATL@@@ATL@@@ATL@@QAE@ABV01@@Z ENDP ; ATL::CStringT<char,ATL::StrTraitATL<char,ATL::ChTraitsCRT<char> > >::CStringT<char,ATL::StrTraitATL<char,ATL::ChTraitsCRT<char> > >
_TEXT	ENDS
PUBLIC	??1?$basic_string@DU?$char_traits@D@std@@V?$allocator@D@2@@std@@QAE@XZ ; std::basic_string<char,std::char_traits<char>,std::allocator<char> >::~basic_string<char,std::char_traits<char>,std::allocator<char> >
; Function compile flags: /Ogty
; File c:\program files (x86)\microsoft visual studio .net 2003\vc7\include\xstring
;	COMDAT ??1?$basic_string@DU?$char_traits@D@std@@V?$allocator@D@2@@std@@QAE@XZ
_TEXT	SEGMENT
??1?$basic_string@DU?$char_traits@D@std@@V?$allocator@D@2@@std@@QAE@XZ PROC NEAR ; std::basic_string<char,std::char_traits<char>,std::allocator<char> >::~basic_string<char,std::char_traits<char>,std::allocator<char> >, COMDAT
; _this$ = ecx

; 456  : 		{	// destroy the string

  00000	56		 push	 esi
  00001	8b f1		 mov	 esi, ecx

; 457  : 		_Tidy(true);

  00003	83 7e 18 10	 cmp	 DWORD PTR [esi+24], 16	; 00000010H
  00007	72 0c		 jb	 SHORT $L112429
  00009	8b 46 04	 mov	 eax, DWORD PTR [esi+4]
  0000c	50		 push	 eax
  0000d	e8 00 00 00 00	 call	 ??3@YAXPAX@Z		; operator delete
  00012	83 c4 04	 add	 esp, 4
$L112429:
  00015	33 c0		 xor	 eax, eax
  00017	c7 46 18 0f 00
	00 00		 mov	 DWORD PTR [esi+24], 15	; 0000000fH
  0001e	89 46 14	 mov	 DWORD PTR [esi+20], eax
  00021	88 46 04	 mov	 BYTE PTR [esi+4], al
  00024	5e		 pop	 esi

; 458  : 		}

  00025	c3		 ret	 0
??1?$basic_string@DU?$char_traits@D@std@@V?$allocator@D@2@@std@@QAE@XZ ENDP ; std::basic_string<char,std::char_traits<char>,std::allocator<char> >::~basic_string<char,std::char_traits<char>,std::allocator<char> >
_TEXT	ENDS
PUBLIC	?LoadStringA@?$CStringT@DV?$StrTraitATL@DV?$ChTraitsCRT@D@ATL@@@ATL@@@ATL@@QAEHPAUHINSTANCE__@@I@Z ; ATL::CStringT<char,ATL::StrTraitATL<char,ATL::ChTraitsCRT<char> > >::LoadStringA
; Function compile flags: /Ogty
; File c:\program files (x86)\microsoft visual studio .net 2003\vc7\atlmfc\include\cstringt.h
;	COMDAT ?LoadStringA@?$CStringT@DV?$StrTraitATL@DV?$ChTraitsCRT@D@ATL@@@ATL@@@ATL@@QAEHPAUHINSTANCE__@@I@Z
_TEXT	SEGMENT
_hInstance$ = 8						; size = 4
_nID$ = 12						; size = 4
?LoadStringA@?$CStringT@DV?$StrTraitATL@DV?$ChTraitsCRT@D@ATL@@@ATL@@@ATL@@QAEHPAUHINSTANCE__@@I@Z PROC NEAR ; ATL::CStringT<char,ATL::StrTraitATL<char,ATL::ChTraitsCRT<char> > >::LoadStringA, COMDAT
; _this$ = ecx

; 1981 : 	{

  00000	53		 push	 ebx
  00001	56		 push	 esi

; 1982 : 		const ATLSTRINGRESOURCEIMAGE* pImage = AtlGetStringResourceImage( hInstance, nID );

  00002	8b 74 24 10	 mov	 esi, DWORD PTR _nID$[esp+4]
  00006	8b c6		 mov	 eax, esi
  00008	c1 e8 04	 shr	 eax, 4
  0000b	57		 push	 edi
  0000c	8b 7c 24 10	 mov	 edi, DWORD PTR _hInstance$[esp+8]
  00010	40		 inc	 eax
  00011	8b d9		 mov	 ebx, ecx
  00013	0f b7 c8	 movzx	 ecx, ax
  00016	6a 06		 push	 6
  00018	51		 push	 ecx
  00019	57		 push	 edi
  0001a	ff 15 00 00 00
	00		 call	 DWORD PTR __imp__FindResourceA@12
  00020	85 c0		 test	 eax, eax
  00022	74 11		 je	 SHORT $L112518
  00024	56		 push	 esi
  00025	50		 push	 eax
  00026	57		 push	 edi
  00027	e8 00 00 00 00	 call	 ?_AtlGetStringResourceImage@ATL@@YAPBUATLSTRINGRESOURCEIMAGE@1@PAUHINSTANCE__@@PAUHRSRC__@@I@Z ; ATL::_AtlGetStringResourceImage
  0002c	8b f8		 mov	 edi, eax
  0002e	83 c4 0c	 add	 esp, 12			; 0000000cH

; 1983 : 		if( pImage == NULL )

  00031	85 ff		 test	 edi, edi
  00033	75 08		 jne	 SHORT $L103404
$L112518:
  00035	5f		 pop	 edi
  00036	5e		 pop	 esi

; 1984 : 		{
; 1985 : 			return( FALSE );

  00037	33 c0		 xor	 eax, eax
  00039	5b		 pop	 ebx

; 1994 : 	}

  0003a	c2 08 00	 ret	 8
$L103404:

; 1986 : 		}
; 1987 : 
; 1988 : 		int nLength = StringTraits::GetBaseTypeLength( pImage->achString, pImage->nLength );

  0003d	0f b7 07	 movzx	 eax, WORD PTR [edi]
  00040	55		 push	 ebp
  00041	6a 00		 push	 0
  00043	6a 00		 push	 0
  00045	6a 00		 push	 0
  00047	6a 00		 push	 0
  00049	50		 push	 eax
  0004a	8d 6f 02	 lea	 ebp, DWORD PTR [edi+2]
  0004d	55		 push	 ebp
  0004e	6a 00		 push	 0
  00050	ff 15 00 00 00
	00		 call	 DWORD PTR ?g_pfnGetThreadACP@ATL@@3P6GIXZA ; ATL::g_pfnGetThreadACP
  00056	50		 push	 eax
  00057	ff 15 00 00 00
	00		 call	 DWORD PTR __imp__WideCharToMultiByte@32
  0005d	8b f0		 mov	 esi, eax

; 1989 : 		PXSTR pszBuffer = GetBuffer( nLength );

  0005f	8b 03		 mov	 eax, DWORD PTR [ebx]
  00061	8b 48 fc	 mov	 ecx, DWORD PTR [eax-4]
  00064	83 e8 10	 sub	 eax, 16			; 00000010H
  00067	8b 40 08	 mov	 eax, DWORD PTR [eax+8]
  0006a	ba 01 00 00 00	 mov	 edx, 1
  0006f	2b d1		 sub	 edx, ecx
  00071	2b c6		 sub	 eax, esi
  00073	0b d0		 or	 edx, eax
  00075	7d 08		 jge	 SHORT $L112477
  00077	56		 push	 esi
  00078	8b cb		 mov	 ecx, ebx
  0007a	e8 00 00 00 00	 call	 ?PrepareWrite2@?$CSimpleStringT@D$0A@@ATL@@AAEXH@Z ; ATL::CSimpleStringT<char,0>::PrepareWrite2
$L112477:
  0007f	8b 03		 mov	 eax, DWORD PTR [ebx]

; 1990 : 		StringTraits::ConvertToBaseType( pszBuffer, nLength, pImage->achString, pImage->nLength );

  00081	0f b7 0f	 movzx	 ecx, WORD PTR [edi]
  00084	6a 00		 push	 0
  00086	6a 00		 push	 0
  00088	56		 push	 esi
  00089	50		 push	 eax
  0008a	51		 push	 ecx
  0008b	55		 push	 ebp
  0008c	6a 00		 push	 0
  0008e	ff 15 00 00 00
	00		 call	 DWORD PTR ?g_pfnGetThreadACP@ATL@@3P6GIXZA ; ATL::g_pfnGetThreadACP
  00094	50		 push	 eax
  00095	ff 15 00 00 00
	00		 call	 DWORD PTR __imp__WideCharToMultiByte@32

; 1991 : 		ReleaseBufferSetLength( nLength );

  0009b	85 f6		 test	 esi, esi
  0009d	5d		 pop	 ebp
  0009e	7c 1b		 jl	 SHORT $L112511
  000a0	8b 03		 mov	 eax, DWORD PTR [ebx]
  000a2	3b 70 f8	 cmp	 esi, DWORD PTR [eax-8]
  000a5	7f 14		 jg	 SHORT $L112511
  000a7	89 70 f4	 mov	 DWORD PTR [eax-12], esi
  000aa	8b 0b		 mov	 ecx, DWORD PTR [ebx]
  000ac	5f		 pop	 edi
  000ad	c6 04 0e 00	 mov	 BYTE PTR [esi+ecx], 0
  000b1	5e		 pop	 esi

; 1992 : 
; 1993 : 		return( TRUE );

  000b2	b8 01 00 00 00	 mov	 eax, 1
  000b7	5b		 pop	 ebx

; 1994 : 	}

  000b8	c2 08 00	 ret	 8
$L112511:
  000bb	68 57 00 07 80	 push	 -2147024809		; 80070057H
  000c0	e8 00 00 00 00	 call	 ?AtlThrow@ATL@@YGXJ@Z	; ATL::AtlThrow
$L112520:
$L112519:
  000c5	cc		 int	 3
?LoadStringA@?$CStringT@DV?$StrTraitATL@DV?$ChTraitsCRT@D@ATL@@@ATL@@@ATL@@QAEHPAUHINSTANCE__@@I@Z ENDP ; ATL::CStringT<char,ATL::StrTraitATL<char,ATL::ChTraitsCRT<char> > >::LoadStringA
_TEXT	ENDS
PUBLIC	?_Grow@?$basic_string@DU?$char_traits@D@std@@V?$allocator@D@2@@std@@IAE_NI_N@Z ; std::basic_string<char,std::char_traits<char>,std::allocator<char> >::_Grow
EXTRN	?_Xlen@_String_base@std@@QBEXXZ:NEAR		; std::_String_base::_Xlen
; Function compile flags: /Ogty
; File c:\program files (x86)\microsoft visual studio .net 2003\vc7\include\xstring
;	COMDAT ?_Grow@?$basic_string@DU?$char_traits@D@std@@V?$allocator@D@2@@std@@IAE_NI_N@Z
_TEXT	SEGMENT
__Newsize$ = 8						; size = 4
__Trim$ = 12						; size = 1
?_Grow@?$basic_string@DU?$char_traits@D@std@@V?$allocator@D@2@@std@@IAE_NI_N@Z PROC NEAR ; std::basic_string<char,std::char_traits<char>,std::allocator<char> >::_Grow, COMDAT
; _this$ = ecx

; 1480 : 		{	// ensure buffer is big enough, trim to size if _Trim is true

  00000	55		 push	 ebp
  00001	56		 push	 esi

; 1481 : 		if (max_size() < _Newsize)

  00002	8b 74 24 0c	 mov	 esi, DWORD PTR __Newsize$[esp+4]
  00006	83 fe fe	 cmp	 esi, -2			; fffffffeH
  00009	8b e9		 mov	 ebp, ecx
  0000b	76 05		 jbe	 SHORT $L103784

; 1482 : 			_String_base::_Xlen();	// result too long

  0000d	e8 00 00 00 00	 call	 ?_Xlen@_String_base@std@@QBEXXZ ; std::_String_base::_Xlen
$L103784:

; 1483 : 		if (_Myres < _Newsize)

  00012	8b 45 18	 mov	 eax, DWORD PTR [ebp+24]
  00015	3b c6		 cmp	 eax, esi
  00017	73 19		 jae	 SHORT $L103785

; 1484 : 			_Copy(_Newsize, _Mysize);	// reallocate to grow

  00019	8b 45 14	 mov	 eax, DWORD PTR [ebp+20]
  0001c	50		 push	 eax
  0001d	56		 push	 esi
  0001e	8b cd		 mov	 ecx, ebp
  00020	e8 00 00 00 00	 call	 ?_Copy@?$basic_string@DU?$char_traits@D@std@@V?$allocator@D@2@@std@@IAEXII@Z ; std::basic_string<char,std::char_traits<char>,std::allocator<char> >::_Copy

; 1490 : 		return (0 < _Newsize);	// return true only if more work to do

  00025	33 c0		 xor	 eax, eax
  00027	3b c6		 cmp	 eax, esi
  00029	1b c0		 sbb	 eax, eax
  0002b	5e		 pop	 esi
  0002c	f7 d8		 neg	 eax
  0002e	5d		 pop	 ebp

; 1491 : 		}

  0002f	c2 08 00	 ret	 8
$L103785:

; 1485 : 		else if (_Trim && _Newsize < _BUF_SIZE)

  00032	8a 4c 24 10	 mov	 cl, BYTE PTR __Trim$[esp+4]
  00036	84 c9		 test	 cl, cl
  00038	74 5c		 je	 SHORT $L103787
  0003a	83 fe 10	 cmp	 esi, 16			; 00000010H
  0003d	73 57		 jae	 SHORT $L103787
  0003f	53		 push	 ebx

; 1486 : 			_Tidy(true,	// copy and deallocate if trimming to small string
; 1487 : 				_Newsize < _Mysize ? _Newsize : _Mysize);

  00040	8b 5d 14	 mov	 ebx, DWORD PTR [ebp+20]
  00043	3b f3		 cmp	 esi, ebx
  00045	73 02		 jae	 SHORT $L112525
  00047	8b de		 mov	 ebx, esi
$L112525:
  00049	83 f8 10	 cmp	 eax, 16			; 00000010H
  0004c	72 2b		 jb	 SHORT $L112585
  0004e	85 db		 test	 ebx, ebx
  00050	8b 45 04	 mov	 eax, DWORD PTR [ebp+4]
  00053	57		 push	 edi
  00054	8d 7d 04	 lea	 edi, DWORD PTR [ebp+4]
  00057	76 16		 jbe	 SHORT $L112583
  00059	8b cb		 mov	 ecx, ebx
  0005b	8b d1		 mov	 edx, ecx
  0005d	c1 e9 02	 shr	 ecx, 2
  00060	8b f0		 mov	 esi, eax
  00062	f3 a5		 rep movsd
  00064	8b ca		 mov	 ecx, edx
  00066	83 e1 03	 and	 ecx, 3
  00069	f3 a4		 rep movsb
  0006b	8b 74 24 14	 mov	 esi, DWORD PTR __Newsize$[esp+12]
$L112583:
  0006f	50		 push	 eax
  00070	e8 00 00 00 00	 call	 ??3@YAXPAX@Z		; operator delete
  00075	83 c4 04	 add	 esp, 4
  00078	5f		 pop	 edi
$L112585:
  00079	89 5d 14	 mov	 DWORD PTR [ebp+20], ebx

; 1490 : 		return (0 < _Newsize);	// return true only if more work to do

  0007c	33 c0		 xor	 eax, eax
  0007e	c7 45 18 0f 00
	00 00		 mov	 DWORD PTR [ebp+24], 15	; 0000000fH
  00085	c6 44 2b 04 00	 mov	 BYTE PTR [ebx+ebp+4], 0
  0008a	3b c6		 cmp	 eax, esi
  0008c	5b		 pop	 ebx
  0008d	1b c0		 sbb	 eax, eax
  0008f	5e		 pop	 esi
  00090	f7 d8		 neg	 eax
  00092	5d		 pop	 ebp

; 1491 : 		}

  00093	c2 08 00	 ret	 8
$L103787:

; 1488 : 		else if (_Newsize == 0)

  00096	85 f6		 test	 esi, esi
  00098	75 23		 jne	 SHORT $L112616

; 1489 : 			_Eos(0);	// new size is zero, just null terminate

  0009a	83 f8 10	 cmp	 eax, 16			; 00000010H
  0009d	89 75 14	 mov	 DWORD PTR [ebp+20], esi
  000a0	72 14		 jb	 SHORT $L112614
  000a2	8b 6d 04	 mov	 ebp, DWORD PTR [ebp+4]

; 1490 : 		return (0 < _Newsize);	// return true only if more work to do

  000a5	33 c0		 xor	 eax, eax
  000a7	3b c6		 cmp	 eax, esi
  000a9	1b c0		 sbb	 eax, eax
  000ab	5e		 pop	 esi
  000ac	c6 45 00 00	 mov	 BYTE PTR [ebp], 0
  000b0	f7 d8		 neg	 eax
  000b2	5d		 pop	 ebp

; 1491 : 		}

  000b3	c2 08 00	 ret	 8

; 1489 : 			_Eos(0);	// new size is zero, just null terminate

$L112614:
  000b6	83 c5 04	 add	 ebp, 4
  000b9	c6 45 00 00	 mov	 BYTE PTR [ebp], 0
$L112616:

; 1490 : 		return (0 < _Newsize);	// return true only if more work to do

  000bd	33 c0		 xor	 eax, eax
  000bf	3b c6		 cmp	 eax, esi
  000c1	1b c0		 sbb	 eax, eax
  000c3	5e		 pop	 esi
  000c4	f7 d8		 neg	 eax
  000c6	5d		 pop	 ebp

; 1491 : 		}

  000c7	c2 08 00	 ret	 8
?_Grow@?$basic_string@DU?$char_traits@D@std@@V?$allocator@D@2@@std@@IAE_NI_N@Z ENDP ; std::basic_string<char,std::char_traits<char>,std::allocator<char> >::_Grow
_TEXT	ENDS
PUBLIC	?SetString@?$CSimpleStringT@D$0A@@ATL@@QAEXPBD@Z ; ATL::CSimpleStringT<char,0>::SetString
; Function compile flags: /Ogty
; File c:\program files (x86)\microsoft visual studio .net 2003\vc7\atlmfc\include\atlsimpstr.h
;	COMDAT ?SetString@?$CSimpleStringT@D$0A@@ATL@@QAEXPBD@Z
_TEXT	SEGMENT
_pszSrc$ = 8						; size = 4
?SetString@?$CSimpleStringT@D$0A@@ATL@@QAEXPBD@Z PROC NEAR ; ATL::CSimpleStringT<char,0>::SetString, COMDAT
; _this$ = ecx

; 579  : 	{

  00000	56		 push	 esi

; 580  : 		SetString( pszSrc, StringLength( pszSrc ) );

  00001	8b 74 24 08	 mov	 esi, DWORD PTR _pszSrc$[esp]
  00005	85 f6		 test	 esi, esi
  00007	75 0d		 jne	 SHORT $L112624
  00009	33 c0		 xor	 eax, eax
  0000b	50		 push	 eax
  0000c	56		 push	 esi
  0000d	e8 00 00 00 00	 call	 ?SetString@?$CSimpleStringT@D$0A@@ATL@@QAEXPBDH@Z ; ATL::CSimpleStringT<char,0>::SetString
  00012	5e		 pop	 esi

; 581  : 	}

  00013	c2 04 00	 ret	 4

; 580  : 		SetString( pszSrc, StringLength( pszSrc ) );

$L112624:
  00016	8b c6		 mov	 eax, esi
  00018	57		 push	 edi
  00019	8d 78 01	 lea	 edi, DWORD PTR [eax+1]
  0001c	8d 64 24 00	 npad	 4
$L112627:
  00020	8a 10		 mov	 dl, BYTE PTR [eax]
  00022	40		 inc	 eax
  00023	84 d2		 test	 dl, dl
  00025	75 f9		 jne	 SHORT $L112627
  00027	2b c7		 sub	 eax, edi
  00029	5f		 pop	 edi
  0002a	50		 push	 eax
  0002b	56		 push	 esi
  0002c	e8 00 00 00 00	 call	 ?SetString@?$CSimpleStringT@D$0A@@ATL@@QAEXPBDH@Z ; ATL::CSimpleStringT<char,0>::SetString
  00031	5e		 pop	 esi

; 581  : 	}

  00032	c2 04 00	 ret	 4
?SetString@?$CSimpleStringT@D$0A@@ATL@@QAEXPBD@Z ENDP	; ATL::CSimpleStringT<char,0>::SetString
_TEXT	ENDS
PUBLIC	?OnCT_CHATBAN_REQ@CTRelaySvrModule@@IAEKPAUtagPACKETBUF@@@Z ; CTRelaySvrModule::OnCT_CHATBAN_REQ
EXTRN	?SendCT_CHATBAN_ACK@CTPlayer@@QAEXEK@Z:NEAR	; CTPlayer::SendCT_CHATBAN_ACK
EXTRN	?FindPlayer@CTRelaySvrModule@@QAEPAVCTPlayer@@V?$CStringT@DV?$StrTraitATL@DV?$ChTraitsCRT@D@ATL@@@ATL@@@ATL@@@Z:NEAR ; CTRelaySvrModule::FindPlayer
EXTRN	??5CPacket@@QAEAAV0@AAV?$CStringT@DV?$StrTraitATL@DV?$ChTraitsCRT@D@ATL@@@ATL@@@ATL@@@Z:NEAR ; CPacket::operator>>
EXTRN	??5CPacket@@QAEAAV0@AAK@Z:NEAR			; CPacket::operator>>
EXTRN	??5CPacket@@QAEAAV0@AAG@Z:NEAR			; CPacket::operator>>
;	COMDAT xdata$x
xdata$x	SEGMENT
$T112908 DD	0ffffffffH
	DD	FLAT:$L112634
$T112903 DD	019930520H
	DD	01H
	DD	FLAT:$T112908
	DD	2 DUP(00H)
	DD	2 DUP(00H)
; Function compile flags: /Ogty
; File c:\users\pierr\desktop\4story - oldschool\sources\tserver\trelaysvr\cshandler.cpp
xdata$x	ENDS
;	COMDAT ?OnCT_CHATBAN_REQ@CTRelaySvrModule@@IAEKPAUtagPACKETBUF@@@Z
_TEXT	SEGMENT
_strName$ = -44						; size = 4
tv194 = -40						; size = 4
tv203 = -36						; size = 4
_BanTime$ = -36						; size = 8
$T112631 = -36						; size = 4
_dwBanSeq$ = -28					; size = 4
_pPlayer$ = -24						; size = 4
_t$ = -20						; size = 8
__$EHRec$ = -12						; size = 12
_wMin$ = 8						; size = 2
_pBUF$ = 8						; size = 4
?OnCT_CHATBAN_REQ@CTRelaySvrModule@@IAEKPAUtagPACKETBUF@@@Z PROC NEAR ; CTRelaySvrModule::OnCT_CHATBAN_REQ, COMDAT
; _this$ = ecx

; 69   : {

  00000	6a ff		 push	 -1
  00002	68 00 00 00 00	 push	 __ehhandler$?OnCT_CHATBAN_REQ@CTRelaySvrModule@@IAEKPAUtagPACKETBUF@@@Z
  00007	64 a1 00 00 00
	00		 mov	 eax, DWORD PTR fs:__except_list
  0000d	50		 push	 eax
  0000e	64 89 25 00 00
	00 00		 mov	 DWORD PTR fs:__except_list, esp
  00015	83 ec 20	 sub	 esp, 32			; 00000020H
  00018	53		 push	 ebx
  00019	55		 push	 ebp
  0001a	56		 push	 esi

; 70   : 	CTPlayer *pPlayer = (CTPlayer *) pBUF->m_pSESSION;

  0001b	8b 74 24 3c	 mov	 esi, DWORD PTR _pBUF$[esp+52]
  0001f	8b 1e		 mov	 ebx, DWORD PTR [esi]

; 71   : 	if(!pPlayer)

  00021	85 db		 test	 ebx, ebx
  00023	57		 push	 edi
  00024	8b f9		 mov	 edi, ecx
  00026	89 5c 24 24	 mov	 DWORD PTR _pPlayer$[esp+60], ebx

; 72   : 		return EC_NOERROR;

  0002a	0f 84 98 01 00
	00		 je	 $L112900

; 73   : 
; 74   : 	CString strName;

  00030	a1 00 00 00 00	 mov	 eax, DWORD PTR ?g_strmgr@ATL@@3VCAtlStringMgr@1@A
  00035	b9 00 00 00 00	 mov	 ecx, OFFSET FLAT:?g_strmgr@ATL@@3VCAtlStringMgr@1@A ; ATL::g_strmgr
  0003a	ff 50 0c	 call	 DWORD PTR [eax+12]
  0003d	83 c0 10	 add	 eax, 16			; 00000010H
  00040	89 44 24 10	 mov	 DWORD PTR _strName$[esp+60], eax

; 75   : 	WORD wMin;
; 76   : 	DWORD dwBanSeq;
; 77   : 
; 78   : 	pBUF->m_packet
; 79   : 		>> strName
; 80   : 		>> wMin
; 81   : 		>> dwBanSeq;

  00044	8d 4c 24 20	 lea	 ecx, DWORD PTR _dwBanSeq$[esp+60]
  00048	51		 push	 ecx
  00049	8d 54 24 44	 lea	 edx, DWORD PTR _wMin$[esp+60]
  0004d	52		 push	 edx
  0004e	8d 44 24 18	 lea	 eax, DWORD PTR _strName$[esp+68]
  00052	50		 push	 eax
  00053	8d 4e 04	 lea	 ecx, DWORD PTR [esi+4]
  00056	c7 44 24 44 00
	00 00 00	 mov	 DWORD PTR __$EHRec$[esp+80], 0
  0005e	e8 00 00 00 00	 call	 ??5CPacket@@QAEAAV0@AAV?$CStringT@DV?$StrTraitATL@DV?$ChTraitsCRT@D@ATL@@@ATL@@@ATL@@@Z ; CPacket::operator>>
  00063	8b c8		 mov	 ecx, eax
  00065	e8 00 00 00 00	 call	 ??5CPacket@@QAEAAV0@AAG@Z ; CPacket::operator>>
  0006a	8b c8		 mov	 ecx, eax
  0006c	e8 00 00 00 00	 call	 ??5CPacket@@QAEAAV0@AAK@Z ; CPacket::operator>>

; 82   : 
; 83   : 	CTPlayer* pTarget = FindPlayer(strName);

  00071	8b 44 24 10	 mov	 eax, DWORD PTR _strName$[esp+60]
  00075	51		 push	 ecx
  00076	83 c0 f0	 add	 eax, -16		; fffffff0H
  00079	89 64 24 1c	 mov	 DWORD PTR $T112631[esp+64], esp
  0007d	8b f4		 mov	 esi, esp
  0007f	50		 push	 eax
  00080	e8 00 00 00 00	 call	 ?CloneData@?$CSimpleStringT@D$0A@@ATL@@CAPAUCStringData@2@PAU32@@Z ; ATL::CSimpleStringT<char,0>::CloneData
  00085	83 c0 10	 add	 eax, 16			; 00000010H
  00088	83 c4 04	 add	 esp, 4
  0008b	8b cf		 mov	 ecx, edi
  0008d	89 06		 mov	 DWORD PTR [esi], eax
  0008f	e8 00 00 00 00	 call	 ?FindPlayer@CTRelaySvrModule@@QAEPAVCTPlayer@@V?$CStringT@DV?$StrTraitATL@DV?$ChTraitsCRT@D@ATL@@@ATL@@@ATL@@@Z ; CTRelaySvrModule::FindPlayer
  00094	8b f0		 mov	 esi, eax

; 84   : 	if(!pTarget)

  00096	85 f6		 test	 esi, esi
  00098	75 0d		 jne	 SHORT $L107574

; 85   : 	{
; 86   : 		pPlayer->SendCT_CHATBAN_ACK(FALSE,dwBanSeq);

  0009a	8b 4c 24 20	 mov	 ecx, DWORD PTR _dwBanSeq$[esp+60]
  0009e	51		 push	 ecx
  0009f	50		 push	 eax
  000a0	8b cb		 mov	 ecx, ebx

; 87   : 		return EC_NOERROR;

  000a2	e9 f6 00 00 00	 jmp	 $L112907
$L107574:

; 88   : 	}
; 89   : 	
; 90   : 	CTime t(CTime::GetCurrentTime());

  000a7	6a 00		 push	 0
  000a9	e8 00 00 00 00	 call	 __time64
  000ae	89 44 24 2c	 mov	 DWORD PTR _t$[esp+64], eax

; 91   : 	CTime BanTime(t.GetYear(),t.GetMonth(),t.GetDay(),t.GetHour(),t.GetMinute()+wMin,t.GetSecond());

  000b2	8d 44 24 2c	 lea	 eax, DWORD PTR _t$[esp+64]
  000b6	50		 push	 eax
  000b7	89 54 24 34	 mov	 DWORD PTR _t$[esp+72], edx
  000bb	e8 00 00 00 00	 call	 __localtime64
  000c0	83 c4 08	 add	 esp, 8
  000c3	85 c0		 test	 eax, eax
  000c5	74 08		 je	 SHORT $L112752
  000c7	8b 08		 mov	 ecx, DWORD PTR [eax]
  000c9	89 4c 24 14	 mov	 DWORD PTR tv194[esp+60], ecx
  000cd	eb 08		 jmp	 SHORT $L112753
$L112752:
  000cf	c7 44 24 14 ff
	ff ff ff	 mov	 DWORD PTR tv194[esp+60], -1
$L112753:
  000d7	8d 54 24 28	 lea	 edx, DWORD PTR _t$[esp+60]
  000db	52		 push	 edx
  000dc	e8 00 00 00 00	 call	 __localtime64
  000e1	83 c4 04	 add	 esp, 4
  000e4	85 c0		 test	 eax, eax
  000e6	74 09		 je	 SHORT $L112774
  000e8	8b 40 04	 mov	 eax, DWORD PTR [eax+4]
  000eb	89 44 24 18	 mov	 DWORD PTR tv203[esp+60], eax
  000ef	eb 08		 jmp	 SHORT $L112775
$L112774:
  000f1	c7 44 24 18 ff
	ff ff ff	 mov	 DWORD PTR tv203[esp+60], -1
$L112775:
  000f9	8d 4c 24 28	 lea	 ecx, DWORD PTR _t$[esp+60]
  000fd	51		 push	 ecx
  000fe	e8 00 00 00 00	 call	 __localtime64
  00103	83 c4 04	 add	 esp, 4
  00106	85 c0		 test	 eax, eax
  00108	74 05		 je	 SHORT $L112796
  0010a	8b 68 08	 mov	 ebp, DWORD PTR [eax+8]
  0010d	eb 03		 jmp	 SHORT $L112797
$L112796:
  0010f	83 cd ff	 or	 ebp, -1
$L112797:
  00112	8d 54 24 28	 lea	 edx, DWORD PTR _t$[esp+60]
  00116	52		 push	 edx
  00117	e8 00 00 00 00	 call	 __localtime64
  0011c	83 c4 04	 add	 esp, 4
  0011f	85 c0		 test	 eax, eax
  00121	74 05		 je	 SHORT $L112818
  00123	8b 58 0c	 mov	 ebx, DWORD PTR [eax+12]
  00126	eb 02		 jmp	 SHORT $L112819
$L112818:
  00128	33 db		 xor	 ebx, ebx
$L112819:
  0012a	8d 44 24 28	 lea	 eax, DWORD PTR _t$[esp+60]
  0012e	50		 push	 eax
  0012f	e8 00 00 00 00	 call	 __localtime64
  00134	83 c4 04	 add	 esp, 4
  00137	85 c0		 test	 eax, eax
  00139	74 06		 je	 SHORT $L112840
  0013b	8b 78 10	 mov	 edi, DWORD PTR [eax+16]
  0013e	47		 inc	 edi
  0013f	eb 02		 jmp	 SHORT $L112841
$L112840:
  00141	33 ff		 xor	 edi, edi
$L112841:
  00143	8d 4c 24 28	 lea	 ecx, DWORD PTR _t$[esp+60]
  00147	51		 push	 ecx
  00148	e8 00 00 00 00	 call	 __localtime64
  0014d	83 c4 04	 add	 esp, 4
  00150	85 c0		 test	 eax, eax
  00152	74 0a		 je	 SHORT $L112862
  00154	8b 40 14	 mov	 eax, DWORD PTR [eax+20]
  00157	05 6c 07 00 00	 add	 eax, 1900		; 0000076cH
  0015c	eb 02		 jmp	 SHORT $L112863
$L112862:
  0015e	33 c0		 xor	 eax, eax
$L112863:
  00160	8b 54 24 14	 mov	 edx, DWORD PTR tv194[esp+60]
  00164	0f b7 4c 24 40	 movzx	 ecx, WORD PTR _wMin$[esp+56]
  00169	6a ff		 push	 -1
  0016b	52		 push	 edx
  0016c	03 4c 24 20	 add	 ecx, DWORD PTR tv203[esp+68]
  00170	51		 push	 ecx
  00171	55		 push	 ebp
  00172	53		 push	 ebx
  00173	57		 push	 edi
  00174	50		 push	 eax
  00175	8d 4c 24 34	 lea	 ecx, DWORD PTR _BanTime$[esp+88]
  00179	e8 00 00 00 00	 call	 ??0CTime@ATL@@QAE@HHHHHHH@Z ; ATL::CTime::CTime

; 92   : 
; 93   : 	pTarget->m_nChatBanTime = BanTime.GetTime();

  0017e	8b 54 24 18	 mov	 edx, DWORD PTR _BanTime$[esp+60]
  00182	8b 44 24 1c	 mov	 eax, DWORD PTR _BanTime$[esp+64]
  00186	89 96 30 01 01
	00		 mov	 DWORD PTR [esi+65840], edx
  0018c	89 86 34 01 01
	00		 mov	 DWORD PTR [esi+65844], eax

; 94   : 
; 95   : 	pPlayer->SendCT_CHATBAN_ACK(TRUE,dwBanSeq);

  00192	8b 4c 24 20	 mov	 ecx, DWORD PTR _dwBanSeq$[esp+60]
  00196	51		 push	 ecx
  00197	8b 4c 24 28	 mov	 ecx, DWORD PTR _pPlayer$[esp+64]
  0019b	6a 01		 push	 1
$L112907:
  0019d	e8 00 00 00 00	 call	 ?SendCT_CHATBAN_ACK@CTPlayer@@QAEXEK@Z ; CTPlayer::SendCT_CHATBAN_ACK

; 96   : 
; 97   : 	return EC_NOERROR;

  001a2	8b 44 24 10	 mov	 eax, DWORD PTR _strName$[esp+60]
  001a6	83 c0 f0	 add	 eax, -16		; fffffff0H
  001a9	c7 44 24 38 ff
	ff ff ff	 mov	 DWORD PTR __$EHRec$[esp+68], -1
  001b1	8d 50 0c	 lea	 edx, DWORD PTR [eax+12]
  001b4	83 c9 ff	 or	 ecx, -1
  001b7	f0 0f c1 0a	 lock	  xadd	 DWORD PTR [edx], ecx
  001bb	49		 dec	 ecx
  001bc	85 c9		 test	 ecx, ecx
  001be	7f 08		 jg	 SHORT $L112900
  001c0	8b 08		 mov	 ecx, DWORD PTR [eax]
  001c2	8b 11		 mov	 edx, DWORD PTR [ecx]
  001c4	50		 push	 eax
  001c5	ff 52 04	 call	 DWORD PTR [edx+4]
$L112900:

; 98   : }

  001c8	8b 4c 24 30	 mov	 ecx, DWORD PTR __$EHRec$[esp+60]
  001cc	5f		 pop	 edi
  001cd	5e		 pop	 esi
  001ce	5d		 pop	 ebp
  001cf	33 c0		 xor	 eax, eax
  001d1	64 89 0d 00 00
	00 00		 mov	 DWORD PTR fs:__except_list, ecx
  001d8	5b		 pop	 ebx
  001d9	83 c4 2c	 add	 esp, 44			; 0000002cH
  001dc	c2 04 00	 ret	 4
_TEXT	ENDS
;	COMDAT text$x
text$x	SEGMENT
$L112634:
  00000	8d 4d d4	 lea	 ecx, DWORD PTR _strName$[ebp]
  00003	e9 00 00 00 00	 jmp	 ??1?$CStringT@DV?$StrTraitATL@DV?$ChTraitsCRT@D@ATL@@@ATL@@@ATL@@QAE@XZ ; ATL::CStringT<char,ATL::StrTraitATL<char,ATL::ChTraitsCRT<char> > >::~CStringT<char,ATL::StrTraitATL<char,ATL::ChTraitsCRT<char> > >
__ehhandler$?OnCT_CHATBAN_REQ@CTRelaySvrModule@@IAEKPAUtagPACKETBUF@@@Z:
  00008	b8 00 00 00 00	 mov	 eax, OFFSET FLAT:$T112903
  0000d	e9 00 00 00 00	 jmp	 ___CxxFrameHandler
text$x	ENDS
?OnCT_CHATBAN_REQ@CTRelaySvrModule@@IAEKPAUtagPACKETBUF@@@Z ENDP ; CTRelaySvrModule::OnCT_CHATBAN_REQ
PUBLIC	?OnCS_RELAYPROTECTEDLIST_REQ@CTRelaySvrModule@@IAEKPAUtagPACKETBUF@@@Z ; CTRelaySvrModule::OnCS_RELAYPROTECTEDLIST_REQ
EXTRN	?AddProtected@CTPlayer@@QAEXV?$CStringT@DV?$StrTraitATL@DV?$ChTraitsCRT@D@ATL@@@ATL@@@ATL@@E@Z:NEAR ; CTPlayer::AddProtected
EXTRN	??5CPacket@@QAEAAV0@AAE@Z:NEAR			; CPacket::operator>>
;	COMDAT xdata$x
; File c:\program files (x86)\microsoft visual studio .net 2003\vc7\atlmfc\include\atlsimpstr.h
xdata$x	SEGMENT
$T113018 DD	0ffffffffH
	DD	FLAT:$L112916
$T113014 DD	019930520H
	DD	01H
	DD	FLAT:$T113018
	DD	2 DUP(00H)
	DD	2 DUP(00H)
; Function compile flags: /Ogty
; File c:\users\pierr\desktop\4story - oldschool\sources\tserver\trelaysvr\cshandler.cpp
xdata$x	ENDS
;	COMDAT ?OnCS_RELAYPROTECTEDLIST_REQ@CTRelaySvrModule@@IAEKPAUtagPACKETBUF@@@Z
_TEXT	SEGMENT
_strName$ = -24						; size = 4
_bOption$ = -20						; size = 1
$T112914 = -16						; size = 4
__$EHRec$ = -12						; size = 12
_wCount$ = 8						; size = 2
_pBUF$ = 8						; size = 4
?OnCS_RELAYPROTECTEDLIST_REQ@CTRelaySvrModule@@IAEKPAUtagPACKETBUF@@@Z PROC NEAR ; CTRelaySvrModule::OnCS_RELAYPROTECTEDLIST_REQ, COMDAT
; _this$ = ecx

; 591  : {

  00000	64 a1 00 00 00
	00		 mov	 eax, DWORD PTR fs:__except_list
  00006	6a ff		 push	 -1
  00008	68 00 00 00 00	 push	 __ehhandler$?OnCS_RELAYPROTECTEDLIST_REQ@CTRelaySvrModule@@IAEKPAUtagPACKETBUF@@@Z
  0000d	50		 push	 eax
  0000e	64 89 25 00 00
	00 00		 mov	 DWORD PTR fs:__except_list, esp
  00015	83 ec 0c	 sub	 esp, 12			; 0000000cH
  00018	53		 push	 ebx

; 592  : 	CTPlayer* pPlayer = (CTPlayer*)pBUF->m_pSESSION;

  00019	8b 5c 24 20	 mov	 ebx, DWORD PTR _pBUF$[esp+24]
  0001d	55		 push	 ebp
  0001e	8b 2b		 mov	 ebp, DWORD PTR [ebx]
  00020	56		 push	 esi

; 593  : 	if( !pPlayer || !pPlayer->m_bAuthorized )

  00021	33 f6		 xor	 esi, esi
  00023	3b ee		 cmp	 ebp, esi
  00025	57		 push	 edi
  00026	0f 84 b4 00 00
	00		 je	 $L108154
  0002c	8a 85 26 01 01
	00		 mov	 al, BYTE PTR [ebp+65830]
  00032	84 c0		 test	 al, al
  00034	0f 84 a6 00 00
	00		 je	 $L108154

; 594  : 		return EC_NOERROR;
; 595  : 
; 596  : 	WORD wCount;
; 597  : 	CString strName;

  0003a	a1 00 00 00 00	 mov	 eax, DWORD PTR ?g_strmgr@ATL@@3VCAtlStringMgr@1@A
  0003f	b9 00 00 00 00	 mov	 ecx, OFFSET FLAT:?g_strmgr@ATL@@3VCAtlStringMgr@1@A ; ATL::g_strmgr
  00044	ff 50 0c	 call	 DWORD PTR [eax+12]
  00047	83 c0 10	 add	 eax, 16			; 00000010H
  0004a	89 44 24 10	 mov	 DWORD PTR _strName$[esp+40], eax

; 598  : 	BYTE bOption;
; 599  : 
; 600  : 	pBUF->m_packet
; 601  : 		>> wCount;

  0004e	8d 4c 24 2c	 lea	 ecx, DWORD PTR _wCount$[esp+36]
  00052	83 c3 04	 add	 ebx, 4
  00055	51		 push	 ecx
  00056	8b cb		 mov	 ecx, ebx
  00058	89 74 24 28	 mov	 DWORD PTR __$EHRec$[esp+52], esi
  0005c	e8 00 00 00 00	 call	 ??5CPacket@@QAEAAV0@AAG@Z ; CPacket::operator>>

; 602  : 
; 603  : 	for(DWORD i = 0; i < wCount; i++)

  00061	66 39 74 24 2c	 cmp	 WORD PTR _wCount$[esp+36], si
  00066	76 52		 jbe	 SHORT $L108161
  00068	eb 06 8d 9b 00
	00 00 00	 npad	 8
$L108159:

; 604  : 	{
; 605  : 		pBUF->m_packet
; 606  : 			>> strName
; 607  : 			>> bOption;

  00070	8d 54 24 14	 lea	 edx, DWORD PTR _bOption$[esp+40]
  00074	52		 push	 edx
  00075	8d 44 24 14	 lea	 eax, DWORD PTR _strName$[esp+44]
  00079	50		 push	 eax
  0007a	8b cb		 mov	 ecx, ebx
  0007c	e8 00 00 00 00	 call	 ??5CPacket@@QAEAAV0@AAV?$CStringT@DV?$StrTraitATL@DV?$ChTraitsCRT@D@ATL@@@ATL@@@ATL@@@Z ; CPacket::operator>>
  00081	8b c8		 mov	 ecx, eax
  00083	e8 00 00 00 00	 call	 ??5CPacket@@QAEAAV0@AAE@Z ; CPacket::operator>>

; 608  : 
; 609  : 		pPlayer->AddProtected(strName, bOption);

  00088	8b 4c 24 14	 mov	 ecx, DWORD PTR _bOption$[esp+40]
  0008c	8b 44 24 10	 mov	 eax, DWORD PTR _strName$[esp+40]
  00090	51		 push	 ecx
  00091	51		 push	 ecx
  00092	83 c0 f0	 add	 eax, -16		; fffffff0H
  00095	89 64 24 20	 mov	 DWORD PTR $T112914[esp+48], esp
  00099	8b fc		 mov	 edi, esp
  0009b	50		 push	 eax
  0009c	e8 00 00 00 00	 call	 ?CloneData@?$CSimpleStringT@D$0A@@ATL@@CAPAUCStringData@2@PAU32@@Z ; ATL::CSimpleStringT<char,0>::CloneData
  000a1	83 c0 10	 add	 eax, 16			; 00000010H
  000a4	83 c4 04	 add	 esp, 4
  000a7	8b cd		 mov	 ecx, ebp
  000a9	89 07		 mov	 DWORD PTR [edi], eax
  000ab	e8 00 00 00 00	 call	 ?AddProtected@CTPlayer@@QAEXV?$CStringT@DV?$StrTraitATL@DV?$ChTraitsCRT@D@ATL@@@ATL@@@ATL@@E@Z ; CTPlayer::AddProtected
  000b0	0f b7 54 24 2c	 movzx	 edx, WORD PTR _wCount$[esp+36]
  000b5	46		 inc	 esi
  000b6	3b f2		 cmp	 esi, edx
  000b8	72 b6		 jb	 SHORT $L108159
$L108161:

; 610  : 	}
; 611  : 
; 612  : 	return EC_NOERROR;

  000ba	8b 44 24 10	 mov	 eax, DWORD PTR _strName$[esp+40]
  000be	83 c0 f0	 add	 eax, -16		; fffffff0H
  000c1	c7 44 24 24 ff
	ff ff ff	 mov	 DWORD PTR __$EHRec$[esp+48], -1
  000c9	8d 48 0c	 lea	 ecx, DWORD PTR [eax+12]
  000cc	83 ca ff	 or	 edx, -1
  000cf	f0 0f c1 11	 lock	  xadd	 DWORD PTR [ecx], edx
  000d3	4a		 dec	 edx
  000d4	85 d2		 test	 edx, edx
  000d6	7f 08		 jg	 SHORT $L108154
  000d8	8b 08		 mov	 ecx, DWORD PTR [eax]
  000da	8b 11		 mov	 edx, DWORD PTR [ecx]
  000dc	50		 push	 eax
  000dd	ff 52 04	 call	 DWORD PTR [edx+4]
$L108154:

; 613  : }

  000e0	8b 4c 24 1c	 mov	 ecx, DWORD PTR __$EHRec$[esp+40]
  000e4	5f		 pop	 edi
  000e5	5e		 pop	 esi
  000e6	5d		 pop	 ebp
  000e7	33 c0		 xor	 eax, eax
  000e9	64 89 0d 00 00
	00 00		 mov	 DWORD PTR fs:__except_list, ecx
  000f0	5b		 pop	 ebx
  000f1	83 c4 18	 add	 esp, 24			; 00000018H
  000f4	c2 04 00	 ret	 4
_TEXT	ENDS
;	COMDAT text$x
text$x	SEGMENT
$L112916:
  00000	8d 4d e8	 lea	 ecx, DWORD PTR _strName$[ebp]
  00003	e9 00 00 00 00	 jmp	 ??1?$CStringT@DV?$StrTraitATL@DV?$ChTraitsCRT@D@ATL@@@ATL@@@ATL@@QAE@XZ ; ATL::CStringT<char,ATL::StrTraitATL<char,ATL::ChTraitsCRT<char> > >::~CStringT<char,ATL::StrTraitATL<char,ATL::ChTraitsCRT<char> > >
__ehhandler$?OnCS_RELAYPROTECTEDLIST_REQ@CTRelaySvrModule@@IAEKPAUtagPACKETBUF@@@Z:
  00008	b8 00 00 00 00	 mov	 eax, OFFSET FLAT:$T113014
  0000d	e9 00 00 00 00	 jmp	 ___CxxFrameHandler
text$x	ENDS
?OnCS_RELAYPROTECTEDLIST_REQ@CTRelaySvrModule@@IAEKPAUtagPACKETBUF@@@Z ENDP ; CTRelaySvrModule::OnCS_RELAYPROTECTEDLIST_REQ
PUBLIC	?OnCS_RELAYPROTECTEDADD_REQ@CTRelaySvrModule@@IAEKPAUtagPACKETBUF@@@Z ; CTRelaySvrModule::OnCS_RELAYPROTECTEDADD_REQ
;	COMDAT xdata$x
; File c:\program files (x86)\microsoft visual studio .net 2003\vc7\atlmfc\include\atlsimpstr.h
xdata$x	SEGMENT
$T113126 DD	0ffffffffH
	DD	FLAT:$L113026
$T113124 DD	019930520H
	DD	01H
	DD	FLAT:$T113126
	DD	2 DUP(00H)
	DD	2 DUP(00H)
; Function compile flags: /Ogty
; File c:\users\pierr\desktop\4story - oldschool\sources\tserver\trelaysvr\cshandler.cpp
xdata$x	ENDS
;	COMDAT ?OnCS_RELAYPROTECTEDADD_REQ@CTRelaySvrModule@@IAEKPAUtagPACKETBUF@@@Z
_TEXT	SEGMENT
_bOption$ = -20						; size = 1
$T113024 = -16						; size = 4
__$EHRec$ = -12						; size = 12
_strName$ = 8						; size = 4
_pBUF$ = 8						; size = 4
?OnCS_RELAYPROTECTEDADD_REQ@CTRelaySvrModule@@IAEKPAUtagPACKETBUF@@@Z PROC NEAR ; CTRelaySvrModule::OnCS_RELAYPROTECTEDADD_REQ, COMDAT
; _this$ = ecx

; 616  : {

  00000	64 a1 00 00 00
	00		 mov	 eax, DWORD PTR fs:__except_list
  00006	6a ff		 push	 -1
  00008	68 00 00 00 00	 push	 __ehhandler$?OnCS_RELAYPROTECTEDADD_REQ@CTRelaySvrModule@@IAEKPAUtagPACKETBUF@@@Z
  0000d	50		 push	 eax
  0000e	64 89 25 00 00
	00 00		 mov	 DWORD PTR fs:__except_list, esp
  00015	83 ec 08	 sub	 esp, 8
  00018	56		 push	 esi

; 617  : 	CTPlayer* pPlayer = (CTPlayer*)pBUF->m_pSESSION;

  00019	8b 74 24 1c	 mov	 esi, DWORD PTR _pBUF$[esp+20]
  0001d	57		 push	 edi
  0001e	8b 3e		 mov	 edi, DWORD PTR [esi]

; 618  : 	if( !pPlayer || !pPlayer->m_bAuthorized )

  00020	85 ff		 test	 edi, edi
  00022	0f 84 91 00 00
	00		 je	 $L108171
  00028	8a 87 26 01 01
	00		 mov	 al, BYTE PTR [edi+65830]
  0002e	84 c0		 test	 al, al
  00030	0f 84 83 00 00
	00		 je	 $L108171

; 619  : 		return EC_NOERROR;
; 620  : 
; 621  : 	CString strName;

  00036	a1 00 00 00 00	 mov	 eax, DWORD PTR ?g_strmgr@ATL@@3VCAtlStringMgr@1@A
  0003b	b9 00 00 00 00	 mov	 ecx, OFFSET FLAT:?g_strmgr@ATL@@3VCAtlStringMgr@1@A ; ATL::g_strmgr
  00040	ff 50 0c	 call	 DWORD PTR [eax+12]
  00043	83 c0 10	 add	 eax, 16			; 00000010H
  00046	89 44 24 20	 mov	 DWORD PTR _strName$[esp+24], eax

; 622  : 	BYTE bOption;
; 623  : 
; 624  : 	pBUF->m_packet
; 625  : 		>> strName
; 626  : 		>> bOption;

  0004a	8d 4c 24 08	 lea	 ecx, DWORD PTR _bOption$[esp+28]
  0004e	51		 push	 ecx
  0004f	8d 54 24 24	 lea	 edx, DWORD PTR _strName$[esp+28]
  00053	52		 push	 edx
  00054	8d 4e 04	 lea	 ecx, DWORD PTR [esi+4]
  00057	c7 44 24 20 00
	00 00 00	 mov	 DWORD PTR __$EHRec$[esp+44], 0
  0005f	e8 00 00 00 00	 call	 ??5CPacket@@QAEAAV0@AAV?$CStringT@DV?$StrTraitATL@DV?$ChTraitsCRT@D@ATL@@@ATL@@@ATL@@@Z ; CPacket::operator>>
  00064	8b c8		 mov	 ecx, eax
  00066	e8 00 00 00 00	 call	 ??5CPacket@@QAEAAV0@AAE@Z ; CPacket::operator>>

; 627  : 
; 628  : 	pPlayer->AddProtected(strName, bOption);

  0006b	8b 44 24 08	 mov	 eax, DWORD PTR _bOption$[esp+28]
  0006f	50		 push	 eax
  00070	8b 44 24 24	 mov	 eax, DWORD PTR _strName$[esp+28]
  00074	51		 push	 ecx
  00075	83 c0 f0	 add	 eax, -16		; fffffff0H
  00078	89 64 24 14	 mov	 DWORD PTR $T113024[esp+36], esp
  0007c	8b f4		 mov	 esi, esp
  0007e	50		 push	 eax
  0007f	e8 00 00 00 00	 call	 ?CloneData@?$CSimpleStringT@D$0A@@ATL@@CAPAUCStringData@2@PAU32@@Z ; ATL::CSimpleStringT<char,0>::CloneData
  00084	83 c0 10	 add	 eax, 16			; 00000010H
  00087	83 c4 04	 add	 esp, 4
  0008a	8b cf		 mov	 ecx, edi
  0008c	89 06		 mov	 DWORD PTR [esi], eax
  0008e	e8 00 00 00 00	 call	 ?AddProtected@CTPlayer@@QAEXV?$CStringT@DV?$StrTraitATL@DV?$ChTraitsCRT@D@ATL@@@ATL@@@ATL@@E@Z ; CTPlayer::AddProtected

; 629  : 
; 630  : 	return EC_NOERROR;

  00093	8b 44 24 20	 mov	 eax, DWORD PTR _strName$[esp+24]
  00097	83 c0 f0	 add	 eax, -16		; fffffff0H
  0009a	c7 44 24 18 ff
	ff ff ff	 mov	 DWORD PTR __$EHRec$[esp+36], -1
  000a2	8d 48 0c	 lea	 ecx, DWORD PTR [eax+12]
  000a5	83 ca ff	 or	 edx, -1
  000a8	f0 0f c1 11	 lock	  xadd	 DWORD PTR [ecx], edx
  000ac	4a		 dec	 edx
  000ad	85 d2		 test	 edx, edx
  000af	7f 08		 jg	 SHORT $L108171
  000b1	8b 08		 mov	 ecx, DWORD PTR [eax]
  000b3	8b 11		 mov	 edx, DWORD PTR [ecx]
  000b5	50		 push	 eax
  000b6	ff 52 04	 call	 DWORD PTR [edx+4]
$L108171:

; 631  : }

  000b9	8b 4c 24 10	 mov	 ecx, DWORD PTR __$EHRec$[esp+28]
  000bd	5f		 pop	 edi
  000be	33 c0		 xor	 eax, eax
  000c0	64 89 0d 00 00
	00 00		 mov	 DWORD PTR fs:__except_list, ecx
  000c7	5e		 pop	 esi
  000c8	83 c4 14	 add	 esp, 20			; 00000014H
  000cb	c2 04 00	 ret	 4
_TEXT	ENDS
;	COMDAT text$x
text$x	SEGMENT
$L113026:
  00000	8d 4d 04	 lea	 ecx, DWORD PTR _strName$[ebp-4]
  00003	e9 00 00 00 00	 jmp	 ??1?$CStringT@DV?$StrTraitATL@DV?$ChTraitsCRT@D@ATL@@@ATL@@@ATL@@QAE@XZ ; ATL::CStringT<char,ATL::StrTraitATL<char,ATL::ChTraitsCRT<char> > >::~CStringT<char,ATL::StrTraitATL<char,ATL::ChTraitsCRT<char> > >
__ehhandler$?OnCS_RELAYPROTECTEDADD_REQ@CTRelaySvrModule@@IAEKPAUtagPACKETBUF@@@Z:
  00008	b8 00 00 00 00	 mov	 eax, OFFSET FLAT:$T113124
  0000d	e9 00 00 00 00	 jmp	 ___CxxFrameHandler
text$x	ENDS
?OnCS_RELAYPROTECTEDADD_REQ@CTRelaySvrModule@@IAEKPAUtagPACKETBUF@@@Z ENDP ; CTRelaySvrModule::OnCS_RELAYPROTECTEDADD_REQ
PUBLIC	?OnCS_RELAYPROTECTEDDEL_REQ@CTRelaySvrModule@@IAEKPAUtagPACKETBUF@@@Z ; CTRelaySvrModule::OnCS_RELAYPROTECTEDDEL_REQ
EXTRN	?DelProtected@CTPlayer@@QAEXV?$CStringT@DV?$StrTraitATL@DV?$ChTraitsCRT@D@ATL@@@ATL@@@ATL@@@Z:NEAR ; CTPlayer::DelProtected
;	COMDAT xdata$x
; File c:\program files (x86)\microsoft visual studio .net 2003\vc7\atlmfc\include\atlsimpstr.h
xdata$x	SEGMENT
$T113234 DD	0ffffffffH
	DD	FLAT:$L113134
$T113232 DD	019930520H
	DD	01H
	DD	FLAT:$T113234
	DD	2 DUP(00H)
	DD	2 DUP(00H)
; Function compile flags: /Ogty
; File c:\users\pierr\desktop\4story - oldschool\sources\tserver\trelaysvr\cshandler.cpp
xdata$x	ENDS
;	COMDAT ?OnCS_RELAYPROTECTEDDEL_REQ@CTRelaySvrModule@@IAEKPAUtagPACKETBUF@@@Z
_TEXT	SEGMENT
$T113132 = -16						; size = 4
__$EHRec$ = -12						; size = 12
_strName$ = 8						; size = 4
_pBUF$ = 8						; size = 4
?OnCS_RELAYPROTECTEDDEL_REQ@CTRelaySvrModule@@IAEKPAUtagPACKETBUF@@@Z PROC NEAR ; CTRelaySvrModule::OnCS_RELAYPROTECTEDDEL_REQ, COMDAT
; _this$ = ecx

; 634  : {

  00000	6a ff		 push	 -1
  00002	68 00 00 00 00	 push	 __ehhandler$?OnCS_RELAYPROTECTEDDEL_REQ@CTRelaySvrModule@@IAEKPAUtagPACKETBUF@@@Z
  00007	64 a1 00 00 00
	00		 mov	 eax, DWORD PTR fs:__except_list
  0000d	50		 push	 eax
  0000e	64 89 25 00 00
	00 00		 mov	 DWORD PTR fs:__except_list, esp
  00015	51		 push	 ecx
  00016	56		 push	 esi

; 635  : 	CTPlayer* pPlayer = (CTPlayer*)pBUF->m_pSESSION;

  00017	8b 74 24 18	 mov	 esi, DWORD PTR _pBUF$[esp+16]
  0001b	57		 push	 edi
  0001c	8b 3e		 mov	 edi, DWORD PTR [esi]

; 636  : 	if( !pPlayer || !pPlayer->m_bAuthorized )

  0001e	85 ff		 test	 edi, edi
  00020	74 7c		 je	 SHORT $L108183
  00022	8a 87 26 01 01
	00		 mov	 al, BYTE PTR [edi+65830]
  00028	84 c0		 test	 al, al
  0002a	74 72		 je	 SHORT $L108183

; 637  : 		return EC_NOERROR;
; 638  : 
; 639  : 	CString strName;

  0002c	a1 00 00 00 00	 mov	 eax, DWORD PTR ?g_strmgr@ATL@@3VCAtlStringMgr@1@A
  00031	b9 00 00 00 00	 mov	 ecx, OFFSET FLAT:?g_strmgr@ATL@@3VCAtlStringMgr@1@A ; ATL::g_strmgr
  00036	ff 50 0c	 call	 DWORD PTR [eax+12]
  00039	83 c0 10	 add	 eax, 16			; 00000010H
  0003c	89 44 24 1c	 mov	 DWORD PTR _strName$[esp+20], eax

; 640  : 
; 641  : 	pBUF->m_packet
; 642  : 		>> strName;

  00040	8d 4c 24 1c	 lea	 ecx, DWORD PTR _strName$[esp+20]
  00044	51		 push	 ecx
  00045	8d 4e 04	 lea	 ecx, DWORD PTR [esi+4]
  00048	c7 44 24 18 00
	00 00 00	 mov	 DWORD PTR __$EHRec$[esp+36], 0
  00050	e8 00 00 00 00	 call	 ??5CPacket@@QAEAAV0@AAV?$CStringT@DV?$StrTraitATL@DV?$ChTraitsCRT@D@ATL@@@ATL@@@ATL@@@Z ; CPacket::operator>>

; 643  : 
; 644  : 	pPlayer->DelProtected(strName);

  00055	8b 44 24 1c	 mov	 eax, DWORD PTR _strName$[esp+20]
  00059	51		 push	 ecx
  0005a	83 c0 f0	 add	 eax, -16		; fffffff0H
  0005d	89 64 24 0c	 mov	 DWORD PTR $T113132[esp+28], esp
  00061	8b f4		 mov	 esi, esp
  00063	50		 push	 eax
  00064	e8 00 00 00 00	 call	 ?CloneData@?$CSimpleStringT@D$0A@@ATL@@CAPAUCStringData@2@PAU32@@Z ; ATL::CSimpleStringT<char,0>::CloneData
  00069	83 c0 10	 add	 eax, 16			; 00000010H
  0006c	83 c4 04	 add	 esp, 4
  0006f	8b cf		 mov	 ecx, edi
  00071	89 06		 mov	 DWORD PTR [esi], eax
  00073	e8 00 00 00 00	 call	 ?DelProtected@CTPlayer@@QAEXV?$CStringT@DV?$StrTraitATL@DV?$ChTraitsCRT@D@ATL@@@ATL@@@ATL@@@Z ; CTPlayer::DelProtected

; 645  : 
; 646  : 	return EC_NOERROR;

  00078	8b 44 24 1c	 mov	 eax, DWORD PTR _strName$[esp+20]
  0007c	83 c0 f0	 add	 eax, -16		; fffffff0H
  0007f	c7 44 24 14 ff
	ff ff ff	 mov	 DWORD PTR __$EHRec$[esp+32], -1
  00087	8d 50 0c	 lea	 edx, DWORD PTR [eax+12]
  0008a	83 c9 ff	 or	 ecx, -1
  0008d	f0 0f c1 0a	 lock	  xadd	 DWORD PTR [edx], ecx
  00091	49		 dec	 ecx
  00092	85 c9		 test	 ecx, ecx
  00094	7f 08		 jg	 SHORT $L108183
  00096	8b 08		 mov	 ecx, DWORD PTR [eax]
  00098	8b 11		 mov	 edx, DWORD PTR [ecx]
  0009a	50		 push	 eax
  0009b	ff 52 04	 call	 DWORD PTR [edx+4]
$L108183:

; 647  : }

  0009e	8b 4c 24 0c	 mov	 ecx, DWORD PTR __$EHRec$[esp+24]
  000a2	5f		 pop	 edi
  000a3	33 c0		 xor	 eax, eax
  000a5	64 89 0d 00 00
	00 00		 mov	 DWORD PTR fs:__except_list, ecx
  000ac	5e		 pop	 esi
  000ad	83 c4 10	 add	 esp, 16			; 00000010H
  000b0	c2 04 00	 ret	 4
_TEXT	ENDS
;	COMDAT text$x
text$x	SEGMENT
$L113134:
  00000	8d 4d 04	 lea	 ecx, DWORD PTR _strName$[ebp-4]
  00003	e9 00 00 00 00	 jmp	 ??1?$CStringT@DV?$StrTraitATL@DV?$ChTraitsCRT@D@ATL@@@ATL@@@ATL@@QAE@XZ ; ATL::CStringT<char,ATL::StrTraitATL<char,ATL::ChTraitsCRT<char> > >::~CStringT<char,ATL::StrTraitATL<char,ATL::ChTraitsCRT<char> > >
__ehhandler$?OnCS_RELAYPROTECTEDDEL_REQ@CTRelaySvrModule@@IAEKPAUtagPACKETBUF@@@Z:
  00008	b8 00 00 00 00	 mov	 eax, OFFSET FLAT:$T113232
  0000d	e9 00 00 00 00	 jmp	 ___CxxFrameHandler
text$x	ENDS
?OnCS_RELAYPROTECTEDDEL_REQ@CTRelaySvrModule@@IAEKPAUtagPACKETBUF@@@Z ENDP ; CTRelaySvrModule::OnCS_RELAYPROTECTEDDEL_REQ
PUBLIC	??4?$CStringT@DV?$StrTraitATL@DV?$ChTraitsCRT@D@ATL@@@ATL@@@ATL@@QAEAAV01@ABV01@@Z ; ATL::CStringT<char,ATL::StrTraitATL<char,ATL::ChTraitsCRT<char> > >::operator=
; Function compile flags: /Ogty
; File c:\program files (x86)\microsoft visual studio .net 2003\vc7\atlmfc\include\cstringt.h
;	COMDAT ??4?$CStringT@DV?$StrTraitATL@DV?$ChTraitsCRT@D@ATL@@@ATL@@@ATL@@QAEAAV01@ABV01@@Z
_TEXT	SEGMENT
_strSrc$ = 8						; size = 4
??4?$CStringT@DV?$StrTraitATL@DV?$ChTraitsCRT@D@ATL@@@ATL@@@ATL@@QAEAAV01@ABV01@@Z PROC NEAR ; ATL::CStringT<char,ATL::StrTraitATL<char,ATL::ChTraitsCRT<char> > >::operator=, COMDAT
; _this$ = ecx

; 968  : 		CThisSimpleString::operator=( strSrc );

  00000	8b 44 24 04	 mov	 eax, DWORD PTR _strSrc$[esp-4]
  00004	56		 push	 esi
  00005	50		 push	 eax
  00006	8b f1		 mov	 esi, ecx
  00008	e8 00 00 00 00	 call	 ??4?$CSimpleStringT@D$0A@@ATL@@QAEAAV01@ABV01@@Z ; ATL::CSimpleStringT<char,0>::operator=

; 969  : 
; 970  : 		return( *this );

  0000d	8b c6		 mov	 eax, esi
  0000f	5e		 pop	 esi

; 971  : 	}

  00010	c2 04 00	 ret	 4
??4?$CStringT@DV?$StrTraitATL@DV?$ChTraitsCRT@D@ATL@@@ATL@@@ATL@@QAEAAV01@ABV01@@Z ENDP ; ATL::CStringT<char,ATL::StrTraitATL<char,ATL::ChTraitsCRT<char> > >::operator=
_TEXT	ENDS
PUBLIC	?Left@?$CStringT@DV?$StrTraitATL@DV?$ChTraitsCRT@D@ATL@@@ATL@@@ATL@@QBE?AV12@H@Z ; ATL::CStringT<char,ATL::StrTraitATL<char,ATL::ChTraitsCRT<char> > >::Left
; Function compile flags: /Ogty
;	COMDAT ?Left@?$CStringT@DV?$StrTraitATL@DV?$ChTraitsCRT@D@ATL@@@ATL@@@ATL@@QBE?AV12@H@Z
_TEXT	SEGMENT
$T113244 = -4						; size = 4
___$ReturnUdt$ = 8					; size = 4
_nCount$ = 12						; size = 4
?Left@?$CStringT@DV?$StrTraitATL@DV?$ChTraitsCRT@D@ATL@@@ATL@@@ATL@@QBE?AV12@H@Z PROC NEAR ; ATL::CStringT<char,ATL::StrTraitATL<char,ATL::ChTraitsCRT<char> > >::Left, COMDAT
; _this$ = ecx

; 1759 : 	{

  00000	51		 push	 ecx
  00001	56		 push	 esi
  00002	57		 push	 edi

; 1760 : 		// nCount is in XCHARs
; 1761 : 		if (nCount < 0)

  00003	8b 7c 24 14	 mov	 edi, DWORD PTR _nCount$[esp+8]
  00007	85 ff		 test	 edi, edi
  00009	c7 44 24 08 00
	00 00 00	 mov	 DWORD PTR $T113244[esp+12], 0
  00011	7d 02		 jge	 SHORT $L108346

; 1762 : 			nCount = 0;

  00013	33 ff		 xor	 edi, edi
$L108346:

; 1763 : 
; 1764 : 		int nLength = GetLength();

  00015	8b 31		 mov	 esi, DWORD PTR [ecx]

; 1765 : 		if( nCount >= nLength )

  00017	3b 7e f4	 cmp	 edi, DWORD PTR [esi-12]
  0001a	7c 1d		 jl	 SHORT $L108348

; 1766 : 		{
; 1767 : 			return( *this );

  0001c	8d 46 f0	 lea	 eax, DWORD PTR [esi-16]
  0001f	50		 push	 eax
  00020	e8 00 00 00 00	 call	 ?CloneData@?$CSimpleStringT@D$0A@@ATL@@CAPAUCStringData@2@PAU32@@Z ; ATL::CSimpleStringT<char,0>::CloneData
  00025	83 c4 04	 add	 esp, 4
  00028	8b c8		 mov	 ecx, eax
  0002a	8b 44 24 10	 mov	 eax, DWORD PTR ___$ReturnUdt$[esp+8]
  0002e	83 c1 10	 add	 ecx, 16			; 00000010H
  00031	5f		 pop	 edi
  00032	89 08		 mov	 DWORD PTR [eax], ecx
  00034	5e		 pop	 esi

; 1771 : 	}

  00035	59		 pop	 ecx
  00036	c2 08 00	 ret	 8
$L108348:

; 1768 : 		}
; 1769 : 
; 1770 : 		return( CStringT( GetString(), nCount, GetManager() ) );

  00039	8b 4e f0	 mov	 ecx, DWORD PTR [esi-16]
  0003c	8b 11		 mov	 edx, DWORD PTR [ecx]
  0003e	ff 52 10	 call	 DWORD PTR [edx+16]
  00041	50		 push	 eax
  00042	57		 push	 edi
  00043	56		 push	 esi
  00044	8b 74 24 1c	 mov	 esi, DWORD PTR ___$ReturnUdt$[esp+20]
  00048	8b ce		 mov	 ecx, esi
  0004a	e8 00 00 00 00	 call	 ??0?$CSimpleStringT@D$0A@@ATL@@QAE@PBDHPAUIAtlStringMgr@1@@Z ; ATL::CSimpleStringT<char,0>::CSimpleStringT<char,0>
  0004f	5f		 pop	 edi
  00050	8b c6		 mov	 eax, esi
  00052	5e		 pop	 esi

; 1771 : 	}

  00053	59		 pop	 ecx
  00054	c2 08 00	 ret	 8
?Left@?$CStringT@DV?$StrTraitATL@DV?$ChTraitsCRT@D@ATL@@@ATL@@@ATL@@QBE?AV12@H@Z ENDP ; ATL::CStringT<char,ATL::StrTraitATL<char,ATL::ChTraitsCRT<char> > >::Left
_TEXT	ENDS
PUBLIC	?find@?$_Tree@V?$_Tmap_traits@V?$CStringT@DV?$StrTraitATL@DV?$ChTraitsCRT@D@ATL@@@ATL@@@ATL@@EU?$less@V?$CStringT@DV?$StrTraitATL@DV?$ChTraitsCRT@D@ATL@@@ATL@@@ATL@@@std@@V?$allocator@U?$pair@$$CBV?$CStringT@DV?$StrTraitATL@DV?$ChTraitsCRT@D@ATL@@@ATL@@@ATL@@E@std@@@4@$0A@@std@@@std@@QAE?AViterator@12@ABV?$CStringT@DV?$StrTraitATL@DV?$ChTraitsCRT@D@ATL@@@ATL@@@ATL@@@Z ; std::_Tree<std::_Tmap_traits<ATL::CStringT<char,ATL::StrTraitATL<char,ATL::ChTraitsCRT<char> > >,unsigned char,std::less<ATL::CStringT<char,ATL::StrTraitATL<char,ATL::ChTraitsCRT<char> > > >,std::allocator<std::pair<ATL::CStringT<char,ATL::StrTraitATL<char,ATL::ChTraitsCRT<char> > > const ,unsigned char> >,0> >::find
; Function compile flags: /Ogty
; File c:\program files (x86)\microsoft visual studio .net 2003\vc7\include\xtree
;	COMDAT ?find@?$_Tree@V?$_Tmap_traits@V?$CStringT@DV?$StrTraitATL@DV?$ChTraitsCRT@D@ATL@@@ATL@@@ATL@@EU?$less@V?$CStringT@DV?$StrTraitATL@DV?$ChTraitsCRT@D@ATL@@@ATL@@@ATL@@@std@@V?$allocator@U?$pair@$$CBV?$CStringT@DV?$StrTraitATL@DV?$ChTraitsCRT@D@ATL@@@ATL@@@ATL@@E@std@@@4@$0A@@std@@@std@@QAE?AViterator@12@ABV?$CStringT@DV?$StrTraitATL@DV?$ChTraitsCRT@D@ATL@@@ATL@@@ATL@@@Z
_TEXT	SEGMENT
$T113313 = -4						; size = 4
___$ReturnUdt$ = 8					; size = 4
__Where$ = 12						; size = 4
__Keyval$ = 12						; size = 4
?find@?$_Tree@V?$_Tmap_traits@V?$CStringT@DV?$StrTraitATL@DV?$ChTraitsCRT@D@ATL@@@ATL@@@ATL@@EU?$less@V?$CStringT@DV?$StrTraitATL@DV?$ChTraitsCRT@D@ATL@@@ATL@@@ATL@@@std@@V?$allocator@U?$pair@$$CBV?$CStringT@DV?$StrTraitATL@DV?$ChTraitsCRT@D@ATL@@@ATL@@@ATL@@E@std@@@4@$0A@@std@@@std@@QAE?AViterator@12@ABV?$CStringT@DV?$StrTraitATL@DV?$ChTraitsCRT@D@ATL@@@ATL@@@ATL@@@Z PROC NEAR ; std::_Tree<std::_Tmap_traits<ATL::CStringT<char,ATL::StrTraitATL<char,ATL::ChTraitsCRT<char> > >,unsigned char,std::less<ATL::CStringT<char,ATL::StrTraitATL<char,ATL::ChTraitsCRT<char> > > >,std::allocator<std::pair<ATL::CStringT<char,ATL::StrTraitATL<char,ATL::ChTraitsCRT<char> > > const ,unsigned char> >,0> >::find, COMDAT
; _this$ = ecx

; 787  : 		{	// find an element in mutable sequence that matches _Keyval

  00000	51		 push	 ecx
  00001	56		 push	 esi
  00002	57		 push	 edi

; 788  : 		iterator _Where = lower_bound(_Keyval);

  00003	8b 7c 24 14	 mov	 edi, DWORD PTR __Keyval$[esp+8]
  00007	57		 push	 edi
  00008	8b f1		 mov	 esi, ecx
  0000a	e8 00 00 00 00	 call	 ?_Lbound@?$_Tree@V?$_Tmap_traits@V?$CStringT@DV?$StrTraitATL@DV?$ChTraitsCRT@D@ATL@@@ATL@@@ATL@@EU?$less@V?$CStringT@DV?$StrTraitATL@DV?$ChTraitsCRT@D@ATL@@@ATL@@@ATL@@@std@@V?$allocator@U?$pair@$$CBV?$CStringT@DV?$StrTraitATL@DV?$ChTraitsCRT@D@ATL@@@ATL@@@ATL@@E@std@@@4@$0A@@std@@@std@@IBEPAU_Node@?$_Tree_nod@V?$_Tmap_traits@V?$CStringT@DV?$StrTraitATL@DV?$ChTraitsCRT@D@ATL@@@ATL@@@ATL@@EU?$less@V?$CStringT@DV?$StrTraitATL@DV?$ChTraitsCRT@D@ATL@@@ATL@@@ATL@@@std@@V?$allocator@U?$pair@$$CBV?$CStringT@DV?$StrTraitATL@DV?$ChTraitsCRT@D@ATL@@@ATL@@@ATL@@E@std@@@4@$0A@@std@@@2@ABV?$CStringT@DV?$StrTraitATL@DV?$ChTraitsCRT@D@ATL@@@ATL@@@ATL@@@Z ; std::_Tree<std::_Tmap_traits<ATL::CStringT<char,ATL::StrTraitATL<char,ATL::ChTraitsCRT<char> > >,unsigned char,std::less<ATL::CStringT<char,ATL::StrTraitATL<char,ATL::ChTraitsCRT<char> > > >,std::allocator<std::pair<ATL::CStringT<char,ATL::StrTraitATL<char,ATL::ChTraitsCRT<char> > > const ,unsigned char> >,0> >::_Lbound

; 789  : 		return (_Where == end() || this->comp(_Keyval, _Key(_Where._Mynode()))
; 790  : 			? end() : _Where);

  0000f	3b 46 04	 cmp	 eax, DWORD PTR [esi+4]
  00012	89 44 24 14	 mov	 DWORD PTR __Where$[esp+8], eax
  00016	74 25		 je	 SHORT $L113312
  00018	8b 40 0c	 mov	 eax, DWORD PTR [eax+12]
  0001b	8b 0f		 mov	 ecx, DWORD PTR [edi]
  0001d	50		 push	 eax
  0001e	51		 push	 ecx
  0001f	e8 00 00 00 00	 call	 __mbscmp
  00024	83 c4 08	 add	 esp, 8
  00027	85 c0		 test	 eax, eax
  00029	7c 12		 jl	 SHORT $L113312
  0002b	8d 44 24 14	 lea	 eax, DWORD PTR __Where$[esp+8]
  0002f	8b 08		 mov	 ecx, DWORD PTR [eax]
  00031	8b 44 24 10	 mov	 eax, DWORD PTR ___$ReturnUdt$[esp+8]
  00035	5f		 pop	 edi
  00036	89 08		 mov	 DWORD PTR [eax], ecx
  00038	5e		 pop	 esi

; 791  : 		}

  00039	59		 pop	 ecx
  0003a	c2 08 00	 ret	 8
$L113312:

; 789  : 		return (_Where == end() || this->comp(_Keyval, _Key(_Where._Mynode()))
; 790  : 			? end() : _Where);

  0003d	8b 46 04	 mov	 eax, DWORD PTR [esi+4]
  00040	89 44 24 08	 mov	 DWORD PTR $T113313[esp+12], eax
  00044	8d 44 24 08	 lea	 eax, DWORD PTR $T113313[esp+12]
  00048	8b 08		 mov	 ecx, DWORD PTR [eax]
  0004a	8b 44 24 10	 mov	 eax, DWORD PTR ___$ReturnUdt$[esp+8]
  0004e	5f		 pop	 edi
  0004f	89 08		 mov	 DWORD PTR [eax], ecx
  00051	5e		 pop	 esi

; 791  : 		}

  00052	59		 pop	 ecx
  00053	c2 08 00	 ret	 8
?find@?$_Tree@V?$_Tmap_traits@V?$CStringT@DV?$StrTraitATL@DV?$ChTraitsCRT@D@ATL@@@ATL@@@ATL@@EU?$less@V?$CStringT@DV?$StrTraitATL@DV?$ChTraitsCRT@D@ATL@@@ATL@@@ATL@@@std@@V?$allocator@U?$pair@$$CBV?$CStringT@DV?$StrTraitATL@DV?$ChTraitsCRT@D@ATL@@@ATL@@@ATL@@E@std@@@4@$0A@@std@@@std@@QAE?AViterator@12@ABV?$CStringT@DV?$StrTraitATL@DV?$ChTraitsCRT@D@ATL@@@ATL@@@ATL@@@Z ENDP ; std::_Tree<std::_Tmap_traits<ATL::CStringT<char,ATL::StrTraitATL<char,ATL::ChTraitsCRT<char> > >,unsigned char,std::less<ATL::CStringT<char,ATL::StrTraitATL<char,ATL::ChTraitsCRT<char> > > >,std::allocator<std::pair<ATL::CStringT<char,ATL::StrTraitATL<char,ATL::ChTraitsCRT<char> > > const ,unsigned char> >,0> >::find
_TEXT	ENDS
PUBLIC	?find@?$_Tree@V?$_Tmap_traits@GV?$map@KPAVCTPlayer@@U?$less@K@std@@V?$allocator@U?$pair@$$CBKPAVCTPlayer@@@std@@@3@@std@@U?$less@G@2@V?$allocator@U?$pair@$$CBGV?$map@KPAVCTPlayer@@U?$less@K@std@@V?$allocator@U?$pair@$$CBKPAVCTPlayer@@@std@@@3@@std@@@std@@@2@$0A@@std@@@std@@QAE?AViterator@12@ABG@Z ; std::_Tree<std::_Tmap_traits<unsigned short,std::map<unsigned long,CTPlayer *,std::less<unsigned long>,std::allocator<std::pair<unsigned long const ,CTPlayer *> > >,std::less<unsigned short>,std::allocator<std::pair<unsigned short const ,std::map<unsigned long,CTPlayer *,std::less<unsigned long>,std::allocator<std::pair<unsigned long const ,CTPlayer *> > > > >,0> >::find
; Function compile flags: /Ogty
;	COMDAT ?find@?$_Tree@V?$_Tmap_traits@GV?$map@KPAVCTPlayer@@U?$less@K@std@@V?$allocator@U?$pair@$$CBKPAVCTPlayer@@@std@@@3@@std@@U?$less@G@2@V?$allocator@U?$pair@$$CBGV?$map@KPAVCTPlayer@@U?$less@K@std@@V?$allocator@U?$pair@$$CBKPAVCTPlayer@@@std@@@3@@std@@@std@@@2@$0A@@std@@@std@@QAE?AViterator@12@ABG@Z
_TEXT	SEGMENT
$T113431 = -4						; size = 4
___$ReturnUdt$ = 8					; size = 4
__Where$ = 12						; size = 4
__Keyval$ = 12						; size = 4
?find@?$_Tree@V?$_Tmap_traits@GV?$map@KPAVCTPlayer@@U?$less@K@std@@V?$allocator@U?$pair@$$CBKPAVCTPlayer@@@std@@@3@@std@@U?$less@G@2@V?$allocator@U?$pair@$$CBGV?$map@KPAVCTPlayer@@U?$less@K@std@@V?$allocator@U?$pair@$$CBKPAVCTPlayer@@@std@@@3@@std@@@std@@@2@$0A@@std@@@std@@QAE?AViterator@12@ABG@Z PROC NEAR ; std::_Tree<std::_Tmap_traits<unsigned short,std::map<unsigned long,CTPlayer *,std::less<unsigned long>,std::allocator<std::pair<unsigned long const ,CTPlayer *> > >,std::less<unsigned short>,std::allocator<std::pair<unsigned short const ,std::map<unsigned long,CTPlayer *,std::less<unsigned long>,std::allocator<std::pair<unsigned long const ,CTPlayer *> > > > >,0> >::find, COMDAT
; _this$ = ecx

; 787  : 		{	// find an element in mutable sequence that matches _Keyval

  00000	51		 push	 ecx

; 788  : 		iterator _Where = lower_bound(_Keyval);

  00001	8b 51 04	 mov	 edx, DWORD PTR [ecx+4]
  00004	8b 42 04	 mov	 eax, DWORD PTR [edx+4]
  00007	53		 push	 ebx
  00008	8a 58 1d	 mov	 bl, BYTE PTR [eax+29]
  0000b	84 db		 test	 bl, bl
  0000d	57		 push	 edi
  0000e	8b 7c 24 14	 mov	 edi, DWORD PTR __Keyval$[esp+8]
  00012	75 1b		 jne	 SHORT $L113508
  00014	56		 push	 esi
  00015	66 8b 37	 mov	 si, WORD PTR [edi]
$L113507:
  00018	66 39 70 0c	 cmp	 WORD PTR [eax+12], si
  0001c	73 05		 jae	 SHORT $L113509
  0001e	8b 40 08	 mov	 eax, DWORD PTR [eax+8]
  00021	eb 04		 jmp	 SHORT $L113510
$L113509:
  00023	8b d0		 mov	 edx, eax
  00025	8b 00		 mov	 eax, DWORD PTR [eax]
$L113510:
  00027	8a 58 1d	 mov	 bl, BYTE PTR [eax+29]
  0002a	84 db		 test	 bl, bl
  0002c	74 ea		 je	 SHORT $L113507
  0002e	5e		 pop	 esi
$L113508:

; 789  : 		return (_Where == end() || this->comp(_Keyval, _Key(_Where._Mynode()))
; 790  : 			? end() : _Where);

  0002f	8b 41 04	 mov	 eax, DWORD PTR [ecx+4]
  00032	3b d0		 cmp	 edx, eax
  00034	89 54 24 14	 mov	 DWORD PTR __Where$[esp+8], edx
  00038	74 1b		 je	 SHORT $L113430
  0003a	66 8b 0f	 mov	 cx, WORD PTR [edi]
  0003d	66 3b 4a 0c	 cmp	 cx, WORD PTR [edx+12]
  00041	72 12		 jb	 SHORT $L113430
  00043	8d 44 24 14	 lea	 eax, DWORD PTR __Where$[esp+8]
  00047	8b 10		 mov	 edx, DWORD PTR [eax]
  00049	8b 44 24 10	 mov	 eax, DWORD PTR ___$ReturnUdt$[esp+8]
  0004d	5f		 pop	 edi
  0004e	89 10		 mov	 DWORD PTR [eax], edx
  00050	5b		 pop	 ebx

; 791  : 		}

  00051	59		 pop	 ecx
  00052	c2 08 00	 ret	 8
$L113430:

; 789  : 		return (_Where == end() || this->comp(_Keyval, _Key(_Where._Mynode()))
; 790  : 			? end() : _Where);

  00055	89 44 24 08	 mov	 DWORD PTR $T113431[esp+12], eax
  00059	8d 44 24 08	 lea	 eax, DWORD PTR $T113431[esp+12]
  0005d	8b 10		 mov	 edx, DWORD PTR [eax]
  0005f	8b 44 24 10	 mov	 eax, DWORD PTR ___$ReturnUdt$[esp+8]
  00063	5f		 pop	 edi
  00064	89 10		 mov	 DWORD PTR [eax], edx
  00066	5b		 pop	 ebx

; 791  : 		}

  00067	59		 pop	 ecx
  00068	c2 08 00	 ret	 8
?find@?$_Tree@V?$_Tmap_traits@GV?$map@KPAVCTPlayer@@U?$less@K@std@@V?$allocator@U?$pair@$$CBKPAVCTPlayer@@@std@@@3@@std@@U?$less@G@2@V?$allocator@U?$pair@$$CBGV?$map@KPAVCTPlayer@@U?$less@K@std@@V?$allocator@U?$pair@$$CBKPAVCTPlayer@@@std@@@3@@std@@@std@@@2@$0A@@std@@@std@@QAE?AViterator@12@ABG@Z ENDP ; std::_Tree<std::_Tmap_traits<unsigned short,std::map<unsigned long,CTPlayer *,std::less<unsigned long>,std::allocator<std::pair<unsigned long const ,CTPlayer *> > >,std::less<unsigned short>,std::allocator<std::pair<unsigned short const ,std::map<unsigned long,CTPlayer *,std::less<unsigned long>,std::allocator<std::pair<unsigned long const ,CTPlayer *> > > > >,0> >::find
_TEXT	ENDS
PUBLIC	??Eiterator@?$_Tree@V?$_Tmap_traits@KPAVCTPlayer@@U?$less@K@std@@V?$allocator@U?$pair@$$CBKPAVCTPlayer@@@std@@@3@$0A@@std@@@std@@QAE?AV012@H@Z ; std::_Tree<std::_Tmap_traits<unsigned long,CTPlayer *,std::less<unsigned long>,std::allocator<std::pair<unsigned long const ,CTPlayer *> >,0> >::iterator::operator++
; Function compile flags: /Ogty
;	COMDAT ??Eiterator@?$_Tree@V?$_Tmap_traits@KPAVCTPlayer@@U?$less@K@std@@V?$allocator@U?$pair@$$CBKPAVCTPlayer@@@std@@@3@$0A@@std@@@std@@QAE?AV012@H@Z
_TEXT	SEGMENT
___$ReturnUdt$ = 8					; size = 4
___formal$ = 12						; size = 4
??Eiterator@?$_Tree@V?$_Tmap_traits@KPAVCTPlayer@@U?$less@K@std@@V?$allocator@U?$pair@$$CBKPAVCTPlayer@@@std@@@3@$0A@@std@@@std@@QAE?AV012@H@Z PROC NEAR ; std::_Tree<std::_Tmap_traits<unsigned long,CTPlayer *,std::less<unsigned long>,std::allocator<std::pair<unsigned long const ,CTPlayer *> >,0> >::iterator::operator++, COMDAT
; _this$ = ecx

; 332  : 			{	// postincrement

  00000	56		 push	 esi

; 333  : 			iterator _Tmp = *this;

  00001	8b 31		 mov	 esi, DWORD PTR [ecx]

; 334  : 			++*this;

  00003	e8 00 00 00 00	 call	 ?_Inc@const_iterator@?$_Tree@V?$_Tmap_traits@KPAVCTPlayer@@U?$less@K@std@@V?$allocator@U?$pair@$$CBKPAVCTPlayer@@@std@@@3@$0A@@std@@@std@@QAEXXZ ; std::_Tree<std::_Tmap_traits<unsigned long,CTPlayer *,std::less<unsigned long>,std::allocator<std::pair<unsigned long const ,CTPlayer *> >,0> >::const_iterator::_Inc

; 335  : 			return (_Tmp);

  00008	8b 44 24 08	 mov	 eax, DWORD PTR ___$ReturnUdt$[esp]
  0000c	89 30		 mov	 DWORD PTR [eax], esi
  0000e	5e		 pop	 esi

; 336  : 			}

  0000f	c2 08 00	 ret	 8
??Eiterator@?$_Tree@V?$_Tmap_traits@KPAVCTPlayer@@U?$less@K@std@@V?$allocator@U?$pair@$$CBKPAVCTPlayer@@@std@@@3@$0A@@std@@@std@@QAE?AV012@H@Z ENDP ; std::_Tree<std::_Tmap_traits<unsigned long,CTPlayer *,std::less<unsigned long>,std::allocator<std::pair<unsigned long const ,CTPlayer *> >,0> >::iterator::operator++
_TEXT	ENDS
PUBLIC	??Eiterator@?$_Tree@V?$_Tmap_traits@GPAVCTParty@@U?$less@G@std@@V?$allocator@U?$pair@$$CBGPAVCTParty@@@std@@@3@$0A@@std@@@std@@QAE?AV012@H@Z ; std::_Tree<std::_Tmap_traits<unsigned short,CTParty *,std::less<unsigned short>,std::allocator<std::pair<unsigned short const ,CTParty *> >,0> >::iterator::operator++
; Function compile flags: /Ogty
;	COMDAT ??Eiterator@?$_Tree@V?$_Tmap_traits@GPAVCTParty@@U?$less@G@std@@V?$allocator@U?$pair@$$CBGPAVCTParty@@@std@@@3@$0A@@std@@@std@@QAE?AV012@H@Z
_TEXT	SEGMENT
___$ReturnUdt$ = 8					; size = 4
___formal$ = 12						; size = 4
??Eiterator@?$_Tree@V?$_Tmap_traits@GPAVCTParty@@U?$less@G@std@@V?$allocator@U?$pair@$$CBGPAVCTParty@@@std@@@3@$0A@@std@@@std@@QAE?AV012@H@Z PROC NEAR ; std::_Tree<std::_Tmap_traits<unsigned short,CTParty *,std::less<unsigned short>,std::allocator<std::pair<unsigned short const ,CTParty *> >,0> >::iterator::operator++, COMDAT
; _this$ = ecx

; 332  : 			{	// postincrement

  00000	56		 push	 esi

; 333  : 			iterator _Tmp = *this;

  00001	8b 31		 mov	 esi, DWORD PTR [ecx]

; 334  : 			++*this;

  00003	e8 00 00 00 00	 call	 ?_Inc@const_iterator@?$_Tree@V?$_Tmap_traits@GPAVCTParty@@U?$less@G@std@@V?$allocator@U?$pair@$$CBGPAVCTParty@@@std@@@3@$0A@@std@@@std@@QAEXXZ ; std::_Tree<std::_Tmap_traits<unsigned short,CTParty *,std::less<unsigned short>,std::allocator<std::pair<unsigned short const ,CTParty *> >,0> >::const_iterator::_Inc

; 335  : 			return (_Tmp);

  00008	8b 44 24 08	 mov	 eax, DWORD PTR ___$ReturnUdt$[esp]
  0000c	89 30		 mov	 DWORD PTR [eax], esi
  0000e	5e		 pop	 esi

; 336  : 			}

  0000f	c2 08 00	 ret	 8
??Eiterator@?$_Tree@V?$_Tmap_traits@GPAVCTParty@@U?$less@G@std@@V?$allocator@U?$pair@$$CBGPAVCTParty@@@std@@@3@$0A@@std@@@std@@QAE?AV012@H@Z ENDP ; std::_Tree<std::_Tmap_traits<unsigned short,CTParty *,std::less<unsigned short>,std::allocator<std::pair<unsigned short const ,CTParty *> >,0> >::iterator::operator++
_TEXT	ENDS
PUBLIC	??1logic_error@std@@UAE@XZ			; std::logic_error::~logic_error
PUBLIC	?what@logic_error@std@@UBEPBDXZ			; std::logic_error::what
PUBLIC	??_7logic_error@std@@6B@			; std::logic_error::`vftable'
PUBLIC	??_Glogic_error@std@@UAEPAXI@Z			; std::logic_error::`scalar deleting destructor'
EXTRN	??_Elogic_error@std@@UAEPAXI@Z:NEAR		; std::logic_error::`vector deleting destructor'
EXTRN	??1exception@@UAE@XZ:NEAR			; exception::~exception
;	COMDAT ??_7logic_error@std@@6B@
; File c:\program files (x86)\microsoft visual studio .net 2003\vc7\include\iosfwd
CONST	SEGMENT
??_7logic_error@std@@6B@ DD FLAT:??_Elogic_error@std@@UAEPAXI@Z ; std::logic_error::`vftable'
	DD	FLAT:?what@logic_error@std@@UBEPBDXZ
; Function compile flags: /Ogty
; File c:\program files (x86)\microsoft visual studio .net 2003\vc7\include\stdexcept
CONST	ENDS
;	COMDAT ??1logic_error@std@@UAE@XZ
_TEXT	SEGMENT
??1logic_error@std@@UAE@XZ PROC NEAR			; std::logic_error::~logic_error, COMDAT
; _this$ = ecx

; 23   : 		{}	// destroy the object

  00000	56		 push	 esi
  00001	8b f1		 mov	 esi, ecx
  00003	c7 06 00 00 00
	00		 mov	 DWORD PTR [esi], OFFSET FLAT:??_7logic_error@std@@6B@
  00009	83 7e 24 10	 cmp	 DWORD PTR [esi+36], 16	; 00000010H
  0000d	72 0c		 jb	 SHORT $L113681
  0000f	8b 46 10	 mov	 eax, DWORD PTR [esi+16]
  00012	50		 push	 eax
  00013	e8 00 00 00 00	 call	 ??3@YAXPAX@Z		; operator delete
  00018	83 c4 04	 add	 esp, 4
$L113681:
  0001b	33 c0		 xor	 eax, eax
  0001d	c7 46 24 0f 00
	00 00		 mov	 DWORD PTR [esi+36], 15	; 0000000fH
  00024	89 46 20	 mov	 DWORD PTR [esi+32], eax
  00027	88 46 10	 mov	 BYTE PTR [esi+16], al
  0002a	8b ce		 mov	 ecx, esi
  0002c	5e		 pop	 esi
  0002d	e9 00 00 00 00	 jmp	 ??1exception@@UAE@XZ	; exception::~exception
??1logic_error@std@@UAE@XZ ENDP				; std::logic_error::~logic_error
; Function compile flags: /Ogty
_TEXT	ENDS
;	COMDAT ?what@logic_error@std@@UBEPBDXZ
_TEXT	SEGMENT
?what@logic_error@std@@UBEPBDXZ PROC NEAR		; std::logic_error::what, COMDAT
; _this$ = ecx

; 27   : 		return (_Str.c_str());

  00000	83 79 24 10	 cmp	 DWORD PTR [ecx+36], 16	; 00000010H
  00004	72 04		 jb	 SHORT $L113704
  00006	8b 41 10	 mov	 eax, DWORD PTR [ecx+16]

; 28   : 		}

  00009	c3		 ret	 0

; 27   : 		return (_Str.c_str());

$L113704:
  0000a	8d 41 10	 lea	 eax, DWORD PTR [ecx+16]

; 28   : 		}

  0000d	c3		 ret	 0
?what@logic_error@std@@UBEPBDXZ ENDP			; std::logic_error::what
; Function compile flags: /Ogty
_TEXT	ENDS
;	COMDAT ??_Glogic_error@std@@UAEPAXI@Z
_TEXT	SEGMENT
___flags$ = 8						; size = 4
??_Glogic_error@std@@UAEPAXI@Z PROC NEAR		; std::logic_error::`scalar deleting destructor', COMDAT
; _this$ = ecx
  00000	56		 push	 esi
  00001	8b f1		 mov	 esi, ecx
  00003	e8 00 00 00 00	 call	 ??1logic_error@std@@UAE@XZ ; std::logic_error::~logic_error
  00008	f6 44 24 08 01	 test	 BYTE PTR ___flags$[esp], 1
  0000d	74 09		 je	 SHORT $L113712
  0000f	56		 push	 esi
  00010	e8 00 00 00 00	 call	 ??3@YAXPAX@Z		; operator delete
  00015	83 c4 04	 add	 esp, 4
$L113712:
  00018	8b c6		 mov	 eax, esi
  0001a	5e		 pop	 esi
  0001b	c2 04 00	 ret	 4
??_Glogic_error@std@@UAEPAXI@Z ENDP			; std::logic_error::`scalar deleting destructor'
_TEXT	ENDS
PUBLIC	?LoadStringA@?$CStringT@DV?$StrTraitATL@DV?$ChTraitsCRT@D@ATL@@@ATL@@@ATL@@QAEHI@Z ; ATL::CStringT<char,ATL::StrTraitATL<char,ATL::ChTraitsCRT<char> > >::LoadStringA
; Function compile flags: /Ogty
; File c:\program files (x86)\microsoft visual studio .net 2003\vc7\atlmfc\include\cstringt.h
;	COMDAT ?LoadStringA@?$CStringT@DV?$StrTraitATL@DV?$ChTraitsCRT@D@ATL@@@ATL@@@ATL@@QAEHI@Z
_TEXT	SEGMENT
_nID$ = 8						; size = 4
?LoadStringA@?$CStringT@DV?$StrTraitATL@DV?$ChTraitsCRT@D@ATL@@@ATL@@@ATL@@QAEHI@Z PROC NEAR ; ATL::CStringT<char,ATL::StrTraitATL<char,ATL::ChTraitsCRT<char> > >::LoadStringA, COMDAT
; _this$ = ecx

; 1969 : 	{

  00000	56		 push	 esi
  00001	57		 push	 edi

; 1970 : 		HINSTANCE hInst = StringTraits::FindStringResourceInstance( nID );

  00002	8b 7c 24 0c	 mov	 edi, DWORD PTR _nID$[esp+4]
  00006	6a 00		 push	 0
  00008	57		 push	 edi
  00009	8b f1		 mov	 esi, ecx
  0000b	e8 00 00 00 00	 call	 ?AtlFindStringResourceInstance@ATL@@YAPAUHINSTANCE__@@IG@Z ; ATL::AtlFindStringResourceInstance
  00010	83 c4 08	 add	 esp, 8

; 1971 : 		if( hInst == NULL )

  00013	85 c0		 test	 eax, eax
  00015	75 05		 jne	 SHORT $L102896
  00017	5f		 pop	 edi
  00018	5e		 pop	 esi

; 1977 : 	}

  00019	c2 04 00	 ret	 4
$L102896:

; 1972 : 		{
; 1973 : 			return( FALSE );
; 1974 : 		}
; 1975 : 
; 1976 : 		return( LoadString( hInst, nID ) );		

  0001c	57		 push	 edi
  0001d	50		 push	 eax
  0001e	8b ce		 mov	 ecx, esi
  00020	e8 00 00 00 00	 call	 ?LoadStringA@?$CStringT@DV?$StrTraitATL@DV?$ChTraitsCRT@D@ATL@@@ATL@@@ATL@@QAEHPAUHINSTANCE__@@I@Z ; ATL::CStringT<char,ATL::StrTraitATL<char,ATL::ChTraitsCRT<char> > >::LoadStringA
  00025	5f		 pop	 edi
  00026	5e		 pop	 esi

; 1977 : 	}

  00027	c2 04 00	 ret	 4
?LoadStringA@?$CStringT@DV?$StrTraitATL@DV?$ChTraitsCRT@D@ATL@@@ATL@@@ATL@@QAEHI@Z ENDP ; ATL::CStringT<char,ATL::StrTraitATL<char,ATL::ChTraitsCRT<char> > >::LoadStringA
_TEXT	ENDS
PUBLIC	?CheckImplicitLoad@?$CStringT@DV?$StrTraitATL@DV?$ChTraitsCRT@D@ATL@@@ATL@@@ATL@@AAE_NPBX@Z ; ATL::CStringT<char,ATL::StrTraitATL<char,ATL::ChTraitsCRT<char> > >::CheckImplicitLoad
; Function compile flags: /Ogty
;	COMDAT ?CheckImplicitLoad@?$CStringT@DV?$StrTraitATL@DV?$ChTraitsCRT@D@ATL@@@ATL@@@ATL@@AAE_NPBX@Z
_TEXT	SEGMENT
_pv$ = 8						; size = 4
?CheckImplicitLoad@?$CStringT@DV?$StrTraitATL@DV?$ChTraitsCRT@D@ATL@@@ATL@@@ATL@@AAE_NPBX@Z PROC NEAR ; ATL::CStringT<char,ATL::StrTraitATL<char,ATL::ChTraitsCRT<char> > >::CheckImplicitLoad, COMDAT
; _this$ = ecx

; 2229 : 	{

  00000	57		 push	 edi
  00001	8b f9		 mov	 edi, ecx

; 2230 : 		bool bRet = false;
; 2231 : 
; 2232 : 		if( (pv != NULL) && IS_INTRESOURCE( pv ) )

  00003	8b 4c 24 08	 mov	 ecx, DWORD PTR _pv$[esp]
  00007	32 c0		 xor	 al, al
  00009	85 c9		 test	 ecx, ecx
  0000b	74 27		 je	 SHORT $L103411
  0000d	f7 c1 00 00 ff
	ff		 test	 ecx, -65536		; ffff0000H
  00013	75 1f		 jne	 SHORT $L103411
  00015	56		 push	 esi

; 2233 : 		{
; 2234 : 			UINT nID = LOWORD( reinterpret_cast< DWORD_PTR >( pv ) );

  00016	0f b7 f1	 movzx	 esi, cx

; 2235 : 			if( !LoadString( nID ) )

  00019	6a 00		 push	 0
  0001b	56		 push	 esi
  0001c	e8 00 00 00 00	 call	 ?AtlFindStringResourceInstance@ATL@@YAPAUHINSTANCE__@@IG@Z ; ATL::AtlFindStringResourceInstance
  00021	83 c4 08	 add	 esp, 8
  00024	85 c0		 test	 eax, eax
  00026	74 09		 je	 SHORT $L113729
  00028	56		 push	 esi
  00029	50		 push	 eax
  0002a	8b cf		 mov	 ecx, edi
  0002c	e8 00 00 00 00	 call	 ?LoadStringA@?$CStringT@DV?$StrTraitATL@DV?$ChTraitsCRT@D@ATL@@@ATL@@@ATL@@QAEHPAUHINSTANCE__@@I@Z ; ATL::CStringT<char,ATL::StrTraitATL<char,ATL::ChTraitsCRT<char> > >::LoadStringA
$L113729:

; 2236 : 			{
; 2237 : 				ATLTRACE( atlTraceString, 2, _T( "Warning: implicit LoadString(%u) failed\n" ), nID );
; 2238 : 			}
; 2239 : 			bRet = true;

  00031	b0 01		 mov	 al, 1
  00033	5e		 pop	 esi
$L103411:
  00034	5f		 pop	 edi

; 2240 : 		}
; 2241 : 
; 2242 : 		return( bRet );
; 2243 : 	}

  00035	c2 04 00	 ret	 4
?CheckImplicitLoad@?$CStringT@DV?$StrTraitATL@DV?$ChTraitsCRT@D@ATL@@@ATL@@@ATL@@AAE_NPBX@Z ENDP ; ATL::CStringT<char,ATL::StrTraitATL<char,ATL::ChTraitsCRT<char> > >::CheckImplicitLoad
_TEXT	ENDS
PUBLIC	?assign@?$basic_string@DU?$char_traits@D@std@@V?$allocator@D@2@@std@@QAEAAV12@ABV12@II@Z ; std::basic_string<char,std::char_traits<char>,std::allocator<char> >::assign
; Function compile flags: /Ogty
; File c:\program files (x86)\microsoft visual studio .net 2003\vc7\include\xstring
;	COMDAT ?assign@?$basic_string@DU?$char_traits@D@std@@V?$allocator@D@2@@std@@QAEAAV12@ABV12@II@Z
_TEXT	SEGMENT
__Right$ = 8						; size = 4
__Roff$ = 12						; size = 4
__Count$ = 16						; size = 4
?assign@?$basic_string@DU?$char_traits@D@std@@V?$allocator@D@2@@std@@QAEAAV12@ABV12@II@Z PROC NEAR ; std::basic_string<char,std::char_traits<char>,std::allocator<char> >::assign, COMDAT
; _this$ = ecx

; 590  : 		{	// assign _Right [_Roff, _Roff + _Count)

  00000	53		 push	 ebx
  00001	55		 push	 ebp
  00002	56		 push	 esi

; 591  : 		if (_Right.size() < _Roff)

  00003	8b 74 24 14	 mov	 esi, DWORD PTR __Roff$[esp+8]
  00007	57		 push	 edi
  00008	8b 7c 24 14	 mov	 edi, DWORD PTR __Right$[esp+12]
  0000c	39 77 14	 cmp	 DWORD PTR [edi+20], esi
  0000f	8b d9		 mov	 ebx, ecx
  00011	73 05		 jae	 SHORT $L103440

; 592  : 			_String_base::_Xran();	// _Roff off end

  00013	e8 00 00 00 00	 call	 ?_Xran@_String_base@std@@QBEXXZ ; std::_String_base::_Xran
$L103440:

; 593  : 		size_type _Num = _Right.size() - _Roff;

  00018	8b 6f 14	 mov	 ebp, DWORD PTR [edi+20]

; 594  : 		if (_Count < _Num)

  0001b	8b 44 24 1c	 mov	 eax, DWORD PTR __Count$[esp+12]
  0001f	2b ee		 sub	 ebp, esi
  00021	3b c5		 cmp	 eax, ebp
  00023	73 02		 jae	 SHORT $L103442

; 595  : 			_Num = _Count;	// trim _Num to size

  00025	8b e8		 mov	 ebp, eax
$L103442:

; 596  : 
; 597  : 		if (this == &_Right)

  00027	3b df		 cmp	 ebx, edi
  00029	75 1f		 jne	 SHORT $L103443

; 598  : 			erase((size_type)(_Roff + _Num)), erase(0, _Roff);	// substring

  0002b	6a ff		 push	 -1
  0002d	03 ee		 add	 ebp, esi
  0002f	55		 push	 ebp
  00030	8b cb		 mov	 ecx, ebx
  00032	e8 00 00 00 00	 call	 ?erase@?$basic_string@DU?$char_traits@D@std@@V?$allocator@D@2@@std@@QAEAAV12@II@Z ; std::basic_string<char,std::char_traits<char>,std::allocator<char> >::erase
  00037	56		 push	 esi
  00038	6a 00		 push	 0
  0003a	8b cb		 mov	 ecx, ebx
  0003c	e8 00 00 00 00	 call	 ?erase@?$basic_string@DU?$char_traits@D@std@@V?$allocator@D@2@@std@@QAEAAV12@II@Z ; std::basic_string<char,std::char_traits<char>,std::allocator<char> >::erase
  00041	5f		 pop	 edi
  00042	5e		 pop	 esi
  00043	5d		 pop	 ebp

; 603  : 			}
; 604  : 		return (*this);

  00044	8b c3		 mov	 eax, ebx
  00046	5b		 pop	 ebx

; 605  : 		}

  00047	c2 0c 00	 ret	 12			; 0000000cH
$L103443:

; 599  : 		else if (_Grow(_Num))

  0004a	83 fd fe	 cmp	 ebp, -2			; fffffffeH
  0004d	76 07		 jbe	 SHORT $L113885
  0004f	8b cb		 mov	 ecx, ebx
  00051	e8 00 00 00 00	 call	 ?_Xlen@_String_base@std@@QBEXXZ ; std::_String_base::_Xlen
$L113885:
  00056	8b 43 18	 mov	 eax, DWORD PTR [ebx+24]
  00059	3b c5		 cmp	 eax, ebp
  0005b	73 21		 jae	 SHORT $L113886
  0005d	8b 43 14	 mov	 eax, DWORD PTR [ebx+20]
  00060	50		 push	 eax
  00061	55		 push	 ebp
  00062	8b cb		 mov	 ecx, ebx
  00064	e8 00 00 00 00	 call	 ?_Copy@?$basic_string@DU?$char_traits@D@std@@V?$allocator@D@2@@std@@IAEXII@Z ; std::basic_string<char,std::char_traits<char>,std::allocator<char> >::_Copy
  00069	85 ed		 test	 ebp, ebp
$L113931:
  0006b	76 6d		 jbe	 SHORT $L113930

; 600  : 			{	// make room and assign new stuff
; 601  : 			_Traits::copy(_Myptr(), _Right._Myptr() + _Roff, _Num);

  0006d	8b 4f 18	 mov	 ecx, DWORD PTR [edi+24]
  00070	b8 10 00 00 00	 mov	 eax, 16			; 00000010H
  00075	3b c8		 cmp	 ecx, eax
  00077	72 2f		 jb	 SHORT $L113896
  00079	8b 57 04	 mov	 edx, DWORD PTR [edi+4]
  0007c	eb 2d		 jmp	 SHORT $L113897

; 599  : 		else if (_Grow(_Num))

$L113886:
  0007e	85 ed		 test	 ebp, ebp
  00080	75 e9		 jne	 SHORT $L113931
  00082	83 f8 10	 cmp	 eax, 16			; 00000010H
  00085	89 6b 14	 mov	 DWORD PTR [ebx+20], ebp
  00088	72 0f		 jb	 SHORT $L113878
  0008a	8b 43 04	 mov	 eax, DWORD PTR [ebx+4]
  0008d	5f		 pop	 edi
  0008e	5e		 pop	 esi
  0008f	c6 00 00	 mov	 BYTE PTR [eax], 0
  00092	5d		 pop	 ebp

; 603  : 			}
; 604  : 		return (*this);

  00093	8b c3		 mov	 eax, ebx
  00095	5b		 pop	 ebx

; 605  : 		}

  00096	c2 0c 00	 ret	 12			; 0000000cH

; 599  : 		else if (_Grow(_Num))

$L113878:
  00099	5f		 pop	 edi
  0009a	8d 43 04	 lea	 eax, DWORD PTR [ebx+4]
  0009d	5e		 pop	 esi
  0009e	c6 00 00	 mov	 BYTE PTR [eax], 0
  000a1	5d		 pop	 ebp

; 603  : 			}
; 604  : 		return (*this);

  000a2	8b c3		 mov	 eax, ebx
  000a4	5b		 pop	 ebx

; 605  : 		}

  000a5	c2 0c 00	 ret	 12			; 0000000cH

; 600  : 			{	// make room and assign new stuff
; 601  : 			_Traits::copy(_Myptr(), _Right._Myptr() + _Roff, _Num);

$L113896:
  000a8	8d 57 04	 lea	 edx, DWORD PTR [edi+4]
$L113897:
  000ab	39 43 18	 cmp	 DWORD PTR [ebx+24], eax
  000ae	8d 43 04	 lea	 eax, DWORD PTR [ebx+4]
  000b1	72 04		 jb	 SHORT $L113902
  000b3	8b 38		 mov	 edi, DWORD PTR [eax]
  000b5	eb 02		 jmp	 SHORT $L113903
$L113902:
  000b7	8b f8		 mov	 edi, eax
$L113903:
  000b9	03 f2		 add	 esi, edx
  000bb	8b cd		 mov	 ecx, ebp
  000bd	8b d1		 mov	 edx, ecx
  000bf	c1 e9 02	 shr	 ecx, 2
  000c2	f3 a5		 rep movsd
  000c4	8b ca		 mov	 ecx, edx
  000c6	83 e1 03	 and	 ecx, 3
  000c9	f3 a4		 rep movsb

; 602  : 			_Eos(_Num);

  000cb	83 7b 18 10	 cmp	 DWORD PTR [ebx+24], 16	; 00000010H
  000cf	89 6b 14	 mov	 DWORD PTR [ebx+20], ebp
  000d2	72 02		 jb	 SHORT $L113925
  000d4	8b 00		 mov	 eax, DWORD PTR [eax]
$L113925:
  000d6	c6 04 28 00	 mov	 BYTE PTR [eax+ebp], 0
$L113930:
  000da	5f		 pop	 edi
  000db	5e		 pop	 esi
  000dc	5d		 pop	 ebp

; 603  : 			}
; 604  : 		return (*this);

  000dd	8b c3		 mov	 eax, ebx
  000df	5b		 pop	 ebx

; 605  : 		}

  000e0	c2 0c 00	 ret	 12			; 0000000cH
?assign@?$basic_string@DU?$char_traits@D@std@@V?$allocator@D@2@@std@@QAEAAV12@ABV12@II@Z ENDP ; std::basic_string<char,std::char_traits<char>,std::allocator<char> >::assign
_TEXT	ENDS
PUBLIC	??4?$CSimpleStringT@D$0A@@ATL@@QAEAAV01@PBD@Z	; ATL::CSimpleStringT<char,0>::operator=
; Function compile flags: /Ogty
; File c:\program files (x86)\microsoft visual studio .net 2003\vc7\atlmfc\include\atlsimpstr.h
;	COMDAT ??4?$CSimpleStringT@D$0A@@ATL@@QAEAAV01@PBD@Z
_TEXT	SEGMENT
_pszSrc$ = 8						; size = 4
??4?$CSimpleStringT@D$0A@@ATL@@QAEAAV01@PBD@Z PROC NEAR	; ATL::CSimpleStringT<char,0>::operator=, COMDAT
; _this$ = ecx

; 316  : 		SetString( pszSrc );

  00000	8b 54 24 04	 mov	 edx, DWORD PTR _pszSrc$[esp-4]
  00004	85 d2		 test	 edx, edx
  00006	57		 push	 edi
  00007	8b f9		 mov	 edi, ecx
  00009	75 0f		 jne	 SHORT $L113944
  0000b	33 c0		 xor	 eax, eax
  0000d	50		 push	 eax
  0000e	52		 push	 edx
  0000f	e8 00 00 00 00	 call	 ?SetString@?$CSimpleStringT@D$0A@@ATL@@QAEXPBDH@Z ; ATL::CSimpleStringT<char,0>::SetString

; 317  : 
; 318  : 		return( *this );

  00014	8b c7		 mov	 eax, edi
  00016	5f		 pop	 edi

; 319  : 	}

  00017	c2 04 00	 ret	 4

; 316  : 		SetString( pszSrc );

$L113944:
  0001a	8b c2		 mov	 eax, edx
  0001c	56		 push	 esi
  0001d	8d 70 01	 lea	 esi, DWORD PTR [eax+1]
$L113946:
  00020	8a 08		 mov	 cl, BYTE PTR [eax]
  00022	40		 inc	 eax
  00023	84 c9		 test	 cl, cl
  00025	75 f9		 jne	 SHORT $L113946
  00027	2b c6		 sub	 eax, esi
  00029	5e		 pop	 esi
  0002a	50		 push	 eax
  0002b	52		 push	 edx
  0002c	8b cf		 mov	 ecx, edi
  0002e	e8 00 00 00 00	 call	 ?SetString@?$CSimpleStringT@D$0A@@ATL@@QAEXPBDH@Z ; ATL::CSimpleStringT<char,0>::SetString

; 317  : 
; 318  : 		return( *this );

  00033	8b c7		 mov	 eax, edi
  00035	5f		 pop	 edi

; 319  : 	}

  00036	c2 04 00	 ret	 4
??4?$CSimpleStringT@D$0A@@ATL@@QAEAAV01@PBD@Z ENDP	; ATL::CSimpleStringT<char,0>::operator=
_TEXT	ENDS
PUBLIC	?assign@?$basic_string@DU?$char_traits@D@std@@V?$allocator@D@2@@std@@QAEAAV12@PBDI@Z ; std::basic_string<char,std::char_traits<char>,std::allocator<char> >::assign
; Function compile flags: /Ogty
; File c:\program files (x86)\microsoft visual studio .net 2003\vc7\include\xstring
;	COMDAT ?assign@?$basic_string@DU?$char_traits@D@std@@V?$allocator@D@2@@std@@QAEAAV12@PBDI@Z
_TEXT	SEGMENT
__Ptr$ = 8						; size = 4
__Num$ = 12						; size = 4
?assign@?$basic_string@DU?$char_traits@D@std@@V?$allocator@D@2@@std@@QAEAAV12@PBDI@Z PROC NEAR ; std::basic_string<char,std::char_traits<char>,std::allocator<char> >::assign, COMDAT
; _this$ = ecx

; 608  : 		{	// assign [_Ptr, _Ptr + _Num)

  00000	53		 push	 ebx
  00001	8b d9		 mov	 ebx, ecx

; 609  : 		if (_Inside(_Ptr))

  00003	8b 53 18	 mov	 edx, DWORD PTR [ebx+24]
  00006	83 fa 10	 cmp	 edx, 16			; 00000010H
  00009	56		 push	 esi
  0000a	57		 push	 edi
  0000b	72 05		 jb	 SHORT $L113967
  0000d	8b 43 04	 mov	 eax, DWORD PTR [ebx+4]
  00010	eb 03		 jmp	 SHORT $L113968
$L113967:
  00012	8d 43 04	 lea	 eax, DWORD PTR [ebx+4]
$L113968:
  00015	8b 74 24 10	 mov	 esi, DWORD PTR __Ptr$[esp+8]
  00019	3b f0		 cmp	 esi, eax
  0001b	72 34		 jb	 SHORT $L103771
  0001d	83 fa 10	 cmp	 edx, 16			; 00000010H
  00020	8d 43 04	 lea	 eax, DWORD PTR [ebx+4]
  00023	72 04		 jb	 SHORT $L113971
  00025	8b 08		 mov	 ecx, DWORD PTR [eax]
  00027	eb 02		 jmp	 SHORT $L113972
$L113971:
  00029	8b c8		 mov	 ecx, eax
$L113972:
  0002b	8b 7b 14	 mov	 edi, DWORD PTR [ebx+20]
  0002e	03 f9		 add	 edi, ecx
  00030	3b fe		 cmp	 edi, esi
  00032	76 1d		 jbe	 SHORT $L103771

; 610  : 			return (assign(*this, _Ptr - _Myptr(), _Num));	// substring

  00034	83 fa 10	 cmp	 edx, 16			; 00000010H
  00037	72 02		 jb	 SHORT $L113984
  00039	8b 00		 mov	 eax, DWORD PTR [eax]
$L113984:
  0003b	8b 4c 24 14	 mov	 ecx, DWORD PTR __Num$[esp+8]
  0003f	51		 push	 ecx
  00040	2b f0		 sub	 esi, eax
  00042	56		 push	 esi
  00043	53		 push	 ebx
  00044	8b cb		 mov	 ecx, ebx
  00046	e8 00 00 00 00	 call	 ?assign@?$basic_string@DU?$char_traits@D@std@@V?$allocator@D@2@@std@@QAEAAV12@ABV12@II@Z ; std::basic_string<char,std::char_traits<char>,std::allocator<char> >::assign
  0004b	5f		 pop	 edi
  0004c	5e		 pop	 esi
  0004d	5b		 pop	 ebx

; 618  : 		}

  0004e	c2 08 00	 ret	 8
$L103771:
  00051	55		 push	 ebp

; 611  : 
; 612  : 		if (_Grow(_Num))

  00052	8b 6c 24 18	 mov	 ebp, DWORD PTR __Num$[esp+12]
  00056	83 fd fe	 cmp	 ebp, -2			; fffffffeH
  00059	76 07		 jbe	 SHORT $L114096
  0005b	8b cb		 mov	 ecx, ebx
  0005d	e8 00 00 00 00	 call	 ?_Xlen@_String_base@std@@QBEXXZ ; std::_String_base::_Xlen
$L114096:
  00062	8b 43 18	 mov	 eax, DWORD PTR [ebx+24]
  00065	3b c5		 cmp	 eax, ebp
  00067	73 1b		 jae	 SHORT $L114097
  00069	8b 53 14	 mov	 edx, DWORD PTR [ebx+20]
  0006c	52		 push	 edx
  0006d	55		 push	 ebp
  0006e	8b cb		 mov	 ecx, ebx
  00070	e8 00 00 00 00	 call	 ?_Copy@?$basic_string@DU?$char_traits@D@std@@V?$allocator@D@2@@std@@IAEXII@Z ; std::basic_string<char,std::char_traits<char>,std::allocator<char> >::_Copy
  00075	85 ed		 test	 ebp, ebp
$L114164:
  00077	76 68		 jbe	 SHORT $L114162

; 613  : 			{	// make room and assign new stuff
; 614  : 			_Traits::copy(_Myptr(), _Ptr, _Num);

  00079	83 7b 18 10	 cmp	 DWORD PTR [ebx+24], 16	; 00000010H
  0007d	72 2f		 jb	 SHORT $L114136
  0007f	8b 7b 04	 mov	 edi, DWORD PTR [ebx+4]
  00082	eb 2d		 jmp	 SHORT $L114137

; 611  : 
; 612  : 		if (_Grow(_Num))

$L114097:
  00084	85 ed		 test	 ebp, ebp
  00086	75 ef		 jne	 SHORT $L114164
  00088	83 f8 10	 cmp	 eax, 16			; 00000010H
  0008b	89 6b 14	 mov	 DWORD PTR [ebx+20], ebp
  0008e	72 0f		 jb	 SHORT $L114127
  00090	8b 43 04	 mov	 eax, DWORD PTR [ebx+4]
  00093	5d		 pop	 ebp
  00094	5f		 pop	 edi
  00095	c6 00 00	 mov	 BYTE PTR [eax], 0
  00098	5e		 pop	 esi

; 616  : 			}
; 617  : 		return (*this);

  00099	8b c3		 mov	 eax, ebx
  0009b	5b		 pop	 ebx

; 618  : 		}

  0009c	c2 08 00	 ret	 8

; 611  : 
; 612  : 		if (_Grow(_Num))

$L114127:
  0009f	5d		 pop	 ebp
  000a0	8d 43 04	 lea	 eax, DWORD PTR [ebx+4]
  000a3	5f		 pop	 edi
  000a4	c6 00 00	 mov	 BYTE PTR [eax], 0
  000a7	5e		 pop	 esi

; 616  : 			}
; 617  : 		return (*this);

  000a8	8b c3		 mov	 eax, ebx
  000aa	5b		 pop	 ebx

; 618  : 		}

  000ab	c2 08 00	 ret	 8

; 613  : 			{	// make room and assign new stuff
; 614  : 			_Traits::copy(_Myptr(), _Ptr, _Num);

$L114136:
  000ae	8d 7b 04	 lea	 edi, DWORD PTR [ebx+4]
$L114137:
  000b1	8b cd		 mov	 ecx, ebp
  000b3	8b c1		 mov	 eax, ecx
  000b5	c1 e9 02	 shr	 ecx, 2
  000b8	f3 a5		 rep movsd
  000ba	8b c8		 mov	 ecx, eax
  000bc	83 e1 03	 and	 ecx, 3
  000bf	f3 a4		 rep movsb

; 615  : 			_Eos(_Num);

  000c1	83 7b 18 10	 cmp	 DWORD PTR [ebx+24], 16	; 00000010H
  000c5	89 6b 14	 mov	 DWORD PTR [ebx+20], ebp
  000c8	72 10		 jb	 SHORT $L114159
  000ca	8b 43 04	 mov	 eax, DWORD PTR [ebx+4]
  000cd	c6 04 28 00	 mov	 BYTE PTR [eax+ebp], 0
  000d1	5d		 pop	 ebp
  000d2	5f		 pop	 edi
  000d3	5e		 pop	 esi

; 616  : 			}
; 617  : 		return (*this);

  000d4	8b c3		 mov	 eax, ebx
  000d6	5b		 pop	 ebx

; 618  : 		}

  000d7	c2 08 00	 ret	 8

; 615  : 			_Eos(_Num);

$L114159:
  000da	8d 43 04	 lea	 eax, DWORD PTR [ebx+4]
  000dd	c6 04 28 00	 mov	 BYTE PTR [eax+ebp], 0
$L114162:
  000e1	5d		 pop	 ebp
  000e2	5f		 pop	 edi
  000e3	5e		 pop	 esi

; 616  : 			}
; 617  : 		return (*this);

  000e4	8b c3		 mov	 eax, ebx
  000e6	5b		 pop	 ebx

; 618  : 		}

  000e7	c2 08 00	 ret	 8
?assign@?$basic_string@DU?$char_traits@D@std@@V?$allocator@D@2@@std@@QAEAAV12@PBDI@Z ENDP ; std::basic_string<char,std::char_traits<char>,std::allocator<char> >::assign
_TEXT	ENDS
PUBLIC	??_C@_0P@BLMMOEHB@Accept?5Tick?5?$CFd?$AA@	; `string'
PUBLIC	?OnCT_SERVICEMONITOR_ACK@CTRelaySvrModule@@IAEKPAUtagPACKETBUF@@@Z ; CTRelaySvrModule::OnCT_SERVICEMONITOR_ACK
EXTRN	?SendCT_SERVICEMONITOR_REQ@CTPlayer@@QAEXKKKK@Z:NEAR ; CTPlayer::SendCT_SERVICEMONITOR_REQ
EXTRN	?CloseSession@CTRelaySvrModule@@IAEXPAVCTRelaySession@@@Z:NEAR ; CTRelaySvrModule::CloseSession
EXTRN	__imp__GetTickCount@0:NEAR
;	COMDAT ?tick@?1??OnCT_SERVICEMONITOR_ACK@CTRelaySvrModule@@IAEKPAUtagPACKETBUF@@@Z@4KA
; File c:\program files (x86)\microsoft visual studio .net 2003\vc7\include\xtree
_BSS	SEGMENT
?tick@?1??OnCT_SERVICEMONITOR_ACK@CTRelaySvrModule@@IAEKPAUtagPACKETBUF@@@Z@4KA DD 01H DUP (?) ; `CTRelaySvrModule::OnCT_SERVICEMONITOR_ACK'::`2'::tick
_BSS	ENDS
;	COMDAT ?$S5@?1??OnCT_SERVICEMONITOR_ACK@CTRelaySvrModule@@IAEKPAUtagPACKETBUF@@@Z@4IA
_BSS	SEGMENT
?$S5@?1??OnCT_SERVICEMONITOR_ACK@CTRelaySvrModule@@IAEKPAUtagPACKETBUF@@@Z@4IA DD 01H DUP (?) ; `CTRelaySvrModule::OnCT_SERVICEMONITOR_ACK'::`2'::$S5
_BSS	ENDS
;	COMDAT ??_C@_0P@BLMMOEHB@Accept?5Tick?5?$CFd?$AA@
CONST	SEGMENT
??_C@_0P@BLMMOEHB@Accept?5Tick?5?$CFd?$AA@ DB 'Accept Tick %d', 00H ; `string'
; Function compile flags: /Ogty
; File c:\users\pierr\desktop\4story - oldschool\sources\tserver\trelaysvr\cshandler.cpp
CONST	ENDS
;	COMDAT ?OnCT_SERVICEMONITOR_ACK@CTRelaySvrModule@@IAEKPAUtagPACKETBUF@@@Z
_TEXT	SEGMENT
_dwTick$ = -4						; size = 4
_it$107513 = 8						; size = 4
_pBUF$ = 8						; size = 4
?OnCT_SERVICEMONITOR_ACK@CTRelaySvrModule@@IAEKPAUtagPACKETBUF@@@Z PROC NEAR ; CTRelaySvrModule::OnCT_SERVICEMONITOR_ACK, COMDAT
; _this$ = ecx

; 9    : {

  00000	51		 push	 ecx

; 10   : 	CTPlayer *pPlayer = (CTPlayer *) pBUF->m_pSESSION;

  00001	8b 44 24 08	 mov	 eax, DWORD PTR _pBUF$[esp]
  00005	53		 push	 ebx
  00006	55		 push	 ebp
  00007	56		 push	 esi
  00008	8b f1		 mov	 esi, ecx
  0000a	57		 push	 edi
  0000b	8b 38		 mov	 edi, DWORD PTR [eax]

; 11   : 
; 12   : 	DWORD dwTick;
; 13   : 	pBUF->m_packet
; 14   : 		>> dwTick;

  0000d	8d 4c 24 10	 lea	 ecx, DWORD PTR _dwTick$[esp+20]
  00011	51		 push	 ecx
  00012	8d 48 04	 lea	 ecx, DWORD PTR [eax+4]
  00015	e8 00 00 00 00	 call	 ??5CPacket@@QAEAAV0@AAK@Z ; CPacket::operator>>

; 15   : 
; 16   : 	pPlayer->SendCT_SERVICEMONITOR_REQ(dwTick, DWORD(m_mapSESSION.size()), DWORD(m_mapPLAYER.size()), 0 );

  0001a	8b 96 7c 01 00
	00		 mov	 edx, DWORD PTR [esi+380]
  00020	8b 86 70 01 00
	00		 mov	 eax, DWORD PTR [esi+368]
  00026	8b 4c 24 10	 mov	 ecx, DWORD PTR _dwTick$[esp+20]
  0002a	6a 00		 push	 0
  0002c	52		 push	 edx
  0002d	50		 push	 eax
  0002e	51		 push	 ecx
  0002f	8b cf		 mov	 ecx, edi
  00031	e8 00 00 00 00	 call	 ?SendCT_SERVICEMONITOR_REQ@CTPlayer@@QAEXKKKK@Z ; CTPlayer::SendCT_SERVICEMONITOR_REQ

; 17   : 
; 18   : 	// Connect         
; 19   : 	static DWORD tick = GetTickCount();

  00036	a0 00 00 00 00	 mov	 al, BYTE PTR ?$S5@?1??OnCT_SERVICEMONITOR_ACK@CTRelaySvrModule@@IAEKPAUtagPACKETBUF@@@Z@4IA
  0003b	8b 3d 00 00 00
	00		 mov	 edi, DWORD PTR __imp__GetTickCount@0
  00041	bb 01 00 00 00	 mov	 ebx, 1
  00046	84 c3		 test	 al, bl
  00048	75 0d		 jne	 SHORT $L107433
  0004a	09 1d 00 00 00
	00		 or	 DWORD PTR ?$S5@?1??OnCT_SERVICEMONITOR_ACK@CTRelaySvrModule@@IAEKPAUtagPACKETBUF@@@Z@4IA, ebx
  00050	ff d7		 call	 edi
  00052	a3 00 00 00 00	 mov	 DWORD PTR ?tick@?1??OnCT_SERVICEMONITOR_ACK@CTRelaySvrModule@@IAEKPAUtagPACKETBUF@@@Z@4KA, eax
$L107433:

; 20   : 	DWORD dwCurrent = GetTickCount();

  00057	ff d7		 call	 edi

; 21   : 
; 22   : 	if(dwCurrent - tick > 10000)

  00059	8b 0d 00 00 00
	00		 mov	 ecx, DWORD PTR ?tick@?1??OnCT_SERVICEMONITOR_ACK@CTRelaySvrModule@@IAEKPAUtagPACKETBUF@@@Z@4KA
  0005f	8b e8		 mov	 ebp, eax
  00061	8b d5		 mov	 edx, ebp
  00063	2b d1		 sub	 edx, ecx
  00065	81 fa 10 27 00
	00		 cmp	 edx, 10000		; 00002710H
  0006b	0f 86 8e 00 00
	00		 jbe	 $L114393

; 23   : 	{
; 24   : 		MAPPLAYER::iterator it;
; 25   : 		for(it=m_mapSESSION.begin(); it!=m_mapSESSION.end(); it++)

  00071	8b 86 6c 01 00
	00		 mov	 eax, DWORD PTR [esi+364]
  00077	8b 38		 mov	 edi, DWORD PTR [eax]
  00079	3b f8		 cmp	 edi, eax
  0007b	89 7c 24 18	 mov	 DWORD PTR _it$107513[esp+16], edi
  0007f	74 78		 je	 SHORT $L107519
$L114225:

; 26   : 		{
; 27   : 			if((*it).second->m_bSessionType == SESSION_CLIENT)

  00081	8b 47 10	 mov	 eax, DWORD PTR [edi+16]
  00084	38 58 0d	 cmp	 BYTE PTR [eax+13], bl
  00087	75 5b		 jne	 SHORT $L107518

; 28   : 			{
; 29   : 				if((*it).second->m_dwAcceptTick &&
; 30   : 					dwCurrent - (*it).second->m_dwAcceptTick > 60000)

  00089	8b 48 1c	 mov	 ecx, DWORD PTR [eax+28]
  0008c	85 c9		 test	 ecx, ecx
  0008e	74 2c		 je	 SHORT $L114394
  00090	8b d5		 mov	 edx, ebp
  00092	2b d1		 sub	 edx, ecx
  00094	81 fa 60 ea 00
	00		 cmp	 edx, 60000		; 0000ea60H
  0009a	76 20		 jbe	 SHORT $L114394

; 31   : 				{
; 32   : 					LogEvent("Accept Tick %d", (*it).second->m_dwID);

  0009c	8b 80 fc 00 01
	00		 mov	 eax, DWORD PTR [eax+65788]
  000a2	50		 push	 eax
  000a3	68 00 00 00 00	 push	 OFFSET FLAT:??_C@_0P@BLMMOEHB@Accept?5Tick?5?$CFd?$AA@
  000a8	56		 push	 esi
  000a9	e8 00 00 00 00	 call	 ?LogEvent@?$CAtlServiceModuleT@VCTRelaySvrModule@@$0GE@@ATL@@QAAXPBDZZ ; ATL::CAtlServiceModuleT<CTRelaySvrModule,100>::LogEvent

; 33   : 					CloseSession((*it).second);

  000ae	8b 4f 10	 mov	 ecx, DWORD PTR [edi+16]
  000b1	83 c4 0c	 add	 esp, 12			; 0000000cH
  000b4	51		 push	 ecx
  000b5	8b ce		 mov	 ecx, esi
  000b7	e8 00 00 00 00	 call	 ?CloseSession@CTRelaySvrModule@@IAEXPAVCTRelaySession@@@Z ; CTRelaySvrModule::CloseSession
$L114394:

; 34   : 				}
; 35   : 
; 36   : 				if((*it).second->m_dwCheckTick &&
; 37   : 					!(*it).second->m_dwCloseTick &&
; 38   : 					dwCurrent - (*it).second->m_dwCheckTick > 300000)

  000bc	8b 7f 10	 mov	 edi, DWORD PTR [edi+16]
  000bf	8b 87 10 01 01
	00		 mov	 eax, DWORD PTR [edi+65808]
  000c5	85 c0		 test	 eax, eax
  000c7	74 1b		 je	 SHORT $L107518
  000c9	8b 4f 20	 mov	 ecx, DWORD PTR [edi+32]
  000cc	85 c9		 test	 ecx, ecx
  000ce	75 14		 jne	 SHORT $L107518
  000d0	8b d5		 mov	 edx, ebp
  000d2	2b d0		 sub	 edx, eax
  000d4	81 fa e0 93 04
	00		 cmp	 edx, 300000		; 000493e0H
  000da	76 08		 jbe	 SHORT $L107518

; 39   : 				{
; 40   : 					CloseSession((*it).second);

  000dc	57		 push	 edi
  000dd	8b ce		 mov	 ecx, esi
  000df	e8 00 00 00 00	 call	 ?CloseSession@CTRelaySvrModule@@IAEXPAVCTRelaySession@@@Z ; CTRelaySvrModule::CloseSession
$L107518:
  000e4	8d 4c 24 18	 lea	 ecx, DWORD PTR _it$107513[esp+16]
  000e8	e8 00 00 00 00	 call	 ?_Inc@const_iterator@?$_Tree@V?$_Tmap_traits@KPAVCTPlayer@@U?$less@K@std@@V?$allocator@U?$pair@$$CBKPAVCTPlayer@@@std@@@3@$0A@@std@@@std@@QAEXXZ ; std::_Tree<std::_Tmap_traits<unsigned long,CTPlayer *,std::less<unsigned long>,std::allocator<std::pair<unsigned long const ,CTPlayer *> >,0> >::const_iterator::_Inc
  000ed	8b 7c 24 18	 mov	 edi, DWORD PTR _it$107513[esp+16]
  000f1	3b be 6c 01 00
	00		 cmp	 edi, DWORD PTR [esi+364]
  000f7	75 88		 jne	 SHORT $L114225
$L107519:

; 41   : 				}
; 42   : 			}
; 43   : 		}
; 44   : 		tick = dwCurrent;

  000f9	89 2d 00 00 00
	00		 mov	 DWORD PTR ?tick@?1??OnCT_SERVICEMONITOR_ACK@CTRelaySvrModule@@IAEKPAUtagPACKETBUF@@@Z@4KA, ebp
$L114393:
  000ff	5f		 pop	 edi
  00100	5e		 pop	 esi
  00101	5d		 pop	 ebp

; 45   : 	}
; 46   : 
; 47   : 	return EC_NOERROR;

  00102	33 c0		 xor	 eax, eax
  00104	5b		 pop	 ebx

; 48   : }

  00105	59		 pop	 ecx
  00106	c2 04 00	 ret	 4
?OnCT_SERVICEMONITOR_ACK@CTRelaySvrModule@@IAEKPAUtagPACKETBUF@@@Z ENDP ; CTRelaySvrModule::OnCT_SERVICEMONITOR_ACK
_TEXT	ENDS
PUBLIC	?OnCS_CORPSCMD_REQ@CTRelaySvrModule@@IAEKPAUtagPACKETBUF@@@Z ; CTRelaySvrModule::OnCS_CORPSCMD_REQ
EXTRN	?FindPlayer@CTRelaySvrModule@@QAEPAVCTPlayer@@K@Z:NEAR ; CTRelaySvrModule::FindPlayer
EXTRN	?FindParty@CTRelaySvrModule@@QAEPAVCTParty@@G@Z:NEAR ; CTRelaySvrModule::FindParty
EXTRN	?FindCorps@CTRelaySvrModule@@QAEPAVCTCorps@@PAVCTPlayer@@@Z:NEAR ; CTRelaySvrModule::FindCorps
EXTRN	?TransferCorpsCommand@CTRelaySvrModule@@QAEXPAVCTParty@@GKGEKEGG@Z:NEAR ; CTRelaySvrModule::TransferCorpsCommand
EXTRN	?IsChief@CTParty@@QAEEK@Z:NEAR			; CTParty::IsChief
EXTRN	?SetCommand@CTParty@@QAEXGKGEEKGG@Z:NEAR	; CTParty::SetCommand
; Function compile flags: /Ogty
;	COMDAT ?OnCS_CORPSCMD_REQ@CTRelaySvrModule@@IAEKPAUtagPACKETBUF@@@Z
_TEXT	SEGMENT
_wPosZ$ = -32						; size = 2
_wPosX$ = -28						; size = 2
_bTargetType$ = -24					; size = 1
_dwTargetID$ = -20					; size = 4
_bCMD$ = -16						; size = 1
_wMapID$ = -12						; size = 2
_wSquadID$ = -8						; size = 2
_itR$108135 = -4					; size = 4
_dwCharID$ = 8						; size = 4
_pBUF$ = 8						; size = 4
?OnCS_CORPSCMD_REQ@CTRelaySvrModule@@IAEKPAUtagPACKETBUF@@@Z PROC NEAR ; CTRelaySvrModule::OnCS_CORPSCMD_REQ, COMDAT
; _this$ = ecx

; 538  : 	CTPlayer* pPlayer = (CTPlayer*)pBUF->m_pSESSION;

  00000	8b 44 24 04	 mov	 eax, DWORD PTR _pBUF$[esp-4]
  00004	83 ec 20	 sub	 esp, 32			; 00000020H
  00007	56		 push	 esi
  00008	57		 push	 edi
  00009	8b 38		 mov	 edi, DWORD PTR [eax]

; 539  : 	if( !pPlayer || !pPlayer->m_bAuthorized)

  0000b	85 ff		 test	 edi, edi
  0000d	8b f1		 mov	 esi, ecx
  0000f	0f 84 95 01 00
	00		 je	 $L108120
  00015	8a 8f 26 01 01
	00		 mov	 cl, BYTE PTR [edi+65830]
  0001b	84 c9		 test	 cl, cl
  0001d	0f 84 87 01 00
	00		 je	 $L108120

; 541  : 
; 542  : 	WORD wSquadID;
; 543  : 	DWORD dwCharID;
; 544  : 	WORD wMapID;
; 545  : 	BYTE bCMD;
; 546  : 	DWORD dwTargetID;
; 547  : 	BYTE bTargetType;
; 548  : 	WORD wPosX;
; 549  : 	WORD wPosZ;
; 550  : 
; 551  : 	pBUF->m_packet
; 552  : 		>> wSquadID
; 553  : 		>> dwCharID
; 554  : 		>> wMapID
; 555  : 		>> bCMD
; 556  : 		>> dwTargetID
; 557  : 		>> bTargetType
; 558  : 		>> wPosX
; 559  : 		>> wPosZ;

  00023	8d 4c 24 08	 lea	 ecx, DWORD PTR _wPosZ$[esp+40]
  00027	51		 push	 ecx
  00028	8d 54 24 10	 lea	 edx, DWORD PTR _wPosX$[esp+44]
  0002c	52		 push	 edx
  0002d	8d 4c 24 18	 lea	 ecx, DWORD PTR _bTargetType$[esp+48]
  00031	51		 push	 ecx
  00032	8d 54 24 20	 lea	 edx, DWORD PTR _dwTargetID$[esp+52]
  00036	52		 push	 edx
  00037	8d 4c 24 28	 lea	 ecx, DWORD PTR _bCMD$[esp+56]
  0003b	51		 push	 ecx
  0003c	8d 54 24 30	 lea	 edx, DWORD PTR _wMapID$[esp+60]
  00040	52		 push	 edx
  00041	8d 4c 24 44	 lea	 ecx, DWORD PTR _dwCharID$[esp+60]
  00045	51		 push	 ecx
  00046	8d 54 24 3c	 lea	 edx, DWORD PTR _wSquadID$[esp+68]
  0004a	52		 push	 edx
  0004b	8d 48 04	 lea	 ecx, DWORD PTR [eax+4]
  0004e	e8 00 00 00 00	 call	 ??5CPacket@@QAEAAV0@AAG@Z ; CPacket::operator>>
  00053	8b c8		 mov	 ecx, eax
  00055	e8 00 00 00 00	 call	 ??5CPacket@@QAEAAV0@AAK@Z ; CPacket::operator>>
  0005a	8b c8		 mov	 ecx, eax
  0005c	e8 00 00 00 00	 call	 ??5CPacket@@QAEAAV0@AAG@Z ; CPacket::operator>>
  00061	8b c8		 mov	 ecx, eax
  00063	e8 00 00 00 00	 call	 ??5CPacket@@QAEAAV0@AAE@Z ; CPacket::operator>>
  00068	8b c8		 mov	 ecx, eax
  0006a	e8 00 00 00 00	 call	 ??5CPacket@@QAEAAV0@AAK@Z ; CPacket::operator>>
  0006f	8b c8		 mov	 ecx, eax
  00071	e8 00 00 00 00	 call	 ??5CPacket@@QAEAAV0@AAE@Z ; CPacket::operator>>
  00076	8b c8		 mov	 ecx, eax
  00078	e8 00 00 00 00	 call	 ??5CPacket@@QAEAAV0@AAG@Z ; CPacket::operator>>
  0007d	8b c8		 mov	 ecx, eax
  0007f	e8 00 00 00 00	 call	 ??5CPacket@@QAEAAV0@AAG@Z ; CPacket::operator>>

; 560  : 
; 561  : 	CTPlayer* pChar = FindPlayer(dwCharID);	

  00084	8b 44 24 2c	 mov	 eax, DWORD PTR _dwCharID$[esp+36]
  00088	50		 push	 eax
  00089	8b ce		 mov	 ecx, esi
  0008b	e8 00 00 00 00	 call	 ?FindPlayer@CTRelaySvrModule@@QAEPAVCTPlayer@@K@Z ; CTRelaySvrModule::FindPlayer

; 562  : 	if(!pChar)

  00090	85 c0		 test	 eax, eax

; 563  : 		return EC_NOERROR;

  00092	0f 84 12 01 00
	00		 je	 $L108120

; 564  : 
; 565  : 	CTParty* pParty = FindParty(pChar->m_wPartyID);

  00098	33 c9		 xor	 ecx, ecx
  0009a	66 8b 88 1a 01
	01 00		 mov	 cx, WORD PTR [eax+65818]
  000a1	53		 push	 ebx
  000a2	51		 push	 ecx
  000a3	8b ce		 mov	 ecx, esi
  000a5	e8 00 00 00 00	 call	 ?FindParty@CTRelaySvrModule@@QAEPAVCTParty@@G@Z ; CTRelaySvrModule::FindParty
  000aa	8b d8		 mov	 ebx, eax

; 566  : 	if( pParty && pParty->IsChief(dwCharID) )	

  000ac	85 db		 test	 ebx, ebx
  000ae	74 3f		 je	 SHORT $L108132
  000b0	8b 54 24 30	 mov	 edx, DWORD PTR _dwCharID$[esp+40]
  000b4	52		 push	 edx
  000b5	8b cb		 mov	 ecx, ebx
  000b7	e8 00 00 00 00	 call	 ?IsChief@CTParty@@QAEEK@Z ; CTParty::IsChief
  000bc	84 c0		 test	 al, al
  000be	74 2f		 je	 SHORT $L108132

; 567  : 		pParty->SetCommand(wSquadID,dwCharID,wMapID,bCMD,bTargetType,dwTargetID,wPosX,wPosZ);

  000c0	8b 44 24 0c	 mov	 eax, DWORD PTR _wPosZ$[esp+44]
  000c4	8b 4c 24 10	 mov	 ecx, DWORD PTR _wPosX$[esp+44]
  000c8	8b 54 24 18	 mov	 edx, DWORD PTR _dwTargetID$[esp+44]
  000cc	50		 push	 eax
  000cd	8b 44 24 18	 mov	 eax, DWORD PTR _bTargetType$[esp+48]
  000d1	51		 push	 ecx
  000d2	8b 4c 24 24	 mov	 ecx, DWORD PTR _bCMD$[esp+52]
  000d6	52		 push	 edx
  000d7	8b 54 24 2c	 mov	 edx, DWORD PTR _wMapID$[esp+56]
  000db	50		 push	 eax
  000dc	8b 44 24 40	 mov	 eax, DWORD PTR _dwCharID$[esp+56]
  000e0	51		 push	 ecx
  000e1	8b 4c 24 38	 mov	 ecx, DWORD PTR _wSquadID$[esp+64]
  000e5	52		 push	 edx
  000e6	50		 push	 eax
  000e7	51		 push	 ecx
  000e8	8b cb		 mov	 ecx, ebx
  000ea	e8 00 00 00 00	 call	 ?SetCommand@CTParty@@QAEXGKGEEKGG@Z ; CTParty::SetCommand
$L108132:

; 568  : 
; 569  : 	CTCorps* pCorps = FindCorps(pPlayer);

  000ef	57		 push	 edi
  000f0	8b ce		 mov	 ecx, esi
  000f2	e8 00 00 00 00	 call	 ?FindCorps@CTRelaySvrModule@@QAEPAVCTCorps@@PAVCTPlayer@@@Z ; CTRelaySvrModule::FindCorps
  000f7	8b d8		 mov	 ebx, eax

; 570  : 	if(pCorps)

  000f9	85 db		 test	 ebx, ebx
  000fb	74 67		 je	 SHORT $L108134

; 571  : 	{
; 572  : 		MAPTPARTY::iterator itR;
; 573  : 		for( itR = pCorps->m_mapTParty.begin(); itR != pCorps->m_mapTParty.end(); itR++)

  000fd	8b 4b 0c	 mov	 ecx, DWORD PTR [ebx+12]
  00100	8b 01		 mov	 eax, DWORD PTR [ecx]
  00102	3b c1		 cmp	 eax, ecx
  00104	89 44 24 28	 mov	 DWORD PTR _itR$108135[esp+44], eax
  00108	0f 84 9b 00 00
	00		 je	 $L108146
  0010e	8b ff		 npad	 2
$L114447:

; 574  : 		{
; 575  : 			CTParty* pParty = (*itR).second;

  00110	8b 40 10	 mov	 eax, DWORD PTR [eax+16]

; 576  : 			if(pParty)

  00113	85 c0		 test	 eax, eax
  00115	74 30		 je	 SHORT $L108140

; 577  : 				TransferCorpsCommand(pParty,wSquadID,dwCharID,wMapID,bCMD,dwTargetID,bTargetType,wPosX,wPosZ);

  00117	8b 54 24 0c	 mov	 edx, DWORD PTR _wPosZ$[esp+44]
  0011b	8b 4c 24 10	 mov	 ecx, DWORD PTR _wPosX$[esp+44]
  0011f	52		 push	 edx
  00120	8b 54 24 18	 mov	 edx, DWORD PTR _bTargetType$[esp+48]
  00124	51		 push	 ecx
  00125	8b 4c 24 20	 mov	 ecx, DWORD PTR _dwTargetID$[esp+52]
  00129	52		 push	 edx
  0012a	8b 54 24 28	 mov	 edx, DWORD PTR _bCMD$[esp+56]
  0012e	51		 push	 ecx
  0012f	8b 4c 24 30	 mov	 ecx, DWORD PTR _wMapID$[esp+60]
  00133	52		 push	 edx
  00134	8b 54 24 44	 mov	 edx, DWORD PTR _dwCharID$[esp+60]
  00138	51		 push	 ecx
  00139	8b 4c 24 3c	 mov	 ecx, DWORD PTR _wSquadID$[esp+68]
  0013d	52		 push	 edx
  0013e	51		 push	 ecx
  0013f	50		 push	 eax
  00140	8b ce		 mov	 ecx, esi
  00142	e8 00 00 00 00	 call	 ?TransferCorpsCommand@CTRelaySvrModule@@QAEXPAVCTParty@@GKGEKEGG@Z ; CTRelaySvrModule::TransferCorpsCommand
$L108140:
  00147	8d 4c 24 28	 lea	 ecx, DWORD PTR _itR$108135[esp+44]
  0014b	e8 00 00 00 00	 call	 ?_Inc@const_iterator@?$_Tree@V?$_Tmap_traits@GPAVCTParty@@U?$less@G@std@@V?$allocator@U?$pair@$$CBGPAVCTParty@@@std@@@3@$0A@@std@@@std@@QAEXXZ ; std::_Tree<std::_Tmap_traits<unsigned short,CTParty *,std::less<unsigned short>,std::allocator<std::pair<unsigned short const ,CTParty *> >,0> >::const_iterator::_Inc
  00150	8b 44 24 28	 mov	 eax, DWORD PTR _itR$108135[esp+44]
  00154	3b 43 0c	 cmp	 eax, DWORD PTR [ebx+12]
  00157	75 b7		 jne	 SHORT $L114447
  00159	5b		 pop	 ebx
  0015a	5f		 pop	 edi
  0015b	33 c0		 xor	 eax, eax
  0015d	5e		 pop	 esi

; 585  : 	}
; 586  : 
; 587  : 	return EC_NOERROR;
; 588  : }

  0015e	83 c4 20	 add	 esp, 32			; 00000020H
  00161	c2 04 00	 ret	 4
$L108134:

; 578  : 		}
; 579  : 	}
; 580  : 	else
; 581  : 	{
; 582  : 		CTParty* pParty = FindParty(pPlayer->m_wPartyID);

  00164	33 d2		 xor	 edx, edx
  00166	66 8b 97 1a 01
	01 00		 mov	 dx, WORD PTR [edi+65818]
  0016d	8b ce		 mov	 ecx, esi
  0016f	52		 push	 edx
  00170	e8 00 00 00 00	 call	 ?FindParty@CTRelaySvrModule@@QAEPAVCTParty@@G@Z ; CTRelaySvrModule::FindParty

; 583  : 		if(pParty)

  00175	85 c0		 test	 eax, eax
  00177	74 30		 je	 SHORT $L108146

; 584  :             TransferCorpsCommand(pParty,wSquadID,dwCharID,wMapID,bCMD,dwTargetID,bTargetType,wPosX,wPosZ);

  00179	8b 4c 24 0c	 mov	 ecx, DWORD PTR _wPosZ$[esp+44]
  0017d	8b 54 24 10	 mov	 edx, DWORD PTR _wPosX$[esp+44]
  00181	51		 push	 ecx
  00182	8b 4c 24 18	 mov	 ecx, DWORD PTR _bTargetType$[esp+48]
  00186	52		 push	 edx
  00187	8b 54 24 20	 mov	 edx, DWORD PTR _dwTargetID$[esp+52]
  0018b	51		 push	 ecx
  0018c	8b 4c 24 28	 mov	 ecx, DWORD PTR _bCMD$[esp+56]
  00190	52		 push	 edx
  00191	8b 54 24 30	 mov	 edx, DWORD PTR _wMapID$[esp+60]
  00195	51		 push	 ecx
  00196	8b 4c 24 44	 mov	 ecx, DWORD PTR _dwCharID$[esp+60]
  0019a	52		 push	 edx
  0019b	8b 54 24 3c	 mov	 edx, DWORD PTR _wSquadID$[esp+68]
  0019f	51		 push	 ecx
  001a0	52		 push	 edx
  001a1	50		 push	 eax
  001a2	8b ce		 mov	 ecx, esi
  001a4	e8 00 00 00 00	 call	 ?TransferCorpsCommand@CTRelaySvrModule@@QAEXPAVCTParty@@GKGEKEGG@Z ; CTRelaySvrModule::TransferCorpsCommand
$L108146:
  001a9	5b		 pop	 ebx
$L108120:
  001aa	5f		 pop	 edi

; 540  : 		return EC_NOERROR;

  001ab	33 c0		 xor	 eax, eax
  001ad	5e		 pop	 esi

; 585  : 	}
; 586  : 
; 587  : 	return EC_NOERROR;
; 588  : }

  001ae	83 c4 20	 add	 esp, 32			; 00000020H
  001b1	c2 04 00	 ret	 4
?OnCS_CORPSCMD_REQ@CTRelaySvrModule@@IAEKPAUtagPACKETBUF@@@Z ENDP ; CTRelaySvrModule::OnCS_CORPSCMD_REQ
_TEXT	ENDS
PUBLIC	?OnCS_RELAYPROTECTEDOPTION_REQ@CTRelaySvrModule@@IAEKPAUtagPACKETBUF@@@Z ; CTRelaySvrModule::OnCS_RELAYPROTECTEDOPTION_REQ
;	COMDAT xdata$x
; File c:\program files (x86)\microsoft visual studio .net 2003\vc7\atlmfc\include\atlsimpstr.h
xdata$x	SEGMENT
$T114626 DD	0ffffffffH
	DD	FLAT:$L114501
$T114622 DD	019930520H
	DD	01H
	DD	FLAT:$T114626
	DD	2 DUP(00H)
	DD	2 DUP(00H)
; Function compile flags: /Ogty
; File c:\users\pierr\desktop\4story - oldschool\sources\tserver\trelaysvr\cshandler.cpp
xdata$x	ENDS
;	COMDAT ?OnCS_RELAYPROTECTEDOPTION_REQ@CTRelaySvrModule@@IAEKPAUtagPACKETBUF@@@Z
_TEXT	SEGMENT
_strName$ = -20						; size = 4
_it$ = -16						; size = 4
__$EHRec$ = -12						; size = 12
_bOption$ = 8						; size = 1
_pBUF$ = 8						; size = 4
?OnCS_RELAYPROTECTEDOPTION_REQ@CTRelaySvrModule@@IAEKPAUtagPACKETBUF@@@Z PROC NEAR ; CTRelaySvrModule::OnCS_RELAYPROTECTEDOPTION_REQ, COMDAT
; _this$ = ecx

; 655  : {

  00000	64 a1 00 00 00
	00		 mov	 eax, DWORD PTR fs:__except_list
  00006	6a ff		 push	 -1
  00008	68 00 00 00 00	 push	 __ehhandler$?OnCS_RELAYPROTECTEDOPTION_REQ@CTRelaySvrModule@@IAEKPAUtagPACKETBUF@@@Z
  0000d	50		 push	 eax
  0000e	64 89 25 00 00
	00 00		 mov	 DWORD PTR fs:__except_list, esp
  00015	83 ec 08	 sub	 esp, 8
  00018	56		 push	 esi
  00019	57		 push	 edi

; 656  : 	CTPlayer* pPlayer = (CTPlayer*)pBUF->m_pSESSION;

  0001a	8b 7c 24 20	 mov	 edi, DWORD PTR _pBUF$[esp+24]
  0001e	8b 37		 mov	 esi, DWORD PTR [edi]

; 657  : 	if( !pPlayer || !pPlayer->m_bAuthorized )

  00020	85 f6		 test	 esi, esi
  00022	0f 84 9a 00 00
	00		 je	 $L108198
  00028	8a 86 26 01 01
	00		 mov	 al, BYTE PTR [esi+65830]
  0002e	84 c0		 test	 al, al
  00030	0f 84 8c 00 00
	00		 je	 $L108198

; 658  : 		return EC_NOERROR;
; 659  : 
; 660  : 	CString strName;

  00036	a1 00 00 00 00	 mov	 eax, DWORD PTR ?g_strmgr@ATL@@3VCAtlStringMgr@1@A
  0003b	b9 00 00 00 00	 mov	 ecx, OFFSET FLAT:?g_strmgr@ATL@@3VCAtlStringMgr@1@A ; ATL::g_strmgr
  00040	ff 50 0c	 call	 DWORD PTR [eax+12]
  00043	83 c0 10	 add	 eax, 16			; 00000010H
  00046	89 44 24 08	 mov	 DWORD PTR _strName$[esp+28], eax

; 661  : 	BYTE bOption;
; 662  : 
; 663  : 	pBUF->m_packet
; 664  : 		>> strName
; 665  : 		>> bOption;

  0004a	8d 4c 24 20	 lea	 ecx, DWORD PTR _bOption$[esp+24]
  0004e	51		 push	 ecx
  0004f	8d 54 24 0c	 lea	 edx, DWORD PTR _strName$[esp+32]
  00053	52		 push	 edx
  00054	8d 4f 04	 lea	 ecx, DWORD PTR [edi+4]
  00057	c7 44 24 20 00
	00 00 00	 mov	 DWORD PTR __$EHRec$[esp+44], 0
  0005f	e8 00 00 00 00	 call	 ??5CPacket@@QAEAAV0@AAV?$CStringT@DV?$StrTraitATL@DV?$ChTraitsCRT@D@ATL@@@ATL@@@ATL@@@Z ; CPacket::operator>>
  00064	8b c8		 mov	 ecx, eax
  00066	e8 00 00 00 00	 call	 ??5CPacket@@QAEAAV0@AAE@Z ; CPacket::operator>>

; 666  : 
; 667  : 	MAPTSTRBYTE::iterator it = pPlayer->m_mapTPROTECTED.find(strName);

  0006b	8d 44 24 08	 lea	 eax, DWORD PTR _strName$[esp+28]
  0006f	50		 push	 eax
  00070	8d 4c 24 10	 lea	 ecx, DWORD PTR _it$[esp+32]
  00074	51		 push	 ecx
  00075	8d 8e 38 01 01
	00		 lea	 ecx, DWORD PTR [esi+65848]
  0007b	e8 00 00 00 00	 call	 ?find@?$_Tree@V?$_Tmap_traits@V?$CStringT@DV?$StrTraitATL@DV?$ChTraitsCRT@D@ATL@@@ATL@@@ATL@@EU?$less@V?$CStringT@DV?$StrTraitATL@DV?$ChTraitsCRT@D@ATL@@@ATL@@@ATL@@@std@@V?$allocator@U?$pair@$$CBV?$CStringT@DV?$StrTraitATL@DV?$ChTraitsCRT@D@ATL@@@ATL@@@ATL@@E@std@@@4@$0A@@std@@@std@@QAE?AViterator@12@ABV?$CStringT@DV?$StrTraitATL@DV?$ChTraitsCRT@D@ATL@@@ATL@@@ATL@@@Z ; std::_Tree<std::_Tmap_traits<ATL::CStringT<char,ATL::StrTraitATL<char,ATL::ChTraitsCRT<char> > >,unsigned char,std::less<ATL::CStringT<char,ATL::StrTraitATL<char,ATL::ChTraitsCRT<char> > > >,std::allocator<std::pair<ATL::CStringT<char,ATL::StrTraitATL<char,ATL::ChTraitsCRT<char> > > const ,unsigned char> >,0> >::find

; 668  : 	if(it==pPlayer->m_mapTPROTECTED.end())

  00080	8b b6 3c 01 01
	00		 mov	 esi, DWORD PTR [esi+65852]
  00086	8b 44 24 0c	 mov	 eax, DWORD PTR _it$[esp+28]
  0008a	3b c6		 cmp	 eax, esi

; 669  : 		return EC_NOERROR;

  0008c	c7 44 24 18 ff
	ff ff ff	 mov	 DWORD PTR __$EHRec$[esp+36], -1
  00094	75 05		 jne	 SHORT $L108281
  00096	83 c9 ff	 or	 ecx, -1
  00099	eb 0c		 jmp	 SHORT $L114625
$L108281:

; 670  : 
; 671  : 	(*it).second = bOption;

  0009b	8a 4c 24 20	 mov	 cl, BYTE PTR _bOption$[esp+24]
  0009f	88 48 10	 mov	 BYTE PTR [eax+16], cl

; 672  : 
; 673  : 	return EC_NOERROR;

  000a2	b9 ff ff ff ff	 mov	 ecx, -1
$L114625:
  000a7	8b 44 24 08	 mov	 eax, DWORD PTR _strName$[esp+28]
  000ab	83 c0 f0	 add	 eax, -16		; fffffff0H
  000ae	8d 50 0c	 lea	 edx, DWORD PTR [eax+12]
  000b1	f0 0f c1 0a	 lock	  xadd	 DWORD PTR [edx], ecx
  000b5	49		 dec	 ecx
  000b6	85 c9		 test	 ecx, ecx
  000b8	7f 08		 jg	 SHORT $L108198
  000ba	8b 08		 mov	 ecx, DWORD PTR [eax]
  000bc	8b 11		 mov	 edx, DWORD PTR [ecx]
  000be	50		 push	 eax
  000bf	ff 52 04	 call	 DWORD PTR [edx+4]
$L108198:

; 674  : }

  000c2	8b 4c 24 10	 mov	 ecx, DWORD PTR __$EHRec$[esp+28]
  000c6	5f		 pop	 edi
  000c7	33 c0		 xor	 eax, eax
  000c9	5e		 pop	 esi
  000ca	64 89 0d 00 00
	00 00		 mov	 DWORD PTR fs:__except_list, ecx
  000d1	83 c4 14	 add	 esp, 20			; 00000014H
  000d4	c2 04 00	 ret	 4
_TEXT	ENDS
;	COMDAT text$x
text$x	SEGMENT
$L114501:
  00000	8d 4d ec	 lea	 ecx, DWORD PTR _strName$[ebp]
  00003	e9 00 00 00 00	 jmp	 ??1?$CStringT@DV?$StrTraitATL@DV?$ChTraitsCRT@D@ATL@@@ATL@@@ATL@@QAE@XZ ; ATL::CStringT<char,ATL::StrTraitATL<char,ATL::ChTraitsCRT<char> > >::~CStringT<char,ATL::StrTraitATL<char,ATL::ChTraitsCRT<char> > >
__ehhandler$?OnCS_RELAYPROTECTEDOPTION_REQ@CTRelaySvrModule@@IAEKPAUtagPACKETBUF@@@Z:
  00008	b8 00 00 00 00	 mov	 eax, OFFSET FLAT:$T114622
  0000d	e9 00 00 00 00	 jmp	 ___CxxFrameHandler
text$x	ENDS
?OnCS_RELAYPROTECTEDOPTION_REQ@CTRelaySvrModule@@IAEKPAUtagPACKETBUF@@@Z ENDP ; CTRelaySvrModule::OnCS_RELAYPROTECTEDOPTION_REQ
PUBLIC	??0?$basic_string@DU?$char_traits@D@std@@V?$allocator@D@2@@std@@QAE@ABV01@@Z ; std::basic_string<char,std::char_traits<char>,std::allocator<char> >::basic_string<char,std::char_traits<char>,std::allocator<char> >
; Function compile flags: /Ogty
; File c:\program files (x86)\microsoft visual studio .net 2003\vc7\include\xstring
;	COMDAT ??0?$basic_string@DU?$char_traits@D@std@@V?$allocator@D@2@@std@@QAE@ABV01@@Z
_TEXT	SEGMENT
__Right$ = 8						; size = 4
??0?$basic_string@DU?$char_traits@D@std@@V?$allocator@D@2@@std@@QAE@ABV01@@Z PROC NEAR ; std::basic_string<char,std::char_traits<char>,std::allocator<char> >::basic_string<char,std::char_traits<char>,std::allocator<char> >, COMDAT
; _this$ = ecx

; 323  : 		{	// construct by copying _Right

  00000	56		 push	 esi

; 324  : 		_Tidy();

  00001	33 c0		 xor	 eax, eax
  00003	8b f1		 mov	 esi, ecx

; 325  : 		assign(_Right, 0, npos);

  00005	6a ff		 push	 -1
  00007	89 46 14	 mov	 DWORD PTR [esi+20], eax
  0000a	c7 46 18 0f 00
	00 00		 mov	 DWORD PTR [esi+24], 15	; 0000000fH
  00011	50		 push	 eax
  00012	88 46 04	 mov	 BYTE PTR [esi+4], al
  00015	8b 44 24 10	 mov	 eax, DWORD PTR __Right$[esp+8]
  00019	50		 push	 eax
  0001a	e8 00 00 00 00	 call	 ?assign@?$basic_string@DU?$char_traits@D@std@@V?$allocator@D@2@@std@@QAEAAV12@ABV12@II@Z ; std::basic_string<char,std::char_traits<char>,std::allocator<char> >::assign

; 326  : 		}

  0001f	8b c6		 mov	 eax, esi
  00021	5e		 pop	 esi
  00022	c2 04 00	 ret	 4
??0?$basic_string@DU?$char_traits@D@std@@V?$allocator@D@2@@std@@QAE@ABV01@@Z ENDP ; std::basic_string<char,std::char_traits<char>,std::allocator<char> >::basic_string<char,std::char_traits<char>,std::allocator<char> >
_TEXT	ENDS
PUBLIC	??4?$CStringT@DV?$StrTraitATL@DV?$ChTraitsCRT@D@ATL@@@ATL@@@ATL@@QAEAAV01@PBD@Z ; ATL::CStringT<char,ATL::StrTraitATL<char,ATL::ChTraitsCRT<char> > >::operator=
; Function compile flags: /Ogty
; File c:\program files (x86)\microsoft visual studio .net 2003\vc7\atlmfc\include\cstringt.h
;	COMDAT ??4?$CStringT@DV?$StrTraitATL@DV?$ChTraitsCRT@D@ATL@@@ATL@@@ATL@@QAEAAV01@PBD@Z
_TEXT	SEGMENT
_pszSrc$ = 8						; size = 4
??4?$CStringT@DV?$StrTraitATL@DV?$ChTraitsCRT@D@ATL@@@ATL@@@ATL@@QAEAAV01@PBD@Z PROC NEAR ; ATL::CStringT<char,ATL::StrTraitATL<char,ATL::ChTraitsCRT<char> > >::operator=, COMDAT
; _this$ = ecx

; 983  : 		CThisSimpleString::operator=( pszSrc );

  00000	8b 54 24 04	 mov	 edx, DWORD PTR _pszSrc$[esp-4]
  00004	85 d2		 test	 edx, edx
  00006	57		 push	 edi
  00007	8b f9		 mov	 edi, ecx
  00009	75 0f		 jne	 SHORT $L114714
  0000b	33 c0		 xor	 eax, eax
  0000d	50		 push	 eax
  0000e	52		 push	 edx
  0000f	e8 00 00 00 00	 call	 ?SetString@?$CSimpleStringT@D$0A@@ATL@@QAEXPBDH@Z ; ATL::CSimpleStringT<char,0>::SetString

; 984  : 
; 985  : 		return( *this );

  00014	8b c7		 mov	 eax, edi
  00016	5f		 pop	 edi

; 986  : 	}

  00017	c2 04 00	 ret	 4

; 983  : 		CThisSimpleString::operator=( pszSrc );

$L114714:
  0001a	8b c2		 mov	 eax, edx
  0001c	56		 push	 esi
  0001d	8d 70 01	 lea	 esi, DWORD PTR [eax+1]
$L114717:
  00020	8a 08		 mov	 cl, BYTE PTR [eax]
  00022	40		 inc	 eax
  00023	84 c9		 test	 cl, cl
  00025	75 f9		 jne	 SHORT $L114717
  00027	2b c6		 sub	 eax, esi
  00029	5e		 pop	 esi
  0002a	50		 push	 eax
  0002b	52		 push	 edx
  0002c	8b cf		 mov	 ecx, edi
  0002e	e8 00 00 00 00	 call	 ?SetString@?$CSimpleStringT@D$0A@@ATL@@QAEXPBDH@Z ; ATL::CSimpleStringT<char,0>::SetString

; 984  : 
; 985  : 		return( *this );

  00033	8b c7		 mov	 eax, edi
  00035	5f		 pop	 edi

; 986  : 	}

  00036	c2 04 00	 ret	 4
??4?$CStringT@DV?$StrTraitATL@DV?$ChTraitsCRT@D@ATL@@@ATL@@@ATL@@QAEAAV01@PBD@Z ENDP ; ATL::CStringT<char,ATL::StrTraitATL<char,ATL::ChTraitsCRT<char> > >::operator=
_TEXT	ENDS
PUBLIC	?assign@?$basic_string@DU?$char_traits@D@std@@V?$allocator@D@2@@std@@QAEAAV12@PBD@Z ; std::basic_string<char,std::char_traits<char>,std::allocator<char> >::assign
; Function compile flags: /Ogty
; File c:\program files (x86)\microsoft visual studio .net 2003\vc7\include\xstring
;	COMDAT ?assign@?$basic_string@DU?$char_traits@D@std@@V?$allocator@D@2@@std@@QAEAAV12@PBD@Z
_TEXT	SEGMENT
__Ptr$ = 8						; size = 4
?assign@?$basic_string@DU?$char_traits@D@std@@V?$allocator@D@2@@std@@QAEAAV12@PBD@Z PROC NEAR ; std::basic_string<char,std::char_traits<char>,std::allocator<char> >::assign, COMDAT
; _this$ = ecx

; 621  : 		{	// assign [_Ptr, <null>)

  00000	56		 push	 esi

; 622  : 		return (assign(_Ptr, _Traits::length(_Ptr)));

  00001	8b 74 24 08	 mov	 esi, DWORD PTR __Ptr$[esp]
  00005	8b c6		 mov	 eax, esi
  00007	57		 push	 edi
  00008	8d 78 01	 lea	 edi, DWORD PTR [eax+1]
  0000b	eb 03 8d 49 00	 npad	 5
$L114724:
  00010	8a 10		 mov	 dl, BYTE PTR [eax]
  00012	40		 inc	 eax
  00013	84 d2		 test	 dl, dl
  00015	75 f9		 jne	 SHORT $L114724
  00017	2b c7		 sub	 eax, edi
  00019	50		 push	 eax
  0001a	56		 push	 esi
  0001b	e8 00 00 00 00	 call	 ?assign@?$basic_string@DU?$char_traits@D@std@@V?$allocator@D@2@@std@@QAEAAV12@PBDI@Z ; std::basic_string<char,std::char_traits<char>,std::allocator<char> >::assign
  00020	5f		 pop	 edi
  00021	5e		 pop	 esi

; 623  : 		}

  00022	c2 04 00	 ret	 4
?assign@?$basic_string@DU?$char_traits@D@std@@V?$allocator@D@2@@std@@QAEAAV12@PBD@Z ENDP ; std::basic_string<char,std::char_traits<char>,std::allocator<char> >::assign
_TEXT	ENDS
PUBLIC	??0?$basic_string@DU?$char_traits@D@std@@V?$allocator@D@2@@std@@QAE@PBD@Z ; std::basic_string<char,std::char_traits<char>,std::allocator<char> >::basic_string<char,std::char_traits<char>,std::allocator<char> >
; Function compile flags: /Ogty
;	COMDAT ??0?$basic_string@DU?$char_traits@D@std@@V?$allocator@D@2@@std@@QAE@PBD@Z
_TEXT	SEGMENT
__Ptr$ = 8						; size = 4
??0?$basic_string@DU?$char_traits@D@std@@V?$allocator@D@2@@std@@QAE@PBD@Z PROC NEAR ; std::basic_string<char,std::char_traits<char>,std::allocator<char> >::basic_string<char,std::char_traits<char>,std::allocator<char> >, COMDAT
; _this$ = ecx

; 361  : 		_Tidy();
; 362  : 		assign(_Ptr);

  00000	8b 54 24 04	 mov	 edx, DWORD PTR __Ptr$[esp-4]
  00004	56		 push	 esi
  00005	8b f1		 mov	 esi, ecx
  00007	8b c2		 mov	 eax, edx
  00009	57		 push	 edi
  0000a	c7 46 18 0f 00
	00 00		 mov	 DWORD PTR [esi+24], 15	; 0000000fH
  00011	c7 46 14 00 00
	00 00		 mov	 DWORD PTR [esi+20], 0
  00018	c6 46 04 00	 mov	 BYTE PTR [esi+4], 0
  0001c	8d 78 01	 lea	 edi, DWORD PTR [eax+1]
  0001f	90		 npad	 1
$L114799:
  00020	8a 08		 mov	 cl, BYTE PTR [eax]
  00022	40		 inc	 eax
  00023	84 c9		 test	 cl, cl
  00025	75 f9		 jne	 SHORT $L114799
  00027	2b c7		 sub	 eax, edi
  00029	50		 push	 eax
  0002a	52		 push	 edx
  0002b	8b ce		 mov	 ecx, esi
  0002d	e8 00 00 00 00	 call	 ?assign@?$basic_string@DU?$char_traits@D@std@@V?$allocator@D@2@@std@@QAEAAV12@PBDI@Z ; std::basic_string<char,std::char_traits<char>,std::allocator<char> >::assign
  00032	5f		 pop	 edi

; 363  : 		}

  00033	8b c6		 mov	 eax, esi
  00035	5e		 pop	 esi
  00036	c2 04 00	 ret	 4
??0?$basic_string@DU?$char_traits@D@std@@V?$allocator@D@2@@std@@QAE@PBD@Z ENDP ; std::basic_string<char,std::char_traits<char>,std::allocator<char> >::basic_string<char,std::char_traits<char>,std::allocator<char> >
_TEXT	ENDS
PUBLIC	??0logic_error@std@@QAE@ABV?$basic_string@DU?$char_traits@D@std@@V?$allocator@D@2@@1@@Z ; std::logic_error::logic_error
EXTRN	??0exception@@QAE@XZ:NEAR			; exception::exception
;	COMDAT xdata$x
; File c:\program files (x86)\microsoft visual studio .net 2003\vc7\include\iosfwd
xdata$x	SEGMENT
$T114902 DD	0ffffffffH
	DD	FLAT:$L114803
$T114900 DD	019930520H
	DD	01H
	DD	FLAT:$T114902
	DD	2 DUP(00H)
	DD	2 DUP(00H)
; Function compile flags: /Ogty
; File c:\program files (x86)\microsoft visual studio .net 2003\vc7\include\stdexcept
xdata$x	ENDS
;	COMDAT ??0logic_error@std@@QAE@ABV?$basic_string@DU?$char_traits@D@std@@V?$allocator@D@2@@1@@Z
_TEXT	SEGMENT
_this$ = -16						; size = 4
__$EHRec$ = -12						; size = 12
__Message$ = 8						; size = 4
??0logic_error@std@@QAE@ABV?$basic_string@DU?$char_traits@D@std@@V?$allocator@D@2@@1@@Z PROC NEAR ; std::logic_error::logic_error, COMDAT
; _this$ = ecx

; 19   : 		{	// construct from message string

  00000	6a ff		 push	 -1
  00002	68 00 00 00 00	 push	 __ehhandler$??0logic_error@std@@QAE@ABV?$basic_string@DU?$char_traits@D@std@@V?$allocator@D@2@@1@@Z
  00007	64 a1 00 00 00
	00		 mov	 eax, DWORD PTR fs:__except_list
  0000d	50		 push	 eax
  0000e	64 89 25 00 00
	00 00		 mov	 DWORD PTR fs:__except_list, esp
  00015	51		 push	 ecx
  00016	56		 push	 esi
  00017	8b f1		 mov	 esi, ecx
  00019	89 74 24 04	 mov	 DWORD PTR _this$[esp+20], esi
  0001d	e8 00 00 00 00	 call	 ??0exception@@QAE@XZ	; exception::exception
  00022	33 c0		 xor	 eax, eax
  00024	8d 4e 0c	 lea	 ecx, DWORD PTR [esi+12]
  00027	c7 06 00 00 00
	00		 mov	 DWORD PTR [esi], OFFSET FLAT:??_7logic_error@std@@6B@
  0002d	6a ff		 push	 -1
  0002f	89 41 14	 mov	 DWORD PTR [ecx+20], eax
  00032	c7 41 18 0f 00
	00 00		 mov	 DWORD PTR [ecx+24], 15	; 0000000fH
  00039	50		 push	 eax
  0003a	89 44 24 18	 mov	 DWORD PTR __$EHRec$[esp+36], eax
  0003e	88 41 04	 mov	 BYTE PTR [ecx+4], al
  00041	8b 44 24 20	 mov	 eax, DWORD PTR __Message$[esp+24]
  00045	50		 push	 eax
  00046	e8 00 00 00 00	 call	 ?assign@?$basic_string@DU?$char_traits@D@std@@V?$allocator@D@2@@std@@QAEAAV12@ABV12@II@Z ; std::basic_string<char,std::char_traits<char>,std::allocator<char> >::assign

; 20   : 		}

  0004b	8b 4c 24 08	 mov	 ecx, DWORD PTR __$EHRec$[esp+20]
  0004f	8b c6		 mov	 eax, esi
  00051	5e		 pop	 esi
  00052	64 89 0d 00 00
	00 00		 mov	 DWORD PTR fs:__except_list, ecx
  00059	83 c4 10	 add	 esp, 16			; 00000010H
  0005c	c2 04 00	 ret	 4
_TEXT	ENDS
;	COMDAT text$x
text$x	SEGMENT
$L114803:
  00000	8b 4d f0	 mov	 ecx, DWORD PTR _this$[ebp]
  00003	e9 00 00 00 00	 jmp	 ??1exception@@UAE@XZ	; exception::~exception
__ehhandler$??0logic_error@std@@QAE@ABV?$basic_string@DU?$char_traits@D@std@@V?$allocator@D@2@@1@@Z:
  00008	b8 00 00 00 00	 mov	 eax, OFFSET FLAT:$T114900
  0000d	e9 00 00 00 00	 jmp	 ___CxxFrameHandler
text$x	ENDS
??0logic_error@std@@QAE@ABV?$basic_string@DU?$char_traits@D@std@@V?$allocator@D@2@@1@@Z ENDP ; std::logic_error::logic_error
PUBLIC	??0length_error@std@@QAE@ABV?$basic_string@DU?$char_traits@D@std@@V?$allocator@D@2@@1@@Z ; std::length_error::length_error
PUBLIC	??_7length_error@std@@6B@			; std::length_error::`vftable'
PUBLIC	??_Glength_error@std@@UAEPAXI@Z			; std::length_error::`scalar deleting destructor'
EXTRN	??_Elength_error@std@@UAEPAXI@Z:NEAR		; std::length_error::`vector deleting destructor'
;	COMDAT ??_7length_error@std@@6B@
CONST	SEGMENT
??_7length_error@std@@6B@ DD FLAT:??_Elength_error@std@@UAEPAXI@Z ; std::length_error::`vftable'
	DD	FLAT:?what@logic_error@std@@UBEPBDXZ
; Function compile flags: /Ogty
CONST	ENDS
;	COMDAT ??0length_error@std@@QAE@ABV?$basic_string@DU?$char_traits@D@std@@V?$allocator@D@2@@1@@Z
_TEXT	SEGMENT
__Message$ = 8						; size = 4
??0length_error@std@@QAE@ABV?$basic_string@DU?$char_traits@D@std@@V?$allocator@D@2@@1@@Z PROC NEAR ; std::length_error::length_error, COMDAT
; _this$ = ecx

; 95   : 		{	// construct from message string

  00000	8b 44 24 04	 mov	 eax, DWORD PTR __Message$[esp-4]
  00004	56		 push	 esi
  00005	50		 push	 eax
  00006	8b f1		 mov	 esi, ecx
  00008	e8 00 00 00 00	 call	 ??0logic_error@std@@QAE@ABV?$basic_string@DU?$char_traits@D@std@@V?$allocator@D@2@@1@@Z ; std::logic_error::logic_error
  0000d	c7 06 00 00 00
	00		 mov	 DWORD PTR [esi], OFFSET FLAT:??_7length_error@std@@6B@

; 96   : 		}

  00013	8b c6		 mov	 eax, esi
  00015	5e		 pop	 esi
  00016	c2 04 00	 ret	 4
??0length_error@std@@QAE@ABV?$basic_string@DU?$char_traits@D@std@@V?$allocator@D@2@@1@@Z ENDP ; std::length_error::length_error
_TEXT	ENDS
PUBLIC	??1length_error@std@@UAE@XZ			; std::length_error::~length_error
; Function compile flags: /Ogty
;	COMDAT ??_Glength_error@std@@UAEPAXI@Z
_TEXT	SEGMENT
___flags$ = 8						; size = 4
??_Glength_error@std@@UAEPAXI@Z PROC NEAR		; std::length_error::`scalar deleting destructor', COMDAT
; _this$ = ecx
  00000	56		 push	 esi
  00001	8b f1		 mov	 esi, ecx
  00003	e8 00 00 00 00	 call	 ??1length_error@std@@UAE@XZ ; std::length_error::~length_error
  00008	f6 44 24 08 01	 test	 BYTE PTR ___flags$[esp], 1
  0000d	74 09		 je	 SHORT $L114912
  0000f	56		 push	 esi
  00010	e8 00 00 00 00	 call	 ??3@YAXPAX@Z		; operator delete
  00015	83 c4 04	 add	 esp, 4
$L114912:
  00018	8b c6		 mov	 eax, esi
  0001a	5e		 pop	 esi
  0001b	c2 04 00	 ret	 4
??_Glength_error@std@@UAEPAXI@Z ENDP			; std::length_error::`scalar deleting destructor'
; Function compile flags: /Ogty
_TEXT	ENDS
;	COMDAT ??1length_error@std@@UAE@XZ
_TEXT	SEGMENT
??1length_error@std@@UAE@XZ PROC NEAR			; std::length_error::~length_error, COMDAT
; _this$ = ecx

; 99   : 		{}	// destroy the object

  00000	56		 push	 esi
  00001	8b f1		 mov	 esi, ecx
  00003	c7 06 00 00 00
	00		 mov	 DWORD PTR [esi], OFFSET FLAT:??_7logic_error@std@@6B@
  00009	83 7e 24 10	 cmp	 DWORD PTR [esi+36], 16	; 00000010H
  0000d	72 0c		 jb	 SHORT $L115006
  0000f	8b 46 10	 mov	 eax, DWORD PTR [esi+16]
  00012	50		 push	 eax
  00013	e8 00 00 00 00	 call	 ??3@YAXPAX@Z		; operator delete
  00018	83 c4 04	 add	 esp, 4
$L115006:
  0001b	33 c0		 xor	 eax, eax
  0001d	c7 46 24 0f 00
	00 00		 mov	 DWORD PTR [esi+36], 15	; 0000000fH
  00024	89 46 20	 mov	 DWORD PTR [esi+32], eax
  00027	88 46 10	 mov	 BYTE PTR [esi+16], al
  0002a	8b ce		 mov	 ecx, esi
  0002c	5e		 pop	 esi
  0002d	e9 00 00 00 00	 jmp	 ??1exception@@UAE@XZ	; exception::~exception
??1length_error@std@@UAE@XZ ENDP			; std::length_error::~length_error
_TEXT	ENDS
PUBLIC	??0?$CStringT@DV?$StrTraitATL@DV?$ChTraitsCRT@D@ATL@@@ATL@@@ATL@@QAE@PBD@Z ; ATL::CStringT<char,ATL::StrTraitATL<char,ATL::ChTraitsCRT<char> > >::CStringT<char,ATL::StrTraitATL<char,ATL::ChTraitsCRT<char> > >
;	COMDAT xdata$x
; File c:\program files (x86)\microsoft visual studio .net 2003\vc7\atlmfc\include\atlsimpstr.h
xdata$x	SEGMENT
$T115102 DD	0ffffffffH
	DD	FLAT:$L115022
$T115096 DD	019930520H
	DD	01H
	DD	FLAT:$T115102
	DD	2 DUP(00H)
	DD	2 DUP(00H)
; Function compile flags: /Ogty
; File c:\program files (x86)\microsoft visual studio .net 2003\vc7\atlmfc\include\cstringt.h
xdata$x	ENDS
;	COMDAT ??0?$CStringT@DV?$StrTraitATL@DV?$ChTraitsCRT@D@ATL@@@ATL@@@ATL@@QAE@PBD@Z
_TEXT	SEGMENT
_this$ = -16						; size = 4
__$EHRec$ = -12						; size = 12
_pszSrc$ = 8						; size = 4
??0?$CStringT@DV?$StrTraitATL@DV?$ChTraitsCRT@D@ATL@@@ATL@@@ATL@@QAE@PBD@Z PROC NEAR ; ATL::CStringT<char,ATL::StrTraitATL<char,ATL::ChTraitsCRT<char> > >::CStringT<char,ATL::StrTraitATL<char,ATL::ChTraitsCRT<char> > >, COMDAT
; _this$ = ecx

; 830  : 	{

  00000	6a ff		 push	 -1
  00002	68 00 00 00 00	 push	 __ehhandler$??0?$CStringT@DV?$StrTraitATL@DV?$ChTraitsCRT@D@ATL@@@ATL@@@ATL@@QAE@PBD@Z
  00007	64 a1 00 00 00
	00		 mov	 eax, DWORD PTR fs:__except_list
  0000d	50		 push	 eax
  0000e	64 89 25 00 00
	00 00		 mov	 DWORD PTR fs:__except_list, esp
  00015	51		 push	 ecx
  00016	a1 00 00 00 00	 mov	 eax, DWORD PTR ?g_strmgr@ATL@@3VCAtlStringMgr@1@A
  0001b	56		 push	 esi
  0001c	8b f1		 mov	 esi, ecx
  0001e	57		 push	 edi
  0001f	b9 00 00 00 00	 mov	 ecx, OFFSET FLAT:?g_strmgr@ATL@@3VCAtlStringMgr@1@A ; ATL::g_strmgr
  00024	89 74 24 08	 mov	 DWORD PTR _this$[esp+24], esi
  00028	ff 50 0c	 call	 DWORD PTR [eax+12]
  0002b	83 c0 10	 add	 eax, 16			; 00000010H
  0002e	89 06		 mov	 DWORD PTR [esi], eax

; 831  : 		if( !CheckImplicitLoad( pszSrc ) )

  00030	8b 54 24 1c	 mov	 edx, DWORD PTR _pszSrc$[esp+20]
  00034	85 d2		 test	 edx, edx
  00036	c7 44 24 14 00
	00 00 00	 mov	 DWORD PTR __$EHRec$[esp+32], 0
  0003e	74 38		 je	 SHORT $L115098
  00040	f7 c2 00 00 ff
	ff		 test	 edx, -65536		; ffff0000H
  00046	75 34		 jne	 SHORT $L115092
  00048	0f b7 fa	 movzx	 edi, dx
  0004b	6a 00		 push	 0
  0004d	57		 push	 edi
  0004e	e8 00 00 00 00	 call	 ?AtlFindStringResourceInstance@ATL@@YAPAUHINSTANCE__@@IG@Z ; ATL::AtlFindStringResourceInstance
  00053	83 c4 08	 add	 esp, 8
  00056	85 c0		 test	 eax, eax
  00058	74 39		 je	 SHORT $L115100
  0005a	57		 push	 edi
  0005b	50		 push	 eax
  0005c	8b ce		 mov	 ecx, esi
  0005e	e8 00 00 00 00	 call	 ?LoadStringA@?$CStringT@DV?$StrTraitATL@DV?$ChTraitsCRT@D@ATL@@@ATL@@@ATL@@QAEHPAUHINSTANCE__@@I@Z ; ATL::CStringT<char,ATL::StrTraitATL<char,ATL::ChTraitsCRT<char> > >::LoadStringA
  00063	5f		 pop	 edi

; 835  : 		}
; 836  : 	}

  00064	8b c6		 mov	 eax, esi
  00066	5e		 pop	 esi
  00067	8b 4c 24 04	 mov	 ecx, DWORD PTR __$EHRec$[esp+16]
  0006b	64 89 0d 00 00
	00 00		 mov	 DWORD PTR fs:__except_list, ecx
  00072	83 c4 10	 add	 esp, 16			; 00000010H
  00075	c2 04 00	 ret	 4
$L115098:

; 832  : 		{
; 833  : 			// nDestLength is in XCHARs
; 834  : 			*this = pszSrc;

  00078	33 c0		 xor	 eax, eax
  0007a	eb 0e		 jmp	 SHORT $L115091
$L115092:
  0007c	8b c2		 mov	 eax, edx
  0007e	8d 78 01	 lea	 edi, DWORD PTR [eax+1]
$L115099:
  00081	8a 08		 mov	 cl, BYTE PTR [eax]
  00083	40		 inc	 eax
  00084	84 c9		 test	 cl, cl
  00086	75 f9		 jne	 SHORT $L115099
  00088	2b c7		 sub	 eax, edi
$L115091:
  0008a	50		 push	 eax
  0008b	52		 push	 edx
  0008c	8b ce		 mov	 ecx, esi
  0008e	e8 00 00 00 00	 call	 ?SetString@?$CSimpleStringT@D$0A@@ATL@@QAEXPBDH@Z ; ATL::CSimpleStringT<char,0>::SetString
$L115100:

; 835  : 		}
; 836  : 	}

  00093	8b 4c 24 0c	 mov	 ecx, DWORD PTR __$EHRec$[esp+24]
  00097	5f		 pop	 edi
  00098	8b c6		 mov	 eax, esi
  0009a	5e		 pop	 esi
  0009b	64 89 0d 00 00
	00 00		 mov	 DWORD PTR fs:__except_list, ecx
  000a2	83 c4 10	 add	 esp, 16			; 00000010H
  000a5	c2 04 00	 ret	 4
_TEXT	ENDS
;	COMDAT text$x
text$x	SEGMENT
$L115022:
  00000	8b 4d f0	 mov	 ecx, DWORD PTR _this$[ebp]
  00003	e9 00 00 00 00	 jmp	 ??1?$CSimpleStringT@D$0A@@ATL@@QAE@XZ ; ATL::CSimpleStringT<char,0>::~CSimpleStringT<char,0>
__ehhandler$??0?$CStringT@DV?$StrTraitATL@DV?$ChTraitsCRT@D@ATL@@@ATL@@@ATL@@QAE@PBD@Z:
  00008	b8 00 00 00 00	 mov	 eax, OFFSET FLAT:$T115096
  0000d	e9 00 00 00 00	 jmp	 ___CxxFrameHandler
text$x	ENDS
??0?$CStringT@DV?$StrTraitATL@DV?$ChTraitsCRT@D@ATL@@@ATL@@@ATL@@QAE@PBD@Z ENDP ; ATL::CStringT<char,ATL::StrTraitATL<char,ATL::ChTraitsCRT<char> > >::CStringT<char,ATL::StrTraitATL<char,ATL::ChTraitsCRT<char> > >
PUBLIC	??_C@_00CNPNBAHC@?$AA@				; `string'
PUBLIC	?OnCT_ANNOUNCEMENT_ACK@CTRelaySvrModule@@IAEKPAUtagPACKETBUF@@@Z ; CTRelaySvrModule::OnCT_ANNOUNCEMENT_ACK
EXTRN	?SendCS_CHAT_ACK@CTPlayer@@QAEXEKV?$CStringT@DV?$StrTraitATL@DV?$ChTraitsCRT@D@ATL@@@ATL@@@ATL@@0@Z:NEAR ; CTPlayer::SendCS_CHAT_ACK
EXTRN	?GetSvrMsg@CTRelaySvrModule@@QAE?AV?$CStringT@DV?$StrTraitATL@DV?$ChTraitsCRT@D@ATL@@@ATL@@@ATL@@K@Z:NEAR ; CTRelaySvrModule::GetSvrMsg
EXTRN	?BuildNetString@CTRelaySvrModule@@QAE?AV?$CStringT@DV?$StrTraitATL@DV?$ChTraitsCRT@D@ATL@@@ATL@@@ATL@@ABV23@0@Z:NEAR ; CTRelaySvrModule::BuildNetString
;	COMDAT xdata$x
; File c:\program files (x86)\microsoft visual studio .net 2003\vc7\atlmfc\include\atlsimpstr.h
xdata$x	SEGMENT
$T115302 DD	0ffffffffH
	DD	FLAT:$L115115
	DD	00H
	DD	FLAT:$L115116
	DD	01H
	DD	FLAT:$L115117
$T115297 DD	019930520H
	DD	03H
	DD	FLAT:$T115302
	DD	2 DUP(00H)
	DD	2 DUP(00H)
xdata$x	ENDS
;	COMDAT ??_C@_00CNPNBAHC@?$AA@
CONST	SEGMENT
??_C@_00CNPNBAHC@?$AA@ DB 00H				; `string'
; Function compile flags: /Ogty
; File c:\users\pierr\desktop\4story - oldschool\sources\tserver\trelaysvr\cshandler.cpp
CONST	ENDS
;	COMDAT ?OnCT_ANNOUNCEMENT_ACK@CTRelaySvrModule@@IAEKPAUtagPACKETBUF@@@Z
_TEXT	SEGMENT
_strAnnounce$ = -28					; size = 4
_it$ = -24						; size = 4
$T115111 = -20						; size = 4
$T115113 = -16						; size = 4
__$EHRec$ = -12						; size = 12
$T115112 = 8						; size = 4
_pBUF$ = 8						; size = 4
?OnCT_ANNOUNCEMENT_ACK@CTRelaySvrModule@@IAEKPAUtagPACKETBUF@@@Z PROC NEAR ; CTRelaySvrModule::OnCT_ANNOUNCEMENT_ACK, COMDAT
; _this$ = ecx

; 51   : {

  00000	6a ff		 push	 -1
  00002	68 00 00 00 00	 push	 __ehhandler$?OnCT_ANNOUNCEMENT_ACK@CTRelaySvrModule@@IAEKPAUtagPACKETBUF@@@Z
  00007	64 a1 00 00 00
	00		 mov	 eax, DWORD PTR fs:__except_list
  0000d	50		 push	 eax
  0000e	64 89 25 00 00
	00 00		 mov	 DWORD PTR fs:__except_list, esp
  00015	83 ec 10	 sub	 esp, 16			; 00000010H

; 52   : 	MAPPLAYER::iterator it;
; 53   : 	CString strAnnounce;

  00018	a1 00 00 00 00	 mov	 eax, DWORD PTR ?g_strmgr@ATL@@3VCAtlStringMgr@1@A
  0001d	53		 push	 ebx
  0001e	56		 push	 esi
  0001f	8b f1		 mov	 esi, ecx
  00021	57		 push	 edi
  00022	b9 00 00 00 00	 mov	 ecx, OFFSET FLAT:?g_strmgr@ATL@@3VCAtlStringMgr@1@A ; ATL::g_strmgr
  00027	ff 50 0c	 call	 DWORD PTR [eax+12]
  0002a	83 c0 10	 add	 eax, 16			; 00000010H
  0002d	89 44 24 0c	 mov	 DWORD PTR _strAnnounce$[esp+40], eax

; 54   : 
; 55   : 	pBUF->m_packet
; 56   : 		>> strAnnounce;

  00031	8d 4c 24 0c	 lea	 ecx, DWORD PTR _strAnnounce$[esp+40]
  00035	51		 push	 ecx
  00036	8b 4c 24 30	 mov	 ecx, DWORD PTR _pBUF$[esp+40]
  0003a	83 c1 04	 add	 ecx, 4
  0003d	c7 44 24 28 00
	00 00 00	 mov	 DWORD PTR __$EHRec$[esp+52], 0
  00045	e8 00 00 00 00	 call	 ??5CPacket@@QAEAAV0@AAV?$CStringT@DV?$StrTraitATL@DV?$ChTraitsCRT@D@ATL@@@ATL@@@ATL@@@Z ; CPacket::operator>>

; 57   : 
; 58   : 	for( it = m_mapPLAYER.begin(); it != m_mapPLAYER.end(); it++)

  0004a	8b 86 78 01 00
	00		 mov	 eax, DWORD PTR [esi+376]
  00050	8b 08		 mov	 ecx, DWORD PTR [eax]
  00052	3b c8		 cmp	 ecx, eax
  00054	89 4c 24 10	 mov	 DWORD PTR _it$[esp+40], ecx
  00058	0f 84 a5 00 00
	00		 je	 $L107553
  0005e	b3 01		 mov	 bl, 1
$L115196:

; 59   : 	{
; 60   : 		CTPlayer* pPlayer = (*it).second;

  00060	8b 79 10	 mov	 edi, DWORD PTR [ecx+16]

; 61   : 		if( pPlayer && pPlayer->m_bAuthorized )

  00063	85 ff		 test	 edi, edi
  00065	0f 84 7d 00 00
	00		 je	 $L107552
  0006b	8a 87 26 01 01
	00		 mov	 al, BYTE PTR [edi+65830]
  00071	84 c0		 test	 al, al
  00073	74 73		 je	 SHORT $L107552

; 62   :             pPlayer->SendCS_CHAT_ACK( CHAT_WORLD, 0, GetSvrMsg(NAME_OPERATOR), BuildNetString(NAME_NULL, strAnnounce));

  00075	68 00 00 00 00	 push	 OFFSET FLAT:??_C@_00CNPNBAHC@?$AA@
  0007a	8d 4c 24 30	 lea	 ecx, DWORD PTR $T115112[esp+40]
  0007e	e8 00 00 00 00	 call	 ??0?$CStringT@DV?$StrTraitATL@DV?$ChTraitsCRT@D@ATL@@@ATL@@@ATL@@QAE@PBD@Z ; ATL::CStringT<char,ATL::StrTraitATL<char,ATL::ChTraitsCRT<char> > >::CStringT<char,ATL::StrTraitATL<char,ATL::ChTraitsCRT<char> > >
  00083	51		 push	 ecx
  00084	8b d4		 mov	 edx, esp
  00086	89 64 24 18	 mov	 DWORD PTR $T115111[esp+44], esp
  0008a	8d 44 24 10	 lea	 eax, DWORD PTR _strAnnounce$[esp+44]
  0008e	50		 push	 eax
  0008f	8d 4c 24 34	 lea	 ecx, DWORD PTR $T115112[esp+44]
  00093	51		 push	 ecx
  00094	52		 push	 edx
  00095	8b ce		 mov	 ecx, esi
  00097	88 5c 24 34	 mov	 BYTE PTR __$EHRec$[esp+64], bl
  0009b	e8 00 00 00 00	 call	 ?BuildNetString@CTRelaySvrModule@@QAE?AV?$CStringT@DV?$StrTraitATL@DV?$ChTraitsCRT@D@ATL@@@ATL@@@ATL@@ABV23@0@Z ; CTRelaySvrModule::BuildNetString
  000a0	51		 push	 ecx
  000a1	8b d4		 mov	 edx, esp
  000a3	89 64 24 20	 mov	 DWORD PTR $T115113[esp+48], esp
  000a7	6a 06		 push	 6
  000a9	52		 push	 edx
  000aa	8b ce		 mov	 ecx, esi
  000ac	c6 44 24 34 02	 mov	 BYTE PTR __$EHRec$[esp+64], 2
  000b1	e8 00 00 00 00	 call	 ?GetSvrMsg@CTRelaySvrModule@@QAE?AV?$CStringT@DV?$StrTraitATL@DV?$ChTraitsCRT@D@ATL@@@ATL@@@ATL@@K@Z ; CTRelaySvrModule::GetSvrMsg
  000b6	6a 00		 push	 0
  000b8	6a 03		 push	 3
  000ba	8b cf		 mov	 ecx, edi
  000bc	88 5c 24 34	 mov	 BYTE PTR __$EHRec$[esp+64], bl
  000c0	e8 00 00 00 00	 call	 ?SendCS_CHAT_ACK@CTPlayer@@QAEXEKV?$CStringT@DV?$StrTraitATL@DV?$ChTraitsCRT@D@ATL@@@ATL@@@ATL@@0@Z ; CTPlayer::SendCS_CHAT_ACK
  000c5	8b 44 24 2c	 mov	 eax, DWORD PTR $T115112[esp+36]
  000c9	83 c0 f0	 add	 eax, -16		; fffffff0H
  000cc	c6 44 24 24 00	 mov	 BYTE PTR __$EHRec$[esp+48], 0
  000d1	8d 48 0c	 lea	 ecx, DWORD PTR [eax+12]
  000d4	83 ca ff	 or	 edx, -1
  000d7	f0 0f c1 11	 lock	  xadd	 DWORD PTR [ecx], edx
  000db	4a		 dec	 edx
  000dc	85 d2		 test	 edx, edx
  000de	7f 08		 jg	 SHORT $L107552
  000e0	8b 08		 mov	 ecx, DWORD PTR [eax]
  000e2	8b 11		 mov	 edx, DWORD PTR [ecx]
  000e4	50		 push	 eax
  000e5	ff 52 04	 call	 DWORD PTR [edx+4]
$L107552:
  000e8	8d 4c 24 10	 lea	 ecx, DWORD PTR _it$[esp+40]
  000ec	e8 00 00 00 00	 call	 ?_Inc@const_iterator@?$_Tree@V?$_Tmap_traits@KPAVCTPlayer@@U?$less@K@std@@V?$allocator@U?$pair@$$CBKPAVCTPlayer@@@std@@@3@$0A@@std@@@std@@QAEXXZ ; std::_Tree<std::_Tmap_traits<unsigned long,CTPlayer *,std::less<unsigned long>,std::allocator<std::pair<unsigned long const ,CTPlayer *> >,0> >::const_iterator::_Inc
  000f1	8b 86 78 01 00
	00		 mov	 eax, DWORD PTR [esi+376]
  000f7	8b 4c 24 10	 mov	 ecx, DWORD PTR _it$[esp+40]
  000fb	3b c8		 cmp	 ecx, eax
  000fd	0f 85 5d ff ff
	ff		 jne	 $L115196
$L107553:

; 63   : 	}
; 64   : 
; 65   : 	return EC_NOERROR;

  00103	8b 44 24 0c	 mov	 eax, DWORD PTR _strAnnounce$[esp+40]
  00107	83 c0 f0	 add	 eax, -16		; fffffff0H
  0010a	c7 44 24 24 ff
	ff ff ff	 mov	 DWORD PTR __$EHRec$[esp+48], -1
  00112	8d 48 0c	 lea	 ecx, DWORD PTR [eax+12]
  00115	83 ca ff	 or	 edx, -1
  00118	f0 0f c1 11	 lock	  xadd	 DWORD PTR [ecx], edx
  0011c	4a		 dec	 edx
  0011d	85 d2		 test	 edx, edx
  0011f	7f 08		 jg	 SHORT $L115300
  00121	8b 08		 mov	 ecx, DWORD PTR [eax]
  00123	8b 11		 mov	 edx, DWORD PTR [ecx]
  00125	50		 push	 eax
  00126	ff 52 04	 call	 DWORD PTR [edx+4]
$L115300:

; 66   : }

  00129	8b 4c 24 1c	 mov	 ecx, DWORD PTR __$EHRec$[esp+40]
  0012d	5f		 pop	 edi
  0012e	5e		 pop	 esi
  0012f	33 c0		 xor	 eax, eax
  00131	64 89 0d 00 00
	00 00		 mov	 DWORD PTR fs:__except_list, ecx
  00138	5b		 pop	 ebx
  00139	83 c4 1c	 add	 esp, 28			; 0000001cH
  0013c	c2 04 00	 ret	 4
_TEXT	ENDS
;	COMDAT text$x
text$x	SEGMENT
$L115115:
  00000	8d 4d e4	 lea	 ecx, DWORD PTR _strAnnounce$[ebp]
  00003	e9 00 00 00 00	 jmp	 ??1?$CStringT@DV?$StrTraitATL@DV?$ChTraitsCRT@D@ATL@@@ATL@@@ATL@@QAE@XZ ; ATL::CStringT<char,ATL::StrTraitATL<char,ATL::ChTraitsCRT<char> > >::~CStringT<char,ATL::StrTraitATL<char,ATL::ChTraitsCRT<char> > >
$L115116:
  00008	8d 4d 04	 lea	 ecx, DWORD PTR $T115112[ebp-4]
  0000b	e9 00 00 00 00	 jmp	 ??1?$CStringT@DV?$StrTraitATL@DV?$ChTraitsCRT@D@ATL@@@ATL@@@ATL@@QAE@XZ ; ATL::CStringT<char,ATL::StrTraitATL<char,ATL::ChTraitsCRT<char> > >::~CStringT<char,ATL::StrTraitATL<char,ATL::ChTraitsCRT<char> > >
$L115117:
  00010	8b 4d ec	 mov	 ecx, DWORD PTR $T115111[ebp]
  00013	e9 00 00 00 00	 jmp	 ??1?$CStringT@DV?$StrTraitATL@DV?$ChTraitsCRT@D@ATL@@@ATL@@@ATL@@QAE@XZ ; ATL::CStringT<char,ATL::StrTraitATL<char,ATL::ChTraitsCRT<char> > >::~CStringT<char,ATL::StrTraitATL<char,ATL::ChTraitsCRT<char> > >
__ehhandler$?OnCT_ANNOUNCEMENT_ACK@CTRelaySvrModule@@IAEKPAUtagPACKETBUF@@@Z:
  00018	b8 00 00 00 00	 mov	 eax, OFFSET FLAT:$T115297
  0001d	e9 00 00 00 00	 jmp	 ___CxxFrameHandler
text$x	ENDS
?OnCT_ANNOUNCEMENT_ACK@CTRelaySvrModule@@IAEKPAUtagPACKETBUF@@@Z ENDP ; CTRelaySvrModule::OnCT_ANNOUNCEMENT_ACK
PUBLIC	?OnCT_CHARMSG_ACK@CTRelaySvrModule@@IAEKPAUtagPACKETBUF@@@Z ; CTRelaySvrModule::OnCT_CHARMSG_ACK
;	COMDAT xdata$x
; File c:\program files (x86)\microsoft visual studio .net 2003\vc7\atlmfc\include\atlsimpstr.h
xdata$x	SEGMENT
$T115590 DD	0ffffffffH
	DD	FLAT:$L115315
	DD	00H
	DD	FLAT:$L115316
	DD	01H
	DD	FLAT:$L115319
	DD	02H
	DD	FLAT:$L115320
$T115584 DD	019930520H
	DD	04H
	DD	FLAT:$T115590
	DD	2 DUP(00H)
	DD	2 DUP(00H)
; Function compile flags: /Ogty
; File c:\users\pierr\desktop\4story - oldschool\sources\tserver\trelaysvr\cshandler.cpp
xdata$x	ENDS
;	COMDAT ?OnCT_CHARMSG_ACK@CTRelaySvrModule@@IAEKPAUtagPACKETBUF@@@Z
_TEXT	SEGMENT
_strMsg$ = -28						; size = 4
_strName$ = -24						; size = 4
$T115311 = -20						; size = 4
$T115313 = -16						; size = 4
__$EHRec$ = -12						; size = 12
$T115312 = 8						; size = 4
$T115310 = 8						; size = 4
$T115308 = 8						; size = 4
_pBUF$ = 8						; size = 4
?OnCT_CHARMSG_ACK@CTRelaySvrModule@@IAEKPAUtagPACKETBUF@@@Z PROC NEAR ; CTRelaySvrModule::OnCT_CHARMSG_ACK, COMDAT
; _this$ = ecx

; 101  : {

  00000	6a ff		 push	 -1
  00002	68 00 00 00 00	 push	 __ehhandler$?OnCT_CHARMSG_ACK@CTRelaySvrModule@@IAEKPAUtagPACKETBUF@@@Z
  00007	64 a1 00 00 00
	00		 mov	 eax, DWORD PTR fs:__except_list
  0000d	50		 push	 eax
  0000e	64 89 25 00 00
	00 00		 mov	 DWORD PTR fs:__except_list, esp
  00015	83 ec 10	 sub	 esp, 16			; 00000010H

; 102  : 	CString strName;

  00018	a1 00 00 00 00	 mov	 eax, DWORD PTR ?g_strmgr@ATL@@3VCAtlStringMgr@1@A
  0001d	56		 push	 esi
  0001e	8b f1		 mov	 esi, ecx
  00020	57		 push	 edi
  00021	b9 00 00 00 00	 mov	 ecx, OFFSET FLAT:?g_strmgr@ATL@@3VCAtlStringMgr@1@A ; ATL::g_strmgr
  00026	ff 50 0c	 call	 DWORD PTR [eax+12]
  00029	83 c0 10	 add	 eax, 16			; 00000010H
  0002c	89 44 24 0c	 mov	 DWORD PTR _strName$[esp+36], eax

; 103  : 	CString strMsg;

  00030	8b 15 00 00 00
	00		 mov	 edx, DWORD PTR ?g_strmgr@ATL@@3VCAtlStringMgr@1@A
  00036	b9 00 00 00 00	 mov	 ecx, OFFSET FLAT:?g_strmgr@ATL@@3VCAtlStringMgr@1@A ; ATL::g_strmgr
  0003b	c7 44 24 20 00
	00 00 00	 mov	 DWORD PTR __$EHRec$[esp+44], 0
  00043	ff 52 0c	 call	 DWORD PTR [edx+12]
  00046	83 c0 10	 add	 eax, 16			; 00000010H
  00049	89 44 24 08	 mov	 DWORD PTR _strMsg$[esp+36], eax

; 104  : 
; 105  : 	pBUF->m_packet
; 106  : 		>> strName
; 107  : 		>> strMsg;

  0004d	8d 44 24 08	 lea	 eax, DWORD PTR _strMsg$[esp+36]
  00051	50		 push	 eax
  00052	8d 4c 24 10	 lea	 ecx, DWORD PTR _strName$[esp+40]
  00056	51		 push	 ecx
  00057	8b 4c 24 30	 mov	 ecx, DWORD PTR _pBUF$[esp+40]
  0005b	83 c1 04	 add	 ecx, 4
  0005e	c6 44 24 28 01	 mov	 BYTE PTR __$EHRec$[esp+52], 1
  00063	e8 00 00 00 00	 call	 ??5CPacket@@QAEAAV0@AAV?$CStringT@DV?$StrTraitATL@DV?$ChTraitsCRT@D@ATL@@@ATL@@@ATL@@@Z ; CPacket::operator>>
  00068	8b c8		 mov	 ecx, eax
  0006a	e8 00 00 00 00	 call	 ??5CPacket@@QAEAAV0@AAV?$CStringT@DV?$StrTraitATL@DV?$ChTraitsCRT@D@ATL@@@ATL@@@ATL@@@Z ; CPacket::operator>>

; 108  : 
; 109  : 	CTPlayer* pTarget = FindPlayer(strName);

  0006f	8b 44 24 0c	 mov	 eax, DWORD PTR _strName$[esp+36]
  00073	51		 push	 ecx
  00074	83 c0 f0	 add	 eax, -16		; fffffff0H
  00077	89 64 24 2c	 mov	 DWORD PTR $T115308[esp+36], esp
  0007b	8b fc		 mov	 edi, esp
  0007d	50		 push	 eax
  0007e	e8 00 00 00 00	 call	 ?CloneData@?$CSimpleStringT@D$0A@@ATL@@CAPAUCStringData@2@PAU32@@Z ; ATL::CSimpleStringT<char,0>::CloneData
  00083	83 c0 10	 add	 eax, 16			; 00000010H
  00086	83 c4 04	 add	 esp, 4
  00089	8b ce		 mov	 ecx, esi
  0008b	89 07		 mov	 DWORD PTR [edi], eax
  0008d	e8 00 00 00 00	 call	 ?FindPlayer@CTRelaySvrModule@@QAEPAVCTPlayer@@V?$CStringT@DV?$StrTraitATL@DV?$ChTraitsCRT@D@ATL@@@ATL@@@ATL@@@Z ; CTRelaySvrModule::FindPlayer
  00092	8b f8		 mov	 edi, eax

; 110  : 	if(!pTarget)

  00094	85 ff		 test	 edi, edi
  00096	75 1d		 jne	 SHORT $L107588

; 111  : 		return EC_NOERROR;

  00098	88 44 24 20	 mov	 BYTE PTR __$EHRec$[esp+44], al
  0009c	8b 44 24 08	 mov	 eax, DWORD PTR _strMsg$[esp+36]
  000a0	83 c0 f0	 add	 eax, -16		; fffffff0H
  000a3	8d 50 0c	 lea	 edx, DWORD PTR [eax+12]
  000a6	83 c9 ff	 or	 ecx, -1
  000a9	f0 0f c1 0a	 lock	  xadd	 DWORD PTR [edx], ecx
  000ad	49		 dec	 ecx
  000ae	85 c9		 test	 ecx, ecx
  000b0	e9 bf 00 00 00	 jmp	 $L115589
$L107588:

; 112  : 
; 113  : 	strMsg.Left(ONE_KBYTE);

  000b5	68 00 04 00 00	 push	 1024			; 00000400H
  000ba	8d 44 24 2c	 lea	 eax, DWORD PTR $T115310[esp+36]
  000be	50		 push	 eax
  000bf	8d 4c 24 10	 lea	 ecx, DWORD PTR _strMsg$[esp+44]
  000c3	e8 00 00 00 00	 call	 ?Left@?$CStringT@DV?$StrTraitATL@DV?$ChTraitsCRT@D@ATL@@@ATL@@@ATL@@QBE?AV12@H@Z ; ATL::CStringT<char,ATL::StrTraitATL<char,ATL::ChTraitsCRT<char> > >::Left
  000c8	8b 44 24 28	 mov	 eax, DWORD PTR $T115310[esp+32]
  000cc	83 c0 f0	 add	 eax, -16		; fffffff0H
  000cf	8d 48 0c	 lea	 ecx, DWORD PTR [eax+12]
  000d2	83 ca ff	 or	 edx, -1
  000d5	f0 0f c1 11	 lock	  xadd	 DWORD PTR [ecx], edx
  000d9	4a		 dec	 edx
  000da	85 d2		 test	 edx, edx
  000dc	7f 08		 jg	 SHORT $L115501
  000de	8b 08		 mov	 ecx, DWORD PTR [eax]
  000e0	8b 11		 mov	 edx, DWORD PTR [ecx]
  000e2	50		 push	 eax
  000e3	ff 52 04	 call	 DWORD PTR [edx+4]
$L115501:

; 114  : 
; 115  : 	pTarget->SendCS_CHAT_ACK(CHAT_OPERATOR,0, GetSvrMsg(NAME_OPERATOR), BuildNetString(NAME_NULL, strMsg));

  000e6	68 00 00 00 00	 push	 OFFSET FLAT:??_C@_00CNPNBAHC@?$AA@
  000eb	8d 4c 24 2c	 lea	 ecx, DWORD PTR $T115312[esp+36]
  000ef	e8 00 00 00 00	 call	 ??0?$CStringT@DV?$StrTraitATL@DV?$ChTraitsCRT@D@ATL@@@ATL@@@ATL@@QAE@PBD@Z ; ATL::CStringT<char,ATL::StrTraitATL<char,ATL::ChTraitsCRT<char> > >::CStringT<char,ATL::StrTraitATL<char,ATL::ChTraitsCRT<char> > >
  000f4	51		 push	 ecx
  000f5	8b c4		 mov	 eax, esp
  000f7	89 64 24 14	 mov	 DWORD PTR $T115311[esp+40], esp
  000fb	8d 4c 24 0c	 lea	 ecx, DWORD PTR _strMsg$[esp+40]
  000ff	51		 push	 ecx
  00100	8d 54 24 30	 lea	 edx, DWORD PTR $T115312[esp+40]
  00104	52		 push	 edx
  00105	50		 push	 eax
  00106	8b ce		 mov	 ecx, esi
  00108	c6 44 24 30 02	 mov	 BYTE PTR __$EHRec$[esp+60], 2
  0010d	e8 00 00 00 00	 call	 ?BuildNetString@CTRelaySvrModule@@QAE?AV?$CStringT@DV?$StrTraitATL@DV?$ChTraitsCRT@D@ATL@@@ATL@@@ATL@@ABV23@0@Z ; CTRelaySvrModule::BuildNetString
  00112	51		 push	 ecx
  00113	8b c4		 mov	 eax, esp
  00115	89 64 24 1c	 mov	 DWORD PTR $T115313[esp+44], esp
  00119	6a 06		 push	 6
  0011b	50		 push	 eax
  0011c	8b ce		 mov	 ecx, esi
  0011e	c6 44 24 30 03	 mov	 BYTE PTR __$EHRec$[esp+60], 3
  00123	e8 00 00 00 00	 call	 ?GetSvrMsg@CTRelaySvrModule@@QAE?AV?$CStringT@DV?$StrTraitATL@DV?$ChTraitsCRT@D@ATL@@@ATL@@@ATL@@K@Z ; CTRelaySvrModule::GetSvrMsg
  00128	6a 00		 push	 0
  0012a	6a 07		 push	 7
  0012c	8b cf		 mov	 ecx, edi
  0012e	c6 44 24 30 02	 mov	 BYTE PTR __$EHRec$[esp+60], 2
  00133	e8 00 00 00 00	 call	 ?SendCS_CHAT_ACK@CTPlayer@@QAEXEKV?$CStringT@DV?$StrTraitATL@DV?$ChTraitsCRT@D@ATL@@@ATL@@@ATL@@0@Z ; CTPlayer::SendCS_CHAT_ACK
  00138	8b 44 24 28	 mov	 eax, DWORD PTR $T115312[esp+32]
  0013c	83 c0 f0	 add	 eax, -16		; fffffff0H
  0013f	c6 44 24 20 01	 mov	 BYTE PTR __$EHRec$[esp+44], 1
  00144	8d 48 0c	 lea	 ecx, DWORD PTR [eax+12]
  00147	83 ca ff	 or	 edx, -1
  0014a	f0 0f c1 11	 lock	  xadd	 DWORD PTR [ecx], edx
  0014e	4a		 dec	 edx
  0014f	85 d2		 test	 edx, edx
  00151	7f 08		 jg	 SHORT $L115527
  00153	8b 08		 mov	 ecx, DWORD PTR [eax]
  00155	8b 11		 mov	 edx, DWORD PTR [ecx]
  00157	50		 push	 eax
  00158	ff 52 04	 call	 DWORD PTR [edx+4]
$L115527:

; 116  : 
; 117  : 	return EC_NOERROR;

  0015b	8b 44 24 08	 mov	 eax, DWORD PTR _strMsg$[esp+36]
  0015f	83 c0 f0	 add	 eax, -16		; fffffff0H
  00162	c6 44 24 20 00	 mov	 BYTE PTR __$EHRec$[esp+44], 0
  00167	8d 48 0c	 lea	 ecx, DWORD PTR [eax+12]
  0016a	83 ca ff	 or	 edx, -1
  0016d	f0 0f c1 11	 lock	  xadd	 DWORD PTR [ecx], edx
  00171	4a		 dec	 edx
  00172	85 d2		 test	 edx, edx
$L115589:
  00174	7f 08		 jg	 SHORT $L115554
  00176	8b 08		 mov	 ecx, DWORD PTR [eax]
  00178	8b 11		 mov	 edx, DWORD PTR [ecx]
  0017a	50		 push	 eax
  0017b	ff 52 04	 call	 DWORD PTR [edx+4]
$L115554:
  0017e	8b 44 24 0c	 mov	 eax, DWORD PTR _strName$[esp+36]
  00182	83 c0 f0	 add	 eax, -16		; fffffff0H
  00185	c7 44 24 20 ff
	ff ff ff	 mov	 DWORD PTR __$EHRec$[esp+44], -1
  0018d	8d 48 0c	 lea	 ecx, DWORD PTR [eax+12]
  00190	83 ca ff	 or	 edx, -1
  00193	f0 0f c1 11	 lock	  xadd	 DWORD PTR [ecx], edx
  00197	4a		 dec	 edx
  00198	85 d2		 test	 edx, edx
  0019a	7f 08		 jg	 SHORT $L115581
  0019c	8b 08		 mov	 ecx, DWORD PTR [eax]
  0019e	8b 11		 mov	 edx, DWORD PTR [ecx]
  001a0	50		 push	 eax
  001a1	ff 52 04	 call	 DWORD PTR [edx+4]
$L115581:

; 118  : }

  001a4	8b 4c 24 18	 mov	 ecx, DWORD PTR __$EHRec$[esp+36]
  001a8	5f		 pop	 edi
  001a9	33 c0		 xor	 eax, eax
  001ab	64 89 0d 00 00
	00 00		 mov	 DWORD PTR fs:__except_list, ecx
  001b2	5e		 pop	 esi
  001b3	83 c4 1c	 add	 esp, 28			; 0000001cH
  001b6	c2 04 00	 ret	 4
_TEXT	ENDS
;	COMDAT text$x
text$x	SEGMENT
$L115315:
  00000	8d 4d e8	 lea	 ecx, DWORD PTR _strName$[ebp]
  00003	e9 00 00 00 00	 jmp	 ??1?$CStringT@DV?$StrTraitATL@DV?$ChTraitsCRT@D@ATL@@@ATL@@@ATL@@QAE@XZ ; ATL::CStringT<char,ATL::StrTraitATL<char,ATL::ChTraitsCRT<char> > >::~CStringT<char,ATL::StrTraitATL<char,ATL::ChTraitsCRT<char> > >
$L115316:
  00008	8d 4d e4	 lea	 ecx, DWORD PTR _strMsg$[ebp]
  0000b	e9 00 00 00 00	 jmp	 ??1?$CStringT@DV?$StrTraitATL@DV?$ChTraitsCRT@D@ATL@@@ATL@@@ATL@@QAE@XZ ; ATL::CStringT<char,ATL::StrTraitATL<char,ATL::ChTraitsCRT<char> > >::~CStringT<char,ATL::StrTraitATL<char,ATL::ChTraitsCRT<char> > >
$L115319:
  00010	8d 4d 04	 lea	 ecx, DWORD PTR $T115312[ebp-4]
  00013	e9 00 00 00 00	 jmp	 ??1?$CStringT@DV?$StrTraitATL@DV?$ChTraitsCRT@D@ATL@@@ATL@@@ATL@@QAE@XZ ; ATL::CStringT<char,ATL::StrTraitATL<char,ATL::ChTraitsCRT<char> > >::~CStringT<char,ATL::StrTraitATL<char,ATL::ChTraitsCRT<char> > >
$L115320:
  00018	8b 4d ec	 mov	 ecx, DWORD PTR $T115311[ebp]
  0001b	e9 00 00 00 00	 jmp	 ??1?$CStringT@DV?$StrTraitATL@DV?$ChTraitsCRT@D@ATL@@@ATL@@@ATL@@QAE@XZ ; ATL::CStringT<char,ATL::StrTraitATL<char,ATL::ChTraitsCRT<char> > >::~CStringT<char,ATL::StrTraitATL<char,ATL::ChTraitsCRT<char> > >
__ehhandler$?OnCT_CHARMSG_ACK@CTRelaySvrModule@@IAEKPAUtagPACKETBUF@@@Z:
  00020	b8 00 00 00 00	 mov	 eax, OFFSET FLAT:$T115584
  00025	e9 00 00 00 00	 jmp	 ___CxxFrameHandler
text$x	ENDS
?OnCT_CHARMSG_ACK@CTRelaySvrModule@@IAEKPAUtagPACKETBUF@@@Z ENDP ; CTRelaySvrModule::OnCT_CHARMSG_ACK
PUBLIC	?OnCT_EVENTMSG_REQ@CTRelaySvrModule@@IAEKPAUtagPACKETBUF@@@Z ; CTRelaySvrModule::OnCT_EVENTMSG_REQ
;	COMDAT xdata$x
; File c:\program files (x86)\microsoft visual studio .net 2003\vc7\atlmfc\include\atlsimpstr.h
xdata$x	SEGMENT
$T115790 DD	0ffffffffH
	DD	FLAT:$L115603
	DD	00H
	DD	FLAT:$L115604
	DD	01H
	DD	FLAT:$L115605
$T115785 DD	019930520H
	DD	03H
	DD	FLAT:$T115790
	DD	2 DUP(00H)
	DD	2 DUP(00H)
; Function compile flags: /Ogty
; File c:\users\pierr\desktop\4story - oldschool\sources\tserver\trelaysvr\cshandler.cpp
xdata$x	ENDS
;	COMDAT ?OnCT_EVENTMSG_REQ@CTRelaySvrModule@@IAEKPAUtagPACKETBUF@@@Z
_TEXT	SEGMENT
_bEventMsgType$ = -30					; size = 1
_bEventID$ = -29					; size = 1
_strMsg$ = -28						; size = 4
_it$ = -24						; size = 4
$T115599 = -20						; size = 4
$T115601 = -16						; size = 4
__$EHRec$ = -12						; size = 12
$T115600 = 8						; size = 4
_pBUF$ = 8						; size = 4
?OnCT_EVENTMSG_REQ@CTRelaySvrModule@@IAEKPAUtagPACKETBUF@@@Z PROC NEAR ; CTRelaySvrModule::OnCT_EVENTMSG_REQ, COMDAT
; _this$ = ecx

; 131  : {	

  00000	6a ff		 push	 -1
  00002	68 00 00 00 00	 push	 __ehhandler$?OnCT_EVENTMSG_REQ@CTRelaySvrModule@@IAEKPAUtagPACKETBUF@@@Z
  00007	64 a1 00 00 00
	00		 mov	 eax, DWORD PTR fs:__except_list
  0000d	50		 push	 eax
  0000e	64 89 25 00 00
	00 00		 mov	 DWORD PTR fs:__except_list, esp
  00015	83 ec 14	 sub	 esp, 20			; 00000014H

; 132  : 	BYTE bEventID;
; 133  : 	BYTE bEventMsgType;
; 134  : 	CString strMsg;

  00018	a1 00 00 00 00	 mov	 eax, DWORD PTR ?g_strmgr@ATL@@3VCAtlStringMgr@1@A
  0001d	53		 push	 ebx
  0001e	56		 push	 esi
  0001f	8b f1		 mov	 esi, ecx
  00021	57		 push	 edi
  00022	b9 00 00 00 00	 mov	 ecx, OFFSET FLAT:?g_strmgr@ATL@@3VCAtlStringMgr@1@A ; ATL::g_strmgr
  00027	ff 50 0c	 call	 DWORD PTR [eax+12]
  0002a	83 c0 10	 add	 eax, 16			; 00000010H
  0002d	89 44 24 10	 mov	 DWORD PTR _strMsg$[esp+44], eax

; 135  : 
; 136  : 	pBUF->m_packet
; 137  : 		>> bEventID
; 138  : 		>> bEventMsgType
; 139  : 		>> strMsg;

  00031	8d 4c 24 10	 lea	 ecx, DWORD PTR _strMsg$[esp+44]
  00035	51		 push	 ecx
  00036	8b 4c 24 34	 mov	 ecx, DWORD PTR _pBUF$[esp+44]
  0003a	8d 54 24 12	 lea	 edx, DWORD PTR _bEventMsgType$[esp+48]
  0003e	52		 push	 edx
  0003f	8d 44 24 17	 lea	 eax, DWORD PTR _bEventID$[esp+52]
  00043	50		 push	 eax
  00044	83 c1 04	 add	 ecx, 4
  00047	c7 44 24 34 00
	00 00 00	 mov	 DWORD PTR __$EHRec$[esp+64], 0
  0004f	e8 00 00 00 00	 call	 ??5CPacket@@QAEAAV0@AAE@Z ; CPacket::operator>>
  00054	8b c8		 mov	 ecx, eax
  00056	e8 00 00 00 00	 call	 ??5CPacket@@QAEAAV0@AAE@Z ; CPacket::operator>>
  0005b	8b c8		 mov	 ecx, eax
  0005d	e8 00 00 00 00	 call	 ??5CPacket@@QAEAAV0@AAV?$CStringT@DV?$StrTraitATL@DV?$ChTraitsCRT@D@ATL@@@ATL@@@ATL@@@Z ; CPacket::operator>>

; 140  : 
; 141  : 	MAPPLAYER::iterator it;
; 142  : 	for( it = m_mapPLAYER.begin(); it != m_mapPLAYER.end(); it++)

  00062	8b 86 78 01 00
	00		 mov	 eax, DWORD PTR [esi+376]
  00068	8b 08		 mov	 ecx, DWORD PTR [eax]
  0006a	3b c8		 cmp	 ecx, eax
  0006c	89 4c 24 14	 mov	 DWORD PTR _it$[esp+44], ecx
  00070	0f 84 a1 00 00
	00		 je	 $L107618
  00076	b3 01		 mov	 bl, 1
$L115684:

; 143  : 	{
; 144  : 		CTPlayer* pPlayer = (*it).second;

  00078	8b 79 10	 mov	 edi, DWORD PTR [ecx+16]

; 145  : 		if( pPlayer && pPlayer->m_bAuthorized )

  0007b	85 ff		 test	 edi, edi
  0007d	74 7d		 je	 SHORT $L107617
  0007f	8a 87 26 01 01
	00		 mov	 al, BYTE PTR [edi+65830]
  00085	84 c0		 test	 al, al
  00087	74 73		 je	 SHORT $L107617

; 146  :             pPlayer->SendCS_CHAT_ACK( CHAT_WORLD, 0, GetSvrMsg(NAME_OPERATOR), BuildNetString(NAME_NULL, strMsg));		

  00089	68 00 00 00 00	 push	 OFFSET FLAT:??_C@_00CNPNBAHC@?$AA@
  0008e	8d 4c 24 34	 lea	 ecx, DWORD PTR $T115600[esp+44]
  00092	e8 00 00 00 00	 call	 ??0?$CStringT@DV?$StrTraitATL@DV?$ChTraitsCRT@D@ATL@@@ATL@@@ATL@@QAE@PBD@Z ; ATL::CStringT<char,ATL::StrTraitATL<char,ATL::ChTraitsCRT<char> > >::CStringT<char,ATL::StrTraitATL<char,ATL::ChTraitsCRT<char> > >
  00097	51		 push	 ecx
  00098	8b cc		 mov	 ecx, esp
  0009a	89 64 24 1c	 mov	 DWORD PTR $T115599[esp+48], esp
  0009e	8d 54 24 14	 lea	 edx, DWORD PTR _strMsg$[esp+48]
  000a2	52		 push	 edx
  000a3	8d 44 24 38	 lea	 eax, DWORD PTR $T115600[esp+48]
  000a7	50		 push	 eax
  000a8	51		 push	 ecx
  000a9	8b ce		 mov	 ecx, esi
  000ab	88 5c 24 38	 mov	 BYTE PTR __$EHRec$[esp+68], bl
  000af	e8 00 00 00 00	 call	 ?BuildNetString@CTRelaySvrModule@@QAE?AV?$CStringT@DV?$StrTraitATL@DV?$ChTraitsCRT@D@ATL@@@ATL@@@ATL@@ABV23@0@Z ; CTRelaySvrModule::BuildNetString
  000b4	51		 push	 ecx
  000b5	8b cc		 mov	 ecx, esp
  000b7	89 64 24 24	 mov	 DWORD PTR $T115601[esp+52], esp
  000bb	6a 06		 push	 6
  000bd	51		 push	 ecx
  000be	8b ce		 mov	 ecx, esi
  000c0	c6 44 24 38 02	 mov	 BYTE PTR __$EHRec$[esp+68], 2
  000c5	e8 00 00 00 00	 call	 ?GetSvrMsg@CTRelaySvrModule@@QAE?AV?$CStringT@DV?$StrTraitATL@DV?$ChTraitsCRT@D@ATL@@@ATL@@@ATL@@K@Z ; CTRelaySvrModule::GetSvrMsg
  000ca	6a 00		 push	 0
  000cc	6a 03		 push	 3
  000ce	8b cf		 mov	 ecx, edi
  000d0	88 5c 24 38	 mov	 BYTE PTR __$EHRec$[esp+68], bl
  000d4	e8 00 00 00 00	 call	 ?SendCS_CHAT_ACK@CTPlayer@@QAEXEKV?$CStringT@DV?$StrTraitATL@DV?$ChTraitsCRT@D@ATL@@@ATL@@@ATL@@0@Z ; CTPlayer::SendCS_CHAT_ACK
  000d9	8b 44 24 30	 mov	 eax, DWORD PTR $T115600[esp+40]
  000dd	83 c0 f0	 add	 eax, -16		; fffffff0H
  000e0	c6 44 24 28 00	 mov	 BYTE PTR __$EHRec$[esp+52], 0
  000e5	8d 50 0c	 lea	 edx, DWORD PTR [eax+12]
  000e8	83 c9 ff	 or	 ecx, -1
  000eb	f0 0f c1 0a	 lock	  xadd	 DWORD PTR [edx], ecx
  000ef	49		 dec	 ecx
  000f0	85 c9		 test	 ecx, ecx
  000f2	7f 08		 jg	 SHORT $L107617
  000f4	8b 08		 mov	 ecx, DWORD PTR [eax]
  000f6	8b 11		 mov	 edx, DWORD PTR [ecx]
  000f8	50		 push	 eax
  000f9	ff 52 04	 call	 DWORD PTR [edx+4]
$L107617:
  000fc	8d 4c 24 14	 lea	 ecx, DWORD PTR _it$[esp+44]
  00100	e8 00 00 00 00	 call	 ?_Inc@const_iterator@?$_Tree@V?$_Tmap_traits@KPAVCTPlayer@@U?$less@K@std@@V?$allocator@U?$pair@$$CBKPAVCTPlayer@@@std@@@3@$0A@@std@@@std@@QAEXXZ ; std::_Tree<std::_Tmap_traits<unsigned long,CTPlayer *,std::less<unsigned long>,std::allocator<std::pair<unsigned long const ,CTPlayer *> >,0> >::const_iterator::_Inc
  00105	8b 86 78 01 00
	00		 mov	 eax, DWORD PTR [esi+376]
  0010b	8b 4c 24 14	 mov	 ecx, DWORD PTR _it$[esp+44]
  0010f	3b c8		 cmp	 ecx, eax
  00111	0f 85 61 ff ff
	ff		 jne	 $L115684
$L107618:

; 147  : 	}
; 148  : 
; 149  : 	return EC_NOERROR;

  00117	8b 44 24 10	 mov	 eax, DWORD PTR _strMsg$[esp+44]
  0011b	83 c0 f0	 add	 eax, -16		; fffffff0H
  0011e	c7 44 24 28 ff
	ff ff ff	 mov	 DWORD PTR __$EHRec$[esp+52], -1
  00126	8d 48 0c	 lea	 ecx, DWORD PTR [eax+12]
  00129	83 ca ff	 or	 edx, -1
  0012c	f0 0f c1 11	 lock	  xadd	 DWORD PTR [ecx], edx
  00130	4a		 dec	 edx
  00131	85 d2		 test	 edx, edx
  00133	7f 08		 jg	 SHORT $L115788
  00135	8b 08		 mov	 ecx, DWORD PTR [eax]
  00137	8b 11		 mov	 edx, DWORD PTR [ecx]
  00139	50		 push	 eax
  0013a	ff 52 04	 call	 DWORD PTR [edx+4]
$L115788:

; 150  : }

  0013d	8b 4c 24 20	 mov	 ecx, DWORD PTR __$EHRec$[esp+44]
  00141	5f		 pop	 edi
  00142	5e		 pop	 esi
  00143	33 c0		 xor	 eax, eax
  00145	64 89 0d 00 00
	00 00		 mov	 DWORD PTR fs:__except_list, ecx
  0014c	5b		 pop	 ebx
  0014d	83 c4 20	 add	 esp, 32			; 00000020H
  00150	c2 04 00	 ret	 4
_TEXT	ENDS
;	COMDAT text$x
text$x	SEGMENT
$L115603:
  00000	8d 4d e4	 lea	 ecx, DWORD PTR _strMsg$[ebp]
  00003	e9 00 00 00 00	 jmp	 ??1?$CStringT@DV?$StrTraitATL@DV?$ChTraitsCRT@D@ATL@@@ATL@@@ATL@@QAE@XZ ; ATL::CStringT<char,ATL::StrTraitATL<char,ATL::ChTraitsCRT<char> > >::~CStringT<char,ATL::StrTraitATL<char,ATL::ChTraitsCRT<char> > >
$L115604:
  00008	8d 4d 04	 lea	 ecx, DWORD PTR $T115600[ebp-4]
  0000b	e9 00 00 00 00	 jmp	 ??1?$CStringT@DV?$StrTraitATL@DV?$ChTraitsCRT@D@ATL@@@ATL@@@ATL@@QAE@XZ ; ATL::CStringT<char,ATL::StrTraitATL<char,ATL::ChTraitsCRT<char> > >::~CStringT<char,ATL::StrTraitATL<char,ATL::ChTraitsCRT<char> > >
$L115605:
  00010	8b 4d ec	 mov	 ecx, DWORD PTR $T115599[ebp]
  00013	e9 00 00 00 00	 jmp	 ??1?$CStringT@DV?$StrTraitATL@DV?$ChTraitsCRT@D@ATL@@@ATL@@@ATL@@QAE@XZ ; ATL::CStringT<char,ATL::StrTraitATL<char,ATL::ChTraitsCRT<char> > >::~CStringT<char,ATL::StrTraitATL<char,ATL::ChTraitsCRT<char> > >
__ehhandler$?OnCT_EVENTMSG_REQ@CTRelaySvrModule@@IAEKPAUtagPACKETBUF@@@Z:
  00018	b8 00 00 00 00	 mov	 eax, OFFSET FLAT:$T115785
  0001d	e9 00 00 00 00	 jmp	 ___CxxFrameHandler
text$x	ENDS
?OnCT_EVENTMSG_REQ@CTRelaySvrModule@@IAEKPAUtagPACKETBUF@@@Z ENDP ; CTRelaySvrModule::OnCT_EVENTMSG_REQ
PUBLIC	?OnCS_CHAT_REQ@CTRelaySvrModule@@IAEKPAUtagPACKETBUF@@@Z ; CTRelaySvrModule::OnCS_CHAT_REQ
EXTRN	?GetPartyID@CTPlayer@@QAEGXZ:NEAR		; CTPlayer::GetPartyID
EXTRN	?LogChat@CUdpSocket@@QAEXKPAVCTPlayer@@V?$CStringT@DV?$StrTraitATL@DV?$ChTraitsCRT@D@ATL@@@ATL@@@ATL@@1@Z:NEAR ; CUdpSocket::LogChat
EXTRN	?CheckChat@CTPlayer@@QAEEV?$CStringT@DV?$StrTraitATL@DV?$ChTraitsCRT@D@ATL@@@ATL@@@ATL@@@Z:NEAR ; CTPlayer::CheckChat
EXTRN	?CanTalk@CTPlayer@@QAEEPAV1@E@Z:NEAR		; CTPlayer::CanTalk
EXTRN	?SendCS_SYSTEMMSG_ACK@CTPlayer@@QAEXEGKV?$CStringT@DV?$StrTraitATL@DV?$ChTraitsCRT@D@ATL@@@ATL@@@ATL@@0EE0E@Z:NEAR ; CTPlayer::SendCS_SYSTEMMSG_ACK
EXTRN	?IsOperator@CTRelaySvrModule@@QAEEK@Z:NEAR	; CTRelaySvrModule::IsOperator
EXTRN	?FindGuild@CTRelaySvrModule@@QAEPAVCTGuild@@K@Z:NEAR ; CTRelaySvrModule::FindGuild
EXTRN	?IsMeetingRoom@CTRelaySvrModule@@QAEEGE@Z:NEAR	; CTRelaySvrModule::IsMeetingRoom
EXTRN	?SendRW_CHATBAN_ACK@CTRelaySvrModule@@QAEXV?$CStringT@DV?$StrTraitATL@DV?$ChTraitsCRT@D@ATL@@@ATL@@@ATL@@G@Z:NEAR ; CTRelaySvrModule::SendRW_CHATBAN_ACK
;	COMDAT xdata$x
; File c:\program files (x86)\microsoft visual studio .net 2003\vc7\include\xtree
xdata$x	SEGMENT
$T117196 DD	0ffffffffH
	DD	FLAT:$L115885
	DD	00H
	DD	FLAT:$L115886
	DD	01H
	DD	FLAT:$L115887
	DD	02H
	DD	FLAT:$L115891
	DD	03H
	DD	FLAT:$L115892
	DD	02H
	DD	FLAT:$L115894
	DD	02H
	DD	FLAT:$L115896
	DD	02H
	DD	FLAT:$L115898
	DD	02H
	DD	FLAT:$L115900
	DD	02H
	DD	FLAT:$L115902
	DD	02H
	DD	FLAT:$L115905
	DD	02H
	DD	FLAT:$L115907
	DD	0bH
	DD	FLAT:$L115908
	DD	0cH
	DD	FLAT:$L115909
	DD	02H
	DD	FLAT:$L115910
	DD	02H
	DD	FLAT:$L115912
	DD	02H
	DD	FLAT:$L115914
	DD	02H
	DD	FLAT:$L115916
	DD	02H
	DD	FLAT:$L115918
	DD	02H
	DD	FLAT:$L115921
	DD	02H
	DD	FLAT:$L115923
	DD	02H
	DD	FLAT:$L115925
	DD	02H
	DD	FLAT:$L115927
	DD	02H
	DD	FLAT:$L115929
	DD	02H
	DD	FLAT:$L115931
	DD	02H
	DD	FLAT:$L115933
	DD	02H
	DD	FLAT:$L115935
$T117163 DD	019930520H
	DD	01bH
	DD	FLAT:$T117196
	DD	2 DUP(00H)
	DD	2 DUP(00H)
; Function compile flags: /Ogty
; File c:\users\pierr\desktop\4story - oldschool\sources\tserver\trelaysvr\cshandler.cpp
xdata$x	ENDS
;	COMDAT ?OnCS_CHAT_REQ@CTRelaySvrModule@@IAEKPAUtagPACKETBUF@@@Z
_TEXT	SEGMENT
_strTalk$ = -72						; size = 4
_strSender$ = -68					; size = 4
_bGroup$ = -64						; size = 1
_strName$ = -60						; size = 4
_this$ = -56						; size = 4
_dwTarget$ = -52					; size = 4
_bType$ = -48						; size = 1
_itM$108033 = -48					; size = 4
_itM$107914 = -48					; size = 4
_itM$107900 = -48					; size = 4
_i$107843 = -48						; size = 4
_itP$107811 = -48					; size = 4
_itM$107711 = -48					; size = 4
$T115835 = -44						; size = 4
_itP$108045 = -40					; size = 4
_itR$108006 = -40					; size = 4
$T115867 = -40						; size = 4
$T115862 = -40						; size = 4
$T115856 = -40						; size = 4
$T115854 = -40						; size = 4
$T115852 = -40						; size = 4
$T115848 = -40						; size = 4
$T115846 = -40						; size = 4
$T115844 = -40						; size = 4
$T115840 = -40						; size = 4
$T115838 = -40						; size = 4
$T115833 = -40						; size = 4
$T115829 = -40						; size = 4
$T115827 = -40						; size = 4
$T115825 = -40						; size = 4
_it$107807 = -40					; size = 4
$T115819 = -40						; size = 4
$T115814 = -40						; size = 4
$T115798 = -40						; size = 4
tv1965 = -36						; size = 4
$T115881 = -36						; size = 4
$T115875 = -36						; size = 4
$T115866 = -36						; size = 4
$T115861 = -36						; size = 4
$T115855 = -36						; size = 4
$T115853 = -36						; size = 4
$T115851 = -36						; size = 4
$T115850 = -36						; size = 4
$T115847 = -36						; size = 4
$T115845 = -36						; size = 4
$T115843 = -36						; size = 4
_itPlayer$107875 = -36					; size = 4
$T115839 = -36						; size = 4
$T115837 = -36						; size = 4
$T115832 = -36						; size = 4
$T115828 = -36						; size = 4
$T115826 = -36						; size = 4
$T115824 = -36						; size = 4
$T115818 = -36						; size = 4
$T115813 = -36						; size = 4
$T115831 = -32						; size = 4
$T115805 = -32						; size = 4
$T115836 = -28						; size = 4
$T115804 = -28						; size = 4
$T115883 = -24						; size = 4
$T115834 = -24						; size = 4
$T115803 = -24						; size = 4
$T115800 = -24						; size = 4
$T115799 = -24						; size = 4
$T115882 = -20						; size = 4
$T115880 = -20						; size = 4
$T115876 = -20						; size = 4
_timeCurrent$ = -20					; size = 8
__$EHRec$ = -12						; size = 12
_wCount$ = 8						; size = 2
_pBUF$ = 8						; size = 4
?OnCS_CHAT_REQ@CTRelaySvrModule@@IAEKPAUtagPACKETBUF@@@Z PROC NEAR ; CTRelaySvrModule::OnCS_CHAT_REQ, COMDAT
; _this$ = ecx

; 194  : {	

  00000	6a ff		 push	 -1
  00002	68 00 00 00 00	 push	 __ehhandler$?OnCS_CHAT_REQ@CTRelaySvrModule@@IAEKPAUtagPACKETBUF@@@Z
  00007	64 a1 00 00 00
	00		 mov	 eax, DWORD PTR fs:__except_list
  0000d	50		 push	 eax
  0000e	64 89 25 00 00
	00 00		 mov	 DWORD PTR fs:__except_list, esp
  00015	83 ec 3c	 sub	 esp, 60			; 0000003cH
  00018	53		 push	 ebx
  00019	55		 push	 ebp
  0001a	56		 push	 esi
  0001b	57		 push	 edi

; 195  : 	CTPlayer *pPlayer = (CTPlayer *) pBUF->m_pSESSION;

  0001c	8b 7c 24 5c	 mov	 edi, DWORD PTR _pBUF$[esp+84]
  00020	8b 37		 mov	 esi, DWORD PTR [edi]

; 196  : 	if( !pPlayer || !pPlayer->m_bAuthorized)

  00022	85 f6		 test	 esi, esi
  00024	8b e9		 mov	 ebp, ecx
  00026	89 6c 24 20	 mov	 DWORD PTR _this$[esp+88], ebp
  0002a	0f 84 a8 0b 00
	00		 je	 $L107674
  00030	8a 86 26 01 01
	00		 mov	 al, BYTE PTR [esi+65830]
  00036	84 c0		 test	 al, al
  00038	0f 84 9a 0b 00
	00		 je	 $L107674

; 197  : 		return EC_NOERROR;
; 198  : 
; 199  : 	BYTE bGroup;
; 200  : 	DWORD dwTarget;
; 201  : 	CString strName; // target Name

  0003e	a1 00 00 00 00	 mov	 eax, DWORD PTR ?g_strmgr@ATL@@3VCAtlStringMgr@1@A
  00043	b9 00 00 00 00	 mov	 ecx, OFFSET FLAT:?g_strmgr@ATL@@3VCAtlStringMgr@1@A ; ATL::g_strmgr
  00048	ff 50 0c	 call	 DWORD PTR [eax+12]
  0004b	83 c0 10	 add	 eax, 16			; 00000010H
  0004e	89 44 24 1c	 mov	 DWORD PTR _strName$[esp+88], eax

; 202  : 	CString strTalk;

  00052	8b 15 00 00 00
	00		 mov	 edx, DWORD PTR ?g_strmgr@ATL@@3VCAtlStringMgr@1@A
  00058	b9 00 00 00 00	 mov	 ecx, OFFSET FLAT:?g_strmgr@ATL@@3VCAtlStringMgr@1@A ; ATL::g_strmgr
  0005d	c7 44 24 54 00
	00 00 00	 mov	 DWORD PTR __$EHRec$[esp+96], 0
  00065	ff 52 0c	 call	 DWORD PTR [edx+12]
  00068	83 c0 10	 add	 eax, 16			; 00000010H
  0006b	89 44 24 10	 mov	 DWORD PTR _strTalk$[esp+88], eax

; 203  : 	CString strSender;

  0006f	a1 00 00 00 00	 mov	 eax, DWORD PTR ?g_strmgr@ATL@@3VCAtlStringMgr@1@A
  00074	b3 01		 mov	 bl, 1
  00076	b9 00 00 00 00	 mov	 ecx, OFFSET FLAT:?g_strmgr@ATL@@3VCAtlStringMgr@1@A ; ATL::g_strmgr
  0007b	88 5c 24 54	 mov	 BYTE PTR __$EHRec$[esp+96], bl
  0007f	ff 50 0c	 call	 DWORD PTR [eax+12]
  00082	83 c0 10	 add	 eax, 16			; 00000010H
  00085	89 44 24 14	 mov	 DWORD PTR _strSender$[esp+88], eax

; 204  : 	WORD wCount;
; 205  : 	
; 206  : 	__int64 timeCurrent = CTime::GetCurrentTime().GetTime();

  00089	6a 00		 push	 0
  0008b	c6 44 24 58 02	 mov	 BYTE PTR __$EHRec$[esp+100], 2
  00090	e8 00 00 00 00	 call	 __time64
  00095	83 c4 04	 add	 esp, 4
  00098	89 54 24 48	 mov	 DWORD PTR _timeCurrent$[esp+92], edx
  0009c	89 44 24 44	 mov	 DWORD PTR _timeCurrent$[esp+88], eax

; 207  : 
; 208  : 	pBUF->m_packet
; 209  : 		>> strSender
; 210  : 		>> bGroup
; 211  : 		>> dwTarget
; 212  : 		>> strName
; 213  : 		>> strTalk;

  000a0	8d 54 24 10	 lea	 edx, DWORD PTR _strTalk$[esp+88]
  000a4	52		 push	 edx
  000a5	8d 44 24 20	 lea	 eax, DWORD PTR _strName$[esp+92]
  000a9	50		 push	 eax
  000aa	8d 54 24 2c	 lea	 edx, DWORD PTR _dwTarget$[esp+96]
  000ae	52		 push	 edx
  000af	8d 44 24 24	 lea	 eax, DWORD PTR _bGroup$[esp+100]
  000b3	50		 push	 eax
  000b4	8d 54 24 24	 lea	 edx, DWORD PTR _strSender$[esp+104]
  000b8	8d 4f 04	 lea	 ecx, DWORD PTR [edi+4]
  000bb	52		 push	 edx
  000bc	89 4c 24 48	 mov	 DWORD PTR tv1965[esp+108], ecx
  000c0	e8 00 00 00 00	 call	 ??5CPacket@@QAEAAV0@AAV?$CStringT@DV?$StrTraitATL@DV?$ChTraitsCRT@D@ATL@@@ATL@@@ATL@@@Z ; CPacket::operator>>
  000c5	8b c8		 mov	 ecx, eax
  000c7	e8 00 00 00 00	 call	 ??5CPacket@@QAEAAV0@AAE@Z ; CPacket::operator>>
  000cc	8b c8		 mov	 ecx, eax
  000ce	e8 00 00 00 00	 call	 ??5CPacket@@QAEAAV0@AAK@Z ; CPacket::operator>>
  000d3	8b c8		 mov	 ecx, eax
  000d5	e8 00 00 00 00	 call	 ??5CPacket@@QAEAAV0@AAV?$CStringT@DV?$StrTraitATL@DV?$ChTraitsCRT@D@ATL@@@ATL@@@ATL@@@Z ; CPacket::operator>>
  000da	8b c8		 mov	 ecx, eax
  000dc	e8 00 00 00 00	 call	 ??5CPacket@@QAEAAV0@AAV?$CStringT@DV?$StrTraitATL@DV?$ChTraitsCRT@D@ATL@@@ATL@@@ATL@@@Z ; CPacket::operator>>

; 214  : 
; 215  : 	if(bGroup == CHAT_WORLD || bGroup == CHAT_OPERATOR)

  000e1	8a 44 24 18	 mov	 al, BYTE PTR _bGroup$[esp+88]
  000e5	3c 03		 cmp	 al, 3
  000e7	0f 84 80 0a 00
	00		 je	 $L107684
  000ed	3c 07		 cmp	 al, 7
  000ef	0f 84 78 0a 00
	00		 je	 $L107684

; 217  : 
; 218  : 	strTalk.Left(ONE_KBYTE);

  000f5	68 00 04 00 00	 push	 1024			; 00000400H
  000fa	8d 44 24 34	 lea	 eax, DWORD PTR $T115798[esp+92]
  000fe	50		 push	 eax
  000ff	8d 4c 24 18	 lea	 ecx, DWORD PTR _strTalk$[esp+96]
  00103	e8 00 00 00 00	 call	 ?Left@?$CStringT@DV?$StrTraitATL@DV?$ChTraitsCRT@D@ATL@@@ATL@@@ATL@@QBE?AV12@H@Z ; ATL::CStringT<char,ATL::StrTraitATL<char,ATL::ChTraitsCRT<char> > >::Left
  00108	8b 44 24 30	 mov	 eax, DWORD PTR $T115798[esp+88]
  0010c	83 c0 f0	 add	 eax, -16		; fffffff0H
  0010f	8d 48 0c	 lea	 ecx, DWORD PTR [eax+12]
  00112	83 ca ff	 or	 edx, -1
  00115	f0 0f c1 11	 lock	  xadd	 DWORD PTR [ecx], edx
  00119	4a		 dec	 edx
  0011a	85 d2		 test	 edx, edx
  0011c	7f 08		 jg	 SHORT $L116148
  0011e	8b 08		 mov	 ecx, DWORD PTR [eax]
  00120	8b 11		 mov	 edx, DWORD PTR [ecx]
  00122	50		 push	 eax
  00123	ff 52 04	 call	 DWORD PTR [edx+4]
$L116148:

; 219  : 
; 220  : 	BYTE bType = bGroup;
; 221  : 
; 222  : 	if(IsOperator(pPlayer->m_dwID))

  00126	8b 8e fc 00 01
	00		 mov	 ecx, DWORD PTR [esi+65788]
  0012c	8a 44 24 18	 mov	 al, BYTE PTR _bGroup$[esp+88]
  00130	51		 push	 ecx
  00131	8b cd		 mov	 ecx, ebp
  00133	88 44 24 2c	 mov	 BYTE PTR _bType$[esp+92], al
  00137	e8 00 00 00 00	 call	 ?IsOperator@CTRelaySvrModule@@QAEEK@Z ; CTRelaySvrModule::IsOperator
  0013c	84 c0		 test	 al, al
  0013e	74 05		 je	 SHORT $L107688

; 223  : 		bType = CHAT_OPERATOR;

  00140	c6 44 24 28 07	 mov	 BYTE PTR _bType$[esp+88], 7
$L107688:

; 224  : 
; 225  : 	if(bGroup != CHAT_SHOW)

  00145	80 7c 24 18 09	 cmp	 BYTE PTR _bGroup$[esp+88], 9
  0014a	bb 05 00 00 00	 mov	 ebx, 5
  0014f	74 39		 je	 SHORT $L107689

; 226  : 	{
; 227  : 		if(!pPlayer->CheckChat(strTalk))

  00151	51		 push	 ecx
  00152	8d 54 24 14	 lea	 edx, DWORD PTR _strTalk$[esp+92]
  00156	8b cc		 mov	 ecx, esp
  00158	89 64 24 44	 mov	 DWORD PTR $T115799[esp+92], esp
  0015c	52		 push	 edx
  0015d	e8 00 00 00 00	 call	 ??0?$CStringT@DV?$StrTraitATL@DV?$ChTraitsCRT@D@ATL@@@ATL@@@ATL@@QAE@ABV01@@Z ; ATL::CStringT<char,ATL::StrTraitATL<char,ATL::ChTraitsCRT<char> > >::CStringT<char,ATL::StrTraitATL<char,ATL::ChTraitsCRT<char> > >
  00162	8b ce		 mov	 ecx, esi
  00164	e8 00 00 00 00	 call	 ?CheckChat@CTPlayer@@QAEEV?$CStringT@DV?$StrTraitATL@DV?$ChTraitsCRT@D@ATL@@@ATL@@@ATL@@@Z ; CTPlayer::CheckChat
  00169	84 c0		 test	 al, al
  0016b	75 68		 jne	 SHORT $L107696

; 228  : 			SendRW_CHATBAN_ACK(pPlayer->m_strNAME,5);

  0016d	53		 push	 ebx
  0016e	51		 push	 ecx
  0016f	8d 86 28 01 01
	00		 lea	 eax, DWORD PTR [esi+65832]
  00175	8b cc		 mov	 ecx, esp
  00177	89 64 24 48	 mov	 DWORD PTR $T115800[esp+96], esp
  0017b	50		 push	 eax
  0017c	e8 00 00 00 00	 call	 ??0?$CStringT@DV?$StrTraitATL@DV?$ChTraitsCRT@D@ATL@@@ATL@@@ATL@@QAE@ABV01@@Z ; ATL::CStringT<char,ATL::StrTraitATL<char,ATL::ChTraitsCRT<char> > >::CStringT<char,ATL::StrTraitATL<char,ATL::ChTraitsCRT<char> > >
  00181	8b cd		 mov	 ecx, ebp
  00183	e8 00 00 00 00	 call	 ?SendRW_CHATBAN_ACK@CTRelaySvrModule@@QAEXV?$CStringT@DV?$StrTraitATL@DV?$ChTraitsCRT@D@ATL@@@ATL@@@ATL@@G@Z ; CTRelaySvrModule::SendRW_CHATBAN_ACK

; 229  : 	}
; 230  : 	else

  00188	eb 4b		 jmp	 SHORT $L107696
$L107689:

; 231  : 	{
; 232  : 		if(strTalk.Find(pPlayer->m_strNAME) == -1)

  0018a	8b 86 28 01 01
	00		 mov	 eax, DWORD PTR [esi+65832]
  00190	85 c0		 test	 eax, eax
  00192	0f 84 01 02 00
	00		 je	 $L117194
  00198	8b 4c 24 10	 mov	 ecx, DWORD PTR _strTalk$[esp+88]
  0019c	8b 51 f4	 mov	 edx, DWORD PTR [ecx-12]
  0019f	85 d2		 test	 edx, edx
  001a1	0f 8c f2 01 00
	00		 jl	 $L117194
  001a7	50		 push	 eax
  001a8	51		 push	 ecx
  001a9	e8 00 00 00 00	 call	 __mbsstr
  001ae	83 c4 08	 add	 esp, 8
  001b1	85 c0		 test	 eax, eax
  001b3	0f 84 e0 01 00
	00		 je	 $L117194
  001b9	8b 4c 24 10	 mov	 ecx, DWORD PTR _strTalk$[esp+88]
  001bd	2b c1		 sub	 eax, ecx
  001bf	83 f8 ff	 cmp	 eax, -1

; 233  : 			return EC_NOERROR;

  001c2	0f 84 d1 01 00
	00		 je	 $L117194

; 234  : 
; 235  : 		if(dwTarget != strTalk.GetLength())

  001c8	8b 49 f4	 mov	 ecx, DWORD PTR [ecx-12]
  001cb	39 4c 24 24	 cmp	 DWORD PTR _dwTarget$[esp+88], ecx

; 236  : 			return EC_NOERROR;

  001cf	0f 85 c4 01 00
	00		 jne	 $L117194
$L107696:

; 237  : 	}
; 238  : 
; 239  : 	if( timeCurrent < pPlayer->m_nChatBanTime) 

  001d5	8b 4c 24 48	 mov	 ecx, DWORD PTR _timeCurrent$[esp+92]
  001d9	3b 8e 34 01 01
	00		 cmp	 ecx, DWORD PTR [esi+65844]
  001df	7f 71		 jg	 SHORT $L107698
  001e1	7c 0c		 jl	 SHORT $L117186
  001e3	8b 54 24 44	 mov	 edx, DWORD PTR _timeCurrent$[esp+88]
  001e7	3b 96 30 01 01
	00		 cmp	 edx, DWORD PTR [esi+65840]
  001ed	73 63		 jae	 SHORT $L107698
$L117186:

; 240  : 	{
; 241  : 		pPlayer->SendCS_SYSTEMMSG_ACK(
; 242  : 			SM_CHAT_BAN,
; 243  : 			0, DWORD(pPlayer->m_nChatBanTime - timeCurrent),
; 244  : 			NAME_NULL, NAME_NULL,
; 245  : 			0,0,NAME_NULL,0);

  001ef	6a 00		 push	 0
  001f1	51		 push	 ecx
  001f2	8b cc		 mov	 ecx, esp
  001f4	89 64 24 48	 mov	 DWORD PTR $T115803[esp+96], esp
  001f8	68 00 00 00 00	 push	 OFFSET FLAT:??_C@_00CNPNBAHC@?$AA@
  001fd	e8 00 00 00 00	 call	 ??0?$CStringT@DV?$StrTraitATL@DV?$ChTraitsCRT@D@ATL@@@ATL@@@ATL@@QAE@PBD@Z ; ATL::CStringT<char,ATL::StrTraitATL<char,ATL::ChTraitsCRT<char> > >::CStringT<char,ATL::StrTraitATL<char,ATL::ChTraitsCRT<char> > >
  00202	6a 00		 push	 0
  00204	6a 00		 push	 0
  00206	51		 push	 ecx
  00207	8b cc		 mov	 ecx, esp
  00209	89 64 24 50	 mov	 DWORD PTR $T115804[esp+108], esp
  0020d	68 00 00 00 00	 push	 OFFSET FLAT:??_C@_00CNPNBAHC@?$AA@
  00212	c6 44 24 6c 03	 mov	 BYTE PTR __$EHRec$[esp+120], 3
  00217	e8 00 00 00 00	 call	 ??0?$CStringT@DV?$StrTraitATL@DV?$ChTraitsCRT@D@ATL@@@ATL@@@ATL@@QAE@PBD@Z ; ATL::CStringT<char,ATL::StrTraitATL<char,ATL::ChTraitsCRT<char> > >::CStringT<char,ATL::StrTraitATL<char,ATL::ChTraitsCRT<char> > >
  0021c	51		 push	 ecx
  0021d	8b cc		 mov	 ecx, esp
  0021f	89 64 24 50	 mov	 DWORD PTR $T115805[esp+112], esp
  00223	68 00 00 00 00	 push	 OFFSET FLAT:??_C@_00CNPNBAHC@?$AA@
  00228	c6 44 24 70 04	 mov	 BYTE PTR __$EHRec$[esp+124], 4
  0022d	e8 00 00 00 00	 call	 ??0?$CStringT@DV?$StrTraitATL@DV?$ChTraitsCRT@D@ATL@@@ATL@@@ATL@@QAE@PBD@Z ; ATL::CStringT<char,ATL::StrTraitATL<char,ATL::ChTraitsCRT<char> > >::CStringT<char,ATL::StrTraitATL<char,ATL::ChTraitsCRT<char> > >
  00232	8b 86 30 01 01
	00		 mov	 eax, DWORD PTR [esi+65840]
  00238	2b 44 24 5c	 sub	 eax, DWORD PTR _timeCurrent$[esp+112]
  0023c	50		 push	 eax
  0023d	6a 00		 push	 0
  0023f	6a 0a		 push	 10			; 0000000aH
  00241	8b ce		 mov	 ecx, esi
  00243	c6 44 24 78 02	 mov	 BYTE PTR __$EHRec$[esp+132], 2
  00248	e8 00 00 00 00	 call	 ?SendCS_SYSTEMMSG_ACK@CTPlayer@@QAEXEGKV?$CStringT@DV?$StrTraitATL@DV?$ChTraitsCRT@D@ATL@@@ATL@@@ATL@@0EE0E@Z ; CTPlayer::SendCS_SYSTEMMSG_ACK

; 246  : 
; 247  : 		return EC_NOERROR;

  0024d	e9 47 01 00 00	 jmp	 $L117194
$L107698:

; 248  : 	}
; 249  : 
; 250  : 	switch(bGroup)

  00252	0f b6 44 24 18	 movzx	 eax, BYTE PTR _bGroup$[esp+88]
  00257	83 f8 09	 cmp	 eax, 9
  0025a	0f 87 f9 00 00
	00		 ja	 $L108051
  00260	ff 24 85 00 00
	00 00		 jmp	 DWORD PTR $L117195[eax*4]
$L107707:

; 251  : 	{
; 252  : 	case CHAT_TACTICS:
; 253  : 		{
; 254  : 			dwTarget = pPlayer->m_dwTacticsID ? pPlayer->m_dwTacticsID : pPlayer->m_dwGuildID;			

  00267	8b 86 14 01 01
	00		 mov	 eax, DWORD PTR [esi+65812]
  0026d	85 c0		 test	 eax, eax
  0026f	75 06		 jne	 SHORT $L117193
  00271	8b 86 04 01 01
	00		 mov	 eax, DWORD PTR [esi+65796]
$L117193:

; 255  : 
; 256  : 			CTGuild * pGUILD = FindGuild(dwTarget);

  00277	50		 push	 eax
  00278	8b cd		 mov	 ecx, ebp
  0027a	89 44 24 28	 mov	 DWORD PTR _dwTarget$[esp+92], eax
  0027e	e8 00 00 00 00	 call	 ?FindGuild@CTRelaySvrModule@@QAEPAVCTGuild@@K@Z ; CTRelaySvrModule::FindGuild
  00283	8b f8		 mov	 edi, eax

; 257  : 			if(!pGUILD)

  00285	85 ff		 test	 edi, edi

; 258  : 				return EC_NOERROR;

  00287	0f 84 0c 01 00
	00		 je	 $L117194

; 259  : 
; 260  : 			MAPMEMBER::iterator itM;
; 261  : 			for(itM = pGUILD->m_mapMember.begin(); itM != pGUILD->m_mapMember.end(); itM++)

  0028d	8b 47 0c	 mov	 eax, DWORD PTR [edi+12]
  00290	8b 28		 mov	 ebp, DWORD PTR [eax]
  00292	3b e8		 cmp	 ebp, eax
  00294	89 6c 24 28	 mov	 DWORD PTR _itM$107711[esp+88], ebp
  00298	74 59		 je	 SHORT $L107717
  0029a	8d 9b 00 00 00
	00		 npad	 6
$L116250:

; 262  : 				(*itM).second->SendCS_CHAT_ACK(bGroup,pPlayer->m_dwID, strSender, strTalk);

  002a0	51		 push	 ecx
  002a1	8d 54 24 14	 lea	 edx, DWORD PTR _strTalk$[esp+92]
  002a5	8b cc		 mov	 ecx, esp
  002a7	89 64 24 38	 mov	 DWORD PTR $T115813[esp+92], esp
  002ab	52		 push	 edx
  002ac	e8 00 00 00 00	 call	 ??0?$CStringT@DV?$StrTraitATL@DV?$ChTraitsCRT@D@ATL@@@ATL@@@ATL@@QAE@ABV01@@Z ; ATL::CStringT<char,ATL::StrTraitATL<char,ATL::ChTraitsCRT<char> > >::CStringT<char,ATL::StrTraitATL<char,ATL::ChTraitsCRT<char> > >
  002b1	51		 push	 ecx
  002b2	8d 44 24 1c	 lea	 eax, DWORD PTR _strSender$[esp+96]
  002b6	8b cc		 mov	 ecx, esp
  002b8	89 64 24 38	 mov	 DWORD PTR $T115814[esp+96], esp
  002bc	50		 push	 eax
  002bd	88 5c 24 60	 mov	 BYTE PTR __$EHRec$[esp+108], bl
  002c1	e8 00 00 00 00	 call	 ??0?$CStringT@DV?$StrTraitATL@DV?$ChTraitsCRT@D@ATL@@@ATL@@@ATL@@QAE@ABV01@@Z ; ATL::CStringT<char,ATL::StrTraitATL<char,ATL::ChTraitsCRT<char> > >::CStringT<char,ATL::StrTraitATL<char,ATL::ChTraitsCRT<char> > >
  002c6	8b 8e fc 00 01
	00		 mov	 ecx, DWORD PTR [esi+65788]
  002cc	8b 54 24 20	 mov	 edx, DWORD PTR _bGroup$[esp+96]
  002d0	51		 push	 ecx
  002d1	8b 4d 10	 mov	 ecx, DWORD PTR [ebp+16]
  002d4	52		 push	 edx
  002d5	c6 44 24 64 02	 mov	 BYTE PTR __$EHRec$[esp+112], 2
  002da	e8 00 00 00 00	 call	 ?SendCS_CHAT_ACK@CTPlayer@@QAEXEKV?$CStringT@DV?$StrTraitATL@DV?$ChTraitsCRT@D@ATL@@@ATL@@@ATL@@0@Z ; CTPlayer::SendCS_CHAT_ACK
  002df	8d 4c 24 28	 lea	 ecx, DWORD PTR _itM$107711[esp+88]
  002e3	e8 00 00 00 00	 call	 ?_Inc@const_iterator@?$_Tree@V?$_Tmap_traits@KPAVCTPlayer@@U?$less@K@std@@V?$allocator@U?$pair@$$CBKPAVCTPlayer@@@std@@@3@$0A@@std@@@std@@QAEXXZ ; std::_Tree<std::_Tmap_traits<unsigned long,CTPlayer *,std::less<unsigned long>,std::allocator<std::pair<unsigned long const ,CTPlayer *> >,0> >::const_iterator::_Inc
  002e8	8b 47 0c	 mov	 eax, DWORD PTR [edi+12]
  002eb	8b 6c 24 28	 mov	 ebp, DWORD PTR _itM$107711[esp+88]
  002ef	3b e8		 cmp	 ebp, eax
  002f1	75 ad		 jne	 SHORT $L116250
$L107717:

; 263  : 
; 264  : 			for(itM=pGUILD->m_mapTactics.begin(); itM!=pGUILD->m_mapTactics.end(); itM++)

  002f3	8b 47 18	 mov	 eax, DWORD PTR [edi+24]
  002f6	8b 28		 mov	 ebp, DWORD PTR [eax]
  002f8	3b e8		 cmp	 ebp, eax
  002fa	89 6c 24 28	 mov	 DWORD PTR _itM$107711[esp+88], ebp
  002fe	74 55		 je	 SHORT $L117187
  00300	b3 06		 mov	 bl, 6
$L116335:

; 265  : 				(*itM).second->SendCS_CHAT_ACK(bGroup,pPlayer->m_dwID, strSender, strTalk);

  00302	51		 push	 ecx
  00303	8d 44 24 14	 lea	 eax, DWORD PTR _strTalk$[esp+92]
  00307	8b cc		 mov	 ecx, esp
  00309	89 64 24 38	 mov	 DWORD PTR $T115818[esp+92], esp
  0030d	50		 push	 eax
  0030e	e8 00 00 00 00	 call	 ??0?$CStringT@DV?$StrTraitATL@DV?$ChTraitsCRT@D@ATL@@@ATL@@@ATL@@QAE@ABV01@@Z ; ATL::CStringT<char,ATL::StrTraitATL<char,ATL::ChTraitsCRT<char> > >::CStringT<char,ATL::StrTraitATL<char,ATL::ChTraitsCRT<char> > >
  00313	51		 push	 ecx
  00314	8d 54 24 1c	 lea	 edx, DWORD PTR _strSender$[esp+96]
  00318	8b cc		 mov	 ecx, esp
  0031a	89 64 24 38	 mov	 DWORD PTR $T115819[esp+96], esp
  0031e	52		 push	 edx
  0031f	88 5c 24 60	 mov	 BYTE PTR __$EHRec$[esp+108], bl
  00323	e8 00 00 00 00	 call	 ??0?$CStringT@DV?$StrTraitATL@DV?$ChTraitsCRT@D@ATL@@@ATL@@@ATL@@QAE@ABV01@@Z ; ATL::CStringT<char,ATL::StrTraitATL<char,ATL::ChTraitsCRT<char> > >::CStringT<char,ATL::StrTraitATL<char,ATL::ChTraitsCRT<char> > >
  00328	8b 86 fc 00 01
	00		 mov	 eax, DWORD PTR [esi+65788]
  0032e	8b 4c 24 20	 mov	 ecx, DWORD PTR _bGroup$[esp+96]
  00332	50		 push	 eax
  00333	51		 push	 ecx
  00334	8b 4d 10	 mov	 ecx, DWORD PTR [ebp+16]
  00337	c6 44 24 64 02	 mov	 BYTE PTR __$EHRec$[esp+112], 2
  0033c	e8 00 00 00 00	 call	 ?SendCS_CHAT_ACK@CTPlayer@@QAEXEKV?$CStringT@DV?$StrTraitATL@DV?$ChTraitsCRT@D@ATL@@@ATL@@@ATL@@0@Z ; CTPlayer::SendCS_CHAT_ACK
  00341	8d 4c 24 28	 lea	 ecx, DWORD PTR _itM$107711[esp+88]
  00345	e8 00 00 00 00	 call	 ?_Inc@const_iterator@?$_Tree@V?$_Tmap_traits@KPAVCTPlayer@@U?$less@K@std@@V?$allocator@U?$pair@$$CBKPAVCTPlayer@@@std@@@3@$0A@@std@@@std@@QAEXXZ ; std::_Tree<std::_Tmap_traits<unsigned long,CTPlayer *,std::less<unsigned long>,std::allocator<std::pair<unsigned long const ,CTPlayer *> >,0> >::const_iterator::_Inc
  0034a	8b 47 18	 mov	 eax, DWORD PTR [edi+24]
  0034d	8b 6c 24 28	 mov	 ebp, DWORD PTR _itM$107711[esp+88]
  00351	3b e8		 cmp	 ebp, eax
  00353	75 ad		 jne	 SHORT $L116335
$L117187:

; 436  : 
; 437  : 	case CHAT_SHOW:
; 438  : 	case CHAT_MAP:
; 439  : 	case CHAT_WORLD:
; 440  : 		{
; 441  : 			MAPPLAYER::iterator itP;
; 442  : 			for(itP = m_mapPLAYER.begin(); itP != m_mapPLAYER.end(); itP++)

  00355	8b 6c 24 20	 mov	 ebp, DWORD PTR _this$[esp+88]
$L108051:

; 447  : 			}
; 448  : 		}
; 449  : 
; 450  : 		break;
; 451  : 	}
; 452  : #ifdef DEF_UDPLOG
; 453  : 
; 454  : 		//	m_pUdpSocket->LogChat(LOGMAP_CHATWISPER + bGroup, pPlayer, pPlayer->m_strGuildName, strTalk);
; 455  : 		m_pUdpSocket->LogChat(LOGMAP_CHATWISPER + bGroup, pPlayer, NULL, strTalk);

  00359	51		 push	 ecx
  0035a	8d 54 24 14	 lea	 edx, DWORD PTR _strTalk$[esp+92]
  0035e	8b cc		 mov	 ecx, esp
  00360	89 64 24 48	 mov	 DWORD PTR $T115882[esp+92], esp
  00364	52		 push	 edx
  00365	e8 00 00 00 00	 call	 ??0?$CStringT@DV?$StrTraitATL@DV?$ChTraitsCRT@D@ATL@@@ATL@@@ATL@@QAE@ABV01@@Z ; ATL::CStringT<char,ATL::StrTraitATL<char,ATL::ChTraitsCRT<char> > >::CStringT<char,ATL::StrTraitATL<char,ATL::ChTraitsCRT<char> > >
  0036a	51		 push	 ecx
  0036b	8b cc		 mov	 ecx, esp
  0036d	89 64 24 48	 mov	 DWORD PTR $T115883[esp+96], esp
  00371	6a 00		 push	 0
  00373	c6 44 24 60 1a	 mov	 BYTE PTR __$EHRec$[esp+108], 26 ; 0000001aH
  00378	e8 00 00 00 00	 call	 ??0?$CStringT@DV?$StrTraitATL@DV?$ChTraitsCRT@D@ATL@@@ATL@@@ATL@@QAE@PBD@Z ; ATL::CStringT<char,ATL::StrTraitATL<char,ATL::ChTraitsCRT<char> > >::CStringT<char,ATL::StrTraitATL<char,ATL::ChTraitsCRT<char> > >
  0037d	0f b6 44 24 20	 movzx	 eax, BYTE PTR _bGroup$[esp+96]
  00382	8b 8d 74 14 02
	00		 mov	 ecx, DWORD PTR [ebp+136308]
  00388	56		 push	 esi
  00389	05 20 11 00 00	 add	 eax, 4384		; 00001120H
  0038e	50		 push	 eax
  0038f	c6 44 24 64 02	 mov	 BYTE PTR __$EHRec$[esp+112], 2
  00394	e8 00 00 00 00	 call	 ?LogChat@CUdpSocket@@QAEXKPAVCTPlayer@@V?$CStringT@DV?$StrTraitATL@DV?$ChTraitsCRT@D@ATL@@@ATL@@@ATL@@1@Z ; CUdpSocket::LogChat
$L117194:

; 456  : 
; 457  : #endif
; 458  : 
; 459  : 	return EC_NOERROR;

  00399	8d 4c 24 14	 lea	 ecx, DWORD PTR _strSender$[esp+88]
  0039d	e8 00 00 00 00	 call	 ??1?$CStringT@DV?$StrTraitATL@DV?$ChTraitsCRT@D@ATL@@@ATL@@@ATL@@QAE@XZ ; ATL::CStringT<char,ATL::StrTraitATL<char,ATL::ChTraitsCRT<char> > >::~CStringT<char,ATL::StrTraitATL<char,ATL::ChTraitsCRT<char> > >
  003a2	8d 4c 24 10	 lea	 ecx, DWORD PTR _strTalk$[esp+88]
  003a6	e8 00 00 00 00	 call	 ??1?$CStringT@DV?$StrTraitATL@DV?$ChTraitsCRT@D@ATL@@@ATL@@@ATL@@QAE@XZ ; ATL::CStringT<char,ATL::StrTraitATL<char,ATL::ChTraitsCRT<char> > >::~CStringT<char,ATL::StrTraitATL<char,ATL::ChTraitsCRT<char> > >
  003ab	8d 4c 24 1c	 lea	 ecx, DWORD PTR _strName$[esp+88]
  003af	e8 00 00 00 00	 call	 ??1?$CStringT@DV?$StrTraitATL@DV?$ChTraitsCRT@D@ATL@@@ATL@@@ATL@@QAE@XZ ; ATL::CStringT<char,ATL::StrTraitATL<char,ATL::ChTraitsCRT<char> > >::~CStringT<char,ATL::StrTraitATL<char,ATL::ChTraitsCRT<char> > >
  003b4	e9 1f 08 00 00	 jmp	 $L107674
$L107728:

; 266  : 		}
; 267  : 		break;
; 268  : 	case CHAT_NEAR:
; 269  : 		{
; 270  : 			if(IsMeetingRoom(pPlayer->m_wMapID, FALSE))

  003b9	33 d2		 xor	 edx, edx
  003bb	66 8b 96 1e 01
	01 00		 mov	 dx, WORD PTR [esi+65822]
  003c2	8d be 1e 01 01
	00		 lea	 edi, DWORD PTR [esi+65822]
  003c8	6a 00		 push	 0
  003ca	8b cd		 mov	 ecx, ebp
  003cc	52		 push	 edx
  003cd	e8 00 00 00 00	 call	 ?IsMeetingRoom@CTRelaySvrModule@@QAEEGE@Z ; CTRelaySvrModule::IsMeetingRoom
  003d2	84 c0		 test	 al, al
  003d4	0f 84 8f 00 00
	00		 je	 $L107729

; 271  : 			{
; 272  : 				MAPMEETING::iterator it = m_mapMeeting.find(pPlayer->m_wMapID);

  003da	57		 push	 edi
  003db	8d 44 24 34	 lea	 eax, DWORD PTR _it$107807[esp+92]
  003df	50		 push	 eax
  003e0	8d 8d bc 01 00
	00		 lea	 ecx, DWORD PTR [ebp+444]
  003e6	e8 00 00 00 00	 call	 ?find@?$_Tree@V?$_Tmap_traits@GV?$map@KPAVCTPlayer@@U?$less@K@std@@V?$allocator@U?$pair@$$CBKPAVCTPlayer@@@std@@@3@@std@@U?$less@G@2@V?$allocator@U?$pair@$$CBGV?$map@KPAVCTPlayer@@U?$less@K@std@@V?$allocator@U?$pair@$$CBKPAVCTPlayer@@@std@@@3@@std@@@std@@@2@$0A@@std@@@std@@QAE?AViterator@12@ABG@Z ; std::_Tree<std::_Tmap_traits<unsigned short,std::map<unsigned long,CTPlayer *,std::less<unsigned long>,std::allocator<std::pair<unsigned long const ,CTPlayer *> > >,std::less<unsigned short>,std::allocator<std::pair<unsigned short const ,std::map<unsigned long,CTPlayer *,std::less<unsigned long>,std::allocator<std::pair<unsigned long const ,CTPlayer *> > > > >,0> >::find

; 273  : 				if(it!=m_mapMeeting.end())

  003eb	8b 85 c0 01 00
	00		 mov	 eax, DWORD PTR [ebp+448]
  003f1	8b 6c 24 30	 mov	 ebp, DWORD PTR _it$107807[esp+88]
  003f5	3b e8		 cmp	 ebp, eax
  003f7	0f 84 58 ff ff
	ff		 je	 $L117187

; 274  : 				{
; 275  : 					MAPPLAYER::iterator itP;
; 276  : 					for(itP=it->second.begin(); itP != it->second.end(); itP++)

  003fd	8b 45 14	 mov	 eax, DWORD PTR [ebp+20]
  00400	8b 38		 mov	 edi, DWORD PTR [eax]
  00402	3b f8		 cmp	 edi, eax
  00404	89 7c 24 28	 mov	 DWORD PTR _itP$107811[esp+88], edi
  00408	0f 84 47 ff ff
	ff		 je	 $L117187
  0040e	8b ff		 npad	 2
$L116476:

; 277  : 						itP->second->SendCS_CHAT_ACK(bGroup,pPlayer->m_dwID,strSender,strTalk);

  00410	51		 push	 ecx
  00411	8d 54 24 14	 lea	 edx, DWORD PTR _strTalk$[esp+92]
  00415	8b cc		 mov	 ecx, esp
  00417	89 64 24 38	 mov	 DWORD PTR $T115824[esp+92], esp
  0041b	52		 push	 edx
  0041c	e8 00 00 00 00	 call	 ??0?$CStringT@DV?$StrTraitATL@DV?$ChTraitsCRT@D@ATL@@@ATL@@@ATL@@QAE@ABV01@@Z ; ATL::CStringT<char,ATL::StrTraitATL<char,ATL::ChTraitsCRT<char> > >::CStringT<char,ATL::StrTraitATL<char,ATL::ChTraitsCRT<char> > >
  00421	51		 push	 ecx
  00422	8d 44 24 1c	 lea	 eax, DWORD PTR _strSender$[esp+96]
  00426	8b cc		 mov	 ecx, esp
  00428	89 64 24 38	 mov	 DWORD PTR $T115825[esp+96], esp
  0042c	50		 push	 eax
  0042d	c6 44 24 60 07	 mov	 BYTE PTR __$EHRec$[esp+108], 7
  00432	e8 00 00 00 00	 call	 ??0?$CStringT@DV?$StrTraitATL@DV?$ChTraitsCRT@D@ATL@@@ATL@@@ATL@@QAE@ABV01@@Z ; ATL::CStringT<char,ATL::StrTraitATL<char,ATL::ChTraitsCRT<char> > >::CStringT<char,ATL::StrTraitATL<char,ATL::ChTraitsCRT<char> > >
  00437	8b 8e fc 00 01
	00		 mov	 ecx, DWORD PTR [esi+65788]
  0043d	8b 54 24 20	 mov	 edx, DWORD PTR _bGroup$[esp+96]
  00441	51		 push	 ecx
  00442	8b 4f 10	 mov	 ecx, DWORD PTR [edi+16]
  00445	52		 push	 edx
  00446	c6 44 24 64 02	 mov	 BYTE PTR __$EHRec$[esp+112], 2
  0044b	e8 00 00 00 00	 call	 ?SendCS_CHAT_ACK@CTPlayer@@QAEXEKV?$CStringT@DV?$StrTraitATL@DV?$ChTraitsCRT@D@ATL@@@ATL@@@ATL@@0@Z ; CTPlayer::SendCS_CHAT_ACK
  00450	8d 4c 24 28	 lea	 ecx, DWORD PTR _itP$107811[esp+88]
  00454	e8 00 00 00 00	 call	 ?_Inc@const_iterator@?$_Tree@V?$_Tmap_traits@KPAVCTPlayer@@U?$less@K@std@@V?$allocator@U?$pair@$$CBKPAVCTPlayer@@@std@@@3@$0A@@std@@@std@@QAEXXZ ; std::_Tree<std::_Tmap_traits<unsigned long,CTPlayer *,std::less<unsigned long>,std::allocator<std::pair<unsigned long const ,CTPlayer *> >,0> >::const_iterator::_Inc
  00459	8b 45 14	 mov	 eax, DWORD PTR [ebp+20]
  0045c	8b 7c 24 28	 mov	 edi, DWORD PTR _itP$107811[esp+88]
  00460	3b f8		 cmp	 edi, eax
  00462	75 ac		 jne	 SHORT $L116476

; 278  : 				}
; 279  : 			}
; 280  : 			else

  00464	e9 ec fe ff ff	 jmp	 $L117187
$L107729:

; 281  : 			{
; 282  : 				pBUF->m_packet
; 283  : 					>> wCount;

  00469	8b 5c 24 34	 mov	 ebx, DWORD PTR tv1965[esp+88]
  0046d	8d 44 24 5c	 lea	 eax, DWORD PTR _wCount$[esp+84]
  00471	50		 push	 eax
  00472	8b cb		 mov	 ecx, ebx
  00474	e8 00 00 00 00	 call	 ??5CPacket@@QAEAAV0@AAG@Z ; CPacket::operator>>

; 284  : 
; 285  : 				for(DWORD i = 0; i < wCount; i++)

  00479	66 83 7c 24 5c
	00		 cmp	 WORD PTR _wCount$[esp+84], 0
  0047f	c7 44 24 28 00
	00 00 00	 mov	 DWORD PTR _i$107843[esp+88], 0
  00487	0f 86 83 00 00
	00		 jbe	 $L107846
  0048d	8d 49 00	 npad	 3
$L107844:

; 286  : 				{
; 287  : 					pBUF->m_packet
; 288  : 						>> dwTarget;

  00490	8d 4c 24 24	 lea	 ecx, DWORD PTR _dwTarget$[esp+88]
  00494	51		 push	 ecx
  00495	8b cb		 mov	 ecx, ebx
  00497	e8 00 00 00 00	 call	 ??5CPacket@@QAEAAV0@AAK@Z ; CPacket::operator>>

; 289  : 
; 290  : 					CTPlayer * pTarget = FindPlayer(dwTarget);

  0049c	8b 54 24 24	 mov	 edx, DWORD PTR _dwTarget$[esp+88]
  004a0	52		 push	 edx
  004a1	8b cd		 mov	 ecx, ebp
  004a3	e8 00 00 00 00	 call	 ?FindPlayer@CTRelaySvrModule@@QAEPAVCTPlayer@@K@Z ; CTRelaySvrModule::FindPlayer
  004a8	8b f8		 mov	 edi, eax

; 291  : 
; 292  : 					if(pTarget && pPlayer->CanTalk(pTarget, bGroup))

  004aa	85 ff		 test	 edi, edi
  004ac	74 50		 je	 SHORT $L107845
  004ae	8b 44 24 18	 mov	 eax, DWORD PTR _bGroup$[esp+88]
  004b2	50		 push	 eax
  004b3	57		 push	 edi
  004b4	8b ce		 mov	 ecx, esi
  004b6	e8 00 00 00 00	 call	 ?CanTalk@CTPlayer@@QAEEPAV1@E@Z ; CTPlayer::CanTalk
  004bb	84 c0		 test	 al, al
  004bd	74 3f		 je	 SHORT $L107845

; 293  : 						pTarget->SendCS_CHAT_ACK(bGroup,pPlayer->m_dwID,strSender,strTalk);

  004bf	51		 push	 ecx
  004c0	8d 54 24 14	 lea	 edx, DWORD PTR _strTalk$[esp+92]
  004c4	8b cc		 mov	 ecx, esp
  004c6	89 64 24 38	 mov	 DWORD PTR $T115826[esp+92], esp
  004ca	52		 push	 edx
  004cb	e8 00 00 00 00	 call	 ??0?$CStringT@DV?$StrTraitATL@DV?$ChTraitsCRT@D@ATL@@@ATL@@@ATL@@QAE@ABV01@@Z ; ATL::CStringT<char,ATL::StrTraitATL<char,ATL::ChTraitsCRT<char> > >::CStringT<char,ATL::StrTraitATL<char,ATL::ChTraitsCRT<char> > >
  004d0	51		 push	 ecx
  004d1	8d 44 24 1c	 lea	 eax, DWORD PTR _strSender$[esp+96]
  004d5	8b cc		 mov	 ecx, esp
  004d7	89 64 24 38	 mov	 DWORD PTR $T115827[esp+96], esp
  004db	50		 push	 eax
  004dc	c6 44 24 60 08	 mov	 BYTE PTR __$EHRec$[esp+108], 8
  004e1	e8 00 00 00 00	 call	 ??0?$CStringT@DV?$StrTraitATL@DV?$ChTraitsCRT@D@ATL@@@ATL@@@ATL@@QAE@ABV01@@Z ; ATL::CStringT<char,ATL::StrTraitATL<char,ATL::ChTraitsCRT<char> > >::CStringT<char,ATL::StrTraitATL<char,ATL::ChTraitsCRT<char> > >
  004e6	8b 8e fc 00 01
	00		 mov	 ecx, DWORD PTR [esi+65788]
  004ec	8b 54 24 20	 mov	 edx, DWORD PTR _bGroup$[esp+96]
  004f0	51		 push	 ecx
  004f1	52		 push	 edx
  004f2	8b cf		 mov	 ecx, edi
  004f4	c6 44 24 64 02	 mov	 BYTE PTR __$EHRec$[esp+112], 2
  004f9	e8 00 00 00 00	 call	 ?SendCS_CHAT_ACK@CTPlayer@@QAEXEKV?$CStringT@DV?$StrTraitATL@DV?$ChTraitsCRT@D@ATL@@@ATL@@@ATL@@0@Z ; CTPlayer::SendCS_CHAT_ACK
$L107845:
  004fe	8b 44 24 28	 mov	 eax, DWORD PTR _i$107843[esp+88]
  00502	0f b7 4c 24 5c	 movzx	 ecx, WORD PTR _wCount$[esp+84]
  00507	40		 inc	 eax
  00508	3b c1		 cmp	 eax, ecx
  0050a	89 44 24 28	 mov	 DWORD PTR _i$107843[esp+88], eax
  0050e	72 80		 jb	 SHORT $L107844
$L107846:

; 294  : 				}
; 295  : 
; 296  : 				pPlayer->SendCS_CHAT_ACK(bGroup,pPlayer->m_dwID,strSender,strTalk);

  00510	51		 push	 ecx
  00511	8d 54 24 14	 lea	 edx, DWORD PTR _strTalk$[esp+92]
  00515	8b cc		 mov	 ecx, esp
  00517	89 64 24 38	 mov	 DWORD PTR $T115828[esp+92], esp
  0051b	52		 push	 edx
  0051c	e8 00 00 00 00	 call	 ??0?$CStringT@DV?$StrTraitATL@DV?$ChTraitsCRT@D@ATL@@@ATL@@@ATL@@QAE@ABV01@@Z ; ATL::CStringT<char,ATL::StrTraitATL<char,ATL::ChTraitsCRT<char> > >::CStringT<char,ATL::StrTraitATL<char,ATL::ChTraitsCRT<char> > >
  00521	51		 push	 ecx
  00522	8d 44 24 1c	 lea	 eax, DWORD PTR _strSender$[esp+96]
  00526	8b cc		 mov	 ecx, esp
  00528	89 64 24 38	 mov	 DWORD PTR $T115829[esp+96], esp
  0052c	50		 push	 eax
  0052d	c6 44 24 60 09	 mov	 BYTE PTR __$EHRec$[esp+108], 9
  00532	e8 00 00 00 00	 call	 ??0?$CStringT@DV?$StrTraitATL@DV?$ChTraitsCRT@D@ATL@@@ATL@@@ATL@@QAE@ABV01@@Z ; ATL::CStringT<char,ATL::StrTraitATL<char,ATL::ChTraitsCRT<char> > >::CStringT<char,ATL::StrTraitATL<char,ATL::ChTraitsCRT<char> > >
  00537	8b 8e fc 00 01
	00		 mov	 ecx, DWORD PTR [esi+65788]
  0053d	8b 54 24 20	 mov	 edx, DWORD PTR _bGroup$[esp+96]
  00541	51		 push	 ecx
  00542	52		 push	 edx
  00543	8b ce		 mov	 ecx, esi
  00545	c6 44 24 64 02	 mov	 BYTE PTR __$EHRec$[esp+112], 2
  0054a	e8 00 00 00 00	 call	 ?SendCS_CHAT_ACK@CTPlayer@@QAEXEKV?$CStringT@DV?$StrTraitATL@DV?$ChTraitsCRT@D@ATL@@@ATL@@@ATL@@0@Z ; CTPlayer::SendCS_CHAT_ACK

; 297  : 			}
; 298  : 		}
; 299  : 		break;

  0054f	e9 05 fe ff ff	 jmp	 $L108051
$L107853:

; 300  : 
; 301  : 	case CHAT_WHISPER:
; 302  : 		{
; 303  : 			if(strName == GetSvrMsg(NAME_OPERATOR))

  00554	6a 06		 push	 6
  00556	8d 44 24 3c	 lea	 eax, DWORD PTR $T115831[esp+92]
  0055a	50		 push	 eax
  0055b	8b cd		 mov	 ecx, ebp
  0055d	e8 00 00 00 00	 call	 ?GetSvrMsg@CTRelaySvrModule@@QAE?AV?$CStringT@DV?$StrTraitATL@DV?$ChTraitsCRT@D@ATL@@@ATL@@@ATL@@K@Z ; CTRelaySvrModule::GetSvrMsg
  00562	50		 push	 eax
  00563	8d 4c 24 20	 lea	 ecx, DWORD PTR _strName$[esp+92]
  00567	51		 push	 ecx
  00568	e8 00 00 00 00	 call	 ??8ATL@@YA_NABV?$CStringT@DV?$StrTraitATL@DV?$ChTraitsCRT@D@ATL@@@ATL@@@0@0@Z ; ATL::operator==
  0056d	83 c4 08	 add	 esp, 8
  00570	8d 4c 24 38	 lea	 ecx, DWORD PTR $T115831[esp+88]
  00574	8a d8		 mov	 bl, al
  00576	e8 00 00 00 00	 call	 ??1?$CStringT@DV?$StrTraitATL@DV?$ChTraitsCRT@D@ATL@@@ATL@@@ATL@@QAE@XZ ; ATL::CStringT<char,ATL::StrTraitATL<char,ATL::ChTraitsCRT<char> > >::~CStringT<char,ATL::StrTraitATL<char,ATL::ChTraitsCRT<char> > >
  0057b	84 db		 test	 bl, bl
  0057d	0f 84 8f 01 00
	00		 je	 $L107855

; 304  : 			{	
; 305  : 				BYTE bCount = 0;
; 306  : 				for(DWORD i = 0; i < m_vTOPERATOR.size(); i++)

  00583	8b 4c 24 20	 mov	 ecx, DWORD PTR _this$[esp+88]
  00587	81 c1 c8 01 00
	00		 add	 ecx, 456		; 000001c8H
  0058d	32 db		 xor	 bl, bl
  0058f	33 ed		 xor	 ebp, ebp
  00591	e8 00 00 00 00	 call	 ?size@?$vector@KV?$allocator@K@std@@@std@@QBEIXZ ; std::vector<unsigned long,std::allocator<unsigned long> >::size
  00596	85 c0		 test	 eax, eax
  00598	0f 86 82 00 00
	00		 jbe	 $L117185
  0059e	8b ff		 npad	 2
$L107859:

; 307  : 				{
; 308  : 					CTPlayer* pOperator = FindPlayer( m_vTOPERATOR[i] );

  005a0	8b 4c 24 20	 mov	 ecx, DWORD PTR _this$[esp+88]
  005a4	8b 81 cc 01 00
	00		 mov	 eax, DWORD PTR [ecx+460]
  005aa	8b 14 a8	 mov	 edx, DWORD PTR [eax+ebp*4]
  005ad	52		 push	 edx
  005ae	e8 00 00 00 00	 call	 ?FindPlayer@CTRelaySvrModule@@QAEPAVCTPlayer@@K@Z ; CTRelaySvrModule::FindPlayer
  005b3	8b f8		 mov	 edi, eax

; 309  : 					if(pOperator && pOperator->m_bCountry == pPlayer->m_bCountry)

  005b5	85 ff		 test	 edi, edi
  005b7	74 4f		 je	 SHORT $L107860
  005b9	8a 87 22 01 01
	00		 mov	 al, BYTE PTR [edi+65826]
  005bf	3a 86 22 01 01
	00		 cmp	 al, BYTE PTR [esi+65826]
  005c5	75 41		 jne	 SHORT $L107860

; 310  : 					{
; 311  : 						pOperator->SendCS_CHAT_ACK(bType,pPlayer->m_dwID,strSender,strTalk);

  005c7	51		 push	 ecx
  005c8	8d 54 24 14	 lea	 edx, DWORD PTR _strTalk$[esp+92]
  005cc	8b cc		 mov	 ecx, esp
  005ce	89 64 24 38	 mov	 DWORD PTR $T115832[esp+92], esp
  005d2	52		 push	 edx
  005d3	e8 00 00 00 00	 call	 ??0?$CStringT@DV?$StrTraitATL@DV?$ChTraitsCRT@D@ATL@@@ATL@@@ATL@@QAE@ABV01@@Z ; ATL::CStringT<char,ATL::StrTraitATL<char,ATL::ChTraitsCRT<char> > >::CStringT<char,ATL::StrTraitATL<char,ATL::ChTraitsCRT<char> > >
  005d8	51		 push	 ecx
  005d9	8d 44 24 1c	 lea	 eax, DWORD PTR _strSender$[esp+96]
  005dd	8b cc		 mov	 ecx, esp
  005df	89 64 24 38	 mov	 DWORD PTR $T115833[esp+96], esp
  005e3	50		 push	 eax
  005e4	c6 44 24 60 0a	 mov	 BYTE PTR __$EHRec$[esp+108], 10 ; 0000000aH
  005e9	e8 00 00 00 00	 call	 ??0?$CStringT@DV?$StrTraitATL@DV?$ChTraitsCRT@D@ATL@@@ATL@@@ATL@@QAE@ABV01@@Z ; ATL::CStringT<char,ATL::StrTraitATL<char,ATL::ChTraitsCRT<char> > >::CStringT<char,ATL::StrTraitATL<char,ATL::ChTraitsCRT<char> > >
  005ee	8b 8e fc 00 01
	00		 mov	 ecx, DWORD PTR [esi+65788]
  005f4	8b 54 24 30	 mov	 edx, DWORD PTR _bType$[esp+96]
  005f8	51		 push	 ecx
  005f9	52		 push	 edx
  005fa	8b cf		 mov	 ecx, edi
  005fc	c6 44 24 64 02	 mov	 BYTE PTR __$EHRec$[esp+112], 2
  00601	e8 00 00 00 00	 call	 ?SendCS_CHAT_ACK@CTPlayer@@QAEXEKV?$CStringT@DV?$StrTraitATL@DV?$ChTraitsCRT@D@ATL@@@ATL@@@ATL@@0@Z ; CTPlayer::SendCS_CHAT_ACK

; 312  : 						bCount++;

  00606	fe c3		 inc	 bl
$L107860:
  00608	8b 4c 24 20	 mov	 ecx, DWORD PTR _this$[esp+88]
  0060c	81 c1 c8 01 00
	00		 add	 ecx, 456		; 000001c8H
  00612	45		 inc	 ebp
  00613	e8 00 00 00 00	 call	 ?size@?$vector@KV?$allocator@K@std@@@std@@QBEIXZ ; std::vector<unsigned long,std::allocator<unsigned long> >::size
  00618	3b e8		 cmp	 ebp, eax
  0061a	72 84		 jb	 SHORT $L107859

; 313  : 					}
; 314  : 				}
; 315  : 				if(!bCount)

  0061c	84 db		 test	 bl, bl
  0061e	75 70		 jne	 SHORT $L107866
$L117185:

; 316  : 				{
; 317  : 					strTalk = BuildNetString(NAME_NULL, GetSvrMsg(MSG_CHAR_LOGOUT));

  00620	68 00 00 00 00	 push	 OFFSET FLAT:??_C@_00CNPNBAHC@?$AA@
  00625	8d 4c 24 30	 lea	 ecx, DWORD PTR $T115835[esp+92]
  00629	e8 00 00 00 00	 call	 ??0?$CStringT@DV?$StrTraitATL@DV?$ChTraitsCRT@D@ATL@@@ATL@@@ATL@@QAE@PBD@Z ; ATL::CStringT<char,ATL::StrTraitATL<char,ATL::ChTraitsCRT<char> > >::CStringT<char,ATL::StrTraitATL<char,ATL::ChTraitsCRT<char> > >
  0062e	8b 7c 24 20	 mov	 edi, DWORD PTR _this$[esp+88]
  00632	6a 07		 push	 7
  00634	8d 44 24 44	 lea	 eax, DWORD PTR $T115834[esp+92]
  00638	50		 push	 eax
  00639	8b cf		 mov	 ecx, edi
  0063b	c6 44 24 5c 0b	 mov	 BYTE PTR __$EHRec$[esp+104], 11 ; 0000000bH
  00640	e8 00 00 00 00	 call	 ?GetSvrMsg@CTRelaySvrModule@@QAE?AV?$CStringT@DV?$StrTraitATL@DV?$ChTraitsCRT@D@ATL@@@ATL@@@ATL@@K@Z ; CTRelaySvrModule::GetSvrMsg
  00645	50		 push	 eax
  00646	8d 4c 24 30	 lea	 ecx, DWORD PTR $T115835[esp+92]
  0064a	51		 push	 ecx
  0064b	8d 54 24 44	 lea	 edx, DWORD PTR $T115836[esp+96]
  0064f	52		 push	 edx
  00650	8b cf		 mov	 ecx, edi
  00652	c6 44 24 60 0c	 mov	 BYTE PTR __$EHRec$[esp+108], 12 ; 0000000cH
  00657	e8 00 00 00 00	 call	 ?BuildNetString@CTRelaySvrModule@@QAE?AV?$CStringT@DV?$StrTraitATL@DV?$ChTraitsCRT@D@ATL@@@ATL@@@ATL@@ABV23@0@Z ; CTRelaySvrModule::BuildNetString
  0065c	50		 push	 eax
  0065d	8d 4c 24 14	 lea	 ecx, DWORD PTR _strTalk$[esp+92]
  00661	c6 44 24 58 0d	 mov	 BYTE PTR __$EHRec$[esp+100], 13 ; 0000000dH
  00666	e8 00 00 00 00	 call	 ??4?$CSimpleStringT@D$0A@@ATL@@QAEAAV01@ABV01@@Z ; ATL::CSimpleStringT<char,0>::operator=
  0066b	8d 4c 24 3c	 lea	 ecx, DWORD PTR $T115836[esp+88]
  0066f	e8 00 00 00 00	 call	 ??1?$CStringT@DV?$StrTraitATL@DV?$ChTraitsCRT@D@ATL@@@ATL@@@ATL@@QAE@XZ ; ATL::CStringT<char,ATL::StrTraitATL<char,ATL::ChTraitsCRT<char> > >::~CStringT<char,ATL::StrTraitATL<char,ATL::ChTraitsCRT<char> > >
  00674	8d 4c 24 40	 lea	 ecx, DWORD PTR $T115834[esp+88]
  00678	e8 00 00 00 00	 call	 ??1?$CStringT@DV?$StrTraitATL@DV?$ChTraitsCRT@D@ATL@@@ATL@@@ATL@@QAE@XZ ; ATL::CStringT<char,ATL::StrTraitATL<char,ATL::ChTraitsCRT<char> > >::~CStringT<char,ATL::StrTraitATL<char,ATL::ChTraitsCRT<char> > >
  0067d	8d 4c 24 2c	 lea	 ecx, DWORD PTR $T115835[esp+88]
  00681	c6 44 24 54 02	 mov	 BYTE PTR __$EHRec$[esp+96], 2
  00686	e8 00 00 00 00	 call	 ??1?$CStringT@DV?$StrTraitATL@DV?$ChTraitsCRT@D@ATL@@@ATL@@@ATL@@QAE@XZ ; ATL::CStringT<char,ATL::StrTraitATL<char,ATL::ChTraitsCRT<char> > >::~CStringT<char,ATL::StrTraitATL<char,ATL::ChTraitsCRT<char> > >

; 318  : 					bGroup = CHAT_OPERATOR;

  0068b	c6 44 24 18 07	 mov	 BYTE PTR _bGroup$[esp+88], 7
$L107866:

; 319  : 				}
; 320  : 
; 321  : #ifdef DEF_UDPLOG
; 322  : 				m_pUdpSocket->LogChat(LOGMAP_CHATOPERATOR, pPlayer, NULL, strTalk);

  00690	51		 push	 ecx
  00691	8d 44 24 14	 lea	 eax, DWORD PTR _strTalk$[esp+92]
  00695	8b cc		 mov	 ecx, esp
  00697	89 64 24 38	 mov	 DWORD PTR $T115837[esp+92], esp
  0069b	50		 push	 eax
  0069c	e8 00 00 00 00	 call	 ??0?$CStringT@DV?$StrTraitATL@DV?$ChTraitsCRT@D@ATL@@@ATL@@@ATL@@QAE@ABV01@@Z ; ATL::CStringT<char,ATL::StrTraitATL<char,ATL::ChTraitsCRT<char> > >::CStringT<char,ATL::StrTraitATL<char,ATL::ChTraitsCRT<char> > >
  006a1	51		 push	 ecx
  006a2	8b cc		 mov	 ecx, esp
  006a4	89 64 24 38	 mov	 DWORD PTR $T115838[esp+96], esp
  006a8	6a 00		 push	 0
  006aa	c6 44 24 60 0e	 mov	 BYTE PTR __$EHRec$[esp+108], 14 ; 0000000eH
  006af	e8 00 00 00 00	 call	 ??0?$CStringT@DV?$StrTraitATL@DV?$ChTraitsCRT@D@ATL@@@ATL@@@ATL@@QAE@PBD@Z ; ATL::CStringT<char,ATL::StrTraitATL<char,ATL::ChTraitsCRT<char> > >::CStringT<char,ATL::StrTraitATL<char,ATL::ChTraitsCRT<char> > >
  006b4	8b 4c 24 28	 mov	 ecx, DWORD PTR _this$[esp+96]
  006b8	8b 89 74 14 02
	00		 mov	 ecx, DWORD PTR [ecx+136308]
  006be	56		 push	 esi
  006bf	68 27 11 00 00	 push	 4391			; 00001127H
  006c4	c6 44 24 64 02	 mov	 BYTE PTR __$EHRec$[esp+112], 2
  006c9	e8 00 00 00 00	 call	 ?LogChat@CUdpSocket@@QAEXKPAVCTPlayer@@V?$CStringT@DV?$StrTraitATL@DV?$ChTraitsCRT@D@ATL@@@ATL@@@ATL@@1@Z ; CUdpSocket::LogChat

; 323  : #endif
; 324  : 
; 325  : 				pPlayer->SendCS_CHAT_ACK(bGroup,pPlayer->m_dwID,strName,strTalk);

  006ce	51		 push	 ecx
  006cf	8d 54 24 14	 lea	 edx, DWORD PTR _strTalk$[esp+92]
  006d3	8b cc		 mov	 ecx, esp
  006d5	89 64 24 38	 mov	 DWORD PTR $T115839[esp+92], esp
  006d9	52		 push	 edx
  006da	e8 00 00 00 00	 call	 ??0?$CStringT@DV?$StrTraitATL@DV?$ChTraitsCRT@D@ATL@@@ATL@@@ATL@@QAE@ABV01@@Z ; ATL::CStringT<char,ATL::StrTraitATL<char,ATL::ChTraitsCRT<char> > >::CStringT<char,ATL::StrTraitATL<char,ATL::ChTraitsCRT<char> > >
  006df	51		 push	 ecx
  006e0	8d 44 24 24	 lea	 eax, DWORD PTR _strName$[esp+96]
  006e4	8b cc		 mov	 ecx, esp
  006e6	89 64 24 38	 mov	 DWORD PTR $T115840[esp+96], esp
  006ea	50		 push	 eax
  006eb	c6 44 24 60 0f	 mov	 BYTE PTR __$EHRec$[esp+108], 15 ; 0000000fH
  006f0	e8 00 00 00 00	 call	 ??0?$CStringT@DV?$StrTraitATL@DV?$ChTraitsCRT@D@ATL@@@ATL@@@ATL@@QAE@ABV01@@Z ; ATL::CStringT<char,ATL::StrTraitATL<char,ATL::ChTraitsCRT<char> > >::CStringT<char,ATL::StrTraitATL<char,ATL::ChTraitsCRT<char> > >
  006f5	8b 8e fc 00 01
	00		 mov	 ecx, DWORD PTR [esi+65788]
  006fb	8b 54 24 20	 mov	 edx, DWORD PTR _bGroup$[esp+96]
  006ff	51		 push	 ecx
  00700	52		 push	 edx
  00701	8b ce		 mov	 ecx, esi
  00703	c6 44 24 64 02	 mov	 BYTE PTR __$EHRec$[esp+112], 2
  00708	e8 00 00 00 00	 call	 ?SendCS_CHAT_ACK@CTPlayer@@QAEXEKV?$CStringT@DV?$StrTraitATL@DV?$ChTraitsCRT@D@ATL@@@ATL@@@ATL@@0@Z ; CTPlayer::SendCS_CHAT_ACK

; 326  : 
; 327  : 				return EC_NOERROR;

  0070d	e9 87 fc ff ff	 jmp	 $L117194
$L107855:

; 328  : 			}
; 329  : 
; 330  : 
; 331  : 			MAPPLAYER::iterator itPlayer = m_mapPLAYER.find(dwTarget);

  00712	8d 44 24 24	 lea	 eax, DWORD PTR _dwTarget$[esp+88]
  00716	50		 push	 eax
  00717	8d 4c 24 38	 lea	 ecx, DWORD PTR _itPlayer$107875[esp+92]
  0071b	51		 push	 ecx
  0071c	8d 8d 74 01 00
	00		 lea	 ecx, DWORD PTR [ebp+372]
  00722	e8 00 00 00 00	 call	 ?find@?$_Tree@V?$_Tmap_traits@KPAVCTPlayer@@U?$less@K@std@@V?$allocator@U?$pair@$$CBKPAVCTPlayer@@@std@@@3@$0A@@std@@@std@@QAE?AViterator@12@ABK@Z ; std::_Tree<std::_Tmap_traits<unsigned long,CTPlayer *,std::less<unsigned long>,std::allocator<std::pair<unsigned long const ,CTPlayer *> >,0> >::find

; 332  : 			if( itPlayer != m_mapPLAYER.end() &&
; 333  : 				pPlayer->CanTalk((*itPlayer).second, bGroup))

  00727	8b 85 78 01 00
	00		 mov	 eax, DWORD PTR [ebp+376]
  0072d	8b 7c 24 34	 mov	 edi, DWORD PTR _itPlayer$107875[esp+88]
  00731	3b f8		 cmp	 edi, eax
  00733	0f 84 e3 00 00
	00		 je	 $L107878
  00739	8b 54 24 18	 mov	 edx, DWORD PTR _bGroup$[esp+88]
  0073d	8b 47 10	 mov	 eax, DWORD PTR [edi+16]
  00740	52		 push	 edx
  00741	50		 push	 eax
  00742	8b ce		 mov	 ecx, esi
  00744	e8 00 00 00 00	 call	 ?CanTalk@CTPlayer@@QAEEPAV1@E@Z ; CTPlayer::CanTalk
  00749	84 c0		 test	 al, al
  0074b	0f 84 cb 00 00
	00		 je	 $L107878

; 334  : 			{				
; 335  : 				(*itPlayer).second->SendCS_CHAT_ACK(
; 336  : 					bType,
; 337  : 					pPlayer->m_dwID,
; 338  : 					strSender,
; 339  : 					strTalk);

  00751	51		 push	 ecx
  00752	8d 54 24 14	 lea	 edx, DWORD PTR _strTalk$[esp+92]
  00756	8b cc		 mov	 ecx, esp
  00758	89 64 24 38	 mov	 DWORD PTR $T115843[esp+92], esp
  0075c	52		 push	 edx
  0075d	e8 00 00 00 00	 call	 ??0?$CStringT@DV?$StrTraitATL@DV?$ChTraitsCRT@D@ATL@@@ATL@@@ATL@@QAE@ABV01@@Z ; ATL::CStringT<char,ATL::StrTraitATL<char,ATL::ChTraitsCRT<char> > >::CStringT<char,ATL::StrTraitATL<char,ATL::ChTraitsCRT<char> > >
  00762	51		 push	 ecx
  00763	8d 44 24 1c	 lea	 eax, DWORD PTR _strSender$[esp+96]
  00767	8b cc		 mov	 ecx, esp
  00769	89 64 24 38	 mov	 DWORD PTR $T115844[esp+96], esp
  0076d	50		 push	 eax
  0076e	c6 44 24 60 10	 mov	 BYTE PTR __$EHRec$[esp+108], 16 ; 00000010H
  00773	e8 00 00 00 00	 call	 ??0?$CStringT@DV?$StrTraitATL@DV?$ChTraitsCRT@D@ATL@@@ATL@@@ATL@@QAE@ABV01@@Z ; ATL::CStringT<char,ATL::StrTraitATL<char,ATL::ChTraitsCRT<char> > >::CStringT<char,ATL::StrTraitATL<char,ATL::ChTraitsCRT<char> > >
  00778	8b 8e fc 00 01
	00		 mov	 ecx, DWORD PTR [esi+65788]
  0077e	8b 54 24 30	 mov	 edx, DWORD PTR _bType$[esp+96]
  00782	51		 push	 ecx
  00783	8b 4f 10	 mov	 ecx, DWORD PTR [edi+16]
  00786	52		 push	 edx
  00787	c6 44 24 64 02	 mov	 BYTE PTR __$EHRec$[esp+112], 2
  0078c	e8 00 00 00 00	 call	 ?SendCS_CHAT_ACK@CTPlayer@@QAEXEKV?$CStringT@DV?$StrTraitATL@DV?$ChTraitsCRT@D@ATL@@@ATL@@@ATL@@0@Z ; CTPlayer::SendCS_CHAT_ACK

; 340  : #ifdef DEF_UDPLOG
; 341  :                     m_pUdpSocket->LogChat(LOGMAP_CHATWISPER, pPlayer, (*itPlayer).second->m_strNAME, strTalk);

  00791	51		 push	 ecx
  00792	8d 44 24 14	 lea	 eax, DWORD PTR _strTalk$[esp+92]
  00796	8b cc		 mov	 ecx, esp
  00798	89 64 24 38	 mov	 DWORD PTR $T115845[esp+92], esp
  0079c	50		 push	 eax
  0079d	e8 00 00 00 00	 call	 ??0?$CStringT@DV?$StrTraitATL@DV?$ChTraitsCRT@D@ATL@@@ATL@@@ATL@@QAE@ABV01@@Z ; ATL::CStringT<char,ATL::StrTraitATL<char,ATL::ChTraitsCRT<char> > >::CStringT<char,ATL::StrTraitATL<char,ATL::ChTraitsCRT<char> > >
  007a2	8b 57 10	 mov	 edx, DWORD PTR [edi+16]
  007a5	51		 push	 ecx
  007a6	81 c2 28 01 01
	00		 add	 edx, 65832		; 00010128H
  007ac	8b cc		 mov	 ecx, esp
  007ae	89 64 24 38	 mov	 DWORD PTR $T115846[esp+96], esp
  007b2	52		 push	 edx
  007b3	c6 44 24 60 11	 mov	 BYTE PTR __$EHRec$[esp+108], 17 ; 00000011H
  007b8	e8 00 00 00 00	 call	 ??0?$CStringT@DV?$StrTraitATL@DV?$ChTraitsCRT@D@ATL@@@ATL@@@ATL@@QAE@ABV01@@Z ; ATL::CStringT<char,ATL::StrTraitATL<char,ATL::ChTraitsCRT<char> > >::CStringT<char,ATL::StrTraitATL<char,ATL::ChTraitsCRT<char> > >
  007bd	8b 8d 74 14 02
	00		 mov	 ecx, DWORD PTR [ebp+136308]
  007c3	56		 push	 esi
  007c4	68 20 11 00 00	 push	 4384			; 00001120H
  007c9	c6 44 24 64 02	 mov	 BYTE PTR __$EHRec$[esp+112], 2
  007ce	e8 00 00 00 00	 call	 ?LogChat@CUdpSocket@@QAEXKPAVCTPlayer@@V?$CStringT@DV?$StrTraitATL@DV?$ChTraitsCRT@D@ATL@@@ATL@@@ATL@@1@Z ; CUdpSocket::LogChat

; 342  : #endif
; 343  : 				
; 344  : 				pPlayer->SendCS_CHAT_ACK(
; 345  : 					bGroup,
; 346  : 					pPlayer->m_dwID,
; 347  : 					(*itPlayer).second->m_strNAME,
; 348  : 					strTalk);

  007d3	51		 push	 ecx
  007d4	8d 44 24 14	 lea	 eax, DWORD PTR _strTalk$[esp+92]
  007d8	8b cc		 mov	 ecx, esp
  007da	89 64 24 38	 mov	 DWORD PTR $T115847[esp+92], esp
  007de	50		 push	 eax
  007df	e8 00 00 00 00	 call	 ??0?$CStringT@DV?$StrTraitATL@DV?$ChTraitsCRT@D@ATL@@@ATL@@@ATL@@QAE@ABV01@@Z ; ATL::CStringT<char,ATL::StrTraitATL<char,ATL::ChTraitsCRT<char> > >::CStringT<char,ATL::StrTraitATL<char,ATL::ChTraitsCRT<char> > >
  007e4	8b 57 10	 mov	 edx, DWORD PTR [edi+16]
  007e7	51		 push	 ecx
  007e8	81 c2 28 01 01
	00		 add	 edx, 65832		; 00010128H
  007ee	8b cc		 mov	 ecx, esp
  007f0	89 64 24 38	 mov	 DWORD PTR $T115848[esp+96], esp
  007f4	52		 push	 edx
  007f5	c6 44 24 60 12	 mov	 BYTE PTR __$EHRec$[esp+108], 18 ; 00000012H
  007fa	e8 00 00 00 00	 call	 ??0?$CStringT@DV?$StrTraitATL@DV?$ChTraitsCRT@D@ATL@@@ATL@@@ATL@@QAE@ABV01@@Z ; ATL::CStringT<char,ATL::StrTraitATL<char,ATL::ChTraitsCRT<char> > >::CStringT<char,ATL::StrTraitATL<char,ATL::ChTraitsCRT<char> > >
  007ff	8b 86 fc 00 01
	00		 mov	 eax, DWORD PTR [esi+65788]
  00805	8b 4c 24 20	 mov	 ecx, DWORD PTR _bGroup$[esp+96]
  00809	50		 push	 eax
  0080a	51		 push	 ecx
  0080b	8b ce		 mov	 ecx, esi
  0080d	c6 44 24 64 02	 mov	 BYTE PTR __$EHRec$[esp+112], 2
  00812	e8 00 00 00 00	 call	 ?SendCS_CHAT_ACK@CTPlayer@@QAEXEKV?$CStringT@DV?$StrTraitATL@DV?$ChTraitsCRT@D@ATL@@@ATL@@@ATL@@0@Z ; CTPlayer::SendCS_CHAT_ACK

; 349  : 
; 350  : 				return EC_NOERROR;

  00817	e9 7d fb ff ff	 jmp	 $L117194
$L107878:

; 351  : 			}
; 352  : 
; 353  : 			CTPlayer * pTarget = FindPlayer(strName);

  0081c	51		 push	 ecx
  0081d	8d 54 24 20	 lea	 edx, DWORD PTR _strName$[esp+92]
  00821	8b cc		 mov	 ecx, esp
  00823	89 64 24 38	 mov	 DWORD PTR $T115850[esp+92], esp
  00827	52		 push	 edx
  00828	e8 00 00 00 00	 call	 ??0?$CStringT@DV?$StrTraitATL@DV?$ChTraitsCRT@D@ATL@@@ATL@@@ATL@@QAE@ABV01@@Z ; ATL::CStringT<char,ATL::StrTraitATL<char,ATL::ChTraitsCRT<char> > >::CStringT<char,ATL::StrTraitATL<char,ATL::ChTraitsCRT<char> > >
  0082d	8b cd		 mov	 ecx, ebp
  0082f	e8 00 00 00 00	 call	 ?FindPlayer@CTRelaySvrModule@@QAEPAVCTPlayer@@V?$CStringT@DV?$StrTraitATL@DV?$ChTraitsCRT@D@ATL@@@ATL@@@ATL@@@Z ; CTRelaySvrModule::FindPlayer
  00834	8b f8		 mov	 edi, eax

; 354  : 			if( pTarget &&
; 355  : 				pPlayer->CanTalk(pTarget, bGroup) )

  00836	85 ff		 test	 edi, edi
  00838	0f 84 1b fb ff
	ff		 je	 $L108051
  0083e	8b 44 24 18	 mov	 eax, DWORD PTR _bGroup$[esp+88]
  00842	50		 push	 eax
  00843	57		 push	 edi
  00844	8b ce		 mov	 ecx, esi
  00846	e8 00 00 00 00	 call	 ?CanTalk@CTPlayer@@QAEEPAV1@E@Z ; CTPlayer::CanTalk
  0084b	84 c0		 test	 al, al
  0084d	0f 84 06 fb ff
	ff		 je	 $L108051

; 356  : 			{
; 357  : 				pTarget->SendCS_CHAT_ACK(
; 358  : 					bType,
; 359  : 					pPlayer->m_dwID,
; 360  : 					strSender,
; 361  : 					strTalk);

  00853	51		 push	 ecx
  00854	8d 54 24 14	 lea	 edx, DWORD PTR _strTalk$[esp+92]
  00858	8b cc		 mov	 ecx, esp
  0085a	89 64 24 38	 mov	 DWORD PTR $T115851[esp+92], esp
  0085e	52		 push	 edx
  0085f	e8 00 00 00 00	 call	 ??0?$CStringT@DV?$StrTraitATL@DV?$ChTraitsCRT@D@ATL@@@ATL@@@ATL@@QAE@ABV01@@Z ; ATL::CStringT<char,ATL::StrTraitATL<char,ATL::ChTraitsCRT<char> > >::CStringT<char,ATL::StrTraitATL<char,ATL::ChTraitsCRT<char> > >
  00864	51		 push	 ecx
  00865	8d 44 24 1c	 lea	 eax, DWORD PTR _strSender$[esp+96]
  00869	8b cc		 mov	 ecx, esp
  0086b	89 64 24 38	 mov	 DWORD PTR $T115852[esp+96], esp
  0086f	50		 push	 eax
  00870	c6 44 24 60 13	 mov	 BYTE PTR __$EHRec$[esp+108], 19 ; 00000013H
  00875	e8 00 00 00 00	 call	 ??0?$CStringT@DV?$StrTraitATL@DV?$ChTraitsCRT@D@ATL@@@ATL@@@ATL@@QAE@ABV01@@Z ; ATL::CStringT<char,ATL::StrTraitATL<char,ATL::ChTraitsCRT<char> > >::CStringT<char,ATL::StrTraitATL<char,ATL::ChTraitsCRT<char> > >
  0087a	8b 8e fc 00 01
	00		 mov	 ecx, DWORD PTR [esi+65788]
  00880	8b 54 24 30	 mov	 edx, DWORD PTR _bType$[esp+96]
  00884	51		 push	 ecx
  00885	52		 push	 edx
  00886	8b cf		 mov	 ecx, edi
  00888	c6 44 24 64 02	 mov	 BYTE PTR __$EHRec$[esp+112], 2
  0088d	e8 00 00 00 00	 call	 ?SendCS_CHAT_ACK@CTPlayer@@QAEXEKV?$CStringT@DV?$StrTraitATL@DV?$ChTraitsCRT@D@ATL@@@ATL@@@ATL@@0@Z ; CTPlayer::SendCS_CHAT_ACK

; 362  : #ifdef DEF_UDPLOG
; 363  :                     m_pUdpSocket->LogChat(LOGMAP_CHATWISPER, pPlayer, pTarget->m_strNAME, strTalk);

  00892	51		 push	 ecx
  00893	8d 44 24 14	 lea	 eax, DWORD PTR _strTalk$[esp+92]
  00897	8b cc		 mov	 ecx, esp
  00899	89 64 24 38	 mov	 DWORD PTR $T115853[esp+92], esp
  0089d	50		 push	 eax
  0089e	e8 00 00 00 00	 call	 ??0?$CStringT@DV?$StrTraitATL@DV?$ChTraitsCRT@D@ATL@@@ATL@@@ATL@@QAE@ABV01@@Z ; ATL::CStringT<char,ATL::StrTraitATL<char,ATL::ChTraitsCRT<char> > >::CStringT<char,ATL::StrTraitATL<char,ATL::ChTraitsCRT<char> > >
  008a3	51		 push	 ecx
  008a4	81 c7 28 01 01
	00		 add	 edi, 65832		; 00010128H
  008aa	8b cc		 mov	 ecx, esp
  008ac	89 64 24 38	 mov	 DWORD PTR $T115854[esp+96], esp
  008b0	57		 push	 edi
  008b1	c6 44 24 60 14	 mov	 BYTE PTR __$EHRec$[esp+108], 20 ; 00000014H
  008b6	e8 00 00 00 00	 call	 ??0?$CStringT@DV?$StrTraitATL@DV?$ChTraitsCRT@D@ATL@@@ATL@@@ATL@@QAE@ABV01@@Z ; ATL::CStringT<char,ATL::StrTraitATL<char,ATL::ChTraitsCRT<char> > >::CStringT<char,ATL::StrTraitATL<char,ATL::ChTraitsCRT<char> > >
  008bb	8b 8d 74 14 02
	00		 mov	 ecx, DWORD PTR [ebp+136308]
  008c1	56		 push	 esi
  008c2	68 20 11 00 00	 push	 4384			; 00001120H
  008c7	c6 44 24 64 02	 mov	 BYTE PTR __$EHRec$[esp+112], 2
  008cc	e8 00 00 00 00	 call	 ?LogChat@CUdpSocket@@QAEXKPAVCTPlayer@@V?$CStringT@DV?$StrTraitATL@DV?$ChTraitsCRT@D@ATL@@@ATL@@@ATL@@1@Z ; CUdpSocket::LogChat

; 364  : #endif
; 365  : 
; 366  : 				pPlayer->SendCS_CHAT_ACK(
; 367  : 					bGroup,
; 368  : 					pPlayer->m_dwID,
; 369  : 					strName,
; 370  : 					strTalk);

  008d1	51		 push	 ecx
  008d2	8d 54 24 14	 lea	 edx, DWORD PTR _strTalk$[esp+92]
  008d6	8b cc		 mov	 ecx, esp
  008d8	89 64 24 38	 mov	 DWORD PTR $T115855[esp+92], esp
  008dc	52		 push	 edx
  008dd	e8 00 00 00 00	 call	 ??0?$CStringT@DV?$StrTraitATL@DV?$ChTraitsCRT@D@ATL@@@ATL@@@ATL@@QAE@ABV01@@Z ; ATL::CStringT<char,ATL::StrTraitATL<char,ATL::ChTraitsCRT<char> > >::CStringT<char,ATL::StrTraitATL<char,ATL::ChTraitsCRT<char> > >
  008e2	51		 push	 ecx
  008e3	8d 44 24 24	 lea	 eax, DWORD PTR _strName$[esp+96]
  008e7	8b cc		 mov	 ecx, esp
  008e9	89 64 24 38	 mov	 DWORD PTR $T115856[esp+96], esp
  008ed	50		 push	 eax
  008ee	c6 44 24 60 15	 mov	 BYTE PTR __$EHRec$[esp+108], 21 ; 00000015H
  008f3	e8 00 00 00 00	 call	 ??0?$CStringT@DV?$StrTraitATL@DV?$ChTraitsCRT@D@ATL@@@ATL@@@ATL@@QAE@ABV01@@Z ; ATL::CStringT<char,ATL::StrTraitATL<char,ATL::ChTraitsCRT<char> > >::CStringT<char,ATL::StrTraitATL<char,ATL::ChTraitsCRT<char> > >
  008f8	8b 8e fc 00 01
	00		 mov	 ecx, DWORD PTR [esi+65788]
  008fe	8b 54 24 20	 mov	 edx, DWORD PTR _bGroup$[esp+96]
  00902	51		 push	 ecx
  00903	52		 push	 edx
  00904	8b ce		 mov	 ecx, esi
  00906	c6 44 24 64 02	 mov	 BYTE PTR __$EHRec$[esp+112], 2
  0090b	e8 00 00 00 00	 call	 ?SendCS_CHAT_ACK@CTPlayer@@QAEXEKV?$CStringT@DV?$StrTraitATL@DV?$ChTraitsCRT@D@ATL@@@ATL@@@ATL@@0@Z ; CTPlayer::SendCS_CHAT_ACK

; 371  : 
; 372  : 				return EC_NOERROR;

  00910	e9 84 fa ff ff	 jmp	 $L117194
$L107896:

; 373  : 			}
; 374  : 		}
; 375  : 		break;
; 376  : 
; 377  : 	case CHAT_PARTY:
; 378  : 		{
; 379  : 			WORD wTarget = pPlayer->GetPartyID();			

  00915	8b ce		 mov	 ecx, esi
  00917	e8 00 00 00 00	 call	 ?GetPartyID@CTPlayer@@QAEGXZ ; CTPlayer::GetPartyID

; 380  : 			CTParty* pPARTY = FindParty(wTarget);

  0091c	8b cd		 mov	 ecx, ebp
  0091e	50		 push	 eax
  0091f	e8 00 00 00 00	 call	 ?FindParty@CTRelaySvrModule@@QAEPAVCTParty@@G@Z ; CTRelaySvrModule::FindParty
  00924	8b e8		 mov	 ebp, eax

; 381  : 			if(!pPARTY)

  00926	85 ed		 test	 ebp, ebp
  00928	0f 84 27 fa ff
	ff		 je	 $L117187

; 382  : 				break;
; 383  : 
; 384  : 			MAPMEMBER::iterator itM;
; 385  : 			for(itM = pPARTY->m_mapMember.begin(); itM != pPARTY->m_mapMember.end(); itM++)

  0092e	8b 4d 24	 mov	 ecx, DWORD PTR [ebp+36]
  00931	8b 01		 mov	 eax, DWORD PTR [ecx]
  00933	3b c1		 cmp	 eax, ecx
  00935	89 44 24 28	 mov	 DWORD PTR _itM$107900[esp+88], eax
  00939	0f 84 16 fa ff
	ff		 je	 $L117187
  0093f	b3 16		 mov	 bl, 22			; 00000016H
$L116753:

; 386  : 			{
; 387  : 				CTPlayer* pTarget = (*itM).second;

  00941	8b 78 10	 mov	 edi, DWORD PTR [eax+16]

; 388  : 				if( pTarget)

  00944	85 ff		 test	 edi, edi
  00946	74 3e		 je	 SHORT $L107905

; 389  : 					pTarget->SendCS_CHAT_ACK(bGroup, pPlayer->m_dwID, strSender, strTalk);

  00948	51		 push	 ecx
  00949	8d 44 24 14	 lea	 eax, DWORD PTR _strTalk$[esp+92]
  0094d	8b cc		 mov	 ecx, esp
  0094f	89 64 24 38	 mov	 DWORD PTR $T115861[esp+92], esp
  00953	50		 push	 eax
  00954	e8 00 00 00 00	 call	 ??0?$CStringT@DV?$StrTraitATL@DV?$ChTraitsCRT@D@ATL@@@ATL@@@ATL@@QAE@ABV01@@Z ; ATL::CStringT<char,ATL::StrTraitATL<char,ATL::ChTraitsCRT<char> > >::CStringT<char,ATL::StrTraitATL<char,ATL::ChTraitsCRT<char> > >
  00959	51		 push	 ecx
  0095a	8d 54 24 1c	 lea	 edx, DWORD PTR _strSender$[esp+96]
  0095e	8b cc		 mov	 ecx, esp
  00960	89 64 24 38	 mov	 DWORD PTR $T115862[esp+96], esp
  00964	52		 push	 edx
  00965	88 5c 24 60	 mov	 BYTE PTR __$EHRec$[esp+108], bl
  00969	e8 00 00 00 00	 call	 ??0?$CStringT@DV?$StrTraitATL@DV?$ChTraitsCRT@D@ATL@@@ATL@@@ATL@@QAE@ABV01@@Z ; ATL::CStringT<char,ATL::StrTraitATL<char,ATL::ChTraitsCRT<char> > >::CStringT<char,ATL::StrTraitATL<char,ATL::ChTraitsCRT<char> > >
  0096e	8b 86 fc 00 01
	00		 mov	 eax, DWORD PTR [esi+65788]
  00974	8b 4c 24 20	 mov	 ecx, DWORD PTR _bGroup$[esp+96]
  00978	50		 push	 eax
  00979	51		 push	 ecx
  0097a	8b cf		 mov	 ecx, edi
  0097c	c6 44 24 64 02	 mov	 BYTE PTR __$EHRec$[esp+112], 2
  00981	e8 00 00 00 00	 call	 ?SendCS_CHAT_ACK@CTPlayer@@QAEXEKV?$CStringT@DV?$StrTraitATL@DV?$ChTraitsCRT@D@ATL@@@ATL@@@ATL@@0@Z ; CTPlayer::SendCS_CHAT_ACK
$L107905:
  00986	8d 4c 24 28	 lea	 ecx, DWORD PTR _itM$107900[esp+88]
  0098a	e8 00 00 00 00	 call	 ?_Inc@const_iterator@?$_Tree@V?$_Tmap_traits@KPAVCTPlayer@@U?$less@K@std@@V?$allocator@U?$pair@$$CBKPAVCTPlayer@@@std@@@3@$0A@@std@@@std@@QAEXXZ ; std::_Tree<std::_Tmap_traits<unsigned long,CTPlayer *,std::less<unsigned long>,std::allocator<std::pair<unsigned long const ,CTPlayer *> >,0> >::const_iterator::_Inc
  0098f	8b 4d 24	 mov	 ecx, DWORD PTR [ebp+36]
  00992	8b 44 24 28	 mov	 eax, DWORD PTR _itM$107900[esp+88]
  00996	3b c1		 cmp	 eax, ecx
  00998	75 a7		 jne	 SHORT $L116753

; 390  : 			}
; 391  : 		}
; 392  : 		break;

  0099a	e9 b6 f9 ff ff	 jmp	 $L117187
$L107911:

; 393  : 
; 394  : 	case CHAT_GUILD:
; 395  : 		{
; 396  : 			dwTarget = pPlayer->m_dwGuildID;

  0099f	8b 86 04 01 01
	00		 mov	 eax, DWORD PTR [esi+65796]

; 397  : 			
; 398  : 			CTGuild* pGUILD = FindGuild(dwTarget);

  009a5	50		 push	 eax
  009a6	8b cd		 mov	 ecx, ebp
  009a8	89 44 24 28	 mov	 DWORD PTR _dwTarget$[esp+92], eax
  009ac	e8 00 00 00 00	 call	 ?FindGuild@CTRelaySvrModule@@QAEPAVCTGuild@@K@Z ; CTRelaySvrModule::FindGuild
  009b1	8b e8		 mov	 ebp, eax

; 399  : 			if(!pGUILD)

  009b3	85 ed		 test	 ebp, ebp
  009b5	0f 84 9a f9 ff
	ff		 je	 $L117187

; 400  : 				break;
; 401  : 
; 402  : 			MAPMEMBER::iterator itM;
; 403  : 			for(itM = pGUILD->m_mapMember.begin(); itM != pGUILD->m_mapMember.end(); itM++)

  009bb	8b 4d 0c	 mov	 ecx, DWORD PTR [ebp+12]
  009be	8b 01		 mov	 eax, DWORD PTR [ecx]
  009c0	3b c1		 cmp	 eax, ecx
  009c2	89 44 24 28	 mov	 DWORD PTR _itM$107914[esp+88], eax
  009c6	0f 84 89 f9 ff
	ff		 je	 $L117187
  009cc	b3 17		 mov	 bl, 23			; 00000017H
  009ce	8b ff		 npad	 2
$L116845:

; 404  : 			{
; 405  : 				CTPlayer* pTarget = (*itM).second;

  009d0	8b 78 10	 mov	 edi, DWORD PTR [eax+16]

; 406  : 				if( pTarget )

  009d3	85 ff		 test	 edi, edi
  009d5	74 3e		 je	 SHORT $L107919

; 407  : 					pTarget->SendCS_CHAT_ACK(bGroup,pPlayer->m_dwID, strSender, strTalk);

  009d7	51		 push	 ecx
  009d8	8d 54 24 14	 lea	 edx, DWORD PTR _strTalk$[esp+92]
  009dc	8b cc		 mov	 ecx, esp
  009de	89 64 24 38	 mov	 DWORD PTR $T115866[esp+92], esp
  009e2	52		 push	 edx
  009e3	e8 00 00 00 00	 call	 ??0?$CStringT@DV?$StrTraitATL@DV?$ChTraitsCRT@D@ATL@@@ATL@@@ATL@@QAE@ABV01@@Z ; ATL::CStringT<char,ATL::StrTraitATL<char,ATL::ChTraitsCRT<char> > >::CStringT<char,ATL::StrTraitATL<char,ATL::ChTraitsCRT<char> > >
  009e8	51		 push	 ecx
  009e9	8d 44 24 1c	 lea	 eax, DWORD PTR _strSender$[esp+96]
  009ed	8b cc		 mov	 ecx, esp
  009ef	89 64 24 38	 mov	 DWORD PTR $T115867[esp+96], esp
  009f3	50		 push	 eax
  009f4	88 5c 24 60	 mov	 BYTE PTR __$EHRec$[esp+108], bl
  009f8	e8 00 00 00 00	 call	 ??0?$CStringT@DV?$StrTraitATL@DV?$ChTraitsCRT@D@ATL@@@ATL@@@ATL@@QAE@ABV01@@Z ; ATL::CStringT<char,ATL::StrTraitATL<char,ATL::ChTraitsCRT<char> > >::CStringT<char,ATL::StrTraitATL<char,ATL::ChTraitsCRT<char> > >
  009fd	8b 8e fc 00 01
	00		 mov	 ecx, DWORD PTR [esi+65788]
  00a03	8b 54 24 20	 mov	 edx, DWORD PTR _bGroup$[esp+96]
  00a07	51		 push	 ecx
  00a08	52		 push	 edx
  00a09	8b cf		 mov	 ecx, edi
  00a0b	c6 44 24 64 02	 mov	 BYTE PTR __$EHRec$[esp+112], 2
  00a10	e8 00 00 00 00	 call	 ?SendCS_CHAT_ACK@CTPlayer@@QAEXEKV?$CStringT@DV?$StrTraitATL@DV?$ChTraitsCRT@D@ATL@@@ATL@@@ATL@@0@Z ; CTPlayer::SendCS_CHAT_ACK
$L107919:
  00a15	8d 4c 24 28	 lea	 ecx, DWORD PTR _itM$107914[esp+88]
  00a19	e8 00 00 00 00	 call	 ?_Inc@const_iterator@?$_Tree@V?$_Tmap_traits@KPAVCTPlayer@@U?$less@K@std@@V?$allocator@U?$pair@$$CBKPAVCTPlayer@@@std@@@3@$0A@@std@@@std@@QAEXXZ ; std::_Tree<std::_Tmap_traits<unsigned long,CTPlayer *,std::less<unsigned long>,std::allocator<std::pair<unsigned long const ,CTPlayer *> >,0> >::const_iterator::_Inc
  00a1e	8b 4d 0c	 mov	 ecx, DWORD PTR [ebp+12]
  00a21	8b 44 24 28	 mov	 eax, DWORD PTR _itM$107914[esp+88]
  00a25	3b c1		 cmp	 eax, ecx
  00a27	75 a7		 jne	 SHORT $L116845

; 408  : 			}
; 409  : 		}
; 410  : 		break;

  00a29	e9 27 f9 ff ff	 jmp	 $L117187
$L107925:

; 411  : 
; 412  : 	case CHAT_FORCE:
; 413  : 		{			
; 414  : 			CTCorps* pCORPS = FindCorps(pPlayer);

  00a2e	56		 push	 esi
  00a2f	8b cd		 mov	 ecx, ebp
  00a31	e8 00 00 00 00	 call	 ?FindCorps@CTRelaySvrModule@@QAEPAVCTCorps@@PAVCTPlayer@@@Z ; CTRelaySvrModule::FindCorps
  00a36	8b d8		 mov	 ebx, eax

; 415  : 			if(!pCORPS)						

  00a38	85 db		 test	 ebx, ebx

; 416  :                 return EC_NOERROR;

  00a3a	0f 84 59 f9 ff
	ff		 je	 $L117194

; 417  : 			
; 418  : 			
; 419  : 			MAPTPARTY::iterator itR;			
; 420  : 			for( itR = pCORPS->m_mapTParty.begin(); itR != pCORPS->m_mapTParty.end(); itR++)

  00a40	8b 4b 0c	 mov	 ecx, DWORD PTR [ebx+12]
  00a43	8b 01		 mov	 eax, DWORD PTR [ecx]
  00a45	3b c1		 cmp	 eax, ecx
  00a47	89 44 24 30	 mov	 DWORD PTR _itR$108006[esp+88], eax
  00a4b	0f 84 08 f9 ff
	ff		 je	 $L108051
$L116932:

; 421  : 			{
; 422  : 				CTParty* pPARTY = (*itR).second;

  00a51	8b 68 10	 mov	 ebp, DWORD PTR [eax+16]

; 423  : 				if( !pPARTY )

  00a54	85 ed		 test	 ebp, ebp
  00a56	74 67		 je	 SHORT $L108011

; 424  : 					continue;
; 425  : 				
; 426  : 				MAPMEMBER::iterator itM;
; 427  : 				for( itM = pPARTY->m_mapMember.begin(); itM != pPARTY->m_mapMember.end(); itM++)

  00a58	8b 4d 24	 mov	 ecx, DWORD PTR [ebp+36]
  00a5b	8b 01		 mov	 eax, DWORD PTR [ecx]
  00a5d	3b c1		 cmp	 eax, ecx
  00a5f	89 44 24 28	 mov	 DWORD PTR _itM$108033[esp+88], eax
  00a63	74 5a		 je	 SHORT $L108011
$L117024:

; 428  : 				{
; 429  : 					CTPlayer* pTarget = (*itM).second;

  00a65	8b 78 10	 mov	 edi, DWORD PTR [eax+16]

; 430  : 					if(pTarget)

  00a68	85 ff		 test	 edi, edi
  00a6a	74 3f		 je	 SHORT $L108038

; 431  : 						pTarget->SendCS_CHAT_ACK(bGroup,pPlayer->m_dwID, strSender, strTalk);

  00a6c	51		 push	 ecx
  00a6d	8d 44 24 14	 lea	 eax, DWORD PTR _strTalk$[esp+92]
  00a71	8b cc		 mov	 ecx, esp
  00a73	89 64 24 38	 mov	 DWORD PTR $T115875[esp+92], esp
  00a77	50		 push	 eax
  00a78	e8 00 00 00 00	 call	 ??0?$CStringT@DV?$StrTraitATL@DV?$ChTraitsCRT@D@ATL@@@ATL@@@ATL@@QAE@ABV01@@Z ; ATL::CStringT<char,ATL::StrTraitATL<char,ATL::ChTraitsCRT<char> > >::CStringT<char,ATL::StrTraitATL<char,ATL::ChTraitsCRT<char> > >
  00a7d	51		 push	 ecx
  00a7e	8d 54 24 1c	 lea	 edx, DWORD PTR _strSender$[esp+96]
  00a82	8b cc		 mov	 ecx, esp
  00a84	89 64 24 4c	 mov	 DWORD PTR $T115876[esp+96], esp
  00a88	52		 push	 edx
  00a89	c6 44 24 60 18	 mov	 BYTE PTR __$EHRec$[esp+108], 24 ; 00000018H
  00a8e	e8 00 00 00 00	 call	 ??0?$CStringT@DV?$StrTraitATL@DV?$ChTraitsCRT@D@ATL@@@ATL@@@ATL@@QAE@ABV01@@Z ; ATL::CStringT<char,ATL::StrTraitATL<char,ATL::ChTraitsCRT<char> > >::CStringT<char,ATL::StrTraitATL<char,ATL::ChTraitsCRT<char> > >
  00a93	8b 86 fc 00 01
	00		 mov	 eax, DWORD PTR [esi+65788]
  00a99	8b 4c 24 20	 mov	 ecx, DWORD PTR _bGroup$[esp+96]
  00a9d	50		 push	 eax
  00a9e	51		 push	 ecx
  00a9f	8b cf		 mov	 ecx, edi
  00aa1	c6 44 24 64 02	 mov	 BYTE PTR __$EHRec$[esp+112], 2
  00aa6	e8 00 00 00 00	 call	 ?SendCS_CHAT_ACK@CTPlayer@@QAEXEKV?$CStringT@DV?$StrTraitATL@DV?$ChTraitsCRT@D@ATL@@@ATL@@@ATL@@0@Z ; CTPlayer::SendCS_CHAT_ACK
$L108038:
  00aab	8d 4c 24 28	 lea	 ecx, DWORD PTR _itM$108033[esp+88]
  00aaf	e8 00 00 00 00	 call	 ?_Inc@const_iterator@?$_Tree@V?$_Tmap_traits@KPAVCTPlayer@@U?$less@K@std@@V?$allocator@U?$pair@$$CBKPAVCTPlayer@@@std@@@3@$0A@@std@@@std@@QAEXXZ ; std::_Tree<std::_Tmap_traits<unsigned long,CTPlayer *,std::less<unsigned long>,std::allocator<std::pair<unsigned long const ,CTPlayer *> >,0> >::const_iterator::_Inc
  00ab4	8b 4d 24	 mov	 ecx, DWORD PTR [ebp+36]
  00ab7	8b 44 24 28	 mov	 eax, DWORD PTR _itM$108033[esp+88]
  00abb	3b c1		 cmp	 eax, ecx
  00abd	75 a6		 jne	 SHORT $L117024
$L108011:

; 417  : 			
; 418  : 			
; 419  : 			MAPTPARTY::iterator itR;			
; 420  : 			for( itR = pCORPS->m_mapTParty.begin(); itR != pCORPS->m_mapTParty.end(); itR++)

  00abf	8d 4c 24 30	 lea	 ecx, DWORD PTR _itR$108006[esp+88]
  00ac3	e8 00 00 00 00	 call	 ?_Inc@const_iterator@?$_Tree@V?$_Tmap_traits@GPAVCTParty@@U?$less@G@std@@V?$allocator@U?$pair@$$CBGPAVCTParty@@@std@@@3@$0A@@std@@@std@@QAEXXZ ; std::_Tree<std::_Tmap_traits<unsigned short,CTParty *,std::less<unsigned short>,std::allocator<std::pair<unsigned short const ,CTParty *> >,0> >::const_iterator::_Inc
  00ac8	8b 4b 0c	 mov	 ecx, DWORD PTR [ebx+12]
  00acb	8b 44 24 30	 mov	 eax, DWORD PTR _itR$108006[esp+88]
  00acf	3b c1		 cmp	 eax, ecx
  00ad1	0f 85 7a ff ff
	ff		 jne	 $L116932

; 432  : 				}
; 433  : 			}
; 434  : 		}
; 435  : 		break;

  00ad7	e9 79 f8 ff ff	 jmp	 $L117187
$L108044:

; 436  : 
; 437  : 	case CHAT_SHOW:
; 438  : 	case CHAT_MAP:
; 439  : 	case CHAT_WORLD:
; 440  : 		{
; 441  : 			MAPPLAYER::iterator itP;
; 442  : 			for(itP = m_mapPLAYER.begin(); itP != m_mapPLAYER.end(); itP++)

  00adc	8b 8d 78 01 00
	00		 mov	 ecx, DWORD PTR [ebp+376]
  00ae2	8b 01		 mov	 eax, DWORD PTR [ecx]
  00ae4	3b c1		 cmp	 eax, ecx
  00ae6	89 44 24 30	 mov	 DWORD PTR _itP$108045[esp+88], eax
  00aea	0f 84 69 f8 ff
	ff		 je	 $L108051
  00af0	8b 5c 24 28	 mov	 ebx, DWORD PTR _bType$[esp+88]
$L117116:

; 443  : 			{
; 444  : 				CTPlayer* pTarget = (*itP).second;

  00af4	8b 78 10	 mov	 edi, DWORD PTR [eax+16]

; 445  : 				if(pTarget && pTarget->m_bAuthorized && pPlayer->CanTalk(pTarget, bGroup))

  00af7	85 ff		 test	 edi, edi
  00af9	74 56		 je	 SHORT $L108050
  00afb	8a 87 26 01 01
	00		 mov	 al, BYTE PTR [edi+65830]
  00b01	84 c0		 test	 al, al
  00b03	74 4c		 je	 SHORT $L108050
  00b05	8b 54 24 18	 mov	 edx, DWORD PTR _bGroup$[esp+88]
  00b09	52		 push	 edx
  00b0a	57		 push	 edi
  00b0b	8b ce		 mov	 ecx, esi
  00b0d	e8 00 00 00 00	 call	 ?CanTalk@CTPlayer@@QAEEPAV1@E@Z ; CTPlayer::CanTalk
  00b12	84 c0		 test	 al, al
  00b14	74 3b		 je	 SHORT $L108050

; 446  : 					pTarget->SendCS_CHAT_ACK(bType, pPlayer->m_dwID, strSender, strTalk);

  00b16	51		 push	 ecx
  00b17	8d 44 24 14	 lea	 eax, DWORD PTR _strTalk$[esp+92]
  00b1b	8b cc		 mov	 ecx, esp
  00b1d	89 64 24 48	 mov	 DWORD PTR $T115880[esp+92], esp
  00b21	50		 push	 eax
  00b22	e8 00 00 00 00	 call	 ??0?$CStringT@DV?$StrTraitATL@DV?$ChTraitsCRT@D@ATL@@@ATL@@@ATL@@QAE@ABV01@@Z ; ATL::CStringT<char,ATL::StrTraitATL<char,ATL::ChTraitsCRT<char> > >::CStringT<char,ATL::StrTraitATL<char,ATL::ChTraitsCRT<char> > >
  00b27	51		 push	 ecx
  00b28	8d 54 24 1c	 lea	 edx, DWORD PTR _strSender$[esp+96]
  00b2c	8b cc		 mov	 ecx, esp
  00b2e	89 64 24 3c	 mov	 DWORD PTR $T115881[esp+96], esp
  00b32	52		 push	 edx
  00b33	c6 44 24 60 19	 mov	 BYTE PTR __$EHRec$[esp+108], 25 ; 00000019H
  00b38	e8 00 00 00 00	 call	 ??0?$CStringT@DV?$StrTraitATL@DV?$ChTraitsCRT@D@ATL@@@ATL@@@ATL@@QAE@ABV01@@Z ; ATL::CStringT<char,ATL::StrTraitATL<char,ATL::ChTraitsCRT<char> > >::CStringT<char,ATL::StrTraitATL<char,ATL::ChTraitsCRT<char> > >
  00b3d	8b 86 fc 00 01
	00		 mov	 eax, DWORD PTR [esi+65788]
  00b43	50		 push	 eax
  00b44	53		 push	 ebx
  00b45	8b cf		 mov	 ecx, edi
  00b47	c6 44 24 64 02	 mov	 BYTE PTR __$EHRec$[esp+112], 2
  00b4c	e8 00 00 00 00	 call	 ?SendCS_CHAT_ACK@CTPlayer@@QAEXEKV?$CStringT@DV?$StrTraitATL@DV?$ChTraitsCRT@D@ATL@@@ATL@@@ATL@@0@Z ; CTPlayer::SendCS_CHAT_ACK
$L108050:
  00b51	8d 4c 24 30	 lea	 ecx, DWORD PTR _itP$108045[esp+88]
  00b55	e8 00 00 00 00	 call	 ?_Inc@const_iterator@?$_Tree@V?$_Tmap_traits@KPAVCTPlayer@@U?$less@K@std@@V?$allocator@U?$pair@$$CBKPAVCTPlayer@@@std@@@3@$0A@@std@@@std@@QAEXXZ ; std::_Tree<std::_Tmap_traits<unsigned long,CTPlayer *,std::less<unsigned long>,std::allocator<std::pair<unsigned long const ,CTPlayer *> >,0> >::const_iterator::_Inc
  00b5a	8b 8d 78 01 00
	00		 mov	 ecx, DWORD PTR [ebp+376]
  00b60	8b 44 24 30	 mov	 eax, DWORD PTR _itP$108045[esp+88]
  00b64	3b c1		 cmp	 eax, ecx
  00b66	75 8c		 jne	 SHORT $L117116

; 436  : 
; 437  : 	case CHAT_SHOW:
; 438  : 	case CHAT_MAP:
; 439  : 	case CHAT_WORLD:
; 440  : 		{
; 441  : 			MAPPLAYER::iterator itP;
; 442  : 			for(itP = m_mapPLAYER.begin(); itP != m_mapPLAYER.end(); itP++)

  00b68	e9 ec f7 ff ff	 jmp	 $L108051
$L107684:

; 216  : 		return EC_NOERROR;

  00b6d	8b 44 24 14	 mov	 eax, DWORD PTR _strSender$[esp+88]
  00b71	83 c0 f0	 add	 eax, -16		; fffffff0H
  00b74	88 5c 24 54	 mov	 BYTE PTR __$EHRec$[esp+96], bl
  00b78	8d 48 0c	 lea	 ecx, DWORD PTR [eax+12]
  00b7b	83 ca ff	 or	 edx, -1
  00b7e	f0 0f c1 11	 lock	  xadd	 DWORD PTR [ecx], edx
  00b82	4a		 dec	 edx
  00b83	85 d2		 test	 edx, edx
  00b85	7f 08		 jg	 SHORT $L116067
  00b87	8b 08		 mov	 ecx, DWORD PTR [eax]
  00b89	8b 11		 mov	 edx, DWORD PTR [ecx]
  00b8b	50		 push	 eax
  00b8c	ff 52 04	 call	 DWORD PTR [edx+4]
$L116067:
  00b8f	8b 44 24 10	 mov	 eax, DWORD PTR _strTalk$[esp+88]
  00b93	83 c0 f0	 add	 eax, -16		; fffffff0H
  00b96	c6 44 24 54 00	 mov	 BYTE PTR __$EHRec$[esp+96], 0
  00b9b	8d 48 0c	 lea	 ecx, DWORD PTR [eax+12]
  00b9e	83 ca ff	 or	 edx, -1
  00ba1	f0 0f c1 11	 lock	  xadd	 DWORD PTR [ecx], edx
  00ba5	4a		 dec	 edx
  00ba6	85 d2		 test	 edx, edx
  00ba8	7f 08		 jg	 SHORT $L116094
  00baa	8b 08		 mov	 ecx, DWORD PTR [eax]
  00bac	8b 11		 mov	 edx, DWORD PTR [ecx]
  00bae	50		 push	 eax
  00baf	ff 52 04	 call	 DWORD PTR [edx+4]
$L116094:
  00bb2	8b 44 24 1c	 mov	 eax, DWORD PTR _strName$[esp+88]
  00bb6	83 c0 f0	 add	 eax, -16		; fffffff0H
  00bb9	c7 44 24 54 ff
	ff ff ff	 mov	 DWORD PTR __$EHRec$[esp+96], -1
  00bc1	8d 48 0c	 lea	 ecx, DWORD PTR [eax+12]
  00bc4	83 ca ff	 or	 edx, -1
  00bc7	f0 0f c1 11	 lock	  xadd	 DWORD PTR [ecx], edx
  00bcb	4a		 dec	 edx
  00bcc	85 d2		 test	 edx, edx
  00bce	7f 08		 jg	 SHORT $L107674
  00bd0	8b 08		 mov	 ecx, DWORD PTR [eax]
  00bd2	8b 11		 mov	 edx, DWORD PTR [ecx]
  00bd4	50		 push	 eax
  00bd5	ff 52 04	 call	 DWORD PTR [edx+4]
$L107674:

; 460  : }

  00bd8	8b 4c 24 4c	 mov	 ecx, DWORD PTR __$EHRec$[esp+88]
  00bdc	5f		 pop	 edi
  00bdd	5e		 pop	 esi
  00bde	5d		 pop	 ebp
  00bdf	33 c0		 xor	 eax, eax
  00be1	64 89 0d 00 00
	00 00		 mov	 DWORD PTR fs:__except_list, ecx
  00be8	5b		 pop	 ebx
  00be9	83 c4 48	 add	 esp, 72			; 00000048H
  00bec	c2 04 00	 ret	 4
  00bef	90		 npad	 1
$L117195:
  00bf0	00 00 00 00	 DD	 $L107853
  00bf4	00 00 00 00	 DD	 $L107728
  00bf8	00 00 00 00	 DD	 $L108044
  00bfc	00 00 00 00	 DD	 $L108044
  00c00	00 00 00 00	 DD	 $L107896
  00c04	00 00 00 00	 DD	 $L107911
  00c08	00 00 00 00	 DD	 $L107925
  00c0c	00 00 00 00	 DD	 $L108051
  00c10	00 00 00 00	 DD	 $L107707
  00c14	00 00 00 00	 DD	 $L108044
_TEXT	ENDS
;	COMDAT text$x
text$x	SEGMENT
$L115885:
  00000	8d 4d c4	 lea	 ecx, DWORD PTR _strName$[ebp]
  00003	e9 00 00 00 00	 jmp	 ??1?$CStringT@DV?$StrTraitATL@DV?$ChTraitsCRT@D@ATL@@@ATL@@@ATL@@QAE@XZ ; ATL::CStringT<char,ATL::StrTraitATL<char,ATL::ChTraitsCRT<char> > >::~CStringT<char,ATL::StrTraitATL<char,ATL::ChTraitsCRT<char> > >
$L115886:
  00008	8d 4d b8	 lea	 ecx, DWORD PTR _strTalk$[ebp]
  0000b	e9 00 00 00 00	 jmp	 ??1?$CStringT@DV?$StrTraitATL@DV?$ChTraitsCRT@D@ATL@@@ATL@@@ATL@@QAE@XZ ; ATL::CStringT<char,ATL::StrTraitATL<char,ATL::ChTraitsCRT<char> > >::~CStringT<char,ATL::StrTraitATL<char,ATL::ChTraitsCRT<char> > >
$L115887:
  00010	8d 4d bc	 lea	 ecx, DWORD PTR _strSender$[ebp]
  00013	e9 00 00 00 00	 jmp	 ??1?$CStringT@DV?$StrTraitATL@DV?$ChTraitsCRT@D@ATL@@@ATL@@@ATL@@QAE@XZ ; ATL::CStringT<char,ATL::StrTraitATL<char,ATL::ChTraitsCRT<char> > >::~CStringT<char,ATL::StrTraitATL<char,ATL::ChTraitsCRT<char> > >
$L115891:
  00018	8b 4d e8	 mov	 ecx, DWORD PTR $T115803[ebp]
  0001b	e9 00 00 00 00	 jmp	 ??1?$CStringT@DV?$StrTraitATL@DV?$ChTraitsCRT@D@ATL@@@ATL@@@ATL@@QAE@XZ ; ATL::CStringT<char,ATL::StrTraitATL<char,ATL::ChTraitsCRT<char> > >::~CStringT<char,ATL::StrTraitATL<char,ATL::ChTraitsCRT<char> > >
$L115892:
  00020	8b 4d e4	 mov	 ecx, DWORD PTR $T115804[ebp]
  00023	e9 00 00 00 00	 jmp	 ??1?$CStringT@DV?$StrTraitATL@DV?$ChTraitsCRT@D@ATL@@@ATL@@@ATL@@QAE@XZ ; ATL::CStringT<char,ATL::StrTraitATL<char,ATL::ChTraitsCRT<char> > >::~CStringT<char,ATL::StrTraitATL<char,ATL::ChTraitsCRT<char> > >
$L115894:
  00028	8b 4d dc	 mov	 ecx, DWORD PTR $T115813[ebp]
  0002b	e9 00 00 00 00	 jmp	 ??1?$CStringT@DV?$StrTraitATL@DV?$ChTraitsCRT@D@ATL@@@ATL@@@ATL@@QAE@XZ ; ATL::CStringT<char,ATL::StrTraitATL<char,ATL::ChTraitsCRT<char> > >::~CStringT<char,ATL::StrTraitATL<char,ATL::ChTraitsCRT<char> > >
$L115896:
  00030	8b 4d dc	 mov	 ecx, DWORD PTR $T115818[ebp]
  00033	e9 00 00 00 00	 jmp	 ??1?$CStringT@DV?$StrTraitATL@DV?$ChTraitsCRT@D@ATL@@@ATL@@@ATL@@QAE@XZ ; ATL::CStringT<char,ATL::StrTraitATL<char,ATL::ChTraitsCRT<char> > >::~CStringT<char,ATL::StrTraitATL<char,ATL::ChTraitsCRT<char> > >
$L115935:
  00038	8b 4d ec	 mov	 ecx, DWORD PTR $T115882[ebp]
  0003b	e9 00 00 00 00	 jmp	 ??1?$CStringT@DV?$StrTraitATL@DV?$ChTraitsCRT@D@ATL@@@ATL@@@ATL@@QAE@XZ ; ATL::CStringT<char,ATL::StrTraitATL<char,ATL::ChTraitsCRT<char> > >::~CStringT<char,ATL::StrTraitATL<char,ATL::ChTraitsCRT<char> > >
$L115898:
  00040	8b 4d dc	 mov	 ecx, DWORD PTR $T115824[ebp]
  00043	e9 00 00 00 00	 jmp	 ??1?$CStringT@DV?$StrTraitATL@DV?$ChTraitsCRT@D@ATL@@@ATL@@@ATL@@QAE@XZ ; ATL::CStringT<char,ATL::StrTraitATL<char,ATL::ChTraitsCRT<char> > >::~CStringT<char,ATL::StrTraitATL<char,ATL::ChTraitsCRT<char> > >
$L115900:
  00048	8b 4d dc	 mov	 ecx, DWORD PTR $T115826[ebp]
  0004b	e9 00 00 00 00	 jmp	 ??1?$CStringT@DV?$StrTraitATL@DV?$ChTraitsCRT@D@ATL@@@ATL@@@ATL@@QAE@XZ ; ATL::CStringT<char,ATL::StrTraitATL<char,ATL::ChTraitsCRT<char> > >::~CStringT<char,ATL::StrTraitATL<char,ATL::ChTraitsCRT<char> > >
$L115902:
  00050	8b 4d dc	 mov	 ecx, DWORD PTR $T115828[ebp]
  00053	e9 00 00 00 00	 jmp	 ??1?$CStringT@DV?$StrTraitATL@DV?$ChTraitsCRT@D@ATL@@@ATL@@@ATL@@QAE@XZ ; ATL::CStringT<char,ATL::StrTraitATL<char,ATL::ChTraitsCRT<char> > >::~CStringT<char,ATL::StrTraitATL<char,ATL::ChTraitsCRT<char> > >
$L115905:
  00058	8b 4d dc	 mov	 ecx, DWORD PTR $T115832[ebp]
  0005b	e9 00 00 00 00	 jmp	 ??1?$CStringT@DV?$StrTraitATL@DV?$ChTraitsCRT@D@ATL@@@ATL@@@ATL@@QAE@XZ ; ATL::CStringT<char,ATL::StrTraitATL<char,ATL::ChTraitsCRT<char> > >::~CStringT<char,ATL::StrTraitATL<char,ATL::ChTraitsCRT<char> > >
$L115907:
  00060	8d 4d d4	 lea	 ecx, DWORD PTR $T115835[ebp]
  00063	e9 00 00 00 00	 jmp	 ??1?$CStringT@DV?$StrTraitATL@DV?$ChTraitsCRT@D@ATL@@@ATL@@@ATL@@QAE@XZ ; ATL::CStringT<char,ATL::StrTraitATL<char,ATL::ChTraitsCRT<char> > >::~CStringT<char,ATL::StrTraitATL<char,ATL::ChTraitsCRT<char> > >
$L115908:
  00068	8d 4d e8	 lea	 ecx, DWORD PTR $T115834[ebp]
  0006b	e9 00 00 00 00	 jmp	 ??1?$CStringT@DV?$StrTraitATL@DV?$ChTraitsCRT@D@ATL@@@ATL@@@ATL@@QAE@XZ ; ATL::CStringT<char,ATL::StrTraitATL<char,ATL::ChTraitsCRT<char> > >::~CStringT<char,ATL::StrTraitATL<char,ATL::ChTraitsCRT<char> > >
$L115909:
  00070	8d 4d e4	 lea	 ecx, DWORD PTR $T115836[ebp]
  00073	e9 00 00 00 00	 jmp	 ??1?$CStringT@DV?$StrTraitATL@DV?$ChTraitsCRT@D@ATL@@@ATL@@@ATL@@QAE@XZ ; ATL::CStringT<char,ATL::StrTraitATL<char,ATL::ChTraitsCRT<char> > >::~CStringT<char,ATL::StrTraitATL<char,ATL::ChTraitsCRT<char> > >
$L115910:
  00078	8b 4d dc	 mov	 ecx, DWORD PTR $T115837[ebp]
  0007b	e9 00 00 00 00	 jmp	 ??1?$CStringT@DV?$StrTraitATL@DV?$ChTraitsCRT@D@ATL@@@ATL@@@ATL@@QAE@XZ ; ATL::CStringT<char,ATL::StrTraitATL<char,ATL::ChTraitsCRT<char> > >::~CStringT<char,ATL::StrTraitATL<char,ATL::ChTraitsCRT<char> > >
$L115912:
  00080	8b 4d dc	 mov	 ecx, DWORD PTR $T115839[ebp]
  00083	e9 00 00 00 00	 jmp	 ??1?$CStringT@DV?$StrTraitATL@DV?$ChTraitsCRT@D@ATL@@@ATL@@@ATL@@QAE@XZ ; ATL::CStringT<char,ATL::StrTraitATL<char,ATL::ChTraitsCRT<char> > >::~CStringT<char,ATL::StrTraitATL<char,ATL::ChTraitsCRT<char> > >
$L115914:
  00088	8b 4d dc	 mov	 ecx, DWORD PTR $T115843[ebp]
  0008b	e9 00 00 00 00	 jmp	 ??1?$CStringT@DV?$StrTraitATL@DV?$ChTraitsCRT@D@ATL@@@ATL@@@ATL@@QAE@XZ ; ATL::CStringT<char,ATL::StrTraitATL<char,ATL::ChTraitsCRT<char> > >::~CStringT<char,ATL::StrTraitATL<char,ATL::ChTraitsCRT<char> > >
$L115916:
  00090	8b 4d dc	 mov	 ecx, DWORD PTR $T115845[ebp]
  00093	e9 00 00 00 00	 jmp	 ??1?$CStringT@DV?$StrTraitATL@DV?$ChTraitsCRT@D@ATL@@@ATL@@@ATL@@QAE@XZ ; ATL::CStringT<char,ATL::StrTraitATL<char,ATL::ChTraitsCRT<char> > >::~CStringT<char,ATL::StrTraitATL<char,ATL::ChTraitsCRT<char> > >
$L115918:
  00098	8b 4d dc	 mov	 ecx, DWORD PTR $T115847[ebp]
  0009b	e9 00 00 00 00	 jmp	 ??1?$CStringT@DV?$StrTraitATL@DV?$ChTraitsCRT@D@ATL@@@ATL@@@ATL@@QAE@XZ ; ATL::CStringT<char,ATL::StrTraitATL<char,ATL::ChTraitsCRT<char> > >::~CStringT<char,ATL::StrTraitATL<char,ATL::ChTraitsCRT<char> > >
$L115921:
  000a0	8b 4d dc	 mov	 ecx, DWORD PTR $T115851[ebp]
  000a3	e9 00 00 00 00	 jmp	 ??1?$CStringT@DV?$StrTraitATL@DV?$ChTraitsCRT@D@ATL@@@ATL@@@ATL@@QAE@XZ ; ATL::CStringT<char,ATL::StrTraitATL<char,ATL::ChTraitsCRT<char> > >::~CStringT<char,ATL::StrTraitATL<char,ATL::ChTraitsCRT<char> > >
$L115923:
  000a8	8b 4d dc	 mov	 ecx, DWORD PTR $T115853[ebp]
  000ab	e9 00 00 00 00	 jmp	 ??1?$CStringT@DV?$StrTraitATL@DV?$ChTraitsCRT@D@ATL@@@ATL@@@ATL@@QAE@XZ ; ATL::CStringT<char,ATL::StrTraitATL<char,ATL::ChTraitsCRT<char> > >::~CStringT<char,ATL::StrTraitATL<char,ATL::ChTraitsCRT<char> > >
$L115925:
  000b0	8b 4d dc	 mov	 ecx, DWORD PTR $T115855[ebp]
  000b3	e9 00 00 00 00	 jmp	 ??1?$CStringT@DV?$StrTraitATL@DV?$ChTraitsCRT@D@ATL@@@ATL@@@ATL@@QAE@XZ ; ATL::CStringT<char,ATL::StrTraitATL<char,ATL::ChTraitsCRT<char> > >::~CStringT<char,ATL::StrTraitATL<char,ATL::ChTraitsCRT<char> > >
$L115927:
  000b8	8b 4d dc	 mov	 ecx, DWORD PTR $T115861[ebp]
  000bb	e9 00 00 00 00	 jmp	 ??1?$CStringT@DV?$StrTraitATL@DV?$ChTraitsCRT@D@ATL@@@ATL@@@ATL@@QAE@XZ ; ATL::CStringT<char,ATL::StrTraitATL<char,ATL::ChTraitsCRT<char> > >::~CStringT<char,ATL::StrTraitATL<char,ATL::ChTraitsCRT<char> > >
$L115929:
  000c0	8b 4d dc	 mov	 ecx, DWORD PTR $T115866[ebp]
  000c3	e9 00 00 00 00	 jmp	 ??1?$CStringT@DV?$StrTraitATL@DV?$ChTraitsCRT@D@ATL@@@ATL@@@ATL@@QAE@XZ ; ATL::CStringT<char,ATL::StrTraitATL<char,ATL::ChTraitsCRT<char> > >::~CStringT<char,ATL::StrTraitATL<char,ATL::ChTraitsCRT<char> > >
$L115931:
  000c8	8b 4d dc	 mov	 ecx, DWORD PTR $T115875[ebp]
  000cb	e9 00 00 00 00	 jmp	 ??1?$CStringT@DV?$StrTraitATL@DV?$ChTraitsCRT@D@ATL@@@ATL@@@ATL@@QAE@XZ ; ATL::CStringT<char,ATL::StrTraitATL<char,ATL::ChTraitsCRT<char> > >::~CStringT<char,ATL::StrTraitATL<char,ATL::ChTraitsCRT<char> > >
$L115933:
  000d0	8b 4d ec	 mov	 ecx, DWORD PTR $T115880[ebp]
  000d3	e9 00 00 00 00	 jmp	 ??1?$CStringT@DV?$StrTraitATL@DV?$ChTraitsCRT@D@ATL@@@ATL@@@ATL@@QAE@XZ ; ATL::CStringT<char,ATL::StrTraitATL<char,ATL::ChTraitsCRT<char> > >::~CStringT<char,ATL::StrTraitATL<char,ATL::ChTraitsCRT<char> > >
__ehhandler$?OnCS_CHAT_REQ@CTRelaySvrModule@@IAEKPAUtagPACKETBUF@@@Z:
  000d8	b8 00 00 00 00	 mov	 eax, OFFSET FLAT:$T117163
  000dd	e9 00 00 00 00	 jmp	 ___CxxFrameHandler
text$x	ENDS
?OnCS_CHAT_REQ@CTRelaySvrModule@@IAEKPAUtagPACKETBUF@@@Z ENDP ; CTRelaySvrModule::OnCS_CHAT_REQ
PUBLIC	__TI3?AVlength_error@std@@
PUBLIC	__CTA3?AVlength_error@std@@
PUBLIC	??_R0?AVlength_error@std@@@8			; std::length_error `RTTI Type Descriptor'
PUBLIC	__CT??_R0?AVlength_error@std@@@8??0length_error@std@@QAE@ABV01@@Z40
PUBLIC	??_R0?AVlogic_error@std@@@8			; std::logic_error `RTTI Type Descriptor'
PUBLIC	__CT??_R0?AVlogic_error@std@@@8??0logic_error@std@@QAE@ABV01@@Z40
PUBLIC	??_C@_0BE@JONHPENG@map?1set?$DMT?$DO?5too?5long?$AA@ ; `string'
PUBLIC	??_R0?AVexception@@@8				; exception `RTTI Type Descriptor'
PUBLIC	__CT??_R0?AVexception@@@8??0exception@@QAE@ABV0@@Z12
PUBLIC	??0logic_error@std@@QAE@ABV01@@Z		; std::logic_error::logic_error
PUBLIC	?_Insert@?$_Tree@V?$_Tmap_traits@KPAVCTPlayer@@U?$less@K@std@@V?$allocator@U?$pair@$$CBKPAVCTPlayer@@@std@@@3@$0A@@std@@@std@@IAE?AViterator@12@_NPAU_Node@?$_Tree_nod@V?$_Tmap_traits@KPAVCTPlayer@@U?$less@K@std@@V?$allocator@U?$pair@$$CBKPAVCTPlayer@@@std@@@3@$0A@@std@@@2@ABU?$pair@$$CBKPAVCTPlayer@@@2@@Z ; std::_Tree<std::_Tmap_traits<unsigned long,CTPlayer *,std::less<unsigned long>,std::allocator<std::pair<unsigned long const ,CTPlayer *> >,0> >::_Insert
PUBLIC	??0length_error@std@@QAE@ABV01@@Z		; std::length_error::length_error
EXTRN	??0exception@@QAE@ABV0@@Z:NEAR			; exception::exception
;	COMDAT xdata$x
; File c:\program files (x86)\microsoft visual studio .net 2003\vc7\include\xtree
xdata$x	SEGMENT
$T117573 DD	0ffffffffH
	DD	FLAT:$L117204
$T117568 DD	019930520H
	DD	01H
	DD	FLAT:$T117573
	DD	2 DUP(00H)
	DD	2 DUP(00H)
xdata$x	ENDS
;	COMDAT ??_C@_0BE@JONHPENG@map?1set?$DMT?$DO?5too?5long?$AA@
CONST	SEGMENT
??_C@_0BE@JONHPENG@map?1set?$DMT?$DO?5too?5long?$AA@ DB 'map/set<T> too l'
	DB	'ong', 00H					; `string'
CONST	ENDS
;	COMDAT __TI3?AVlength_error@std@@
xdata$x	SEGMENT
__TI3?AVlength_error@std@@ DD 00H
	DD	FLAT:??1length_error@std@@UAE@XZ
	DD	00H
	DD	FLAT:__CTA3?AVlength_error@std@@
xdata$x	ENDS
;	COMDAT __CTA3?AVlength_error@std@@
xdata$x	SEGMENT
__CTA3?AVlength_error@std@@ DD 03H
	DD	FLAT:__CT??_R0?AVlength_error@std@@@8??0length_error@std@@QAE@ABV01@@Z40
	DD	FLAT:__CT??_R0?AVlogic_error@std@@@8??0logic_error@std@@QAE@ABV01@@Z40
	DD	FLAT:__CT??_R0?AVexception@@@8??0exception@@QAE@ABV0@@Z12
xdata$x	ENDS
;	COMDAT __CT??_R0?AVlength_error@std@@@8??0length_error@std@@QAE@ABV01@@Z40
xdata$x	SEGMENT
__CT??_R0?AVlength_error@std@@@8??0length_error@std@@QAE@ABV01@@Z40 DD 00H
	DD	FLAT:??_R0?AVlength_error@std@@@8
	DD	00H
	DD	0ffffffffH
	ORG $+4
	DD	028H
	DD	FLAT:??0length_error@std@@QAE@ABV01@@Z
xdata$x	ENDS
;	COMDAT ??_R0?AVlength_error@std@@@8
_DATA	SEGMENT
??_R0?AVlength_error@std@@@8 DD FLAT:??_7type_info@@6B@	; std::length_error `RTTI Type Descriptor'
	DD	00H
	DB	'.?AVlength_error@std@@', 00H
_DATA	ENDS
;	COMDAT __CT??_R0?AVlogic_error@std@@@8??0logic_error@std@@QAE@ABV01@@Z40
xdata$x	SEGMENT
__CT??_R0?AVlogic_error@std@@@8??0logic_error@std@@QAE@ABV01@@Z40 DD 00H
	DD	FLAT:??_R0?AVlogic_error@std@@@8
	DD	00H
	DD	0ffffffffH
	ORG $+4
	DD	028H
	DD	FLAT:??0logic_error@std@@QAE@ABV01@@Z
xdata$x	ENDS
;	COMDAT ??_R0?AVlogic_error@std@@@8
_DATA	SEGMENT
??_R0?AVlogic_error@std@@@8 DD FLAT:??_7type_info@@6B@	; std::logic_error `RTTI Type Descriptor'
	DD	00H
	DB	'.?AVlogic_error@std@@', 00H
_DATA	ENDS
;	COMDAT __CT??_R0?AVexception@@@8??0exception@@QAE@ABV0@@Z12
xdata$x	SEGMENT
__CT??_R0?AVexception@@@8??0exception@@QAE@ABV0@@Z12 DD 00H
	DD	FLAT:??_R0?AVexception@@@8
	DD	00H
	DD	0ffffffffH
	ORG $+4
	DD	0cH
	DD	FLAT:??0exception@@QAE@ABV0@@Z
xdata$x	ENDS
;	COMDAT ??_R0?AVexception@@@8
_DATA	SEGMENT
??_R0?AVexception@@@8 DD FLAT:??_7type_info@@6B@	; exception `RTTI Type Descriptor'
	DD	00H
	DB	'.?AVexception@@', 00H
; Function compile flags: /Ogty
_DATA	ENDS
;	COMDAT ?_Insert@?$_Tree@V?$_Tmap_traits@KPAVCTPlayer@@U?$less@K@std@@V?$allocator@U?$pair@$$CBKPAVCTPlayer@@@std@@@3@$0A@@std@@@std@@IAE?AViterator@12@_NPAU_Node@?$_Tree_nod@V?$_Tmap_traits@KPAVCTPlayer@@U?$less@K@std@@V?$allocator@U?$pair@$$CBKPAVCTPlayer@@@std@@@3@$0A@@std@@@2@ABU?$pair@$$CBKPAVCTPlayer@@@2@@Z
_TEXT	SEGMENT
$T117203 = -80						; size = 28
$T117202 = -52						; size = 40
__$EHRec$ = -12						; size = 12
___$ReturnUdt$ = 8					; size = 4
__Addleft$ = 12						; size = 1
__Wherenode$ = 16					; size = 4
__Newnode$ = 20						; size = 4
__Val$ = 20						; size = 4
?_Insert@?$_Tree@V?$_Tmap_traits@KPAVCTPlayer@@U?$less@K@std@@V?$allocator@U?$pair@$$CBKPAVCTPlayer@@@std@@@3@$0A@@std@@@std@@IAE?AViterator@12@_NPAU_Node@?$_Tree_nod@V?$_Tmap_traits@KPAVCTPlayer@@U?$less@K@std@@V?$allocator@U?$pair@$$CBKPAVCTPlayer@@@std@@@3@$0A@@std@@@2@ABU?$pair@$$CBKPAVCTPlayer@@@2@@Z PROC NEAR ; std::_Tree<std::_Tmap_traits<unsigned long,CTPlayer *,std::less<unsigned long>,std::allocator<std::pair<unsigned long const ,CTPlayer *> >,0> >::_Insert, COMDAT
; _this$ = ecx

; 911  : 		{	// add node with value next to _Wherenode, to left if _Addnode

  00000	64 a1 00 00 00
	00		 mov	 eax, DWORD PTR fs:__except_list
  00006	6a ff		 push	 -1
  00008	68 00 00 00 00	 push	 __ehhandler$?_Insert@?$_Tree@V?$_Tmap_traits@KPAVCTPlayer@@U?$less@K@std@@V?$allocator@U?$pair@$$CBKPAVCTPlayer@@@std@@@3@$0A@@std@@@std@@IAE?AViterator@12@_NPAU_Node@?$_Tree_nod@V?$_Tmap_traits@KPAVCTPlayer@@U?$less@K@std@@V?$allocator@U?$pair@$$CBKPAVCTPlayer@@@std@@@3@$0A@@std@@@2@ABU?$pair@$$CBKPAVCTPlayer@@@2@@Z
  0000d	50		 push	 eax
  0000e	64 89 25 00 00
	00 00		 mov	 DWORD PTR fs:__except_list, esp
  00015	83 ec 44	 sub	 esp, 68			; 00000044H
  00018	56		 push	 esi
  00019	57		 push	 edi
  0001a	8b f9		 mov	 edi, ecx

; 912  : 		if (max_size() - 1 <= _Mysize)

  0001c	81 7f 08 fe ff
	ff 1f		 cmp	 DWORD PTR [edi+8], 536870910 ; 1ffffffeH
  00023	72 4c		 jb	 SHORT $L108782

; 913  : 			_THROW(length_error, "map/set<T> too long");

  00025	6a 13		 push	 19			; 00000013H
  00027	33 f6		 xor	 esi, esi
  00029	68 00 00 00 00	 push	 OFFSET FLAT:??_C@_0BE@JONHPENG@map?1set?$DMT?$DO?5too?5long?$AA@
  0002e	8d 4c 24 10	 lea	 ecx, DWORD PTR $T117203[esp+96]
  00032	c7 44 24 28 0f
	00 00 00	 mov	 DWORD PTR $T117203[esp+120], 15 ; 0000000fH
  0003a	89 74 24 24	 mov	 DWORD PTR $T117203[esp+116], esi
  0003e	c6 44 24 14 00	 mov	 BYTE PTR $T117203[esp+100], 0
  00043	e8 00 00 00 00	 call	 ?assign@?$basic_string@DU?$char_traits@D@std@@V?$allocator@D@2@@std@@QAEAAV12@PBDI@Z ; std::basic_string<char,std::char_traits<char>,std::allocator<char> >::assign
  00048	8d 44 24 08	 lea	 eax, DWORD PTR $T117203[esp+88]
  0004c	50		 push	 eax
  0004d	8d 4c 24 28	 lea	 ecx, DWORD PTR $T117202[esp+92]
  00051	89 74 24 58	 mov	 DWORD PTR __$EHRec$[esp+100], esi
  00055	e8 00 00 00 00	 call	 ??0logic_error@std@@QAE@ABV?$basic_string@DU?$char_traits@D@std@@V?$allocator@D@2@@1@@Z ; std::logic_error::logic_error
  0005a	68 00 00 00 00	 push	 OFFSET FLAT:__TI3?AVlength_error@std@@
  0005f	8d 4c 24 28	 lea	 ecx, DWORD PTR $T117202[esp+92]
  00063	51		 push	 ecx
  00064	c7 44 24 2c 00
	00 00 00	 mov	 DWORD PTR $T117202[esp+96], OFFSET FLAT:??_7length_error@std@@6B@
  0006c	e8 00 00 00 00	 call	 __CxxThrowException@8
$L117574:
$L108782:

; 914  : 		_Nodeptr _Newnode = _Buynode(_Myhead, _Wherenode, _Myhead,
; 915  : 			_Val, _Red);

  00071	8b 54 24 68	 mov	 edx, DWORD PTR __Val$[esp+84]
  00075	8b 47 04	 mov	 eax, DWORD PTR [edi+4]
  00078	8b 74 24 64	 mov	 esi, DWORD PTR __Wherenode$[esp+84]
  0007c	53		 push	 ebx
  0007d	6a 00		 push	 0
  0007f	52		 push	 edx
  00080	50		 push	 eax
  00081	56		 push	 esi
  00082	50		 push	 eax
  00083	8b cf		 mov	 ecx, edi
  00085	e8 00 00 00 00	 call	 ?_Buynode@?$_Tree@V?$_Tmap_traits@KPAVCTPlayer@@U?$less@K@std@@V?$allocator@U?$pair@$$CBKPAVCTPlayer@@@std@@@3@$0A@@std@@@std@@IAEPAU_Node@?$_Tree_nod@V?$_Tmap_traits@KPAVCTPlayer@@U?$less@K@std@@V?$allocator@U?$pair@$$CBKPAVCTPlayer@@@std@@@3@$0A@@std@@@2@PAU342@00ABU?$pair@$$CBKPAVCTPlayer@@@2@D@Z ; std::_Tree<std::_Tmap_traits<unsigned long,CTPlayer *,std::less<unsigned long>,std::allocator<std::pair<unsigned long const ,CTPlayer *> >,0> >::_Buynode

; 916  : 
; 917  : 		++_Mysize;

  0008a	8b 5f 08	 mov	 ebx, DWORD PTR [edi+8]
  0008d	8b c8		 mov	 ecx, eax

; 918  : 		if (_Wherenode == _Myhead)

  0008f	8b 47 04	 mov	 eax, DWORD PTR [edi+4]
  00092	43		 inc	 ebx
  00093	3b f0		 cmp	 esi, eax
  00095	89 4c 24 6c	 mov	 DWORD PTR __Newnode$[esp+88], ecx
  00099	89 5f 08	 mov	 DWORD PTR [edi+8], ebx
  0009c	75 10		 jne	 SHORT $L108794

; 919  : 			{	// first node in tree, just set head values
; 920  : 			_Root() = _Newnode;

  0009e	89 48 04	 mov	 DWORD PTR [eax+4], ecx

; 921  : 			_Lmost() = _Newnode, _Rmost() = _Newnode;

  000a1	8b 47 04	 mov	 eax, DWORD PTR [edi+4]
  000a4	89 08		 mov	 DWORD PTR [eax], ecx
  000a6	8b 57 04	 mov	 edx, DWORD PTR [edi+4]
  000a9	89 4a 08	 mov	 DWORD PTR [edx+8], ecx

; 922  : 			}
; 923  : 		else if (_Addleft)

  000ac	eb 23		 jmp	 SHORT $L108799
$L108794:
  000ae	8a 44 24 64	 mov	 al, BYTE PTR __Addleft$[esp+88]
  000b2	84 c0		 test	 al, al
  000b4	74 0d		 je	 SHORT $L108796

; 924  : 			{	// add to left of _Wherenode
; 925  : 			_Left(_Wherenode) = _Newnode;

  000b6	89 0e		 mov	 DWORD PTR [esi], ecx

; 926  : 			if (_Wherenode == _Lmost())

  000b8	8b 47 04	 mov	 eax, DWORD PTR [edi+4]
  000bb	3b 30		 cmp	 esi, DWORD PTR [eax]
  000bd	75 12		 jne	 SHORT $L108799

; 927  : 				_Lmost() = _Newnode;

  000bf	89 08		 mov	 DWORD PTR [eax], ecx

; 928  : 			}
; 929  : 		else

  000c1	eb 0e		 jmp	 SHORT $L108799
$L108796:

; 930  : 			{	// add to right of _Wherenode
; 931  : 			_Right(_Wherenode) = _Newnode;

  000c3	89 4e 08	 mov	 DWORD PTR [esi+8], ecx

; 932  : 			if (_Wherenode == _Rmost())

  000c6	8b 47 04	 mov	 eax, DWORD PTR [edi+4]
  000c9	3b 70 08	 cmp	 esi, DWORD PTR [eax+8]
  000cc	75 03		 jne	 SHORT $L108799

; 933  : 				_Rmost() = _Newnode;

  000ce	89 48 08	 mov	 DWORD PTR [eax+8], ecx
$L108799:

; 934  : 			}
; 935  : 
; 936  : 		for (_Nodeptr _Pnode = _Newnode; _Color(_Parent(_Pnode)) == _Red; )

  000d1	8b 51 04	 mov	 edx, DWORD PTR [ecx+4]
  000d4	80 7a 14 00	 cmp	 BYTE PTR [edx+20], 0
  000d8	8d 41 04	 lea	 eax, DWORD PTR [ecx+4]
  000db	8b f1		 mov	 esi, ecx
  000dd	b3 01		 mov	 bl, 1
  000df	0f 85 a5 00 00
	00		 jne	 $L108803
  000e5	55		 push	 ebp
$L108802:

; 937  : 			if (_Parent(_Pnode) == _Left(_Parent(_Parent(_Pnode))))

  000e6	8b 08		 mov	 ecx, DWORD PTR [eax]
  000e8	8b 69 04	 mov	 ebp, DWORD PTR [ecx+4]
  000eb	8b 55 00	 mov	 edx, DWORD PTR [ebp]
  000ee	3b ca		 cmp	 ecx, edx
  000f0	75 50		 jne	 SHORT $L108804

; 938  : 				{	// fixup red-red in left subtree
; 939  : 				_Wherenode = _Right(_Parent(_Parent(_Pnode)));

  000f2	8b 55 08	 mov	 edx, DWORD PTR [ebp+8]

; 940  : 				if (_Color(_Wherenode) == _Red)

  000f5	80 7a 14 00	 cmp	 BYTE PTR [edx+20], 0
  000f9	75 18		 jne	 SHORT $L108805
$L117572:

; 941  : 					{	// parent has two red children, blacken both
; 942  : 					_Color(_Parent(_Pnode)) = _Black;

  000fb	8b 08		 mov	 ecx, DWORD PTR [eax]
  000fd	88 59 14	 mov	 BYTE PTR [ecx+20], bl

; 943  : 					_Color(_Wherenode) = _Black;

  00100	88 5a 14	 mov	 BYTE PTR [edx+20], bl

; 944  : 					_Color(_Parent(_Parent(_Pnode))) = _Red;

  00103	8b 10		 mov	 edx, DWORD PTR [eax]
  00105	8b 4a 04	 mov	 ecx, DWORD PTR [edx+4]
  00108	c6 41 14 00	 mov	 BYTE PTR [ecx+20], 0

; 945  : 					_Pnode = _Parent(_Parent(_Pnode));

  0010c	8b 10		 mov	 edx, DWORD PTR [eax]
  0010e	8b 72 04	 mov	 esi, DWORD PTR [edx+4]

; 946  : 					}
; 947  : 				else

  00111	eb 61		 jmp	 SHORT $L108810
$L108805:

; 948  : 					{	// parent has red and black children
; 949  : 					if (_Pnode == _Right(_Parent(_Pnode)))

  00113	3b 71 08	 cmp	 esi, DWORD PTR [ecx+8]
  00116	75 0a		 jne	 SHORT $L108807

; 950  : 						{	// rotate right child to left
; 951  : 						_Pnode = _Parent(_Pnode);

  00118	8b f1		 mov	 esi, ecx

; 952  : 						_Lrotate(_Pnode);

  0011a	56		 push	 esi
  0011b	8b cf		 mov	 ecx, edi
  0011d	e8 00 00 00 00	 call	 ?_Lrotate@?$_Tree@V?$_Tmap_traits@KPAVCTPlayer@@U?$less@K@std@@V?$allocator@U?$pair@$$CBKPAVCTPlayer@@@std@@@3@$0A@@std@@@std@@IAEXPAU_Node@?$_Tree_nod@V?$_Tmap_traits@KPAVCTPlayer@@U?$less@K@std@@V?$allocator@U?$pair@$$CBKPAVCTPlayer@@@std@@@3@$0A@@std@@@2@@Z ; std::_Tree<std::_Tmap_traits<unsigned long,CTPlayer *,std::less<unsigned long>,std::allocator<std::pair<unsigned long const ,CTPlayer *> >,0> >::_Lrotate
$L108807:

; 953  : 						}
; 954  : 					_Color(_Parent(_Pnode)) = _Black;	// propagate red up

  00122	8b 46 04	 mov	 eax, DWORD PTR [esi+4]
  00125	88 58 14	 mov	 BYTE PTR [eax+20], bl

; 955  : 					_Color(_Parent(_Parent(_Pnode))) = _Red;

  00128	8b 4e 04	 mov	 ecx, DWORD PTR [esi+4]
  0012b	8b 51 04	 mov	 edx, DWORD PTR [ecx+4]
  0012e	c6 42 14 00	 mov	 BYTE PTR [edx+20], 0

; 956  : 					_Rrotate(_Parent(_Parent(_Pnode)));

  00132	8b 46 04	 mov	 eax, DWORD PTR [esi+4]
  00135	8b 48 04	 mov	 ecx, DWORD PTR [eax+4]
  00138	51		 push	 ecx
  00139	8b cf		 mov	 ecx, edi
  0013b	e8 00 00 00 00	 call	 ?_Rrotate@?$_Tree@V?$_Tmap_traits@KPAVCTPlayer@@U?$less@K@std@@V?$allocator@U?$pair@$$CBKPAVCTPlayer@@@std@@@3@$0A@@std@@@std@@IAEXPAU_Node@?$_Tree_nod@V?$_Tmap_traits@KPAVCTPlayer@@U?$less@K@std@@V?$allocator@U?$pair@$$CBKPAVCTPlayer@@@std@@@3@$0A@@std@@@2@@Z ; std::_Tree<std::_Tmap_traits<unsigned long,CTPlayer *,std::less<unsigned long>,std::allocator<std::pair<unsigned long const ,CTPlayer *> >,0> >::_Rrotate

; 957  : 					}
; 958  : 				}
; 959  : 			else

  00140	eb 32		 jmp	 SHORT $L108810
$L108804:

; 960  : 				{	// fixup red-red in right subtree
; 961  : 				_Wherenode = _Left(_Parent(_Parent(_Pnode)));
; 962  : 				if (_Color(_Wherenode) == _Red)

  00142	80 7a 14 00	 cmp	 BYTE PTR [edx+20], 0

; 963  : 					{	// parent has two red children, blacken both
; 964  : 					_Color(_Parent(_Pnode)) = _Black;
; 965  : 					_Color(_Wherenode) = _Black;
; 966  : 					_Color(_Parent(_Parent(_Pnode))) = _Red;
; 967  : 					_Pnode = _Parent(_Parent(_Pnode));
; 968  : 					}
; 969  : 				else

  00146	74 b3		 je	 SHORT $L117572

; 970  : 					{	// parent has red and black children
; 971  : 					if (_Pnode == _Left(_Parent(_Pnode)))

  00148	3b 31		 cmp	 esi, DWORD PTR [ecx]
  0014a	75 0a		 jne	 SHORT $L108811

; 972  : 						{	// rotate left child to right
; 973  : 						_Pnode = _Parent(_Pnode);

  0014c	8b f1		 mov	 esi, ecx

; 974  : 						_Rrotate(_Pnode);

  0014e	56		 push	 esi
  0014f	8b cf		 mov	 ecx, edi
  00151	e8 00 00 00 00	 call	 ?_Rrotate@?$_Tree@V?$_Tmap_traits@KPAVCTPlayer@@U?$less@K@std@@V?$allocator@U?$pair@$$CBKPAVCTPlayer@@@std@@@3@$0A@@std@@@std@@IAEXPAU_Node@?$_Tree_nod@V?$_Tmap_traits@KPAVCTPlayer@@U?$less@K@std@@V?$allocator@U?$pair@$$CBKPAVCTPlayer@@@std@@@3@$0A@@std@@@2@@Z ; std::_Tree<std::_Tmap_traits<unsigned long,CTPlayer *,std::less<unsigned long>,std::allocator<std::pair<unsigned long const ,CTPlayer *> >,0> >::_Rrotate
$L108811:

; 975  : 						}
; 976  : 					_Color(_Parent(_Pnode)) = _Black;	// propagate red up

  00156	8b 46 04	 mov	 eax, DWORD PTR [esi+4]
  00159	88 58 14	 mov	 BYTE PTR [eax+20], bl

; 977  : 					_Color(_Parent(_Parent(_Pnode))) = _Red;

  0015c	8b 4e 04	 mov	 ecx, DWORD PTR [esi+4]
  0015f	8b 51 04	 mov	 edx, DWORD PTR [ecx+4]
  00162	c6 42 14 00	 mov	 BYTE PTR [edx+20], 0

; 978  : 					_Lrotate(_Parent(_Parent(_Pnode)));

  00166	8b 46 04	 mov	 eax, DWORD PTR [esi+4]
  00169	8b 48 04	 mov	 ecx, DWORD PTR [eax+4]
  0016c	51		 push	 ecx
  0016d	8b cf		 mov	 ecx, edi
  0016f	e8 00 00 00 00	 call	 ?_Lrotate@?$_Tree@V?$_Tmap_traits@KPAVCTPlayer@@U?$less@K@std@@V?$allocator@U?$pair@$$CBKPAVCTPlayer@@@std@@@3@$0A@@std@@@std@@IAEXPAU_Node@?$_Tree_nod@V?$_Tmap_traits@KPAVCTPlayer@@U?$less@K@std@@V?$allocator@U?$pair@$$CBKPAVCTPlayer@@@std@@@3@$0A@@std@@@2@@Z ; std::_Tree<std::_Tmap_traits<unsigned long,CTPlayer *,std::less<unsigned long>,std::allocator<std::pair<unsigned long const ,CTPlayer *> >,0> >::_Lrotate
$L108810:
  00174	8b 56 04	 mov	 edx, DWORD PTR [esi+4]
  00177	8a 4a 14	 mov	 cl, BYTE PTR [edx+20]
  0017a	84 c9		 test	 cl, cl
  0017c	8d 46 04	 lea	 eax, DWORD PTR [esi+4]
  0017f	0f 84 61 ff ff
	ff		 je	 $L108802
  00185	8b 4c 24 70	 mov	 ecx, DWORD PTR __Newnode$[esp+92]
  00189	5d		 pop	 ebp
$L108803:

; 979  : 					}
; 980  : 				}
; 981  : 
; 982  : 		_Color(_Root()) = _Black;	// root is always black

  0018a	8b 47 04	 mov	 eax, DWORD PTR [edi+4]
  0018d	8b 50 04	 mov	 edx, DWORD PTR [eax+4]

; 983  : 		return (_TREE_ITERATOR(_Newnode));

  00190	8b 44 24 60	 mov	 eax, DWORD PTR ___$ReturnUdt$[esp+88]
  00194	88 5a 14	 mov	 BYTE PTR [edx+20], bl
  00197	5b		 pop	 ebx
  00198	89 08		 mov	 DWORD PTR [eax], ecx

; 984  : 		}

  0019a	8b 4c 24 4c	 mov	 ecx, DWORD PTR __$EHRec$[esp+88]
  0019e	5f		 pop	 edi
  0019f	5e		 pop	 esi
  001a0	64 89 0d 00 00
	00 00		 mov	 DWORD PTR fs:__except_list, ecx
  001a7	83 c4 50	 add	 esp, 80			; 00000050H
  001aa	c2 10 00	 ret	 16			; 00000010H
$L117571:
_TEXT	ENDS
;	COMDAT text$x
text$x	SEGMENT
$L117204:
  00000	8d 4d b0	 lea	 ecx, DWORD PTR $T117203[ebp]
  00003	e9 00 00 00 00	 jmp	 ??1?$basic_string@DU?$char_traits@D@std@@V?$allocator@D@2@@std@@QAE@XZ ; std::basic_string<char,std::char_traits<char>,std::allocator<char> >::~basic_string<char,std::char_traits<char>,std::allocator<char> >
__ehhandler$?_Insert@?$_Tree@V?$_Tmap_traits@KPAVCTPlayer@@U?$less@K@std@@V?$allocator@U?$pair@$$CBKPAVCTPlayer@@@std@@@3@$0A@@std@@@std@@IAE?AViterator@12@_NPAU_Node@?$_Tree_nod@V?$_Tmap_traits@KPAVCTPlayer@@U?$less@K@std@@V?$allocator@U?$pair@$$CBKPAVCTPlayer@@@std@@@3@$0A@@std@@@2@ABU?$pair@$$CBKPAVCTPlayer@@@2@@Z:
  00008	b8 00 00 00 00	 mov	 eax, OFFSET FLAT:$T117568
  0000d	e9 00 00 00 00	 jmp	 ___CxxFrameHandler
text$x	ENDS
?_Insert@?$_Tree@V?$_Tmap_traits@KPAVCTPlayer@@U?$less@K@std@@V?$allocator@U?$pair@$$CBKPAVCTPlayer@@@std@@@3@$0A@@std@@@std@@IAE?AViterator@12@_NPAU_Node@?$_Tree_nod@V?$_Tmap_traits@KPAVCTPlayer@@U?$less@K@std@@V?$allocator@U?$pair@$$CBKPAVCTPlayer@@@std@@@3@$0A@@std@@@2@ABU?$pair@$$CBKPAVCTPlayer@@@2@@Z ENDP ; std::_Tree<std::_Tmap_traits<unsigned long,CTPlayer *,std::less<unsigned long>,std::allocator<std::pair<unsigned long const ,CTPlayer *> >,0> >::_Insert
;	COMDAT xdata$x
xdata$x	SEGMENT
$T117679 DD	0ffffffffH
	DD	FLAT:$L117580
$T117677 DD	019930520H
	DD	01H
	DD	FLAT:$T117679
	DD	2 DUP(00H)
	DD	2 DUP(00H)
; Function compile flags: /Ogty
xdata$x	ENDS
;	COMDAT ??0logic_error@std@@QAE@ABV01@@Z
_TEXT	SEGMENT
_this$ = -16						; size = 4
__$EHRec$ = -12						; size = 12
___that$ = 8						; size = 4
??0logic_error@std@@QAE@ABV01@@Z PROC NEAR		; std::logic_error::logic_error, COMDAT
; _this$ = ecx
  00000	6a ff		 push	 -1
  00002	68 00 00 00 00	 push	 __ehhandler$??0logic_error@std@@QAE@ABV01@@Z
  00007	64 a1 00 00 00
	00		 mov	 eax, DWORD PTR fs:__except_list
  0000d	50		 push	 eax
  0000e	64 89 25 00 00
	00 00		 mov	 DWORD PTR fs:__except_list, esp
  00015	51		 push	 ecx
  00016	56		 push	 esi
  00017	57		 push	 edi
  00018	8b 7c 24 1c	 mov	 edi, DWORD PTR ___that$[esp+20]
  0001c	8b f1		 mov	 esi, ecx
  0001e	57		 push	 edi
  0001f	89 74 24 0c	 mov	 DWORD PTR _this$[esp+28], esi
  00023	e8 00 00 00 00	 call	 ??0exception@@QAE@ABV0@@Z ; exception::exception
  00028	33 c0		 xor	 eax, eax
  0002a	6a ff		 push	 -1
  0002c	8d 4e 0c	 lea	 ecx, DWORD PTR [esi+12]
  0002f	c7 06 00 00 00
	00		 mov	 DWORD PTR [esi], OFFSET FLAT:??_7logic_error@std@@6B@
  00035	50		 push	 eax
  00036	83 c7 0c	 add	 edi, 12			; 0000000cH
  00039	c7 41 18 0f 00
	00 00		 mov	 DWORD PTR [ecx+24], 15	; 0000000fH
  00040	89 41 14	 mov	 DWORD PTR [ecx+20], eax
  00043	57		 push	 edi
  00044	89 44 24 20	 mov	 DWORD PTR __$EHRec$[esp+44], eax
  00048	88 41 04	 mov	 BYTE PTR [ecx+4], al
  0004b	e8 00 00 00 00	 call	 ?assign@?$basic_string@DU?$char_traits@D@std@@V?$allocator@D@2@@std@@QAEAAV12@ABV12@II@Z ; std::basic_string<char,std::char_traits<char>,std::allocator<char> >::assign
  00050	8b 4c 24 0c	 mov	 ecx, DWORD PTR __$EHRec$[esp+24]
  00054	5f		 pop	 edi
  00055	8b c6		 mov	 eax, esi
  00057	5e		 pop	 esi
  00058	64 89 0d 00 00
	00 00		 mov	 DWORD PTR fs:__except_list, ecx
  0005f	83 c4 10	 add	 esp, 16			; 00000010H
  00062	c2 04 00	 ret	 4
_TEXT	ENDS
;	COMDAT text$x
text$x	SEGMENT
$L117580:
  00000	8b 4d f0	 mov	 ecx, DWORD PTR _this$[ebp]
  00003	e9 00 00 00 00	 jmp	 ??1exception@@UAE@XZ	; exception::~exception
__ehhandler$??0logic_error@std@@QAE@ABV01@@Z:
  00008	b8 00 00 00 00	 mov	 eax, OFFSET FLAT:$T117677
  0000d	e9 00 00 00 00	 jmp	 ___CxxFrameHandler
text$x	ENDS
??0logic_error@std@@QAE@ABV01@@Z ENDP			; std::logic_error::logic_error
; Function compile flags: /Ogty
;	COMDAT ??0length_error@std@@QAE@ABV01@@Z
_TEXT	SEGMENT
___that$ = 8						; size = 4
??0length_error@std@@QAE@ABV01@@Z PROC NEAR		; std::length_error::length_error, COMDAT
; _this$ = ecx
  00000	8b 44 24 04	 mov	 eax, DWORD PTR ___that$[esp-4]
  00004	56		 push	 esi
  00005	50		 push	 eax
  00006	8b f1		 mov	 esi, ecx
  00008	e8 00 00 00 00	 call	 ??0logic_error@std@@QAE@ABV01@@Z
  0000d	c7 06 00 00 00
	00		 mov	 DWORD PTR [esi], OFFSET FLAT:??_7length_error@std@@6B@
  00013	8b c6		 mov	 eax, esi
  00015	5e		 pop	 esi
  00016	c2 04 00	 ret	 4
??0length_error@std@@QAE@ABV01@@Z ENDP			; std::length_error::length_error
_TEXT	ENDS
PUBLIC	?insert@?$_Tree@V?$_Tmap_traits@KPAVCTPlayer@@U?$less@K@std@@V?$allocator@U?$pair@$$CBKPAVCTPlayer@@@std@@@3@$0A@@std@@@std@@QAE?AU?$pair@Viterator@?$_Tree@V?$_Tmap_traits@KPAVCTPlayer@@U?$less@K@std@@V?$allocator@U?$pair@$$CBKPAVCTPlayer@@@std@@@3@$0A@@std@@@std@@_N@2@ABU?$pair@$$CBKPAVCTPlayer@@@2@@Z ; std::_Tree<std::_Tmap_traits<unsigned long,CTPlayer *,std::less<unsigned long>,std::allocator<std::pair<unsigned long const ,CTPlayer *> >,0> >::insert
; Function compile flags: /Ogty
;	COMDAT ?insert@?$_Tree@V?$_Tmap_traits@KPAVCTPlayer@@U?$less@K@std@@V?$allocator@U?$pair@$$CBKPAVCTPlayer@@@std@@@3@$0A@@std@@@std@@QAE?AU?$pair@Viterator@?$_Tree@V?$_Tmap_traits@KPAVCTPlayer@@U?$less@K@std@@V?$allocator@U?$pair@$$CBKPAVCTPlayer@@@std@@@3@$0A@@std@@@std@@_N@2@ABU?$pair@$$CBKPAVCTPlayer@@@2@@Z
_TEXT	SEGMENT
__Addleft$ = -4						; size = 1
___$ReturnUdt$ = 8					; size = 4
$T117697 = 12						; size = 4
$T117695 = 12						; size = 4
__Where$108400 = 12					; size = 4
__Val$ = 12						; size = 4
?insert@?$_Tree@V?$_Tmap_traits@KPAVCTPlayer@@U?$less@K@std@@V?$allocator@U?$pair@$$CBKPAVCTPlayer@@@std@@@3@$0A@@std@@@std@@QAE?AU?$pair@Viterator@?$_Tree@V?$_Tmap_traits@KPAVCTPlayer@@U?$less@K@std@@V?$allocator@U?$pair@$$CBKPAVCTPlayer@@@std@@@3@$0A@@std@@@std@@_N@2@ABU?$pair@$$CBKPAVCTPlayer@@@2@@Z PROC NEAR ; std::_Tree<std::_Tmap_traits<unsigned long,CTPlayer *,std::less<unsigned long>,std::allocator<std::pair<unsigned long const ,CTPlayer *> >,0> >::insert, COMDAT
; _this$ = ecx

; 477  : 		{	// try to insert node with value _Val

  00000	51		 push	 ecx
  00001	55		 push	 ebp

; 478  : 		_Nodeptr _Trynode = _Root();
; 479  : 		_Nodeptr _Wherenode = _Myhead;
; 480  : 		bool _Addleft = true;	// add to left of head if tree empty
; 481  : 		while (!_Isnil(_Trynode))

  00002	8b 6c 24 10	 mov	 ebp, DWORD PTR __Val$[esp+4]
  00006	56		 push	 esi
  00007	57		 push	 edi
  00008	8b f9		 mov	 edi, ecx
  0000a	8b 77 04	 mov	 esi, DWORD PTR [edi+4]
  0000d	8b 46 04	 mov	 eax, DWORD PTR [esi+4]
  00010	8a 50 15	 mov	 dl, BYTE PTR [eax+21]
  00013	84 d2		 test	 dl, dl
  00015	b1 01		 mov	 cl, 1
  00017	88 4c 24 0c	 mov	 BYTE PTR __Addleft$[esp+16], cl
  0001b	75 20		 jne	 SHORT $L108390
  0001d	8b 55 00	 mov	 edx, DWORD PTR [ebp]
$L108389:

; 482  : 			{	// look for leaf to insert before (_Addleft) or after
; 483  : 			_Wherenode = _Trynode;
; 484  : 			_Addleft = this->comp(this->_Kfn(_Val), _Key(_Trynode));

  00020	3b 50 0c	 cmp	 edx, DWORD PTR [eax+12]
  00023	0f 92 c1	 setb	 cl

; 485  : 			_Trynode = _Addleft ? _Left(_Trynode) : _Right(_Trynode);

  00026	84 c9		 test	 cl, cl
  00028	8b f0		 mov	 esi, eax
  0002a	88 4c 24 0c	 mov	 BYTE PTR __Addleft$[esp+16], cl
  0002e	74 04		 je	 SHORT $L117689
  00030	8b 00		 mov	 eax, DWORD PTR [eax]
  00032	eb 03		 jmp	 SHORT $L117690
$L117689:
  00034	8b 40 08	 mov	 eax, DWORD PTR [eax+8]
$L117690:

; 478  : 		_Nodeptr _Trynode = _Root();
; 479  : 		_Nodeptr _Wherenode = _Myhead;
; 480  : 		bool _Addleft = true;	// add to left of head if tree empty
; 481  : 		while (!_Isnil(_Trynode))

  00037	80 78 15 00	 cmp	 BYTE PTR [eax+21], 0
  0003b	74 e3		 je	 SHORT $L108389
$L108390:

; 486  : 			}
; 487  : 
; 488  : 		if (this->_Multi)
; 489  : 			return (_Pairib(_Insert(_Addleft, _Wherenode, _Val), true));
; 490  : 		else
; 491  : 			{	// insert only if unique
; 492  : 			iterator _Where = _TREE_ITERATOR(_Wherenode);
; 493  : 			if (!_Addleft)

  0003d	84 c9		 test	 cl, cl
  0003f	8b d6		 mov	 edx, esi
  00041	89 54 24 18	 mov	 DWORD PTR __Where$108400[esp+12], edx
  00045	74 33		 je	 SHORT $L117789

; 494  : 				;	// need to test if insert after is okay
; 495  : 			else if (_Where == begin())

  00047	8b 47 04	 mov	 eax, DWORD PTR [edi+4]
  0004a	3b 30		 cmp	 esi, DWORD PTR [eax]

; 496  : 				return (_Pairib(_Insert(true, _Wherenode, _Val), true));

  0004c	8d 4c 24 18	 lea	 ecx, DWORD PTR $T117695[esp+12]
  00050	75 1f		 jne	 SHORT $L108405
  00052	55		 push	 ebp
  00053	56		 push	 esi
  00054	6a 01		 push	 1
  00056	51		 push	 ecx
  00057	8b cf		 mov	 ecx, edi
  00059	e8 00 00 00 00	 call	 ?_Insert@?$_Tree@V?$_Tmap_traits@KPAVCTPlayer@@U?$less@K@std@@V?$allocator@U?$pair@$$CBKPAVCTPlayer@@@std@@@3@$0A@@std@@@std@@IAE?AViterator@12@_NPAU_Node@?$_Tree_nod@V?$_Tmap_traits@KPAVCTPlayer@@U?$less@K@std@@V?$allocator@U?$pair@$$CBKPAVCTPlayer@@@std@@@3@$0A@@std@@@2@ABU?$pair@$$CBKPAVCTPlayer@@@2@@Z ; std::_Tree<std::_Tmap_traits<unsigned long,CTPlayer *,std::less<unsigned long>,std::allocator<std::pair<unsigned long const ,CTPlayer *> >,0> >::_Insert
  0005e	8b 10		 mov	 edx, DWORD PTR [eax]
  00060	8b 44 24 14	 mov	 eax, DWORD PTR ___$ReturnUdt$[esp+12]
  00064	5f		 pop	 edi
  00065	5e		 pop	 esi
  00066	c6 40 04 01	 mov	 BYTE PTR [eax+4], 1

; 502  : 			else
; 503  : 				return (_Pairib(_Where, false));

  0006a	89 10		 mov	 DWORD PTR [eax], edx
  0006c	5d		 pop	 ebp

; 504  : 			}
; 505  : 		}

  0006d	59		 pop	 ecx
  0006e	c2 08 00	 ret	 8
$L108405:

; 497  : 			else
; 498  : 				--_Where;	// need to test if insert before is okay

  00071	e8 00 00 00 00	 call	 ?_Dec@const_iterator@?$_Tree@V?$_Tmap_traits@KPAVCTPlayer@@U?$less@K@std@@V?$allocator@U?$pair@$$CBKPAVCTPlayer@@@std@@@3@$0A@@std@@@std@@QAEXXZ ; std::_Tree<std::_Tmap_traits<unsigned long,CTPlayer *,std::less<unsigned long>,std::allocator<std::pair<unsigned long const ,CTPlayer *> >,0> >::const_iterator::_Dec
  00076	8b 54 24 18	 mov	 edx, DWORD PTR __Where$108400[esp+12]
$L117789:

; 499  : 
; 500  : 			if (this->comp(_Key(_Where._Mynode()), this->_Kfn(_Val)))

  0007a	8b 42 0c	 mov	 eax, DWORD PTR [edx+12]
  0007d	3b 45 00	 cmp	 eax, DWORD PTR [ebp]
  00080	73 26		 jae	 SHORT $L108410

; 501  : 				return (_Pairib(_Insert(_Addleft, _Wherenode, _Val), true));

  00082	8b 4c 24 0c	 mov	 ecx, DWORD PTR __Addleft$[esp+16]
  00086	55		 push	 ebp
  00087	56		 push	 esi
  00088	51		 push	 ecx
  00089	8d 54 24 24	 lea	 edx, DWORD PTR $T117697[esp+24]
  0008d	52		 push	 edx
  0008e	8b cf		 mov	 ecx, edi
  00090	e8 00 00 00 00	 call	 ?_Insert@?$_Tree@V?$_Tmap_traits@KPAVCTPlayer@@U?$less@K@std@@V?$allocator@U?$pair@$$CBKPAVCTPlayer@@@std@@@3@$0A@@std@@@std@@IAE?AViterator@12@_NPAU_Node@?$_Tree_nod@V?$_Tmap_traits@KPAVCTPlayer@@U?$less@K@std@@V?$allocator@U?$pair@$$CBKPAVCTPlayer@@@std@@@3@$0A@@std@@@2@ABU?$pair@$$CBKPAVCTPlayer@@@2@@Z ; std::_Tree<std::_Tmap_traits<unsigned long,CTPlayer *,std::less<unsigned long>,std::allocator<std::pair<unsigned long const ,CTPlayer *> >,0> >::_Insert
  00095	8b 08		 mov	 ecx, DWORD PTR [eax]
  00097	8b 44 24 14	 mov	 eax, DWORD PTR ___$ReturnUdt$[esp+12]
  0009b	5f		 pop	 edi
  0009c	5e		 pop	 esi
  0009d	89 08		 mov	 DWORD PTR [eax], ecx
  0009f	c6 40 04 01	 mov	 BYTE PTR [eax+4], 1
  000a3	5d		 pop	 ebp

; 504  : 			}
; 505  : 		}

  000a4	59		 pop	 ecx
  000a5	c2 08 00	 ret	 8
$L108410:

; 502  : 			else
; 503  : 				return (_Pairib(_Where, false));

  000a8	8b 44 24 14	 mov	 eax, DWORD PTR ___$ReturnUdt$[esp+12]
  000ac	5f		 pop	 edi
  000ad	5e		 pop	 esi
  000ae	c6 40 04 00	 mov	 BYTE PTR [eax+4], 0
  000b2	89 10		 mov	 DWORD PTR [eax], edx
  000b4	5d		 pop	 ebp

; 504  : 			}
; 505  : 		}

  000b5	59		 pop	 ecx
  000b6	c2 08 00	 ret	 8
?insert@?$_Tree@V?$_Tmap_traits@KPAVCTPlayer@@U?$less@K@std@@V?$allocator@U?$pair@$$CBKPAVCTPlayer@@@std@@@3@$0A@@std@@@std@@QAE?AU?$pair@Viterator@?$_Tree@V?$_Tmap_traits@KPAVCTPlayer@@U?$less@K@std@@V?$allocator@U?$pair@$$CBKPAVCTPlayer@@@std@@@3@$0A@@std@@@std@@_N@2@ABU?$pair@$$CBKPAVCTPlayer@@@2@@Z ENDP ; std::_Tree<std::_Tmap_traits<unsigned long,CTPlayer *,std::less<unsigned long>,std::allocator<std::pair<unsigned long const ,CTPlayer *> >,0> >::insert
_TEXT	ENDS
PUBLIC	??_C@_0BD@MMPOFLMH@Version?5Invalid?5?$CFd?$AA@	; `string'
PUBLIC	??_C@_0BB@KDGCBELI@reconnect?5?$CFd?0?5?$CFd?$AA@ ; `string'
PUBLIC	?OnCS_RELAYCHARDATA_REQ@CTRelaySvrModule@@IAEKPAUtagPACKETBUF@@@Z ; CTRelaySvrModule::OnCS_RELAYCHARDATA_REQ
EXTRN	?SendCS_RELAYCHARDATA_ACK@CTPlayer@@QAEXE@Z:NEAR ; CTPlayer::SendCS_RELAYCHARDATA_ACK
EXTRN	?ClearCharData@CTRelaySvrModule@@QAEXPAVCTPlayer@@@Z:NEAR ; CTRelaySvrModule::ClearCharData
EXTRN	?SendRW_ENTERCHAR_REQ@CTRelaySvrModule@@QAEXKV?$CStringT@DV?$StrTraitATL@DV?$ChTraitsCRT@D@ATL@@@ATL@@@ATL@@@Z:NEAR ; CTRelaySvrModule::SendRW_ENTERCHAR_REQ
;	COMDAT ??_C@_0BD@MMPOFLMH@Version?5Invalid?5?$CFd?$AA@
; File c:\program files (x86)\microsoft visual studio .net 2003\vc7\atlmfc\include\atlsimpstr.h
CONST	SEGMENT
??_C@_0BD@MMPOFLMH@Version?5Invalid?5?$CFd?$AA@ DB 'Version Invalid %d', 00H ; `string'
CONST	ENDS
;	COMDAT ??_C@_0BB@KDGCBELI@reconnect?5?$CFd?0?5?$CFd?$AA@
CONST	SEGMENT
??_C@_0BB@KDGCBELI@reconnect?5?$CFd?0?5?$CFd?$AA@ DB 'reconnect %d, %d', 00H ; `string'
; Function compile flags: /Ogty
; File c:\users\pierr\desktop\4story - oldschool\sources\tserver\trelaysvr\cshandler.cpp
CONST	ENDS
;	COMDAT ?OnCS_RELAYCHARDATA_REQ@CTRelaySvrModule@@IAEKPAUtagPACKETBUF@@@Z
_TEXT	SEGMENT
$T117828 = -16						; size = 8
_itCHAR$ = -16						; size = 4
tv227 = -8						; size = 4
$T117829 = -8						; size = 4
$T117827 = -8						; size = 8
_wVersion$ = 8						; size = 2
_pBUF$ = 8						; size = 4
?OnCS_RELAYCHARDATA_REQ@CTRelaySvrModule@@IAEKPAUtagPACKETBUF@@@Z PROC NEAR ; CTRelaySvrModule::OnCS_RELAYCHARDATA_REQ, COMDAT
; _this$ = ecx

; 157  : 	CTPlayer* pPlayer = (CTPlayer*)pBUF->m_pSESSION;

  00000	8b 44 24 04	 mov	 eax, DWORD PTR _pBUF$[esp-4]
  00004	83 ec 10	 sub	 esp, 16			; 00000010H
  00007	53		 push	 ebx
  00008	55		 push	 ebp
  00009	56		 push	 esi
  0000a	8b 30		 mov	 esi, DWORD PTR [eax]

; 158  : 	if( !pPlayer )

  0000c	85 f6		 test	 esi, esi
  0000e	57		 push	 edi
  0000f	8b d9		 mov	 ebx, ecx

; 159  : 		return EC_NOERROR;

  00011	0f 84 f7 00 00
	00		 je	 $L117912

; 160  : 
; 161  : 	WORD wVersion;	
; 162  : 
; 163  : 	pBUF->m_packet
; 164  : 		>> wVersion
; 165  : 		>> pPlayer->m_dwID
; 166  : 		>> pPlayer->m_strNAME;

  00017	8d ae 28 01 01
	00		 lea	 ebp, DWORD PTR [esi+65832]
  0001d	55		 push	 ebp
  0001e	8d be fc 00 01
	00		 lea	 edi, DWORD PTR [esi+65788]
  00024	57		 push	 edi
  00025	8d 4c 24 2c	 lea	 ecx, DWORD PTR _wVersion$[esp+36]
  00029	51		 push	 ecx
  0002a	8d 48 04	 lea	 ecx, DWORD PTR [eax+4]
  0002d	89 6c 24 24	 mov	 DWORD PTR tv227[esp+44], ebp
  00031	e8 00 00 00 00	 call	 ??5CPacket@@QAEAAV0@AAG@Z ; CPacket::operator>>
  00036	8b c8		 mov	 ecx, eax
  00038	e8 00 00 00 00	 call	 ??5CPacket@@QAEAAV0@AAK@Z ; CPacket::operator>>
  0003d	8b c8		 mov	 ecx, eax
  0003f	e8 00 00 00 00	 call	 ??5CPacket@@QAEAAV0@AAV?$CStringT@DV?$StrTraitATL@DV?$ChTraitsCRT@D@ATL@@@ATL@@@ATL@@@Z ; CPacket::operator>>

; 167  : 
; 168  : 	if( wVersion != TVERSION )

  00044	66 81 7c 24 24
	26 10		 cmp	 WORD PTR _wVersion$[esp+28], 4134 ; 00001026H
  0004b	74 29		 je	 SHORT $L107636

; 169  : 	{
; 170  : 		LogEvent("Version Invalid %d", pPlayer->m_dwID);

  0004d	8b 17		 mov	 edx, DWORD PTR [edi]
  0004f	52		 push	 edx
  00050	68 00 00 00 00	 push	 OFFSET FLAT:??_C@_0BD@MMPOFLMH@Version?5Invalid?5?$CFd?$AA@
  00055	53		 push	 ebx
  00056	e8 00 00 00 00	 call	 ?LogEvent@?$CAtlServiceModuleT@VCTRelaySvrModule@@$0GE@@ATL@@QAAXPBDZZ ; ATL::CAtlServiceModuleT<CTRelaySvrModule,100>::LogEvent
  0005b	83 c4 0c	 add	 esp, 12			; 0000000cH

; 171  : 		pPlayer->SendCS_RELAYCHARDATA_ACK(FALSE);

  0005e	6a 00		 push	 0
  00060	8b ce		 mov	 ecx, esi
  00062	e8 00 00 00 00	 call	 ?SendCS_RELAYCHARDATA_ACK@CTPlayer@@QAEXE@Z ; CTPlayer::SendCS_RELAYCHARDATA_ACK

; 172  : 
; 173  : 		return EC_SESSION_INVALIDCHAR;

  00067	b8 02 00 00 02	 mov	 eax, 33554434		; 02000002H

; 189  : 
; 190  : 	return EC_NOERROR;
; 191  : }

  0006c	5f		 pop	 edi
  0006d	5e		 pop	 esi
  0006e	5d		 pop	 ebp
  0006f	5b		 pop	 ebx
  00070	83 c4 10	 add	 esp, 16			; 00000010H
  00073	c2 04 00	 ret	 4
$L107636:

; 174  : 	}
; 175  : 
; 176  : 	MAPPLAYER::iterator itCHAR = m_mapPLAYER.find(pPlayer->m_dwID);

  00076	57		 push	 edi
  00077	8d 44 24 14	 lea	 eax, DWORD PTR _itCHAR$[esp+36]
  0007b	8d 8b 74 01 00
	00		 lea	 ecx, DWORD PTR [ebx+372]
  00081	50		 push	 eax
  00082	e8 00 00 00 00	 call	 ?find@?$_Tree@V?$_Tmap_traits@KPAVCTPlayer@@U?$less@K@std@@V?$allocator@U?$pair@$$CBKPAVCTPlayer@@@std@@@3@$0A@@std@@@std@@QAE?AViterator@12@ABK@Z ; std::_Tree<std::_Tmap_traits<unsigned long,CTPlayer *,std::less<unsigned long>,std::allocator<std::pair<unsigned long const ,CTPlayer *> >,0> >::find

; 177  : 	if( itCHAR != m_mapPLAYER.end() )

  00087	8b 44 24 10	 mov	 eax, DWORD PTR _itCHAR$[esp+32]
  0008b	3b 83 78 01 00
	00		 cmp	 eax, DWORD PTR [ebx+376]
  00091	74 30		 je	 SHORT $L107641

; 178  : 	{
; 179  : 		CTPlayer * pChar = (*itCHAR).second;
; 180  : 		LogEvent("reconnect %d, %d", pPlayer->m_dwID, pPlayer->m_bAuthorized);

  00093	0f b6 8e 26 01
	01 00		 movzx	 ecx, BYTE PTR [esi+65830]
  0009a	8b 17		 mov	 edx, DWORD PTR [edi]
  0009c	8b 68 10	 mov	 ebp, DWORD PTR [eax+16]
  0009f	51		 push	 ecx
  000a0	52		 push	 edx
  000a1	68 00 00 00 00	 push	 OFFSET FLAT:??_C@_0BB@KDGCBELI@reconnect?5?$CFd?0?5?$CFd?$AA@
  000a6	53		 push	 ebx
  000a7	e8 00 00 00 00	 call	 ?LogEvent@?$CAtlServiceModuleT@VCTRelaySvrModule@@$0GE@@ATL@@QAAXPBDZZ ; ATL::CAtlServiceModuleT<CTRelaySvrModule,100>::LogEvent
  000ac	83 c4 10	 add	 esp, 16			; 00000010H

; 181  : 		ClearCharData(pChar);

  000af	55		 push	 ebp
  000b0	8b cb		 mov	 ecx, ebx
  000b2	e8 00 00 00 00	 call	 ?ClearCharData@CTRelaySvrModule@@QAEXPAVCTPlayer@@@Z ; CTRelaySvrModule::ClearCharData

; 182  : 		CloseSession(pChar);

  000b7	55		 push	 ebp
  000b8	8b cb		 mov	 ecx, ebx
  000ba	e8 00 00 00 00	 call	 ?CloseSession@CTRelaySvrModule@@IAEXPAVCTRelaySession@@@Z ; CTRelaySvrModule::CloseSession
  000bf	8b 6c 24 18	 mov	 ebp, DWORD PTR tv227[esp+32]
$L107641:

; 183  : 	}
; 184  : 
; 185  : 	pPlayer->m_dwAcceptTick = 0;
; 186  : 
; 187  : 	m_mapPLAYER.insert( MAPPLAYER::value_type( pPlayer->m_dwID, pPlayer));

  000c3	8d 4c 24 18	 lea	 ecx, DWORD PTR $T117827[esp+32]
  000c7	51		 push	 ecx
  000c8	c7 46 1c 00 00
	00 00		 mov	 DWORD PTR [esi+28], 0
  000cf	8b 07		 mov	 eax, DWORD PTR [edi]
  000d1	8d 54 24 14	 lea	 edx, DWORD PTR $T117828[esp+36]
  000d5	52		 push	 edx
  000d6	8d 8b 74 01 00
	00		 lea	 ecx, DWORD PTR [ebx+372]
  000dc	89 44 24 20	 mov	 DWORD PTR $T117827[esp+40], eax
  000e0	89 74 24 24	 mov	 DWORD PTR $T117827[esp+44], esi
  000e4	e8 00 00 00 00	 call	 ?insert@?$_Tree@V?$_Tmap_traits@KPAVCTPlayer@@U?$less@K@std@@V?$allocator@U?$pair@$$CBKPAVCTPlayer@@@std@@@3@$0A@@std@@@std@@QAE?AU?$pair@Viterator@?$_Tree@V?$_Tmap_traits@KPAVCTPlayer@@U?$less@K@std@@V?$allocator@U?$pair@$$CBKPAVCTPlayer@@@std@@@3@$0A@@std@@@std@@_N@2@ABU?$pair@$$CBKPAVCTPlayer@@@2@@Z ; std::_Tree<std::_Tmap_traits<unsigned long,CTPlayer *,std::less<unsigned long>,std::allocator<std::pair<unsigned long const ,CTPlayer *> >,0> >::insert

; 188  : 	SendRW_ENTERCHAR_REQ(pPlayer->m_dwID, pPlayer->m_strNAME);

  000e9	8b 45 00	 mov	 eax, DWORD PTR [ebp]
  000ec	51		 push	 ecx
  000ed	83 e8 10	 sub	 eax, 16			; 00000010H
  000f0	89 64 24 1c	 mov	 DWORD PTR $T117829[esp+36], esp
  000f4	8b f4		 mov	 esi, esp
  000f6	50		 push	 eax
  000f7	e8 00 00 00 00	 call	 ?CloneData@?$CSimpleStringT@D$0A@@ATL@@CAPAUCStringData@2@PAU32@@Z ; ATL::CSimpleStringT<char,0>::CloneData
  000fc	83 c0 10	 add	 eax, 16			; 00000010H
  000ff	89 06		 mov	 DWORD PTR [esi], eax
  00101	8b 07		 mov	 eax, DWORD PTR [edi]
  00103	83 c4 04	 add	 esp, 4
  00106	50		 push	 eax
  00107	8b cb		 mov	 ecx, ebx
  00109	e8 00 00 00 00	 call	 ?SendRW_ENTERCHAR_REQ@CTRelaySvrModule@@QAEXKV?$CStringT@DV?$StrTraitATL@DV?$ChTraitsCRT@D@ATL@@@ATL@@@ATL@@@Z ; CTRelaySvrModule::SendRW_ENTERCHAR_REQ
$L117912:

; 189  : 
; 190  : 	return EC_NOERROR;
; 191  : }

  0010e	5f		 pop	 edi
  0010f	5e		 pop	 esi
  00110	5d		 pop	 ebp
  00111	33 c0		 xor	 eax, eax
  00113	5b		 pop	 ebx
  00114	83 c4 10	 add	 esp, 16			; 00000010H
  00117	c2 04 00	 ret	 4
?OnCS_RELAYCHARDATA_REQ@CTRelaySvrModule@@IAEKPAUtagPACKETBUF@@@Z ENDP ; CTRelaySvrModule::OnCS_RELAYCHARDATA_REQ
_TEXT	ENDS
END
