; Listing generated by Microsoft (R) Optimizing Compiler Version 13.10.3077 

	TITLE	.\DBAccess.cpp
	.386P
include listing.inc
if @Version gt 510
.model FLAT
else
_TEXT	SEGMENT PARA USE32 PUBLIC 'CODE'
_TEXT	ENDS
_DATA	SEGMENT DWORD USE32 PUBLIC 'DATA'
_DATA	ENDS
CONST	SEGMENT DWORD USE32 PUBLIC 'CONST'
CONST	ENDS
_BSS	SEGMENT DWORD USE32 PUBLIC 'BSS'
_BSS	ENDS
$$SYMBOLS	SEGMENT BYTE USE32 'DEBSYM'
$$SYMBOLS	ENDS
$$TYPES	SEGMENT BYTE USE32 'DEBTYP'
$$TYPES	ENDS
_TLS	SEGMENT DWORD USE32 PUBLIC 'TLS'
_TLS	ENDS
;	COMDAT ??_C@_0M@NMPMFOM@CTBLMachine?$AA@
CONST	SEGMENT DWORD USE32 PUBLIC 'CONST'
CONST	ENDS
;	COMDAT ??_C@_0M@CFLIPMCK@CTBLNetwork?$AA@
CONST	SEGMENT DWORD USE32 PUBLIC 'CONST'
CONST	ENDS
;	COMDAT ??_C@_09CBFKFMKO@CTBLGroup?$AA@
CONST	SEGMENT DWORD USE32 PUBLIC 'CONST'
CONST	ENDS
;	COMDAT ??_C@_0M@CMHNBJOJ@CTBLSvrType?$AA@
CONST	SEGMENT DWORD USE32 PUBLIC 'CONST'
CONST	ENDS
;	COMDAT ??_C@_0L@DBCMNIHP@CTBLServer?$AA@
CONST	SEGMENT DWORD USE32 PUBLIC 'CONST'
CONST	ENDS
;	COMDAT ??_C@_0L@LLGGLKJE@CTBLIPAddr?$AA@
CONST	SEGMENT DWORD USE32 PUBLIC 'CONST'
CONST	ENDS
;	COMDAT ??_C@_0M@FFEIKIAH@CTBLManager?$AA@
CONST	SEGMENT DWORD USE32 PUBLIC 'CONST'
CONST	ENDS
;	COMDAT ??_C@_09ICLADCJE@CTBLEvent?$AA@
CONST	SEGMENT DWORD USE32 PUBLIC 'CONST'
CONST	ENDS
;	COMDAT ??_C@_0P@PFMHOGAK@CTBLPreVersion?$AA@
CONST	SEGMENT DWORD USE32 PUBLIC 'CONST'
CONST	ENDS
;	COMDAT ??_C@_0P@DCAEHDBG@CSPUpdatePatch?$AA@
CONST	SEGMENT DWORD USE32 PUBLIC 'CONST'
CONST	ENDS
;	COMDAT ??_C@_0BE@MFEICKNN@CSPUserProtectedAdd?$AA@
CONST	SEGMENT DWORD USE32 PUBLIC 'CONST'
CONST	ENDS
;	COMDAT ??_C@_0BA@FLJPGKEH@CSPSvrStatusSMS?$AA@
CONST	SEGMENT DWORD USE32 PUBLIC 'CONST'
CONST	ENDS
;	COMDAT ??_C@_0P@EOMPGPJC@CSPLoadService?$AA@
CONST	SEGMENT DWORD USE32 PUBLIC 'CONST'
CONST	ENDS
;	COMDAT ??_C@_0L@FBLKCHIB@CSPOPLogin?$AA@
CONST	SEGMENT DWORD USE32 PUBLIC 'CONST'
CONST	ENDS
;	COMDAT ??_C@_0P@EKPNLDEH@CSPEventUpdate?$AA@
CONST	SEGMENT DWORD USE32 PUBLIC 'CONST'
CONST	ENDS
;	COMDAT ??_C@_0BB@CKCJFDDH@CTBLCashShopItem?$AA@
CONST	SEGMENT DWORD USE32 PUBLIC 'CONST'
CONST	ENDS
;	COMDAT ??_C@_0BC@KEFPCEAB@CSPUpdatePrePatch?$AA@
CONST	SEGMENT DWORD USE32 PUBLIC 'CONST'
CONST	ENDS
;	COMDAT ??_C@_0N@HLPJDCDB@CSPBetaToVer?$AA@
CONST	SEGMENT DWORD USE32 PUBLIC 'CONST'
CONST	ENDS
;	COMDAT ??_C@_0BE@HLGEHHLP@CSPDeletePreVersion?$AA@
CONST	SEGMENT DWORD USE32 PUBLIC 'CONST'
CONST	ENDS
text$yc	SEGMENT PARA USE32 PUBLIC 'CODE'
text$yc	ENDS
CRT$XCA	SEGMENT DWORD USE32 PUBLIC 'DATA'
CRT$XCA	ENDS
CRT$XCU	SEGMENT DWORD USE32 PUBLIC 'DATA'
CRT$XCU	ENDS
CRT$XCL	SEGMENT DWORD USE32 PUBLIC 'DATA'
CRT$XCL	ENDS
CRT$XCC	SEGMENT DWORD USE32 PUBLIC 'DATA'
CRT$XCC	ENDS
CRT$XCZ	SEGMENT DWORD USE32 PUBLIC 'DATA'
CRT$XCZ	ENDS
text$yd	SEGMENT PARA USE32 PUBLIC 'CODE'
text$yd	ENDS
ATL$__m	SEGMENT DWORD USE32 PUBLIC ''
ATL$__m	ENDS
ATL$__z	SEGMENT DWORD USE32 PUBLIC ''
ATL$__z	ENDS
ATL$__a	SEGMENT DWORD USE32 PUBLIC ''
ATL$__a	ENDS
xdata$x	SEGMENT DWORD USE32 PUBLIC 'CONST'
xdata$x	ENDS
;	COMDAT ?InitQueryTControlSvr@@YAHPAVCSqlDatabase@@@Z
_TEXT	SEGMENT PARA USE32 PUBLIC 'CODE'
_TEXT	ENDS
;	COMDAT ?Unlock@?$CComCritSecLock@VCComCriticalSection@ATL@@@ATL@@QAEXXZ
_TEXT	SEGMENT PARA USE32 PUBLIC 'CODE'
_TEXT	ENDS
;	COMDAT ??$_Uninit_fill_n@GIG@std@@YAXPAGIABGAAV?$allocator@G@0@U_Scalar_ptr_iterator_tag@0@@Z
_TEXT	SEGMENT PARA USE32 PUBLIC 'CODE'
_TEXT	ENDS
;	COMDAT ??$_Ptr_cat@PAUtagTCASHITEMSALE@@PAU1@@std@@YA?AU_Nonscalar_ptr_iterator_tag@0@AAPAUtagTCASHITEMSALE@@0@Z
_TEXT	SEGMENT PARA USE32 PUBLIC 'CODE'
_TEXT	ENDS
;	COMDAT ??$_Uninit_fill_n@PAUtagTCASHITEMSALE@@IU1@V?$allocator@UtagTCASHITEMSALE@@@std@@@std@@YAXPAUtagTCASHITEMSALE@@IABU1@AAV?$allocator@UtagTCASHITEMSALE@@@0@U_Nonscalar_ptr_iterator_tag@0@@Z
_TEXT	SEGMENT PARA USE32 PUBLIC 'CODE'
_TEXT	ENDS
;	COMDAT ??$_Ptr_cat@PAUtagMONREGEN@@PAU1@@std@@YA?AU_Nonscalar_ptr_iterator_tag@0@AAPAUtagMONREGEN@@0@Z
_TEXT	SEGMENT PARA USE32 PUBLIC 'CODE'
_TEXT	ENDS
;	COMDAT ??$_Uninit_fill_n@PAUtagMONREGEN@@IU1@V?$allocator@UtagMONREGEN@@@std@@@std@@YAXPAUtagMONREGEN@@IABU1@AAV?$allocator@UtagMONREGEN@@@0@U_Nonscalar_ptr_iterator_tag@0@@Z
_TEXT	SEGMENT PARA USE32 PUBLIC 'CODE'
_TEXT	ENDS
;	COMDAT ??$_Ptr_cat@PAUtagLOTTERY@@PAU1@@std@@YA?AU_Nonscalar_ptr_iterator_tag@0@AAPAUtagLOTTERY@@0@Z
_TEXT	SEGMENT PARA USE32 PUBLIC 'CODE'
_TEXT	ENDS
;	COMDAT ??$_Uninit_fill_n@PAUtagLOTTERY@@IU1@V?$allocator@UtagLOTTERY@@@std@@@std@@YAXPAUtagLOTTERY@@IABU1@AAV?$allocator@UtagLOTTERY@@@0@U_Nonscalar_ptr_iterator_tag@0@@Z
_TEXT	SEGMENT PARA USE32 PUBLIC 'CODE'
_TEXT	ENDS
;	COMDAT ??$_Destroy_range@GV?$allocator@G@std@@@std@@YAXPAG0AAV?$allocator@G@0@U_Scalar_ptr_iterator_tag@0@@Z
_TEXT	SEGMENT PARA USE32 PUBLIC 'CODE'
_TEXT	ENDS
;	COMDAT ??$_Uninitialized_copy@PAGPAGV?$allocator@G@std@@@std@@YAPAGPAG00AAV?$allocator@G@0@@Z
_TEXT	SEGMENT PARA USE32 PUBLIC 'CODE'
_TEXT	ENDS
;	COMDAT ??$_Copy_backward_opt@PAGPAG@std@@YAPAGPAG00U_Scalar_ptr_iterator_tag@0@@Z
_TEXT	SEGMENT PARA USE32 PUBLIC 'CODE'
_TEXT	ENDS
;	COMDAT ??$_Destroy_range@UtagTCASHITEMSALE@@V?$allocator@UtagTCASHITEMSALE@@@std@@@std@@YAXPAUtagTCASHITEMSALE@@0AAV?$allocator@UtagTCASHITEMSALE@@@0@U_Nonscalar_ptr_iterator_tag@0@@Z
_TEXT	SEGMENT PARA USE32 PUBLIC 'CODE'
_TEXT	ENDS
;	COMDAT ??$_Uninitialized_copy@PAUtagTCASHITEMSALE@@PAU1@V?$allocator@UtagTCASHITEMSALE@@@std@@@std@@YAPAUtagTCASHITEMSALE@@PAU1@00AAV?$allocator@UtagTCASHITEMSALE@@@0@@Z
_TEXT	SEGMENT PARA USE32 PUBLIC 'CODE'
_TEXT	ENDS
;	COMDAT ??$_Copy_backward_opt@PAUtagTCASHITEMSALE@@PAU1@@std@@YAPAUtagTCASHITEMSALE@@PAU1@00U_Nonscalar_ptr_iterator_tag@0@@Z
_TEXT	SEGMENT PARA USE32 PUBLIC 'CODE'
_TEXT	ENDS
;	COMDAT ??$_Destroy_range@UtagMONREGEN@@V?$allocator@UtagMONREGEN@@@std@@@std@@YAXPAUtagMONREGEN@@0AAV?$allocator@UtagMONREGEN@@@0@U_Nonscalar_ptr_iterator_tag@0@@Z
_TEXT	SEGMENT PARA USE32 PUBLIC 'CODE'
_TEXT	ENDS
;	COMDAT ??$_Uninitialized_copy@PAUtagMONREGEN@@PAU1@V?$allocator@UtagMONREGEN@@@std@@@std@@YAPAUtagMONREGEN@@PAU1@00AAV?$allocator@UtagMONREGEN@@@0@@Z
_TEXT	SEGMENT PARA USE32 PUBLIC 'CODE'
_TEXT	ENDS
;	COMDAT ??$_Copy_backward_opt@PAUtagMONREGEN@@PAU1@@std@@YAPAUtagMONREGEN@@PAU1@00U_Nonscalar_ptr_iterator_tag@0@@Z
_TEXT	SEGMENT PARA USE32 PUBLIC 'CODE'
_TEXT	ENDS
;	COMDAT ??$_Destroy_range@UtagLOTTERY@@V?$allocator@UtagLOTTERY@@@std@@@std@@YAXPAUtagLOTTERY@@0AAV?$allocator@UtagLOTTERY@@@0@U_Nonscalar_ptr_iterator_tag@0@@Z
_TEXT	SEGMENT PARA USE32 PUBLIC 'CODE'
_TEXT	ENDS
;	COMDAT ??$_Uninitialized_copy@PAUtagLOTTERY@@PAU1@V?$allocator@UtagLOTTERY@@@std@@@std@@YAPAUtagLOTTERY@@PAU1@00AAV?$allocator@UtagLOTTERY@@@0@@Z
_TEXT	SEGMENT PARA USE32 PUBLIC 'CODE'
_TEXT	ENDS
;	COMDAT ??$_Copy_backward_opt@PAUtagLOTTERY@@PAU1@@std@@YAPAUtagLOTTERY@@PAU1@00U_Nonscalar_ptr_iterator_tag@0@@Z
_TEXT	SEGMENT PARA USE32 PUBLIC 'CODE'
_TEXT	ENDS
;	COMDAT ?construct@?$allocator@UtagTCASHITEMSALE@@@std@@QAEXPAUtagTCASHITEMSALE@@ABU3@@Z
_TEXT	SEGMENT PARA USE32 PUBLIC 'CODE'
_TEXT	ENDS
;	COMDAT ?destroy@?$allocator@UtagTCASHITEMSALE@@@std@@QAEXPAUtagTCASHITEMSALE@@@Z
_TEXT	SEGMENT PARA USE32 PUBLIC 'CODE'
_TEXT	ENDS
;	COMDAT ?construct@?$allocator@UtagMONREGEN@@@std@@QAEXPAUtagMONREGEN@@ABU3@@Z
_TEXT	SEGMENT PARA USE32 PUBLIC 'CODE'
_TEXT	ENDS
;	COMDAT ?destroy@?$allocator@UtagMONREGEN@@@std@@QAEXPAUtagMONREGEN@@@Z
_TEXT	SEGMENT PARA USE32 PUBLIC 'CODE'
_TEXT	ENDS
;	COMDAT ?construct@?$allocator@UtagLOTTERY@@@std@@QAEXPAUtagLOTTERY@@ABU3@@Z
_TEXT	SEGMENT PARA USE32 PUBLIC 'CODE'
_TEXT	ENDS
;	COMDAT ?destroy@?$allocator@UtagLOTTERY@@@std@@QAEXPAUtagLOTTERY@@@Z
_TEXT	SEGMENT PARA USE32 PUBLIC 'CODE'
_TEXT	ENDS
;	COMDAT ??$fill_n@PAGIG@std@@YAXPAGIABG@Z
_TEXT	SEGMENT PARA USE32 PUBLIC 'CODE'
_TEXT	ENDS
;	COMDAT ??$_Uninit_copy@GG@std@@YAPAGPAG00AAV?$allocator@G@0@U_Scalar_ptr_iterator_tag@0@@Z
_TEXT	SEGMENT PARA USE32 PUBLIC 'CODE'
_TEXT	ENDS
;	COMDAT ??$_Uninit_copy@PAUtagTCASHITEMSALE@@PAU1@V?$allocator@UtagTCASHITEMSALE@@@std@@@std@@YAPAUtagTCASHITEMSALE@@PAU1@00AAV?$allocator@UtagTCASHITEMSALE@@@0@U_Nonscalar_ptr_iterator_tag@0@@Z
_TEXT	SEGMENT PARA USE32 PUBLIC 'CODE'
_TEXT	ENDS
;	COMDAT ??$_Uninit_copy@PAUtagMONREGEN@@PAU1@V?$allocator@UtagMONREGEN@@@std@@@std@@YAPAUtagMONREGEN@@PAU1@00AAV?$allocator@UtagMONREGEN@@@0@U_Nonscalar_ptr_iterator_tag@0@@Z
_TEXT	SEGMENT PARA USE32 PUBLIC 'CODE'
_TEXT	ENDS
;	COMDAT ??$_Uninit_copy@PAUtagLOTTERY@@PAU1@V?$allocator@UtagLOTTERY@@@std@@@std@@YAPAUtagLOTTERY@@PAU1@00AAV?$allocator@UtagLOTTERY@@@0@U_Nonscalar_ptr_iterator_tag@0@@Z
_TEXT	SEGMENT PARA USE32 PUBLIC 'CODE'
_TEXT	ENDS
;	COMDAT ??$_Construct@UtagTCASHITEMSALE@@U1@@std@@YAXPAUtagTCASHITEMSALE@@ABU1@@Z
_TEXT	SEGMENT PARA USE32 PUBLIC 'CODE'
_TEXT	ENDS
;	COMDAT ??$_Destroy@UtagTCASHITEMSALE@@@std@@YAXPAUtagTCASHITEMSALE@@@Z
_TEXT	SEGMENT PARA USE32 PUBLIC 'CODE'
_TEXT	ENDS
;	COMDAT ??$_Construct@UtagMONREGEN@@U1@@std@@YAXPAUtagMONREGEN@@ABU1@@Z
_TEXT	SEGMENT PARA USE32 PUBLIC 'CODE'
_TEXT	ENDS
;	COMDAT ??$_Destroy@UtagMONREGEN@@@std@@YAXPAUtagMONREGEN@@@Z
_TEXT	SEGMENT PARA USE32 PUBLIC 'CODE'
_TEXT	ENDS
;	COMDAT ??$_Construct@UtagLOTTERY@@U1@@std@@YAXPAUtagLOTTERY@@ABU1@@Z
_TEXT	SEGMENT PARA USE32 PUBLIC 'CODE'
_TEXT	ENDS
;	COMDAT ??$_Destroy@UtagLOTTERY@@@std@@YAXPAUtagLOTTERY@@@Z
_TEXT	SEGMENT PARA USE32 PUBLIC 'CODE'
_TEXT	ENDS
;	COMDAT ??2@YAPAXIPAX@Z
_TEXT	SEGMENT PARA USE32 PUBLIC 'CODE'
_TEXT	ENDS
;	COMDAT ?_Ptr_cat@std@@YA?AU_Scalar_ptr_iterator_tag@1@PAG0@Z
_TEXT	SEGMENT PARA USE32 PUBLIC 'CODE'
_TEXT	ENDS
;	COMDAT ?_Psave@?$_Facetptr@V?$ctype@G@std@@@std@@2PBVfacet@locale@2@B
_DATA	SEGMENT DWORD USE32 PUBLIC 'DATA'
_DATA	ENDS
;	COMDAT ?_Psave@?$_Facetptr@V?$ctype@D@std@@@std@@2PBVfacet@locale@2@B
_DATA	SEGMENT DWORD USE32 PUBLIC 'DATA'
_DATA	ENDS
;	COMDAT ?Unlock@CComCriticalSection@ATL@@QAEJXZ
_TEXT	SEGMENT PARA USE32 PUBLIC 'CODE'
_TEXT	ENDS
;	COMDAT ??0CSPDeletePreVersion@@QAE@PAVCSqlDatabase@@V?$basic_string@DU?$char_traits@D@std@@V?$allocator@D@2@@std@@@Z
_TEXT	SEGMENT PARA USE32 PUBLIC 'CODE'
_TEXT	ENDS
;	COMDAT ??_C@_0CB@KIOFIDDC@?$HL?5?$DP?5?$DN?5CALL?5TDeletePreVersion?$CI?$DP?$CJ?$HN@
CONST	SEGMENT DWORD USE32 PUBLIC 'CONST'
CONST	ENDS
;	COMDAT ??0?$basic_string@DU?$char_traits@D@std@@V?$allocator@D@2@@std@@QAE@ABV01@@Z
_TEXT	SEGMENT PARA USE32 PUBLIC 'CODE'
_TEXT	ENDS
;	COMDAT ??0?$_String_val@DV?$allocator@D@std@@@std@@IAE@V?$allocator@D@1@@Z
_TEXT	SEGMENT PARA USE32 PUBLIC 'CODE'
_TEXT	ENDS
;	COMDAT ??0?$allocator@D@std@@QAE@ABV01@@Z
_TEXT	SEGMENT PARA USE32 PUBLIC 'CODE'
_TEXT	ENDS
;	COMDAT ?_Tidy@?$basic_string@DU?$char_traits@D@std@@V?$allocator@D@2@@std@@IAEX_NI@Z
_TEXT	SEGMENT PARA USE32 PUBLIC 'CODE'
_TEXT	ENDS
;	COMDAT ?copy@?$char_traits@D@std@@SAPADPADPBDI@Z
_TEXT	SEGMENT PARA USE32 PUBLIC 'CODE'
_TEXT	ENDS
;	COMDAT ?deallocate@?$allocator@D@std@@QAEXPADI@Z
_TEXT	SEGMENT PARA USE32 PUBLIC 'CODE'
_TEXT	ENDS
;	COMDAT ?_Eos@?$basic_string@DU?$char_traits@D@std@@V?$allocator@D@2@@std@@IAEXI@Z
_TEXT	SEGMENT PARA USE32 PUBLIC 'CODE'
_TEXT	ENDS
;	COMDAT ?assign@?$char_traits@D@std@@SAXAADABD@Z
_TEXT	SEGMENT PARA USE32 PUBLIC 'CODE'
_TEXT	ENDS
;	COMDAT ?_Myptr@?$basic_string@DU?$char_traits@D@std@@V?$allocator@D@2@@std@@QAEPADXZ
_TEXT	SEGMENT PARA USE32 PUBLIC 'CODE'
_TEXT	ENDS
;	COMDAT ?assign@?$basic_string@DU?$char_traits@D@std@@V?$allocator@D@2@@std@@QAEAAV12@ABV12@II@Z
_TEXT	SEGMENT PARA USE32 PUBLIC 'CODE'
_TEXT	ENDS
;	COMDAT ?size@?$basic_string@DU?$char_traits@D@std@@V?$allocator@D@2@@std@@QBEIXZ
_TEXT	SEGMENT PARA USE32 PUBLIC 'CODE'
_TEXT	ENDS
;	COMDAT ?erase@?$basic_string@DU?$char_traits@D@std@@V?$allocator@D@2@@std@@QAEAAV12@II@Z
_TEXT	SEGMENT PARA USE32 PUBLIC 'CODE'
_TEXT	ENDS
;	COMDAT ?move@?$char_traits@D@std@@SAPADPADPBDI@Z
_TEXT	SEGMENT PARA USE32 PUBLIC 'CODE'
_TEXT	ENDS
;	COMDAT ?_Grow@?$basic_string@DU?$char_traits@D@std@@V?$allocator@D@2@@std@@IAE_NI_N@Z
_TEXT	SEGMENT PARA USE32 PUBLIC 'CODE'
_TEXT	ENDS
;	COMDAT ?max_size@?$basic_string@DU?$char_traits@D@std@@V?$allocator@D@2@@std@@QBEIXZ
_TEXT	SEGMENT PARA USE32 PUBLIC 'CODE'
_TEXT	ENDS
;	COMDAT ?max_size@?$allocator@D@std@@QBEIXZ
_TEXT	SEGMENT PARA USE32 PUBLIC 'CODE'
_TEXT	ENDS
;	COMDAT ?_Copy@?$basic_string@DU?$char_traits@D@std@@V?$allocator@D@2@@std@@IAEXII@Z
_TEXT	SEGMENT PARA USE32 PUBLIC 'CODE'
_TEXT	ENDS
;	COMDAT ?allocate@?$allocator@D@std@@QAEPADI@Z
_TEXT	SEGMENT PARA USE32 PUBLIC 'CODE'
_TEXT	ENDS
;	COMDAT ??$_Allocate@D@std@@YAPADIPAD@Z
_TEXT	SEGMENT PARA USE32 PUBLIC 'CODE'
_TEXT	ENDS
;	COMDAT ?_Myptr@?$basic_string@DU?$char_traits@D@std@@V?$allocator@D@2@@std@@QBEPBDXZ
_TEXT	SEGMENT PARA USE32 PUBLIC 'CODE'
_TEXT	ENDS
;	COMDAT ?npos@?$basic_string@DU?$char_traits@D@std@@V?$allocator@D@2@@std@@2IB
CONST	SEGMENT DWORD USE32 PUBLIC 'CONST'
CONST	ENDS
;	COMDAT ??_7CSPDeletePreVersion@@6B@
CONST	SEGMENT DWORD USE32 PUBLIC 'CONST'
CONST	ENDS
;	COMDAT ??_GCSPDeletePreVersion@@UAEPAXI@Z
_TEXT	SEGMENT PARA USE32 PUBLIC 'CODE'
_TEXT	ENDS
;	COMDAT ??1CSPDeletePreVersion@@UAE@XZ
_TEXT	SEGMENT PARA USE32 PUBLIC 'CODE'
_TEXT	ENDS
;	COMDAT ?GetNumParam@CSPDeletePreVersion@@UAEHXZ
_TEXT	SEGMENT PARA USE32 PUBLIC 'CODE'
_TEXT	ENDS
;	COMDAT ?BindParameters@CSPDeletePreVersion@@UAEFH@Z
_TEXT	SEGMENT PARA USE32 PUBLIC 'CODE'
_TEXT	ENDS
;	COMDAT ??0CSPBetaToVer@@QAE@PAVCSqlDatabase@@V?$basic_string@DU?$char_traits@D@std@@V?$allocator@D@2@@std@@@Z
_TEXT	SEGMENT PARA USE32 PUBLIC 'CODE'
_TEXT	ENDS
;	COMDAT ??_C@_0BO@IKNPNFPF@?$HL?5?$DP?5?$DN?5CALL?5TBetaToVersion?$CI?$DP?$CJ?$HN?$AA@
CONST	SEGMENT DWORD USE32 PUBLIC 'CONST'
CONST	ENDS
;	COMDAT ??_7CSPBetaToVer@@6B@
CONST	SEGMENT DWORD USE32 PUBLIC 'CONST'
CONST	ENDS
;	COMDAT ??_GCSPBetaToVer@@UAEPAXI@Z
_TEXT	SEGMENT PARA USE32 PUBLIC 'CODE'
_TEXT	ENDS
;	COMDAT ??1CSPBetaToVer@@UAE@XZ
_TEXT	SEGMENT PARA USE32 PUBLIC 'CODE'
_TEXT	ENDS
;	COMDAT ?GetNumParam@CSPBetaToVer@@UAEHXZ
_TEXT	SEGMENT PARA USE32 PUBLIC 'CODE'
_TEXT	ENDS
;	COMDAT ?BindParameters@CSPBetaToVer@@UAEFH@Z
_TEXT	SEGMENT PARA USE32 PUBLIC 'CODE'
_TEXT	ENDS
;	COMDAT ??0CSPUpdatePrePatch@@QAE@PAVCSqlDatabase@@V?$basic_string@DU?$char_traits@D@std@@V?$allocator@D@2@@std@@@Z
_TEXT	SEGMENT PARA USE32 PUBLIC 'CODE'
_TEXT	ENDS
;	COMDAT ??_C@_0CF@GFEFIOGF@?$HL?5?$DP?5?$DN?5CALL?5TUpdatePreVersion?$CI?$DP?0?$DP@
CONST	SEGMENT DWORD USE32 PUBLIC 'CONST'
CONST	ENDS
;	COMDAT ??_7CSPUpdatePrePatch@@6B@
CONST	SEGMENT DWORD USE32 PUBLIC 'CONST'
CONST	ENDS
;	COMDAT ??_GCSPUpdatePrePatch@@UAEPAXI@Z
_TEXT	SEGMENT PARA USE32 PUBLIC 'CODE'
_TEXT	ENDS
;	COMDAT ??1CSPUpdatePrePatch@@UAE@XZ
_TEXT	SEGMENT PARA USE32 PUBLIC 'CODE'
_TEXT	ENDS
;	COMDAT ?GetNumParam@CSPUpdatePrePatch@@UAEHXZ
_TEXT	SEGMENT PARA USE32 PUBLIC 'CODE'
_TEXT	ENDS
;	COMDAT ?BindParameters@CSPUpdatePrePatch@@UAEFH@Z
_TEXT	SEGMENT PARA USE32 PUBLIC 'CODE'
_TEXT	ENDS
;	COMDAT ??0CTBLCashShopItem@@QAE@PAVCSqlDatabase@@V?$basic_string@DU?$char_traits@D@std@@V?$allocator@D@2@@std@@@Z
_TEXT	SEGMENT PARA USE32 PUBLIC 'CODE'
_TEXT	ENDS
;	COMDAT ??_C@_0EC@COMPOKEK@SELECT?5?7wID?0?5?7szName?5?7FROM?5TCASH@
CONST	SEGMENT DWORD USE32 PUBLIC 'CONST'
CONST	ENDS
;	COMDAT ??_7CTBLCashShopItem@@6B@
CONST	SEGMENT DWORD USE32 PUBLIC 'CONST'
CONST	ENDS
;	COMDAT ??_GCTBLCashShopItem@@UAEPAXI@Z
_TEXT	SEGMENT PARA USE32 PUBLIC 'CODE'
_TEXT	ENDS
;	COMDAT ??1CTBLCashShopItem@@UAE@XZ
_TEXT	SEGMENT PARA USE32 PUBLIC 'CODE'
_TEXT	ENDS
;	COMDAT ?GetNumCol@CTBLCashShopItem@@UAEHXZ
_TEXT	SEGMENT PARA USE32 PUBLIC 'CODE'
_TEXT	ENDS
;	COMDAT ?BindColumns@CTBLCashShopItem@@UAEFXZ
_TEXT	SEGMENT PARA USE32 PUBLIC 'CODE'
_TEXT	ENDS
;	COMDAT ??0CSPEventUpdate@@QAE@PAVCSqlDatabase@@V?$basic_string@DU?$char_traits@D@std@@V?$allocator@D@2@@std@@@Z
_TEXT	SEGMENT PARA USE32 PUBLIC 'CODE'
_TEXT	ENDS
;	COMDAT ??_C@_0DN@JJBDGJHG@?$HL?$DP?5?$DN?5CALL?5TEventUpdate?$CI?$DP?0?$DP?0?$DP?0?$DP?0?$DP@
CONST	SEGMENT DWORD USE32 PUBLIC 'CONST'
CONST	ENDS
;	COMDAT ??_7CSPEventUpdate@@6B@
CONST	SEGMENT DWORD USE32 PUBLIC 'CONST'
CONST	ENDS
;	COMDAT ??_GCSPEventUpdate@@UAEPAXI@Z
_TEXT	SEGMENT PARA USE32 PUBLIC 'CODE'
_TEXT	ENDS
;	COMDAT ??1CSPEventUpdate@@UAE@XZ
_TEXT	SEGMENT PARA USE32 PUBLIC 'CODE'
_TEXT	ENDS
;	COMDAT ?GetNumParam@CSPEventUpdate@@UAEHXZ
_TEXT	SEGMENT PARA USE32 PUBLIC 'CODE'
_TEXT	ENDS
;	COMDAT ?BindParameters@CSPEventUpdate@@UAEFH@Z
_TEXT	SEGMENT PARA USE32 PUBLIC 'CODE'
_TEXT	ENDS
;	COMDAT ??0CSPOPLogin@@QAE@PAVCSqlDatabase@@V?$basic_string@DU?$char_traits@D@std@@V?$allocator@D@2@@std@@@Z
_TEXT	SEGMENT PARA USE32 PUBLIC 'CODE'
_TEXT	ENDS
;	COMDAT ??_C@_0BJ@ODNMBHDP@?$HL?$DP?5?$DN?5CALL?5TOPLogin?$CI?$DP?0?$DP?$CJ?$HN?$AA@
CONST	SEGMENT DWORD USE32 PUBLIC 'CONST'
CONST	ENDS
;	COMDAT ??_7CSPOPLogin@@6B@
CONST	SEGMENT DWORD USE32 PUBLIC 'CONST'
CONST	ENDS
;	COMDAT ??_GCSPOPLogin@@UAEPAXI@Z
_TEXT	SEGMENT PARA USE32 PUBLIC 'CODE'
_TEXT	ENDS
;	COMDAT ??1CSPOPLogin@@UAE@XZ
_TEXT	SEGMENT PARA USE32 PUBLIC 'CODE'
_TEXT	ENDS
;	COMDAT ?GetNumParam@CSPOPLogin@@UAEHXZ
_TEXT	SEGMENT PARA USE32 PUBLIC 'CODE'
_TEXT	ENDS
;	COMDAT ?BindParameters@CSPOPLogin@@UAEFH@Z
_TEXT	SEGMENT PARA USE32 PUBLIC 'CODE'
_TEXT	ENDS
;	COMDAT ??0CSPLoadService@@QAE@PAVCSqlDatabase@@V?$basic_string@DU?$char_traits@D@std@@V?$allocator@D@2@@std@@@Z
_TEXT	SEGMENT PARA USE32 PUBLIC 'CODE'
_TEXT	ENDS
;	COMDAT ??_C@_0BN@FKLLIGDD@?$HLCALL?5TLoadService?$CI?$DP?0?$DP?0?$DP?0?$DP?$CJ?$HN?$AA@
CONST	SEGMENT DWORD USE32 PUBLIC 'CONST'
CONST	ENDS
;	COMDAT ??_7CSPLoadService@@6B@
CONST	SEGMENT DWORD USE32 PUBLIC 'CONST'
CONST	ENDS
;	COMDAT ??_GCSPLoadService@@UAEPAXI@Z
_TEXT	SEGMENT PARA USE32 PUBLIC 'CODE'
_TEXT	ENDS
;	COMDAT ??1CSPLoadService@@UAE@XZ
_TEXT	SEGMENT PARA USE32 PUBLIC 'CODE'
_TEXT	ENDS
;	COMDAT ?GetNumParam@CSPLoadService@@UAEHXZ
_TEXT	SEGMENT PARA USE32 PUBLIC 'CODE'
_TEXT	ENDS
;	COMDAT ?BindParameters@CSPLoadService@@UAEFH@Z
_TEXT	SEGMENT PARA USE32 PUBLIC 'CODE'
_TEXT	ENDS
;	COMDAT ??0CSPSvrStatusSMS@@QAE@PAVCSqlDatabase@@V?$basic_string@DU?$char_traits@D@std@@V?$allocator@D@2@@std@@@Z
_TEXT	SEGMENT PARA USE32 PUBLIC 'CODE'
_TEXT	ENDS
;	COMDAT ??_C@_0CE@DJBPMLNA@?$HL?5CALL?5OPTool_SMSEmergency?$CI?$DP?0?$DP?0?$DP@
CONST	SEGMENT DWORD USE32 PUBLIC 'CONST'
CONST	ENDS
;	COMDAT ??_7CSPSvrStatusSMS@@6B@
CONST	SEGMENT DWORD USE32 PUBLIC 'CONST'
CONST	ENDS
;	COMDAT ??_GCSPSvrStatusSMS@@UAEPAXI@Z
_TEXT	SEGMENT PARA USE32 PUBLIC 'CODE'
_TEXT	ENDS
;	COMDAT ??1CSPSvrStatusSMS@@UAE@XZ
_TEXT	SEGMENT PARA USE32 PUBLIC 'CODE'
_TEXT	ENDS
;	COMDAT ?GetNumParam@CSPSvrStatusSMS@@UAEHXZ
_TEXT	SEGMENT PARA USE32 PUBLIC 'CODE'
_TEXT	ENDS
;	COMDAT ?BindParameters@CSPSvrStatusSMS@@UAEFH@Z
_TEXT	SEGMENT PARA USE32 PUBLIC 'CODE'
_TEXT	ENDS
;	COMDAT ??0CSPUserProtectedAdd@@QAE@PAVCSqlDatabase@@V?$basic_string@DU?$char_traits@D@std@@V?$allocator@D@2@@std@@@Z
_TEXT	SEGMENT PARA USE32 PUBLIC 'CODE'
_TEXT	ENDS
;	COMDAT ??_C@_0CD@GNKKCNKL@?$HL?5?$DP?5?$DN?5CALL?5TUserProtectedAdd?$CI?$DP?0?$DP@
CONST	SEGMENT DWORD USE32 PUBLIC 'CONST'
CONST	ENDS
;	COMDAT ??_7CSPUserProtectedAdd@@6B@
CONST	SEGMENT DWORD USE32 PUBLIC 'CONST'
CONST	ENDS
;	COMDAT ??_GCSPUserProtectedAdd@@UAEPAXI@Z
_TEXT	SEGMENT PARA USE32 PUBLIC 'CODE'
_TEXT	ENDS
;	COMDAT ??1CSPUserProtectedAdd@@UAE@XZ
_TEXT	SEGMENT PARA USE32 PUBLIC 'CODE'
_TEXT	ENDS
;	COMDAT ?GetNumParam@CSPUserProtectedAdd@@UAEHXZ
_TEXT	SEGMENT PARA USE32 PUBLIC 'CODE'
_TEXT	ENDS
;	COMDAT ?BindParameters@CSPUserProtectedAdd@@UAEFH@Z
_TEXT	SEGMENT PARA USE32 PUBLIC 'CODE'
_TEXT	ENDS
;	COMDAT ??0CSPUpdatePatch@@QAE@PAVCSqlDatabase@@V?$basic_string@DU?$char_traits@D@std@@V?$allocator@D@2@@std@@@Z
_TEXT	SEGMENT PARA USE32 PUBLIC 'CODE'
_TEXT	ENDS
;	COMDAT ??_C@_0CE@FBIFPNAM@?$HL?5?$DP?5?$DN?5CALL?5TUpdateVersion?$CI?$DP?0?$DP?0?$DP?0@
CONST	SEGMENT DWORD USE32 PUBLIC 'CONST'
CONST	ENDS
;	COMDAT ??_7CSPUpdatePatch@@6B@
CONST	SEGMENT DWORD USE32 PUBLIC 'CONST'
CONST	ENDS
;	COMDAT ??_GCSPUpdatePatch@@UAEPAXI@Z
_TEXT	SEGMENT PARA USE32 PUBLIC 'CODE'
_TEXT	ENDS
;	COMDAT ??1CSPUpdatePatch@@UAE@XZ
_TEXT	SEGMENT PARA USE32 PUBLIC 'CODE'
_TEXT	ENDS
;	COMDAT ?GetNumParam@CSPUpdatePatch@@UAEHXZ
_TEXT	SEGMENT PARA USE32 PUBLIC 'CODE'
_TEXT	ENDS
;	COMDAT ?BindParameters@CSPUpdatePatch@@UAEFH@Z
_TEXT	SEGMENT PARA USE32 PUBLIC 'CODE'
_TEXT	ENDS
;	COMDAT ??0CTBLPreVersion@@QAE@PAVCSqlDatabase@@V?$basic_string@DU?$char_traits@D@std@@V?$allocator@D@2@@std@@@Z
_TEXT	SEGMENT PARA USE32 PUBLIC 'CODE'
_TEXT	ENDS
;	COMDAT ??_C@_0DK@EABOMOHI@SELECT?5dwBetaVer?0?5szPath?0?5szName@
CONST	SEGMENT DWORD USE32 PUBLIC 'CONST'
CONST	ENDS
;	COMDAT ??_7CTBLPreVersion@@6B@
CONST	SEGMENT DWORD USE32 PUBLIC 'CONST'
CONST	ENDS
;	COMDAT ??_GCTBLPreVersion@@UAEPAXI@Z
_TEXT	SEGMENT PARA USE32 PUBLIC 'CODE'
_TEXT	ENDS
;	COMDAT ??1CTBLPreVersion@@UAE@XZ
_TEXT	SEGMENT PARA USE32 PUBLIC 'CODE'
_TEXT	ENDS
;	COMDAT ?GetNumCol@CTBLPreVersion@@UAEHXZ
_TEXT	SEGMENT PARA USE32 PUBLIC 'CODE'
_TEXT	ENDS
;	COMDAT ?BindColumns@CTBLPreVersion@@UAEFXZ
_TEXT	SEGMENT PARA USE32 PUBLIC 'CODE'
_TEXT	ENDS
;	COMDAT ??0CTBLEvent@@QAE@PAVCSqlDatabase@@V?$basic_string@DU?$char_traits@D@std@@V?$allocator@D@2@@std@@@Z
_TEXT	SEGMENT PARA USE32 PUBLIC 'CODE'
_TEXT	ENDS
;	COMDAT ??_C@_0ND@KAAOJLLI@SELECT?5?5?5?5?5dwIndex?0?5?7bID?0?5?7szTit@
CONST	SEGMENT DWORD USE32 PUBLIC 'CONST'
CONST	ENDS
;	COMDAT ??_7CTBLEvent@@6B@
CONST	SEGMENT DWORD USE32 PUBLIC 'CONST'
CONST	ENDS
;	COMDAT ??_GCTBLEvent@@UAEPAXI@Z
_TEXT	SEGMENT PARA USE32 PUBLIC 'CODE'
_TEXT	ENDS
;	COMDAT ??1CTBLEvent@@UAE@XZ
_TEXT	SEGMENT PARA USE32 PUBLIC 'CODE'
_TEXT	ENDS
;	COMDAT ?GetNumCol@CTBLEvent@@UAEHXZ
_TEXT	SEGMENT PARA USE32 PUBLIC 'CODE'
_TEXT	ENDS
;	COMDAT ?BindColumns@CTBLEvent@@UAEFXZ
_TEXT	SEGMENT PARA USE32 PUBLIC 'CODE'
_TEXT	ENDS
;	COMDAT ??0CTBLManager@@QAE@PAVCSqlDatabase@@V?$basic_string@DU?$char_traits@D@std@@V?$allocator@D@2@@std@@@Z
_TEXT	SEGMENT PARA USE32 PUBLIC 'CODE'
_TEXT	ENDS
;	COMDAT ??_C@_0DA@EKOCNMJJ@SELECT?5szID?0?5szPasswd?0?5bAuthorit@
CONST	SEGMENT DWORD USE32 PUBLIC 'CONST'
CONST	ENDS
;	COMDAT ??_7CTBLManager@@6B@
CONST	SEGMENT DWORD USE32 PUBLIC 'CONST'
CONST	ENDS
;	COMDAT ??_GCTBLManager@@UAEPAXI@Z
_TEXT	SEGMENT PARA USE32 PUBLIC 'CODE'
_TEXT	ENDS
;	COMDAT ??1CTBLManager@@UAE@XZ
_TEXT	SEGMENT PARA USE32 PUBLIC 'CODE'
_TEXT	ENDS
;	COMDAT ?GetNumCol@CTBLManager@@UAEHXZ
_TEXT	SEGMENT PARA USE32 PUBLIC 'CODE'
_TEXT	ENDS
;	COMDAT ?BindColumns@CTBLManager@@UAEFXZ
_TEXT	SEGMENT PARA USE32 PUBLIC 'CODE'
_TEXT	ENDS
;	COMDAT ??0CTBLIPAddr@@QAE@PAVCSqlDatabase@@V?$basic_string@DU?$char_traits@D@std@@V?$allocator@D@2@@std@@@Z
_TEXT	SEGMENT PARA USE32 PUBLIC 'CODE'
_TEXT	ENDS
;	COMDAT ??_C@_0EN@EENJEFM@SELECT?5szIPAddr?0?5szPriAddr?5FROM?5@
CONST	SEGMENT DWORD USE32 PUBLIC 'CONST'
CONST	ENDS
;	COMDAT ??_7CTBLIPAddr@@6B@
CONST	SEGMENT DWORD USE32 PUBLIC 'CONST'
CONST	ENDS
;	COMDAT ??_GCTBLIPAddr@@UAEPAXI@Z
_TEXT	SEGMENT PARA USE32 PUBLIC 'CODE'
_TEXT	ENDS
;	COMDAT ??1CTBLIPAddr@@UAE@XZ
_TEXT	SEGMENT PARA USE32 PUBLIC 'CODE'
_TEXT	ENDS
;	COMDAT ?GetNumCol@CTBLIPAddr@@UAEHXZ
_TEXT	SEGMENT PARA USE32 PUBLIC 'CODE'
_TEXT	ENDS
;	COMDAT ?GetNumParam@CTBLIPAddr@@UAEHXZ
_TEXT	SEGMENT PARA USE32 PUBLIC 'CODE'
_TEXT	ENDS
;	COMDAT ?BindColumns@CTBLIPAddr@@UAEFXZ
_TEXT	SEGMENT PARA USE32 PUBLIC 'CODE'
_TEXT	ENDS
;	COMDAT ?BindParameters@CTBLIPAddr@@UAEFH@Z
_TEXT	SEGMENT PARA USE32 PUBLIC 'CODE'
_TEXT	ENDS
;	COMDAT ??0CTBLServer@@QAE@PAVCSqlDatabase@@V?$basic_string@DU?$char_traits@D@std@@V?$allocator@D@2@@std@@@Z
_TEXT	SEGMENT PARA USE32 PUBLIC 'CODE'
_TEXT	ENDS
;	COMDAT ??_C@_0FL@IAHCANBE@SELECT?5bGroupID?0?5bServerID?0?5bTyp@
CONST	SEGMENT DWORD USE32 PUBLIC 'CONST'
CONST	ENDS
;	COMDAT ??_7CTBLServer@@6B@
CONST	SEGMENT DWORD USE32 PUBLIC 'CONST'
CONST	ENDS
;	COMDAT ??_GCTBLServer@@UAEPAXI@Z
_TEXT	SEGMENT PARA USE32 PUBLIC 'CODE'
_TEXT	ENDS
;	COMDAT ??1CTBLServer@@UAE@XZ
_TEXT	SEGMENT PARA USE32 PUBLIC 'CODE'
_TEXT	ENDS
;	COMDAT ?GetNumCol@CTBLServer@@UAEHXZ
_TEXT	SEGMENT PARA USE32 PUBLIC 'CODE'
_TEXT	ENDS
;	COMDAT ?BindColumns@CTBLServer@@UAEFXZ
_TEXT	SEGMENT PARA USE32 PUBLIC 'CODE'
_TEXT	ENDS
;	COMDAT ??0CTBLSvrType@@QAE@PAVCSqlDatabase@@V?$basic_string@DU?$char_traits@D@std@@V?$allocator@D@2@@std@@@Z
_TEXT	SEGMENT PARA USE32 PUBLIC 'CODE'
_TEXT	ENDS
;	COMDAT ??_C@_0DG@DNMNECGE@SELECT?5bType?0?5szName?5FROM?5TSVRTY@
CONST	SEGMENT DWORD USE32 PUBLIC 'CONST'
CONST	ENDS
;	COMDAT ??_7CTBLSvrType@@6B@
CONST	SEGMENT DWORD USE32 PUBLIC 'CONST'
CONST	ENDS
;	COMDAT ??_GCTBLSvrType@@UAEPAXI@Z
_TEXT	SEGMENT PARA USE32 PUBLIC 'CODE'
_TEXT	ENDS
;	COMDAT ??1CTBLSvrType@@UAE@XZ
_TEXT	SEGMENT PARA USE32 PUBLIC 'CODE'
_TEXT	ENDS
;	COMDAT ?GetNumCol@CTBLSvrType@@UAEHXZ
_TEXT	SEGMENT PARA USE32 PUBLIC 'CODE'
_TEXT	ENDS
;	COMDAT ?BindColumns@CTBLSvrType@@UAEFXZ
_TEXT	SEGMENT PARA USE32 PUBLIC 'CODE'
_TEXT	ENDS
;	COMDAT ??0CTBLGroup@@QAE@PAVCSqlDatabase@@V?$basic_string@DU?$char_traits@D@std@@V?$allocator@D@2@@std@@@Z
_TEXT	SEGMENT PARA USE32 PUBLIC 'CODE'
_TEXT	ENDS
;	COMDAT ??_C@_0CE@NAMDJJMH@SELECT?5bGroupID?0?5szName?5FROM?5TGR@
CONST	SEGMENT DWORD USE32 PUBLIC 'CONST'
CONST	ENDS
;	COMDAT ??_7CTBLGroup@@6B@
CONST	SEGMENT DWORD USE32 PUBLIC 'CONST'
CONST	ENDS
;	COMDAT ??_GCTBLGroup@@UAEPAXI@Z
_TEXT	SEGMENT PARA USE32 PUBLIC 'CODE'
_TEXT	ENDS
;	COMDAT ??1CTBLGroup@@UAE@XZ
_TEXT	SEGMENT PARA USE32 PUBLIC 'CODE'
_TEXT	ENDS
;	COMDAT ?GetNumCol@CTBLGroup@@UAEHXZ
_TEXT	SEGMENT PARA USE32 PUBLIC 'CODE'
_TEXT	ENDS
;	COMDAT ?BindColumns@CTBLGroup@@UAEFXZ
_TEXT	SEGMENT PARA USE32 PUBLIC 'CODE'
_TEXT	ENDS
;	COMDAT ??0CTBLNetwork@@QAE@PAVCSqlDatabase@@V?$basic_string@DU?$char_traits@D@std@@V?$allocator@D@2@@std@@@Z
_TEXT	SEGMENT PARA USE32 PUBLIC 'CODE'
_TEXT	ENDS
;	COMDAT ??_C@_0CL@JHHHMODB@SELECT?5bMachineID?0?5szNetwork?5FRO@
CONST	SEGMENT DWORD USE32 PUBLIC 'CONST'
CONST	ENDS
;	COMDAT ??_7CTBLNetwork@@6B@
CONST	SEGMENT DWORD USE32 PUBLIC 'CONST'
CONST	ENDS
;	COMDAT ??_GCTBLNetwork@@UAEPAXI@Z
_TEXT	SEGMENT PARA USE32 PUBLIC 'CODE'
_TEXT	ENDS
;	COMDAT ??1CTBLNetwork@@UAE@XZ
_TEXT	SEGMENT PARA USE32 PUBLIC 'CODE'
_TEXT	ENDS
;	COMDAT ?GetNumCol@CTBLNetwork@@UAEHXZ
_TEXT	SEGMENT PARA USE32 PUBLIC 'CODE'
_TEXT	ENDS
;	COMDAT ?BindColumns@CTBLNetwork@@UAEFXZ
_TEXT	SEGMENT PARA USE32 PUBLIC 'CODE'
_TEXT	ENDS
;	COMDAT ??1?$basic_string@DU?$char_traits@D@std@@V?$allocator@D@2@@std@@QAE@XZ
_TEXT	SEGMENT PARA USE32 PUBLIC 'CODE'
_TEXT	ENDS
;	COMDAT ??0?$basic_string@DU?$char_traits@D@std@@V?$allocator@D@2@@std@@QAE@PBD@Z
_TEXT	SEGMENT PARA USE32 PUBLIC 'CODE'
_TEXT	ENDS
;	COMDAT ??0?$allocator@D@std@@QAE@XZ
_TEXT	SEGMENT PARA USE32 PUBLIC 'CODE'
_TEXT	ENDS
;	COMDAT ?assign@?$basic_string@DU?$char_traits@D@std@@V?$allocator@D@2@@std@@QAEAAV12@PBD@Z
_TEXT	SEGMENT PARA USE32 PUBLIC 'CODE'
_TEXT	ENDS
;	COMDAT ?assign@?$basic_string@DU?$char_traits@D@std@@V?$allocator@D@2@@std@@QAEAAV12@PBDI@Z
_TEXT	SEGMENT PARA USE32 PUBLIC 'CODE'
_TEXT	ENDS
;	COMDAT ?_Inside@?$basic_string@DU?$char_traits@D@std@@V?$allocator@D@2@@std@@IAE_NPBD@Z
_TEXT	SEGMENT PARA USE32 PUBLIC 'CODE'
_TEXT	ENDS
;	COMDAT ?length@?$char_traits@D@std@@SAIPBD@Z
_TEXT	SEGMENT PARA USE32 PUBLIC 'CODE'
_TEXT	ENDS
;	COMDAT ??0CTBLMachine@@QAE@PAVCSqlDatabase@@V?$basic_string@DU?$char_traits@D@std@@V?$allocator@D@2@@std@@@Z
_TEXT	SEGMENT PARA USE32 PUBLIC 'CODE'
_TEXT	ENDS
;	COMDAT ??_C@_0DC@KCBFKODM@SELECT?5bMachineID?0?5szName?0?5bRout@
CONST	SEGMENT DWORD USE32 PUBLIC 'CONST'
CONST	ENDS
;	COMDAT ??_7CTBLMachine@@6B@
CONST	SEGMENT DWORD USE32 PUBLIC 'CONST'
CONST	ENDS
;	COMDAT ??_GCTBLMachine@@UAEPAXI@Z
_TEXT	SEGMENT PARA USE32 PUBLIC 'CODE'
_TEXT	ENDS
;	COMDAT ??1CTBLMachine@@UAE@XZ
_TEXT	SEGMENT PARA USE32 PUBLIC 'CODE'
_TEXT	ENDS
;	COMDAT ?GetNumCol@CTBLMachine@@UAEHXZ
_TEXT	SEGMENT PARA USE32 PUBLIC 'CODE'
_TEXT	ENDS
;	COMDAT ?BindColumns@CTBLMachine@@UAEFXZ
_TEXT	SEGMENT PARA USE32 PUBLIC 'CODE'
_TEXT	ENDS
sxdata	SEGMENT DWORD USE32 'SXDATA'
sxdata	ENDS
FLAT	GROUP _DATA, CONST, _BSS
	ASSUME	CS: FLAT, DS: FLAT, SS: FLAT
endif

INCLUDELIB LIBCMT
INCLUDELIB OLDNAMES

PUBLIC	?assign@?$char_traits@D@std@@SAXAADABD@Z	; std::char_traits<char>::assign
; Function compile flags: /Ogty
; File c:\program files (x86)\microsoft visual studio .net 2003\vc7\include\iosfwd
;	COMDAT ?assign@?$char_traits@D@std@@SAXAADABD@Z
_TEXT	SEGMENT
__Left$ = 8						; size = 4
__Right$ = 12						; size = 4
?assign@?$char_traits@D@std@@SAXAADABD@Z PROC NEAR	; std::char_traits<char>::assign, COMDAT

; 331  : 		_Left = _Right;

  00000	8b 44 24 08	 mov	 eax, DWORD PTR __Right$[esp-4]
  00004	8a 08		 mov	 cl, BYTE PTR [eax]
  00006	8b 54 24 04	 mov	 edx, DWORD PTR __Left$[esp-4]
  0000a	88 0a		 mov	 BYTE PTR [edx], cl

; 332  : 		}

  0000c	c3		 ret	 0
?assign@?$char_traits@D@std@@SAXAADABD@Z ENDP		; std::char_traits<char>::assign
_TEXT	ENDS
PUBLIC	?length@?$char_traits@D@std@@SAIPBD@Z		; std::char_traits<char>::length
; Function compile flags: /Ogty
;	COMDAT ?length@?$char_traits@D@std@@SAIPBD@Z
_TEXT	SEGMENT
__First$ = 8						; size = 4
?length@?$char_traits@D@std@@SAIPBD@Z PROC NEAR		; std::char_traits<char>::length, COMDAT

; 352  : 		return (::strlen(_First));

  00000	8b 44 24 04	 mov	 eax, DWORD PTR __First$[esp-4]
  00004	8d 50 01	 lea	 edx, DWORD PTR [eax+1]
$L88075:
  00007	8a 08		 mov	 cl, BYTE PTR [eax]
  00009	40		 inc	 eax
  0000a	84 c9		 test	 cl, cl
  0000c	75 f9		 jne	 SHORT $L88075
  0000e	2b c2		 sub	 eax, edx

; 353  : 		}

  00010	c3		 ret	 0
?length@?$char_traits@D@std@@SAIPBD@Z ENDP		; std::char_traits<char>::length
_TEXT	ENDS
PUBLIC	?copy@?$char_traits@D@std@@SAPADPADPBDI@Z	; std::char_traits<char>::copy
; Function compile flags: /Ogty
;	COMDAT ?copy@?$char_traits@D@std@@SAPADPADPBDI@Z
_TEXT	SEGMENT
__First1$ = 8						; size = 4
__First2$ = 12						; size = 4
__Count$ = 16						; size = 4
?copy@?$char_traits@D@std@@SAPADPADPBDI@Z PROC NEAR	; std::char_traits<char>::copy, COMDAT

; 358  : 		return ((_Elem *)::memcpy(_First1, _First2, _Count));

  00000	8b 4c 24 0c	 mov	 ecx, DWORD PTR __Count$[esp-4]
  00004	56		 push	 esi
  00005	8b 74 24 0c	 mov	 esi, DWORD PTR __First2$[esp]
  00009	57		 push	 edi
  0000a	8b 7c 24 0c	 mov	 edi, DWORD PTR __First1$[esp+4]
  0000e	8b c1		 mov	 eax, ecx
  00010	8b d7		 mov	 edx, edi
  00012	c1 e9 02	 shr	 ecx, 2
  00015	f3 a5		 rep movsd
  00017	8b c8		 mov	 ecx, eax
  00019	83 e1 03	 and	 ecx, 3
  0001c	f3 a4		 rep movsb
  0001e	5f		 pop	 edi
  0001f	8b c2		 mov	 eax, edx
  00021	5e		 pop	 esi

; 359  : 		}

  00022	c3		 ret	 0
?copy@?$char_traits@D@std@@SAPADPADPBDI@Z ENDP		; std::char_traits<char>::copy
_TEXT	ENDS
PUBLIC	?move@?$char_traits@D@std@@SAPADPADPBDI@Z	; std::char_traits<char>::move
EXTRN	_memmove:NEAR
; Function compile flags: /Ogty
;	COMDAT ?move@?$char_traits@D@std@@SAPADPADPBDI@Z
_TEXT	SEGMENT
__First1$ = 8						; size = 4
__First2$ = 12						; size = 4
__Count$ = 16						; size = 4
?move@?$char_traits@D@std@@SAPADPADPBDI@Z PROC NEAR	; std::char_traits<char>::move, COMDAT

; 370  : 		return ((_Elem *)::memmove(_First1, _First2, _Count));

  00000	e9 00 00 00 00	 jmp	 _memmove
?move@?$char_traits@D@std@@SAPADPADPBDI@Z ENDP		; std::char_traits<char>::move
_TEXT	ENDS
PUBLIC	?size@?$basic_string@DU?$char_traits@D@std@@V?$allocator@D@2@@std@@QBEIXZ ; std::basic_string<char,std::char_traits<char>,std::allocator<char> >::size
; Function compile flags: /Ogty
; File c:\program files (x86)\microsoft visual studio .net 2003\vc7\include\xstring
;	COMDAT ?size@?$basic_string@DU?$char_traits@D@std@@V?$allocator@D@2@@std@@QBEIXZ
_TEXT	SEGMENT
?size@?$basic_string@DU?$char_traits@D@std@@V?$allocator@D@2@@std@@QBEIXZ PROC NEAR ; std::basic_string<char,std::char_traits<char>,std::allocator<char> >::size, COMDAT
; _this$ = ecx

; 1109 : 		return (_Mysize);

  00000	8b 41 14	 mov	 eax, DWORD PTR [ecx+20]

; 1110 : 		}

  00003	c3		 ret	 0
?size@?$basic_string@DU?$char_traits@D@std@@V?$allocator@D@2@@std@@QBEIXZ ENDP ; std::basic_string<char,std::char_traits<char>,std::allocator<char> >::size
_TEXT	ENDS
PUBLIC	?_Myptr@?$basic_string@DU?$char_traits@D@std@@V?$allocator@D@2@@std@@QBEPBDXZ ; std::basic_string<char,std::char_traits<char>,std::allocator<char> >::_Myptr
; Function compile flags: /Ogty
;	COMDAT ?_Myptr@?$basic_string@DU?$char_traits@D@std@@V?$allocator@D@2@@std@@QBEPBDXZ
_TEXT	SEGMENT
?_Myptr@?$basic_string@DU?$char_traits@D@std@@V?$allocator@D@2@@std@@QBEPBDXZ PROC NEAR ; std::basic_string<char,std::char_traits<char>,std::allocator<char> >::_Myptr, COMDAT
; _this$ = ecx

; 1537 : 		return (_BUF_SIZE <= _Myres ? _Bx._Ptr : _Bx._Buf);

  00000	83 79 18 10	 cmp	 DWORD PTR [ecx+24], 16	; 00000010H
  00004	72 04		 jb	 SHORT $L88089
  00006	8b 41 04	 mov	 eax, DWORD PTR [ecx+4]

; 1538 : 		}

  00009	c3		 ret	 0
$L88089:

; 1537 : 		return (_BUF_SIZE <= _Myres ? _Bx._Ptr : _Bx._Buf);

  0000a	8d 41 04	 lea	 eax, DWORD PTR [ecx+4]

; 1538 : 		}

  0000d	c3		 ret	 0
?_Myptr@?$basic_string@DU?$char_traits@D@std@@V?$allocator@D@2@@std@@QBEPBDXZ ENDP ; std::basic_string<char,std::char_traits<char>,std::allocator<char> >::_Myptr
_TEXT	ENDS
PUBLIC	??0?$allocator@D@std@@QAE@ABV01@@Z		; std::allocator<char>::allocator<char>
; Function compile flags: /Ogty
; File c:\program files (x86)\microsoft visual studio .net 2003\vc7\include\xmemory
;	COMDAT ??0?$allocator@D@std@@QAE@ABV01@@Z
_TEXT	SEGMENT
___formal$ = 8						; size = 4
??0?$allocator@D@std@@QAE@ABV01@@Z PROC NEAR		; std::allocator<char>::allocator<char>, COMDAT
; _this$ = ecx

; 115  : 	allocator(const allocator<_Ty>&)

  00000	8b c1		 mov	 eax, ecx

; 116  : 		{	// construct by copying (do nothing)
; 117  : 		}

  00002	c2 04 00	 ret	 4
??0?$allocator@D@std@@QAE@ABV01@@Z ENDP			; std::allocator<char>::allocator<char>
_TEXT	ENDS
PUBLIC	?_Myptr@?$basic_string@DU?$char_traits@D@std@@V?$allocator@D@2@@std@@QAEPADXZ ; std::basic_string<char,std::char_traits<char>,std::allocator<char> >::_Myptr
; Function compile flags: /Ogty
; File c:\program files (x86)\microsoft visual studio .net 2003\vc7\include\xstring
;	COMDAT ?_Myptr@?$basic_string@DU?$char_traits@D@std@@V?$allocator@D@2@@std@@QAEPADXZ
_TEXT	SEGMENT
?_Myptr@?$basic_string@DU?$char_traits@D@std@@V?$allocator@D@2@@std@@QAEPADXZ PROC NEAR ; std::basic_string<char,std::char_traits<char>,std::allocator<char> >::_Myptr, COMDAT
; _this$ = ecx

; 1532 : 		return (_BUF_SIZE <= _Myres ? _Bx._Ptr : _Bx._Buf);

  00000	83 79 18 10	 cmp	 DWORD PTR [ecx+24], 16	; 00000010H
  00004	72 04		 jb	 SHORT $L88097
  00006	8b 41 04	 mov	 eax, DWORD PTR [ecx+4]

; 1533 : 		}

  00009	c3		 ret	 0
$L88097:

; 1532 : 		return (_BUF_SIZE <= _Myres ? _Bx._Ptr : _Bx._Buf);

  0000a	8d 41 04	 lea	 eax, DWORD PTR [ecx+4]

; 1533 : 		}

  0000d	c3		 ret	 0
?_Myptr@?$basic_string@DU?$char_traits@D@std@@V?$allocator@D@2@@std@@QAEPADXZ ENDP ; std::basic_string<char,std::char_traits<char>,std::allocator<char> >::_Myptr
_TEXT	ENDS
PUBLIC	?deallocate@?$allocator@D@std@@QAEXPADI@Z	; std::allocator<char>::deallocate
EXTRN	??3@YAXPAX@Z:NEAR				; operator delete
; Function compile flags: /Ogty
; File c:\program files (x86)\microsoft visual studio .net 2003\vc7\include\xmemory
;	COMDAT ?deallocate@?$allocator@D@std@@QAEXPADI@Z
_TEXT	SEGMENT
__Ptr$ = 8						; size = 4
___formal$ = 12						; size = 4
?deallocate@?$allocator@D@std@@QAEXPADI@Z PROC NEAR	; std::allocator<char>::deallocate, COMDAT
; _this$ = ecx

; 132  : 		operator delete(_Ptr);

  00000	8b 44 24 04	 mov	 eax, DWORD PTR __Ptr$[esp-4]
  00004	50		 push	 eax
  00005	e8 00 00 00 00	 call	 ??3@YAXPAX@Z		; operator delete
  0000a	59		 pop	 ecx

; 133  : 		}

  0000b	c2 08 00	 ret	 8
?deallocate@?$allocator@D@std@@QAEXPADI@Z ENDP		; std::allocator<char>::deallocate
_TEXT	ENDS
PUBLIC	?_Inside@?$basic_string@DU?$char_traits@D@std@@V?$allocator@D@2@@std@@IAE_NPBD@Z ; std::basic_string<char,std::char_traits<char>,std::allocator<char> >::_Inside
; Function compile flags: /Ogty
; File c:\program files (x86)\microsoft visual studio .net 2003\vc7\include\xstring
;	COMDAT ?_Inside@?$basic_string@DU?$char_traits@D@std@@V?$allocator@D@2@@std@@IAE_NPBD@Z
_TEXT	SEGMENT
__Ptr$ = 8						; size = 4
?_Inside@?$basic_string@DU?$char_traits@D@std@@V?$allocator@D@2@@std@@IAE_NPBD@Z PROC NEAR ; std::basic_string<char,std::char_traits<char>,std::allocator<char> >::_Inside, COMDAT
; _this$ = ecx

; 1494 : 		{	// test if _Ptr points inside string

  00000	56		 push	 esi

; 1495 : 		if (_Ptr < _Myptr() || _Myptr() + _Mysize <= _Ptr)

  00001	8b 71 18	 mov	 esi, DWORD PTR [ecx+24]
  00004	83 fe 10	 cmp	 esi, 16			; 00000010H
  00007	57		 push	 edi
  00008	8d 41 04	 lea	 eax, DWORD PTR [ecx+4]
  0000b	72 04		 jb	 SHORT $L88109
  0000d	8b 10		 mov	 edx, DWORD PTR [eax]
  0000f	eb 02		 jmp	 SHORT $L88110
$L88109:
  00011	8b d0		 mov	 edx, eax
$L88110:
  00013	8b 7c 24 0c	 mov	 edi, DWORD PTR __Ptr$[esp+4]
  00017	3b fa		 cmp	 edi, edx
  00019	72 17		 jb	 SHORT $L86488
  0001b	83 fe 10	 cmp	 esi, 16			; 00000010H
  0001e	72 02		 jb	 SHORT $L88117
  00020	8b 00		 mov	 eax, DWORD PTR [eax]
$L88117:
  00022	8b 49 14	 mov	 ecx, DWORD PTR [ecx+20]
  00025	03 c8		 add	 ecx, eax
  00027	3b cf		 cmp	 ecx, edi
  00029	76 07		 jbe	 SHORT $L86488
  0002b	5f		 pop	 edi

; 1497 : 		else
; 1498 : 			return (true);

  0002c	b0 01		 mov	 al, 1
  0002e	5e		 pop	 esi

; 1499 : 		}

  0002f	c2 04 00	 ret	 4
$L86488:
  00032	5f		 pop	 edi

; 1496 : 			return (false);	// don't ask

  00033	32 c0		 xor	 al, al
  00035	5e		 pop	 esi

; 1499 : 		}

  00036	c2 04 00	 ret	 4
?_Inside@?$basic_string@DU?$char_traits@D@std@@V?$allocator@D@2@@std@@IAE_NPBD@Z ENDP ; std::basic_string<char,std::char_traits<char>,std::allocator<char> >::_Inside
_TEXT	ENDS
PUBLIC	?max_size@?$allocator@D@std@@QBEIXZ		; std::allocator<char>::max_size
; Function compile flags: /Ogty
; File c:\program files (x86)\microsoft visual studio .net 2003\vc7\include\xmemory
;	COMDAT ?max_size@?$allocator@D@std@@QBEIXZ
_TEXT	SEGMENT
?max_size@?$allocator@D@std@@QBEIXZ PROC NEAR		; std::allocator<char>::max_size, COMDAT
; _this$ = ecx

; 157  : 		_SIZT _Count = (_SIZT)(-1) / sizeof (_Ty);
; 158  : 		return (0 < _Count ? _Count : 1);

  00000	83 c8 ff	 or	 eax, -1

; 159  : 		}

  00003	c3		 ret	 0
?max_size@?$allocator@D@std@@QBEIXZ ENDP		; std::allocator<char>::max_size
_TEXT	ENDS
PUBLIC	??0?$allocator@D@std@@QAE@XZ			; std::allocator<char>::allocator<char>
; Function compile flags: /Ogty
;	COMDAT ??0?$allocator@D@std@@QAE@XZ
_TEXT	SEGMENT
??0?$allocator@D@std@@QAE@XZ PROC NEAR			; std::allocator<char>::allocator<char>, COMDAT
; _this$ = ecx

; 111  : 	allocator()

  00000	8b c1		 mov	 eax, ecx

; 112  : 		{	// construct default allocator (do nothing)
; 113  : 		}

  00002	c3		 ret	 0
??0?$allocator@D@std@@QAE@XZ ENDP			; std::allocator<char>::allocator<char>
_TEXT	ENDS
PUBLIC	??$_Allocate@D@std@@YAPADIPAD@Z			; std::_Allocate<char>
EXTRN	??2@YAPAXI@Z:NEAR				; operator new
; Function compile flags: /Ogty
;	COMDAT ??$_Allocate@D@std@@YAPADIPAD@Z
_TEXT	SEGMENT
__Count$ = 8						; size = 4
___formal$ = 12						; size = 4
??$_Allocate@D@std@@YAPADIPAD@Z PROC NEAR		; std::_Allocate<char>, COMDAT

; 34   : 	return ((_Ty _FARQ *)operator new(_Count * sizeof (_Ty)));

  00000	8b 44 24 04	 mov	 eax, DWORD PTR __Count$[esp-4]
  00004	50		 push	 eax
  00005	e8 00 00 00 00	 call	 ??2@YAPAXI@Z		; operator new
  0000a	83 c4 04	 add	 esp, 4

; 35   : 	}

  0000d	c3		 ret	 0
??$_Allocate@D@std@@YAPADIPAD@Z ENDP			; std::_Allocate<char>
_TEXT	ENDS
PUBLIC	??0?$_String_val@DV?$allocator@D@std@@@std@@IAE@V?$allocator@D@1@@Z ; std::_String_val<char,std::allocator<char> >::_String_val<char,std::allocator<char> >
; Function compile flags: /Ogty
; File c:\program files (x86)\microsoft visual studio .net 2003\vc7\include\xstring
;	COMDAT ??0?$_String_val@DV?$allocator@D@std@@@std@@IAE@V?$allocator@D@1@@Z
_TEXT	SEGMENT
__Al$ = 8						; size = 1
??0?$_String_val@DV?$allocator@D@std@@@std@@IAE@V?$allocator@D@1@@Z PROC NEAR ; std::_String_val<char,std::allocator<char> >::_String_val<char,std::allocator<char> >, COMDAT
; _this$ = ecx

; 34   : 		{	// construct allocator from _Al

  00000	8b c1		 mov	 eax, ecx

; 35   : 		}

  00002	c2 04 00	 ret	 4
??0?$_String_val@DV?$allocator@D@std@@@std@@IAE@V?$allocator@D@1@@Z ENDP ; std::_String_val<char,std::allocator<char> >::_String_val<char,std::allocator<char> >
_TEXT	ENDS
PUBLIC	?_Eos@?$basic_string@DU?$char_traits@D@std@@V?$allocator@D@2@@std@@IAEXI@Z ; std::basic_string<char,std::char_traits<char>,std::allocator<char> >::_Eos
; Function compile flags: /Ogty
;	COMDAT ?_Eos@?$basic_string@DU?$char_traits@D@std@@V?$allocator@D@2@@std@@IAEXI@Z
_TEXT	SEGMENT
__Newsize$ = 8						; size = 4
?_Eos@?$basic_string@DU?$char_traits@D@std@@V?$allocator@D@2@@std@@IAEXI@Z PROC NEAR ; std::basic_string<char,std::char_traits<char>,std::allocator<char> >::_Eos, COMDAT
; _this$ = ecx

; 1475 : 		_Traits::assign(_Myptr()[_Mysize = _Newsize], _Elem());

  00000	83 79 18 10	 cmp	 DWORD PTR [ecx+24], 16	; 00000010H
  00004	8b 44 24 04	 mov	 eax, DWORD PTR __Newsize$[esp-4]
  00008	89 41 14	 mov	 DWORD PTR [ecx+20], eax
  0000b	72 0a		 jb	 SHORT $L88144
  0000d	8b 49 04	 mov	 ecx, DWORD PTR [ecx+4]
  00010	c6 04 01 00	 mov	 BYTE PTR [ecx+eax], 0

; 1476 : 		}

  00014	c2 04 00	 ret	 4

; 1475 : 		_Traits::assign(_Myptr()[_Mysize = _Newsize], _Elem());

$L88144:
  00017	c6 44 01 04 00	 mov	 BYTE PTR [ecx+eax+4], 0

; 1476 : 		}

  0001c	c2 04 00	 ret	 4
?_Eos@?$basic_string@DU?$char_traits@D@std@@V?$allocator@D@2@@std@@IAEXI@Z ENDP ; std::basic_string<char,std::char_traits<char>,std::allocator<char> >::_Eos
_TEXT	ENDS
PUBLIC	?max_size@?$basic_string@DU?$char_traits@D@std@@V?$allocator@D@2@@std@@QBEIXZ ; std::basic_string<char,std::char_traits<char>,std::allocator<char> >::max_size
; Function compile flags: /Ogty
;	COMDAT ?max_size@?$basic_string@DU?$char_traits@D@std@@V?$allocator@D@2@@std@@QBEIXZ
_TEXT	SEGMENT
?max_size@?$basic_string@DU?$char_traits@D@std@@V?$allocator@D@2@@std@@QBEIXZ PROC NEAR ; std::basic_string<char,std::char_traits<char>,std::allocator<char> >::max_size, COMDAT
; _this$ = ecx

; 1114 : 		size_type _Num = _Mybase::_Alval.max_size();
; 1115 : 		return (_Num <= 1 ? 1 : _Num - 1);

  00000	b8 fe ff ff ff	 mov	 eax, -2			; fffffffeH

; 1116 : 		}

  00005	c3		 ret	 0
?max_size@?$basic_string@DU?$char_traits@D@std@@V?$allocator@D@2@@std@@QBEIXZ ENDP ; std::basic_string<char,std::char_traits<char>,std::allocator<char> >::max_size
_TEXT	ENDS
PUBLIC	?allocate@?$allocator@D@std@@QAEPADI@Z		; std::allocator<char>::allocate
; Function compile flags: /Ogty
; File c:\program files (x86)\microsoft visual studio .net 2003\vc7\include\xmemory
;	COMDAT ?allocate@?$allocator@D@std@@QAEPADI@Z
_TEXT	SEGMENT
__Count$ = 8						; size = 4
?allocate@?$allocator@D@std@@QAEPADI@Z PROC NEAR	; std::allocator<char>::allocate, COMDAT
; _this$ = ecx

; 137  : 		return (_Allocate(_Count, (pointer)0));

  00000	8b 44 24 04	 mov	 eax, DWORD PTR __Count$[esp-4]
  00004	50		 push	 eax
  00005	e8 00 00 00 00	 call	 ??2@YAPAXI@Z		; operator new
  0000a	83 c4 04	 add	 esp, 4

; 138  : 		}

  0000d	c2 04 00	 ret	 4
?allocate@?$allocator@D@std@@QAEPADI@Z ENDP		; std::allocator<char>::allocate
_TEXT	ENDS
PUBLIC	?_Tidy@?$basic_string@DU?$char_traits@D@std@@V?$allocator@D@2@@std@@IAEX_NI@Z ; std::basic_string<char,std::char_traits<char>,std::allocator<char> >::_Tidy
; Function compile flags: /Ogty
; File c:\program files (x86)\microsoft visual studio .net 2003\vc7\include\xstring
;	COMDAT ?_Tidy@?$basic_string@DU?$char_traits@D@std@@V?$allocator@D@2@@std@@IAEX_NI@Z
_TEXT	SEGMENT
__Built$ = 8						; size = 1
__Newsize$ = 12						; size = 4
?_Tidy@?$basic_string@DU?$char_traits@D@std@@V?$allocator@D@2@@std@@IAEX_NI@Z PROC NEAR ; std::basic_string<char,std::char_traits<char>,std::allocator<char> >::_Tidy, COMDAT
; _this$ = ecx

; 1510 : 		if (!_Built)

  00000	8a 44 24 04	 mov	 al, BYTE PTR __Built$[esp-4]
  00004	84 c0		 test	 al, al
  00006	53		 push	 ebx
  00007	55		 push	 ebp
  00008	8b 6c 24 10	 mov	 ebp, DWORD PTR __Newsize$[esp+4]
  0000c	8b d9		 mov	 ebx, ecx
  0000e	74 2f		 je	 SHORT $L88177

; 1511 : 			;
; 1512 : 		else if (_BUF_SIZE <= _Myres)

  00010	83 7b 18 10	 cmp	 DWORD PTR [ebx+24], 16	; 00000010H
  00014	72 29		 jb	 SHORT $L88177

; 1513 : 			{	// copy any leftovers to small buffer and deallocate
; 1514 : 			_Elem *_Ptr = _Bx._Ptr;
; 1515 : 			if (0 < _Newsize)

  00016	85 ed		 test	 ebp, ebp
  00018	8b 43 04	 mov	 eax, DWORD PTR [ebx+4]
  0001b	57		 push	 edi
  0001c	8d 7b 04	 lea	 edi, DWORD PTR [ebx+4]
  0001f	76 14		 jbe	 SHORT $L88174
  00021	56		 push	 esi

; 1516 : 				_Traits::copy(_Bx._Buf, _Ptr, _Newsize);

  00022	8b cd		 mov	 ecx, ebp
  00024	8b d1		 mov	 edx, ecx
  00026	c1 e9 02	 shr	 ecx, 2
  00029	8b f0		 mov	 esi, eax
  0002b	f3 a5		 rep movsd
  0002d	8b ca		 mov	 ecx, edx
  0002f	83 e1 03	 and	 ecx, 3
  00032	f3 a4		 rep movsb
  00034	5e		 pop	 esi
$L88174:

; 1517 : 			_Mybase::_Alval.deallocate(_Ptr, _Myres + 1);

  00035	50		 push	 eax
  00036	e8 00 00 00 00	 call	 ??3@YAXPAX@Z		; operator delete
  0003b	83 c4 04	 add	 esp, 4
  0003e	5f		 pop	 edi
$L88177:

; 1518 : 			}
; 1519 : 		_Myres = _BUF_SIZE - 1;
; 1520 : 		_Eos(_Newsize);

  0003f	89 6b 14	 mov	 DWORD PTR [ebx+20], ebp
  00042	c7 43 18 0f 00
	00 00		 mov	 DWORD PTR [ebx+24], 15	; 0000000fH
  00049	c6 44 2b 04 00	 mov	 BYTE PTR [ebx+ebp+4], 0
  0004e	5d		 pop	 ebp
  0004f	5b		 pop	 ebx

; 1521 : 		}

  00050	c2 08 00	 ret	 8
?_Tidy@?$basic_string@DU?$char_traits@D@std@@V?$allocator@D@2@@std@@IAEX_NI@Z ENDP ; std::basic_string<char,std::char_traits<char>,std::allocator<char> >::_Tidy
_TEXT	ENDS
PUBLIC	?erase@?$basic_string@DU?$char_traits@D@std@@V?$allocator@D@2@@std@@QAEAAV12@II@Z ; std::basic_string<char,std::char_traits<char>,std::allocator<char> >::erase
EXTRN	?_Xran@_String_base@std@@QBEXXZ:NEAR		; std::_String_base::_Xran
; Function compile flags: /Ogty
;	COMDAT ?erase@?$basic_string@DU?$char_traits@D@std@@V?$allocator@D@2@@std@@QAEAAV12@II@Z
_TEXT	SEGMENT
__Off$ = 8						; size = 4
__Count$ = 12						; size = 4
?erase@?$basic_string@DU?$char_traits@D@std@@V?$allocator@D@2@@std@@QAEAAV12@II@Z PROC NEAR ; std::basic_string<char,std::char_traits<char>,std::allocator<char> >::erase, COMDAT
; _this$ = ecx

; 792  : 		{	// erase elements [_Off, _Off + _Count)

  00000	55		 push	 ebp

; 793  : 		if (_Mysize < _Off)

  00001	8b 6c 24 08	 mov	 ebp, DWORD PTR __Off$[esp]
  00005	56		 push	 esi
  00006	8b f1		 mov	 esi, ecx
  00008	39 6e 14	 cmp	 DWORD PTR [esi+20], ebp
  0000b	57		 push	 edi
  0000c	73 05		 jae	 SHORT $L86152

; 794  : 			_String_base::_Xran();	// _Off off end

  0000e	e8 00 00 00 00	 call	 ?_Xran@_String_base@std@@QBEXXZ ; std::_String_base::_Xran
$L86152:

; 795  : 		if (_Mysize - _Off < _Count)

  00013	8b 46 14	 mov	 eax, DWORD PTR [esi+20]
  00016	8b 7c 24 14	 mov	 edi, DWORD PTR __Count$[esp+8]
  0001a	2b c5		 sub	 eax, ebp
  0001c	3b c7		 cmp	 eax, edi
  0001e	73 02		 jae	 SHORT $L86153

; 796  : 			_Count = _Mysize - _Off;	// trim _Count

  00020	8b f8		 mov	 edi, eax
$L86153:

; 797  : 		if (0 < _Count)

  00022	85 ff		 test	 edi, edi
  00024	76 47		 jbe	 SHORT $L88242

; 798  : 			{	// move elements down
; 799  : 			_Traits::move(_Myptr() + _Off, _Myptr() + _Off + _Count,
; 800  : 				_Mysize - _Off - _Count);

  00026	8b 4e 18	 mov	 ecx, DWORD PTR [esi+24]
  00029	83 f9 10	 cmp	 ecx, 16			; 00000010H
  0002c	53		 push	 ebx
  0002d	8d 5e 04	 lea	 ebx, DWORD PTR [esi+4]
  00030	72 04		 jb	 SHORT $L88207
  00032	8b 13		 mov	 edx, DWORD PTR [ebx]
  00034	eb 02		 jmp	 SHORT $L88208
$L88207:
  00036	8b d3		 mov	 edx, ebx
$L88208:
  00038	83 f9 10	 cmp	 ecx, 16			; 00000010H
  0003b	72 04		 jb	 SHORT $L88214
  0003d	8b 0b		 mov	 ecx, DWORD PTR [ebx]
  0003f	eb 02		 jmp	 SHORT $L88215
$L88214:
  00041	8b cb		 mov	 ecx, ebx
$L88215:
  00043	2b c7		 sub	 eax, edi

; 803  : 			}
; 804  : 		return (*this);

  00045	03 d5		 add	 edx, ebp
  00047	50		 push	 eax
  00048	03 d7		 add	 edx, edi
  0004a	52		 push	 edx
  0004b	03 cd		 add	 ecx, ebp
  0004d	51		 push	 ecx
  0004e	e8 00 00 00 00	 call	 _memmove
  00053	8b 46 14	 mov	 eax, DWORD PTR [esi+20]
  00056	8b 4e 18	 mov	 ecx, DWORD PTR [esi+24]
  00059	2b c7		 sub	 eax, edi
  0005b	83 c4 0c	 add	 esp, 12			; 0000000cH
  0005e	83 f9 10	 cmp	 ecx, 16			; 00000010H
  00061	89 46 14	 mov	 DWORD PTR [esi+20], eax
  00064	72 02		 jb	 SHORT $L88239

; 801  : 			size_type _Newsize = _Mysize - _Count;
; 802  : 			_Eos(_Newsize);

  00066	8b 1b		 mov	 ebx, DWORD PTR [ebx]
$L88239:
  00068	c6 04 03 00	 mov	 BYTE PTR [ebx+eax], 0
  0006c	5b		 pop	 ebx
$L88242:
  0006d	5f		 pop	 edi

; 803  : 			}
; 804  : 		return (*this);

  0006e	8b c6		 mov	 eax, esi
  00070	5e		 pop	 esi
  00071	5d		 pop	 ebp

; 805  : 		}

  00072	c2 08 00	 ret	 8
?erase@?$basic_string@DU?$char_traits@D@std@@V?$allocator@D@2@@std@@QAEAAV12@II@Z ENDP ; std::basic_string<char,std::char_traits<char>,std::allocator<char> >::erase
_TEXT	ENDS
PUBLIC	?_Copy@?$basic_string@DU?$char_traits@D@std@@V?$allocator@D@2@@std@@IAEXII@Z ; std::basic_string<char,std::char_traits<char>,std::allocator<char> >::_Copy
EXTRN	__CxxThrowException@8:NEAR
EXTRN	__except_list:DWORD
EXTRN	___CxxFrameHandler:NEAR
;	COMDAT xdata$x
; File c:\program files (x86)\microsoft visual studio .net 2003\vc7\include\iosfwd
xdata$x	SEGMENT
$T88450	DD	0ffffffffH
	DD	00H
	DD	0ffffffffH
	DD	00H
	DD	01H
	DD	00H
	DD	01H
	DD	00H
$T88452	DD	00H
	DD	00H
	DD	00H
	DD	FLAT:$L88250
$T88453	DD	00H
	DD	00H
	DD	00H
	DD	FLAT:$L88248
$T88451	DD	02H
	DD	02H
	DD	03H
	DD	01H
	DD	FLAT:$T88452
	DD	00H
	DD	00H
	DD	03H
	DD	01H
	DD	FLAT:$T88453
$T88444	DD	019930520H
	DD	04H
	DD	FLAT:$T88450
	DD	02H
	DD	FLAT:$T88451
	DD	2 DUP(00H)
; Function compile flags: /Ogty
; File c:\program files (x86)\microsoft visual studio .net 2003\vc7\include\xstring
xdata$x	ENDS
;	COMDAT ?_Copy@?$basic_string@DU?$char_traits@D@std@@V?$allocator@D@2@@std@@IAEXII@Z
_TEXT	SEGMENT
__Newres$ = -24						; size = 4
_this$ = -20						; size = 4
__$EHRec$ = -16						; size = 16
__Ptr$ = 8						; size = 4
__Newsize$ = 8						; size = 4
__Oldlen$ = 12						; size = 4
?_Copy@?$basic_string@DU?$char_traits@D@std@@V?$allocator@D@2@@std@@IAEXII@Z PROC NEAR ; std::basic_string<char,std::char_traits<char>,std::allocator<char> >::_Copy, COMDAT
; _this$ = ecx

; 1444 : 		{	// copy _Oldlen elements to newly allocated buffer

  00000	55		 push	 ebp
  00001	8b ec		 mov	 ebp, esp
  00003	6a ff		 push	 -1
  00005	68 00 00 00 00	 push	 __ehhandler$?_Copy@?$basic_string@DU?$char_traits@D@std@@V?$allocator@D@2@@std@@IAEXII@Z
  0000a	64 a1 00 00 00
	00		 mov	 eax, DWORD PTR fs:__except_list
  00010	50		 push	 eax
  00011	64 89 25 00 00
	00 00		 mov	 DWORD PTR fs:__except_list, esp
  00018	83 ec 0c	 sub	 esp, 12			; 0000000cH

; 1445 : 		size_type _Newres = _Newsize | _ALLOC_MASK;

  0001b	8b 45 08	 mov	 eax, DWORD PTR __Newsize$[ebp]
  0001e	53		 push	 ebx
  0001f	56		 push	 esi
  00020	8b d8		 mov	 ebx, eax
  00022	83 cb 0f	 or	 ebx, 15			; 0000000fH

; 1446 : 		if (max_size() < _Newres)

  00025	83 fb fe	 cmp	 ebx, -2			; fffffffeH
  00028	57		 push	 edi
  00029	8b f1		 mov	 esi, ecx
  0002b	89 65 f0	 mov	 DWORD PTR __$EHRec$[ebp], esp
  0002e	89 75 ec	 mov	 DWORD PTR _this$[ebp], esi
  00031	76 04		 jbe	 SHORT $L86478

; 1447 : 			_Newres = _Newsize;	// undo roundup if too big

  00033	8b d8		 mov	 ebx, eax

; 1448 : 		else if (_Newres / 3 < _Myres / 2

  00035	eb 22		 jmp	 SHORT $L86480
$L86478:

; 1449 : 			&& _Myres <= max_size() - _Myres / 2)

  00037	8b 7e 18	 mov	 edi, DWORD PTR [esi+24]
  0003a	b8 ab aa aa aa	 mov	 eax, -1431655765	; aaaaaaabH
  0003f	f7 e3		 mul	 ebx
  00041	8b cf		 mov	 ecx, edi
  00043	d1 e9		 shr	 ecx, 1
  00045	d1 ea		 shr	 edx, 1
  00047	3b d1		 cmp	 edx, ecx
  00049	73 0e		 jae	 SHORT $L86480
  0004b	b8 fe ff ff ff	 mov	 eax, -2			; fffffffeH
  00050	2b c1		 sub	 eax, ecx
  00052	3b f8		 cmp	 edi, eax
  00054	77 03		 ja	 SHORT $L86480

; 1450 : 			_Newres = _Myres + _Myres / 2;	// grow exponentially if possible

  00056	8d 1c 39	 lea	 ebx, DWORD PTR [ecx+edi]
$L86480:

; 1451 : 		_Elem *_Ptr;
; 1452 : 
; 1453 : 		_TRY_BEGIN
; 1454 : 			_Ptr = _Mybase::_Alval.allocate(_Newres + 1);

  00059	8d 4b 01	 lea	 ecx, DWORD PTR [ebx+1]
  0005c	51		 push	 ecx
  0005d	c7 45 fc 00 00
	00 00		 mov	 DWORD PTR __$EHRec$[ebp+12], 0
  00064	e8 00 00 00 00	 call	 ??2@YAPAXI@Z		; operator new
  00069	8b d0		 mov	 edx, eax
  0006b	83 c4 04	 add	 esp, 4
  0006e	89 55 08	 mov	 DWORD PTR __Ptr$[ebp], edx
  00071	eb 29		 jmp	 SHORT $L86482
$L88248:

; 1455 : 		_CATCH_ALL
; 1456 : 			_Newres = _Newsize;	// allocation failed, undo roundup and retry

  00073	8b 45 08	 mov	 eax, DWORD PTR __Newsize$[ebp]
  00076	89 45 e8	 mov	 DWORD PTR __Newres$[ebp], eax

; 1457 : 			_TRY_BEGIN
; 1458 : 				_Ptr = _Mybase::_Alval.allocate(_Newres + 1);

  00079	40		 inc	 eax
  0007a	89 65 f0	 mov	 DWORD PTR __$EHRec$[ebp], esp
  0007d	50		 push	 eax
  0007e	c6 45 fc 02	 mov	 BYTE PTR __$EHRec$[ebp+12], 2
  00082	e8 00 00 00 00	 call	 ??2@YAPAXI@Z		; operator new
  00087	89 45 08	 mov	 DWORD PTR __Ptr$[ebp], eax
  0008a	83 c4 04	 add	 esp, 4

; 1462 : 			_CATCH_END
; 1463 : 		_CATCH_END

  0008d	b8 00 00 00 00	 mov	 eax, $L88445
  00092	c3		 ret	 0
$L88445:
  00093	8b 5d e8	 mov	 ebx, DWORD PTR __Newres$[ebp]
  00096	8b 75 ec	 mov	 esi, DWORD PTR _this$[ebp]
  00099	8b 55 08	 mov	 edx, DWORD PTR __Ptr$[ebp]
$L86482:

; 1464 : 
; 1465 : 		if (0 < _Oldlen)

  0009c	8b 4d 0c	 mov	 ecx, DWORD PTR __Oldlen$[ebp]
  0009f	85 c9		 test	 ecx, ecx
  000a1	76 24		 jbe	 SHORT $L88368

; 1466 : 			_Traits::copy(_Ptr, _Myptr(), _Oldlen);	// copy existing elements

  000a3	83 7e 18 10	 cmp	 DWORD PTR [esi+24], 16	; 00000010H
  000a7	72 05		 jb	 SHORT $L88364
  000a9	8b 76 04	 mov	 esi, DWORD PTR [esi+4]
  000ac	eb 03		 jmp	 SHORT $L88365
$L88364:
  000ae	83 c6 04	 add	 esi, 4
$L88365:
  000b1	8b c1		 mov	 eax, ecx
  000b3	c1 e9 02	 shr	 ecx, 2
  000b6	8b fa		 mov	 edi, edx
  000b8	f3 a5		 rep movsd
  000ba	8b c8		 mov	 ecx, eax
  000bc	83 e1 03	 and	 ecx, 3
  000bf	f3 a4		 rep movsb
  000c1	8b 75 ec	 mov	 esi, DWORD PTR _this$[ebp]
  000c4	8b 4d 0c	 mov	 ecx, DWORD PTR __Oldlen$[ebp]
$L88368:

; 1467 : 		_Tidy(true);

  000c7	83 7e 18 10	 cmp	 DWORD PTR [esi+24], 16	; 00000010H
  000cb	72 12		 jb	 SHORT $L88403
  000cd	8b 4e 04	 mov	 ecx, DWORD PTR [esi+4]
  000d0	51		 push	 ecx
  000d1	e8 00 00 00 00	 call	 ??3@YAXPAX@Z		; operator delete
  000d6	8b 55 08	 mov	 edx, DWORD PTR __Ptr$[ebp]
  000d9	8b 4d 0c	 mov	 ecx, DWORD PTR __Oldlen$[ebp]
  000dc	83 c4 04	 add	 esp, 4
$L88403:

; 1468 : 		_Bx._Ptr = _Ptr;
; 1469 : 		_Myres = _Newres;
; 1470 : 		_Eos(_Oldlen);

  000df	83 fb 10	 cmp	 ebx, 16			; 00000010H
  000e2	8d 46 04	 lea	 eax, DWORD PTR [esi+4]
  000e5	c6 00 00	 mov	 BYTE PTR [eax], 0
  000e8	89 10		 mov	 DWORD PTR [eax], edx
  000ea	89 5e 18	 mov	 DWORD PTR [esi+24], ebx
  000ed	89 4e 14	 mov	 DWORD PTR [esi+20], ecx
  000f0	72 02		 jb	 SHORT $L88438
  000f2	8b c2		 mov	 eax, edx
$L88438:

; 1471 : 		}

  000f4	5f		 pop	 edi
  000f5	c6 04 08 00	 mov	 BYTE PTR [eax+ecx], 0
  000f9	8b 4d f4	 mov	 ecx, DWORD PTR __$EHRec$[ebp+4]
  000fc	5e		 pop	 esi
  000fd	64 89 0d 00 00
	00 00		 mov	 DWORD PTR fs:__except_list, ecx
  00104	5b		 pop	 ebx
  00105	8b e5		 mov	 esp, ebp
  00107	5d		 pop	 ebp
  00108	c2 08 00	 ret	 8
$L88250:

; 1459 : 			_CATCH_ALL
; 1460 : 			_Tidy(true);	// failed again, discard storage and reraise

  0010b	8b 75 ec	 mov	 esi, DWORD PTR _this$[ebp]
  0010e	83 7e 18 10	 cmp	 DWORD PTR [esi+24], 16	; 00000010H
  00112	72 0c		 jb	 SHORT $L88342
  00114	8b 56 04	 mov	 edx, DWORD PTR [esi+4]
  00117	52		 push	 edx
  00118	e8 00 00 00 00	 call	 ??3@YAXPAX@Z		; operator delete
  0011d	83 c4 04	 add	 esp, 4
$L88342:

; 1461 : 			_RERAISE;

  00120	6a 00		 push	 0
  00122	c7 46 18 0f 00
	00 00		 mov	 DWORD PTR [esi+24], 15	; 0000000fH
  00129	c7 46 14 00 00
	00 00		 mov	 DWORD PTR [esi+20], 0
  00130	6a 00		 push	 0
  00132	c6 46 04 00	 mov	 BYTE PTR [esi+4], 0
  00136	e8 00 00 00 00	 call	 __CxxThrowException@8
$L88455:
$L88449:
  0013b	cc		 int	 3
_TEXT	ENDS
;	COMDAT text$x
text$x	SEGMENT
__ehhandler$?_Copy@?$basic_string@DU?$char_traits@D@std@@V?$allocator@D@2@@std@@IAEXII@Z:
  00000	b8 00 00 00 00	 mov	 eax, OFFSET FLAT:$T88444
  00005	e9 00 00 00 00	 jmp	 ___CxxFrameHandler
text$x	ENDS
?_Copy@?$basic_string@DU?$char_traits@D@std@@V?$allocator@D@2@@std@@IAEXII@Z ENDP ; std::basic_string<char,std::char_traits<char>,std::allocator<char> >::_Copy
PUBLIC	??1?$basic_string@DU?$char_traits@D@std@@V?$allocator@D@2@@std@@QAE@XZ ; std::basic_string<char,std::char_traits<char>,std::allocator<char> >::~basic_string<char,std::char_traits<char>,std::allocator<char> >
; Function compile flags: /Ogty
;	COMDAT ??1?$basic_string@DU?$char_traits@D@std@@V?$allocator@D@2@@std@@QAE@XZ
_TEXT	SEGMENT
??1?$basic_string@DU?$char_traits@D@std@@V?$allocator@D@2@@std@@QAE@XZ PROC NEAR ; std::basic_string<char,std::char_traits<char>,std::allocator<char> >::~basic_string<char,std::char_traits<char>,std::allocator<char> >, COMDAT
; _this$ = ecx

; 456  : 		{	// destroy the string

  00000	56		 push	 esi
  00001	8b f1		 mov	 esi, ecx

; 457  : 		_Tidy(true);

  00003	83 7e 18 10	 cmp	 DWORD PTR [esi+24], 16	; 00000010H
  00007	72 0c		 jb	 SHORT $L88493
  00009	8b 46 04	 mov	 eax, DWORD PTR [esi+4]
  0000c	50		 push	 eax
  0000d	e8 00 00 00 00	 call	 ??3@YAXPAX@Z		; operator delete
  00012	83 c4 04	 add	 esp, 4
$L88493:
  00015	33 c0		 xor	 eax, eax
  00017	c7 46 18 0f 00
	00 00		 mov	 DWORD PTR [esi+24], 15	; 0000000fH
  0001e	89 46 14	 mov	 DWORD PTR [esi+20], eax
  00021	88 46 04	 mov	 BYTE PTR [esi+4], al
  00024	5e		 pop	 esi

; 458  : 		}

  00025	c3		 ret	 0
??1?$basic_string@DU?$char_traits@D@std@@V?$allocator@D@2@@std@@QAE@XZ ENDP ; std::basic_string<char,std::char_traits<char>,std::allocator<char> >::~basic_string<char,std::char_traits<char>,std::allocator<char> >
_TEXT	ENDS
PUBLIC	?_Grow@?$basic_string@DU?$char_traits@D@std@@V?$allocator@D@2@@std@@IAE_NI_N@Z ; std::basic_string<char,std::char_traits<char>,std::allocator<char> >::_Grow
EXTRN	?_Xlen@_String_base@std@@QBEXXZ:NEAR		; std::_String_base::_Xlen
; Function compile flags: /Ogty
;	COMDAT ?_Grow@?$basic_string@DU?$char_traits@D@std@@V?$allocator@D@2@@std@@IAE_NI_N@Z
_TEXT	SEGMENT
__Newsize$ = 8						; size = 4
__Trim$ = 12						; size = 1
?_Grow@?$basic_string@DU?$char_traits@D@std@@V?$allocator@D@2@@std@@IAE_NI_N@Z PROC NEAR ; std::basic_string<char,std::char_traits<char>,std::allocator<char> >::_Grow, COMDAT
; _this$ = ecx

; 1480 : 		{	// ensure buffer is big enough, trim to size if _Trim is true

  00000	55		 push	 ebp
  00001	56		 push	 esi

; 1481 : 		if (max_size() < _Newsize)

  00002	8b 74 24 0c	 mov	 esi, DWORD PTR __Newsize$[esp+4]
  00006	83 fe fe	 cmp	 esi, -2			; fffffffeH
  00009	8b e9		 mov	 ebp, ecx
  0000b	76 05		 jbe	 SHORT $L86161

; 1482 : 			_String_base::_Xlen();	// result too long

  0000d	e8 00 00 00 00	 call	 ?_Xlen@_String_base@std@@QBEXXZ ; std::_String_base::_Xlen
$L86161:

; 1483 : 		if (_Myres < _Newsize)

  00012	8b 45 18	 mov	 eax, DWORD PTR [ebp+24]
  00015	3b c6		 cmp	 eax, esi
  00017	73 19		 jae	 SHORT $L86162

; 1484 : 			_Copy(_Newsize, _Mysize);	// reallocate to grow

  00019	8b 45 14	 mov	 eax, DWORD PTR [ebp+20]
  0001c	50		 push	 eax
  0001d	56		 push	 esi
  0001e	8b cd		 mov	 ecx, ebp
  00020	e8 00 00 00 00	 call	 ?_Copy@?$basic_string@DU?$char_traits@D@std@@V?$allocator@D@2@@std@@IAEXII@Z ; std::basic_string<char,std::char_traits<char>,std::allocator<char> >::_Copy

; 1490 : 		return (0 < _Newsize);	// return true only if more work to do

  00025	33 c0		 xor	 eax, eax
  00027	3b c6		 cmp	 eax, esi
  00029	1b c0		 sbb	 eax, eax
  0002b	5e		 pop	 esi
  0002c	f7 d8		 neg	 eax
  0002e	5d		 pop	 ebp

; 1491 : 		}

  0002f	c2 08 00	 ret	 8
$L86162:

; 1485 : 		else if (_Trim && _Newsize < _BUF_SIZE)

  00032	8a 4c 24 10	 mov	 cl, BYTE PTR __Trim$[esp+4]
  00036	84 c9		 test	 cl, cl
  00038	74 5c		 je	 SHORT $L86164
  0003a	83 fe 10	 cmp	 esi, 16			; 00000010H
  0003d	73 57		 jae	 SHORT $L86164
  0003f	53		 push	 ebx

; 1486 : 			_Tidy(true,	// copy and deallocate if trimming to small string
; 1487 : 				_Newsize < _Mysize ? _Newsize : _Mysize);

  00040	8b 5d 14	 mov	 ebx, DWORD PTR [ebp+20]
  00043	3b f3		 cmp	 esi, ebx
  00045	73 02		 jae	 SHORT $L88514
  00047	8b de		 mov	 ebx, esi
$L88514:
  00049	83 f8 10	 cmp	 eax, 16			; 00000010H
  0004c	72 2b		 jb	 SHORT $L88568
  0004e	85 db		 test	 ebx, ebx
  00050	8b 45 04	 mov	 eax, DWORD PTR [ebp+4]
  00053	57		 push	 edi
  00054	8d 7d 04	 lea	 edi, DWORD PTR [ebp+4]
  00057	76 16		 jbe	 SHORT $L88567
  00059	8b cb		 mov	 ecx, ebx
  0005b	8b d1		 mov	 edx, ecx
  0005d	c1 e9 02	 shr	 ecx, 2
  00060	8b f0		 mov	 esi, eax
  00062	f3 a5		 rep movsd
  00064	8b ca		 mov	 ecx, edx
  00066	83 e1 03	 and	 ecx, 3
  00069	f3 a4		 rep movsb
  0006b	8b 74 24 14	 mov	 esi, DWORD PTR __Newsize$[esp+12]
$L88567:
  0006f	50		 push	 eax
  00070	e8 00 00 00 00	 call	 ??3@YAXPAX@Z		; operator delete
  00075	83 c4 04	 add	 esp, 4
  00078	5f		 pop	 edi
$L88568:
  00079	89 5d 14	 mov	 DWORD PTR [ebp+20], ebx

; 1490 : 		return (0 < _Newsize);	// return true only if more work to do

  0007c	33 c0		 xor	 eax, eax
  0007e	c7 45 18 0f 00
	00 00		 mov	 DWORD PTR [ebp+24], 15	; 0000000fH
  00085	c6 44 2b 04 00	 mov	 BYTE PTR [ebx+ebp+4], 0
  0008a	3b c6		 cmp	 eax, esi
  0008c	5b		 pop	 ebx
  0008d	1b c0		 sbb	 eax, eax
  0008f	5e		 pop	 esi
  00090	f7 d8		 neg	 eax
  00092	5d		 pop	 ebp

; 1491 : 		}

  00093	c2 08 00	 ret	 8
$L86164:

; 1488 : 		else if (_Newsize == 0)

  00096	85 f6		 test	 esi, esi
  00098	75 23		 jne	 SHORT $L88606

; 1489 : 			_Eos(0);	// new size is zero, just null terminate

  0009a	83 f8 10	 cmp	 eax, 16			; 00000010H
  0009d	89 75 14	 mov	 DWORD PTR [ebp+20], esi
  000a0	72 14		 jb	 SHORT $L88603
  000a2	8b 6d 04	 mov	 ebp, DWORD PTR [ebp+4]

; 1490 : 		return (0 < _Newsize);	// return true only if more work to do

  000a5	33 c0		 xor	 eax, eax
  000a7	3b c6		 cmp	 eax, esi
  000a9	1b c0		 sbb	 eax, eax
  000ab	5e		 pop	 esi
  000ac	c6 45 00 00	 mov	 BYTE PTR [ebp], 0
  000b0	f7 d8		 neg	 eax
  000b2	5d		 pop	 ebp

; 1491 : 		}

  000b3	c2 08 00	 ret	 8

; 1489 : 			_Eos(0);	// new size is zero, just null terminate

$L88603:
  000b6	83 c5 04	 add	 ebp, 4
  000b9	c6 45 00 00	 mov	 BYTE PTR [ebp], 0
$L88606:

; 1490 : 		return (0 < _Newsize);	// return true only if more work to do

  000bd	33 c0		 xor	 eax, eax
  000bf	3b c6		 cmp	 eax, esi
  000c1	1b c0		 sbb	 eax, eax
  000c3	5e		 pop	 esi
  000c4	f7 d8		 neg	 eax
  000c6	5d		 pop	 ebp

; 1491 : 		}

  000c7	c2 08 00	 ret	 8
?_Grow@?$basic_string@DU?$char_traits@D@std@@V?$allocator@D@2@@std@@IAE_NI_N@Z ENDP ; std::basic_string<char,std::char_traits<char>,std::allocator<char> >::_Grow
_TEXT	ENDS
PUBLIC	?assign@?$basic_string@DU?$char_traits@D@std@@V?$allocator@D@2@@std@@QAEAAV12@ABV12@II@Z ; std::basic_string<char,std::char_traits<char>,std::allocator<char> >::assign
; Function compile flags: /Ogty
;	COMDAT ?assign@?$basic_string@DU?$char_traits@D@std@@V?$allocator@D@2@@std@@QAEAAV12@ABV12@II@Z
_TEXT	SEGMENT
__Right$ = 8						; size = 4
__Roff$ = 12						; size = 4
__Count$ = 16						; size = 4
?assign@?$basic_string@DU?$char_traits@D@std@@V?$allocator@D@2@@std@@QAEAAV12@ABV12@II@Z PROC NEAR ; std::basic_string<char,std::char_traits<char>,std::allocator<char> >::assign, COMDAT
; _this$ = ecx

; 590  : 		{	// assign _Right [_Roff, _Roff + _Count)

  00000	53		 push	 ebx
  00001	55		 push	 ebp
  00002	56		 push	 esi

; 591  : 		if (_Right.size() < _Roff)

  00003	8b 74 24 14	 mov	 esi, DWORD PTR __Roff$[esp+8]
  00007	57		 push	 edi
  00008	8b 7c 24 14	 mov	 edi, DWORD PTR __Right$[esp+12]
  0000c	39 77 14	 cmp	 DWORD PTR [edi+20], esi
  0000f	8b d9		 mov	 ebx, ecx
  00011	73 05		 jae	 SHORT $L85653

; 592  : 			_String_base::_Xran();	// _Roff off end

  00013	e8 00 00 00 00	 call	 ?_Xran@_String_base@std@@QBEXXZ ; std::_String_base::_Xran
$L85653:

; 593  : 		size_type _Num = _Right.size() - _Roff;

  00018	8b 6f 14	 mov	 ebp, DWORD PTR [edi+20]

; 594  : 		if (_Count < _Num)

  0001b	8b 44 24 1c	 mov	 eax, DWORD PTR __Count$[esp+12]
  0001f	2b ee		 sub	 ebp, esi
  00021	3b c5		 cmp	 eax, ebp
  00023	73 02		 jae	 SHORT $L85655

; 595  : 			_Num = _Count;	// trim _Num to size

  00025	8b e8		 mov	 ebp, eax
$L85655:

; 596  : 
; 597  : 		if (this == &_Right)

  00027	3b df		 cmp	 ebx, edi
  00029	75 1f		 jne	 SHORT $L85656

; 598  : 			erase((size_type)(_Roff + _Num)), erase(0, _Roff);	// substring

  0002b	6a ff		 push	 -1
  0002d	03 ee		 add	 ebp, esi
  0002f	55		 push	 ebp
  00030	8b cb		 mov	 ecx, ebx
  00032	e8 00 00 00 00	 call	 ?erase@?$basic_string@DU?$char_traits@D@std@@V?$allocator@D@2@@std@@QAEAAV12@II@Z ; std::basic_string<char,std::char_traits<char>,std::allocator<char> >::erase
  00037	56		 push	 esi
  00038	6a 00		 push	 0
  0003a	8b cb		 mov	 ecx, ebx
  0003c	e8 00 00 00 00	 call	 ?erase@?$basic_string@DU?$char_traits@D@std@@V?$allocator@D@2@@std@@QAEAAV12@II@Z ; std::basic_string<char,std::char_traits<char>,std::allocator<char> >::erase
  00041	5f		 pop	 edi
  00042	5e		 pop	 esi
  00043	5d		 pop	 ebp

; 603  : 			}
; 604  : 		return (*this);

  00044	8b c3		 mov	 eax, ebx
  00046	5b		 pop	 ebx

; 605  : 		}

  00047	c2 0c 00	 ret	 12			; 0000000cH
$L85656:

; 599  : 		else if (_Grow(_Num))

  0004a	83 fd fe	 cmp	 ebp, -2			; fffffffeH
  0004d	76 07		 jbe	 SHORT $L88716
  0004f	8b cb		 mov	 ecx, ebx
  00051	e8 00 00 00 00	 call	 ?_Xlen@_String_base@std@@QBEXXZ ; std::_String_base::_Xlen
$L88716:
  00056	8b 43 18	 mov	 eax, DWORD PTR [ebx+24]
  00059	3b c5		 cmp	 eax, ebp
  0005b	73 21		 jae	 SHORT $L88717
  0005d	8b 43 14	 mov	 eax, DWORD PTR [ebx+20]
  00060	50		 push	 eax
  00061	55		 push	 ebp
  00062	8b cb		 mov	 ecx, ebx
  00064	e8 00 00 00 00	 call	 ?_Copy@?$basic_string@DU?$char_traits@D@std@@V?$allocator@D@2@@std@@IAEXII@Z ; std::basic_string<char,std::char_traits<char>,std::allocator<char> >::_Copy
  00069	85 ed		 test	 ebp, ebp
$L88804:
  0006b	76 6d		 jbe	 SHORT $L88803

; 600  : 			{	// make room and assign new stuff
; 601  : 			_Traits::copy(_Myptr(), _Right._Myptr() + _Roff, _Num);

  0006d	8b 4f 18	 mov	 ecx, DWORD PTR [edi+24]
  00070	b8 10 00 00 00	 mov	 eax, 16			; 00000010H
  00075	3b c8		 cmp	 ecx, eax
  00077	72 2f		 jb	 SHORT $L88768
  00079	8b 57 04	 mov	 edx, DWORD PTR [edi+4]
  0007c	eb 2d		 jmp	 SHORT $L88769

; 599  : 		else if (_Grow(_Num))

$L88717:
  0007e	85 ed		 test	 ebp, ebp
  00080	75 e9		 jne	 SHORT $L88804
  00082	83 f8 10	 cmp	 eax, 16			; 00000010H
  00085	89 6b 14	 mov	 DWORD PTR [ebx+20], ebp
  00088	72 0f		 jb	 SHORT $L88760
  0008a	8b 43 04	 mov	 eax, DWORD PTR [ebx+4]
  0008d	5f		 pop	 edi
  0008e	5e		 pop	 esi
  0008f	c6 00 00	 mov	 BYTE PTR [eax], 0
  00092	5d		 pop	 ebp

; 603  : 			}
; 604  : 		return (*this);

  00093	8b c3		 mov	 eax, ebx
  00095	5b		 pop	 ebx

; 605  : 		}

  00096	c2 0c 00	 ret	 12			; 0000000cH

; 599  : 		else if (_Grow(_Num))

$L88760:
  00099	5f		 pop	 edi
  0009a	8d 43 04	 lea	 eax, DWORD PTR [ebx+4]
  0009d	5e		 pop	 esi
  0009e	c6 00 00	 mov	 BYTE PTR [eax], 0
  000a1	5d		 pop	 ebp

; 603  : 			}
; 604  : 		return (*this);

  000a2	8b c3		 mov	 eax, ebx
  000a4	5b		 pop	 ebx

; 605  : 		}

  000a5	c2 0c 00	 ret	 12			; 0000000cH

; 600  : 			{	// make room and assign new stuff
; 601  : 			_Traits::copy(_Myptr(), _Right._Myptr() + _Roff, _Num);

$L88768:
  000a8	8d 57 04	 lea	 edx, DWORD PTR [edi+4]
$L88769:
  000ab	39 43 18	 cmp	 DWORD PTR [ebx+24], eax
  000ae	8d 43 04	 lea	 eax, DWORD PTR [ebx+4]
  000b1	72 04		 jb	 SHORT $L88776
  000b3	8b 38		 mov	 edi, DWORD PTR [eax]
  000b5	eb 02		 jmp	 SHORT $L88777
$L88776:
  000b7	8b f8		 mov	 edi, eax
$L88777:
  000b9	03 f2		 add	 esi, edx
  000bb	8b cd		 mov	 ecx, ebp
  000bd	8b d1		 mov	 edx, ecx
  000bf	c1 e9 02	 shr	 ecx, 2
  000c2	f3 a5		 rep movsd
  000c4	8b ca		 mov	 ecx, edx
  000c6	83 e1 03	 and	 ecx, 3
  000c9	f3 a4		 rep movsb

; 602  : 			_Eos(_Num);

  000cb	83 7b 18 10	 cmp	 DWORD PTR [ebx+24], 16	; 00000010H
  000cf	89 6b 14	 mov	 DWORD PTR [ebx+20], ebp
  000d2	72 02		 jb	 SHORT $L88800
  000d4	8b 00		 mov	 eax, DWORD PTR [eax]
$L88800:
  000d6	c6 04 28 00	 mov	 BYTE PTR [eax+ebp], 0
$L88803:
  000da	5f		 pop	 edi
  000db	5e		 pop	 esi
  000dc	5d		 pop	 ebp

; 603  : 			}
; 604  : 		return (*this);

  000dd	8b c3		 mov	 eax, ebx
  000df	5b		 pop	 ebx

; 605  : 		}

  000e0	c2 0c 00	 ret	 12			; 0000000cH
?assign@?$basic_string@DU?$char_traits@D@std@@V?$allocator@D@2@@std@@QAEAAV12@ABV12@II@Z ENDP ; std::basic_string<char,std::char_traits<char>,std::allocator<char> >::assign
_TEXT	ENDS
PUBLIC	?assign@?$basic_string@DU?$char_traits@D@std@@V?$allocator@D@2@@std@@QAEAAV12@PBDI@Z ; std::basic_string<char,std::char_traits<char>,std::allocator<char> >::assign
; Function compile flags: /Ogty
;	COMDAT ?assign@?$basic_string@DU?$char_traits@D@std@@V?$allocator@D@2@@std@@QAEAAV12@PBDI@Z
_TEXT	SEGMENT
__Ptr$ = 8						; size = 4
__Num$ = 12						; size = 4
?assign@?$basic_string@DU?$char_traits@D@std@@V?$allocator@D@2@@std@@QAEAAV12@PBDI@Z PROC NEAR ; std::basic_string<char,std::char_traits<char>,std::allocator<char> >::assign, COMDAT
; _this$ = ecx

; 608  : 		{	// assign [_Ptr, _Ptr + _Num)

  00000	53		 push	 ebx
  00001	8b d9		 mov	 ebx, ecx

; 609  : 		if (_Inside(_Ptr))

  00003	8b 53 18	 mov	 edx, DWORD PTR [ebx+24]
  00006	83 fa 10	 cmp	 edx, 16			; 00000010H
  00009	56		 push	 esi
  0000a	57		 push	 edi
  0000b	72 05		 jb	 SHORT $L88830
  0000d	8b 43 04	 mov	 eax, DWORD PTR [ebx+4]
  00010	eb 03		 jmp	 SHORT $L88831
$L88830:
  00012	8d 43 04	 lea	 eax, DWORD PTR [ebx+4]
$L88831:
  00015	8b 74 24 10	 mov	 esi, DWORD PTR __Ptr$[esp+8]
  00019	3b f0		 cmp	 esi, eax
  0001b	72 34		 jb	 SHORT $L86148
  0001d	83 fa 10	 cmp	 edx, 16			; 00000010H
  00020	8d 43 04	 lea	 eax, DWORD PTR [ebx+4]
  00023	72 04		 jb	 SHORT $L88834
  00025	8b 08		 mov	 ecx, DWORD PTR [eax]
  00027	eb 02		 jmp	 SHORT $L88835
$L88834:
  00029	8b c8		 mov	 ecx, eax
$L88835:
  0002b	8b 7b 14	 mov	 edi, DWORD PTR [ebx+20]
  0002e	03 f9		 add	 edi, ecx
  00030	3b fe		 cmp	 edi, esi
  00032	76 1d		 jbe	 SHORT $L86148

; 610  : 			return (assign(*this, _Ptr - _Myptr(), _Num));	// substring

  00034	83 fa 10	 cmp	 edx, 16			; 00000010H
  00037	72 02		 jb	 SHORT $L88843
  00039	8b 00		 mov	 eax, DWORD PTR [eax]
$L88843:
  0003b	8b 4c 24 14	 mov	 ecx, DWORD PTR __Num$[esp+8]
  0003f	51		 push	 ecx
  00040	2b f0		 sub	 esi, eax
  00042	56		 push	 esi
  00043	53		 push	 ebx
  00044	8b cb		 mov	 ecx, ebx
  00046	e8 00 00 00 00	 call	 ?assign@?$basic_string@DU?$char_traits@D@std@@V?$allocator@D@2@@std@@QAEAAV12@ABV12@II@Z ; std::basic_string<char,std::char_traits<char>,std::allocator<char> >::assign
  0004b	5f		 pop	 edi
  0004c	5e		 pop	 esi
  0004d	5b		 pop	 ebx

; 618  : 		}

  0004e	c2 08 00	 ret	 8
$L86148:
  00051	55		 push	 ebp

; 611  : 
; 612  : 		if (_Grow(_Num))

  00052	8b 6c 24 18	 mov	 ebp, DWORD PTR __Num$[esp+12]
  00056	83 fd fe	 cmp	 ebp, -2			; fffffffeH
  00059	76 07		 jbe	 SHORT $L88941
  0005b	8b cb		 mov	 ecx, ebx
  0005d	e8 00 00 00 00	 call	 ?_Xlen@_String_base@std@@QBEXXZ ; std::_String_base::_Xlen
$L88941:
  00062	8b 43 18	 mov	 eax, DWORD PTR [ebx+24]
  00065	3b c5		 cmp	 eax, ebp
  00067	73 1b		 jae	 SHORT $L88942
  00069	8b 53 14	 mov	 edx, DWORD PTR [ebx+20]
  0006c	52		 push	 edx
  0006d	55		 push	 ebp
  0006e	8b cb		 mov	 ecx, ebx
  00070	e8 00 00 00 00	 call	 ?_Copy@?$basic_string@DU?$char_traits@D@std@@V?$allocator@D@2@@std@@IAEXII@Z ; std::basic_string<char,std::char_traits<char>,std::allocator<char> >::_Copy
  00075	85 ed		 test	 ebp, ebp
$L89022:
  00077	76 68		 jbe	 SHORT $L89020

; 613  : 			{	// make room and assign new stuff
; 614  : 			_Traits::copy(_Myptr(), _Ptr, _Num);

  00079	83 7b 18 10	 cmp	 DWORD PTR [ebx+24], 16	; 00000010H
  0007d	72 2f		 jb	 SHORT $L88994
  0007f	8b 7b 04	 mov	 edi, DWORD PTR [ebx+4]
  00082	eb 2d		 jmp	 SHORT $L88995

; 611  : 
; 612  : 		if (_Grow(_Num))

$L88942:
  00084	85 ed		 test	 ebp, ebp
  00086	75 ef		 jne	 SHORT $L89022
  00088	83 f8 10	 cmp	 eax, 16			; 00000010H
  0008b	89 6b 14	 mov	 DWORD PTR [ebx+20], ebp
  0008e	72 0f		 jb	 SHORT $L88985
  00090	8b 43 04	 mov	 eax, DWORD PTR [ebx+4]
  00093	5d		 pop	 ebp
  00094	5f		 pop	 edi
  00095	c6 00 00	 mov	 BYTE PTR [eax], 0
  00098	5e		 pop	 esi

; 616  : 			}
; 617  : 		return (*this);

  00099	8b c3		 mov	 eax, ebx
  0009b	5b		 pop	 ebx

; 618  : 		}

  0009c	c2 08 00	 ret	 8

; 611  : 
; 612  : 		if (_Grow(_Num))

$L88985:
  0009f	5d		 pop	 ebp
  000a0	8d 43 04	 lea	 eax, DWORD PTR [ebx+4]
  000a3	5f		 pop	 edi
  000a4	c6 00 00	 mov	 BYTE PTR [eax], 0
  000a7	5e		 pop	 esi

; 616  : 			}
; 617  : 		return (*this);

  000a8	8b c3		 mov	 eax, ebx
  000aa	5b		 pop	 ebx

; 618  : 		}

  000ab	c2 08 00	 ret	 8

; 613  : 			{	// make room and assign new stuff
; 614  : 			_Traits::copy(_Myptr(), _Ptr, _Num);

$L88994:
  000ae	8d 7b 04	 lea	 edi, DWORD PTR [ebx+4]
$L88995:
  000b1	8b cd		 mov	 ecx, ebp
  000b3	8b c1		 mov	 eax, ecx
  000b5	c1 e9 02	 shr	 ecx, 2
  000b8	f3 a5		 rep movsd
  000ba	8b c8		 mov	 ecx, eax
  000bc	83 e1 03	 and	 ecx, 3
  000bf	f3 a4		 rep movsb

; 615  : 			_Eos(_Num);

  000c1	83 7b 18 10	 cmp	 DWORD PTR [ebx+24], 16	; 00000010H
  000c5	89 6b 14	 mov	 DWORD PTR [ebx+20], ebp
  000c8	72 10		 jb	 SHORT $L89017
  000ca	8b 43 04	 mov	 eax, DWORD PTR [ebx+4]
  000cd	c6 04 28 00	 mov	 BYTE PTR [eax+ebp], 0
  000d1	5d		 pop	 ebp
  000d2	5f		 pop	 edi
  000d3	5e		 pop	 esi

; 616  : 			}
; 617  : 		return (*this);

  000d4	8b c3		 mov	 eax, ebx
  000d6	5b		 pop	 ebx

; 618  : 		}

  000d7	c2 08 00	 ret	 8

; 615  : 			_Eos(_Num);

$L89017:
  000da	8d 43 04	 lea	 eax, DWORD PTR [ebx+4]
  000dd	c6 04 28 00	 mov	 BYTE PTR [eax+ebp], 0
$L89020:
  000e1	5d		 pop	 ebp
  000e2	5f		 pop	 edi
  000e3	5e		 pop	 esi

; 616  : 			}
; 617  : 		return (*this);

  000e4	8b c3		 mov	 eax, ebx
  000e6	5b		 pop	 ebx

; 618  : 		}

  000e7	c2 08 00	 ret	 8
?assign@?$basic_string@DU?$char_traits@D@std@@V?$allocator@D@2@@std@@QAEAAV12@PBDI@Z ENDP ; std::basic_string<char,std::char_traits<char>,std::allocator<char> >::assign
_TEXT	ENDS
PUBLIC	??0?$basic_string@DU?$char_traits@D@std@@V?$allocator@D@2@@std@@QAE@ABV01@@Z ; std::basic_string<char,std::char_traits<char>,std::allocator<char> >::basic_string<char,std::char_traits<char>,std::allocator<char> >
; Function compile flags: /Ogty
;	COMDAT ??0?$basic_string@DU?$char_traits@D@std@@V?$allocator@D@2@@std@@QAE@ABV01@@Z
_TEXT	SEGMENT
__Right$ = 8						; size = 4
??0?$basic_string@DU?$char_traits@D@std@@V?$allocator@D@2@@std@@QAE@ABV01@@Z PROC NEAR ; std::basic_string<char,std::char_traits<char>,std::allocator<char> >::basic_string<char,std::char_traits<char>,std::allocator<char> >, COMDAT
; _this$ = ecx

; 323  : 		{	// construct by copying _Right

  00000	56		 push	 esi

; 324  : 		_Tidy();

  00001	33 c0		 xor	 eax, eax
  00003	8b f1		 mov	 esi, ecx

; 325  : 		assign(_Right, 0, npos);

  00005	6a ff		 push	 -1
  00007	89 46 14	 mov	 DWORD PTR [esi+20], eax
  0000a	c7 46 18 0f 00
	00 00		 mov	 DWORD PTR [esi+24], 15	; 0000000fH
  00011	50		 push	 eax
  00012	88 46 04	 mov	 BYTE PTR [esi+4], al
  00015	8b 44 24 10	 mov	 eax, DWORD PTR __Right$[esp+8]
  00019	50		 push	 eax
  0001a	e8 00 00 00 00	 call	 ?assign@?$basic_string@DU?$char_traits@D@std@@V?$allocator@D@2@@std@@QAEAAV12@ABV12@II@Z ; std::basic_string<char,std::char_traits<char>,std::allocator<char> >::assign

; 326  : 		}

  0001f	8b c6		 mov	 eax, esi
  00021	5e		 pop	 esi
  00022	c2 04 00	 ret	 4
??0?$basic_string@DU?$char_traits@D@std@@V?$allocator@D@2@@std@@QAE@ABV01@@Z ENDP ; std::basic_string<char,std::char_traits<char>,std::allocator<char> >::basic_string<char,std::char_traits<char>,std::allocator<char> >
_TEXT	ENDS
PUBLIC	?assign@?$basic_string@DU?$char_traits@D@std@@V?$allocator@D@2@@std@@QAEAAV12@PBD@Z ; std::basic_string<char,std::char_traits<char>,std::allocator<char> >::assign
; Function compile flags: /Ogty
;	COMDAT ?assign@?$basic_string@DU?$char_traits@D@std@@V?$allocator@D@2@@std@@QAEAAV12@PBD@Z
_TEXT	SEGMENT
__Ptr$ = 8						; size = 4
?assign@?$basic_string@DU?$char_traits@D@std@@V?$allocator@D@2@@std@@QAEAAV12@PBD@Z PROC NEAR ; std::basic_string<char,std::char_traits<char>,std::allocator<char> >::assign, COMDAT
; _this$ = ecx

; 621  : 		{	// assign [_Ptr, <null>)

  00000	56		 push	 esi

; 622  : 		return (assign(_Ptr, _Traits::length(_Ptr)));

  00001	8b 74 24 08	 mov	 esi, DWORD PTR __Ptr$[esp]
  00005	8b c6		 mov	 eax, esi
  00007	57		 push	 edi
  00008	8d 78 01	 lea	 edi, DWORD PTR [eax+1]
  0000b	eb 03 8d 49 00	 npad	 5
$L89095:
  00010	8a 10		 mov	 dl, BYTE PTR [eax]
  00012	40		 inc	 eax
  00013	84 d2		 test	 dl, dl
  00015	75 f9		 jne	 SHORT $L89095
  00017	2b c7		 sub	 eax, edi
  00019	50		 push	 eax
  0001a	56		 push	 esi
  0001b	e8 00 00 00 00	 call	 ?assign@?$basic_string@DU?$char_traits@D@std@@V?$allocator@D@2@@std@@QAEAAV12@PBDI@Z ; std::basic_string<char,std::char_traits<char>,std::allocator<char> >::assign
  00020	5f		 pop	 edi
  00021	5e		 pop	 esi

; 623  : 		}

  00022	c2 04 00	 ret	 4
?assign@?$basic_string@DU?$char_traits@D@std@@V?$allocator@D@2@@std@@QAEAAV12@PBD@Z ENDP ; std::basic_string<char,std::char_traits<char>,std::allocator<char> >::assign
_TEXT	ENDS
PUBLIC	??0?$basic_string@DU?$char_traits@D@std@@V?$allocator@D@2@@std@@QAE@PBD@Z ; std::basic_string<char,std::char_traits<char>,std::allocator<char> >::basic_string<char,std::char_traits<char>,std::allocator<char> >
; Function compile flags: /Ogty
;	COMDAT ??0?$basic_string@DU?$char_traits@D@std@@V?$allocator@D@2@@std@@QAE@PBD@Z
_TEXT	SEGMENT
__Ptr$ = 8						; size = 4
??0?$basic_string@DU?$char_traits@D@std@@V?$allocator@D@2@@std@@QAE@PBD@Z PROC NEAR ; std::basic_string<char,std::char_traits<char>,std::allocator<char> >::basic_string<char,std::char_traits<char>,std::allocator<char> >, COMDAT
; _this$ = ecx

; 361  : 		_Tidy();
; 362  : 		assign(_Ptr);

  00000	8b 54 24 04	 mov	 edx, DWORD PTR __Ptr$[esp-4]
  00004	56		 push	 esi
  00005	8b f1		 mov	 esi, ecx
  00007	8b c2		 mov	 eax, edx
  00009	57		 push	 edi
  0000a	c7 46 18 0f 00
	00 00		 mov	 DWORD PTR [esi+24], 15	; 0000000fH
  00011	c7 46 14 00 00
	00 00		 mov	 DWORD PTR [esi+20], 0
  00018	c6 46 04 00	 mov	 BYTE PTR [esi+4], 0
  0001c	8d 78 01	 lea	 edi, DWORD PTR [eax+1]
  0001f	90		 npad	 1
$L89170:
  00020	8a 08		 mov	 cl, BYTE PTR [eax]
  00022	40		 inc	 eax
  00023	84 c9		 test	 cl, cl
  00025	75 f9		 jne	 SHORT $L89170
  00027	2b c7		 sub	 eax, edi
  00029	50		 push	 eax
  0002a	52		 push	 edx
  0002b	8b ce		 mov	 ecx, esi
  0002d	e8 00 00 00 00	 call	 ?assign@?$basic_string@DU?$char_traits@D@std@@V?$allocator@D@2@@std@@QAEAAV12@PBDI@Z ; std::basic_string<char,std::char_traits<char>,std::allocator<char> >::assign
  00032	5f		 pop	 edi

; 363  : 		}

  00033	8b c6		 mov	 eax, esi
  00035	5e		 pop	 esi
  00036	c2 04 00	 ret	 4
??0?$basic_string@DU?$char_traits@D@std@@V?$allocator@D@2@@std@@QAE@PBD@Z ENDP ; std::basic_string<char,std::char_traits<char>,std::allocator<char> >::basic_string<char,std::char_traits<char>,std::allocator<char> >
_TEXT	ENDS
PUBLIC	??0CTBLMachine@@QAE@PAVCSqlDatabase@@V?$basic_string@DU?$char_traits@D@std@@V?$allocator@D@2@@std@@@Z ; CTBLMachine::CTBLMachine
PUBLIC	?GetNumCol@CTBLMachine@@UAEHXZ			; CTBLMachine::GetNumCol
PUBLIC	?BindColumns@CTBLMachine@@UAEFXZ		; CTBLMachine::BindColumns
PUBLIC	??_7CTBLMachine@@6B@				; CTBLMachine::`vftable'
PUBLIC	??_GCTBLMachine@@UAEPAXI@Z			; CTBLMachine::`scalar deleting destructor'
PUBLIC	??_C@_0DC@KCBFKODM@SELECT?5bMachineID?0?5szName?0?5bRout@ ; `string'
EXTRN	??_ECTBLMachine@@UAEPAXI@Z:NEAR			; CTBLMachine::`vector deleting destructor'
EXTRN	?GetNumParam@CSqlBase@@UAEHXZ:NEAR		; CSqlBase::GetNumParam
EXTRN	??0CSqlQuery@@QAE@PAVCSqlDatabase@@V?$basic_string@DU?$char_traits@D@std@@V?$allocator@D@2@@std@@PBD@Z:NEAR ; CSqlQuery::CSqlQuery
EXTRN	?AllocStatement@CSqlQuery@@UAEHXZ:NEAR		; CSqlQuery::AllocStatement
EXTRN	?BindParameters@CSqlQuery@@UAEFH@Z:NEAR		; CSqlQuery::BindParameters
;	COMDAT xdata$x
; File c:\program files (x86)\microsoft visual studio .net 2003\vc7\include\iosfwd
xdata$x	SEGMENT
$T89349	DD	0ffffffffH
	DD	FLAT:$L89175
$T89346	DD	019930520H
	DD	01H
	DD	FLAT:$T89349
	DD	2 DUP(00H)
	DD	2 DUP(00H)
xdata$x	ENDS
;	COMDAT ??_C@_0DC@KCBFKODM@SELECT?5bMachineID?0?5szName?0?5bRout@
CONST	SEGMENT
??_C@_0DC@KCBFKODM@SELECT?5bMachineID?0?5szName?0?5bRout@ DB 'SELECT bMac'
	DB	'hineID, szName, bRouteID FROM TMACHINE', 00H ; `string'
CONST	ENDS
;	COMDAT ??_7CTBLMachine@@6B@
CONST	SEGMENT
??_7CTBLMachine@@6B@ DD FLAT:??_ECTBLMachine@@UAEPAXI@Z	; CTBLMachine::`vftable'
	DD	FLAT:?GetNumCol@CTBLMachine@@UAEHXZ
	DD	FLAT:?GetNumParam@CSqlBase@@UAEHXZ
	DD	FLAT:?AllocStatement@CSqlQuery@@UAEHXZ
	DD	FLAT:?BindColumns@CTBLMachine@@UAEFXZ
	DD	FLAT:?BindParameters@CSqlQuery@@UAEFH@Z
; Function compile flags: /Ogty
; File c:\users\pierr\desktop\4story - oldschool\sources\tserver\tcontrolsvr\dbaccess.h
CONST	ENDS
;	COMDAT ??0CTBLMachine@@QAE@PAVCSqlDatabase@@V?$basic_string@DU?$char_traits@D@std@@V?$allocator@D@2@@std@@@Z
_TEXT	SEGMENT
$T89174 = -16						; size = 4
__$EHRec$ = -12						; size = 12
_pdb$ = 8						; size = 4
_strKey$ = 12						; size = 28
??0CTBLMachine@@QAE@PAVCSqlDatabase@@V?$basic_string@DU?$char_traits@D@std@@V?$allocator@D@2@@std@@@Z PROC NEAR ; CTBLMachine::CTBLMachine, COMDAT
; _this$ = ecx

; 10   : DEF_QUERY( CTBLMachine, _T("SELECT bMachineID, szName, bRouteID FROM TMACHINE"));

  00000	6a ff		 push	 -1
  00002	68 00 00 00 00	 push	 __ehhandler$??0CTBLMachine@@QAE@PAVCSqlDatabase@@V?$basic_string@DU?$char_traits@D@std@@V?$allocator@D@2@@std@@@Z
  00007	64 a1 00 00 00
	00		 mov	 eax, DWORD PTR fs:__except_list
  0000d	50		 push	 eax
  0000e	64 89 25 00 00
	00 00		 mov	 DWORD PTR fs:__except_list, esp
  00015	51		 push	 ecx
  00016	56		 push	 esi
  00017	8b f1		 mov	 esi, ecx
  00019	68 00 00 00 00	 push	 OFFSET FLAT:??_C@_0DC@KCBFKODM@SELECT?5bMachineID?0?5szName?0?5bRout@
  0001e	83 ec 1c	 sub	 esp, 28			; 0000001cH
  00021	8b cc		 mov	 ecx, esp
  00023	33 c0		 xor	 eax, eax
  00025	89 64 24 24	 mov	 DWORD PTR $T89174[esp+52], esp
  00029	6a ff		 push	 -1
  0002b	89 41 14	 mov	 DWORD PTR [ecx+20], eax
  0002e	c7 41 18 0f 00
	00 00		 mov	 DWORD PTR [ecx+24], 15	; 0000000fH
  00035	50		 push	 eax
  00036	89 44 24 38	 mov	 DWORD PTR __$EHRec$[esp+68], eax
  0003a	88 41 04	 mov	 BYTE PTR [ecx+4], al
  0003d	8d 44 24 44	 lea	 eax, DWORD PTR _strKey$[esp+56]
  00041	50		 push	 eax
  00042	e8 00 00 00 00	 call	 ?assign@?$basic_string@DU?$char_traits@D@std@@V?$allocator@D@2@@std@@QAEAAV12@ABV12@II@Z ; std::basic_string<char,std::char_traits<char>,std::allocator<char> >::assign
  00047	8b 4c 24 38	 mov	 ecx, DWORD PTR _pdb$[esp+48]
  0004b	51		 push	 ecx
  0004c	8b ce		 mov	 ecx, esi
  0004e	e8 00 00 00 00	 call	 ??0CSqlQuery@@QAE@PAVCSqlDatabase@@V?$basic_string@DU?$char_traits@D@std@@V?$allocator@D@2@@std@@PBD@Z ; CSqlQuery::CSqlQuery
  00053	83 7c 24 34 10	 cmp	 DWORD PTR _strKey$[esp+40], 16 ; 00000010H
  00058	c7 06 00 00 00
	00		 mov	 DWORD PTR [esi], OFFSET FLAT:??_7CTBLMachine@@6B@
  0005e	72 0d		 jb	 SHORT $L89347
  00060	8b 54 24 20	 mov	 edx, DWORD PTR _strKey$[esp+20]
  00064	52		 push	 edx
  00065	e8 00 00 00 00	 call	 ??3@YAXPAX@Z		; operator delete
  0006a	83 c4 04	 add	 esp, 4
$L89347:
  0006d	8b 4c 24 08	 mov	 ecx, DWORD PTR __$EHRec$[esp+20]
  00071	8b c6		 mov	 eax, esi
  00073	64 89 0d 00 00
	00 00		 mov	 DWORD PTR fs:__except_list, ecx
  0007a	5e		 pop	 esi
  0007b	83 c4 10	 add	 esp, 16			; 00000010H
  0007e	c2 20 00	 ret	 32			; 00000020H
_TEXT	ENDS
;	COMDAT text$x
text$x	SEGMENT
$L89175:
  00000	8d 4d 08	 lea	 ecx, DWORD PTR _strKey$[ebp-4]
  00003	e9 00 00 00 00	 jmp	 ??1?$basic_string@DU?$char_traits@D@std@@V?$allocator@D@2@@std@@QAE@XZ ; std::basic_string<char,std::char_traits<char>,std::allocator<char> >::~basic_string<char,std::char_traits<char>,std::allocator<char> >
__ehhandler$??0CTBLMachine@@QAE@PAVCSqlDatabase@@V?$basic_string@DU?$char_traits@D@std@@V?$allocator@D@2@@std@@@Z:
  00008	b8 00 00 00 00	 mov	 eax, OFFSET FLAT:$T89346
  0000d	e9 00 00 00 00	 jmp	 ___CxxFrameHandler
text$x	ENDS
??0CTBLMachine@@QAE@PAVCSqlDatabase@@V?$basic_string@DU?$char_traits@D@std@@V?$allocator@D@2@@std@@@Z ENDP ; CTBLMachine::CTBLMachine
; Function compile flags: /Ogty
;	COMDAT ?GetNumCol@CTBLMachine@@UAEHXZ
_TEXT	SEGMENT
?GetNumCol@CTBLMachine@@UAEHXZ PROC NEAR		; CTBLMachine::GetNumCol, COMDAT
; _this$ = ecx

; 12   : BEGIN_COLUMN(3)

  00000	b8 03 00 00 00	 mov	 eax, 3
  00005	c3		 ret	 0
?GetNumCol@CTBLMachine@@UAEHXZ ENDP			; CTBLMachine::GetNumCol
_TEXT	ENDS
EXTRN	?BindCol@CSqlBase@@QAEFFPAE@Z:NEAR		; CSqlBase::BindCol
EXTRN	?BindColStr@CSqlBase@@QAEFFPADJ@Z:NEAR		; CSqlBase::BindColStr
; Function compile flags: /Ogty
;	COMDAT ?BindColumns@CTBLMachine@@UAEFXZ
_TEXT	SEGMENT
?BindColumns@CTBLMachine@@UAEFXZ PROC NEAR		; CTBLMachine::BindColumns, COMDAT
; _this$ = ecx

; 12   : BEGIN_COLUMN(3)

  00000	56		 push	 esi
  00001	8b f1		 mov	 esi, ecx

; 13   : 	COLUMN_ENTRY(m_bMachineID)

  00003	8d 86 2c 0c 00
	00		 lea	 eax, DWORD PTR [esi+3116]
  00009	50		 push	 eax
  0000a	6a 01		 push	 1
  0000c	e8 00 00 00 00	 call	 ?BindCol@CSqlBase@@QAEFFPAE@Z ; CSqlBase::BindCol
  00011	66 85 c0	 test	 ax, ax
  00014	74 06		 je	 SHORT $L83323
  00016	66 3d 01 00	 cmp	 ax, 1
  0001a	75 2d		 jne	 SHORT $L83319
$L83323:

; 14   : 	COLUMN_ENTRY_STR(m_szName)

  0001c	6a 33		 push	 51			; 00000033H
  0001e	8d 8e 2d 0c 00
	00		 lea	 ecx, DWORD PTR [esi+3117]
  00024	51		 push	 ecx
  00025	6a 02		 push	 2
  00027	8b ce		 mov	 ecx, esi
  00029	e8 00 00 00 00	 call	 ?BindColStr@CSqlBase@@QAEFFPADJ@Z ; CSqlBase::BindColStr
  0002e	66 85 c0	 test	 ax, ax
  00031	74 06		 je	 SHORT $L83324
  00033	66 3d 01 00	 cmp	 ax, 1
  00037	75 10		 jne	 SHORT $L83319
$L83324:

; 15   : 	COLUMN_ENTRY(m_bRouteID)

  00039	8d 96 60 0c 00
	00		 lea	 edx, DWORD PTR [esi+3168]
  0003f	52		 push	 edx
  00040	6a 03		 push	 3
  00042	8b ce		 mov	 ecx, esi
  00044	e8 00 00 00 00	 call	 ?BindCol@CSqlBase@@QAEFFPAE@Z ; CSqlBase::BindCol
$L83319:
  00049	5e		 pop	 esi

; 16   : END_COL()

  0004a	c3		 ret	 0
?BindColumns@CTBLMachine@@UAEFXZ ENDP			; CTBLMachine::BindColumns
_TEXT	ENDS
PUBLIC	??1CTBLMachine@@UAE@XZ				; CTBLMachine::~CTBLMachine
; Function compile flags: /Ogty
;	COMDAT ??_GCTBLMachine@@UAEPAXI@Z
_TEXT	SEGMENT
___flags$ = 8						; size = 4
??_GCTBLMachine@@UAEPAXI@Z PROC NEAR			; CTBLMachine::`scalar deleting destructor', COMDAT
; _this$ = ecx
  00000	56		 push	 esi
  00001	8b f1		 mov	 esi, ecx
  00003	e8 00 00 00 00	 call	 ??1CTBLMachine@@UAE@XZ
  00008	f6 44 24 08 01	 test	 BYTE PTR ___flags$[esp], 1
  0000d	74 09		 je	 SHORT $L89361
  0000f	56		 push	 esi
  00010	e8 00 00 00 00	 call	 ??3@YAXPAX@Z		; operator delete
  00015	83 c4 04	 add	 esp, 4
$L89361:
  00018	8b c6		 mov	 eax, esi
  0001a	5e		 pop	 esi
  0001b	c2 04 00	 ret	 4
??_GCTBLMachine@@UAEPAXI@Z ENDP				; CTBLMachine::`scalar deleting destructor'
_TEXT	ENDS
EXTRN	??1CSqlQuery@@UAE@XZ:NEAR			; CSqlQuery::~CSqlQuery
; Function compile flags: /Ogty
;	COMDAT ??1CTBLMachine@@UAE@XZ
_TEXT	SEGMENT
??1CTBLMachine@@UAE@XZ PROC NEAR			; CTBLMachine::~CTBLMachine, COMDAT
; _this$ = ecx
  00000	e9 00 00 00 00	 jmp	 ??1CSqlQuery@@UAE@XZ	; CSqlQuery::~CSqlQuery
??1CTBLMachine@@UAE@XZ ENDP				; CTBLMachine::~CTBLMachine
_TEXT	ENDS
PUBLIC	??0CTBLNetwork@@QAE@PAVCSqlDatabase@@V?$basic_string@DU?$char_traits@D@std@@V?$allocator@D@2@@std@@@Z ; CTBLNetwork::CTBLNetwork
PUBLIC	?GetNumCol@CTBLNetwork@@UAEHXZ			; CTBLNetwork::GetNumCol
PUBLIC	?BindColumns@CTBLNetwork@@UAEFXZ		; CTBLNetwork::BindColumns
PUBLIC	??_7CTBLNetwork@@6B@				; CTBLNetwork::`vftable'
PUBLIC	??_GCTBLNetwork@@UAEPAXI@Z			; CTBLNetwork::`scalar deleting destructor'
PUBLIC	??_C@_0CL@JHHHMODB@SELECT?5bMachineID?0?5szNetwork?5FRO@ ; `string'
EXTRN	??_ECTBLNetwork@@UAEPAXI@Z:NEAR			; CTBLNetwork::`vector deleting destructor'
;	COMDAT xdata$x
; File c:\program files (x86)\microsoft visual studio .net 2003\vc7\include\iosfwd
xdata$x	SEGMENT
$T89544	DD	0ffffffffH
	DD	FLAT:$L89370
$T89541	DD	019930520H
	DD	01H
	DD	FLAT:$T89544
	DD	2 DUP(00H)
	DD	2 DUP(00H)
xdata$x	ENDS
;	COMDAT ??_C@_0CL@JHHHMODB@SELECT?5bMachineID?0?5szNetwork?5FRO@
CONST	SEGMENT
??_C@_0CL@JHHHMODB@SELECT?5bMachineID?0?5szNetwork?5FRO@ DB 'SELECT bMach'
	DB	'ineID, szNetwork FROM TNETWORK', 00H	; `string'
CONST	ENDS
;	COMDAT ??_7CTBLNetwork@@6B@
CONST	SEGMENT
??_7CTBLNetwork@@6B@ DD FLAT:??_ECTBLNetwork@@UAEPAXI@Z	; CTBLNetwork::`vftable'
	DD	FLAT:?GetNumCol@CTBLNetwork@@UAEHXZ
	DD	FLAT:?GetNumParam@CSqlBase@@UAEHXZ
	DD	FLAT:?AllocStatement@CSqlQuery@@UAEHXZ
	DD	FLAT:?BindColumns@CTBLNetwork@@UAEFXZ
	DD	FLAT:?BindParameters@CSqlQuery@@UAEFH@Z
; Function compile flags: /Ogty
; File c:\users\pierr\desktop\4story - oldschool\sources\tserver\tcontrolsvr\dbaccess.h
CONST	ENDS
;	COMDAT ??0CTBLNetwork@@QAE@PAVCSqlDatabase@@V?$basic_string@DU?$char_traits@D@std@@V?$allocator@D@2@@std@@@Z
_TEXT	SEGMENT
$T89369 = -16						; size = 4
__$EHRec$ = -12						; size = 12
_pdb$ = 8						; size = 4
_strKey$ = 12						; size = 28
??0CTBLNetwork@@QAE@PAVCSqlDatabase@@V?$basic_string@DU?$char_traits@D@std@@V?$allocator@D@2@@std@@@Z PROC NEAR ; CTBLNetwork::CTBLNetwork, COMDAT
; _this$ = ecx

; 25   : DEF_QUERY( CTBLNetwork, _T("SELECT bMachineID, szNetwork FROM TNETWORK"));

  00000	6a ff		 push	 -1
  00002	68 00 00 00 00	 push	 __ehhandler$??0CTBLNetwork@@QAE@PAVCSqlDatabase@@V?$basic_string@DU?$char_traits@D@std@@V?$allocator@D@2@@std@@@Z
  00007	64 a1 00 00 00
	00		 mov	 eax, DWORD PTR fs:__except_list
  0000d	50		 push	 eax
  0000e	64 89 25 00 00
	00 00		 mov	 DWORD PTR fs:__except_list, esp
  00015	51		 push	 ecx
  00016	56		 push	 esi
  00017	8b f1		 mov	 esi, ecx
  00019	68 00 00 00 00	 push	 OFFSET FLAT:??_C@_0CL@JHHHMODB@SELECT?5bMachineID?0?5szNetwork?5FRO@
  0001e	83 ec 1c	 sub	 esp, 28			; 0000001cH
  00021	8b cc		 mov	 ecx, esp
  00023	33 c0		 xor	 eax, eax
  00025	89 64 24 24	 mov	 DWORD PTR $T89369[esp+52], esp
  00029	6a ff		 push	 -1
  0002b	89 41 14	 mov	 DWORD PTR [ecx+20], eax
  0002e	c7 41 18 0f 00
	00 00		 mov	 DWORD PTR [ecx+24], 15	; 0000000fH
  00035	50		 push	 eax
  00036	89 44 24 38	 mov	 DWORD PTR __$EHRec$[esp+68], eax
  0003a	88 41 04	 mov	 BYTE PTR [ecx+4], al
  0003d	8d 44 24 44	 lea	 eax, DWORD PTR _strKey$[esp+56]
  00041	50		 push	 eax
  00042	e8 00 00 00 00	 call	 ?assign@?$basic_string@DU?$char_traits@D@std@@V?$allocator@D@2@@std@@QAEAAV12@ABV12@II@Z ; std::basic_string<char,std::char_traits<char>,std::allocator<char> >::assign
  00047	8b 4c 24 38	 mov	 ecx, DWORD PTR _pdb$[esp+48]
  0004b	51		 push	 ecx
  0004c	8b ce		 mov	 ecx, esi
  0004e	e8 00 00 00 00	 call	 ??0CSqlQuery@@QAE@PAVCSqlDatabase@@V?$basic_string@DU?$char_traits@D@std@@V?$allocator@D@2@@std@@PBD@Z ; CSqlQuery::CSqlQuery
  00053	83 7c 24 34 10	 cmp	 DWORD PTR _strKey$[esp+40], 16 ; 00000010H
  00058	c7 06 00 00 00
	00		 mov	 DWORD PTR [esi], OFFSET FLAT:??_7CTBLNetwork@@6B@
  0005e	72 0d		 jb	 SHORT $L89542
  00060	8b 54 24 20	 mov	 edx, DWORD PTR _strKey$[esp+20]
  00064	52		 push	 edx
  00065	e8 00 00 00 00	 call	 ??3@YAXPAX@Z		; operator delete
  0006a	83 c4 04	 add	 esp, 4
$L89542:
  0006d	8b 4c 24 08	 mov	 ecx, DWORD PTR __$EHRec$[esp+20]
  00071	8b c6		 mov	 eax, esi
  00073	64 89 0d 00 00
	00 00		 mov	 DWORD PTR fs:__except_list, ecx
  0007a	5e		 pop	 esi
  0007b	83 c4 10	 add	 esp, 16			; 00000010H
  0007e	c2 20 00	 ret	 32			; 00000020H
_TEXT	ENDS
;	COMDAT text$x
text$x	SEGMENT
$L89370:
  00000	8d 4d 08	 lea	 ecx, DWORD PTR _strKey$[ebp-4]
  00003	e9 00 00 00 00	 jmp	 ??1?$basic_string@DU?$char_traits@D@std@@V?$allocator@D@2@@std@@QAE@XZ ; std::basic_string<char,std::char_traits<char>,std::allocator<char> >::~basic_string<char,std::char_traits<char>,std::allocator<char> >
__ehhandler$??0CTBLNetwork@@QAE@PAVCSqlDatabase@@V?$basic_string@DU?$char_traits@D@std@@V?$allocator@D@2@@std@@@Z:
  00008	b8 00 00 00 00	 mov	 eax, OFFSET FLAT:$T89541
  0000d	e9 00 00 00 00	 jmp	 ___CxxFrameHandler
text$x	ENDS
??0CTBLNetwork@@QAE@PAVCSqlDatabase@@V?$basic_string@DU?$char_traits@D@std@@V?$allocator@D@2@@std@@@Z ENDP ; CTBLNetwork::CTBLNetwork
; Function compile flags: /Ogty
;	COMDAT ?GetNumCol@CTBLNetwork@@UAEHXZ
_TEXT	SEGMENT
?GetNumCol@CTBLNetwork@@UAEHXZ PROC NEAR		; CTBLNetwork::GetNumCol, COMDAT
; _this$ = ecx

; 27   : BEGIN_COLUMN(2)

  00000	b8 02 00 00 00	 mov	 eax, 2
  00005	c3		 ret	 0
?GetNumCol@CTBLNetwork@@UAEHXZ ENDP			; CTBLNetwork::GetNumCol
; Function compile flags: /Ogty
_TEXT	ENDS
;	COMDAT ?BindColumns@CTBLNetwork@@UAEFXZ
_TEXT	SEGMENT
?BindColumns@CTBLNetwork@@UAEFXZ PROC NEAR		; CTBLNetwork::BindColumns, COMDAT
; _this$ = ecx

; 27   : BEGIN_COLUMN(2)

  00000	56		 push	 esi
  00001	8b f1		 mov	 esi, ecx

; 28   : 	COLUMN_ENTRY(m_bMachineID)

  00003	8d 86 2c 0c 00
	00		 lea	 eax, DWORD PTR [esi+3116]
  00009	50		 push	 eax
  0000a	6a 01		 push	 1
  0000c	e8 00 00 00 00	 call	 ?BindCol@CSqlBase@@QAEFFPAE@Z ; CSqlBase::BindCol
  00011	66 85 c0	 test	 ax, ax
  00014	74 06		 je	 SHORT $L83367
  00016	66 3d 01 00	 cmp	 ax, 1
  0001a	75 12		 jne	 SHORT $L83363
$L83367:

; 29   : 	COLUMN_ENTRY_STR(m_szNetwork)

  0001c	6a 33		 push	 51			; 00000033H
  0001e	8d 8e 2d 0c 00
	00		 lea	 ecx, DWORD PTR [esi+3117]
  00024	51		 push	 ecx
  00025	6a 02		 push	 2
  00027	8b ce		 mov	 ecx, esi
  00029	e8 00 00 00 00	 call	 ?BindColStr@CSqlBase@@QAEFFPADJ@Z ; CSqlBase::BindColStr
$L83363:
  0002e	5e		 pop	 esi

; 30   : END_COL()

  0002f	c3		 ret	 0
?BindColumns@CTBLNetwork@@UAEFXZ ENDP			; CTBLNetwork::BindColumns
_TEXT	ENDS
PUBLIC	??1CTBLNetwork@@UAE@XZ				; CTBLNetwork::~CTBLNetwork
; Function compile flags: /Ogty
;	COMDAT ??_GCTBLNetwork@@UAEPAXI@Z
_TEXT	SEGMENT
___flags$ = 8						; size = 4
??_GCTBLNetwork@@UAEPAXI@Z PROC NEAR			; CTBLNetwork::`scalar deleting destructor', COMDAT
; _this$ = ecx
  00000	56		 push	 esi
  00001	8b f1		 mov	 esi, ecx
  00003	e8 00 00 00 00	 call	 ??1CTBLNetwork@@UAE@XZ
  00008	f6 44 24 08 01	 test	 BYTE PTR ___flags$[esp], 1
  0000d	74 09		 je	 SHORT $L89556
  0000f	56		 push	 esi
  00010	e8 00 00 00 00	 call	 ??3@YAXPAX@Z		; operator delete
  00015	83 c4 04	 add	 esp, 4
$L89556:
  00018	8b c6		 mov	 eax, esi
  0001a	5e		 pop	 esi
  0001b	c2 04 00	 ret	 4
??_GCTBLNetwork@@UAEPAXI@Z ENDP				; CTBLNetwork::`scalar deleting destructor'
; Function compile flags: /Ogty
_TEXT	ENDS
;	COMDAT ??1CTBLNetwork@@UAE@XZ
_TEXT	SEGMENT
??1CTBLNetwork@@UAE@XZ PROC NEAR			; CTBLNetwork::~CTBLNetwork, COMDAT
; _this$ = ecx
  00000	e9 00 00 00 00	 jmp	 ??1CSqlQuery@@UAE@XZ	; CSqlQuery::~CSqlQuery
??1CTBLNetwork@@UAE@XZ ENDP				; CTBLNetwork::~CTBLNetwork
_TEXT	ENDS
PUBLIC	??0CTBLGroup@@QAE@PAVCSqlDatabase@@V?$basic_string@DU?$char_traits@D@std@@V?$allocator@D@2@@std@@@Z ; CTBLGroup::CTBLGroup
PUBLIC	?GetNumCol@CTBLGroup@@UAEHXZ			; CTBLGroup::GetNumCol
PUBLIC	?BindColumns@CTBLGroup@@UAEFXZ			; CTBLGroup::BindColumns
PUBLIC	??_7CTBLGroup@@6B@				; CTBLGroup::`vftable'
PUBLIC	??_GCTBLGroup@@UAEPAXI@Z			; CTBLGroup::`scalar deleting destructor'
PUBLIC	??_C@_0CE@NAMDJJMH@SELECT?5bGroupID?0?5szName?5FROM?5TGR@ ; `string'
EXTRN	??_ECTBLGroup@@UAEPAXI@Z:NEAR			; CTBLGroup::`vector deleting destructor'
;	COMDAT xdata$x
; File c:\program files (x86)\microsoft visual studio .net 2003\vc7\include\iosfwd
xdata$x	SEGMENT
$T89739	DD	0ffffffffH
	DD	FLAT:$L89565
$T89736	DD	019930520H
	DD	01H
	DD	FLAT:$T89739
	DD	2 DUP(00H)
	DD	2 DUP(00H)
xdata$x	ENDS
;	COMDAT ??_C@_0CE@NAMDJJMH@SELECT?5bGroupID?0?5szName?5FROM?5TGR@
CONST	SEGMENT
??_C@_0CE@NAMDJJMH@SELECT?5bGroupID?0?5szName?5FROM?5TGR@ DB 'SELECT bGro'
	DB	'upID, szName FROM TGROUP', 00H		; `string'
CONST	ENDS
;	COMDAT ??_7CTBLGroup@@6B@
CONST	SEGMENT
??_7CTBLGroup@@6B@ DD FLAT:??_ECTBLGroup@@UAEPAXI@Z	; CTBLGroup::`vftable'
	DD	FLAT:?GetNumCol@CTBLGroup@@UAEHXZ
	DD	FLAT:?GetNumParam@CSqlBase@@UAEHXZ
	DD	FLAT:?AllocStatement@CSqlQuery@@UAEHXZ
	DD	FLAT:?BindColumns@CTBLGroup@@UAEFXZ
	DD	FLAT:?BindParameters@CSqlQuery@@UAEFH@Z
; Function compile flags: /Ogty
; File c:\users\pierr\desktop\4story - oldschool\sources\tserver\tcontrolsvr\dbaccess.h
CONST	ENDS
;	COMDAT ??0CTBLGroup@@QAE@PAVCSqlDatabase@@V?$basic_string@DU?$char_traits@D@std@@V?$allocator@D@2@@std@@@Z
_TEXT	SEGMENT
$T89564 = -16						; size = 4
__$EHRec$ = -12						; size = 12
_pdb$ = 8						; size = 4
_strKey$ = 12						; size = 28
??0CTBLGroup@@QAE@PAVCSqlDatabase@@V?$basic_string@DU?$char_traits@D@std@@V?$allocator@D@2@@std@@@Z PROC NEAR ; CTBLGroup::CTBLGroup, COMDAT
; _this$ = ecx

; 39   : DEF_QUERY( CTBLGroup, _T("SELECT bGroupID, szName FROM TGROUP"));

  00000	6a ff		 push	 -1
  00002	68 00 00 00 00	 push	 __ehhandler$??0CTBLGroup@@QAE@PAVCSqlDatabase@@V?$basic_string@DU?$char_traits@D@std@@V?$allocator@D@2@@std@@@Z
  00007	64 a1 00 00 00
	00		 mov	 eax, DWORD PTR fs:__except_list
  0000d	50		 push	 eax
  0000e	64 89 25 00 00
	00 00		 mov	 DWORD PTR fs:__except_list, esp
  00015	51		 push	 ecx
  00016	56		 push	 esi
  00017	8b f1		 mov	 esi, ecx
  00019	68 00 00 00 00	 push	 OFFSET FLAT:??_C@_0CE@NAMDJJMH@SELECT?5bGroupID?0?5szName?5FROM?5TGR@
  0001e	83 ec 1c	 sub	 esp, 28			; 0000001cH
  00021	8b cc		 mov	 ecx, esp
  00023	33 c0		 xor	 eax, eax
  00025	89 64 24 24	 mov	 DWORD PTR $T89564[esp+52], esp
  00029	6a ff		 push	 -1
  0002b	89 41 14	 mov	 DWORD PTR [ecx+20], eax
  0002e	c7 41 18 0f 00
	00 00		 mov	 DWORD PTR [ecx+24], 15	; 0000000fH
  00035	50		 push	 eax
  00036	89 44 24 38	 mov	 DWORD PTR __$EHRec$[esp+68], eax
  0003a	88 41 04	 mov	 BYTE PTR [ecx+4], al
  0003d	8d 44 24 44	 lea	 eax, DWORD PTR _strKey$[esp+56]
  00041	50		 push	 eax
  00042	e8 00 00 00 00	 call	 ?assign@?$basic_string@DU?$char_traits@D@std@@V?$allocator@D@2@@std@@QAEAAV12@ABV12@II@Z ; std::basic_string<char,std::char_traits<char>,std::allocator<char> >::assign
  00047	8b 4c 24 38	 mov	 ecx, DWORD PTR _pdb$[esp+48]
  0004b	51		 push	 ecx
  0004c	8b ce		 mov	 ecx, esi
  0004e	e8 00 00 00 00	 call	 ??0CSqlQuery@@QAE@PAVCSqlDatabase@@V?$basic_string@DU?$char_traits@D@std@@V?$allocator@D@2@@std@@PBD@Z ; CSqlQuery::CSqlQuery
  00053	83 7c 24 34 10	 cmp	 DWORD PTR _strKey$[esp+40], 16 ; 00000010H
  00058	c7 06 00 00 00
	00		 mov	 DWORD PTR [esi], OFFSET FLAT:??_7CTBLGroup@@6B@
  0005e	72 0d		 jb	 SHORT $L89737
  00060	8b 54 24 20	 mov	 edx, DWORD PTR _strKey$[esp+20]
  00064	52		 push	 edx
  00065	e8 00 00 00 00	 call	 ??3@YAXPAX@Z		; operator delete
  0006a	83 c4 04	 add	 esp, 4
$L89737:
  0006d	8b 4c 24 08	 mov	 ecx, DWORD PTR __$EHRec$[esp+20]
  00071	8b c6		 mov	 eax, esi
  00073	64 89 0d 00 00
	00 00		 mov	 DWORD PTR fs:__except_list, ecx
  0007a	5e		 pop	 esi
  0007b	83 c4 10	 add	 esp, 16			; 00000010H
  0007e	c2 20 00	 ret	 32			; 00000020H
_TEXT	ENDS
;	COMDAT text$x
text$x	SEGMENT
$L89565:
  00000	8d 4d 08	 lea	 ecx, DWORD PTR _strKey$[ebp-4]
  00003	e9 00 00 00 00	 jmp	 ??1?$basic_string@DU?$char_traits@D@std@@V?$allocator@D@2@@std@@QAE@XZ ; std::basic_string<char,std::char_traits<char>,std::allocator<char> >::~basic_string<char,std::char_traits<char>,std::allocator<char> >
__ehhandler$??0CTBLGroup@@QAE@PAVCSqlDatabase@@V?$basic_string@DU?$char_traits@D@std@@V?$allocator@D@2@@std@@@Z:
  00008	b8 00 00 00 00	 mov	 eax, OFFSET FLAT:$T89736
  0000d	e9 00 00 00 00	 jmp	 ___CxxFrameHandler
text$x	ENDS
??0CTBLGroup@@QAE@PAVCSqlDatabase@@V?$basic_string@DU?$char_traits@D@std@@V?$allocator@D@2@@std@@@Z ENDP ; CTBLGroup::CTBLGroup
; Function compile flags: /Ogty
;	COMDAT ?GetNumCol@CTBLGroup@@UAEHXZ
_TEXT	SEGMENT
?GetNumCol@CTBLGroup@@UAEHXZ PROC NEAR			; CTBLGroup::GetNumCol, COMDAT
; _this$ = ecx

; 41   : BEGIN_COLUMN(2)

  00000	b8 02 00 00 00	 mov	 eax, 2
  00005	c3		 ret	 0
?GetNumCol@CTBLGroup@@UAEHXZ ENDP			; CTBLGroup::GetNumCol
; Function compile flags: /Ogty
_TEXT	ENDS
;	COMDAT ?BindColumns@CTBLGroup@@UAEFXZ
_TEXT	SEGMENT
?BindColumns@CTBLGroup@@UAEFXZ PROC NEAR		; CTBLGroup::BindColumns, COMDAT
; _this$ = ecx

; 41   : BEGIN_COLUMN(2)

  00000	56		 push	 esi
  00001	8b f1		 mov	 esi, ecx

; 42   : 	COLUMN_ENTRY(m_bGroupID)

  00003	8d 86 2c 0c 00
	00		 lea	 eax, DWORD PTR [esi+3116]
  00009	50		 push	 eax
  0000a	6a 01		 push	 1
  0000c	e8 00 00 00 00	 call	 ?BindCol@CSqlBase@@QAEFFPAE@Z ; CSqlBase::BindCol
  00011	66 85 c0	 test	 ax, ax
  00014	74 06		 je	 SHORT $L83410
  00016	66 3d 01 00	 cmp	 ax, 1
  0001a	75 12		 jne	 SHORT $L83406
$L83410:

; 43   : 	COLUMN_ENTRY_STR(m_szName)

  0001c	6a 33		 push	 51			; 00000033H
  0001e	8d 8e 2d 0c 00
	00		 lea	 ecx, DWORD PTR [esi+3117]
  00024	51		 push	 ecx
  00025	6a 02		 push	 2
  00027	8b ce		 mov	 ecx, esi
  00029	e8 00 00 00 00	 call	 ?BindColStr@CSqlBase@@QAEFFPADJ@Z ; CSqlBase::BindColStr
$L83406:
  0002e	5e		 pop	 esi

; 44   : END_COL()

  0002f	c3		 ret	 0
?BindColumns@CTBLGroup@@UAEFXZ ENDP			; CTBLGroup::BindColumns
_TEXT	ENDS
PUBLIC	??1CTBLGroup@@UAE@XZ				; CTBLGroup::~CTBLGroup
; Function compile flags: /Ogty
;	COMDAT ??_GCTBLGroup@@UAEPAXI@Z
_TEXT	SEGMENT
___flags$ = 8						; size = 4
??_GCTBLGroup@@UAEPAXI@Z PROC NEAR			; CTBLGroup::`scalar deleting destructor', COMDAT
; _this$ = ecx
  00000	56		 push	 esi
  00001	8b f1		 mov	 esi, ecx
  00003	e8 00 00 00 00	 call	 ??1CTBLGroup@@UAE@XZ
  00008	f6 44 24 08 01	 test	 BYTE PTR ___flags$[esp], 1
  0000d	74 09		 je	 SHORT $L89751
  0000f	56		 push	 esi
  00010	e8 00 00 00 00	 call	 ??3@YAXPAX@Z		; operator delete
  00015	83 c4 04	 add	 esp, 4
$L89751:
  00018	8b c6		 mov	 eax, esi
  0001a	5e		 pop	 esi
  0001b	c2 04 00	 ret	 4
??_GCTBLGroup@@UAEPAXI@Z ENDP				; CTBLGroup::`scalar deleting destructor'
; Function compile flags: /Ogty
_TEXT	ENDS
;	COMDAT ??1CTBLGroup@@UAE@XZ
_TEXT	SEGMENT
??1CTBLGroup@@UAE@XZ PROC NEAR				; CTBLGroup::~CTBLGroup, COMDAT
; _this$ = ecx
  00000	e9 00 00 00 00	 jmp	 ??1CSqlQuery@@UAE@XZ	; CSqlQuery::~CSqlQuery
??1CTBLGroup@@UAE@XZ ENDP				; CTBLGroup::~CTBLGroup
_TEXT	ENDS
PUBLIC	??0CTBLSvrType@@QAE@PAVCSqlDatabase@@V?$basic_string@DU?$char_traits@D@std@@V?$allocator@D@2@@std@@@Z ; CTBLSvrType::CTBLSvrType
PUBLIC	?GetNumCol@CTBLSvrType@@UAEHXZ			; CTBLSvrType::GetNumCol
PUBLIC	?BindColumns@CTBLSvrType@@UAEFXZ		; CTBLSvrType::BindColumns
PUBLIC	??_7CTBLSvrType@@6B@				; CTBLSvrType::`vftable'
PUBLIC	??_GCTBLSvrType@@UAEPAXI@Z			; CTBLSvrType::`scalar deleting destructor'
PUBLIC	??_C@_0DG@DNMNECGE@SELECT?5bType?0?5szName?5FROM?5TSVRTY@ ; `string'
EXTRN	??_ECTBLSvrType@@UAEPAXI@Z:NEAR			; CTBLSvrType::`vector deleting destructor'
;	COMDAT xdata$x
; File c:\program files (x86)\microsoft visual studio .net 2003\vc7\include\iosfwd
xdata$x	SEGMENT
$T89934	DD	0ffffffffH
	DD	FLAT:$L89760
$T89931	DD	019930520H
	DD	01H
	DD	FLAT:$T89934
	DD	2 DUP(00H)
	DD	2 DUP(00H)
xdata$x	ENDS
;	COMDAT ??_C@_0DG@DNMNECGE@SELECT?5bType?0?5szName?5FROM?5TSVRTY@
CONST	SEGMENT
??_C@_0DG@DNMNECGE@SELECT?5bType?0?5szName?5FROM?5TSVRTY@ DB 'SELECT bTyp'
	DB	'e, szName FROM TSVRTYPE WHERE bControl = 1', 00H ; `string'
CONST	ENDS
;	COMDAT ??_7CTBLSvrType@@6B@
CONST	SEGMENT
??_7CTBLSvrType@@6B@ DD FLAT:??_ECTBLSvrType@@UAEPAXI@Z	; CTBLSvrType::`vftable'
	DD	FLAT:?GetNumCol@CTBLSvrType@@UAEHXZ
	DD	FLAT:?GetNumParam@CSqlBase@@UAEHXZ
	DD	FLAT:?AllocStatement@CSqlQuery@@UAEHXZ
	DD	FLAT:?BindColumns@CTBLSvrType@@UAEFXZ
	DD	FLAT:?BindParameters@CSqlQuery@@UAEFH@Z
; Function compile flags: /Ogty
; File c:\users\pierr\desktop\4story - oldschool\sources\tserver\tcontrolsvr\dbaccess.h
CONST	ENDS
;	COMDAT ??0CTBLSvrType@@QAE@PAVCSqlDatabase@@V?$basic_string@DU?$char_traits@D@std@@V?$allocator@D@2@@std@@@Z
_TEXT	SEGMENT
$T89759 = -16						; size = 4
__$EHRec$ = -12						; size = 12
_pdb$ = 8						; size = 4
_strKey$ = 12						; size = 28
??0CTBLSvrType@@QAE@PAVCSqlDatabase@@V?$basic_string@DU?$char_traits@D@std@@V?$allocator@D@2@@std@@@Z PROC NEAR ; CTBLSvrType::CTBLSvrType, COMDAT
; _this$ = ecx

; 53   : DEF_QUERY( CTBLSvrType, _T("SELECT bType, szName FROM TSVRTYPE WHERE bControl = 1"));

  00000	6a ff		 push	 -1
  00002	68 00 00 00 00	 push	 __ehhandler$??0CTBLSvrType@@QAE@PAVCSqlDatabase@@V?$basic_string@DU?$char_traits@D@std@@V?$allocator@D@2@@std@@@Z
  00007	64 a1 00 00 00
	00		 mov	 eax, DWORD PTR fs:__except_list
  0000d	50		 push	 eax
  0000e	64 89 25 00 00
	00 00		 mov	 DWORD PTR fs:__except_list, esp
  00015	51		 push	 ecx
  00016	56		 push	 esi
  00017	8b f1		 mov	 esi, ecx
  00019	68 00 00 00 00	 push	 OFFSET FLAT:??_C@_0DG@DNMNECGE@SELECT?5bType?0?5szName?5FROM?5TSVRTY@
  0001e	83 ec 1c	 sub	 esp, 28			; 0000001cH
  00021	8b cc		 mov	 ecx, esp
  00023	33 c0		 xor	 eax, eax
  00025	89 64 24 24	 mov	 DWORD PTR $T89759[esp+52], esp
  00029	6a ff		 push	 -1
  0002b	89 41 14	 mov	 DWORD PTR [ecx+20], eax
  0002e	c7 41 18 0f 00
	00 00		 mov	 DWORD PTR [ecx+24], 15	; 0000000fH
  00035	50		 push	 eax
  00036	89 44 24 38	 mov	 DWORD PTR __$EHRec$[esp+68], eax
  0003a	88 41 04	 mov	 BYTE PTR [ecx+4], al
  0003d	8d 44 24 44	 lea	 eax, DWORD PTR _strKey$[esp+56]
  00041	50		 push	 eax
  00042	e8 00 00 00 00	 call	 ?assign@?$basic_string@DU?$char_traits@D@std@@V?$allocator@D@2@@std@@QAEAAV12@ABV12@II@Z ; std::basic_string<char,std::char_traits<char>,std::allocator<char> >::assign
  00047	8b 4c 24 38	 mov	 ecx, DWORD PTR _pdb$[esp+48]
  0004b	51		 push	 ecx
  0004c	8b ce		 mov	 ecx, esi
  0004e	e8 00 00 00 00	 call	 ??0CSqlQuery@@QAE@PAVCSqlDatabase@@V?$basic_string@DU?$char_traits@D@std@@V?$allocator@D@2@@std@@PBD@Z ; CSqlQuery::CSqlQuery
  00053	83 7c 24 34 10	 cmp	 DWORD PTR _strKey$[esp+40], 16 ; 00000010H
  00058	c7 06 00 00 00
	00		 mov	 DWORD PTR [esi], OFFSET FLAT:??_7CTBLSvrType@@6B@
  0005e	72 0d		 jb	 SHORT $L89932
  00060	8b 54 24 20	 mov	 edx, DWORD PTR _strKey$[esp+20]
  00064	52		 push	 edx
  00065	e8 00 00 00 00	 call	 ??3@YAXPAX@Z		; operator delete
  0006a	83 c4 04	 add	 esp, 4
$L89932:
  0006d	8b 4c 24 08	 mov	 ecx, DWORD PTR __$EHRec$[esp+20]
  00071	8b c6		 mov	 eax, esi
  00073	64 89 0d 00 00
	00 00		 mov	 DWORD PTR fs:__except_list, ecx
  0007a	5e		 pop	 esi
  0007b	83 c4 10	 add	 esp, 16			; 00000010H
  0007e	c2 20 00	 ret	 32			; 00000020H
_TEXT	ENDS
;	COMDAT text$x
text$x	SEGMENT
$L89760:
  00000	8d 4d 08	 lea	 ecx, DWORD PTR _strKey$[ebp-4]
  00003	e9 00 00 00 00	 jmp	 ??1?$basic_string@DU?$char_traits@D@std@@V?$allocator@D@2@@std@@QAE@XZ ; std::basic_string<char,std::char_traits<char>,std::allocator<char> >::~basic_string<char,std::char_traits<char>,std::allocator<char> >
__ehhandler$??0CTBLSvrType@@QAE@PAVCSqlDatabase@@V?$basic_string@DU?$char_traits@D@std@@V?$allocator@D@2@@std@@@Z:
  00008	b8 00 00 00 00	 mov	 eax, OFFSET FLAT:$T89931
  0000d	e9 00 00 00 00	 jmp	 ___CxxFrameHandler
text$x	ENDS
??0CTBLSvrType@@QAE@PAVCSqlDatabase@@V?$basic_string@DU?$char_traits@D@std@@V?$allocator@D@2@@std@@@Z ENDP ; CTBLSvrType::CTBLSvrType
; Function compile flags: /Ogty
;	COMDAT ?GetNumCol@CTBLSvrType@@UAEHXZ
_TEXT	SEGMENT
?GetNumCol@CTBLSvrType@@UAEHXZ PROC NEAR		; CTBLSvrType::GetNumCol, COMDAT
; _this$ = ecx

; 55   : BEGIN_COLUMN(2)

  00000	b8 02 00 00 00	 mov	 eax, 2
  00005	c3		 ret	 0
?GetNumCol@CTBLSvrType@@UAEHXZ ENDP			; CTBLSvrType::GetNumCol
; Function compile flags: /Ogty
_TEXT	ENDS
;	COMDAT ?BindColumns@CTBLSvrType@@UAEFXZ
_TEXT	SEGMENT
?BindColumns@CTBLSvrType@@UAEFXZ PROC NEAR		; CTBLSvrType::BindColumns, COMDAT
; _this$ = ecx

; 55   : BEGIN_COLUMN(2)

  00000	56		 push	 esi
  00001	8b f1		 mov	 esi, ecx

; 56   : 	COLUMN_ENTRY(m_bType)

  00003	8d 86 2c 0c 00
	00		 lea	 eax, DWORD PTR [esi+3116]
  00009	50		 push	 eax
  0000a	6a 01		 push	 1
  0000c	e8 00 00 00 00	 call	 ?BindCol@CSqlBase@@QAEFFPAE@Z ; CSqlBase::BindCol
  00011	66 85 c0	 test	 ax, ax
  00014	74 06		 je	 SHORT $L83453
  00016	66 3d 01 00	 cmp	 ax, 1
  0001a	75 12		 jne	 SHORT $L83449
$L83453:

; 57   : 	COLUMN_ENTRY_STR(m_szName)

  0001c	6a 33		 push	 51			; 00000033H
  0001e	8d 8e 2d 0c 00
	00		 lea	 ecx, DWORD PTR [esi+3117]
  00024	51		 push	 ecx
  00025	6a 02		 push	 2
  00027	8b ce		 mov	 ecx, esi
  00029	e8 00 00 00 00	 call	 ?BindColStr@CSqlBase@@QAEFFPADJ@Z ; CSqlBase::BindColStr
$L83449:
  0002e	5e		 pop	 esi

; 58   : END_COL()

  0002f	c3		 ret	 0
?BindColumns@CTBLSvrType@@UAEFXZ ENDP			; CTBLSvrType::BindColumns
_TEXT	ENDS
PUBLIC	??1CTBLSvrType@@UAE@XZ				; CTBLSvrType::~CTBLSvrType
; Function compile flags: /Ogty
;	COMDAT ??_GCTBLSvrType@@UAEPAXI@Z
_TEXT	SEGMENT
___flags$ = 8						; size = 4
??_GCTBLSvrType@@UAEPAXI@Z PROC NEAR			; CTBLSvrType::`scalar deleting destructor', COMDAT
; _this$ = ecx
  00000	56		 push	 esi
  00001	8b f1		 mov	 esi, ecx
  00003	e8 00 00 00 00	 call	 ??1CTBLSvrType@@UAE@XZ
  00008	f6 44 24 08 01	 test	 BYTE PTR ___flags$[esp], 1
  0000d	74 09		 je	 SHORT $L89946
  0000f	56		 push	 esi
  00010	e8 00 00 00 00	 call	 ??3@YAXPAX@Z		; operator delete
  00015	83 c4 04	 add	 esp, 4
$L89946:
  00018	8b c6		 mov	 eax, esi
  0001a	5e		 pop	 esi
  0001b	c2 04 00	 ret	 4
??_GCTBLSvrType@@UAEPAXI@Z ENDP				; CTBLSvrType::`scalar deleting destructor'
; Function compile flags: /Ogty
_TEXT	ENDS
;	COMDAT ??1CTBLSvrType@@UAE@XZ
_TEXT	SEGMENT
??1CTBLSvrType@@UAE@XZ PROC NEAR			; CTBLSvrType::~CTBLSvrType, COMDAT
; _this$ = ecx
  00000	e9 00 00 00 00	 jmp	 ??1CSqlQuery@@UAE@XZ	; CSqlQuery::~CSqlQuery
??1CTBLSvrType@@UAE@XZ ENDP				; CTBLSvrType::~CTBLSvrType
_TEXT	ENDS
PUBLIC	??0CTBLServer@@QAE@PAVCSqlDatabase@@V?$basic_string@DU?$char_traits@D@std@@V?$allocator@D@2@@std@@@Z ; CTBLServer::CTBLServer
PUBLIC	?GetNumCol@CTBLServer@@UAEHXZ			; CTBLServer::GetNumCol
PUBLIC	?BindColumns@CTBLServer@@UAEFXZ			; CTBLServer::BindColumns
PUBLIC	??_7CTBLServer@@6B@				; CTBLServer::`vftable'
PUBLIC	??_GCTBLServer@@UAEPAXI@Z			; CTBLServer::`scalar deleting destructor'
PUBLIC	??_C@_0FL@IAHCANBE@SELECT?5bGroupID?0?5bServerID?0?5bTyp@ ; `string'
EXTRN	??_ECTBLServer@@UAEPAXI@Z:NEAR			; CTBLServer::`vector deleting destructor'
;	COMDAT xdata$x
; File c:\program files (x86)\microsoft visual studio .net 2003\vc7\include\iosfwd
xdata$x	SEGMENT
$T90129	DD	0ffffffffH
	DD	FLAT:$L89955
$T90126	DD	019930520H
	DD	01H
	DD	FLAT:$T90129
	DD	2 DUP(00H)
	DD	2 DUP(00H)
xdata$x	ENDS
;	COMDAT ??_C@_0FL@IAHCANBE@SELECT?5bGroupID?0?5bServerID?0?5bTyp@
CONST	SEGMENT
??_C@_0FL@IAHCANBE@SELECT?5bGroupID?0?5bServerID?0?5bTyp@ DB 'SELECT bGro'
	DB	'upID, bServerID, bType, bMachineID, wPort, szName FROM TSERVE'
	DB	'R WHERE bType <> 6', 00H			; `string'
CONST	ENDS
;	COMDAT ??_7CTBLServer@@6B@
CONST	SEGMENT
??_7CTBLServer@@6B@ DD FLAT:??_ECTBLServer@@UAEPAXI@Z	; CTBLServer::`vftable'
	DD	FLAT:?GetNumCol@CTBLServer@@UAEHXZ
	DD	FLAT:?GetNumParam@CSqlBase@@UAEHXZ
	DD	FLAT:?AllocStatement@CSqlQuery@@UAEHXZ
	DD	FLAT:?BindColumns@CTBLServer@@UAEFXZ
	DD	FLAT:?BindParameters@CSqlQuery@@UAEFH@Z
; Function compile flags: /Ogty
; File c:\users\pierr\desktop\4story - oldschool\sources\tserver\tcontrolsvr\dbaccess.h
CONST	ENDS
;	COMDAT ??0CTBLServer@@QAE@PAVCSqlDatabase@@V?$basic_string@DU?$char_traits@D@std@@V?$allocator@D@2@@std@@@Z
_TEXT	SEGMENT
$T89954 = -16						; size = 4
__$EHRec$ = -12						; size = 12
_pdb$ = 8						; size = 4
_strKey$ = 12						; size = 28
??0CTBLServer@@QAE@PAVCSqlDatabase@@V?$basic_string@DU?$char_traits@D@std@@V?$allocator@D@2@@std@@@Z PROC NEAR ; CTBLServer::CTBLServer, COMDAT
; _this$ = ecx

; 71   : DEF_QUERY( CTBLServer, _T("SELECT bGroupID, bServerID, bType, bMachineID, wPort, szName FROM TSERVER WHERE bType <> 6"));

  00000	6a ff		 push	 -1
  00002	68 00 00 00 00	 push	 __ehhandler$??0CTBLServer@@QAE@PAVCSqlDatabase@@V?$basic_string@DU?$char_traits@D@std@@V?$allocator@D@2@@std@@@Z
  00007	64 a1 00 00 00
	00		 mov	 eax, DWORD PTR fs:__except_list
  0000d	50		 push	 eax
  0000e	64 89 25 00 00
	00 00		 mov	 DWORD PTR fs:__except_list, esp
  00015	51		 push	 ecx
  00016	56		 push	 esi
  00017	8b f1		 mov	 esi, ecx
  00019	68 00 00 00 00	 push	 OFFSET FLAT:??_C@_0FL@IAHCANBE@SELECT?5bGroupID?0?5bServerID?0?5bTyp@
  0001e	83 ec 1c	 sub	 esp, 28			; 0000001cH
  00021	8b cc		 mov	 ecx, esp
  00023	33 c0		 xor	 eax, eax
  00025	89 64 24 24	 mov	 DWORD PTR $T89954[esp+52], esp
  00029	6a ff		 push	 -1
  0002b	89 41 14	 mov	 DWORD PTR [ecx+20], eax
  0002e	c7 41 18 0f 00
	00 00		 mov	 DWORD PTR [ecx+24], 15	; 0000000fH
  00035	50		 push	 eax
  00036	89 44 24 38	 mov	 DWORD PTR __$EHRec$[esp+68], eax
  0003a	88 41 04	 mov	 BYTE PTR [ecx+4], al
  0003d	8d 44 24 44	 lea	 eax, DWORD PTR _strKey$[esp+56]
  00041	50		 push	 eax
  00042	e8 00 00 00 00	 call	 ?assign@?$basic_string@DU?$char_traits@D@std@@V?$allocator@D@2@@std@@QAEAAV12@ABV12@II@Z ; std::basic_string<char,std::char_traits<char>,std::allocator<char> >::assign
  00047	8b 4c 24 38	 mov	 ecx, DWORD PTR _pdb$[esp+48]
  0004b	51		 push	 ecx
  0004c	8b ce		 mov	 ecx, esi
  0004e	e8 00 00 00 00	 call	 ??0CSqlQuery@@QAE@PAVCSqlDatabase@@V?$basic_string@DU?$char_traits@D@std@@V?$allocator@D@2@@std@@PBD@Z ; CSqlQuery::CSqlQuery
  00053	83 7c 24 34 10	 cmp	 DWORD PTR _strKey$[esp+40], 16 ; 00000010H
  00058	c7 06 00 00 00
	00		 mov	 DWORD PTR [esi], OFFSET FLAT:??_7CTBLServer@@6B@
  0005e	72 0d		 jb	 SHORT $L90127
  00060	8b 54 24 20	 mov	 edx, DWORD PTR _strKey$[esp+20]
  00064	52		 push	 edx
  00065	e8 00 00 00 00	 call	 ??3@YAXPAX@Z		; operator delete
  0006a	83 c4 04	 add	 esp, 4
$L90127:
  0006d	8b 4c 24 08	 mov	 ecx, DWORD PTR __$EHRec$[esp+20]
  00071	8b c6		 mov	 eax, esi
  00073	64 89 0d 00 00
	00 00		 mov	 DWORD PTR fs:__except_list, ecx
  0007a	5e		 pop	 esi
  0007b	83 c4 10	 add	 esp, 16			; 00000010H
  0007e	c2 20 00	 ret	 32			; 00000020H
_TEXT	ENDS
;	COMDAT text$x
text$x	SEGMENT
$L89955:
  00000	8d 4d 08	 lea	 ecx, DWORD PTR _strKey$[ebp-4]
  00003	e9 00 00 00 00	 jmp	 ??1?$basic_string@DU?$char_traits@D@std@@V?$allocator@D@2@@std@@QAE@XZ ; std::basic_string<char,std::char_traits<char>,std::allocator<char> >::~basic_string<char,std::char_traits<char>,std::allocator<char> >
__ehhandler$??0CTBLServer@@QAE@PAVCSqlDatabase@@V?$basic_string@DU?$char_traits@D@std@@V?$allocator@D@2@@std@@@Z:
  00008	b8 00 00 00 00	 mov	 eax, OFFSET FLAT:$T90126
  0000d	e9 00 00 00 00	 jmp	 ___CxxFrameHandler
text$x	ENDS
??0CTBLServer@@QAE@PAVCSqlDatabase@@V?$basic_string@DU?$char_traits@D@std@@V?$allocator@D@2@@std@@@Z ENDP ; CTBLServer::CTBLServer
; Function compile flags: /Ogty
;	COMDAT ?GetNumCol@CTBLServer@@UAEHXZ
_TEXT	SEGMENT
?GetNumCol@CTBLServer@@UAEHXZ PROC NEAR			; CTBLServer::GetNumCol, COMDAT
; _this$ = ecx

; 73   : BEGIN_COLUMN(6)

  00000	b8 06 00 00 00	 mov	 eax, 6
  00005	c3		 ret	 0
?GetNumCol@CTBLServer@@UAEHXZ ENDP			; CTBLServer::GetNumCol
_TEXT	ENDS
EXTRN	?BindCol@CSqlBase@@QAEFFPAG@Z:NEAR		; CSqlBase::BindCol
; Function compile flags: /Ogty
;	COMDAT ?BindColumns@CTBLServer@@UAEFXZ
_TEXT	SEGMENT
?BindColumns@CTBLServer@@UAEFXZ PROC NEAR		; CTBLServer::BindColumns, COMDAT
; _this$ = ecx

; 73   : BEGIN_COLUMN(6)

  00000	56		 push	 esi
  00001	8b f1		 mov	 esi, ecx

; 74   : 	COLUMN_ENTRY(m_bGroupID)

  00003	8d 86 2c 0c 00
	00		 lea	 eax, DWORD PTR [esi+3116]
  00009	50		 push	 eax
  0000a	6a 01		 push	 1
  0000c	e8 00 00 00 00	 call	 ?BindCol@CSqlBase@@QAEFFPAE@Z ; CSqlBase::BindCol
  00011	66 85 c0	 test	 ax, ax
  00014	74 06		 je	 SHORT $L83500
  00016	66 3d 01 00	 cmp	 ax, 1
  0001a	75 7e		 jne	 SHORT $L83496
$L83500:

; 75   : 	COLUMN_ENTRY(m_bServerID)

  0001c	8d 8e 2d 0c 00
	00		 lea	 ecx, DWORD PTR [esi+3117]
  00022	51		 push	 ecx
  00023	6a 02		 push	 2
  00025	8b ce		 mov	 ecx, esi
  00027	e8 00 00 00 00	 call	 ?BindCol@CSqlBase@@QAEFFPAE@Z ; CSqlBase::BindCol
  0002c	66 85 c0	 test	 ax, ax
  0002f	74 06		 je	 SHORT $L83501
  00031	66 3d 01 00	 cmp	 ax, 1
  00035	75 63		 jne	 SHORT $L83496
$L83501:

; 76   : 	COLUMN_ENTRY(m_bType)

  00037	8d 96 2e 0c 00
	00		 lea	 edx, DWORD PTR [esi+3118]
  0003d	52		 push	 edx
  0003e	6a 03		 push	 3
  00040	8b ce		 mov	 ecx, esi
  00042	e8 00 00 00 00	 call	 ?BindCol@CSqlBase@@QAEFFPAE@Z ; CSqlBase::BindCol
  00047	66 85 c0	 test	 ax, ax
  0004a	74 06		 je	 SHORT $L83502
  0004c	66 3d 01 00	 cmp	 ax, 1
  00050	75 48		 jne	 SHORT $L83496
$L83502:

; 77   : 	COLUMN_ENTRY(m_bMachineID)

  00052	8d 86 2f 0c 00
	00		 lea	 eax, DWORD PTR [esi+3119]
  00058	50		 push	 eax
  00059	6a 04		 push	 4
  0005b	8b ce		 mov	 ecx, esi
  0005d	e8 00 00 00 00	 call	 ?BindCol@CSqlBase@@QAEFFPAE@Z ; CSqlBase::BindCol
  00062	66 85 c0	 test	 ax, ax
  00065	74 06		 je	 SHORT $L83503
  00067	66 3d 01 00	 cmp	 ax, 1
  0006b	75 2d		 jne	 SHORT $L83496
$L83503:

; 78   : 	COLUMN_ENTRY(m_wPort)

  0006d	8d 8e 30 0c 00
	00		 lea	 ecx, DWORD PTR [esi+3120]
  00073	51		 push	 ecx
  00074	6a 05		 push	 5
  00076	8b ce		 mov	 ecx, esi
  00078	e8 00 00 00 00	 call	 ?BindCol@CSqlBase@@QAEFFPAG@Z ; CSqlBase::BindCol
  0007d	66 85 c0	 test	 ax, ax
  00080	74 06		 je	 SHORT $L83504
  00082	66 3d 01 00	 cmp	 ax, 1
  00086	75 12		 jne	 SHORT $L83496
$L83504:

; 79   : 	COLUMN_ENTRY_STR(m_szName)

  00088	6a 33		 push	 51			; 00000033H
  0008a	8d 96 32 0c 00
	00		 lea	 edx, DWORD PTR [esi+3122]
  00090	52		 push	 edx
  00091	6a 06		 push	 6
  00093	8b ce		 mov	 ecx, esi
  00095	e8 00 00 00 00	 call	 ?BindColStr@CSqlBase@@QAEFFPADJ@Z ; CSqlBase::BindColStr
$L83496:
  0009a	5e		 pop	 esi

; 80   : END_COL()

  0009b	c3		 ret	 0
?BindColumns@CTBLServer@@UAEFXZ ENDP			; CTBLServer::BindColumns
_TEXT	ENDS
PUBLIC	??1CTBLServer@@UAE@XZ				; CTBLServer::~CTBLServer
; Function compile flags: /Ogty
;	COMDAT ??_GCTBLServer@@UAEPAXI@Z
_TEXT	SEGMENT
___flags$ = 8						; size = 4
??_GCTBLServer@@UAEPAXI@Z PROC NEAR			; CTBLServer::`scalar deleting destructor', COMDAT
; _this$ = ecx
  00000	56		 push	 esi
  00001	8b f1		 mov	 esi, ecx
  00003	e8 00 00 00 00	 call	 ??1CTBLServer@@UAE@XZ
  00008	f6 44 24 08 01	 test	 BYTE PTR ___flags$[esp], 1
  0000d	74 09		 je	 SHORT $L90141
  0000f	56		 push	 esi
  00010	e8 00 00 00 00	 call	 ??3@YAXPAX@Z		; operator delete
  00015	83 c4 04	 add	 esp, 4
$L90141:
  00018	8b c6		 mov	 eax, esi
  0001a	5e		 pop	 esi
  0001b	c2 04 00	 ret	 4
??_GCTBLServer@@UAEPAXI@Z ENDP				; CTBLServer::`scalar deleting destructor'
; Function compile flags: /Ogty
_TEXT	ENDS
;	COMDAT ??1CTBLServer@@UAE@XZ
_TEXT	SEGMENT
??1CTBLServer@@UAE@XZ PROC NEAR				; CTBLServer::~CTBLServer, COMDAT
; _this$ = ecx
  00000	e9 00 00 00 00	 jmp	 ??1CSqlQuery@@UAE@XZ	; CSqlQuery::~CSqlQuery
??1CTBLServer@@UAE@XZ ENDP				; CTBLServer::~CTBLServer
_TEXT	ENDS
PUBLIC	??0CTBLIPAddr@@QAE@PAVCSqlDatabase@@V?$basic_string@DU?$char_traits@D@std@@V?$allocator@D@2@@std@@@Z ; CTBLIPAddr::CTBLIPAddr
PUBLIC	?GetNumCol@CTBLIPAddr@@UAEHXZ			; CTBLIPAddr::GetNumCol
PUBLIC	?BindColumns@CTBLIPAddr@@UAEFXZ			; CTBLIPAddr::BindColumns
PUBLIC	?GetNumParam@CTBLIPAddr@@UAEHXZ			; CTBLIPAddr::GetNumParam
PUBLIC	?BindParameters@CTBLIPAddr@@UAEFH@Z		; CTBLIPAddr::BindParameters
PUBLIC	??_7CTBLIPAddr@@6B@				; CTBLIPAddr::`vftable'
PUBLIC	??_GCTBLIPAddr@@UAEPAXI@Z			; CTBLIPAddr::`scalar deleting destructor'
PUBLIC	??_C@_0EN@EENJEFM@SELECT?5szIPAddr?0?5szPriAddr?5FROM?5@ ; `string'
EXTRN	??_ECTBLIPAddr@@UAEPAXI@Z:NEAR			; CTBLIPAddr::`vector deleting destructor'
;	COMDAT xdata$x
; File c:\program files (x86)\microsoft visual studio .net 2003\vc7\include\iosfwd
xdata$x	SEGMENT
$T90324	DD	0ffffffffH
	DD	FLAT:$L90150
$T90321	DD	019930520H
	DD	01H
	DD	FLAT:$T90324
	DD	2 DUP(00H)
	DD	2 DUP(00H)
xdata$x	ENDS
;	COMDAT ??_C@_0EN@EENJEFM@SELECT?5szIPAddr?0?5szPriAddr?5FROM?5@
CONST	SEGMENT
??_C@_0EN@EENJEFM@SELECT?5szIPAddr?0?5szPriAddr?5FROM?5@ DB 'SELECT szIPA'
	DB	'ddr, szPriAddr FROM TIPADDR WHERE bMachineID = ? AND bActive '
	DB	'= 1', 00H					; `string'
CONST	ENDS
;	COMDAT ??_7CTBLIPAddr@@6B@
CONST	SEGMENT
??_7CTBLIPAddr@@6B@ DD FLAT:??_ECTBLIPAddr@@UAEPAXI@Z	; CTBLIPAddr::`vftable'
	DD	FLAT:?GetNumCol@CTBLIPAddr@@UAEHXZ
	DD	FLAT:?GetNumParam@CTBLIPAddr@@UAEHXZ
	DD	FLAT:?AllocStatement@CSqlQuery@@UAEHXZ
	DD	FLAT:?BindColumns@CTBLIPAddr@@UAEFXZ
	DD	FLAT:?BindParameters@CTBLIPAddr@@UAEFH@Z
; Function compile flags: /Ogty
; File c:\users\pierr\desktop\4story - oldschool\sources\tserver\tcontrolsvr\dbaccess.h
CONST	ENDS
;	COMDAT ??0CTBLIPAddr@@QAE@PAVCSqlDatabase@@V?$basic_string@DU?$char_traits@D@std@@V?$allocator@D@2@@std@@@Z
_TEXT	SEGMENT
$T90149 = -16						; size = 4
__$EHRec$ = -12						; size = 12
_pdb$ = 8						; size = 4
_strKey$ = 12						; size = 28
??0CTBLIPAddr@@QAE@PAVCSqlDatabase@@V?$basic_string@DU?$char_traits@D@std@@V?$allocator@D@2@@std@@@Z PROC NEAR ; CTBLIPAddr::CTBLIPAddr, COMDAT
; _this$ = ecx

; 90   : DEF_QUERY( CTBLIPAddr, _T("SELECT szIPAddr, szPriAddr FROM TIPADDR WHERE bMachineID = ? AND bActive = 1"));

  00000	6a ff		 push	 -1
  00002	68 00 00 00 00	 push	 __ehhandler$??0CTBLIPAddr@@QAE@PAVCSqlDatabase@@V?$basic_string@DU?$char_traits@D@std@@V?$allocator@D@2@@std@@@Z
  00007	64 a1 00 00 00
	00		 mov	 eax, DWORD PTR fs:__except_list
  0000d	50		 push	 eax
  0000e	64 89 25 00 00
	00 00		 mov	 DWORD PTR fs:__except_list, esp
  00015	51		 push	 ecx
  00016	56		 push	 esi
  00017	8b f1		 mov	 esi, ecx
  00019	68 00 00 00 00	 push	 OFFSET FLAT:??_C@_0EN@EENJEFM@SELECT?5szIPAddr?0?5szPriAddr?5FROM?5@
  0001e	83 ec 1c	 sub	 esp, 28			; 0000001cH
  00021	8b cc		 mov	 ecx, esp
  00023	33 c0		 xor	 eax, eax
  00025	89 64 24 24	 mov	 DWORD PTR $T90149[esp+52], esp
  00029	6a ff		 push	 -1
  0002b	89 41 14	 mov	 DWORD PTR [ecx+20], eax
  0002e	c7 41 18 0f 00
	00 00		 mov	 DWORD PTR [ecx+24], 15	; 0000000fH
  00035	50		 push	 eax
  00036	89 44 24 38	 mov	 DWORD PTR __$EHRec$[esp+68], eax
  0003a	88 41 04	 mov	 BYTE PTR [ecx+4], al
  0003d	8d 44 24 44	 lea	 eax, DWORD PTR _strKey$[esp+56]
  00041	50		 push	 eax
  00042	e8 00 00 00 00	 call	 ?assign@?$basic_string@DU?$char_traits@D@std@@V?$allocator@D@2@@std@@QAEAAV12@ABV12@II@Z ; std::basic_string<char,std::char_traits<char>,std::allocator<char> >::assign
  00047	8b 4c 24 38	 mov	 ecx, DWORD PTR _pdb$[esp+48]
  0004b	51		 push	 ecx
  0004c	8b ce		 mov	 ecx, esi
  0004e	e8 00 00 00 00	 call	 ??0CSqlQuery@@QAE@PAVCSqlDatabase@@V?$basic_string@DU?$char_traits@D@std@@V?$allocator@D@2@@std@@PBD@Z ; CSqlQuery::CSqlQuery
  00053	83 7c 24 34 10	 cmp	 DWORD PTR _strKey$[esp+40], 16 ; 00000010H
  00058	c7 06 00 00 00
	00		 mov	 DWORD PTR [esi], OFFSET FLAT:??_7CTBLIPAddr@@6B@
  0005e	72 0d		 jb	 SHORT $L90322
  00060	8b 54 24 20	 mov	 edx, DWORD PTR _strKey$[esp+20]
  00064	52		 push	 edx
  00065	e8 00 00 00 00	 call	 ??3@YAXPAX@Z		; operator delete
  0006a	83 c4 04	 add	 esp, 4
$L90322:
  0006d	8b 4c 24 08	 mov	 ecx, DWORD PTR __$EHRec$[esp+20]
  00071	8b c6		 mov	 eax, esi
  00073	64 89 0d 00 00
	00 00		 mov	 DWORD PTR fs:__except_list, ecx
  0007a	5e		 pop	 esi
  0007b	83 c4 10	 add	 esp, 16			; 00000010H
  0007e	c2 20 00	 ret	 32			; 00000020H
_TEXT	ENDS
;	COMDAT text$x
text$x	SEGMENT
$L90150:
  00000	8d 4d 08	 lea	 ecx, DWORD PTR _strKey$[ebp-4]
  00003	e9 00 00 00 00	 jmp	 ??1?$basic_string@DU?$char_traits@D@std@@V?$allocator@D@2@@std@@QAE@XZ ; std::basic_string<char,std::char_traits<char>,std::allocator<char> >::~basic_string<char,std::char_traits<char>,std::allocator<char> >
__ehhandler$??0CTBLIPAddr@@QAE@PAVCSqlDatabase@@V?$basic_string@DU?$char_traits@D@std@@V?$allocator@D@2@@std@@@Z:
  00008	b8 00 00 00 00	 mov	 eax, OFFSET FLAT:$T90321
  0000d	e9 00 00 00 00	 jmp	 ___CxxFrameHandler
text$x	ENDS
??0CTBLIPAddr@@QAE@PAVCSqlDatabase@@V?$basic_string@DU?$char_traits@D@std@@V?$allocator@D@2@@std@@@Z ENDP ; CTBLIPAddr::CTBLIPAddr
; Function compile flags: /Ogty
;	COMDAT ?GetNumCol@CTBLIPAddr@@UAEHXZ
_TEXT	SEGMENT
?GetNumCol@CTBLIPAddr@@UAEHXZ PROC NEAR			; CTBLIPAddr::GetNumCol, COMDAT
; _this$ = ecx

; 92   : BEGIN_COLUMN(2)

  00000	b8 02 00 00 00	 mov	 eax, 2
  00005	c3		 ret	 0
?GetNumCol@CTBLIPAddr@@UAEHXZ ENDP			; CTBLIPAddr::GetNumCol
; Function compile flags: /Ogty
_TEXT	ENDS
;	COMDAT ?BindColumns@CTBLIPAddr@@UAEFXZ
_TEXT	SEGMENT
?BindColumns@CTBLIPAddr@@UAEFXZ PROC NEAR		; CTBLIPAddr::BindColumns, COMDAT
; _this$ = ecx

; 92   : BEGIN_COLUMN(2)

  00000	56		 push	 esi
  00001	8b f1		 mov	 esi, ecx

; 93   : 	COLUMN_ENTRY_STR(m_szIPAddr)

  00003	6a 33		 push	 51			; 00000033H
  00005	8d 86 2d 0c 00
	00		 lea	 eax, DWORD PTR [esi+3117]
  0000b	50		 push	 eax
  0000c	6a 01		 push	 1
  0000e	e8 00 00 00 00	 call	 ?BindColStr@CSqlBase@@QAEFFPADJ@Z ; CSqlBase::BindColStr
  00013	66 85 c0	 test	 ax, ax
  00016	74 06		 je	 SHORT $L83551
  00018	66 3d 01 00	 cmp	 ax, 1
  0001c	75 12		 jne	 SHORT $L83547
$L83551:

; 94   : 	COLUMN_ENTRY_STR(m_szPriAddr)

  0001e	6a 33		 push	 51			; 00000033H
  00020	8d 8e 60 0c 00
	00		 lea	 ecx, DWORD PTR [esi+3168]
  00026	51		 push	 ecx
  00027	6a 02		 push	 2
  00029	8b ce		 mov	 ecx, esi
  0002b	e8 00 00 00 00	 call	 ?BindColStr@CSqlBase@@QAEFFPADJ@Z ; CSqlBase::BindColStr
$L83547:
  00030	5e		 pop	 esi

; 95   : END_COL()

  00031	c3		 ret	 0
?BindColumns@CTBLIPAddr@@UAEFXZ ENDP			; CTBLIPAddr::BindColumns
; Function compile flags: /Ogty
_TEXT	ENDS
;	COMDAT ?GetNumParam@CTBLIPAddr@@UAEHXZ
_TEXT	SEGMENT
?GetNumParam@CTBLIPAddr@@UAEHXZ PROC NEAR		; CTBLIPAddr::GetNumParam, COMDAT
; _this$ = ecx

; 97   : BEGIN_PARAM(1)

  00000	b8 01 00 00 00	 mov	 eax, 1
  00005	c3		 ret	 0
?GetNumParam@CTBLIPAddr@@UAEHXZ ENDP			; CTBLIPAddr::GetNumParam
_TEXT	ENDS
EXTRN	?BindParam@CSqlBase@@QAEFFFPAE@Z:NEAR		; CSqlBase::BindParam
; Function compile flags: /Ogty
;	COMDAT ?BindParameters@CTBLIPAddr@@UAEFH@Z
_TEXT	SEGMENT
_bRewind$ = 8						; size = 4
?BindParameters@CTBLIPAddr@@UAEFH@Z PROC NEAR		; CTBLIPAddr::BindParameters, COMDAT
; _this$ = ecx

; 98   : 	PARAM_ENTRY(SQL_PARAM_INPUT, m_bMachineID);

  00000	8b 54 24 04	 mov	 edx, DWORD PTR _bRewind$[esp-4]
  00004	33 c0		 xor	 eax, eax
  00006	85 d2		 test	 edx, edx
  00008	89 81 10 08 00
	00		 mov	 DWORD PTR [ecx+2064], eax
  0000e	75 10		 jne	 SHORT $L83557
  00010	8d 81 2c 0c 00
	00		 lea	 eax, DWORD PTR [ecx+3116]
  00016	50		 push	 eax
  00017	6a 01		 push	 1
  00019	6a 01		 push	 1
  0001b	e8 00 00 00 00	 call	 ?BindParam@CSqlBase@@QAEFFFPAE@Z ; CSqlBase::BindParam
$L83557:

; 99   : END_PARAM()

  00020	c2 04 00	 ret	 4
?BindParameters@CTBLIPAddr@@UAEFH@Z ENDP		; CTBLIPAddr::BindParameters
_TEXT	ENDS
PUBLIC	??1CTBLIPAddr@@UAE@XZ				; CTBLIPAddr::~CTBLIPAddr
; Function compile flags: /Ogty
;	COMDAT ??_GCTBLIPAddr@@UAEPAXI@Z
_TEXT	SEGMENT
___flags$ = 8						; size = 4
??_GCTBLIPAddr@@UAEPAXI@Z PROC NEAR			; CTBLIPAddr::`scalar deleting destructor', COMDAT
; _this$ = ecx
  00000	56		 push	 esi
  00001	8b f1		 mov	 esi, ecx
  00003	e8 00 00 00 00	 call	 ??1CTBLIPAddr@@UAE@XZ
  00008	f6 44 24 08 01	 test	 BYTE PTR ___flags$[esp], 1
  0000d	74 09		 je	 SHORT $L90342
  0000f	56		 push	 esi
  00010	e8 00 00 00 00	 call	 ??3@YAXPAX@Z		; operator delete
  00015	83 c4 04	 add	 esp, 4
$L90342:
  00018	8b c6		 mov	 eax, esi
  0001a	5e		 pop	 esi
  0001b	c2 04 00	 ret	 4
??_GCTBLIPAddr@@UAEPAXI@Z ENDP				; CTBLIPAddr::`scalar deleting destructor'
; Function compile flags: /Ogty
_TEXT	ENDS
;	COMDAT ??1CTBLIPAddr@@UAE@XZ
_TEXT	SEGMENT
??1CTBLIPAddr@@UAE@XZ PROC NEAR				; CTBLIPAddr::~CTBLIPAddr, COMDAT
; _this$ = ecx
  00000	e9 00 00 00 00	 jmp	 ??1CSqlQuery@@UAE@XZ	; CSqlQuery::~CSqlQuery
??1CTBLIPAddr@@UAE@XZ ENDP				; CTBLIPAddr::~CTBLIPAddr
_TEXT	ENDS
PUBLIC	??0CTBLManager@@QAE@PAVCSqlDatabase@@V?$basic_string@DU?$char_traits@D@std@@V?$allocator@D@2@@std@@@Z ; CTBLManager::CTBLManager
PUBLIC	?GetNumCol@CTBLManager@@UAEHXZ			; CTBLManager::GetNumCol
PUBLIC	?BindColumns@CTBLManager@@UAEFXZ		; CTBLManager::BindColumns
PUBLIC	??_7CTBLManager@@6B@				; CTBLManager::`vftable'
PUBLIC	??_GCTBLManager@@UAEPAXI@Z			; CTBLManager::`scalar deleting destructor'
PUBLIC	??_C@_0DA@EKOCNMJJ@SELECT?5szID?0?5szPasswd?0?5bAuthorit@ ; `string'
EXTRN	??_ECTBLManager@@UAEPAXI@Z:NEAR			; CTBLManager::`vector deleting destructor'
;	COMDAT xdata$x
; File c:\program files (x86)\microsoft visual studio .net 2003\vc7\include\iosfwd
xdata$x	SEGMENT
$T90525	DD	0ffffffffH
	DD	FLAT:$L90351
$T90522	DD	019930520H
	DD	01H
	DD	FLAT:$T90525
	DD	2 DUP(00H)
	DD	2 DUP(00H)
xdata$x	ENDS
;	COMDAT ??_C@_0DA@EKOCNMJJ@SELECT?5szID?0?5szPasswd?0?5bAuthorit@
CONST	SEGMENT
??_C@_0DA@EKOCNMJJ@SELECT?5szID?0?5szPasswd?0?5bAuthorit@ DB 'SELECT szID'
	DB	', szPasswd, bAuthority FROM TMANAGER', 00H	; `string'
CONST	ENDS
;	COMDAT ??_7CTBLManager@@6B@
CONST	SEGMENT
??_7CTBLManager@@6B@ DD FLAT:??_ECTBLManager@@UAEPAXI@Z	; CTBLManager::`vftable'
	DD	FLAT:?GetNumCol@CTBLManager@@UAEHXZ
	DD	FLAT:?GetNumParam@CSqlBase@@UAEHXZ
	DD	FLAT:?AllocStatement@CSqlQuery@@UAEHXZ
	DD	FLAT:?BindColumns@CTBLManager@@UAEFXZ
	DD	FLAT:?BindParameters@CSqlQuery@@UAEFH@Z
; Function compile flags: /Ogty
; File c:\users\pierr\desktop\4story - oldschool\sources\tserver\tcontrolsvr\dbaccess.h
CONST	ENDS
;	COMDAT ??0CTBLManager@@QAE@PAVCSqlDatabase@@V?$basic_string@DU?$char_traits@D@std@@V?$allocator@D@2@@std@@@Z
_TEXT	SEGMENT
$T90350 = -16						; size = 4
__$EHRec$ = -12						; size = 12
_pdb$ = 8						; size = 4
_strKey$ = 12						; size = 28
??0CTBLManager@@QAE@PAVCSqlDatabase@@V?$basic_string@DU?$char_traits@D@std@@V?$allocator@D@2@@std@@@Z PROC NEAR ; CTBLManager::CTBLManager, COMDAT
; _this$ = ecx

; 109  : DEF_QUERY( CTBLManager, _T("SELECT szID, szPasswd, bAuthority FROM TMANAGER"));

  00000	6a ff		 push	 -1
  00002	68 00 00 00 00	 push	 __ehhandler$??0CTBLManager@@QAE@PAVCSqlDatabase@@V?$basic_string@DU?$char_traits@D@std@@V?$allocator@D@2@@std@@@Z
  00007	64 a1 00 00 00
	00		 mov	 eax, DWORD PTR fs:__except_list
  0000d	50		 push	 eax
  0000e	64 89 25 00 00
	00 00		 mov	 DWORD PTR fs:__except_list, esp
  00015	51		 push	 ecx
  00016	56		 push	 esi
  00017	8b f1		 mov	 esi, ecx
  00019	68 00 00 00 00	 push	 OFFSET FLAT:??_C@_0DA@EKOCNMJJ@SELECT?5szID?0?5szPasswd?0?5bAuthorit@
  0001e	83 ec 1c	 sub	 esp, 28			; 0000001cH
  00021	8b cc		 mov	 ecx, esp
  00023	33 c0		 xor	 eax, eax
  00025	89 64 24 24	 mov	 DWORD PTR $T90350[esp+52], esp
  00029	6a ff		 push	 -1
  0002b	89 41 14	 mov	 DWORD PTR [ecx+20], eax
  0002e	c7 41 18 0f 00
	00 00		 mov	 DWORD PTR [ecx+24], 15	; 0000000fH
  00035	50		 push	 eax
  00036	89 44 24 38	 mov	 DWORD PTR __$EHRec$[esp+68], eax
  0003a	88 41 04	 mov	 BYTE PTR [ecx+4], al
  0003d	8d 44 24 44	 lea	 eax, DWORD PTR _strKey$[esp+56]
  00041	50		 push	 eax
  00042	e8 00 00 00 00	 call	 ?assign@?$basic_string@DU?$char_traits@D@std@@V?$allocator@D@2@@std@@QAEAAV12@ABV12@II@Z ; std::basic_string<char,std::char_traits<char>,std::allocator<char> >::assign
  00047	8b 4c 24 38	 mov	 ecx, DWORD PTR _pdb$[esp+48]
  0004b	51		 push	 ecx
  0004c	8b ce		 mov	 ecx, esi
  0004e	e8 00 00 00 00	 call	 ??0CSqlQuery@@QAE@PAVCSqlDatabase@@V?$basic_string@DU?$char_traits@D@std@@V?$allocator@D@2@@std@@PBD@Z ; CSqlQuery::CSqlQuery
  00053	83 7c 24 34 10	 cmp	 DWORD PTR _strKey$[esp+40], 16 ; 00000010H
  00058	c7 06 00 00 00
	00		 mov	 DWORD PTR [esi], OFFSET FLAT:??_7CTBLManager@@6B@
  0005e	72 0d		 jb	 SHORT $L90523
  00060	8b 54 24 20	 mov	 edx, DWORD PTR _strKey$[esp+20]
  00064	52		 push	 edx
  00065	e8 00 00 00 00	 call	 ??3@YAXPAX@Z		; operator delete
  0006a	83 c4 04	 add	 esp, 4
$L90523:
  0006d	8b 4c 24 08	 mov	 ecx, DWORD PTR __$EHRec$[esp+20]
  00071	8b c6		 mov	 eax, esi
  00073	64 89 0d 00 00
	00 00		 mov	 DWORD PTR fs:__except_list, ecx
  0007a	5e		 pop	 esi
  0007b	83 c4 10	 add	 esp, 16			; 00000010H
  0007e	c2 20 00	 ret	 32			; 00000020H
_TEXT	ENDS
;	COMDAT text$x
text$x	SEGMENT
$L90351:
  00000	8d 4d 08	 lea	 ecx, DWORD PTR _strKey$[ebp-4]
  00003	e9 00 00 00 00	 jmp	 ??1?$basic_string@DU?$char_traits@D@std@@V?$allocator@D@2@@std@@QAE@XZ ; std::basic_string<char,std::char_traits<char>,std::allocator<char> >::~basic_string<char,std::char_traits<char>,std::allocator<char> >
__ehhandler$??0CTBLManager@@QAE@PAVCSqlDatabase@@V?$basic_string@DU?$char_traits@D@std@@V?$allocator@D@2@@std@@@Z:
  00008	b8 00 00 00 00	 mov	 eax, OFFSET FLAT:$T90522
  0000d	e9 00 00 00 00	 jmp	 ___CxxFrameHandler
text$x	ENDS
??0CTBLManager@@QAE@PAVCSqlDatabase@@V?$basic_string@DU?$char_traits@D@std@@V?$allocator@D@2@@std@@@Z ENDP ; CTBLManager::CTBLManager
; Function compile flags: /Ogty
;	COMDAT ?GetNumCol@CTBLManager@@UAEHXZ
_TEXT	SEGMENT
?GetNumCol@CTBLManager@@UAEHXZ PROC NEAR		; CTBLManager::GetNumCol, COMDAT
; _this$ = ecx

; 111  : BEGIN_COLUMN(3)

  00000	b8 03 00 00 00	 mov	 eax, 3
  00005	c3		 ret	 0
?GetNumCol@CTBLManager@@UAEHXZ ENDP			; CTBLManager::GetNumCol
; Function compile flags: /Ogty
_TEXT	ENDS
;	COMDAT ?BindColumns@CTBLManager@@UAEFXZ
_TEXT	SEGMENT
?BindColumns@CTBLManager@@UAEFXZ PROC NEAR		; CTBLManager::BindColumns, COMDAT
; _this$ = ecx

; 111  : BEGIN_COLUMN(3)

  00000	56		 push	 esi
  00001	8b f1		 mov	 esi, ecx

; 112  : 	COLUMN_ENTRY_STR(m_szID)

  00003	6a 33		 push	 51			; 00000033H
  00005	8d 86 2c 0c 00
	00		 lea	 eax, DWORD PTR [esi+3116]
  0000b	50		 push	 eax
  0000c	6a 01		 push	 1
  0000e	e8 00 00 00 00	 call	 ?BindColStr@CSqlBase@@QAEFFPADJ@Z ; CSqlBase::BindColStr
  00013	66 85 c0	 test	 ax, ax
  00016	74 06		 je	 SHORT $L83605
  00018	66 3d 01 00	 cmp	 ax, 1
  0001c	75 2d		 jne	 SHORT $L83601
$L83605:

; 113  : 	COLUMN_ENTRY_STR(m_szPasswd)

  0001e	6a 33		 push	 51			; 00000033H
  00020	8d 8e 5f 0c 00
	00		 lea	 ecx, DWORD PTR [esi+3167]
  00026	51		 push	 ecx
  00027	6a 02		 push	 2
  00029	8b ce		 mov	 ecx, esi
  0002b	e8 00 00 00 00	 call	 ?BindColStr@CSqlBase@@QAEFFPADJ@Z ; CSqlBase::BindColStr
  00030	66 85 c0	 test	 ax, ax
  00033	74 06		 je	 SHORT $L83606
  00035	66 3d 01 00	 cmp	 ax, 1
  00039	75 10		 jne	 SHORT $L83601
$L83606:

; 114  : 	COLUMN_ENTRY(m_bAuthority) //   

  0003b	8d 96 92 0c 00
	00		 lea	 edx, DWORD PTR [esi+3218]
  00041	52		 push	 edx
  00042	6a 03		 push	 3
  00044	8b ce		 mov	 ecx, esi
  00046	e8 00 00 00 00	 call	 ?BindCol@CSqlBase@@QAEFFPAE@Z ; CSqlBase::BindCol
$L83601:
  0004b	5e		 pop	 esi

; 115  : END_COL()

  0004c	c3		 ret	 0
?BindColumns@CTBLManager@@UAEFXZ ENDP			; CTBLManager::BindColumns
_TEXT	ENDS
PUBLIC	??1CTBLManager@@UAE@XZ				; CTBLManager::~CTBLManager
; Function compile flags: /Ogty
;	COMDAT ??_GCTBLManager@@UAEPAXI@Z
_TEXT	SEGMENT
___flags$ = 8						; size = 4
??_GCTBLManager@@UAEPAXI@Z PROC NEAR			; CTBLManager::`scalar deleting destructor', COMDAT
; _this$ = ecx
  00000	56		 push	 esi
  00001	8b f1		 mov	 esi, ecx
  00003	e8 00 00 00 00	 call	 ??1CTBLManager@@UAE@XZ
  00008	f6 44 24 08 01	 test	 BYTE PTR ___flags$[esp], 1
  0000d	74 09		 je	 SHORT $L90537
  0000f	56		 push	 esi
  00010	e8 00 00 00 00	 call	 ??3@YAXPAX@Z		; operator delete
  00015	83 c4 04	 add	 esp, 4
$L90537:
  00018	8b c6		 mov	 eax, esi
  0001a	5e		 pop	 esi
  0001b	c2 04 00	 ret	 4
??_GCTBLManager@@UAEPAXI@Z ENDP				; CTBLManager::`scalar deleting destructor'
; Function compile flags: /Ogty
_TEXT	ENDS
;	COMDAT ??1CTBLManager@@UAE@XZ
_TEXT	SEGMENT
??1CTBLManager@@UAE@XZ PROC NEAR			; CTBLManager::~CTBLManager, COMDAT
; _this$ = ecx
  00000	e9 00 00 00 00	 jmp	 ??1CSqlQuery@@UAE@XZ	; CSqlQuery::~CSqlQuery
??1CTBLManager@@UAE@XZ ENDP				; CTBLManager::~CTBLManager
_TEXT	ENDS
PUBLIC	??0CTBLEvent@@QAE@PAVCSqlDatabase@@V?$basic_string@DU?$char_traits@D@std@@V?$allocator@D@2@@std@@@Z ; CTBLEvent::CTBLEvent
PUBLIC	?GetNumCol@CTBLEvent@@UAEHXZ			; CTBLEvent::GetNumCol
PUBLIC	?BindColumns@CTBLEvent@@UAEFXZ			; CTBLEvent::BindColumns
PUBLIC	??_7CTBLEvent@@6B@				; CTBLEvent::`vftable'
PUBLIC	??_GCTBLEvent@@UAEPAXI@Z			; CTBLEvent::`scalar deleting destructor'
PUBLIC	??_C@_0ND@KAAOJLLI@SELECT?5?5?5?5?5dwIndex?0?5?7bID?0?5?7szTit@ ; `string'
EXTRN	??_ECTBLEvent@@UAEPAXI@Z:NEAR			; CTBLEvent::`vector deleting destructor'
;	COMDAT xdata$x
; File c:\program files (x86)\microsoft visual studio .net 2003\vc7\include\iosfwd
xdata$x	SEGMENT
$T90720	DD	0ffffffffH
	DD	FLAT:$L90546
$T90717	DD	019930520H
	DD	01H
	DD	FLAT:$T90720
	DD	2 DUP(00H)
	DD	2 DUP(00H)
xdata$x	ENDS
;	COMDAT ??_C@_0ND@KAAOJLLI@SELECT?5?5?5?5?5dwIndex?0?5?7bID?0?5?7szTit@
CONST	SEGMENT
??_C@_0ND@KAAOJLLI@SELECT?5?5?5?5?5dwIndex?0?5?7bID?0?5?7szTit@ DB 'SELEC'
	DB	'T     dwIndex, ', 09H, 'bID, ', 09H, 'szTitle, ', 09H, 'bGrou'
	DB	'pID, ', 09H, 'bSvrType, ', 09H, 'bSvrID, ', 09H, 'dStartDate,'
	DB	' ', 09H, 'dEndDate, ', 09H, 'wValue, ', 09H, 'wMapID, ', 09H, 'd'
	DB	'wStartAlarm, ', 09H, 'dwEndAlarm, ', 09H, 'bPartTime, ', 09H, 's'
	DB	'zStartMsg, ', 09H, 'szMidMsg, ', 09H, 'szEndMsg, ', 09H, 'szV'
	DB	'alue ', 09H, 'FROM TEVENTCHART', 00H	; `string'
CONST	ENDS
;	COMDAT ??_7CTBLEvent@@6B@
CONST	SEGMENT
??_7CTBLEvent@@6B@ DD FLAT:??_ECTBLEvent@@UAEPAXI@Z	; CTBLEvent::`vftable'
	DD	FLAT:?GetNumCol@CTBLEvent@@UAEHXZ
	DD	FLAT:?GetNumParam@CSqlBase@@UAEHXZ
	DD	FLAT:?AllocStatement@CSqlQuery@@UAEHXZ
	DD	FLAT:?BindColumns@CTBLEvent@@UAEFXZ
	DD	FLAT:?BindParameters@CSqlQuery@@UAEFH@Z
; Function compile flags: /Ogty
; File c:\users\pierr\desktop\4story - oldschool\sources\tserver\tcontrolsvr\dbaccess.h
CONST	ENDS
;	COMDAT ??0CTBLEvent@@QAE@PAVCSqlDatabase@@V?$basic_string@DU?$char_traits@D@std@@V?$allocator@D@2@@std@@@Z
_TEXT	SEGMENT
$T90545 = -16						; size = 4
__$EHRec$ = -12						; size = 12
_pdb$ = 8						; size = 4
_strKey$ = 12						; size = 28
??0CTBLEvent@@QAE@PAVCSqlDatabase@@V?$basic_string@DU?$char_traits@D@std@@V?$allocator@D@2@@std@@@Z PROC NEAR ; CTBLEvent::CTBLEvent, COMDAT
; _this$ = ecx

; 159  : 	FROM TEVENTCHART"))

  00000	6a ff		 push	 -1
  00002	68 00 00 00 00	 push	 __ehhandler$??0CTBLEvent@@QAE@PAVCSqlDatabase@@V?$basic_string@DU?$char_traits@D@std@@V?$allocator@D@2@@std@@@Z
  00007	64 a1 00 00 00
	00		 mov	 eax, DWORD PTR fs:__except_list
  0000d	50		 push	 eax
  0000e	64 89 25 00 00
	00 00		 mov	 DWORD PTR fs:__except_list, esp
  00015	51		 push	 ecx
  00016	56		 push	 esi
  00017	8b f1		 mov	 esi, ecx
  00019	68 00 00 00 00	 push	 OFFSET FLAT:??_C@_0ND@KAAOJLLI@SELECT?5?5?5?5?5dwIndex?0?5?7bID?0?5?7szTit@
  0001e	83 ec 1c	 sub	 esp, 28			; 0000001cH
  00021	8b cc		 mov	 ecx, esp
  00023	33 c0		 xor	 eax, eax
  00025	89 64 24 24	 mov	 DWORD PTR $T90545[esp+52], esp
  00029	6a ff		 push	 -1
  0002b	89 41 14	 mov	 DWORD PTR [ecx+20], eax
  0002e	c7 41 18 0f 00
	00 00		 mov	 DWORD PTR [ecx+24], 15	; 0000000fH
  00035	50		 push	 eax
  00036	89 44 24 38	 mov	 DWORD PTR __$EHRec$[esp+68], eax
  0003a	88 41 04	 mov	 BYTE PTR [ecx+4], al
  0003d	8d 44 24 44	 lea	 eax, DWORD PTR _strKey$[esp+56]
  00041	50		 push	 eax
  00042	e8 00 00 00 00	 call	 ?assign@?$basic_string@DU?$char_traits@D@std@@V?$allocator@D@2@@std@@QAEAAV12@ABV12@II@Z ; std::basic_string<char,std::char_traits<char>,std::allocator<char> >::assign
  00047	8b 4c 24 38	 mov	 ecx, DWORD PTR _pdb$[esp+48]
  0004b	51		 push	 ecx
  0004c	8b ce		 mov	 ecx, esi
  0004e	e8 00 00 00 00	 call	 ??0CSqlQuery@@QAE@PAVCSqlDatabase@@V?$basic_string@DU?$char_traits@D@std@@V?$allocator@D@2@@std@@PBD@Z ; CSqlQuery::CSqlQuery
  00053	83 7c 24 34 10	 cmp	 DWORD PTR _strKey$[esp+40], 16 ; 00000010H
  00058	c7 06 00 00 00
	00		 mov	 DWORD PTR [esi], OFFSET FLAT:??_7CTBLEvent@@6B@
  0005e	72 0d		 jb	 SHORT $L90718
  00060	8b 54 24 20	 mov	 edx, DWORD PTR _strKey$[esp+20]
  00064	52		 push	 edx
  00065	e8 00 00 00 00	 call	 ??3@YAXPAX@Z		; operator delete
  0006a	83 c4 04	 add	 esp, 4
$L90718:
  0006d	8b 4c 24 08	 mov	 ecx, DWORD PTR __$EHRec$[esp+20]
  00071	8b c6		 mov	 eax, esi
  00073	64 89 0d 00 00
	00 00		 mov	 DWORD PTR fs:__except_list, ecx
  0007a	5e		 pop	 esi
  0007b	83 c4 10	 add	 esp, 16			; 00000010H
  0007e	c2 20 00	 ret	 32			; 00000020H
_TEXT	ENDS
;	COMDAT text$x
text$x	SEGMENT
$L90546:
  00000	8d 4d 08	 lea	 ecx, DWORD PTR _strKey$[ebp-4]
  00003	e9 00 00 00 00	 jmp	 ??1?$basic_string@DU?$char_traits@D@std@@V?$allocator@D@2@@std@@QAE@XZ ; std::basic_string<char,std::char_traits<char>,std::allocator<char> >::~basic_string<char,std::char_traits<char>,std::allocator<char> >
__ehhandler$??0CTBLEvent@@QAE@PAVCSqlDatabase@@V?$basic_string@DU?$char_traits@D@std@@V?$allocator@D@2@@std@@@Z:
  00008	b8 00 00 00 00	 mov	 eax, OFFSET FLAT:$T90717
  0000d	e9 00 00 00 00	 jmp	 ___CxxFrameHandler
text$x	ENDS
??0CTBLEvent@@QAE@PAVCSqlDatabase@@V?$basic_string@DU?$char_traits@D@std@@V?$allocator@D@2@@std@@@Z ENDP ; CTBLEvent::CTBLEvent
; Function compile flags: /Ogty
;	COMDAT ?GetNumCol@CTBLEvent@@UAEHXZ
_TEXT	SEGMENT
?GetNumCol@CTBLEvent@@UAEHXZ PROC NEAR			; CTBLEvent::GetNumCol, COMDAT
; _this$ = ecx

; 161  : BEGIN_COLUMN(16)

  00000	b8 10 00 00 00	 mov	 eax, 16			; 00000010H
  00005	c3		 ret	 0
?GetNumCol@CTBLEvent@@UAEHXZ ENDP			; CTBLEvent::GetNumCol
_TEXT	ENDS
EXTRN	?BindCol@CSqlBase@@QAEFFPAUtagTIMESTAMP_STRUCT@@@Z:NEAR ; CSqlBase::BindCol
EXTRN	?BindCol@CSqlBase@@QAEFFPAK@Z:NEAR		; CSqlBase::BindCol
; Function compile flags: /Ogty
;	COMDAT ?BindColumns@CTBLEvent@@UAEFXZ
_TEXT	SEGMENT
?BindColumns@CTBLEvent@@UAEFXZ PROC NEAR		; CTBLEvent::BindColumns, COMDAT
; _this$ = ecx

; 161  : BEGIN_COLUMN(16)

  00000	56		 push	 esi
  00001	8b f1		 mov	 esi, ecx

; 162  : 	COLUMN_ENTRY(m_dwIndex)

  00003	8d 86 2c 0c 00
	00		 lea	 eax, DWORD PTR [esi+3116]
  00009	50		 push	 eax
  0000a	6a 01		 push	 1
  0000c	e8 00 00 00 00	 call	 ?BindCol@CSqlBase@@QAEFFPAK@Z ; CSqlBase::BindCol
  00011	66 85 c0	 test	 ax, ax
  00014	74 0a		 je	 SHORT $L83666
  00016	66 3d 01 00	 cmp	 ax, 1
  0001a	0f 85 ea 01 00
	00		 jne	 $L83662
$L83666:

; 163  : 	COLUMN_ENTRY(m_bID)

  00020	8d 8e 30 0c 00
	00		 lea	 ecx, DWORD PTR [esi+3120]
  00026	51		 push	 ecx
  00027	6a 02		 push	 2
  00029	8b ce		 mov	 ecx, esi
  0002b	e8 00 00 00 00	 call	 ?BindCol@CSqlBase@@QAEFFPAE@Z ; CSqlBase::BindCol
  00030	66 85 c0	 test	 ax, ax
  00033	74 0a		 je	 SHORT $L83667
  00035	66 3d 01 00	 cmp	 ax, 1
  00039	0f 85 cb 01 00
	00		 jne	 $L83662
$L83667:

; 164  : 	COLUMN_ENTRY_STR(m_szTitle)

  0003f	68 01 01 00 00	 push	 257			; 00000101H
  00044	8d 96 31 0c 00
	00		 lea	 edx, DWORD PTR [esi+3121]
  0004a	52		 push	 edx
  0004b	6a 03		 push	 3
  0004d	8b ce		 mov	 ecx, esi
  0004f	e8 00 00 00 00	 call	 ?BindColStr@CSqlBase@@QAEFFPADJ@Z ; CSqlBase::BindColStr
  00054	66 85 c0	 test	 ax, ax
  00057	74 0a		 je	 SHORT $L83668
  00059	66 3d 01 00	 cmp	 ax, 1
  0005d	0f 85 a7 01 00
	00		 jne	 $L83662
$L83668:

; 165  : 	COLUMN_ENTRY(m_bGroupID)

  00063	8d 86 32 0d 00
	00		 lea	 eax, DWORD PTR [esi+3378]
  00069	50		 push	 eax
  0006a	6a 04		 push	 4
  0006c	8b ce		 mov	 ecx, esi
  0006e	e8 00 00 00 00	 call	 ?BindCol@CSqlBase@@QAEFFPAE@Z ; CSqlBase::BindCol
  00073	66 85 c0	 test	 ax, ax
  00076	74 0a		 je	 SHORT $L83669
  00078	66 3d 01 00	 cmp	 ax, 1
  0007c	0f 85 88 01 00
	00		 jne	 $L83662
$L83669:

; 166  : 	COLUMN_ENTRY(m_bSvrType)

  00082	8d 8e 33 0d 00
	00		 lea	 ecx, DWORD PTR [esi+3379]
  00088	51		 push	 ecx
  00089	6a 05		 push	 5
  0008b	8b ce		 mov	 ecx, esi
  0008d	e8 00 00 00 00	 call	 ?BindCol@CSqlBase@@QAEFFPAE@Z ; CSqlBase::BindCol
  00092	66 85 c0	 test	 ax, ax
  00095	74 0a		 je	 SHORT $L83670
  00097	66 3d 01 00	 cmp	 ax, 1
  0009b	0f 85 69 01 00
	00		 jne	 $L83662
$L83670:

; 167  : 	COLUMN_ENTRY(m_bSvrID)

  000a1	8d 96 34 0d 00
	00		 lea	 edx, DWORD PTR [esi+3380]
  000a7	52		 push	 edx
  000a8	6a 06		 push	 6
  000aa	8b ce		 mov	 ecx, esi
  000ac	e8 00 00 00 00	 call	 ?BindCol@CSqlBase@@QAEFFPAE@Z ; CSqlBase::BindCol
  000b1	66 85 c0	 test	 ax, ax
  000b4	74 0a		 je	 SHORT $L83671
  000b6	66 3d 01 00	 cmp	 ax, 1
  000ba	0f 85 4a 01 00
	00		 jne	 $L83662
$L83671:

; 168  : 	COLUMN_ENTRY(m_dStartDate)

  000c0	8d 86 38 0d 00
	00		 lea	 eax, DWORD PTR [esi+3384]
  000c6	50		 push	 eax
  000c7	6a 07		 push	 7
  000c9	8b ce		 mov	 ecx, esi
  000cb	e8 00 00 00 00	 call	 ?BindCol@CSqlBase@@QAEFFPAUtagTIMESTAMP_STRUCT@@@Z ; CSqlBase::BindCol
  000d0	66 85 c0	 test	 ax, ax
  000d3	74 0a		 je	 SHORT $L83672
  000d5	66 3d 01 00	 cmp	 ax, 1
  000d9	0f 85 2b 01 00
	00		 jne	 $L83662
$L83672:

; 169  : 	COLUMN_ENTRY(m_dEndDate)

  000df	8d 8e 48 0d 00
	00		 lea	 ecx, DWORD PTR [esi+3400]
  000e5	51		 push	 ecx
  000e6	6a 08		 push	 8
  000e8	8b ce		 mov	 ecx, esi
  000ea	e8 00 00 00 00	 call	 ?BindCol@CSqlBase@@QAEFFPAUtagTIMESTAMP_STRUCT@@@Z ; CSqlBase::BindCol
  000ef	66 85 c0	 test	 ax, ax
  000f2	74 0a		 je	 SHORT $L83673
  000f4	66 3d 01 00	 cmp	 ax, 1
  000f8	0f 85 0c 01 00
	00		 jne	 $L83662
$L83673:

; 170  : 	COLUMN_ENTRY(m_wValue)

  000fe	8d 96 58 0d 00
	00		 lea	 edx, DWORD PTR [esi+3416]
  00104	52		 push	 edx
  00105	6a 09		 push	 9
  00107	8b ce		 mov	 ecx, esi
  00109	e8 00 00 00 00	 call	 ?BindCol@CSqlBase@@QAEFFPAG@Z ; CSqlBase::BindCol
  0010e	66 85 c0	 test	 ax, ax
  00111	74 0a		 je	 SHORT $L83674
  00113	66 3d 01 00	 cmp	 ax, 1
  00117	0f 85 ed 00 00
	00		 jne	 $L83662
$L83674:

; 171  : 	COLUMN_ENTRY(m_wMapID)

  0011d	8d 86 5a 0d 00
	00		 lea	 eax, DWORD PTR [esi+3418]
  00123	50		 push	 eax
  00124	6a 0a		 push	 10			; 0000000aH
  00126	8b ce		 mov	 ecx, esi
  00128	e8 00 00 00 00	 call	 ?BindCol@CSqlBase@@QAEFFPAG@Z ; CSqlBase::BindCol
  0012d	66 85 c0	 test	 ax, ax
  00130	74 0a		 je	 SHORT $L83675
  00132	66 3d 01 00	 cmp	 ax, 1
  00136	0f 85 ce 00 00
	00		 jne	 $L83662
$L83675:

; 172  : 	COLUMN_ENTRY(m_dwStartAlarm)

  0013c	8d 8e 5c 0d 00
	00		 lea	 ecx, DWORD PTR [esi+3420]
  00142	51		 push	 ecx
  00143	6a 0b		 push	 11			; 0000000bH
  00145	8b ce		 mov	 ecx, esi
  00147	e8 00 00 00 00	 call	 ?BindCol@CSqlBase@@QAEFFPAK@Z ; CSqlBase::BindCol
  0014c	66 85 c0	 test	 ax, ax
  0014f	74 0a		 je	 SHORT $L83676
  00151	66 3d 01 00	 cmp	 ax, 1
  00155	0f 85 af 00 00
	00		 jne	 $L83662
$L83676:

; 173  : 	COLUMN_ENTRY(m_dwEndAlarm)

  0015b	8d 96 60 0d 00
	00		 lea	 edx, DWORD PTR [esi+3424]
  00161	52		 push	 edx
  00162	6a 0c		 push	 12			; 0000000cH
  00164	8b ce		 mov	 ecx, esi
  00166	e8 00 00 00 00	 call	 ?BindCol@CSqlBase@@QAEFFPAK@Z ; CSqlBase::BindCol
  0016b	66 85 c0	 test	 ax, ax
  0016e	74 0a		 je	 SHORT $L83677
  00170	66 3d 01 00	 cmp	 ax, 1
  00174	0f 85 90 00 00
	00		 jne	 $L83662
$L83677:

; 174  : 	COLUMN_ENTRY(m_bPartTime)

  0017a	8d 86 66 0d 00
	00		 lea	 eax, DWORD PTR [esi+3430]
  00180	50		 push	 eax
  00181	6a 0d		 push	 13			; 0000000dH
  00183	8b ce		 mov	 ecx, esi
  00185	e8 00 00 00 00	 call	 ?BindCol@CSqlBase@@QAEFFPAE@Z ; CSqlBase::BindCol
  0018a	66 85 c0	 test	 ax, ax
  0018d	74 06		 je	 SHORT $L83678
  0018f	66 3d 01 00	 cmp	 ax, 1
  00193	75 75		 jne	 SHORT $L83662
$L83678:

; 175  : 	COLUMN_ENTRY_STR(m_szStartMsg)

  00195	68 01 08 00 00	 push	 2049			; 00000801H
  0019a	8d 8e 67 0d 00
	00		 lea	 ecx, DWORD PTR [esi+3431]
  001a0	51		 push	 ecx
  001a1	6a 0e		 push	 14			; 0000000eH
  001a3	8b ce		 mov	 ecx, esi
  001a5	e8 00 00 00 00	 call	 ?BindColStr@CSqlBase@@QAEFFPADJ@Z ; CSqlBase::BindColStr
  001aa	66 85 c0	 test	 ax, ax
  001ad	74 06		 je	 SHORT $L83679
  001af	66 3d 01 00	 cmp	 ax, 1
  001b3	75 55		 jne	 SHORT $L83662
$L83679:

; 176  : 	COLUMN_ENTRY_STR(m_szMidMsg)

  001b5	68 01 08 00 00	 push	 2049			; 00000801H
  001ba	8d 96 68 15 00
	00		 lea	 edx, DWORD PTR [esi+5480]
  001c0	52		 push	 edx
  001c1	6a 0f		 push	 15			; 0000000fH
  001c3	8b ce		 mov	 ecx, esi
  001c5	e8 00 00 00 00	 call	 ?BindColStr@CSqlBase@@QAEFFPADJ@Z ; CSqlBase::BindColStr
  001ca	66 85 c0	 test	 ax, ax
  001cd	74 06		 je	 SHORT $L83680
  001cf	66 3d 01 00	 cmp	 ax, 1
  001d3	75 35		 jne	 SHORT $L83662
$L83680:

; 177  : 	COLUMN_ENTRY_STR(m_szEndMsg)

  001d5	68 01 08 00 00	 push	 2049			; 00000801H
  001da	8d 86 69 1d 00
	00		 lea	 eax, DWORD PTR [esi+7529]
  001e0	50		 push	 eax
  001e1	6a 10		 push	 16			; 00000010H
  001e3	8b ce		 mov	 ecx, esi
  001e5	e8 00 00 00 00	 call	 ?BindColStr@CSqlBase@@QAEFFPADJ@Z ; CSqlBase::BindColStr
  001ea	66 85 c0	 test	 ax, ax
  001ed	74 06		 je	 SHORT $L83681
  001ef	66 3d 01 00	 cmp	 ax, 1
  001f3	75 15		 jne	 SHORT $L83662
$L83681:

; 178  : 	COLUMN_ENTRY_STR(m_szValue)

  001f5	68 01 08 00 00	 push	 2049			; 00000801H
  001fa	8d 8e 6a 25 00
	00		 lea	 ecx, DWORD PTR [esi+9578]
  00200	51		 push	 ecx
  00201	6a 11		 push	 17			; 00000011H
  00203	8b ce		 mov	 ecx, esi
  00205	e8 00 00 00 00	 call	 ?BindColStr@CSqlBase@@QAEFFPADJ@Z ; CSqlBase::BindColStr
$L83662:
  0020a	5e		 pop	 esi

; 179  : END_COL()

  0020b	c3		 ret	 0
?BindColumns@CTBLEvent@@UAEFXZ ENDP			; CTBLEvent::BindColumns
_TEXT	ENDS
PUBLIC	??1CTBLEvent@@UAE@XZ				; CTBLEvent::~CTBLEvent
; Function compile flags: /Ogty
;	COMDAT ??_GCTBLEvent@@UAEPAXI@Z
_TEXT	SEGMENT
___flags$ = 8						; size = 4
??_GCTBLEvent@@UAEPAXI@Z PROC NEAR			; CTBLEvent::`scalar deleting destructor', COMDAT
; _this$ = ecx
  00000	56		 push	 esi
  00001	8b f1		 mov	 esi, ecx
  00003	e8 00 00 00 00	 call	 ??1CTBLEvent@@UAE@XZ
  00008	f6 44 24 08 01	 test	 BYTE PTR ___flags$[esp], 1
  0000d	74 09		 je	 SHORT $L90732
  0000f	56		 push	 esi
  00010	e8 00 00 00 00	 call	 ??3@YAXPAX@Z		; operator delete
  00015	83 c4 04	 add	 esp, 4
$L90732:
  00018	8b c6		 mov	 eax, esi
  0001a	5e		 pop	 esi
  0001b	c2 04 00	 ret	 4
??_GCTBLEvent@@UAEPAXI@Z ENDP				; CTBLEvent::`scalar deleting destructor'
; Function compile flags: /Ogty
_TEXT	ENDS
;	COMDAT ??1CTBLEvent@@UAE@XZ
_TEXT	SEGMENT
??1CTBLEvent@@UAE@XZ PROC NEAR				; CTBLEvent::~CTBLEvent, COMDAT
; _this$ = ecx
  00000	e9 00 00 00 00	 jmp	 ??1CSqlQuery@@UAE@XZ	; CSqlQuery::~CSqlQuery
??1CTBLEvent@@UAE@XZ ENDP				; CTBLEvent::~CTBLEvent
_TEXT	ENDS
PUBLIC	??0CTBLCashShopItem@@QAE@PAVCSqlDatabase@@V?$basic_string@DU?$char_traits@D@std@@V?$allocator@D@2@@std@@@Z ; CTBLCashShopItem::CTBLCashShopItem
PUBLIC	?GetNumCol@CTBLCashShopItem@@UAEHXZ		; CTBLCashShopItem::GetNumCol
PUBLIC	?BindColumns@CTBLCashShopItem@@UAEFXZ		; CTBLCashShopItem::BindColumns
PUBLIC	??_7CTBLCashShopItem@@6B@			; CTBLCashShopItem::`vftable'
PUBLIC	??_GCTBLCashShopItem@@UAEPAXI@Z			; CTBLCashShopItem::`scalar deleting destructor'
PUBLIC	??_C@_0EC@COMPOKEK@SELECT?5?7wID?0?5?7szName?5?7FROM?5TCASH@ ; `string'
EXTRN	??_ECTBLCashShopItem@@UAEPAXI@Z:NEAR		; CTBLCashShopItem::`vector deleting destructor'
;	COMDAT xdata$x
; File c:\program files (x86)\microsoft visual studio .net 2003\vc7\include\iosfwd
xdata$x	SEGMENT
$T90915	DD	0ffffffffH
	DD	FLAT:$L90741
$T90912	DD	019930520H
	DD	01H
	DD	FLAT:$T90915
	DD	2 DUP(00H)
	DD	2 DUP(00H)
xdata$x	ENDS
;	COMDAT ??_C@_0EC@COMPOKEK@SELECT?5?7wID?0?5?7szName?5?7FROM?5TCASH@
CONST	SEGMENT
??_C@_0EC@COMPOKEK@SELECT?5?7wID?0?5?7szName?5?7FROM?5TCASH@ DB 'SELECT ', 09H
	DB	'wID, ', 09H, 'szName ', 09H, 'FROM TCASHSHOPITEMCHART ', 09H, 'W'
	DB	'HERE bCanSell = 1', 00H			; `string'
CONST	ENDS
;	COMDAT ??_7CTBLCashShopItem@@6B@
CONST	SEGMENT
??_7CTBLCashShopItem@@6B@ DD FLAT:??_ECTBLCashShopItem@@UAEPAXI@Z ; CTBLCashShopItem::`vftable'
	DD	FLAT:?GetNumCol@CTBLCashShopItem@@UAEHXZ
	DD	FLAT:?GetNumParam@CSqlBase@@UAEHXZ
	DD	FLAT:?AllocStatement@CSqlQuery@@UAEHXZ
	DD	FLAT:?BindColumns@CTBLCashShopItem@@UAEFXZ
	DD	FLAT:?BindParameters@CSqlQuery@@UAEFH@Z
; Function compile flags: /Ogty
; File c:\users\pierr\desktop\4story - oldschool\sources\tserver\tcontrolsvr\dbaccess.h
CONST	ENDS
;	COMDAT ??0CTBLCashShopItem@@QAE@PAVCSqlDatabase@@V?$basic_string@DU?$char_traits@D@std@@V?$allocator@D@2@@std@@@Z
_TEXT	SEGMENT
$T90740 = -16						; size = 4
__$EHRec$ = -12						; size = 12
_pdb$ = 8						; size = 4
_strKey$ = 12						; size = 28
??0CTBLCashShopItem@@QAE@PAVCSqlDatabase@@V?$basic_string@DU?$char_traits@D@std@@V?$allocator@D@2@@std@@@Z PROC NEAR ; CTBLCashShopItem::CTBLCashShopItem, COMDAT
; _this$ = ecx

; 192  : 	WHERE bCanSell = 1"))

  00000	6a ff		 push	 -1
  00002	68 00 00 00 00	 push	 __ehhandler$??0CTBLCashShopItem@@QAE@PAVCSqlDatabase@@V?$basic_string@DU?$char_traits@D@std@@V?$allocator@D@2@@std@@@Z
  00007	64 a1 00 00 00
	00		 mov	 eax, DWORD PTR fs:__except_list
  0000d	50		 push	 eax
  0000e	64 89 25 00 00
	00 00		 mov	 DWORD PTR fs:__except_list, esp
  00015	51		 push	 ecx
  00016	56		 push	 esi
  00017	8b f1		 mov	 esi, ecx
  00019	68 00 00 00 00	 push	 OFFSET FLAT:??_C@_0EC@COMPOKEK@SELECT?5?7wID?0?5?7szName?5?7FROM?5TCASH@
  0001e	83 ec 1c	 sub	 esp, 28			; 0000001cH
  00021	8b cc		 mov	 ecx, esp
  00023	33 c0		 xor	 eax, eax
  00025	89 64 24 24	 mov	 DWORD PTR $T90740[esp+52], esp
  00029	6a ff		 push	 -1
  0002b	89 41 14	 mov	 DWORD PTR [ecx+20], eax
  0002e	c7 41 18 0f 00
	00 00		 mov	 DWORD PTR [ecx+24], 15	; 0000000fH
  00035	50		 push	 eax
  00036	89 44 24 38	 mov	 DWORD PTR __$EHRec$[esp+68], eax
  0003a	88 41 04	 mov	 BYTE PTR [ecx+4], al
  0003d	8d 44 24 44	 lea	 eax, DWORD PTR _strKey$[esp+56]
  00041	50		 push	 eax
  00042	e8 00 00 00 00	 call	 ?assign@?$basic_string@DU?$char_traits@D@std@@V?$allocator@D@2@@std@@QAEAAV12@ABV12@II@Z ; std::basic_string<char,std::char_traits<char>,std::allocator<char> >::assign
  00047	8b 4c 24 38	 mov	 ecx, DWORD PTR _pdb$[esp+48]
  0004b	51		 push	 ecx
  0004c	8b ce		 mov	 ecx, esi
  0004e	e8 00 00 00 00	 call	 ??0CSqlQuery@@QAE@PAVCSqlDatabase@@V?$basic_string@DU?$char_traits@D@std@@V?$allocator@D@2@@std@@PBD@Z ; CSqlQuery::CSqlQuery
  00053	83 7c 24 34 10	 cmp	 DWORD PTR _strKey$[esp+40], 16 ; 00000010H
  00058	c7 06 00 00 00
	00		 mov	 DWORD PTR [esi], OFFSET FLAT:??_7CTBLCashShopItem@@6B@
  0005e	72 0d		 jb	 SHORT $L90913
  00060	8b 54 24 20	 mov	 edx, DWORD PTR _strKey$[esp+20]
  00064	52		 push	 edx
  00065	e8 00 00 00 00	 call	 ??3@YAXPAX@Z		; operator delete
  0006a	83 c4 04	 add	 esp, 4
$L90913:
  0006d	8b 4c 24 08	 mov	 ecx, DWORD PTR __$EHRec$[esp+20]
  00071	8b c6		 mov	 eax, esi
  00073	64 89 0d 00 00
	00 00		 mov	 DWORD PTR fs:__except_list, ecx
  0007a	5e		 pop	 esi
  0007b	83 c4 10	 add	 esp, 16			; 00000010H
  0007e	c2 20 00	 ret	 32			; 00000020H
_TEXT	ENDS
;	COMDAT text$x
text$x	SEGMENT
$L90741:
  00000	8d 4d 08	 lea	 ecx, DWORD PTR _strKey$[ebp-4]
  00003	e9 00 00 00 00	 jmp	 ??1?$basic_string@DU?$char_traits@D@std@@V?$allocator@D@2@@std@@QAE@XZ ; std::basic_string<char,std::char_traits<char>,std::allocator<char> >::~basic_string<char,std::char_traits<char>,std::allocator<char> >
__ehhandler$??0CTBLCashShopItem@@QAE@PAVCSqlDatabase@@V?$basic_string@DU?$char_traits@D@std@@V?$allocator@D@2@@std@@@Z:
  00008	b8 00 00 00 00	 mov	 eax, OFFSET FLAT:$T90912
  0000d	e9 00 00 00 00	 jmp	 ___CxxFrameHandler
text$x	ENDS
??0CTBLCashShopItem@@QAE@PAVCSqlDatabase@@V?$basic_string@DU?$char_traits@D@std@@V?$allocator@D@2@@std@@@Z ENDP ; CTBLCashShopItem::CTBLCashShopItem
; Function compile flags: /Ogty
;	COMDAT ?GetNumCol@CTBLCashShopItem@@UAEHXZ
_TEXT	SEGMENT
?GetNumCol@CTBLCashShopItem@@UAEHXZ PROC NEAR		; CTBLCashShopItem::GetNumCol, COMDAT
; _this$ = ecx

; 194  : BEGIN_COLUMN(2)

  00000	b8 02 00 00 00	 mov	 eax, 2
  00005	c3		 ret	 0
?GetNumCol@CTBLCashShopItem@@UAEHXZ ENDP		; CTBLCashShopItem::GetNumCol
; Function compile flags: /Ogty
_TEXT	ENDS
;	COMDAT ?BindColumns@CTBLCashShopItem@@UAEFXZ
_TEXT	SEGMENT
?BindColumns@CTBLCashShopItem@@UAEFXZ PROC NEAR		; CTBLCashShopItem::BindColumns, COMDAT
; _this$ = ecx

; 194  : BEGIN_COLUMN(2)

  00000	56		 push	 esi
  00001	8b f1		 mov	 esi, ecx

; 195  : 	COLUMN_ENTRY(m_wID)

  00003	8d 86 2c 0c 00
	00		 lea	 eax, DWORD PTR [esi+3116]
  00009	50		 push	 eax
  0000a	6a 01		 push	 1
  0000c	e8 00 00 00 00	 call	 ?BindCol@CSqlBase@@QAEFFPAG@Z ; CSqlBase::BindCol
  00011	66 85 c0	 test	 ax, ax
  00014	74 06		 je	 SHORT $L83724
  00016	66 3d 01 00	 cmp	 ax, 1
  0001a	75 12		 jne	 SHORT $L83720
$L83724:

; 196  : 	COLUMN_ENTRY_STR(m_szName)

  0001c	6a 33		 push	 51			; 00000033H
  0001e	8d 8e 2e 0c 00
	00		 lea	 ecx, DWORD PTR [esi+3118]
  00024	51		 push	 ecx
  00025	6a 02		 push	 2
  00027	8b ce		 mov	 ecx, esi
  00029	e8 00 00 00 00	 call	 ?BindColStr@CSqlBase@@QAEFFPADJ@Z ; CSqlBase::BindColStr
$L83720:
  0002e	5e		 pop	 esi

; 197  : END_COL()

  0002f	c3		 ret	 0
?BindColumns@CTBLCashShopItem@@UAEFXZ ENDP		; CTBLCashShopItem::BindColumns
_TEXT	ENDS
PUBLIC	??1CTBLCashShopItem@@UAE@XZ			; CTBLCashShopItem::~CTBLCashShopItem
; Function compile flags: /Ogty
;	COMDAT ??_GCTBLCashShopItem@@UAEPAXI@Z
_TEXT	SEGMENT
___flags$ = 8						; size = 4
??_GCTBLCashShopItem@@UAEPAXI@Z PROC NEAR		; CTBLCashShopItem::`scalar deleting destructor', COMDAT
; _this$ = ecx
  00000	56		 push	 esi
  00001	8b f1		 mov	 esi, ecx
  00003	e8 00 00 00 00	 call	 ??1CTBLCashShopItem@@UAE@XZ
  00008	f6 44 24 08 01	 test	 BYTE PTR ___flags$[esp], 1
  0000d	74 09		 je	 SHORT $L90927
  0000f	56		 push	 esi
  00010	e8 00 00 00 00	 call	 ??3@YAXPAX@Z		; operator delete
  00015	83 c4 04	 add	 esp, 4
$L90927:
  00018	8b c6		 mov	 eax, esi
  0001a	5e		 pop	 esi
  0001b	c2 04 00	 ret	 4
??_GCTBLCashShopItem@@UAEPAXI@Z ENDP			; CTBLCashShopItem::`scalar deleting destructor'
; Function compile flags: /Ogty
_TEXT	ENDS
;	COMDAT ??1CTBLCashShopItem@@UAE@XZ
_TEXT	SEGMENT
??1CTBLCashShopItem@@UAE@XZ PROC NEAR			; CTBLCashShopItem::~CTBLCashShopItem, COMDAT
; _this$ = ecx
  00000	e9 00 00 00 00	 jmp	 ??1CSqlQuery@@UAE@XZ	; CSqlQuery::~CSqlQuery
??1CTBLCashShopItem@@UAE@XZ ENDP			; CTBLCashShopItem::~CTBLCashShopItem
_TEXT	ENDS
PUBLIC	??0CTBLPreVersion@@QAE@PAVCSqlDatabase@@V?$basic_string@DU?$char_traits@D@std@@V?$allocator@D@2@@std@@@Z ; CTBLPreVersion::CTBLPreVersion
PUBLIC	?GetNumCol@CTBLPreVersion@@UAEHXZ		; CTBLPreVersion::GetNumCol
PUBLIC	?BindColumns@CTBLPreVersion@@UAEFXZ		; CTBLPreVersion::BindColumns
PUBLIC	??_7CTBLPreVersion@@6B@				; CTBLPreVersion::`vftable'
PUBLIC	??_GCTBLPreVersion@@UAEPAXI@Z			; CTBLPreVersion::`scalar deleting destructor'
PUBLIC	??_C@_0DK@EABOMOHI@SELECT?5dwBetaVer?0?5szPath?0?5szName@ ; `string'
EXTRN	??_ECTBLPreVersion@@UAEPAXI@Z:NEAR		; CTBLPreVersion::`vector deleting destructor'
;	COMDAT xdata$x
; File c:\program files (x86)\microsoft visual studio .net 2003\vc7\include\iosfwd
xdata$x	SEGMENT
$T91110	DD	0ffffffffH
	DD	FLAT:$L90936
$T91107	DD	019930520H
	DD	01H
	DD	FLAT:$T91110
	DD	2 DUP(00H)
	DD	2 DUP(00H)
xdata$x	ENDS
;	COMDAT ??_C@_0DK@EABOMOHI@SELECT?5dwBetaVer?0?5szPath?0?5szName@
CONST	SEGMENT
??_C@_0DK@EABOMOHI@SELECT?5dwBetaVer?0?5szPath?0?5szName@ DB 'SELECT dwBe'
	DB	'taVer, szPath, szName, dwSize FROM TPREVERSION', 00H ; `string'
CONST	ENDS
;	COMDAT ??_7CTBLPreVersion@@6B@
CONST	SEGMENT
??_7CTBLPreVersion@@6B@ DD FLAT:??_ECTBLPreVersion@@UAEPAXI@Z ; CTBLPreVersion::`vftable'
	DD	FLAT:?GetNumCol@CTBLPreVersion@@UAEHXZ
	DD	FLAT:?GetNumParam@CSqlBase@@UAEHXZ
	DD	FLAT:?AllocStatement@CSqlQuery@@UAEHXZ
	DD	FLAT:?BindColumns@CTBLPreVersion@@UAEFXZ
	DD	FLAT:?BindParameters@CSqlQuery@@UAEFH@Z
; Function compile flags: /Ogty
; File c:\users\pierr\desktop\4story - oldschool\sources\tserver\tcontrolsvr\dbaccess.h
CONST	ENDS
;	COMDAT ??0CTBLPreVersion@@QAE@PAVCSqlDatabase@@V?$basic_string@DU?$char_traits@D@std@@V?$allocator@D@2@@std@@@Z
_TEXT	SEGMENT
$T90935 = -16						; size = 4
__$EHRec$ = -12						; size = 12
_pdb$ = 8						; size = 4
_strKey$ = 12						; size = 28
??0CTBLPreVersion@@QAE@PAVCSqlDatabase@@V?$basic_string@DU?$char_traits@D@std@@V?$allocator@D@2@@std@@@Z PROC NEAR ; CTBLPreVersion::CTBLPreVersion, COMDAT
; _this$ = ecx

; 208  : DEF_QUERY(CTBLPreVersion, _T("SELECT dwBetaVer, szPath, szName, dwSize FROM TPREVERSION"))

  00000	6a ff		 push	 -1
  00002	68 00 00 00 00	 push	 __ehhandler$??0CTBLPreVersion@@QAE@PAVCSqlDatabase@@V?$basic_string@DU?$char_traits@D@std@@V?$allocator@D@2@@std@@@Z
  00007	64 a1 00 00 00
	00		 mov	 eax, DWORD PTR fs:__except_list
  0000d	50		 push	 eax
  0000e	64 89 25 00 00
	00 00		 mov	 DWORD PTR fs:__except_list, esp
  00015	51		 push	 ecx
  00016	56		 push	 esi
  00017	8b f1		 mov	 esi, ecx
  00019	68 00 00 00 00	 push	 OFFSET FLAT:??_C@_0DK@EABOMOHI@SELECT?5dwBetaVer?0?5szPath?0?5szName@
  0001e	83 ec 1c	 sub	 esp, 28			; 0000001cH
  00021	8b cc		 mov	 ecx, esp
  00023	33 c0		 xor	 eax, eax
  00025	89 64 24 24	 mov	 DWORD PTR $T90935[esp+52], esp
  00029	6a ff		 push	 -1
  0002b	89 41 14	 mov	 DWORD PTR [ecx+20], eax
  0002e	c7 41 18 0f 00
	00 00		 mov	 DWORD PTR [ecx+24], 15	; 0000000fH
  00035	50		 push	 eax
  00036	89 44 24 38	 mov	 DWORD PTR __$EHRec$[esp+68], eax
  0003a	88 41 04	 mov	 BYTE PTR [ecx+4], al
  0003d	8d 44 24 44	 lea	 eax, DWORD PTR _strKey$[esp+56]
  00041	50		 push	 eax
  00042	e8 00 00 00 00	 call	 ?assign@?$basic_string@DU?$char_traits@D@std@@V?$allocator@D@2@@std@@QAEAAV12@ABV12@II@Z ; std::basic_string<char,std::char_traits<char>,std::allocator<char> >::assign
  00047	8b 4c 24 38	 mov	 ecx, DWORD PTR _pdb$[esp+48]
  0004b	51		 push	 ecx
  0004c	8b ce		 mov	 ecx, esi
  0004e	e8 00 00 00 00	 call	 ??0CSqlQuery@@QAE@PAVCSqlDatabase@@V?$basic_string@DU?$char_traits@D@std@@V?$allocator@D@2@@std@@PBD@Z ; CSqlQuery::CSqlQuery
  00053	83 7c 24 34 10	 cmp	 DWORD PTR _strKey$[esp+40], 16 ; 00000010H
  00058	c7 06 00 00 00
	00		 mov	 DWORD PTR [esi], OFFSET FLAT:??_7CTBLPreVersion@@6B@
  0005e	72 0d		 jb	 SHORT $L91108
  00060	8b 54 24 20	 mov	 edx, DWORD PTR _strKey$[esp+20]
  00064	52		 push	 edx
  00065	e8 00 00 00 00	 call	 ??3@YAXPAX@Z		; operator delete
  0006a	83 c4 04	 add	 esp, 4
$L91108:
  0006d	8b 4c 24 08	 mov	 ecx, DWORD PTR __$EHRec$[esp+20]
  00071	8b c6		 mov	 eax, esi
  00073	64 89 0d 00 00
	00 00		 mov	 DWORD PTR fs:__except_list, ecx
  0007a	5e		 pop	 esi
  0007b	83 c4 10	 add	 esp, 16			; 00000010H
  0007e	c2 20 00	 ret	 32			; 00000020H
_TEXT	ENDS
;	COMDAT text$x
text$x	SEGMENT
$L90936:
  00000	8d 4d 08	 lea	 ecx, DWORD PTR _strKey$[ebp-4]
  00003	e9 00 00 00 00	 jmp	 ??1?$basic_string@DU?$char_traits@D@std@@V?$allocator@D@2@@std@@QAE@XZ ; std::basic_string<char,std::char_traits<char>,std::allocator<char> >::~basic_string<char,std::char_traits<char>,std::allocator<char> >
__ehhandler$??0CTBLPreVersion@@QAE@PAVCSqlDatabase@@V?$basic_string@DU?$char_traits@D@std@@V?$allocator@D@2@@std@@@Z:
  00008	b8 00 00 00 00	 mov	 eax, OFFSET FLAT:$T91107
  0000d	e9 00 00 00 00	 jmp	 ___CxxFrameHandler
text$x	ENDS
??0CTBLPreVersion@@QAE@PAVCSqlDatabase@@V?$basic_string@DU?$char_traits@D@std@@V?$allocator@D@2@@std@@@Z ENDP ; CTBLPreVersion::CTBLPreVersion
; Function compile flags: /Ogty
;	COMDAT ?GetNumCol@CTBLPreVersion@@UAEHXZ
_TEXT	SEGMENT
?GetNumCol@CTBLPreVersion@@UAEHXZ PROC NEAR		; CTBLPreVersion::GetNumCol, COMDAT
; _this$ = ecx

; 210  : BEGIN_COLUMN(4)

  00000	b8 04 00 00 00	 mov	 eax, 4
  00005	c3		 ret	 0
?GetNumCol@CTBLPreVersion@@UAEHXZ ENDP			; CTBLPreVersion::GetNumCol
; Function compile flags: /Ogty
_TEXT	ENDS
;	COMDAT ?BindColumns@CTBLPreVersion@@UAEFXZ
_TEXT	SEGMENT
?BindColumns@CTBLPreVersion@@UAEFXZ PROC NEAR		; CTBLPreVersion::BindColumns, COMDAT
; _this$ = ecx

; 210  : BEGIN_COLUMN(4)

  00000	56		 push	 esi
  00001	8b f1		 mov	 esi, ecx

; 211  : 	COLUMN_ENTRY(m_dwBetaVer)

  00003	8d 86 2c 0c 00
	00		 lea	 eax, DWORD PTR [esi+3116]
  00009	50		 push	 eax
  0000a	6a 01		 push	 1
  0000c	e8 00 00 00 00	 call	 ?BindCol@CSqlBase@@QAEFFPAK@Z ; CSqlBase::BindCol
  00011	66 85 c0	 test	 ax, ax
  00014	74 06		 je	 SHORT $L83769
  00016	66 3d 01 00	 cmp	 ax, 1
  0001a	75 4a		 jne	 SHORT $L83765
$L83769:

; 212  : 	COLUMN_ENTRY_STR(m_szPath)

  0001c	6a 64		 push	 100			; 00000064H
  0001e	8d 8e 30 0c 00
	00		 lea	 ecx, DWORD PTR [esi+3120]
  00024	51		 push	 ecx
  00025	6a 02		 push	 2
  00027	8b ce		 mov	 ecx, esi
  00029	e8 00 00 00 00	 call	 ?BindColStr@CSqlBase@@QAEFFPADJ@Z ; CSqlBase::BindColStr
  0002e	66 85 c0	 test	 ax, ax
  00031	74 06		 je	 SHORT $L83770
  00033	66 3d 01 00	 cmp	 ax, 1
  00037	75 2d		 jne	 SHORT $L83765
$L83770:

; 213  : 	COLUMN_ENTRY_STR(m_szName)

  00039	6a 33		 push	 51			; 00000033H
  0003b	8d 96 94 0c 00
	00		 lea	 edx, DWORD PTR [esi+3220]
  00041	52		 push	 edx
  00042	6a 03		 push	 3
  00044	8b ce		 mov	 ecx, esi
  00046	e8 00 00 00 00	 call	 ?BindColStr@CSqlBase@@QAEFFPADJ@Z ; CSqlBase::BindColStr
  0004b	66 85 c0	 test	 ax, ax
  0004e	74 06		 je	 SHORT $L83771
  00050	66 3d 01 00	 cmp	 ax, 1
  00054	75 10		 jne	 SHORT $L83765
$L83771:

; 214  : 	COLUMN_ENTRY(m_dwSize)

  00056	8d 86 c8 0c 00
	00		 lea	 eax, DWORD PTR [esi+3272]
  0005c	50		 push	 eax
  0005d	6a 04		 push	 4
  0005f	8b ce		 mov	 ecx, esi
  00061	e8 00 00 00 00	 call	 ?BindCol@CSqlBase@@QAEFFPAK@Z ; CSqlBase::BindCol
$L83765:
  00066	5e		 pop	 esi

; 215  : END_COL()

  00067	c3		 ret	 0
?BindColumns@CTBLPreVersion@@UAEFXZ ENDP		; CTBLPreVersion::BindColumns
_TEXT	ENDS
PUBLIC	??1CTBLPreVersion@@UAE@XZ			; CTBLPreVersion::~CTBLPreVersion
; Function compile flags: /Ogty
;	COMDAT ??_GCTBLPreVersion@@UAEPAXI@Z
_TEXT	SEGMENT
___flags$ = 8						; size = 4
??_GCTBLPreVersion@@UAEPAXI@Z PROC NEAR			; CTBLPreVersion::`scalar deleting destructor', COMDAT
; _this$ = ecx
  00000	56		 push	 esi
  00001	8b f1		 mov	 esi, ecx
  00003	e8 00 00 00 00	 call	 ??1CTBLPreVersion@@UAE@XZ
  00008	f6 44 24 08 01	 test	 BYTE PTR ___flags$[esp], 1
  0000d	74 09		 je	 SHORT $L91122
  0000f	56		 push	 esi
  00010	e8 00 00 00 00	 call	 ??3@YAXPAX@Z		; operator delete
  00015	83 c4 04	 add	 esp, 4
$L91122:
  00018	8b c6		 mov	 eax, esi
  0001a	5e		 pop	 esi
  0001b	c2 04 00	 ret	 4
??_GCTBLPreVersion@@UAEPAXI@Z ENDP			; CTBLPreVersion::`scalar deleting destructor'
; Function compile flags: /Ogty
_TEXT	ENDS
;	COMDAT ??1CTBLPreVersion@@UAE@XZ
_TEXT	SEGMENT
??1CTBLPreVersion@@UAE@XZ PROC NEAR			; CTBLPreVersion::~CTBLPreVersion, COMDAT
; _this$ = ecx
  00000	e9 00 00 00 00	 jmp	 ??1CSqlQuery@@UAE@XZ	; CSqlQuery::~CSqlQuery
??1CTBLPreVersion@@UAE@XZ ENDP				; CTBLPreVersion::~CTBLPreVersion
_TEXT	ENDS
PUBLIC	??0CSPUpdatePatch@@QAE@PAVCSqlDatabase@@V?$basic_string@DU?$char_traits@D@std@@V?$allocator@D@2@@std@@@Z ; CSPUpdatePatch::CSPUpdatePatch
PUBLIC	?GetNumParam@CSPUpdatePatch@@UAEHXZ		; CSPUpdatePatch::GetNumParam
PUBLIC	?BindParameters@CSPUpdatePatch@@UAEFH@Z		; CSPUpdatePatch::BindParameters
PUBLIC	??_7CSPUpdatePatch@@6B@				; CSPUpdatePatch::`vftable'
PUBLIC	??_GCSPUpdatePatch@@UAEPAXI@Z			; CSPUpdatePatch::`scalar deleting destructor'
PUBLIC	??_C@_0CE@FBIFPNAM@?$HL?5?$DP?5?$DN?5CALL?5TUpdateVersion?$CI?$DP?0?$DP?0?$DP?0@ ; `string'
EXTRN	?GetNumCol@CSqlBase@@UAEHXZ:NEAR		; CSqlBase::GetNumCol
EXTRN	?BindColumns@CSqlQuery@@UAEFXZ:NEAR		; CSqlQuery::BindColumns
EXTRN	??_ECSPUpdatePatch@@UAEPAXI@Z:NEAR		; CSPUpdatePatch::`vector deleting destructor'
;	COMDAT xdata$x
; File c:\program files (x86)\microsoft visual studio .net 2003\vc7\include\iosfwd
xdata$x	SEGMENT
$T91305	DD	0ffffffffH
	DD	FLAT:$L91131
$T91302	DD	019930520H
	DD	01H
	DD	FLAT:$T91305
	DD	2 DUP(00H)
	DD	2 DUP(00H)
xdata$x	ENDS
;	COMDAT ??_C@_0CE@FBIFPNAM@?$HL?5?$DP?5?$DN?5CALL?5TUpdateVersion?$CI?$DP?0?$DP?0?$DP?0@
CONST	SEGMENT
??_C@_0CE@FBIFPNAM@?$HL?5?$DP?5?$DN?5CALL?5TUpdateVersion?$CI?$DP?0?$DP?0?$DP?0@ DB '{'
	DB	' ? = CALL TUpdateVersion(?,?,?,?)}', 00H	; `string'
CONST	ENDS
;	COMDAT ??_7CSPUpdatePatch@@6B@
CONST	SEGMENT
??_7CSPUpdatePatch@@6B@ DD FLAT:??_ECSPUpdatePatch@@UAEPAXI@Z ; CSPUpdatePatch::`vftable'
	DD	FLAT:?GetNumCol@CSqlBase@@UAEHXZ
	DD	FLAT:?GetNumParam@CSPUpdatePatch@@UAEHXZ
	DD	FLAT:?AllocStatement@CSqlQuery@@UAEHXZ
	DD	FLAT:?BindColumns@CSqlQuery@@UAEFXZ
	DD	FLAT:?BindParameters@CSPUpdatePatch@@UAEFH@Z
; Function compile flags: /Ogty
; File c:\users\pierr\desktop\4story - oldschool\sources\tserver\tcontrolsvr\dbaccess.h
CONST	ENDS
;	COMDAT ??0CSPUpdatePatch@@QAE@PAVCSqlDatabase@@V?$basic_string@DU?$char_traits@D@std@@V?$allocator@D@2@@std@@@Z
_TEXT	SEGMENT
$T91130 = -16						; size = 4
__$EHRec$ = -12						; size = 12
_pdb$ = 8						; size = 4
_strKey$ = 12						; size = 28
??0CSPUpdatePatch@@QAE@PAVCSqlDatabase@@V?$basic_string@DU?$char_traits@D@std@@V?$allocator@D@2@@std@@@Z PROC NEAR ; CSPUpdatePatch::CSPUpdatePatch, COMDAT
; _this$ = ecx

; 229  : DEF_QUERY(CSPUpdatePatch, _T("{ ? = CALL TUpdateVersion(?,?,?,?)}"))

  00000	6a ff		 push	 -1
  00002	68 00 00 00 00	 push	 __ehhandler$??0CSPUpdatePatch@@QAE@PAVCSqlDatabase@@V?$basic_string@DU?$char_traits@D@std@@V?$allocator@D@2@@std@@@Z
  00007	64 a1 00 00 00
	00		 mov	 eax, DWORD PTR fs:__except_list
  0000d	50		 push	 eax
  0000e	64 89 25 00 00
	00 00		 mov	 DWORD PTR fs:__except_list, esp
  00015	51		 push	 ecx
  00016	56		 push	 esi
  00017	8b f1		 mov	 esi, ecx
  00019	68 00 00 00 00	 push	 OFFSET FLAT:??_C@_0CE@FBIFPNAM@?$HL?5?$DP?5?$DN?5CALL?5TUpdateVersion?$CI?$DP?0?$DP?0?$DP?0@
  0001e	83 ec 1c	 sub	 esp, 28			; 0000001cH
  00021	8b cc		 mov	 ecx, esp
  00023	33 c0		 xor	 eax, eax
  00025	89 64 24 24	 mov	 DWORD PTR $T91130[esp+52], esp
  00029	6a ff		 push	 -1
  0002b	89 41 14	 mov	 DWORD PTR [ecx+20], eax
  0002e	c7 41 18 0f 00
	00 00		 mov	 DWORD PTR [ecx+24], 15	; 0000000fH
  00035	50		 push	 eax
  00036	89 44 24 38	 mov	 DWORD PTR __$EHRec$[esp+68], eax
  0003a	88 41 04	 mov	 BYTE PTR [ecx+4], al
  0003d	8d 44 24 44	 lea	 eax, DWORD PTR _strKey$[esp+56]
  00041	50		 push	 eax
  00042	e8 00 00 00 00	 call	 ?assign@?$basic_string@DU?$char_traits@D@std@@V?$allocator@D@2@@std@@QAEAAV12@ABV12@II@Z ; std::basic_string<char,std::char_traits<char>,std::allocator<char> >::assign
  00047	8b 4c 24 38	 mov	 ecx, DWORD PTR _pdb$[esp+48]
  0004b	51		 push	 ecx
  0004c	8b ce		 mov	 ecx, esi
  0004e	e8 00 00 00 00	 call	 ??0CSqlQuery@@QAE@PAVCSqlDatabase@@V?$basic_string@DU?$char_traits@D@std@@V?$allocator@D@2@@std@@PBD@Z ; CSqlQuery::CSqlQuery
  00053	83 7c 24 34 10	 cmp	 DWORD PTR _strKey$[esp+40], 16 ; 00000010H
  00058	c7 06 00 00 00
	00		 mov	 DWORD PTR [esi], OFFSET FLAT:??_7CSPUpdatePatch@@6B@
  0005e	72 0d		 jb	 SHORT $L91303
  00060	8b 54 24 20	 mov	 edx, DWORD PTR _strKey$[esp+20]
  00064	52		 push	 edx
  00065	e8 00 00 00 00	 call	 ??3@YAXPAX@Z		; operator delete
  0006a	83 c4 04	 add	 esp, 4
$L91303:
  0006d	8b 4c 24 08	 mov	 ecx, DWORD PTR __$EHRec$[esp+20]
  00071	8b c6		 mov	 eax, esi
  00073	64 89 0d 00 00
	00 00		 mov	 DWORD PTR fs:__except_list, ecx
  0007a	5e		 pop	 esi
  0007b	83 c4 10	 add	 esp, 16			; 00000010H
  0007e	c2 20 00	 ret	 32			; 00000020H
_TEXT	ENDS
;	COMDAT text$x
text$x	SEGMENT
$L91131:
  00000	8d 4d 08	 lea	 ecx, DWORD PTR _strKey$[ebp-4]
  00003	e9 00 00 00 00	 jmp	 ??1?$basic_string@DU?$char_traits@D@std@@V?$allocator@D@2@@std@@QAE@XZ ; std::basic_string<char,std::char_traits<char>,std::allocator<char> >::~basic_string<char,std::char_traits<char>,std::allocator<char> >
__ehhandler$??0CSPUpdatePatch@@QAE@PAVCSqlDatabase@@V?$basic_string@DU?$char_traits@D@std@@V?$allocator@D@2@@std@@@Z:
  00008	b8 00 00 00 00	 mov	 eax, OFFSET FLAT:$T91302
  0000d	e9 00 00 00 00	 jmp	 ___CxxFrameHandler
text$x	ENDS
??0CSPUpdatePatch@@QAE@PAVCSqlDatabase@@V?$basic_string@DU?$char_traits@D@std@@V?$allocator@D@2@@std@@@Z ENDP ; CSPUpdatePatch::CSPUpdatePatch
; Function compile flags: /Ogty
;	COMDAT ?GetNumParam@CSPUpdatePatch@@UAEHXZ
_TEXT	SEGMENT
?GetNumParam@CSPUpdatePatch@@UAEHXZ PROC NEAR		; CSPUpdatePatch::GetNumParam, COMDAT
; _this$ = ecx

; 231  : BEGIN_PARAM(5)

  00000	b8 05 00 00 00	 mov	 eax, 5
  00005	c3		 ret	 0
?GetNumParam@CSPUpdatePatch@@UAEHXZ ENDP		; CSPUpdatePatch::GetNumParam
_TEXT	ENDS
EXTRN	?BindParam@CSqlBase@@QAEFFFPAH@Z:NEAR		; CSqlBase::BindParam
EXTRN	?BindParam@CSqlBase@@QAEFFFPAK@Z:NEAR		; CSqlBase::BindParam
EXTRN	?BindParamStr@CSqlBase@@QAEFFFPADJ@Z:NEAR	; CSqlBase::BindParamStr
; Function compile flags: /Ogty
;	COMDAT ?BindParameters@CSPUpdatePatch@@UAEFH@Z
_TEXT	SEGMENT
_bRewind$ = 8						; size = 4
?BindParameters@CSPUpdatePatch@@UAEFH@Z PROC NEAR	; CSPUpdatePatch::BindParameters, COMDAT
; _this$ = ecx

; 231  : BEGIN_PARAM(5)

  00000	56		 push	 esi
  00001	57		 push	 edi

; 232  : 	PARAM_ENTRY(SQL_PARAM_OUTPUT, m_nRET)

  00002	8b 7c 24 0c	 mov	 edi, DWORD PTR _bRewind$[esp+4]
  00006	33 c0		 xor	 eax, eax
  00008	85 ff		 test	 edi, edi
  0000a	8b f1		 mov	 esi, ecx
  0000c	89 86 10 08 00
	00		 mov	 DWORD PTR [esi+2064], eax
  00012	75 1f		 jne	 SHORT $L83819
  00014	8d 86 2c 0c 00
	00		 lea	 eax, DWORD PTR [esi+3116]
  0001a	50		 push	 eax
  0001b	6a 01		 push	 1
  0001d	6a 04		 push	 4
  0001f	e8 00 00 00 00	 call	 ?BindParam@CSqlBase@@QAEFFFPAH@Z ; CSqlBase::BindParam
  00024	66 85 c0	 test	 ax, ax
  00027	74 0a		 je	 SHORT $L83819
  00029	66 3d 01 00	 cmp	 ax, 1
  0002d	0f 85 a5 00 00
	00		 jne	 $L83814
$L83819:

; 233  : 	PARAM_ENTRY_STR(SQL_PARAM_INPUT, m_szPath)

  00033	85 ff		 test	 edi, edi
  00035	c7 86 14 08 00
	00 fd ff ff ff	 mov	 DWORD PTR [esi+2068], -3 ; fffffffdH
  0003f	75 14		 jne	 SHORT $L83820
  00041	6a 64		 push	 100			; 00000064H
  00043	8d 8e 63 0c 00
	00		 lea	 ecx, DWORD PTR [esi+3171]
  00049	51		 push	 ecx
  0004a	6a 02		 push	 2
  0004c	6a 01		 push	 1
  0004e	8b ce		 mov	 ecx, esi
  00050	e8 00 00 00 00	 call	 ?BindParamStr@CSqlBase@@QAEFFFPADJ@Z ; CSqlBase::BindParamStr
$L83820:
  00055	66 85 c0	 test	 ax, ax
  00058	74 06		 je	 SHORT $L91314
  0005a	66 3d 01 00	 cmp	 ax, 1
  0005e	75 78		 jne	 SHORT $L83814
$L91314:

; 234  : 	PARAM_ENTRY_STR(SQL_PARAM_INPUT, m_szName)

  00060	85 ff		 test	 edi, edi
  00062	c7 86 18 08 00
	00 fd ff ff ff	 mov	 DWORD PTR [esi+2072], -3 ; fffffffdH
  0006c	75 14		 jne	 SHORT $L83822
  0006e	6a 33		 push	 51			; 00000033H
  00070	8d 96 30 0c 00
	00		 lea	 edx, DWORD PTR [esi+3120]
  00076	52		 push	 edx
  00077	6a 03		 push	 3
  00079	6a 01		 push	 1
  0007b	8b ce		 mov	 ecx, esi
  0007d	e8 00 00 00 00	 call	 ?BindParamStr@CSqlBase@@QAEFFFPADJ@Z ; CSqlBase::BindParamStr
$L83822:
  00082	66 85 c0	 test	 ax, ax
  00085	74 06		 je	 SHORT $L91315
  00087	66 3d 01 00	 cmp	 ax, 1
  0008b	75 4b		 jne	 SHORT $L83814
$L91315:

; 235  : 	PARAM_ENTRY(SQL_PARAM_INPUT, m_dwSize)	

  0008d	85 ff		 test	 edi, edi
  0008f	c7 86 1c 08 00
	00 00 00 00 00	 mov	 DWORD PTR [esi+2076], 0
  00099	75 12		 jne	 SHORT $L83824
  0009b	8d 86 c8 0c 00
	00		 lea	 eax, DWORD PTR [esi+3272]
  000a1	50		 push	 eax
  000a2	6a 04		 push	 4
  000a4	6a 01		 push	 1
  000a6	8b ce		 mov	 ecx, esi
  000a8	e8 00 00 00 00	 call	 ?BindParam@CSqlBase@@QAEFFFPAK@Z ; CSqlBase::BindParam
$L83824:
  000ad	66 85 c0	 test	 ax, ax
  000b0	74 06		 je	 SHORT $L91316
  000b2	66 3d 01 00	 cmp	 ax, 1
  000b6	75 20		 jne	 SHORT $L83814
$L91316:

; 236  : 	PARAM_ENTRY(SQL_PARAM_INPUT, m_dwBetaVer)	

  000b8	85 ff		 test	 edi, edi
  000ba	c7 86 20 08 00
	00 00 00 00 00	 mov	 DWORD PTR [esi+2080], 0
  000c4	75 12		 jne	 SHORT $L83814
  000c6	8d 8e cc 0c 00
	00		 lea	 ecx, DWORD PTR [esi+3276]
  000cc	51		 push	 ecx
  000cd	6a 05		 push	 5
  000cf	6a 01		 push	 1
  000d1	8b ce		 mov	 ecx, esi
  000d3	e8 00 00 00 00	 call	 ?BindParam@CSqlBase@@QAEFFFPAK@Z ; CSqlBase::BindParam
$L83814:
  000d8	5f		 pop	 edi
  000d9	5e		 pop	 esi

; 237  : END_PARAM()

  000da	c2 04 00	 ret	 4
?BindParameters@CSPUpdatePatch@@UAEFH@Z ENDP		; CSPUpdatePatch::BindParameters
_TEXT	ENDS
PUBLIC	??1CSPUpdatePatch@@UAE@XZ			; CSPUpdatePatch::~CSPUpdatePatch
; Function compile flags: /Ogty
;	COMDAT ??_GCSPUpdatePatch@@UAEPAXI@Z
_TEXT	SEGMENT
___flags$ = 8						; size = 4
??_GCSPUpdatePatch@@UAEPAXI@Z PROC NEAR			; CSPUpdatePatch::`scalar deleting destructor', COMDAT
; _this$ = ecx
  00000	56		 push	 esi
  00001	8b f1		 mov	 esi, ecx
  00003	e8 00 00 00 00	 call	 ??1CSPUpdatePatch@@UAE@XZ
  00008	f6 44 24 08 01	 test	 BYTE PTR ___flags$[esp], 1
  0000d	74 09		 je	 SHORT $L91320
  0000f	56		 push	 esi
  00010	e8 00 00 00 00	 call	 ??3@YAXPAX@Z		; operator delete
  00015	83 c4 04	 add	 esp, 4
$L91320:
  00018	8b c6		 mov	 eax, esi
  0001a	5e		 pop	 esi
  0001b	c2 04 00	 ret	 4
??_GCSPUpdatePatch@@UAEPAXI@Z ENDP			; CSPUpdatePatch::`scalar deleting destructor'
; Function compile flags: /Ogty
_TEXT	ENDS
;	COMDAT ??1CSPUpdatePatch@@UAE@XZ
_TEXT	SEGMENT
??1CSPUpdatePatch@@UAE@XZ PROC NEAR			; CSPUpdatePatch::~CSPUpdatePatch, COMDAT
; _this$ = ecx
  00000	e9 00 00 00 00	 jmp	 ??1CSqlQuery@@UAE@XZ	; CSqlQuery::~CSqlQuery
??1CSPUpdatePatch@@UAE@XZ ENDP				; CSPUpdatePatch::~CSPUpdatePatch
_TEXT	ENDS
PUBLIC	??0CSPUpdatePrePatch@@QAE@PAVCSqlDatabase@@V?$basic_string@DU?$char_traits@D@std@@V?$allocator@D@2@@std@@@Z ; CSPUpdatePrePatch::CSPUpdatePrePatch
PUBLIC	?GetNumParam@CSPUpdatePrePatch@@UAEHXZ		; CSPUpdatePrePatch::GetNumParam
PUBLIC	?BindParameters@CSPUpdatePrePatch@@UAEFH@Z	; CSPUpdatePrePatch::BindParameters
PUBLIC	??_7CSPUpdatePrePatch@@6B@			; CSPUpdatePrePatch::`vftable'
PUBLIC	??_GCSPUpdatePrePatch@@UAEPAXI@Z		; CSPUpdatePrePatch::`scalar deleting destructor'
PUBLIC	??_C@_0CF@GFEFIOGF@?$HL?5?$DP?5?$DN?5CALL?5TUpdatePreVersion?$CI?$DP?0?$DP@ ; `string'
EXTRN	??_ECSPUpdatePrePatch@@UAEPAXI@Z:NEAR		; CSPUpdatePrePatch::`vector deleting destructor'
;	COMDAT xdata$x
; File c:\program files (x86)\microsoft visual studio .net 2003\vc7\include\iosfwd
xdata$x	SEGMENT
$T91503	DD	0ffffffffH
	DD	FLAT:$L91329
$T91500	DD	019930520H
	DD	01H
	DD	FLAT:$T91503
	DD	2 DUP(00H)
	DD	2 DUP(00H)
xdata$x	ENDS
;	COMDAT ??_C@_0CF@GFEFIOGF@?$HL?5?$DP?5?$DN?5CALL?5TUpdatePreVersion?$CI?$DP?0?$DP@
CONST	SEGMENT
??_C@_0CF@GFEFIOGF@?$HL?5?$DP?5?$DN?5CALL?5TUpdatePreVersion?$CI?$DP?0?$DP@ DB '{'
	DB	' ? = CALL TUpdatePreVersion(?,?,?)}', 00H	; `string'
CONST	ENDS
;	COMDAT ??_7CSPUpdatePrePatch@@6B@
CONST	SEGMENT
??_7CSPUpdatePrePatch@@6B@ DD FLAT:??_ECSPUpdatePrePatch@@UAEPAXI@Z ; CSPUpdatePrePatch::`vftable'
	DD	FLAT:?GetNumCol@CSqlBase@@UAEHXZ
	DD	FLAT:?GetNumParam@CSPUpdatePrePatch@@UAEHXZ
	DD	FLAT:?AllocStatement@CSqlQuery@@UAEHXZ
	DD	FLAT:?BindColumns@CSqlQuery@@UAEFXZ
	DD	FLAT:?BindParameters@CSPUpdatePrePatch@@UAEFH@Z
; Function compile flags: /Ogty
; File c:\users\pierr\desktop\4story - oldschool\sources\tserver\tcontrolsvr\dbaccess.h
CONST	ENDS
;	COMDAT ??0CSPUpdatePrePatch@@QAE@PAVCSqlDatabase@@V?$basic_string@DU?$char_traits@D@std@@V?$allocator@D@2@@std@@@Z
_TEXT	SEGMENT
$T91328 = -16						; size = 4
__$EHRec$ = -12						; size = 12
_pdb$ = 8						; size = 4
_strKey$ = 12						; size = 28
??0CSPUpdatePrePatch@@QAE@PAVCSqlDatabase@@V?$basic_string@DU?$char_traits@D@std@@V?$allocator@D@2@@std@@@Z PROC NEAR ; CSPUpdatePrePatch::CSPUpdatePrePatch, COMDAT
; _this$ = ecx

; 249  : DEF_QUERY(CSPUpdatePrePatch, _T("{ ? = CALL TUpdatePreVersion(?,?,?)}"))

  00000	6a ff		 push	 -1
  00002	68 00 00 00 00	 push	 __ehhandler$??0CSPUpdatePrePatch@@QAE@PAVCSqlDatabase@@V?$basic_string@DU?$char_traits@D@std@@V?$allocator@D@2@@std@@@Z
  00007	64 a1 00 00 00
	00		 mov	 eax, DWORD PTR fs:__except_list
  0000d	50		 push	 eax
  0000e	64 89 25 00 00
	00 00		 mov	 DWORD PTR fs:__except_list, esp
  00015	51		 push	 ecx
  00016	56		 push	 esi
  00017	8b f1		 mov	 esi, ecx
  00019	68 00 00 00 00	 push	 OFFSET FLAT:??_C@_0CF@GFEFIOGF@?$HL?5?$DP?5?$DN?5CALL?5TUpdatePreVersion?$CI?$DP?0?$DP@
  0001e	83 ec 1c	 sub	 esp, 28			; 0000001cH
  00021	8b cc		 mov	 ecx, esp
  00023	33 c0		 xor	 eax, eax
  00025	89 64 24 24	 mov	 DWORD PTR $T91328[esp+52], esp
  00029	6a ff		 push	 -1
  0002b	89 41 14	 mov	 DWORD PTR [ecx+20], eax
  0002e	c7 41 18 0f 00
	00 00		 mov	 DWORD PTR [ecx+24], 15	; 0000000fH
  00035	50		 push	 eax
  00036	89 44 24 38	 mov	 DWORD PTR __$EHRec$[esp+68], eax
  0003a	88 41 04	 mov	 BYTE PTR [ecx+4], al
  0003d	8d 44 24 44	 lea	 eax, DWORD PTR _strKey$[esp+56]
  00041	50		 push	 eax
  00042	e8 00 00 00 00	 call	 ?assign@?$basic_string@DU?$char_traits@D@std@@V?$allocator@D@2@@std@@QAEAAV12@ABV12@II@Z ; std::basic_string<char,std::char_traits<char>,std::allocator<char> >::assign
  00047	8b 4c 24 38	 mov	 ecx, DWORD PTR _pdb$[esp+48]
  0004b	51		 push	 ecx
  0004c	8b ce		 mov	 ecx, esi
  0004e	e8 00 00 00 00	 call	 ??0CSqlQuery@@QAE@PAVCSqlDatabase@@V?$basic_string@DU?$char_traits@D@std@@V?$allocator@D@2@@std@@PBD@Z ; CSqlQuery::CSqlQuery
  00053	83 7c 24 34 10	 cmp	 DWORD PTR _strKey$[esp+40], 16 ; 00000010H
  00058	c7 06 00 00 00
	00		 mov	 DWORD PTR [esi], OFFSET FLAT:??_7CSPUpdatePrePatch@@6B@
  0005e	72 0d		 jb	 SHORT $L91501
  00060	8b 54 24 20	 mov	 edx, DWORD PTR _strKey$[esp+20]
  00064	52		 push	 edx
  00065	e8 00 00 00 00	 call	 ??3@YAXPAX@Z		; operator delete
  0006a	83 c4 04	 add	 esp, 4
$L91501:
  0006d	8b 4c 24 08	 mov	 ecx, DWORD PTR __$EHRec$[esp+20]
  00071	8b c6		 mov	 eax, esi
  00073	64 89 0d 00 00
	00 00		 mov	 DWORD PTR fs:__except_list, ecx
  0007a	5e		 pop	 esi
  0007b	83 c4 10	 add	 esp, 16			; 00000010H
  0007e	c2 20 00	 ret	 32			; 00000020H
_TEXT	ENDS
;	COMDAT text$x
text$x	SEGMENT
$L91329:
  00000	8d 4d 08	 lea	 ecx, DWORD PTR _strKey$[ebp-4]
  00003	e9 00 00 00 00	 jmp	 ??1?$basic_string@DU?$char_traits@D@std@@V?$allocator@D@2@@std@@QAE@XZ ; std::basic_string<char,std::char_traits<char>,std::allocator<char> >::~basic_string<char,std::char_traits<char>,std::allocator<char> >
__ehhandler$??0CSPUpdatePrePatch@@QAE@PAVCSqlDatabase@@V?$basic_string@DU?$char_traits@D@std@@V?$allocator@D@2@@std@@@Z:
  00008	b8 00 00 00 00	 mov	 eax, OFFSET FLAT:$T91500
  0000d	e9 00 00 00 00	 jmp	 ___CxxFrameHandler
text$x	ENDS
??0CSPUpdatePrePatch@@QAE@PAVCSqlDatabase@@V?$basic_string@DU?$char_traits@D@std@@V?$allocator@D@2@@std@@@Z ENDP ; CSPUpdatePrePatch::CSPUpdatePrePatch
; Function compile flags: /Ogty
;	COMDAT ?GetNumParam@CSPUpdatePrePatch@@UAEHXZ
_TEXT	SEGMENT
?GetNumParam@CSPUpdatePrePatch@@UAEHXZ PROC NEAR	; CSPUpdatePrePatch::GetNumParam, COMDAT
; _this$ = ecx

; 251  : BEGIN_PARAM(4)

  00000	b8 04 00 00 00	 mov	 eax, 4
  00005	c3		 ret	 0
?GetNumParam@CSPUpdatePrePatch@@UAEHXZ ENDP		; CSPUpdatePrePatch::GetNumParam
; Function compile flags: /Ogty
_TEXT	ENDS
;	COMDAT ?BindParameters@CSPUpdatePrePatch@@UAEFH@Z
_TEXT	SEGMENT
_bRewind$ = 8						; size = 4
?BindParameters@CSPUpdatePrePatch@@UAEFH@Z PROC NEAR	; CSPUpdatePrePatch::BindParameters, COMDAT
; _this$ = ecx

; 251  : BEGIN_PARAM(4)

  00000	56		 push	 esi
  00001	57		 push	 edi

; 252  : 	PARAM_ENTRY(SQL_PARAM_OUTPUT, m_nRET)

  00002	8b 7c 24 0c	 mov	 edi, DWORD PTR _bRewind$[esp+4]
  00006	33 c0		 xor	 eax, eax
  00008	85 ff		 test	 edi, edi
  0000a	8b f1		 mov	 esi, ecx
  0000c	89 86 10 08 00
	00		 mov	 DWORD PTR [esi+2064], eax
  00012	75 1b		 jne	 SHORT $L83873
  00014	8d 86 2c 0c 00
	00		 lea	 eax, DWORD PTR [esi+3116]
  0001a	50		 push	 eax
  0001b	6a 01		 push	 1
  0001d	6a 04		 push	 4
  0001f	e8 00 00 00 00	 call	 ?BindParam@CSqlBase@@QAEFFFPAH@Z ; CSqlBase::BindParam
  00024	66 85 c0	 test	 ax, ax
  00027	74 06		 je	 SHORT $L83873
  00029	66 3d 01 00	 cmp	 ax, 1
  0002d	75 7a		 jne	 SHORT $L83868
$L83873:

; 253  : 	PARAM_ENTRY_STR(SQL_PARAM_INPUT, m_szPath)

  0002f	85 ff		 test	 edi, edi
  00031	c7 86 14 08 00
	00 fd ff ff ff	 mov	 DWORD PTR [esi+2068], -3 ; fffffffdH
  0003b	75 14		 jne	 SHORT $L83874
  0003d	6a 64		 push	 100			; 00000064H
  0003f	8d 8e 63 0c 00
	00		 lea	 ecx, DWORD PTR [esi+3171]
  00045	51		 push	 ecx
  00046	6a 02		 push	 2
  00048	6a 01		 push	 1
  0004a	8b ce		 mov	 ecx, esi
  0004c	e8 00 00 00 00	 call	 ?BindParamStr@CSqlBase@@QAEFFFPADJ@Z ; CSqlBase::BindParamStr
$L83874:
  00051	66 85 c0	 test	 ax, ax
  00054	74 06		 je	 SHORT $L91512
  00056	66 3d 01 00	 cmp	 ax, 1
  0005a	75 4d		 jne	 SHORT $L83868
$L91512:

; 254  : 	PARAM_ENTRY_STR(SQL_PARAM_INPUT, m_szName)

  0005c	85 ff		 test	 edi, edi
  0005e	c7 86 18 08 00
	00 fd ff ff ff	 mov	 DWORD PTR [esi+2072], -3 ; fffffffdH
  00068	75 14		 jne	 SHORT $L83876
  0006a	6a 33		 push	 51			; 00000033H
  0006c	8d 96 30 0c 00
	00		 lea	 edx, DWORD PTR [esi+3120]
  00072	52		 push	 edx
  00073	6a 03		 push	 3
  00075	6a 01		 push	 1
  00077	8b ce		 mov	 ecx, esi
  00079	e8 00 00 00 00	 call	 ?BindParamStr@CSqlBase@@QAEFFFPADJ@Z ; CSqlBase::BindParamStr
$L83876:
  0007e	66 85 c0	 test	 ax, ax
  00081	74 06		 je	 SHORT $L91513
  00083	66 3d 01 00	 cmp	 ax, 1
  00087	75 20		 jne	 SHORT $L83868
$L91513:

; 255  : 	PARAM_ENTRY(SQL_PARAM_INPUT, m_dwSize)	

  00089	85 ff		 test	 edi, edi
  0008b	c7 86 1c 08 00
	00 00 00 00 00	 mov	 DWORD PTR [esi+2076], 0
  00095	75 12		 jne	 SHORT $L83868
  00097	8d 86 c8 0c 00
	00		 lea	 eax, DWORD PTR [esi+3272]
  0009d	50		 push	 eax
  0009e	6a 04		 push	 4
  000a0	6a 01		 push	 1
  000a2	8b ce		 mov	 ecx, esi
  000a4	e8 00 00 00 00	 call	 ?BindParam@CSqlBase@@QAEFFFPAK@Z ; CSqlBase::BindParam
$L83868:
  000a9	5f		 pop	 edi
  000aa	5e		 pop	 esi

; 256  : END_PARAM()

  000ab	c2 04 00	 ret	 4
?BindParameters@CSPUpdatePrePatch@@UAEFH@Z ENDP		; CSPUpdatePrePatch::BindParameters
_TEXT	ENDS
PUBLIC	??1CSPUpdatePrePatch@@UAE@XZ			; CSPUpdatePrePatch::~CSPUpdatePrePatch
; Function compile flags: /Ogty
;	COMDAT ??_GCSPUpdatePrePatch@@UAEPAXI@Z
_TEXT	SEGMENT
___flags$ = 8						; size = 4
??_GCSPUpdatePrePatch@@UAEPAXI@Z PROC NEAR		; CSPUpdatePrePatch::`scalar deleting destructor', COMDAT
; _this$ = ecx
  00000	56		 push	 esi
  00001	8b f1		 mov	 esi, ecx
  00003	e8 00 00 00 00	 call	 ??1CSPUpdatePrePatch@@UAE@XZ
  00008	f6 44 24 08 01	 test	 BYTE PTR ___flags$[esp], 1
  0000d	74 09		 je	 SHORT $L91517
  0000f	56		 push	 esi
  00010	e8 00 00 00 00	 call	 ??3@YAXPAX@Z		; operator delete
  00015	83 c4 04	 add	 esp, 4
$L91517:
  00018	8b c6		 mov	 eax, esi
  0001a	5e		 pop	 esi
  0001b	c2 04 00	 ret	 4
??_GCSPUpdatePrePatch@@UAEPAXI@Z ENDP			; CSPUpdatePrePatch::`scalar deleting destructor'
; Function compile flags: /Ogty
_TEXT	ENDS
;	COMDAT ??1CSPUpdatePrePatch@@UAE@XZ
_TEXT	SEGMENT
??1CSPUpdatePrePatch@@UAE@XZ PROC NEAR			; CSPUpdatePrePatch::~CSPUpdatePrePatch, COMDAT
; _this$ = ecx
  00000	e9 00 00 00 00	 jmp	 ??1CSqlQuery@@UAE@XZ	; CSqlQuery::~CSqlQuery
??1CSPUpdatePrePatch@@UAE@XZ ENDP			; CSPUpdatePrePatch::~CSPUpdatePrePatch
_TEXT	ENDS
PUBLIC	??0CSPBetaToVer@@QAE@PAVCSqlDatabase@@V?$basic_string@DU?$char_traits@D@std@@V?$allocator@D@2@@std@@@Z ; CSPBetaToVer::CSPBetaToVer
PUBLIC	?GetNumParam@CSPBetaToVer@@UAEHXZ		; CSPBetaToVer::GetNumParam
PUBLIC	?BindParameters@CSPBetaToVer@@UAEFH@Z		; CSPBetaToVer::BindParameters
PUBLIC	??_7CSPBetaToVer@@6B@				; CSPBetaToVer::`vftable'
PUBLIC	??_GCSPBetaToVer@@UAEPAXI@Z			; CSPBetaToVer::`scalar deleting destructor'
PUBLIC	??_C@_0BO@IKNPNFPF@?$HL?5?$DP?5?$DN?5CALL?5TBetaToVersion?$CI?$DP?$CJ?$HN?$AA@ ; `string'
EXTRN	??_ECSPBetaToVer@@UAEPAXI@Z:NEAR		; CSPBetaToVer::`vector deleting destructor'
;	COMDAT xdata$x
; File c:\program files (x86)\microsoft visual studio .net 2003\vc7\include\iosfwd
xdata$x	SEGMENT
$T91700	DD	0ffffffffH
	DD	FLAT:$L91526
$T91697	DD	019930520H
	DD	01H
	DD	FLAT:$T91700
	DD	2 DUP(00H)
	DD	2 DUP(00H)
xdata$x	ENDS
;	COMDAT ??_C@_0BO@IKNPNFPF@?$HL?5?$DP?5?$DN?5CALL?5TBetaToVersion?$CI?$DP?$CJ?$HN?$AA@
CONST	SEGMENT
??_C@_0BO@IKNPNFPF@?$HL?5?$DP?5?$DN?5CALL?5TBetaToVersion?$CI?$DP?$CJ?$HN?$AA@ DB '{'
	DB	' ? = CALL TBetaToVersion(?)}', 00H		; `string'
CONST	ENDS
;	COMDAT ??_7CSPBetaToVer@@6B@
CONST	SEGMENT
??_7CSPBetaToVer@@6B@ DD FLAT:??_ECSPBetaToVer@@UAEPAXI@Z ; CSPBetaToVer::`vftable'
	DD	FLAT:?GetNumCol@CSqlBase@@UAEHXZ
	DD	FLAT:?GetNumParam@CSPBetaToVer@@UAEHXZ
	DD	FLAT:?AllocStatement@CSqlQuery@@UAEHXZ
	DD	FLAT:?BindColumns@CSqlQuery@@UAEFXZ
	DD	FLAT:?BindParameters@CSPBetaToVer@@UAEFH@Z
; Function compile flags: /Ogty
; File c:\users\pierr\desktop\4story - oldschool\sources\tserver\tcontrolsvr\dbaccess.h
CONST	ENDS
;	COMDAT ??0CSPBetaToVer@@QAE@PAVCSqlDatabase@@V?$basic_string@DU?$char_traits@D@std@@V?$allocator@D@2@@std@@@Z
_TEXT	SEGMENT
$T91525 = -16						; size = 4
__$EHRec$ = -12						; size = 12
_pdb$ = 8						; size = 4
_strKey$ = 12						; size = 28
??0CSPBetaToVer@@QAE@PAVCSqlDatabase@@V?$basic_string@DU?$char_traits@D@std@@V?$allocator@D@2@@std@@@Z PROC NEAR ; CSPBetaToVer::CSPBetaToVer, COMDAT
; _this$ = ecx

; 265  : DEF_QUERY(CSPBetaToVer, _T("{ ? = CALL TBetaToVersion(?)}"))

  00000	6a ff		 push	 -1
  00002	68 00 00 00 00	 push	 __ehhandler$??0CSPBetaToVer@@QAE@PAVCSqlDatabase@@V?$basic_string@DU?$char_traits@D@std@@V?$allocator@D@2@@std@@@Z
  00007	64 a1 00 00 00
	00		 mov	 eax, DWORD PTR fs:__except_list
  0000d	50		 push	 eax
  0000e	64 89 25 00 00
	00 00		 mov	 DWORD PTR fs:__except_list, esp
  00015	51		 push	 ecx
  00016	56		 push	 esi
  00017	8b f1		 mov	 esi, ecx
  00019	68 00 00 00 00	 push	 OFFSET FLAT:??_C@_0BO@IKNPNFPF@?$HL?5?$DP?5?$DN?5CALL?5TBetaToVersion?$CI?$DP?$CJ?$HN?$AA@
  0001e	83 ec 1c	 sub	 esp, 28			; 0000001cH
  00021	8b cc		 mov	 ecx, esp
  00023	33 c0		 xor	 eax, eax
  00025	89 64 24 24	 mov	 DWORD PTR $T91525[esp+52], esp
  00029	6a ff		 push	 -1
  0002b	89 41 14	 mov	 DWORD PTR [ecx+20], eax
  0002e	c7 41 18 0f 00
	00 00		 mov	 DWORD PTR [ecx+24], 15	; 0000000fH
  00035	50		 push	 eax
  00036	89 44 24 38	 mov	 DWORD PTR __$EHRec$[esp+68], eax
  0003a	88 41 04	 mov	 BYTE PTR [ecx+4], al
  0003d	8d 44 24 44	 lea	 eax, DWORD PTR _strKey$[esp+56]
  00041	50		 push	 eax
  00042	e8 00 00 00 00	 call	 ?assign@?$basic_string@DU?$char_traits@D@std@@V?$allocator@D@2@@std@@QAEAAV12@ABV12@II@Z ; std::basic_string<char,std::char_traits<char>,std::allocator<char> >::assign
  00047	8b 4c 24 38	 mov	 ecx, DWORD PTR _pdb$[esp+48]
  0004b	51		 push	 ecx
  0004c	8b ce		 mov	 ecx, esi
  0004e	e8 00 00 00 00	 call	 ??0CSqlQuery@@QAE@PAVCSqlDatabase@@V?$basic_string@DU?$char_traits@D@std@@V?$allocator@D@2@@std@@PBD@Z ; CSqlQuery::CSqlQuery
  00053	83 7c 24 34 10	 cmp	 DWORD PTR _strKey$[esp+40], 16 ; 00000010H
  00058	c7 06 00 00 00
	00		 mov	 DWORD PTR [esi], OFFSET FLAT:??_7CSPBetaToVer@@6B@
  0005e	72 0d		 jb	 SHORT $L91698
  00060	8b 54 24 20	 mov	 edx, DWORD PTR _strKey$[esp+20]
  00064	52		 push	 edx
  00065	e8 00 00 00 00	 call	 ??3@YAXPAX@Z		; operator delete
  0006a	83 c4 04	 add	 esp, 4
$L91698:
  0006d	8b 4c 24 08	 mov	 ecx, DWORD PTR __$EHRec$[esp+20]
  00071	8b c6		 mov	 eax, esi
  00073	64 89 0d 00 00
	00 00		 mov	 DWORD PTR fs:__except_list, ecx
  0007a	5e		 pop	 esi
  0007b	83 c4 10	 add	 esp, 16			; 00000010H
  0007e	c2 20 00	 ret	 32			; 00000020H
_TEXT	ENDS
;	COMDAT text$x
text$x	SEGMENT
$L91526:
  00000	8d 4d 08	 lea	 ecx, DWORD PTR _strKey$[ebp-4]
  00003	e9 00 00 00 00	 jmp	 ??1?$basic_string@DU?$char_traits@D@std@@V?$allocator@D@2@@std@@QAE@XZ ; std::basic_string<char,std::char_traits<char>,std::allocator<char> >::~basic_string<char,std::char_traits<char>,std::allocator<char> >
__ehhandler$??0CSPBetaToVer@@QAE@PAVCSqlDatabase@@V?$basic_string@DU?$char_traits@D@std@@V?$allocator@D@2@@std@@@Z:
  00008	b8 00 00 00 00	 mov	 eax, OFFSET FLAT:$T91697
  0000d	e9 00 00 00 00	 jmp	 ___CxxFrameHandler
text$x	ENDS
??0CSPBetaToVer@@QAE@PAVCSqlDatabase@@V?$basic_string@DU?$char_traits@D@std@@V?$allocator@D@2@@std@@@Z ENDP ; CSPBetaToVer::CSPBetaToVer
; Function compile flags: /Ogty
;	COMDAT ?GetNumParam@CSPBetaToVer@@UAEHXZ
_TEXT	SEGMENT
?GetNumParam@CSPBetaToVer@@UAEHXZ PROC NEAR		; CSPBetaToVer::GetNumParam, COMDAT
; _this$ = ecx

; 267  : BEGIN_PARAM(2)

  00000	b8 02 00 00 00	 mov	 eax, 2
  00005	c3		 ret	 0
?GetNumParam@CSPBetaToVer@@UAEHXZ ENDP			; CSPBetaToVer::GetNumParam
; Function compile flags: /Ogty
_TEXT	ENDS
;	COMDAT ?BindParameters@CSPBetaToVer@@UAEFH@Z
_TEXT	SEGMENT
_bRewind$ = 8						; size = 4
?BindParameters@CSPBetaToVer@@UAEFH@Z PROC NEAR		; CSPBetaToVer::BindParameters, COMDAT
; _this$ = ecx

; 267  : BEGIN_PARAM(2)

  00000	56		 push	 esi
  00001	57		 push	 edi

; 268  : 	PARAM_ENTRY(SQL_PARAM_OUTPUT, m_nRET)

  00002	8b 7c 24 0c	 mov	 edi, DWORD PTR _bRewind$[esp+4]
  00006	33 c0		 xor	 eax, eax
  00008	85 ff		 test	 edi, edi
  0000a	8b f1		 mov	 esi, ecx
  0000c	89 86 10 08 00
	00		 mov	 DWORD PTR [esi+2064], eax
  00012	75 1b		 jne	 SHORT $L83923
  00014	8d 86 2c 0c 00
	00		 lea	 eax, DWORD PTR [esi+3116]
  0001a	50		 push	 eax
  0001b	6a 01		 push	 1
  0001d	6a 04		 push	 4
  0001f	e8 00 00 00 00	 call	 ?BindParam@CSqlBase@@QAEFFFPAH@Z ; CSqlBase::BindParam
  00024	66 85 c0	 test	 ax, ax
  00027	74 06		 je	 SHORT $L83923
  00029	66 3d 01 00	 cmp	 ax, 1
  0002d	75 20		 jne	 SHORT $L83918
$L83923:

; 269  : 	PARAM_ENTRY(SQL_PARAM_INPUT, m_dwBetaVer)	

  0002f	85 ff		 test	 edi, edi
  00031	c7 86 14 08 00
	00 00 00 00 00	 mov	 DWORD PTR [esi+2068], 0
  0003b	75 12		 jne	 SHORT $L83918
  0003d	8d 8e 30 0c 00
	00		 lea	 ecx, DWORD PTR [esi+3120]
  00043	51		 push	 ecx
  00044	6a 02		 push	 2
  00046	6a 01		 push	 1
  00048	8b ce		 mov	 ecx, esi
  0004a	e8 00 00 00 00	 call	 ?BindParam@CSqlBase@@QAEFFFPAK@Z ; CSqlBase::BindParam
$L83918:
  0004f	5f		 pop	 edi
  00050	5e		 pop	 esi

; 270  : END_PARAM()

  00051	c2 04 00	 ret	 4
?BindParameters@CSPBetaToVer@@UAEFH@Z ENDP		; CSPBetaToVer::BindParameters
_TEXT	ENDS
PUBLIC	??1CSPBetaToVer@@UAE@XZ				; CSPBetaToVer::~CSPBetaToVer
; Function compile flags: /Ogty
;	COMDAT ??_GCSPBetaToVer@@UAEPAXI@Z
_TEXT	SEGMENT
___flags$ = 8						; size = 4
??_GCSPBetaToVer@@UAEPAXI@Z PROC NEAR			; CSPBetaToVer::`scalar deleting destructor', COMDAT
; _this$ = ecx
  00000	56		 push	 esi
  00001	8b f1		 mov	 esi, ecx
  00003	e8 00 00 00 00	 call	 ??1CSPBetaToVer@@UAE@XZ
  00008	f6 44 24 08 01	 test	 BYTE PTR ___flags$[esp], 1
  0000d	74 09		 je	 SHORT $L91712
  0000f	56		 push	 esi
  00010	e8 00 00 00 00	 call	 ??3@YAXPAX@Z		; operator delete
  00015	83 c4 04	 add	 esp, 4
$L91712:
  00018	8b c6		 mov	 eax, esi
  0001a	5e		 pop	 esi
  0001b	c2 04 00	 ret	 4
??_GCSPBetaToVer@@UAEPAXI@Z ENDP			; CSPBetaToVer::`scalar deleting destructor'
; Function compile flags: /Ogty
_TEXT	ENDS
;	COMDAT ??1CSPBetaToVer@@UAE@XZ
_TEXT	SEGMENT
??1CSPBetaToVer@@UAE@XZ PROC NEAR			; CSPBetaToVer::~CSPBetaToVer, COMDAT
; _this$ = ecx
  00000	e9 00 00 00 00	 jmp	 ??1CSqlQuery@@UAE@XZ	; CSqlQuery::~CSqlQuery
??1CSPBetaToVer@@UAE@XZ ENDP				; CSPBetaToVer::~CSPBetaToVer
_TEXT	ENDS
PUBLIC	??0CSPDeletePreVersion@@QAE@PAVCSqlDatabase@@V?$basic_string@DU?$char_traits@D@std@@V?$allocator@D@2@@std@@@Z ; CSPDeletePreVersion::CSPDeletePreVersion
PUBLIC	?GetNumParam@CSPDeletePreVersion@@UAEHXZ	; CSPDeletePreVersion::GetNumParam
PUBLIC	?BindParameters@CSPDeletePreVersion@@UAEFH@Z	; CSPDeletePreVersion::BindParameters
PUBLIC	??_7CSPDeletePreVersion@@6B@			; CSPDeletePreVersion::`vftable'
PUBLIC	??_GCSPDeletePreVersion@@UAEPAXI@Z		; CSPDeletePreVersion::`scalar deleting destructor'
PUBLIC	??_C@_0CB@KIOFIDDC@?$HL?5?$DP?5?$DN?5CALL?5TDeletePreVersion?$CI?$DP?$CJ?$HN@ ; `string'
EXTRN	??_ECSPDeletePreVersion@@UAEPAXI@Z:NEAR		; CSPDeletePreVersion::`vector deleting destructor'
;	COMDAT xdata$x
; File c:\program files (x86)\microsoft visual studio .net 2003\vc7\include\iosfwd
xdata$x	SEGMENT
$T91895	DD	0ffffffffH
	DD	FLAT:$L91721
$T91892	DD	019930520H
	DD	01H
	DD	FLAT:$T91895
	DD	2 DUP(00H)
	DD	2 DUP(00H)
xdata$x	ENDS
;	COMDAT ??_C@_0CB@KIOFIDDC@?$HL?5?$DP?5?$DN?5CALL?5TDeletePreVersion?$CI?$DP?$CJ?$HN@
CONST	SEGMENT
??_C@_0CB@KIOFIDDC@?$HL?5?$DP?5?$DN?5CALL?5TDeletePreVersion?$CI?$DP?$CJ?$HN@ DB '{'
	DB	' ? = CALL TDeletePreVersion(?)}', 00H	; `string'
CONST	ENDS
;	COMDAT ??_7CSPDeletePreVersion@@6B@
CONST	SEGMENT
??_7CSPDeletePreVersion@@6B@ DD FLAT:??_ECSPDeletePreVersion@@UAEPAXI@Z ; CSPDeletePreVersion::`vftable'
	DD	FLAT:?GetNumCol@CSqlBase@@UAEHXZ
	DD	FLAT:?GetNumParam@CSPDeletePreVersion@@UAEHXZ
	DD	FLAT:?AllocStatement@CSqlQuery@@UAEHXZ
	DD	FLAT:?BindColumns@CSqlQuery@@UAEFXZ
	DD	FLAT:?BindParameters@CSPDeletePreVersion@@UAEFH@Z
; Function compile flags: /Ogty
; File c:\users\pierr\desktop\4story - oldschool\sources\tserver\tcontrolsvr\dbaccess.h
CONST	ENDS
;	COMDAT ??0CSPDeletePreVersion@@QAE@PAVCSqlDatabase@@V?$basic_string@DU?$char_traits@D@std@@V?$allocator@D@2@@std@@@Z
_TEXT	SEGMENT
$T91720 = -16						; size = 4
__$EHRec$ = -12						; size = 12
_pdb$ = 8						; size = 4
_strKey$ = 12						; size = 28
??0CSPDeletePreVersion@@QAE@PAVCSqlDatabase@@V?$basic_string@DU?$char_traits@D@std@@V?$allocator@D@2@@std@@@Z PROC NEAR ; CSPDeletePreVersion::CSPDeletePreVersion, COMDAT
; _this$ = ecx

; 279  : DEF_QUERY(CSPDeletePreVersion, _T("{ ? = CALL TDeletePreVersion(?)}"))

  00000	6a ff		 push	 -1
  00002	68 00 00 00 00	 push	 __ehhandler$??0CSPDeletePreVersion@@QAE@PAVCSqlDatabase@@V?$basic_string@DU?$char_traits@D@std@@V?$allocator@D@2@@std@@@Z
  00007	64 a1 00 00 00
	00		 mov	 eax, DWORD PTR fs:__except_list
  0000d	50		 push	 eax
  0000e	64 89 25 00 00
	00 00		 mov	 DWORD PTR fs:__except_list, esp
  00015	51		 push	 ecx
  00016	56		 push	 esi
  00017	8b f1		 mov	 esi, ecx
  00019	68 00 00 00 00	 push	 OFFSET FLAT:??_C@_0CB@KIOFIDDC@?$HL?5?$DP?5?$DN?5CALL?5TDeletePreVersion?$CI?$DP?$CJ?$HN@
  0001e	83 ec 1c	 sub	 esp, 28			; 0000001cH
  00021	8b cc		 mov	 ecx, esp
  00023	33 c0		 xor	 eax, eax
  00025	89 64 24 24	 mov	 DWORD PTR $T91720[esp+52], esp
  00029	6a ff		 push	 -1
  0002b	89 41 14	 mov	 DWORD PTR [ecx+20], eax
  0002e	c7 41 18 0f 00
	00 00		 mov	 DWORD PTR [ecx+24], 15	; 0000000fH
  00035	50		 push	 eax
  00036	89 44 24 38	 mov	 DWORD PTR __$EHRec$[esp+68], eax
  0003a	88 41 04	 mov	 BYTE PTR [ecx+4], al
  0003d	8d 44 24 44	 lea	 eax, DWORD PTR _strKey$[esp+56]
  00041	50		 push	 eax
  00042	e8 00 00 00 00	 call	 ?assign@?$basic_string@DU?$char_traits@D@std@@V?$allocator@D@2@@std@@QAEAAV12@ABV12@II@Z ; std::basic_string<char,std::char_traits<char>,std::allocator<char> >::assign
  00047	8b 4c 24 38	 mov	 ecx, DWORD PTR _pdb$[esp+48]
  0004b	51		 push	 ecx
  0004c	8b ce		 mov	 ecx, esi
  0004e	e8 00 00 00 00	 call	 ??0CSqlQuery@@QAE@PAVCSqlDatabase@@V?$basic_string@DU?$char_traits@D@std@@V?$allocator@D@2@@std@@PBD@Z ; CSqlQuery::CSqlQuery
  00053	83 7c 24 34 10	 cmp	 DWORD PTR _strKey$[esp+40], 16 ; 00000010H
  00058	c7 06 00 00 00
	00		 mov	 DWORD PTR [esi], OFFSET FLAT:??_7CSPDeletePreVersion@@6B@
  0005e	72 0d		 jb	 SHORT $L91893
  00060	8b 54 24 20	 mov	 edx, DWORD PTR _strKey$[esp+20]
  00064	52		 push	 edx
  00065	e8 00 00 00 00	 call	 ??3@YAXPAX@Z		; operator delete
  0006a	83 c4 04	 add	 esp, 4
$L91893:
  0006d	8b 4c 24 08	 mov	 ecx, DWORD PTR __$EHRec$[esp+20]
  00071	8b c6		 mov	 eax, esi
  00073	64 89 0d 00 00
	00 00		 mov	 DWORD PTR fs:__except_list, ecx
  0007a	5e		 pop	 esi
  0007b	83 c4 10	 add	 esp, 16			; 00000010H
  0007e	c2 20 00	 ret	 32			; 00000020H
_TEXT	ENDS
;	COMDAT text$x
text$x	SEGMENT
$L91721:
  00000	8d 4d 08	 lea	 ecx, DWORD PTR _strKey$[ebp-4]
  00003	e9 00 00 00 00	 jmp	 ??1?$basic_string@DU?$char_traits@D@std@@V?$allocator@D@2@@std@@QAE@XZ ; std::basic_string<char,std::char_traits<char>,std::allocator<char> >::~basic_string<char,std::char_traits<char>,std::allocator<char> >
__ehhandler$??0CSPDeletePreVersion@@QAE@PAVCSqlDatabase@@V?$basic_string@DU?$char_traits@D@std@@V?$allocator@D@2@@std@@@Z:
  00008	b8 00 00 00 00	 mov	 eax, OFFSET FLAT:$T91892
  0000d	e9 00 00 00 00	 jmp	 ___CxxFrameHandler
text$x	ENDS
??0CSPDeletePreVersion@@QAE@PAVCSqlDatabase@@V?$basic_string@DU?$char_traits@D@std@@V?$allocator@D@2@@std@@@Z ENDP ; CSPDeletePreVersion::CSPDeletePreVersion
; Function compile flags: /Ogty
;	COMDAT ?GetNumParam@CSPDeletePreVersion@@UAEHXZ
_TEXT	SEGMENT
?GetNumParam@CSPDeletePreVersion@@UAEHXZ PROC NEAR	; CSPDeletePreVersion::GetNumParam, COMDAT
; _this$ = ecx

; 281  : BEGIN_PARAM(2)

  00000	b8 02 00 00 00	 mov	 eax, 2
  00005	c3		 ret	 0
?GetNumParam@CSPDeletePreVersion@@UAEHXZ ENDP		; CSPDeletePreVersion::GetNumParam
; Function compile flags: /Ogty
_TEXT	ENDS
;	COMDAT ?BindParameters@CSPDeletePreVersion@@UAEFH@Z
_TEXT	SEGMENT
_bRewind$ = 8						; size = 4
?BindParameters@CSPDeletePreVersion@@UAEFH@Z PROC NEAR	; CSPDeletePreVersion::BindParameters, COMDAT
; _this$ = ecx

; 281  : BEGIN_PARAM(2)

  00000	56		 push	 esi
  00001	57		 push	 edi

; 282  : 	PARAM_ENTRY(SQL_PARAM_OUTPUT, m_nRET)

  00002	8b 7c 24 0c	 mov	 edi, DWORD PTR _bRewind$[esp+4]
  00006	33 c0		 xor	 eax, eax
  00008	85 ff		 test	 edi, edi
  0000a	8b f1		 mov	 esi, ecx
  0000c	89 86 10 08 00
	00		 mov	 DWORD PTR [esi+2064], eax
  00012	75 1b		 jne	 SHORT $L83969
  00014	8d 86 2c 0c 00
	00		 lea	 eax, DWORD PTR [esi+3116]
  0001a	50		 push	 eax
  0001b	6a 01		 push	 1
  0001d	6a 04		 push	 4
  0001f	e8 00 00 00 00	 call	 ?BindParam@CSqlBase@@QAEFFFPAH@Z ; CSqlBase::BindParam
  00024	66 85 c0	 test	 ax, ax
  00027	74 06		 je	 SHORT $L83969
  00029	66 3d 01 00	 cmp	 ax, 1
  0002d	75 20		 jne	 SHORT $L83964
$L83969:

; 283  : 	PARAM_ENTRY(SQL_PARAM_INPUT, m_dwBetaVer)	

  0002f	85 ff		 test	 edi, edi
  00031	c7 86 14 08 00
	00 00 00 00 00	 mov	 DWORD PTR [esi+2068], 0
  0003b	75 12		 jne	 SHORT $L83964
  0003d	8d 8e 30 0c 00
	00		 lea	 ecx, DWORD PTR [esi+3120]
  00043	51		 push	 ecx
  00044	6a 02		 push	 2
  00046	6a 01		 push	 1
  00048	8b ce		 mov	 ecx, esi
  0004a	e8 00 00 00 00	 call	 ?BindParam@CSqlBase@@QAEFFFPAK@Z ; CSqlBase::BindParam
$L83964:
  0004f	5f		 pop	 edi
  00050	5e		 pop	 esi

; 284  : END_PARAM()

  00051	c2 04 00	 ret	 4
?BindParameters@CSPDeletePreVersion@@UAEFH@Z ENDP	; CSPDeletePreVersion::BindParameters
_TEXT	ENDS
PUBLIC	??1CSPDeletePreVersion@@UAE@XZ			; CSPDeletePreVersion::~CSPDeletePreVersion
; Function compile flags: /Ogty
;	COMDAT ??_GCSPDeletePreVersion@@UAEPAXI@Z
_TEXT	SEGMENT
___flags$ = 8						; size = 4
??_GCSPDeletePreVersion@@UAEPAXI@Z PROC NEAR		; CSPDeletePreVersion::`scalar deleting destructor', COMDAT
; _this$ = ecx
  00000	56		 push	 esi
  00001	8b f1		 mov	 esi, ecx
  00003	e8 00 00 00 00	 call	 ??1CSPDeletePreVersion@@UAE@XZ
  00008	f6 44 24 08 01	 test	 BYTE PTR ___flags$[esp], 1
  0000d	74 09		 je	 SHORT $L91907
  0000f	56		 push	 esi
  00010	e8 00 00 00 00	 call	 ??3@YAXPAX@Z		; operator delete
  00015	83 c4 04	 add	 esp, 4
$L91907:
  00018	8b c6		 mov	 eax, esi
  0001a	5e		 pop	 esi
  0001b	c2 04 00	 ret	 4
??_GCSPDeletePreVersion@@UAEPAXI@Z ENDP			; CSPDeletePreVersion::`scalar deleting destructor'
; Function compile flags: /Ogty
_TEXT	ENDS
;	COMDAT ??1CSPDeletePreVersion@@UAE@XZ
_TEXT	SEGMENT
??1CSPDeletePreVersion@@UAE@XZ PROC NEAR		; CSPDeletePreVersion::~CSPDeletePreVersion, COMDAT
; _this$ = ecx
  00000	e9 00 00 00 00	 jmp	 ??1CSqlQuery@@UAE@XZ	; CSqlQuery::~CSqlQuery
??1CSPDeletePreVersion@@UAE@XZ ENDP			; CSPDeletePreVersion::~CSPDeletePreVersion
_TEXT	ENDS
PUBLIC	??0CSPUserProtectedAdd@@QAE@PAVCSqlDatabase@@V?$basic_string@DU?$char_traits@D@std@@V?$allocator@D@2@@std@@@Z ; CSPUserProtectedAdd::CSPUserProtectedAdd
PUBLIC	?GetNumParam@CSPUserProtectedAdd@@UAEHXZ	; CSPUserProtectedAdd::GetNumParam
PUBLIC	?BindParameters@CSPUserProtectedAdd@@UAEFH@Z	; CSPUserProtectedAdd::BindParameters
PUBLIC	??_7CSPUserProtectedAdd@@6B@			; CSPUserProtectedAdd::`vftable'
PUBLIC	??_GCSPUserProtectedAdd@@UAEPAXI@Z		; CSPUserProtectedAdd::`scalar deleting destructor'
PUBLIC	??_C@_0CD@GNKKCNKL@?$HL?5?$DP?5?$DN?5CALL?5TUserProtectedAdd?$CI?$DP?0?$DP@ ; `string'
EXTRN	??_ECSPUserProtectedAdd@@UAEPAXI@Z:NEAR		; CSPUserProtectedAdd::`vector deleting destructor'
;	COMDAT xdata$x
; File c:\program files (x86)\microsoft visual studio .net 2003\vc7\include\iosfwd
xdata$x	SEGMENT
$T92090	DD	0ffffffffH
	DD	FLAT:$L91916
$T92087	DD	019930520H
	DD	01H
	DD	FLAT:$T92090
	DD	2 DUP(00H)
	DD	2 DUP(00H)
xdata$x	ENDS
;	COMDAT ??_C@_0CD@GNKKCNKL@?$HL?5?$DP?5?$DN?5CALL?5TUserProtectedAdd?$CI?$DP?0?$DP@
CONST	SEGMENT
??_C@_0CD@GNKKCNKL@?$HL?5?$DP?5?$DN?5CALL?5TUserProtectedAdd?$CI?$DP?0?$DP@ DB '{'
	DB	' ? = CALL TUserProtectedAdd(?,?)}', 00H	; `string'
CONST	ENDS
;	COMDAT ??_7CSPUserProtectedAdd@@6B@
CONST	SEGMENT
??_7CSPUserProtectedAdd@@6B@ DD FLAT:??_ECSPUserProtectedAdd@@UAEPAXI@Z ; CSPUserProtectedAdd::`vftable'
	DD	FLAT:?GetNumCol@CSqlBase@@UAEHXZ
	DD	FLAT:?GetNumParam@CSPUserProtectedAdd@@UAEHXZ
	DD	FLAT:?AllocStatement@CSqlQuery@@UAEHXZ
	DD	FLAT:?BindColumns@CSqlQuery@@UAEFXZ
	DD	FLAT:?BindParameters@CSPUserProtectedAdd@@UAEFH@Z
; Function compile flags: /Ogty
; File c:\users\pierr\desktop\4story - oldschool\sources\tserver\tcontrolsvr\dbaccess.h
CONST	ENDS
;	COMDAT ??0CSPUserProtectedAdd@@QAE@PAVCSqlDatabase@@V?$basic_string@DU?$char_traits@D@std@@V?$allocator@D@2@@std@@@Z
_TEXT	SEGMENT
$T91915 = -16						; size = 4
__$EHRec$ = -12						; size = 12
_pdb$ = 8						; size = 4
_strKey$ = 12						; size = 28
??0CSPUserProtectedAdd@@QAE@PAVCSqlDatabase@@V?$basic_string@DU?$char_traits@D@std@@V?$allocator@D@2@@std@@@Z PROC NEAR ; CSPUserProtectedAdd::CSPUserProtectedAdd, COMDAT
; _this$ = ecx

; 294  : DEF_QUERY(CSPUserProtectedAdd, _T("{ ? = CALL TUserProtectedAdd(?,?)}"))

  00000	6a ff		 push	 -1
  00002	68 00 00 00 00	 push	 __ehhandler$??0CSPUserProtectedAdd@@QAE@PAVCSqlDatabase@@V?$basic_string@DU?$char_traits@D@std@@V?$allocator@D@2@@std@@@Z
  00007	64 a1 00 00 00
	00		 mov	 eax, DWORD PTR fs:__except_list
  0000d	50		 push	 eax
  0000e	64 89 25 00 00
	00 00		 mov	 DWORD PTR fs:__except_list, esp
  00015	51		 push	 ecx
  00016	56		 push	 esi
  00017	8b f1		 mov	 esi, ecx
  00019	68 00 00 00 00	 push	 OFFSET FLAT:??_C@_0CD@GNKKCNKL@?$HL?5?$DP?5?$DN?5CALL?5TUserProtectedAdd?$CI?$DP?0?$DP@
  0001e	83 ec 1c	 sub	 esp, 28			; 0000001cH
  00021	8b cc		 mov	 ecx, esp
  00023	33 c0		 xor	 eax, eax
  00025	89 64 24 24	 mov	 DWORD PTR $T91915[esp+52], esp
  00029	6a ff		 push	 -1
  0002b	89 41 14	 mov	 DWORD PTR [ecx+20], eax
  0002e	c7 41 18 0f 00
	00 00		 mov	 DWORD PTR [ecx+24], 15	; 0000000fH
  00035	50		 push	 eax
  00036	89 44 24 38	 mov	 DWORD PTR __$EHRec$[esp+68], eax
  0003a	88 41 04	 mov	 BYTE PTR [ecx+4], al
  0003d	8d 44 24 44	 lea	 eax, DWORD PTR _strKey$[esp+56]
  00041	50		 push	 eax
  00042	e8 00 00 00 00	 call	 ?assign@?$basic_string@DU?$char_traits@D@std@@V?$allocator@D@2@@std@@QAEAAV12@ABV12@II@Z ; std::basic_string<char,std::char_traits<char>,std::allocator<char> >::assign
  00047	8b 4c 24 38	 mov	 ecx, DWORD PTR _pdb$[esp+48]
  0004b	51		 push	 ecx
  0004c	8b ce		 mov	 ecx, esi
  0004e	e8 00 00 00 00	 call	 ??0CSqlQuery@@QAE@PAVCSqlDatabase@@V?$basic_string@DU?$char_traits@D@std@@V?$allocator@D@2@@std@@PBD@Z ; CSqlQuery::CSqlQuery
  00053	83 7c 24 34 10	 cmp	 DWORD PTR _strKey$[esp+40], 16 ; 00000010H
  00058	c7 06 00 00 00
	00		 mov	 DWORD PTR [esi], OFFSET FLAT:??_7CSPUserProtectedAdd@@6B@
  0005e	72 0d		 jb	 SHORT $L92088
  00060	8b 54 24 20	 mov	 edx, DWORD PTR _strKey$[esp+20]
  00064	52		 push	 edx
  00065	e8 00 00 00 00	 call	 ??3@YAXPAX@Z		; operator delete
  0006a	83 c4 04	 add	 esp, 4
$L92088:
  0006d	8b 4c 24 08	 mov	 ecx, DWORD PTR __$EHRec$[esp+20]
  00071	8b c6		 mov	 eax, esi
  00073	64 89 0d 00 00
	00 00		 mov	 DWORD PTR fs:__except_list, ecx
  0007a	5e		 pop	 esi
  0007b	83 c4 10	 add	 esp, 16			; 00000010H
  0007e	c2 20 00	 ret	 32			; 00000020H
_TEXT	ENDS
;	COMDAT text$x
text$x	SEGMENT
$L91916:
  00000	8d 4d 08	 lea	 ecx, DWORD PTR _strKey$[ebp-4]
  00003	e9 00 00 00 00	 jmp	 ??1?$basic_string@DU?$char_traits@D@std@@V?$allocator@D@2@@std@@QAE@XZ ; std::basic_string<char,std::char_traits<char>,std::allocator<char> >::~basic_string<char,std::char_traits<char>,std::allocator<char> >
__ehhandler$??0CSPUserProtectedAdd@@QAE@PAVCSqlDatabase@@V?$basic_string@DU?$char_traits@D@std@@V?$allocator@D@2@@std@@@Z:
  00008	b8 00 00 00 00	 mov	 eax, OFFSET FLAT:$T92087
  0000d	e9 00 00 00 00	 jmp	 ___CxxFrameHandler
text$x	ENDS
??0CSPUserProtectedAdd@@QAE@PAVCSqlDatabase@@V?$basic_string@DU?$char_traits@D@std@@V?$allocator@D@2@@std@@@Z ENDP ; CSPUserProtectedAdd::CSPUserProtectedAdd
; Function compile flags: /Ogty
;	COMDAT ?GetNumParam@CSPUserProtectedAdd@@UAEHXZ
_TEXT	SEGMENT
?GetNumParam@CSPUserProtectedAdd@@UAEHXZ PROC NEAR	; CSPUserProtectedAdd::GetNumParam, COMDAT
; _this$ = ecx

; 296  : BEGIN_PARAM(3)

  00000	b8 03 00 00 00	 mov	 eax, 3
  00005	c3		 ret	 0
?GetNumParam@CSPUserProtectedAdd@@UAEHXZ ENDP		; CSPUserProtectedAdd::GetNumParam
; Function compile flags: /Ogty
_TEXT	ENDS
;	COMDAT ?BindParameters@CSPUserProtectedAdd@@UAEFH@Z
_TEXT	SEGMENT
_bRewind$ = 8						; size = 4
?BindParameters@CSPUserProtectedAdd@@UAEFH@Z PROC NEAR	; CSPUserProtectedAdd::BindParameters, COMDAT
; _this$ = ecx

; 296  : BEGIN_PARAM(3)

  00000	56		 push	 esi
  00001	57		 push	 edi

; 297  : 	PARAM_ENTRY(SQL_PARAM_OUTPUT, m_nRET)

  00002	8b 7c 24 0c	 mov	 edi, DWORD PTR _bRewind$[esp+4]
  00006	33 c0		 xor	 eax, eax
  00008	85 ff		 test	 edi, edi
  0000a	8b f1		 mov	 esi, ecx
  0000c	89 86 10 08 00
	00		 mov	 DWORD PTR [esi+2064], eax
  00012	75 1b		 jne	 SHORT $L84016
  00014	8d 86 2c 0c 00
	00		 lea	 eax, DWORD PTR [esi+3116]
  0001a	50		 push	 eax
  0001b	6a 01		 push	 1
  0001d	6a 04		 push	 4
  0001f	e8 00 00 00 00	 call	 ?BindParam@CSqlBase@@QAEFFFPAH@Z ; CSqlBase::BindParam
  00024	66 85 c0	 test	 ax, ax
  00027	74 06		 je	 SHORT $L84016
  00029	66 3d 01 00	 cmp	 ax, 1
  0002d	75 4d		 jne	 SHORT $L84011
$L84016:

; 298  : 	PARAM_ENTRY_STR(SQL_PARAM_INPUT, m_szUserID)

  0002f	85 ff		 test	 edi, edi
  00031	c7 86 14 08 00
	00 fd ff ff ff	 mov	 DWORD PTR [esi+2068], -3 ; fffffffdH
  0003b	75 14		 jne	 SHORT $L84017
  0003d	6a 33		 push	 51			; 00000033H
  0003f	8d 8e 30 0c 00
	00		 lea	 ecx, DWORD PTR [esi+3120]
  00045	51		 push	 ecx
  00046	6a 02		 push	 2
  00048	6a 01		 push	 1
  0004a	8b ce		 mov	 ecx, esi
  0004c	e8 00 00 00 00	 call	 ?BindParamStr@CSqlBase@@QAEFFFPADJ@Z ; CSqlBase::BindParamStr
$L84017:
  00051	66 85 c0	 test	 ax, ax
  00054	74 06		 je	 SHORT $L84018
  00056	66 3d 01 00	 cmp	 ax, 1
  0005a	75 20		 jne	 SHORT $L84011
$L84018:

; 299  : 	PARAM_ENTRY(SQL_PARAM_INPUT, m_dwDuration)

  0005c	85 ff		 test	 edi, edi
  0005e	c7 86 18 08 00
	00 00 00 00 00	 mov	 DWORD PTR [esi+2072], 0
  00068	75 12		 jne	 SHORT $L84011
  0006a	8d 96 64 0c 00
	00		 lea	 edx, DWORD PTR [esi+3172]
  00070	52		 push	 edx
  00071	6a 03		 push	 3
  00073	6a 01		 push	 1
  00075	8b ce		 mov	 ecx, esi
  00077	e8 00 00 00 00	 call	 ?BindParam@CSqlBase@@QAEFFFPAK@Z ; CSqlBase::BindParam
$L84011:
  0007c	5f		 pop	 edi
  0007d	5e		 pop	 esi

; 300  : END_PARAM()

  0007e	c2 04 00	 ret	 4
?BindParameters@CSPUserProtectedAdd@@UAEFH@Z ENDP	; CSPUserProtectedAdd::BindParameters
_TEXT	ENDS
PUBLIC	??1CSPUserProtectedAdd@@UAE@XZ			; CSPUserProtectedAdd::~CSPUserProtectedAdd
; Function compile flags: /Ogty
;	COMDAT ??_GCSPUserProtectedAdd@@UAEPAXI@Z
_TEXT	SEGMENT
___flags$ = 8						; size = 4
??_GCSPUserProtectedAdd@@UAEPAXI@Z PROC NEAR		; CSPUserProtectedAdd::`scalar deleting destructor', COMDAT
; _this$ = ecx
  00000	56		 push	 esi
  00001	8b f1		 mov	 esi, ecx
  00003	e8 00 00 00 00	 call	 ??1CSPUserProtectedAdd@@UAE@XZ
  00008	f6 44 24 08 01	 test	 BYTE PTR ___flags$[esp], 1
  0000d	74 09		 je	 SHORT $L92102
  0000f	56		 push	 esi
  00010	e8 00 00 00 00	 call	 ??3@YAXPAX@Z		; operator delete
  00015	83 c4 04	 add	 esp, 4
$L92102:
  00018	8b c6		 mov	 eax, esi
  0001a	5e		 pop	 esi
  0001b	c2 04 00	 ret	 4
??_GCSPUserProtectedAdd@@UAEPAXI@Z ENDP			; CSPUserProtectedAdd::`scalar deleting destructor'
; Function compile flags: /Ogty
_TEXT	ENDS
;	COMDAT ??1CSPUserProtectedAdd@@UAE@XZ
_TEXT	SEGMENT
??1CSPUserProtectedAdd@@UAE@XZ PROC NEAR		; CSPUserProtectedAdd::~CSPUserProtectedAdd, COMDAT
; _this$ = ecx
  00000	e9 00 00 00 00	 jmp	 ??1CSqlQuery@@UAE@XZ	; CSqlQuery::~CSqlQuery
??1CSPUserProtectedAdd@@UAE@XZ ENDP			; CSPUserProtectedAdd::~CSPUserProtectedAdd
_TEXT	ENDS
PUBLIC	??0CSPSvrStatusSMS@@QAE@PAVCSqlDatabase@@V?$basic_string@DU?$char_traits@D@std@@V?$allocator@D@2@@std@@@Z ; CSPSvrStatusSMS::CSPSvrStatusSMS
PUBLIC	?GetNumParam@CSPSvrStatusSMS@@UAEHXZ		; CSPSvrStatusSMS::GetNumParam
PUBLIC	?BindParameters@CSPSvrStatusSMS@@UAEFH@Z	; CSPSvrStatusSMS::BindParameters
PUBLIC	??_7CSPSvrStatusSMS@@6B@			; CSPSvrStatusSMS::`vftable'
PUBLIC	??_GCSPSvrStatusSMS@@UAEPAXI@Z			; CSPSvrStatusSMS::`scalar deleting destructor'
PUBLIC	??_C@_0CE@DJBPMLNA@?$HL?5CALL?5OPTool_SMSEmergency?$CI?$DP?0?$DP?0?$DP@ ; `string'
EXTRN	??_ECSPSvrStatusSMS@@UAEPAXI@Z:NEAR		; CSPSvrStatusSMS::`vector deleting destructor'
;	COMDAT xdata$x
; File c:\program files (x86)\microsoft visual studio .net 2003\vc7\include\iosfwd
xdata$x	SEGMENT
$T92285	DD	0ffffffffH
	DD	FLAT:$L92111
$T92282	DD	019930520H
	DD	01H
	DD	FLAT:$T92285
	DD	2 DUP(00H)
	DD	2 DUP(00H)
xdata$x	ENDS
;	COMDAT ??_C@_0CE@DJBPMLNA@?$HL?5CALL?5OPTool_SMSEmergency?$CI?$DP?0?$DP?0?$DP@
CONST	SEGMENT
??_C@_0CE@DJBPMLNA@?$HL?5CALL?5OPTool_SMSEmergency?$CI?$DP?0?$DP?0?$DP@ DB '{'
	DB	' CALL OPTool_SMSEmergency(?,?,?) }', 00H	; `string'
CONST	ENDS
;	COMDAT ??_7CSPSvrStatusSMS@@6B@
CONST	SEGMENT
??_7CSPSvrStatusSMS@@6B@ DD FLAT:??_ECSPSvrStatusSMS@@UAEPAXI@Z ; CSPSvrStatusSMS::`vftable'
	DD	FLAT:?GetNumCol@CSqlBase@@UAEHXZ
	DD	FLAT:?GetNumParam@CSPSvrStatusSMS@@UAEHXZ
	DD	FLAT:?AllocStatement@CSqlQuery@@UAEHXZ
	DD	FLAT:?BindColumns@CSqlQuery@@UAEFXZ
	DD	FLAT:?BindParameters@CSPSvrStatusSMS@@UAEFH@Z
; Function compile flags: /Ogty
; File c:\users\pierr\desktop\4story - oldschool\sources\tserver\tcontrolsvr\dbaccess.h
CONST	ENDS
;	COMDAT ??0CSPSvrStatusSMS@@QAE@PAVCSqlDatabase@@V?$basic_string@DU?$char_traits@D@std@@V?$allocator@D@2@@std@@@Z
_TEXT	SEGMENT
$T92110 = -16						; size = 4
__$EHRec$ = -12						; size = 12
_pdb$ = 8						; size = 4
_strKey$ = 12						; size = 28
??0CSPSvrStatusSMS@@QAE@PAVCSqlDatabase@@V?$basic_string@DU?$char_traits@D@std@@V?$allocator@D@2@@std@@@Z PROC NEAR ; CSPSvrStatusSMS::CSPSvrStatusSMS, COMDAT
; _this$ = ecx

; 311  : DEF_QUERY(CSPSvrStatusSMS, _T("{ CALL OPTool_SMSEmergency(?,?,?) }") )

  00000	6a ff		 push	 -1
  00002	68 00 00 00 00	 push	 __ehhandler$??0CSPSvrStatusSMS@@QAE@PAVCSqlDatabase@@V?$basic_string@DU?$char_traits@D@std@@V?$allocator@D@2@@std@@@Z
  00007	64 a1 00 00 00
	00		 mov	 eax, DWORD PTR fs:__except_list
  0000d	50		 push	 eax
  0000e	64 89 25 00 00
	00 00		 mov	 DWORD PTR fs:__except_list, esp
  00015	51		 push	 ecx
  00016	56		 push	 esi
  00017	8b f1		 mov	 esi, ecx
  00019	68 00 00 00 00	 push	 OFFSET FLAT:??_C@_0CE@DJBPMLNA@?$HL?5CALL?5OPTool_SMSEmergency?$CI?$DP?0?$DP?0?$DP@
  0001e	83 ec 1c	 sub	 esp, 28			; 0000001cH
  00021	8b cc		 mov	 ecx, esp
  00023	33 c0		 xor	 eax, eax
  00025	89 64 24 24	 mov	 DWORD PTR $T92110[esp+52], esp
  00029	6a ff		 push	 -1
  0002b	89 41 14	 mov	 DWORD PTR [ecx+20], eax
  0002e	c7 41 18 0f 00
	00 00		 mov	 DWORD PTR [ecx+24], 15	; 0000000fH
  00035	50		 push	 eax
  00036	89 44 24 38	 mov	 DWORD PTR __$EHRec$[esp+68], eax
  0003a	88 41 04	 mov	 BYTE PTR [ecx+4], al
  0003d	8d 44 24 44	 lea	 eax, DWORD PTR _strKey$[esp+56]
  00041	50		 push	 eax
  00042	e8 00 00 00 00	 call	 ?assign@?$basic_string@DU?$char_traits@D@std@@V?$allocator@D@2@@std@@QAEAAV12@ABV12@II@Z ; std::basic_string<char,std::char_traits<char>,std::allocator<char> >::assign
  00047	8b 4c 24 38	 mov	 ecx, DWORD PTR _pdb$[esp+48]
  0004b	51		 push	 ecx
  0004c	8b ce		 mov	 ecx, esi
  0004e	e8 00 00 00 00	 call	 ??0CSqlQuery@@QAE@PAVCSqlDatabase@@V?$basic_string@DU?$char_traits@D@std@@V?$allocator@D@2@@std@@PBD@Z ; CSqlQuery::CSqlQuery
  00053	83 7c 24 34 10	 cmp	 DWORD PTR _strKey$[esp+40], 16 ; 00000010H
  00058	c7 06 00 00 00
	00		 mov	 DWORD PTR [esi], OFFSET FLAT:??_7CSPSvrStatusSMS@@6B@
  0005e	72 0d		 jb	 SHORT $L92283
  00060	8b 54 24 20	 mov	 edx, DWORD PTR _strKey$[esp+20]
  00064	52		 push	 edx
  00065	e8 00 00 00 00	 call	 ??3@YAXPAX@Z		; operator delete
  0006a	83 c4 04	 add	 esp, 4
$L92283:
  0006d	8b 4c 24 08	 mov	 ecx, DWORD PTR __$EHRec$[esp+20]
  00071	8b c6		 mov	 eax, esi
  00073	64 89 0d 00 00
	00 00		 mov	 DWORD PTR fs:__except_list, ecx
  0007a	5e		 pop	 esi
  0007b	83 c4 10	 add	 esp, 16			; 00000010H
  0007e	c2 20 00	 ret	 32			; 00000020H
_TEXT	ENDS
;	COMDAT text$x
text$x	SEGMENT
$L92111:
  00000	8d 4d 08	 lea	 ecx, DWORD PTR _strKey$[ebp-4]
  00003	e9 00 00 00 00	 jmp	 ??1?$basic_string@DU?$char_traits@D@std@@V?$allocator@D@2@@std@@QAE@XZ ; std::basic_string<char,std::char_traits<char>,std::allocator<char> >::~basic_string<char,std::char_traits<char>,std::allocator<char> >
__ehhandler$??0CSPSvrStatusSMS@@QAE@PAVCSqlDatabase@@V?$basic_string@DU?$char_traits@D@std@@V?$allocator@D@2@@std@@@Z:
  00008	b8 00 00 00 00	 mov	 eax, OFFSET FLAT:$T92282
  0000d	e9 00 00 00 00	 jmp	 ___CxxFrameHandler
text$x	ENDS
??0CSPSvrStatusSMS@@QAE@PAVCSqlDatabase@@V?$basic_string@DU?$char_traits@D@std@@V?$allocator@D@2@@std@@@Z ENDP ; CSPSvrStatusSMS::CSPSvrStatusSMS
; Function compile flags: /Ogty
;	COMDAT ?GetNumParam@CSPSvrStatusSMS@@UAEHXZ
_TEXT	SEGMENT
?GetNumParam@CSPSvrStatusSMS@@UAEHXZ PROC NEAR		; CSPSvrStatusSMS::GetNumParam, COMDAT
; _this$ = ecx

; 313  : BEGIN_PARAM(3)	

  00000	b8 03 00 00 00	 mov	 eax, 3
  00005	c3		 ret	 0
?GetNumParam@CSPSvrStatusSMS@@UAEHXZ ENDP		; CSPSvrStatusSMS::GetNumParam
; Function compile flags: /Ogty
_TEXT	ENDS
;	COMDAT ?BindParameters@CSPSvrStatusSMS@@UAEFH@Z
_TEXT	SEGMENT
_bRewind$ = 8						; size = 4
?BindParameters@CSPSvrStatusSMS@@UAEFH@Z PROC NEAR	; CSPSvrStatusSMS::BindParameters, COMDAT
; _this$ = ecx

; 313  : BEGIN_PARAM(3)	

  00000	56		 push	 esi
  00001	57		 push	 edi

; 314  : 	PARAM_ENTRY(SQL_PARAM_INPUT,m_bSvrType)

  00002	8b 7c 24 0c	 mov	 edi, DWORD PTR _bRewind$[esp+4]
  00006	33 c0		 xor	 eax, eax
  00008	85 ff		 test	 edi, edi
  0000a	8b f1		 mov	 esi, ecx
  0000c	89 86 10 08 00
	00		 mov	 DWORD PTR [esi+2064], eax
  00012	75 1b		 jne	 SHORT $L84065
  00014	8d 86 2c 0c 00
	00		 lea	 eax, DWORD PTR [esi+3116]
  0001a	50		 push	 eax
  0001b	6a 01		 push	 1
  0001d	6a 01		 push	 1
  0001f	e8 00 00 00 00	 call	 ?BindParam@CSqlBase@@QAEFFFPAE@Z ; CSqlBase::BindParam
  00024	66 85 c0	 test	 ax, ax
  00027	74 06		 je	 SHORT $L84065
  00029	66 3d 01 00	 cmp	 ax, 1
  0002d	75 4b		 jne	 SHORT $L84060
$L84065:

; 315  : 	PARAM_ENTRY(SQL_PARAM_INPUT,m_dwSvrID)

  0002f	85 ff		 test	 edi, edi
  00031	c7 86 14 08 00
	00 00 00 00 00	 mov	 DWORD PTR [esi+2068], 0
  0003b	75 12		 jne	 SHORT $L84066
  0003d	8d 8e 30 0c 00
	00		 lea	 ecx, DWORD PTR [esi+3120]
  00043	51		 push	 ecx
  00044	6a 02		 push	 2
  00046	6a 01		 push	 1
  00048	8b ce		 mov	 ecx, esi
  0004a	e8 00 00 00 00	 call	 ?BindParam@CSqlBase@@QAEFFFPAK@Z ; CSqlBase::BindParam
$L84066:
  0004f	66 85 c0	 test	 ax, ax
  00052	74 06		 je	 SHORT $L84067
  00054	66 3d 01 00	 cmp	 ax, 1
  00058	75 20		 jne	 SHORT $L84060
$L84067:

; 316  : 	PARAM_ENTRY(SQL_PARAM_INPUT,m_bSvrStatus)

  0005a	85 ff		 test	 edi, edi
  0005c	c7 86 18 08 00
	00 00 00 00 00	 mov	 DWORD PTR [esi+2072], 0
  00066	75 12		 jne	 SHORT $L84060
  00068	8d 96 34 0c 00
	00		 lea	 edx, DWORD PTR [esi+3124]
  0006e	52		 push	 edx
  0006f	6a 03		 push	 3
  00071	6a 01		 push	 1
  00073	8b ce		 mov	 ecx, esi
  00075	e8 00 00 00 00	 call	 ?BindParam@CSqlBase@@QAEFFFPAE@Z ; CSqlBase::BindParam
$L84060:
  0007a	5f		 pop	 edi
  0007b	5e		 pop	 esi

; 317  : END_PARAM()

  0007c	c2 04 00	 ret	 4
?BindParameters@CSPSvrStatusSMS@@UAEFH@Z ENDP		; CSPSvrStatusSMS::BindParameters
_TEXT	ENDS
PUBLIC	??1CSPSvrStatusSMS@@UAE@XZ			; CSPSvrStatusSMS::~CSPSvrStatusSMS
; Function compile flags: /Ogty
;	COMDAT ??_GCSPSvrStatusSMS@@UAEPAXI@Z
_TEXT	SEGMENT
___flags$ = 8						; size = 4
??_GCSPSvrStatusSMS@@UAEPAXI@Z PROC NEAR		; CSPSvrStatusSMS::`scalar deleting destructor', COMDAT
; _this$ = ecx
  00000	56		 push	 esi
  00001	8b f1		 mov	 esi, ecx
  00003	e8 00 00 00 00	 call	 ??1CSPSvrStatusSMS@@UAE@XZ
  00008	f6 44 24 08 01	 test	 BYTE PTR ___flags$[esp], 1
  0000d	74 09		 je	 SHORT $L92297
  0000f	56		 push	 esi
  00010	e8 00 00 00 00	 call	 ??3@YAXPAX@Z		; operator delete
  00015	83 c4 04	 add	 esp, 4
$L92297:
  00018	8b c6		 mov	 eax, esi
  0001a	5e		 pop	 esi
  0001b	c2 04 00	 ret	 4
??_GCSPSvrStatusSMS@@UAEPAXI@Z ENDP			; CSPSvrStatusSMS::`scalar deleting destructor'
; Function compile flags: /Ogty
_TEXT	ENDS
;	COMDAT ??1CSPSvrStatusSMS@@UAE@XZ
_TEXT	SEGMENT
??1CSPSvrStatusSMS@@UAE@XZ PROC NEAR			; CSPSvrStatusSMS::~CSPSvrStatusSMS, COMDAT
; _this$ = ecx
  00000	e9 00 00 00 00	 jmp	 ??1CSqlQuery@@UAE@XZ	; CSqlQuery::~CSqlQuery
??1CSPSvrStatusSMS@@UAE@XZ ENDP				; CSPSvrStatusSMS::~CSPSvrStatusSMS
_TEXT	ENDS
PUBLIC	??0CSPLoadService@@QAE@PAVCSqlDatabase@@V?$basic_string@DU?$char_traits@D@std@@V?$allocator@D@2@@std@@@Z ; CSPLoadService::CSPLoadService
PUBLIC	?GetNumParam@CSPLoadService@@UAEHXZ		; CSPLoadService::GetNumParam
PUBLIC	?BindParameters@CSPLoadService@@UAEFH@Z		; CSPLoadService::BindParameters
PUBLIC	??_7CSPLoadService@@6B@				; CSPLoadService::`vftable'
PUBLIC	??_GCSPLoadService@@UAEPAXI@Z			; CSPLoadService::`scalar deleting destructor'
PUBLIC	??_C@_0BN@FKLLIGDD@?$HLCALL?5TLoadService?$CI?$DP?0?$DP?0?$DP?0?$DP?$CJ?$HN?$AA@ ; `string'
EXTRN	??_ECSPLoadService@@UAEPAXI@Z:NEAR		; CSPLoadService::`vector deleting destructor'
;	COMDAT xdata$x
; File c:\program files (x86)\microsoft visual studio .net 2003\vc7\include\iosfwd
xdata$x	SEGMENT
$T92480	DD	0ffffffffH
	DD	FLAT:$L92306
$T92477	DD	019930520H
	DD	01H
	DD	FLAT:$T92480
	DD	2 DUP(00H)
	DD	2 DUP(00H)
xdata$x	ENDS
;	COMDAT ??_C@_0BN@FKLLIGDD@?$HLCALL?5TLoadService?$CI?$DP?0?$DP?0?$DP?0?$DP?$CJ?$HN?$AA@
CONST	SEGMENT
??_C@_0BN@FKLLIGDD@?$HLCALL?5TLoadService?$CI?$DP?0?$DP?0?$DP?0?$DP?$CJ?$HN?$AA@ DB '{'
	DB	'CALL TLoadService(?,?,?,?)}', 00H		; `string'
CONST	ENDS
;	COMDAT ??_7CSPLoadService@@6B@
CONST	SEGMENT
??_7CSPLoadService@@6B@ DD FLAT:??_ECSPLoadService@@UAEPAXI@Z ; CSPLoadService::`vftable'
	DD	FLAT:?GetNumCol@CSqlBase@@UAEHXZ
	DD	FLAT:?GetNumParam@CSPLoadService@@UAEHXZ
	DD	FLAT:?AllocStatement@CSqlQuery@@UAEHXZ
	DD	FLAT:?BindColumns@CSqlQuery@@UAEFXZ
	DD	FLAT:?BindParameters@CSPLoadService@@UAEFH@Z
; Function compile flags: /Ogty
; File c:\users\pierr\desktop\4story - oldschool\sources\tserver\tcontrolsvr\dbaccess.h
CONST	ENDS
;	COMDAT ??0CSPLoadService@@QAE@PAVCSqlDatabase@@V?$basic_string@DU?$char_traits@D@std@@V?$allocator@D@2@@std@@@Z
_TEXT	SEGMENT
$T92305 = -16						; size = 4
__$EHRec$ = -12						; size = 12
_pdb$ = 8						; size = 4
_strKey$ = 12						; size = 28
??0CSPLoadService@@QAE@PAVCSqlDatabase@@V?$basic_string@DU?$char_traits@D@std@@V?$allocator@D@2@@std@@@Z PROC NEAR ; CSPLoadService::CSPLoadService, COMDAT
; _this$ = ecx

; 328  : DEF_QUERY(CSPLoadService, _T("{CALL TLoadService(?,?,?,?)}"))

  00000	6a ff		 push	 -1
  00002	68 00 00 00 00	 push	 __ehhandler$??0CSPLoadService@@QAE@PAVCSqlDatabase@@V?$basic_string@DU?$char_traits@D@std@@V?$allocator@D@2@@std@@@Z
  00007	64 a1 00 00 00
	00		 mov	 eax, DWORD PTR fs:__except_list
  0000d	50		 push	 eax
  0000e	64 89 25 00 00
	00 00		 mov	 DWORD PTR fs:__except_list, esp
  00015	51		 push	 ecx
  00016	56		 push	 esi
  00017	8b f1		 mov	 esi, ecx
  00019	68 00 00 00 00	 push	 OFFSET FLAT:??_C@_0BN@FKLLIGDD@?$HLCALL?5TLoadService?$CI?$DP?0?$DP?0?$DP?0?$DP?$CJ?$HN?$AA@
  0001e	83 ec 1c	 sub	 esp, 28			; 0000001cH
  00021	8b cc		 mov	 ecx, esp
  00023	33 c0		 xor	 eax, eax
  00025	89 64 24 24	 mov	 DWORD PTR $T92305[esp+52], esp
  00029	6a ff		 push	 -1
  0002b	89 41 14	 mov	 DWORD PTR [ecx+20], eax
  0002e	c7 41 18 0f 00
	00 00		 mov	 DWORD PTR [ecx+24], 15	; 0000000fH
  00035	50		 push	 eax
  00036	89 44 24 38	 mov	 DWORD PTR __$EHRec$[esp+68], eax
  0003a	88 41 04	 mov	 BYTE PTR [ecx+4], al
  0003d	8d 44 24 44	 lea	 eax, DWORD PTR _strKey$[esp+56]
  00041	50		 push	 eax
  00042	e8 00 00 00 00	 call	 ?assign@?$basic_string@DU?$char_traits@D@std@@V?$allocator@D@2@@std@@QAEAAV12@ABV12@II@Z ; std::basic_string<char,std::char_traits<char>,std::allocator<char> >::assign
  00047	8b 4c 24 38	 mov	 ecx, DWORD PTR _pdb$[esp+48]
  0004b	51		 push	 ecx
  0004c	8b ce		 mov	 ecx, esi
  0004e	e8 00 00 00 00	 call	 ??0CSqlQuery@@QAE@PAVCSqlDatabase@@V?$basic_string@DU?$char_traits@D@std@@V?$allocator@D@2@@std@@PBD@Z ; CSqlQuery::CSqlQuery
  00053	83 7c 24 34 10	 cmp	 DWORD PTR _strKey$[esp+40], 16 ; 00000010H
  00058	c7 06 00 00 00
	00		 mov	 DWORD PTR [esi], OFFSET FLAT:??_7CSPLoadService@@6B@
  0005e	72 0d		 jb	 SHORT $L92478
  00060	8b 54 24 20	 mov	 edx, DWORD PTR _strKey$[esp+20]
  00064	52		 push	 edx
  00065	e8 00 00 00 00	 call	 ??3@YAXPAX@Z		; operator delete
  0006a	83 c4 04	 add	 esp, 4
$L92478:
  0006d	8b 4c 24 08	 mov	 ecx, DWORD PTR __$EHRec$[esp+20]
  00071	8b c6		 mov	 eax, esi
  00073	64 89 0d 00 00
	00 00		 mov	 DWORD PTR fs:__except_list, ecx
  0007a	5e		 pop	 esi
  0007b	83 c4 10	 add	 esp, 16			; 00000010H
  0007e	c2 20 00	 ret	 32			; 00000020H
_TEXT	ENDS
;	COMDAT text$x
text$x	SEGMENT
$L92306:
  00000	8d 4d 08	 lea	 ecx, DWORD PTR _strKey$[ebp-4]
  00003	e9 00 00 00 00	 jmp	 ??1?$basic_string@DU?$char_traits@D@std@@V?$allocator@D@2@@std@@QAE@XZ ; std::basic_string<char,std::char_traits<char>,std::allocator<char> >::~basic_string<char,std::char_traits<char>,std::allocator<char> >
__ehhandler$??0CSPLoadService@@QAE@PAVCSqlDatabase@@V?$basic_string@DU?$char_traits@D@std@@V?$allocator@D@2@@std@@@Z:
  00008	b8 00 00 00 00	 mov	 eax, OFFSET FLAT:$T92477
  0000d	e9 00 00 00 00	 jmp	 ___CxxFrameHandler
text$x	ENDS
??0CSPLoadService@@QAE@PAVCSqlDatabase@@V?$basic_string@DU?$char_traits@D@std@@V?$allocator@D@2@@std@@@Z ENDP ; CSPLoadService::CSPLoadService
; Function compile flags: /Ogty
;	COMDAT ?GetNumParam@CSPLoadService@@UAEHXZ
_TEXT	SEGMENT
?GetNumParam@CSPLoadService@@UAEHXZ PROC NEAR		; CSPLoadService::GetNumParam, COMDAT
; _this$ = ecx

; 330  : BEGIN_PARAM(4)

  00000	b8 04 00 00 00	 mov	 eax, 4
  00005	c3		 ret	 0
?GetNumParam@CSPLoadService@@UAEHXZ ENDP		; CSPLoadService::GetNumParam
_TEXT	ENDS
EXTRN	?BindParam@CSqlBase@@QAEFFFPAG@Z:NEAR		; CSqlBase::BindParam
; Function compile flags: /Ogty
;	COMDAT ?BindParameters@CSPLoadService@@UAEFH@Z
_TEXT	SEGMENT
_bRewind$ = 8						; size = 4
?BindParameters@CSPLoadService@@UAEFH@Z PROC NEAR	; CSPLoadService::BindParameters, COMDAT
; _this$ = ecx

; 330  : BEGIN_PARAM(4)

  00000	56		 push	 esi
  00001	57		 push	 edi

; 331  : 	PARAM_ENTRY(SQL_PARAM_INPUT, m_bWorld)

  00002	8b 7c 24 0c	 mov	 edi, DWORD PTR _bRewind$[esp+4]
  00006	33 c0		 xor	 eax, eax
  00008	85 ff		 test	 edi, edi
  0000a	8b f1		 mov	 esi, ecx
  0000c	89 86 10 08 00
	00		 mov	 DWORD PTR [esi+2064], eax
  00012	75 1b		 jne	 SHORT $L84115
  00014	8d 86 2c 0c 00
	00		 lea	 eax, DWORD PTR [esi+3116]
  0001a	50		 push	 eax
  0001b	6a 01		 push	 1
  0001d	6a 01		 push	 1
  0001f	e8 00 00 00 00	 call	 ?BindParam@CSqlBase@@QAEFFFPAE@Z ; CSqlBase::BindParam
  00024	66 85 c0	 test	 ax, ax
  00027	74 06		 je	 SHORT $L84115
  00029	66 3d 01 00	 cmp	 ax, 1
  0002d	75 78		 jne	 SHORT $L84110
$L84115:

; 332  : 	PARAM_ENTRY(SQL_PARAM_INPUT, m_bServiceGroup)

  0002f	85 ff		 test	 edi, edi
  00031	c7 86 14 08 00
	00 00 00 00 00	 mov	 DWORD PTR [esi+2068], 0
  0003b	75 12		 jne	 SHORT $L84116
  0003d	8d 8e 2d 0c 00
	00		 lea	 ecx, DWORD PTR [esi+3117]
  00043	51		 push	 ecx
  00044	6a 02		 push	 2
  00046	6a 01		 push	 1
  00048	8b ce		 mov	 ecx, esi
  0004a	e8 00 00 00 00	 call	 ?BindParam@CSqlBase@@QAEFFFPAE@Z ; CSqlBase::BindParam
$L84116:
  0004f	66 85 c0	 test	 ax, ax
  00052	74 06		 je	 SHORT $L84117
  00054	66 3d 01 00	 cmp	 ax, 1
  00058	75 4d		 jne	 SHORT $L84110
$L84117:

; 333  : 	PARAM_ENTRY_STR(SQL_PARAM_OUTPUT, m_szIP)

  0005a	85 ff		 test	 edi, edi
  0005c	c7 86 18 08 00
	00 fd ff ff ff	 mov	 DWORD PTR [esi+2072], -3 ; fffffffdH
  00066	75 14		 jne	 SHORT $L84118
  00068	6a 33		 push	 51			; 00000033H
  0006a	8d 96 2e 0c 00
	00		 lea	 edx, DWORD PTR [esi+3118]
  00070	52		 push	 edx
  00071	6a 03		 push	 3
  00073	6a 04		 push	 4
  00075	8b ce		 mov	 ecx, esi
  00077	e8 00 00 00 00	 call	 ?BindParamStr@CSqlBase@@QAEFFFPADJ@Z ; CSqlBase::BindParamStr
$L84118:
  0007c	66 85 c0	 test	 ax, ax
  0007f	74 06		 je	 SHORT $L84119
  00081	66 3d 01 00	 cmp	 ax, 1
  00085	75 20		 jne	 SHORT $L84110
$L84119:

; 334  : 	PARAM_ENTRY(SQL_PARAM_OUTPUT, m_wPort)

  00087	85 ff		 test	 edi, edi
  00089	c7 86 1c 08 00
	00 00 00 00 00	 mov	 DWORD PTR [esi+2076], 0
  00093	75 12		 jne	 SHORT $L84110
  00095	8d 86 62 0c 00
	00		 lea	 eax, DWORD PTR [esi+3170]
  0009b	50		 push	 eax
  0009c	6a 04		 push	 4
  0009e	6a 04		 push	 4
  000a0	8b ce		 mov	 ecx, esi
  000a2	e8 00 00 00 00	 call	 ?BindParam@CSqlBase@@QAEFFFPAG@Z ; CSqlBase::BindParam
$L84110:
  000a7	5f		 pop	 edi
  000a8	5e		 pop	 esi

; 335  : END_PARAM()

  000a9	c2 04 00	 ret	 4
?BindParameters@CSPLoadService@@UAEFH@Z ENDP		; CSPLoadService::BindParameters
_TEXT	ENDS
PUBLIC	??1CSPLoadService@@UAE@XZ			; CSPLoadService::~CSPLoadService
; Function compile flags: /Ogty
;	COMDAT ??_GCSPLoadService@@UAEPAXI@Z
_TEXT	SEGMENT
___flags$ = 8						; size = 4
??_GCSPLoadService@@UAEPAXI@Z PROC NEAR			; CSPLoadService::`scalar deleting destructor', COMDAT
; _this$ = ecx
  00000	56		 push	 esi
  00001	8b f1		 mov	 esi, ecx
  00003	e8 00 00 00 00	 call	 ??1CSPLoadService@@UAE@XZ
  00008	f6 44 24 08 01	 test	 BYTE PTR ___flags$[esp], 1
  0000d	74 09		 je	 SHORT $L92492
  0000f	56		 push	 esi
  00010	e8 00 00 00 00	 call	 ??3@YAXPAX@Z		; operator delete
  00015	83 c4 04	 add	 esp, 4
$L92492:
  00018	8b c6		 mov	 eax, esi
  0001a	5e		 pop	 esi
  0001b	c2 04 00	 ret	 4
??_GCSPLoadService@@UAEPAXI@Z ENDP			; CSPLoadService::`scalar deleting destructor'
; Function compile flags: /Ogty
_TEXT	ENDS
;	COMDAT ??1CSPLoadService@@UAE@XZ
_TEXT	SEGMENT
??1CSPLoadService@@UAE@XZ PROC NEAR			; CSPLoadService::~CSPLoadService, COMDAT
; _this$ = ecx
  00000	e9 00 00 00 00	 jmp	 ??1CSqlQuery@@UAE@XZ	; CSqlQuery::~CSqlQuery
??1CSPLoadService@@UAE@XZ ENDP				; CSPLoadService::~CSPLoadService
_TEXT	ENDS
PUBLIC	??0CSPOPLogin@@QAE@PAVCSqlDatabase@@V?$basic_string@DU?$char_traits@D@std@@V?$allocator@D@2@@std@@@Z ; CSPOPLogin::CSPOPLogin
PUBLIC	?GetNumParam@CSPOPLogin@@UAEHXZ			; CSPOPLogin::GetNumParam
PUBLIC	?BindParameters@CSPOPLogin@@UAEFH@Z		; CSPOPLogin::BindParameters
PUBLIC	??_7CSPOPLogin@@6B@				; CSPOPLogin::`vftable'
PUBLIC	??_GCSPOPLogin@@UAEPAXI@Z			; CSPOPLogin::`scalar deleting destructor'
PUBLIC	??_C@_0BJ@ODNMBHDP@?$HL?$DP?5?$DN?5CALL?5TOPLogin?$CI?$DP?0?$DP?$CJ?$HN?$AA@ ; `string'
EXTRN	??_ECSPOPLogin@@UAEPAXI@Z:NEAR			; CSPOPLogin::`vector deleting destructor'
;	COMDAT xdata$x
; File c:\program files (x86)\microsoft visual studio .net 2003\vc7\include\iosfwd
xdata$x	SEGMENT
$T92675	DD	0ffffffffH
	DD	FLAT:$L92501
$T92672	DD	019930520H
	DD	01H
	DD	FLAT:$T92675
	DD	2 DUP(00H)
	DD	2 DUP(00H)
xdata$x	ENDS
;	COMDAT ??_C@_0BJ@ODNMBHDP@?$HL?$DP?5?$DN?5CALL?5TOPLogin?$CI?$DP?0?$DP?$CJ?$HN?$AA@
CONST	SEGMENT
??_C@_0BJ@ODNMBHDP@?$HL?$DP?5?$DN?5CALL?5TOPLogin?$CI?$DP?0?$DP?$CJ?$HN?$AA@ DB '{'
	DB	'? = CALL TOPLogin(?,?)}', 00H		; `string'
CONST	ENDS
;	COMDAT ??_7CSPOPLogin@@6B@
CONST	SEGMENT
??_7CSPOPLogin@@6B@ DD FLAT:??_ECSPOPLogin@@UAEPAXI@Z	; CSPOPLogin::`vftable'
	DD	FLAT:?GetNumCol@CSqlBase@@UAEHXZ
	DD	FLAT:?GetNumParam@CSPOPLogin@@UAEHXZ
	DD	FLAT:?AllocStatement@CSqlQuery@@UAEHXZ
	DD	FLAT:?BindColumns@CSqlQuery@@UAEFXZ
	DD	FLAT:?BindParameters@CSPOPLogin@@UAEFH@Z
; Function compile flags: /Ogty
; File c:\users\pierr\desktop\4story - oldschool\sources\tserver\tcontrolsvr\dbaccess.h
CONST	ENDS
;	COMDAT ??0CSPOPLogin@@QAE@PAVCSqlDatabase@@V?$basic_string@DU?$char_traits@D@std@@V?$allocator@D@2@@std@@@Z
_TEXT	SEGMENT
$T92500 = -16						; size = 4
__$EHRec$ = -12						; size = 12
_pdb$ = 8						; size = 4
_strKey$ = 12						; size = 28
??0CSPOPLogin@@QAE@PAVCSqlDatabase@@V?$basic_string@DU?$char_traits@D@std@@V?$allocator@D@2@@std@@@Z PROC NEAR ; CSPOPLogin::CSPOPLogin, COMDAT
; _this$ = ecx

; 345  : DEF_QUERY(CSPOPLogin, _T( "{? = CALL TOPLogin(?,?)}") )

  00000	6a ff		 push	 -1
  00002	68 00 00 00 00	 push	 __ehhandler$??0CSPOPLogin@@QAE@PAVCSqlDatabase@@V?$basic_string@DU?$char_traits@D@std@@V?$allocator@D@2@@std@@@Z
  00007	64 a1 00 00 00
	00		 mov	 eax, DWORD PTR fs:__except_list
  0000d	50		 push	 eax
  0000e	64 89 25 00 00
	00 00		 mov	 DWORD PTR fs:__except_list, esp
  00015	51		 push	 ecx
  00016	56		 push	 esi
  00017	8b f1		 mov	 esi, ecx
  00019	68 00 00 00 00	 push	 OFFSET FLAT:??_C@_0BJ@ODNMBHDP@?$HL?$DP?5?$DN?5CALL?5TOPLogin?$CI?$DP?0?$DP?$CJ?$HN?$AA@
  0001e	83 ec 1c	 sub	 esp, 28			; 0000001cH
  00021	8b cc		 mov	 ecx, esp
  00023	33 c0		 xor	 eax, eax
  00025	89 64 24 24	 mov	 DWORD PTR $T92500[esp+52], esp
  00029	6a ff		 push	 -1
  0002b	89 41 14	 mov	 DWORD PTR [ecx+20], eax
  0002e	c7 41 18 0f 00
	00 00		 mov	 DWORD PTR [ecx+24], 15	; 0000000fH
  00035	50		 push	 eax
  00036	89 44 24 38	 mov	 DWORD PTR __$EHRec$[esp+68], eax
  0003a	88 41 04	 mov	 BYTE PTR [ecx+4], al
  0003d	8d 44 24 44	 lea	 eax, DWORD PTR _strKey$[esp+56]
  00041	50		 push	 eax
  00042	e8 00 00 00 00	 call	 ?assign@?$basic_string@DU?$char_traits@D@std@@V?$allocator@D@2@@std@@QAEAAV12@ABV12@II@Z ; std::basic_string<char,std::char_traits<char>,std::allocator<char> >::assign
  00047	8b 4c 24 38	 mov	 ecx, DWORD PTR _pdb$[esp+48]
  0004b	51		 push	 ecx
  0004c	8b ce		 mov	 ecx, esi
  0004e	e8 00 00 00 00	 call	 ??0CSqlQuery@@QAE@PAVCSqlDatabase@@V?$basic_string@DU?$char_traits@D@std@@V?$allocator@D@2@@std@@PBD@Z ; CSqlQuery::CSqlQuery
  00053	83 7c 24 34 10	 cmp	 DWORD PTR _strKey$[esp+40], 16 ; 00000010H
  00058	c7 06 00 00 00
	00		 mov	 DWORD PTR [esi], OFFSET FLAT:??_7CSPOPLogin@@6B@
  0005e	72 0d		 jb	 SHORT $L92673
  00060	8b 54 24 20	 mov	 edx, DWORD PTR _strKey$[esp+20]
  00064	52		 push	 edx
  00065	e8 00 00 00 00	 call	 ??3@YAXPAX@Z		; operator delete
  0006a	83 c4 04	 add	 esp, 4
$L92673:
  0006d	8b 4c 24 08	 mov	 ecx, DWORD PTR __$EHRec$[esp+20]
  00071	8b c6		 mov	 eax, esi
  00073	64 89 0d 00 00
	00 00		 mov	 DWORD PTR fs:__except_list, ecx
  0007a	5e		 pop	 esi
  0007b	83 c4 10	 add	 esp, 16			; 00000010H
  0007e	c2 20 00	 ret	 32			; 00000020H
_TEXT	ENDS
;	COMDAT text$x
text$x	SEGMENT
$L92501:
  00000	8d 4d 08	 lea	 ecx, DWORD PTR _strKey$[ebp-4]
  00003	e9 00 00 00 00	 jmp	 ??1?$basic_string@DU?$char_traits@D@std@@V?$allocator@D@2@@std@@QAE@XZ ; std::basic_string<char,std::char_traits<char>,std::allocator<char> >::~basic_string<char,std::char_traits<char>,std::allocator<char> >
__ehhandler$??0CSPOPLogin@@QAE@PAVCSqlDatabase@@V?$basic_string@DU?$char_traits@D@std@@V?$allocator@D@2@@std@@@Z:
  00008	b8 00 00 00 00	 mov	 eax, OFFSET FLAT:$T92672
  0000d	e9 00 00 00 00	 jmp	 ___CxxFrameHandler
text$x	ENDS
??0CSPOPLogin@@QAE@PAVCSqlDatabase@@V?$basic_string@DU?$char_traits@D@std@@V?$allocator@D@2@@std@@@Z ENDP ; CSPOPLogin::CSPOPLogin
; Function compile flags: /Ogty
;	COMDAT ?GetNumParam@CSPOPLogin@@UAEHXZ
_TEXT	SEGMENT
?GetNumParam@CSPOPLogin@@UAEHXZ PROC NEAR		; CSPOPLogin::GetNumParam, COMDAT
; _this$ = ecx

; 347  : BEGIN_PARAM(3)

  00000	b8 03 00 00 00	 mov	 eax, 3
  00005	c3		 ret	 0
?GetNumParam@CSPOPLogin@@UAEHXZ ENDP			; CSPOPLogin::GetNumParam
; Function compile flags: /Ogty
_TEXT	ENDS
;	COMDAT ?BindParameters@CSPOPLogin@@UAEFH@Z
_TEXT	SEGMENT
_bRewind$ = 8						; size = 4
?BindParameters@CSPOPLogin@@UAEFH@Z PROC NEAR		; CSPOPLogin::BindParameters, COMDAT
; _this$ = ecx

; 347  : BEGIN_PARAM(3)

  00000	56		 push	 esi
  00001	57		 push	 edi

; 348  : 	PARAM_ENTRY(SQL_PARAM_OUTPUT, m_nRET)

  00002	8b 7c 24 0c	 mov	 edi, DWORD PTR _bRewind$[esp+4]
  00006	33 c0		 xor	 eax, eax
  00008	85 ff		 test	 edi, edi
  0000a	8b f1		 mov	 esi, ecx
  0000c	89 86 10 08 00
	00		 mov	 DWORD PTR [esi+2064], eax
  00012	75 1b		 jne	 SHORT $L84166
  00014	8d 86 2c 0c 00
	00		 lea	 eax, DWORD PTR [esi+3116]
  0001a	50		 push	 eax
  0001b	6a 01		 push	 1
  0001d	6a 04		 push	 4
  0001f	e8 00 00 00 00	 call	 ?BindParam@CSqlBase@@QAEFFFPAH@Z ; CSqlBase::BindParam
  00024	66 85 c0	 test	 ax, ax
  00027	74 06		 je	 SHORT $L84166
  00029	66 3d 01 00	 cmp	 ax, 1
  0002d	75 4f		 jne	 SHORT $L84161
$L84166:

; 349  : 	PARAM_ENTRY_STR(SQL_PARAM_INPUT, m_szID)

  0002f	85 ff		 test	 edi, edi
  00031	c7 86 14 08 00
	00 fd ff ff ff	 mov	 DWORD PTR [esi+2068], -3 ; fffffffdH
  0003b	75 14		 jne	 SHORT $L84167
  0003d	6a 33		 push	 51			; 00000033H
  0003f	8d 8e 30 0c 00
	00		 lea	 ecx, DWORD PTR [esi+3120]
  00045	51		 push	 ecx
  00046	6a 02		 push	 2
  00048	6a 01		 push	 1
  0004a	8b ce		 mov	 ecx, esi
  0004c	e8 00 00 00 00	 call	 ?BindParamStr@CSqlBase@@QAEFFFPADJ@Z ; CSqlBase::BindParamStr
$L84167:
  00051	66 85 c0	 test	 ax, ax
  00054	74 06		 je	 SHORT $L84168
  00056	66 3d 01 00	 cmp	 ax, 1
  0005a	75 22		 jne	 SHORT $L84161
$L84168:

; 350  : 	PARAM_ENTRY_STR(SQL_PARAM_INPUT, m_szPW)

  0005c	85 ff		 test	 edi, edi
  0005e	c7 86 18 08 00
	00 fd ff ff ff	 mov	 DWORD PTR [esi+2072], -3 ; fffffffdH
  00068	75 14		 jne	 SHORT $L84161
  0006a	6a 33		 push	 51			; 00000033H
  0006c	8d 96 63 0c 00
	00		 lea	 edx, DWORD PTR [esi+3171]
  00072	52		 push	 edx
  00073	6a 03		 push	 3
  00075	6a 01		 push	 1
  00077	8b ce		 mov	 ecx, esi
  00079	e8 00 00 00 00	 call	 ?BindParamStr@CSqlBase@@QAEFFFPADJ@Z ; CSqlBase::BindParamStr
$L84161:
  0007e	5f		 pop	 edi
  0007f	5e		 pop	 esi

; 351  : END_PARAM()

  00080	c2 04 00	 ret	 4
?BindParameters@CSPOPLogin@@UAEFH@Z ENDP		; CSPOPLogin::BindParameters
_TEXT	ENDS
PUBLIC	??1CSPOPLogin@@UAE@XZ				; CSPOPLogin::~CSPOPLogin
; Function compile flags: /Ogty
;	COMDAT ??_GCSPOPLogin@@UAEPAXI@Z
_TEXT	SEGMENT
___flags$ = 8						; size = 4
??_GCSPOPLogin@@UAEPAXI@Z PROC NEAR			; CSPOPLogin::`scalar deleting destructor', COMDAT
; _this$ = ecx
  00000	56		 push	 esi
  00001	8b f1		 mov	 esi, ecx
  00003	e8 00 00 00 00	 call	 ??1CSPOPLogin@@UAE@XZ
  00008	f6 44 24 08 01	 test	 BYTE PTR ___flags$[esp], 1
  0000d	74 09		 je	 SHORT $L92687
  0000f	56		 push	 esi
  00010	e8 00 00 00 00	 call	 ??3@YAXPAX@Z		; operator delete
  00015	83 c4 04	 add	 esp, 4
$L92687:
  00018	8b c6		 mov	 eax, esi
  0001a	5e		 pop	 esi
  0001b	c2 04 00	 ret	 4
??_GCSPOPLogin@@UAEPAXI@Z ENDP				; CSPOPLogin::`scalar deleting destructor'
; Function compile flags: /Ogty
_TEXT	ENDS
;	COMDAT ??1CSPOPLogin@@UAE@XZ
_TEXT	SEGMENT
??1CSPOPLogin@@UAE@XZ PROC NEAR				; CSPOPLogin::~CSPOPLogin, COMDAT
; _this$ = ecx
  00000	e9 00 00 00 00	 jmp	 ??1CSqlQuery@@UAE@XZ	; CSqlQuery::~CSqlQuery
??1CSPOPLogin@@UAE@XZ ENDP				; CSPOPLogin::~CSPOPLogin
_TEXT	ENDS
PUBLIC	??0CSPEventUpdate@@QAE@PAVCSqlDatabase@@V?$basic_string@DU?$char_traits@D@std@@V?$allocator@D@2@@std@@@Z ; CSPEventUpdate::CSPEventUpdate
PUBLIC	?GetNumParam@CSPEventUpdate@@UAEHXZ		; CSPEventUpdate::GetNumParam
PUBLIC	?BindParameters@CSPEventUpdate@@UAEFH@Z		; CSPEventUpdate::BindParameters
PUBLIC	??_7CSPEventUpdate@@6B@				; CSPEventUpdate::`vftable'
PUBLIC	??_GCSPEventUpdate@@UAEPAXI@Z			; CSPEventUpdate::`scalar deleting destructor'
PUBLIC	??_C@_0DN@JJBDGJHG@?$HL?$DP?5?$DN?5CALL?5TEventUpdate?$CI?$DP?0?$DP?0?$DP?0?$DP?0?$DP@ ; `string'
EXTRN	??_ECSPEventUpdate@@UAEPAXI@Z:NEAR		; CSPEventUpdate::`vector deleting destructor'
;	COMDAT xdata$x
; File c:\program files (x86)\microsoft visual studio .net 2003\vc7\include\iosfwd
xdata$x	SEGMENT
$T92870	DD	0ffffffffH
	DD	FLAT:$L92696
$T92867	DD	019930520H
	DD	01H
	DD	FLAT:$T92870
	DD	2 DUP(00H)
	DD	2 DUP(00H)
xdata$x	ENDS
;	COMDAT ??_C@_0DN@JJBDGJHG@?$HL?$DP?5?$DN?5CALL?5TEventUpdate?$CI?$DP?0?$DP?0?$DP?0?$DP?0?$DP@
CONST	SEGMENT
??_C@_0DN@JJBDGJHG@?$HL?$DP?5?$DN?5CALL?5TEventUpdate?$CI?$DP?0?$DP?0?$DP?0?$DP?0?$DP@ DB '{'
	DB	'? = CALL TEventUpdate(?,?,?,?,?,?,?,?,?,?,?,?,?,?,?,?,?,?)}', 00H ; `string'
CONST	ENDS
;	COMDAT ??_7CSPEventUpdate@@6B@
CONST	SEGMENT
??_7CSPEventUpdate@@6B@ DD FLAT:??_ECSPEventUpdate@@UAEPAXI@Z ; CSPEventUpdate::`vftable'
	DD	FLAT:?GetNumCol@CSqlBase@@UAEHXZ
	DD	FLAT:?GetNumParam@CSPEventUpdate@@UAEHXZ
	DD	FLAT:?AllocStatement@CSqlQuery@@UAEHXZ
	DD	FLAT:?BindColumns@CSqlQuery@@UAEFXZ
	DD	FLAT:?BindParameters@CSPEventUpdate@@UAEFH@Z
; Function compile flags: /Ogty
; File c:\users\pierr\desktop\4story - oldschool\sources\tserver\tcontrolsvr\dbaccess.h
CONST	ENDS
;	COMDAT ??0CSPEventUpdate@@QAE@PAVCSqlDatabase@@V?$basic_string@DU?$char_traits@D@std@@V?$allocator@D@2@@std@@@Z
_TEXT	SEGMENT
$T92695 = -16						; size = 4
__$EHRec$ = -12						; size = 12
_pdb$ = 8						; size = 4
_strKey$ = 12						; size = 28
??0CSPEventUpdate@@QAE@PAVCSqlDatabase@@V?$basic_string@DU?$char_traits@D@std@@V?$allocator@D@2@@std@@@Z PROC NEAR ; CSPEventUpdate::CSPEventUpdate, COMDAT
; _this$ = ecx

; 377  : DEF_QUERY(CSPEventUpdate,_T("{? = CALL TEventUpdate(?,?,?,?,?,?,?,?,?,?,?,?,?,?,?,?,?,?)}"))

  00000	6a ff		 push	 -1
  00002	68 00 00 00 00	 push	 __ehhandler$??0CSPEventUpdate@@QAE@PAVCSqlDatabase@@V?$basic_string@DU?$char_traits@D@std@@V?$allocator@D@2@@std@@@Z
  00007	64 a1 00 00 00
	00		 mov	 eax, DWORD PTR fs:__except_list
  0000d	50		 push	 eax
  0000e	64 89 25 00 00
	00 00		 mov	 DWORD PTR fs:__except_list, esp
  00015	51		 push	 ecx
  00016	56		 push	 esi
  00017	8b f1		 mov	 esi, ecx
  00019	68 00 00 00 00	 push	 OFFSET FLAT:??_C@_0DN@JJBDGJHG@?$HL?$DP?5?$DN?5CALL?5TEventUpdate?$CI?$DP?0?$DP?0?$DP?0?$DP?0?$DP@
  0001e	83 ec 1c	 sub	 esp, 28			; 0000001cH
  00021	8b cc		 mov	 ecx, esp
  00023	33 c0		 xor	 eax, eax
  00025	89 64 24 24	 mov	 DWORD PTR $T92695[esp+52], esp
  00029	6a ff		 push	 -1
  0002b	89 41 14	 mov	 DWORD PTR [ecx+20], eax
  0002e	c7 41 18 0f 00
	00 00		 mov	 DWORD PTR [ecx+24], 15	; 0000000fH
  00035	50		 push	 eax
  00036	89 44 24 38	 mov	 DWORD PTR __$EHRec$[esp+68], eax
  0003a	88 41 04	 mov	 BYTE PTR [ecx+4], al
  0003d	8d 44 24 44	 lea	 eax, DWORD PTR _strKey$[esp+56]
  00041	50		 push	 eax
  00042	e8 00 00 00 00	 call	 ?assign@?$basic_string@DU?$char_traits@D@std@@V?$allocator@D@2@@std@@QAEAAV12@ABV12@II@Z ; std::basic_string<char,std::char_traits<char>,std::allocator<char> >::assign
  00047	8b 4c 24 38	 mov	 ecx, DWORD PTR _pdb$[esp+48]
  0004b	51		 push	 ecx
  0004c	8b ce		 mov	 ecx, esi
  0004e	e8 00 00 00 00	 call	 ??0CSqlQuery@@QAE@PAVCSqlDatabase@@V?$basic_string@DU?$char_traits@D@std@@V?$allocator@D@2@@std@@PBD@Z ; CSqlQuery::CSqlQuery
  00053	83 7c 24 34 10	 cmp	 DWORD PTR _strKey$[esp+40], 16 ; 00000010H
  00058	c7 06 00 00 00
	00		 mov	 DWORD PTR [esi], OFFSET FLAT:??_7CSPEventUpdate@@6B@
  0005e	72 0d		 jb	 SHORT $L92868
  00060	8b 54 24 20	 mov	 edx, DWORD PTR _strKey$[esp+20]
  00064	52		 push	 edx
  00065	e8 00 00 00 00	 call	 ??3@YAXPAX@Z		; operator delete
  0006a	83 c4 04	 add	 esp, 4
$L92868:
  0006d	8b 4c 24 08	 mov	 ecx, DWORD PTR __$EHRec$[esp+20]
  00071	8b c6		 mov	 eax, esi
  00073	64 89 0d 00 00
	00 00		 mov	 DWORD PTR fs:__except_list, ecx
  0007a	5e		 pop	 esi
  0007b	83 c4 10	 add	 esp, 16			; 00000010H
  0007e	c2 20 00	 ret	 32			; 00000020H
_TEXT	ENDS
;	COMDAT text$x
text$x	SEGMENT
$L92696:
  00000	8d 4d 08	 lea	 ecx, DWORD PTR _strKey$[ebp-4]
  00003	e9 00 00 00 00	 jmp	 ??1?$basic_string@DU?$char_traits@D@std@@V?$allocator@D@2@@std@@QAE@XZ ; std::basic_string<char,std::char_traits<char>,std::allocator<char> >::~basic_string<char,std::char_traits<char>,std::allocator<char> >
__ehhandler$??0CSPEventUpdate@@QAE@PAVCSqlDatabase@@V?$basic_string@DU?$char_traits@D@std@@V?$allocator@D@2@@std@@@Z:
  00008	b8 00 00 00 00	 mov	 eax, OFFSET FLAT:$T92867
  0000d	e9 00 00 00 00	 jmp	 ___CxxFrameHandler
text$x	ENDS
??0CSPEventUpdate@@QAE@PAVCSqlDatabase@@V?$basic_string@DU?$char_traits@D@std@@V?$allocator@D@2@@std@@@Z ENDP ; CSPEventUpdate::CSPEventUpdate
; Function compile flags: /Ogty
;	COMDAT ?GetNumParam@CSPEventUpdate@@UAEHXZ
_TEXT	SEGMENT
?GetNumParam@CSPEventUpdate@@UAEHXZ PROC NEAR		; CSPEventUpdate::GetNumParam, COMDAT
; _this$ = ecx

; 379  : BEGIN_PARAM(19)

  00000	b8 13 00 00 00	 mov	 eax, 19			; 00000013H
  00005	c3		 ret	 0
?GetNumParam@CSPEventUpdate@@UAEHXZ ENDP		; CSPEventUpdate::GetNumParam
_TEXT	ENDS
EXTRN	?BindParam@CSqlBase@@QAEFFFPAUtagTIMESTAMP_STRUCT@@@Z:NEAR ; CSqlBase::BindParam
; Function compile flags: /Ogty
;	COMDAT ?BindParameters@CSPEventUpdate@@UAEFH@Z
_TEXT	SEGMENT
_bRewind$ = 8						; size = 4
?BindParameters@CSPEventUpdate@@UAEFH@Z PROC NEAR	; CSPEventUpdate::BindParameters, COMDAT
; _this$ = ecx

; 379  : BEGIN_PARAM(19)

  00000	53		 push	 ebx
  00001	56		 push	 esi
  00002	57		 push	 edi

; 380  : 	PARAM_ENTRY(SQL_PARAM_OUTPUT,m_nRET)

  00003	8b 7c 24 10	 mov	 edi, DWORD PTR _bRewind$[esp+8]
  00007	33 db		 xor	 ebx, ebx
  00009	8b f1		 mov	 esi, ecx
  0000b	33 c0		 xor	 eax, eax
  0000d	3b fb		 cmp	 edi, ebx
  0000f	89 9e 10 08 00
	00		 mov	 DWORD PTR [esi+2064], ebx
  00015	75 1f		 jne	 SHORT $L92879
  00017	8d 86 2c 0c 00
	00		 lea	 eax, DWORD PTR [esi+3116]
  0001d	50		 push	 eax
  0001e	6a 01		 push	 1
  00020	6a 04		 push	 4
  00022	e8 00 00 00 00	 call	 ?BindParam@CSqlBase@@QAEFFFPAH@Z ; CSqlBase::BindParam
  00027	66 3b c3	 cmp	 ax, bx
  0002a	74 0a		 je	 SHORT $L92879
  0002c	66 3d 01 00	 cmp	 ax, 1
  00030	0f 85 08 03 00
	00		 jne	 $L84226
$L92879:

; 381  : 	PARAM_ENTRY(SQL_PARAM_INPUT,m_dwIndex)

  00036	3b fb		 cmp	 edi, ebx
  00038	89 9e 14 08 00
	00		 mov	 DWORD PTR [esi+2068], ebx
  0003e	75 12		 jne	 SHORT $L92881
  00040	8d 8e 30 0c 00
	00		 lea	 ecx, DWORD PTR [esi+3120]
  00046	51		 push	 ecx
  00047	6a 02		 push	 2
  00049	6a 01		 push	 1
  0004b	8b ce		 mov	 ecx, esi
  0004d	e8 00 00 00 00	 call	 ?BindParam@CSqlBase@@QAEFFFPAK@Z ; CSqlBase::BindParam
$L92881:
  00052	66 3b c3	 cmp	 ax, bx
  00055	74 0a		 je	 SHORT $L92895
  00057	66 3d 01 00	 cmp	 ax, 1
  0005b	0f 85 dd 02 00
	00		 jne	 $L84226
$L92895:

; 382  : 	PARAM_ENTRY(SQL_PARAM_INPUT,m_bID)

  00061	3b fb		 cmp	 edi, ebx
  00063	89 9e 18 08 00
	00		 mov	 DWORD PTR [esi+2072], ebx
  00069	75 12		 jne	 SHORT $L92896
  0006b	8d 96 34 0c 00
	00		 lea	 edx, DWORD PTR [esi+3124]
  00071	52		 push	 edx
  00072	6a 03		 push	 3
  00074	6a 01		 push	 1
  00076	8b ce		 mov	 ecx, esi
  00078	e8 00 00 00 00	 call	 ?BindParam@CSqlBase@@QAEFFFPAE@Z ; CSqlBase::BindParam
$L92896:
  0007d	66 3b c3	 cmp	 ax, bx
  00080	74 0a		 je	 SHORT $L92897
  00082	66 3d 01 00	 cmp	 ax, 1
  00086	0f 85 b2 02 00
	00		 jne	 $L84226
$L92897:

; 383  : 	PARAM_ENTRY(SQL_PARAM_INPUT,m_bType)

  0008c	3b fb		 cmp	 edi, ebx
  0008e	89 9e 1c 08 00
	00		 mov	 DWORD PTR [esi+2076], ebx
  00094	75 12		 jne	 SHORT $L92898
  00096	8d 86 35 0c 00
	00		 lea	 eax, DWORD PTR [esi+3125]
  0009c	50		 push	 eax
  0009d	6a 04		 push	 4
  0009f	6a 01		 push	 1
  000a1	8b ce		 mov	 ecx, esi
  000a3	e8 00 00 00 00	 call	 ?BindParam@CSqlBase@@QAEFFFPAE@Z ; CSqlBase::BindParam
$L92898:
  000a8	66 3b c3	 cmp	 ax, bx
  000ab	74 0a		 je	 SHORT $L84237
  000ad	66 3d 01 00	 cmp	 ax, 1
  000b1	0f 85 87 02 00
	00		 jne	 $L84226
$L84237:

; 384  : 	PARAM_ENTRY_STR(SQL_PARAM_INPUT,m_strTitle)

  000b7	3b fb		 cmp	 edi, ebx
  000b9	55		 push	 ebp
  000ba	bd fd ff ff ff	 mov	 ebp, -3			; fffffffdH
  000bf	89 ae 20 08 00
	00		 mov	 DWORD PTR [esi+2080], ebp
  000c5	75 14		 jne	 SHORT $L84238
  000c7	6a 33		 push	 51			; 00000033H
  000c9	8d 8e 36 0c 00
	00		 lea	 ecx, DWORD PTR [esi+3126]
  000cf	51		 push	 ecx
  000d0	6a 05		 push	 5
  000d2	6a 01		 push	 1
  000d4	8b ce		 mov	 ecx, esi
  000d6	e8 00 00 00 00	 call	 ?BindParamStr@CSqlBase@@QAEFFFPADJ@Z ; CSqlBase::BindParamStr
$L84238:
  000db	66 3b c3	 cmp	 ax, bx
  000de	74 0a		 je	 SHORT $L92880
  000e0	66 3d 01 00	 cmp	 ax, 1
  000e4	0f 85 53 02 00
	00		 jne	 $L92899
$L92880:

; 385  : 	PARAM_ENTRY(SQL_PARAM_INPUT,m_bGroupID)

  000ea	3b fb		 cmp	 edi, ebx
  000ec	89 9e 24 08 00
	00		 mov	 DWORD PTR [esi+2084], ebx
  000f2	75 12		 jne	 SHORT $L84240
  000f4	8d 96 69 0c 00
	00		 lea	 edx, DWORD PTR [esi+3177]
  000fa	52		 push	 edx
  000fb	6a 06		 push	 6
  000fd	6a 01		 push	 1
  000ff	8b ce		 mov	 ecx, esi
  00101	e8 00 00 00 00	 call	 ?BindParam@CSqlBase@@QAEFFFPAE@Z ; CSqlBase::BindParam
$L84240:
  00106	66 3b c3	 cmp	 ax, bx
  00109	74 0a		 je	 SHORT $L92882
  0010b	66 3d 01 00	 cmp	 ax, 1
  0010f	0f 85 28 02 00
	00		 jne	 $L92899
$L92882:

; 386  : 	PARAM_ENTRY(SQL_PARAM_INPUT,m_bSvrType)

  00115	3b fb		 cmp	 edi, ebx
  00117	89 9e 28 08 00
	00		 mov	 DWORD PTR [esi+2088], ebx
  0011d	75 12		 jne	 SHORT $L84242
  0011f	8d 86 6a 0c 00
	00		 lea	 eax, DWORD PTR [esi+3178]
  00125	50		 push	 eax
  00126	6a 07		 push	 7
  00128	6a 01		 push	 1
  0012a	8b ce		 mov	 ecx, esi
  0012c	e8 00 00 00 00	 call	 ?BindParam@CSqlBase@@QAEFFFPAE@Z ; CSqlBase::BindParam
$L84242:
  00131	66 3b c3	 cmp	 ax, bx
  00134	74 0a		 je	 SHORT $L92883
  00136	66 3d 01 00	 cmp	 ax, 1
  0013a	0f 85 fd 01 00
	00		 jne	 $L92899
$L92883:

; 387  : 	PARAM_ENTRY(SQL_PARAM_INPUT,m_bSvrID)

  00140	3b fb		 cmp	 edi, ebx
  00142	89 9e 2c 08 00
	00		 mov	 DWORD PTR [esi+2092], ebx
  00148	75 12		 jne	 SHORT $L84244
  0014a	8d 8e 6b 0c 00
	00		 lea	 ecx, DWORD PTR [esi+3179]
  00150	51		 push	 ecx
  00151	6a 08		 push	 8
  00153	6a 01		 push	 1
  00155	8b ce		 mov	 ecx, esi
  00157	e8 00 00 00 00	 call	 ?BindParam@CSqlBase@@QAEFFFPAE@Z ; CSqlBase::BindParam
$L84244:
  0015c	66 3b c3	 cmp	 ax, bx
  0015f	74 0a		 je	 SHORT $L92884
  00161	66 3d 01 00	 cmp	 ax, 1
  00165	0f 85 d2 01 00
	00		 jne	 $L92899
$L92884:

; 388  : 	PARAM_ENTRY(SQL_PARAM_INPUT,m_dStartDate)

  0016b	3b fb		 cmp	 edi, ebx
  0016d	89 9e 30 08 00
	00		 mov	 DWORD PTR [esi+2096], ebx
  00173	75 12		 jne	 SHORT $L84246
  00175	8d 96 6c 0c 00
	00		 lea	 edx, DWORD PTR [esi+3180]
  0017b	52		 push	 edx
  0017c	6a 09		 push	 9
  0017e	6a 01		 push	 1
  00180	8b ce		 mov	 ecx, esi
  00182	e8 00 00 00 00	 call	 ?BindParam@CSqlBase@@QAEFFFPAUtagTIMESTAMP_STRUCT@@@Z ; CSqlBase::BindParam
$L84246:
  00187	66 3b c3	 cmp	 ax, bx
  0018a	74 0a		 je	 SHORT $L92885
  0018c	66 3d 01 00	 cmp	 ax, 1
  00190	0f 85 a7 01 00
	00		 jne	 $L92899
$L92885:

; 389  : 	PARAM_ENTRY(SQL_PARAM_INPUT,m_dEndDate)

  00196	3b fb		 cmp	 edi, ebx
  00198	89 9e 34 08 00
	00		 mov	 DWORD PTR [esi+2100], ebx
  0019e	75 12		 jne	 SHORT $L84248
  001a0	8d 86 7c 0c 00
	00		 lea	 eax, DWORD PTR [esi+3196]
  001a6	50		 push	 eax
  001a7	6a 0a		 push	 10			; 0000000aH
  001a9	6a 01		 push	 1
  001ab	8b ce		 mov	 ecx, esi
  001ad	e8 00 00 00 00	 call	 ?BindParam@CSqlBase@@QAEFFFPAUtagTIMESTAMP_STRUCT@@@Z ; CSqlBase::BindParam
$L84248:
  001b2	66 3b c3	 cmp	 ax, bx
  001b5	74 0a		 je	 SHORT $L92886
  001b7	66 3d 01 00	 cmp	 ax, 1
  001bb	0f 85 7c 01 00
	00		 jne	 $L92899
$L92886:

; 390  : 	PARAM_ENTRY(SQL_PARAM_INPUT,m_wValue)

  001c1	3b fb		 cmp	 edi, ebx
  001c3	89 9e 38 08 00
	00		 mov	 DWORD PTR [esi+2104], ebx
  001c9	75 12		 jne	 SHORT $L84250
  001cb	8d 8e 8c 0c 00
	00		 lea	 ecx, DWORD PTR [esi+3212]
  001d1	51		 push	 ecx
  001d2	6a 0b		 push	 11			; 0000000bH
  001d4	6a 01		 push	 1
  001d6	8b ce		 mov	 ecx, esi
  001d8	e8 00 00 00 00	 call	 ?BindParam@CSqlBase@@QAEFFFPAG@Z ; CSqlBase::BindParam
$L84250:
  001dd	66 3b c3	 cmp	 ax, bx
  001e0	74 0a		 je	 SHORT $L92887
  001e2	66 3d 01 00	 cmp	 ax, 1
  001e6	0f 85 51 01 00
	00		 jne	 $L92899
$L92887:

; 391  : 	PARAM_ENTRY(SQL_PARAM_INPUT,m_wMapID)

  001ec	3b fb		 cmp	 edi, ebx
  001ee	89 9e 3c 08 00
	00		 mov	 DWORD PTR [esi+2108], ebx
  001f4	75 12		 jne	 SHORT $L84252
  001f6	8d 96 8e 0c 00
	00		 lea	 edx, DWORD PTR [esi+3214]
  001fc	52		 push	 edx
  001fd	6a 0c		 push	 12			; 0000000cH
  001ff	6a 01		 push	 1
  00201	8b ce		 mov	 ecx, esi
  00203	e8 00 00 00 00	 call	 ?BindParam@CSqlBase@@QAEFFFPAG@Z ; CSqlBase::BindParam
$L84252:
  00208	66 3b c3	 cmp	 ax, bx
  0020b	74 0a		 je	 SHORT $L92888
  0020d	66 3d 01 00	 cmp	 ax, 1
  00211	0f 85 26 01 00
	00		 jne	 $L92899
$L92888:

; 392  : 	PARAM_ENTRY(SQL_PARAM_INPUT,m_dwStartAlarm)

  00217	3b fb		 cmp	 edi, ebx
  00219	89 9e 40 08 00
	00		 mov	 DWORD PTR [esi+2112], ebx
  0021f	75 12		 jne	 SHORT $L84254
  00221	8d 86 90 0c 00
	00		 lea	 eax, DWORD PTR [esi+3216]
  00227	50		 push	 eax
  00228	6a 0d		 push	 13			; 0000000dH
  0022a	6a 01		 push	 1
  0022c	8b ce		 mov	 ecx, esi
  0022e	e8 00 00 00 00	 call	 ?BindParam@CSqlBase@@QAEFFFPAK@Z ; CSqlBase::BindParam
$L84254:
  00233	66 3b c3	 cmp	 ax, bx
  00236	74 0a		 je	 SHORT $L92889
  00238	66 3d 01 00	 cmp	 ax, 1
  0023c	0f 85 fb 00 00
	00		 jne	 $L92899
$L92889:

; 393  : 	PARAM_ENTRY(SQL_PARAM_INPUT,m_dwEndAlarm)

  00242	3b fb		 cmp	 edi, ebx
  00244	89 9e 44 08 00
	00		 mov	 DWORD PTR [esi+2116], ebx
  0024a	75 12		 jne	 SHORT $L84256
  0024c	8d 8e 94 0c 00
	00		 lea	 ecx, DWORD PTR [esi+3220]
  00252	51		 push	 ecx
  00253	6a 0e		 push	 14			; 0000000eH
  00255	6a 01		 push	 1
  00257	8b ce		 mov	 ecx, esi
  00259	e8 00 00 00 00	 call	 ?BindParam@CSqlBase@@QAEFFFPAK@Z ; CSqlBase::BindParam
$L84256:
  0025e	66 3b c3	 cmp	 ax, bx
  00261	74 0a		 je	 SHORT $L92890
  00263	66 3d 01 00	 cmp	 ax, 1
  00267	0f 85 d0 00 00
	00		 jne	 $L92899
$L92890:

; 394  : 	PARAM_ENTRY(SQL_PARAM_INPUT,m_bPartTime)

  0026d	3b fb		 cmp	 edi, ebx
  0026f	89 9e 48 08 00
	00		 mov	 DWORD PTR [esi+2120], ebx
  00275	75 12		 jne	 SHORT $L84258
  00277	8d 96 98 0c 00
	00		 lea	 edx, DWORD PTR [esi+3224]
  0027d	52		 push	 edx
  0027e	6a 0f		 push	 15			; 0000000fH
  00280	6a 01		 push	 1
  00282	8b ce		 mov	 ecx, esi
  00284	e8 00 00 00 00	 call	 ?BindParam@CSqlBase@@QAEFFFPAE@Z ; CSqlBase::BindParam
$L84258:
  00289	66 3b c3	 cmp	 ax, bx
  0028c	74 0a		 je	 SHORT $L92891
  0028e	66 3d 01 00	 cmp	 ax, 1
  00292	0f 85 a5 00 00
	00		 jne	 $L92899
$L92891:

; 395  : 	PARAM_ENTRY_STR(SQL_PARAM_INPUT,m_szStartMsg)

  00298	3b fb		 cmp	 edi, ebx
  0029a	89 ae 4c 08 00
	00		 mov	 DWORD PTR [esi+2124], ebp
  002a0	75 17		 jne	 SHORT $L84260
  002a2	68 01 08 00 00	 push	 2049			; 00000801H
  002a7	8d 86 99 0c 00
	00		 lea	 eax, DWORD PTR [esi+3225]
  002ad	50		 push	 eax
  002ae	6a 10		 push	 16			; 00000010H
  002b0	6a 01		 push	 1
  002b2	8b ce		 mov	 ecx, esi
  002b4	e8 00 00 00 00	 call	 ?BindParamStr@CSqlBase@@QAEFFFPADJ@Z ; CSqlBase::BindParamStr
$L84260:
  002b9	66 3b c3	 cmp	 ax, bx
  002bc	74 06		 je	 SHORT $L92892
  002be	66 3d 01 00	 cmp	 ax, 1
  002c2	75 79		 jne	 SHORT $L92899
$L92892:

; 396  : 	PARAM_ENTRY_STR(SQL_PARAM_INPUT,m_szMidMsg)

  002c4	3b fb		 cmp	 edi, ebx
  002c6	89 ae 50 08 00
	00		 mov	 DWORD PTR [esi+2128], ebp
  002cc	75 17		 jne	 SHORT $L84262
  002ce	68 01 08 00 00	 push	 2049			; 00000801H
  002d3	8d 8e 9a 14 00
	00		 lea	 ecx, DWORD PTR [esi+5274]
  002d9	51		 push	 ecx
  002da	6a 11		 push	 17			; 00000011H
  002dc	6a 01		 push	 1
  002de	8b ce		 mov	 ecx, esi
  002e0	e8 00 00 00 00	 call	 ?BindParamStr@CSqlBase@@QAEFFFPADJ@Z ; CSqlBase::BindParamStr
$L84262:
  002e5	66 3b c3	 cmp	 ax, bx
  002e8	74 06		 je	 SHORT $L92893
  002ea	66 3d 01 00	 cmp	 ax, 1
  002ee	75 4d		 jne	 SHORT $L92899
$L92893:

; 397  : 	PARAM_ENTRY_STR(SQL_PARAM_INPUT,m_szEndMsg)

  002f0	3b fb		 cmp	 edi, ebx
  002f2	89 ae 54 08 00
	00		 mov	 DWORD PTR [esi+2132], ebp
  002f8	75 17		 jne	 SHORT $L84264
  002fa	68 01 08 00 00	 push	 2049			; 00000801H
  002ff	8d 96 9b 1c 00
	00		 lea	 edx, DWORD PTR [esi+7323]
  00305	52		 push	 edx
  00306	6a 12		 push	 18			; 00000012H
  00308	6a 01		 push	 1
  0030a	8b ce		 mov	 ecx, esi
  0030c	e8 00 00 00 00	 call	 ?BindParamStr@CSqlBase@@QAEFFFPADJ@Z ; CSqlBase::BindParamStr
$L84264:
  00311	66 3b c3	 cmp	 ax, bx
  00314	74 06		 je	 SHORT $L92894
  00316	66 3d 01 00	 cmp	 ax, 1
  0031a	75 21		 jne	 SHORT $L92899
$L92894:

; 398  : 	PARAM_ENTRY_STR(SQL_PARAM_INPUT,m_szValue)

  0031c	3b fb		 cmp	 edi, ebx
  0031e	89 ae 58 08 00
	00		 mov	 DWORD PTR [esi+2136], ebp
  00324	75 17		 jne	 SHORT $L92899
  00326	68 01 08 00 00	 push	 2049			; 00000801H
  0032b	8d 86 9c 24 00
	00		 lea	 eax, DWORD PTR [esi+9372]
  00331	50		 push	 eax
  00332	6a 13		 push	 19			; 00000013H
  00334	6a 01		 push	 1
  00336	8b ce		 mov	 ecx, esi
  00338	e8 00 00 00 00	 call	 ?BindParamStr@CSqlBase@@QAEFFFPADJ@Z ; CSqlBase::BindParamStr
$L92899:
  0033d	5d		 pop	 ebp
$L84226:
  0033e	5f		 pop	 edi
  0033f	5e		 pop	 esi
  00340	5b		 pop	 ebx

; 399  : END_PARAM()

  00341	c2 04 00	 ret	 4
?BindParameters@CSPEventUpdate@@UAEFH@Z ENDP		; CSPEventUpdate::BindParameters
_TEXT	ENDS
PUBLIC	??1CSPEventUpdate@@UAE@XZ			; CSPEventUpdate::~CSPEventUpdate
; Function compile flags: /Ogty
;	COMDAT ??_GCSPEventUpdate@@UAEPAXI@Z
_TEXT	SEGMENT
___flags$ = 8						; size = 4
??_GCSPEventUpdate@@UAEPAXI@Z PROC NEAR			; CSPEventUpdate::`scalar deleting destructor', COMDAT
; _this$ = ecx
  00000	56		 push	 esi
  00001	8b f1		 mov	 esi, ecx
  00003	e8 00 00 00 00	 call	 ??1CSPEventUpdate@@UAE@XZ
  00008	f6 44 24 08 01	 test	 BYTE PTR ___flags$[esp], 1
  0000d	74 09		 je	 SHORT $L92903
  0000f	56		 push	 esi
  00010	e8 00 00 00 00	 call	 ??3@YAXPAX@Z		; operator delete
  00015	83 c4 04	 add	 esp, 4
$L92903:
  00018	8b c6		 mov	 eax, esi
  0001a	5e		 pop	 esi
  0001b	c2 04 00	 ret	 4
??_GCSPEventUpdate@@UAEPAXI@Z ENDP			; CSPEventUpdate::`scalar deleting destructor'
; Function compile flags: /Ogty
_TEXT	ENDS
;	COMDAT ??1CSPEventUpdate@@UAE@XZ
_TEXT	SEGMENT
??1CSPEventUpdate@@UAE@XZ PROC NEAR			; CSPEventUpdate::~CSPEventUpdate, COMDAT
; _this$ = ecx
  00000	e9 00 00 00 00	 jmp	 ??1CSqlQuery@@UAE@XZ	; CSqlQuery::~CSqlQuery
??1CSPEventUpdate@@UAE@XZ ENDP				; CSPEventUpdate::~CSPEventUpdate
_TEXT	ENDS
PUBLIC	?InitQueryTControlSvr@@YAHPAVCSqlDatabase@@@Z	; InitQueryTControlSvr
PUBLIC	??_C@_0M@NMPMFOM@CTBLMachine?$AA@		; `string'
PUBLIC	??_C@_0M@CFLIPMCK@CTBLNetwork?$AA@		; `string'
PUBLIC	??_C@_09CBFKFMKO@CTBLGroup?$AA@			; `string'
PUBLIC	??_C@_0M@CMHNBJOJ@CTBLSvrType?$AA@		; `string'
PUBLIC	??_C@_0L@DBCMNIHP@CTBLServer?$AA@		; `string'
PUBLIC	??_C@_0L@LLGGLKJE@CTBLIPAddr?$AA@		; `string'
PUBLIC	??_C@_0M@FFEIKIAH@CTBLManager?$AA@		; `string'
PUBLIC	??_C@_09ICLADCJE@CTBLEvent?$AA@			; `string'
PUBLIC	??_C@_0P@PFMHOGAK@CTBLPreVersion?$AA@		; `string'
PUBLIC	??_C@_0P@DCAEHDBG@CSPUpdatePatch?$AA@		; `string'
PUBLIC	??_C@_0BE@MFEICKNN@CSPUserProtectedAdd?$AA@	; `string'
PUBLIC	??_C@_0BA@FLJPGKEH@CSPSvrStatusSMS?$AA@		; `string'
PUBLIC	??_C@_0P@EOMPGPJC@CSPLoadService?$AA@		; `string'
PUBLIC	??_C@_0L@FBLKCHIB@CSPOPLogin?$AA@		; `string'
PUBLIC	??_C@_0P@EKPNLDEH@CSPEventUpdate?$AA@		; `string'
PUBLIC	??_C@_0BB@CKCJFDDH@CTBLCashShopItem?$AA@	; `string'
PUBLIC	??_C@_0BC@KEFPCEAB@CSPUpdatePrePatch?$AA@	; `string'
PUBLIC	??_C@_0N@HLPJDCDB@CSPBetaToVer?$AA@		; `string'
PUBLIC	??_C@_0BE@HLGEHHLP@CSPDeletePreVersion?$AA@	; `string'
;	COMDAT xdata$x
; File c:\program files (x86)\microsoft visual studio .net 2003\vc7\include\iosfwd
xdata$x	SEGMENT
$T93267	DD	0ffffffffH
	DD	FLAT:$L93011
	DD	0ffffffffH
	DD	FLAT:$L93013
	DD	0ffffffffH
	DD	FLAT:$L93015
	DD	0ffffffffH
	DD	FLAT:$L93017
	DD	0ffffffffH
	DD	FLAT:$L93019
	DD	0ffffffffH
	DD	FLAT:$L93021
	DD	0ffffffffH
	DD	FLAT:$L93023
	DD	0ffffffffH
	DD	FLAT:$L93025
	DD	0ffffffffH
	DD	FLAT:$L93027
	DD	0ffffffffH
	DD	FLAT:$L93029
	DD	0ffffffffH
	DD	FLAT:$L93031
	DD	0ffffffffH
	DD	FLAT:$L93033
	DD	0ffffffffH
	DD	FLAT:$L93035
	DD	0ffffffffH
	DD	FLAT:$L93037
	DD	0ffffffffH
	DD	FLAT:$L93039
	DD	0ffffffffH
	DD	FLAT:$L93041
	DD	0ffffffffH
	DD	FLAT:$L93043
	DD	0ffffffffH
	DD	FLAT:$L93045
	DD	0ffffffffH
	DD	FLAT:$L93047
	DD	0ffffffffH
	DD	FLAT:$L93049
$T93264	DD	019930520H
	DD	014H
	DD	FLAT:$T93267
	DD	2 DUP(00H)
	DD	2 DUP(00H)
xdata$x	ENDS
;	COMDAT ??_C@_0M@NMPMFOM@CTBLMachine?$AA@
CONST	SEGMENT
??_C@_0M@NMPMFOM@CTBLMachine?$AA@ DB 'CTBLMachine', 00H	; `string'
CONST	ENDS
;	COMDAT ??_C@_0M@CFLIPMCK@CTBLNetwork?$AA@
CONST	SEGMENT
??_C@_0M@CFLIPMCK@CTBLNetwork?$AA@ DB 'CTBLNetwork', 00H ; `string'
CONST	ENDS
;	COMDAT ??_C@_09CBFKFMKO@CTBLGroup?$AA@
CONST	SEGMENT
??_C@_09CBFKFMKO@CTBLGroup?$AA@ DB 'CTBLGroup', 00H	; `string'
CONST	ENDS
;	COMDAT ??_C@_0M@CMHNBJOJ@CTBLSvrType?$AA@
CONST	SEGMENT
??_C@_0M@CMHNBJOJ@CTBLSvrType?$AA@ DB 'CTBLSvrType', 00H ; `string'
CONST	ENDS
;	COMDAT ??_C@_0L@DBCMNIHP@CTBLServer?$AA@
CONST	SEGMENT
??_C@_0L@DBCMNIHP@CTBLServer?$AA@ DB 'CTBLServer', 00H	; `string'
CONST	ENDS
;	COMDAT ??_C@_0L@LLGGLKJE@CTBLIPAddr?$AA@
CONST	SEGMENT
??_C@_0L@LLGGLKJE@CTBLIPAddr?$AA@ DB 'CTBLIPAddr', 00H	; `string'
CONST	ENDS
;	COMDAT ??_C@_0M@FFEIKIAH@CTBLManager?$AA@
CONST	SEGMENT
??_C@_0M@FFEIKIAH@CTBLManager?$AA@ DB 'CTBLManager', 00H ; `string'
CONST	ENDS
;	COMDAT ??_C@_09ICLADCJE@CTBLEvent?$AA@
CONST	SEGMENT
??_C@_09ICLADCJE@CTBLEvent?$AA@ DB 'CTBLEvent', 00H	; `string'
CONST	ENDS
;	COMDAT ??_C@_0P@PFMHOGAK@CTBLPreVersion?$AA@
CONST	SEGMENT
??_C@_0P@PFMHOGAK@CTBLPreVersion?$AA@ DB 'CTBLPreVersion', 00H ; `string'
CONST	ENDS
;	COMDAT ??_C@_0P@DCAEHDBG@CSPUpdatePatch?$AA@
CONST	SEGMENT
??_C@_0P@DCAEHDBG@CSPUpdatePatch?$AA@ DB 'CSPUpdatePatch', 00H ; `string'
CONST	ENDS
;	COMDAT ??_C@_0BE@MFEICKNN@CSPUserProtectedAdd?$AA@
CONST	SEGMENT
??_C@_0BE@MFEICKNN@CSPUserProtectedAdd?$AA@ DB 'CSPUserProtectedAdd', 00H ; `string'
CONST	ENDS
;	COMDAT ??_C@_0BA@FLJPGKEH@CSPSvrStatusSMS?$AA@
CONST	SEGMENT
??_C@_0BA@FLJPGKEH@CSPSvrStatusSMS?$AA@ DB 'CSPSvrStatusSMS', 00H ; `string'
CONST	ENDS
;	COMDAT ??_C@_0P@EOMPGPJC@CSPLoadService?$AA@
CONST	SEGMENT
??_C@_0P@EOMPGPJC@CSPLoadService?$AA@ DB 'CSPLoadService', 00H ; `string'
CONST	ENDS
;	COMDAT ??_C@_0L@FBLKCHIB@CSPOPLogin?$AA@
CONST	SEGMENT
??_C@_0L@FBLKCHIB@CSPOPLogin?$AA@ DB 'CSPOPLogin', 00H	; `string'
CONST	ENDS
;	COMDAT ??_C@_0P@EKPNLDEH@CSPEventUpdate?$AA@
CONST	SEGMENT
??_C@_0P@EKPNLDEH@CSPEventUpdate?$AA@ DB 'CSPEventUpdate', 00H ; `string'
CONST	ENDS
;	COMDAT ??_C@_0BB@CKCJFDDH@CTBLCashShopItem?$AA@
CONST	SEGMENT
??_C@_0BB@CKCJFDDH@CTBLCashShopItem?$AA@ DB 'CTBLCashShopItem', 00H ; `string'
CONST	ENDS
;	COMDAT ??_C@_0BC@KEFPCEAB@CSPUpdatePrePatch?$AA@
CONST	SEGMENT
??_C@_0BC@KEFPCEAB@CSPUpdatePrePatch?$AA@ DB 'CSPUpdatePrePatch', 00H ; `string'
CONST	ENDS
;	COMDAT ??_C@_0N@HLPJDCDB@CSPBetaToVer?$AA@
CONST	SEGMENT
??_C@_0N@HLPJDCDB@CSPBetaToVer?$AA@ DB 'CSPBetaToVer', 00H ; `string'
CONST	ENDS
;	COMDAT ??_C@_0BE@HLGEHHLP@CSPDeletePreVersion?$AA@
CONST	SEGMENT
??_C@_0BE@HLGEHHLP@CSPDeletePreVersion?$AA@ DB 'CSPDeletePreVersion', 00H ; `string'
; Function compile flags: /Ogty
; File c:\users\pierr\desktop\4story - oldschool\sources\tserver\tcontrolsvr\dbaccess.cpp
CONST	ENDS
;	COMDAT ?InitQueryTControlSvr@@YAHPAVCSqlDatabase@@@Z
_TEXT	SEGMENT
$T93008 = -20						; size = 4
$T93003 = -20						; size = 4
$T92998 = -20						; size = 4
$T92993 = -20						; size = 4
$T92988 = -20						; size = 4
$T92983 = -20						; size = 4
$T92978 = -20						; size = 4
$T92973 = -20						; size = 4
$T92968 = -20						; size = 4
$T92963 = -20						; size = 4
$T92958 = -20						; size = 4
$T92953 = -20						; size = 4
$T92948 = -20						; size = 4
$T92943 = -20						; size = 4
$T92938 = -20						; size = 4
$T92933 = -20						; size = 4
$T92928 = -20						; size = 4
$T92923 = -20						; size = 4
$T92918 = -20						; size = 4
$T92912 = -20						; size = 4
$T93007 = -16						; size = 4
$T93002 = -16						; size = 4
$T92997 = -16						; size = 4
$T92992 = -16						; size = 4
$T92987 = -16						; size = 4
$T92982 = -16						; size = 4
$T92977 = -16						; size = 4
$T92972 = -16						; size = 4
$T92967 = -16						; size = 4
$T92962 = -16						; size = 4
$T92957 = -16						; size = 4
$T92952 = -16						; size = 4
$T92947 = -16						; size = 4
$T92942 = -16						; size = 4
$T92937 = -16						; size = 4
$T92932 = -16						; size = 4
$T92927 = -16						; size = 4
$T92922 = -16						; size = 4
$T92917 = -16						; size = 4
$T92913 = -16						; size = 4
__$EHRec$ = -12						; size = 12
_pdb$ = 8						; size = 4
?InitQueryTControlSvr@@YAHPAVCSqlDatabase@@@Z PROC NEAR	; InitQueryTControlSvr, COMDAT

; 3    : BEGIN_INIT_QUERY(TControlSvr)

  00000	6a ff		 push	 -1
  00002	68 00 00 00 00	 push	 __ehhandler$?InitQueryTControlSvr@@YAHPAVCSqlDatabase@@@Z
  00007	64 a1 00 00 00
	00		 mov	 eax, DWORD PTR fs:__except_list
  0000d	50		 push	 eax
  0000e	64 89 25 00 00
	00 00		 mov	 DWORD PTR fs:__except_list, esp
  00015	83 ec 08	 sub	 esp, 8
  00018	53		 push	 ebx
  00019	55		 push	 ebp
  0001a	56		 push	 esi
  0001b	57		 push	 edi

; 4    : 	PREDEFINE_QUERY(CTBLMachine)

  0001c	68 64 0c 00 00	 push	 3172			; 00000c64H
  00021	e8 00 00 00 00	 call	 ??2@YAPAXI@Z		; operator new
  00026	8b f0		 mov	 esi, eax
  00028	83 c4 04	 add	 esp, 4
  0002b	89 74 24 10	 mov	 DWORD PTR $T92912[esp+36], esi
  0002f	8b 7c 24 28	 mov	 edi, DWORD PTR _pdb$[esp+32]
  00033	33 db		 xor	 ebx, ebx
  00035	3b f3		 cmp	 esi, ebx
  00037	89 5c 24 20	 mov	 DWORD PTR __$EHRec$[esp+44], ebx
  0003b	74 2c		 je	 SHORT $L92914
  0003d	83 ec 1c	 sub	 esp, 28			; 0000001cH
  00040	8b cc		 mov	 ecx, esp
  00042	89 64 24 30	 mov	 DWORD PTR $T92913[esp+64], esp
  00046	6a 0b		 push	 11			; 0000000bH
  00048	c7 41 18 0f 00
	00 00		 mov	 DWORD PTR [ecx+24], 15	; 0000000fH
  0004f	89 59 14	 mov	 DWORD PTR [ecx+20], ebx
  00052	68 00 00 00 00	 push	 OFFSET FLAT:??_C@_0M@NMPMFOM@CTBLMachine?$AA@
  00057	88 59 04	 mov	 BYTE PTR [ecx+4], bl
  0005a	e8 00 00 00 00	 call	 ?assign@?$basic_string@DU?$char_traits@D@std@@V?$allocator@D@2@@std@@QAEAAV12@PBDI@Z ; std::basic_string<char,std::char_traits<char>,std::allocator<char> >::assign
  0005f	57		 push	 edi
  00060	8b ce		 mov	 ecx, esi
  00062	e8 00 00 00 00	 call	 ??0CTBLMachine@@QAE@PAVCSqlDatabase@@V?$basic_string@DU?$char_traits@D@std@@V?$allocator@D@2@@std@@@Z ; CTBLMachine::CTBLMachine
  00067	eb 02		 jmp	 SHORT $L92915
$L92914:
  00069	33 c0		 xor	 eax, eax
$L92915:
  0006b	83 cd ff	 or	 ebp, -1
  0006e	3b c3		 cmp	 eax, ebx
  00070	89 6c 24 20	 mov	 DWORD PTR __$EHRec$[esp+44], ebp
  00074	0f 84 7d 05 00
	00		 je	 $L93265

; 5    : 	PREDEFINE_QUERY(CTBLNetwork)

  0007a	68 60 0c 00 00	 push	 3168			; 00000c60H
  0007f	e8 00 00 00 00	 call	 ??2@YAPAXI@Z		; operator new
  00084	8b f0		 mov	 esi, eax
  00086	83 c4 04	 add	 esp, 4
  00089	89 74 24 14	 mov	 DWORD PTR $T92917[esp+36], esi
  0008d	3b f3		 cmp	 esi, ebx
  0008f	c7 44 24 20 01
	00 00 00	 mov	 DWORD PTR __$EHRec$[esp+44], 1
  00097	74 2c		 je	 SHORT $L92919
  00099	83 ec 1c	 sub	 esp, 28			; 0000001cH
  0009c	8b cc		 mov	 ecx, esp
  0009e	89 64 24 2c	 mov	 DWORD PTR $T92918[esp+64], esp
  000a2	6a 0b		 push	 11			; 0000000bH
  000a4	c7 41 18 0f 00
	00 00		 mov	 DWORD PTR [ecx+24], 15	; 0000000fH
  000ab	89 59 14	 mov	 DWORD PTR [ecx+20], ebx
  000ae	68 00 00 00 00	 push	 OFFSET FLAT:??_C@_0M@CFLIPMCK@CTBLNetwork?$AA@
  000b3	88 59 04	 mov	 BYTE PTR [ecx+4], bl
  000b6	e8 00 00 00 00	 call	 ?assign@?$basic_string@DU?$char_traits@D@std@@V?$allocator@D@2@@std@@QAEAAV12@PBDI@Z ; std::basic_string<char,std::char_traits<char>,std::allocator<char> >::assign
  000bb	57		 push	 edi
  000bc	8b ce		 mov	 ecx, esi
  000be	e8 00 00 00 00	 call	 ??0CTBLNetwork@@QAE@PAVCSqlDatabase@@V?$basic_string@DU?$char_traits@D@std@@V?$allocator@D@2@@std@@@Z ; CTBLNetwork::CTBLNetwork
  000c3	eb 02		 jmp	 SHORT $L92920
$L92919:
  000c5	33 c0		 xor	 eax, eax
$L92920:
  000c7	3b c3		 cmp	 eax, ebx
  000c9	89 6c 24 20	 mov	 DWORD PTR __$EHRec$[esp+44], ebp
  000cd	0f 84 24 05 00
	00		 je	 $L93265

; 6    : 	PREDEFINE_QUERY(CTBLGroup)

  000d3	68 60 0c 00 00	 push	 3168			; 00000c60H
  000d8	e8 00 00 00 00	 call	 ??2@YAPAXI@Z		; operator new
  000dd	8b f0		 mov	 esi, eax
  000df	83 c4 04	 add	 esp, 4
  000e2	89 74 24 14	 mov	 DWORD PTR $T92922[esp+36], esi
  000e6	3b f3		 cmp	 esi, ebx
  000e8	c7 44 24 20 02
	00 00 00	 mov	 DWORD PTR __$EHRec$[esp+44], 2
  000f0	74 1d		 je	 SHORT $L92924
  000f2	83 ec 1c	 sub	 esp, 28			; 0000001cH
  000f5	8b cc		 mov	 ecx, esp
  000f7	89 64 24 2c	 mov	 DWORD PTR $T92923[esp+64], esp
  000fb	68 00 00 00 00	 push	 OFFSET FLAT:??_C@_09CBFKFMKO@CTBLGroup?$AA@
  00100	e8 00 00 00 00	 call	 ??0?$basic_string@DU?$char_traits@D@std@@V?$allocator@D@2@@std@@QAE@PBD@Z ; std::basic_string<char,std::char_traits<char>,std::allocator<char> >::basic_string<char,std::char_traits<char>,std::allocator<char> >
  00105	57		 push	 edi
  00106	8b ce		 mov	 ecx, esi
  00108	e8 00 00 00 00	 call	 ??0CTBLGroup@@QAE@PAVCSqlDatabase@@V?$basic_string@DU?$char_traits@D@std@@V?$allocator@D@2@@std@@@Z ; CTBLGroup::CTBLGroup
  0010d	eb 02		 jmp	 SHORT $L92925
$L92924:
  0010f	33 c0		 xor	 eax, eax
$L92925:
  00111	3b c3		 cmp	 eax, ebx
  00113	89 6c 24 20	 mov	 DWORD PTR __$EHRec$[esp+44], ebp
  00117	0f 84 da 04 00
	00		 je	 $L93265

; 7    : 	PREDEFINE_QUERY(CTBLSvrType)

  0011d	68 60 0c 00 00	 push	 3168			; 00000c60H
  00122	e8 00 00 00 00	 call	 ??2@YAPAXI@Z		; operator new
  00127	8b f0		 mov	 esi, eax
  00129	83 c4 04	 add	 esp, 4
  0012c	89 74 24 14	 mov	 DWORD PTR $T92927[esp+36], esi
  00130	3b f3		 cmp	 esi, ebx
  00132	c7 44 24 20 03
	00 00 00	 mov	 DWORD PTR __$EHRec$[esp+44], 3
  0013a	74 1d		 je	 SHORT $L92929
  0013c	83 ec 1c	 sub	 esp, 28			; 0000001cH
  0013f	8b cc		 mov	 ecx, esp
  00141	89 64 24 2c	 mov	 DWORD PTR $T92928[esp+64], esp
  00145	68 00 00 00 00	 push	 OFFSET FLAT:??_C@_0M@CMHNBJOJ@CTBLSvrType?$AA@
  0014a	e8 00 00 00 00	 call	 ??0?$basic_string@DU?$char_traits@D@std@@V?$allocator@D@2@@std@@QAE@PBD@Z ; std::basic_string<char,std::char_traits<char>,std::allocator<char> >::basic_string<char,std::char_traits<char>,std::allocator<char> >
  0014f	57		 push	 edi
  00150	8b ce		 mov	 ecx, esi
  00152	e8 00 00 00 00	 call	 ??0CTBLSvrType@@QAE@PAVCSqlDatabase@@V?$basic_string@DU?$char_traits@D@std@@V?$allocator@D@2@@std@@@Z ; CTBLSvrType::CTBLSvrType
  00157	eb 02		 jmp	 SHORT $L92930
$L92929:
  00159	33 c0		 xor	 eax, eax
$L92930:
  0015b	3b c3		 cmp	 eax, ebx
  0015d	89 6c 24 20	 mov	 DWORD PTR __$EHRec$[esp+44], ebp
  00161	0f 84 90 04 00
	00		 je	 $L93265

; 8    : 	PREDEFINE_QUERY(CTBLServer)

  00167	68 68 0c 00 00	 push	 3176			; 00000c68H
  0016c	e8 00 00 00 00	 call	 ??2@YAPAXI@Z		; operator new
  00171	8b f0		 mov	 esi, eax
  00173	83 c4 04	 add	 esp, 4
  00176	89 74 24 14	 mov	 DWORD PTR $T92932[esp+36], esi
  0017a	3b f3		 cmp	 esi, ebx
  0017c	c7 44 24 20 04
	00 00 00	 mov	 DWORD PTR __$EHRec$[esp+44], 4
  00184	74 1d		 je	 SHORT $L92934
  00186	83 ec 1c	 sub	 esp, 28			; 0000001cH
  00189	8b cc		 mov	 ecx, esp
  0018b	89 64 24 2c	 mov	 DWORD PTR $T92933[esp+64], esp
  0018f	68 00 00 00 00	 push	 OFFSET FLAT:??_C@_0L@DBCMNIHP@CTBLServer?$AA@
  00194	e8 00 00 00 00	 call	 ??0?$basic_string@DU?$char_traits@D@std@@V?$allocator@D@2@@std@@QAE@PBD@Z ; std::basic_string<char,std::char_traits<char>,std::allocator<char> >::basic_string<char,std::char_traits<char>,std::allocator<char> >
  00199	57		 push	 edi
  0019a	8b ce		 mov	 ecx, esi
  0019c	e8 00 00 00 00	 call	 ??0CTBLServer@@QAE@PAVCSqlDatabase@@V?$basic_string@DU?$char_traits@D@std@@V?$allocator@D@2@@std@@@Z ; CTBLServer::CTBLServer
  001a1	eb 02		 jmp	 SHORT $L92935
$L92934:
  001a3	33 c0		 xor	 eax, eax
$L92935:
  001a5	3b c3		 cmp	 eax, ebx
  001a7	89 6c 24 20	 mov	 DWORD PTR __$EHRec$[esp+44], ebp
  001ab	0f 84 46 04 00
	00		 je	 $L93265

; 9    : 	PREDEFINE_QUERY(CTBLIPAddr)

  001b1	68 94 0c 00 00	 push	 3220			; 00000c94H
  001b6	e8 00 00 00 00	 call	 ??2@YAPAXI@Z		; operator new
  001bb	8b f0		 mov	 esi, eax
  001bd	83 c4 04	 add	 esp, 4
  001c0	89 74 24 14	 mov	 DWORD PTR $T92937[esp+36], esi
  001c4	3b f3		 cmp	 esi, ebx
  001c6	c7 44 24 20 05
	00 00 00	 mov	 DWORD PTR __$EHRec$[esp+44], 5
  001ce	74 1d		 je	 SHORT $L92939
  001d0	83 ec 1c	 sub	 esp, 28			; 0000001cH
  001d3	8b cc		 mov	 ecx, esp
  001d5	89 64 24 2c	 mov	 DWORD PTR $T92938[esp+64], esp
  001d9	68 00 00 00 00	 push	 OFFSET FLAT:??_C@_0L@LLGGLKJE@CTBLIPAddr?$AA@
  001de	e8 00 00 00 00	 call	 ??0?$basic_string@DU?$char_traits@D@std@@V?$allocator@D@2@@std@@QAE@PBD@Z ; std::basic_string<char,std::char_traits<char>,std::allocator<char> >::basic_string<char,std::char_traits<char>,std::allocator<char> >
  001e3	57		 push	 edi
  001e4	8b ce		 mov	 ecx, esi
  001e6	e8 00 00 00 00	 call	 ??0CTBLIPAddr@@QAE@PAVCSqlDatabase@@V?$basic_string@DU?$char_traits@D@std@@V?$allocator@D@2@@std@@@Z ; CTBLIPAddr::CTBLIPAddr
  001eb	eb 02		 jmp	 SHORT $L92940
$L92939:
  001ed	33 c0		 xor	 eax, eax
$L92940:
  001ef	3b c3		 cmp	 eax, ebx
  001f1	89 6c 24 20	 mov	 DWORD PTR __$EHRec$[esp+44], ebp
  001f5	0f 84 fc 03 00
	00		 je	 $L93265

; 10   : 	PREDEFINE_QUERY(CTBLManager)

  001fb	68 94 0c 00 00	 push	 3220			; 00000c94H
  00200	e8 00 00 00 00	 call	 ??2@YAPAXI@Z		; operator new
  00205	8b f0		 mov	 esi, eax
  00207	83 c4 04	 add	 esp, 4
  0020a	89 74 24 14	 mov	 DWORD PTR $T92942[esp+36], esi
  0020e	3b f3		 cmp	 esi, ebx
  00210	c7 44 24 20 06
	00 00 00	 mov	 DWORD PTR __$EHRec$[esp+44], 6
  00218	74 1d		 je	 SHORT $L92944
  0021a	83 ec 1c	 sub	 esp, 28			; 0000001cH
  0021d	8b cc		 mov	 ecx, esp
  0021f	89 64 24 2c	 mov	 DWORD PTR $T92943[esp+64], esp
  00223	68 00 00 00 00	 push	 OFFSET FLAT:??_C@_0M@FFEIKIAH@CTBLManager?$AA@
  00228	e8 00 00 00 00	 call	 ??0?$basic_string@DU?$char_traits@D@std@@V?$allocator@D@2@@std@@QAE@PBD@Z ; std::basic_string<char,std::char_traits<char>,std::allocator<char> >::basic_string<char,std::char_traits<char>,std::allocator<char> >
  0022d	57		 push	 edi
  0022e	8b ce		 mov	 ecx, esi
  00230	e8 00 00 00 00	 call	 ??0CTBLManager@@QAE@PAVCSqlDatabase@@V?$basic_string@DU?$char_traits@D@std@@V?$allocator@D@2@@std@@@Z ; CTBLManager::CTBLManager
  00235	eb 02		 jmp	 SHORT $L92945
$L92944:
  00237	33 c0		 xor	 eax, eax
$L92945:
  00239	3b c3		 cmp	 eax, ebx
  0023b	89 6c 24 20	 mov	 DWORD PTR __$EHRec$[esp+44], ebp
  0023f	0f 84 b2 03 00
	00		 je	 $L93265

; 11   : 	PREDEFINE_QUERY(CTBLEvent)

  00245	68 6c 2d 00 00	 push	 11628			; 00002d6cH
  0024a	e8 00 00 00 00	 call	 ??2@YAPAXI@Z		; operator new
  0024f	8b f0		 mov	 esi, eax
  00251	83 c4 04	 add	 esp, 4
  00254	89 74 24 14	 mov	 DWORD PTR $T92947[esp+36], esi
  00258	3b f3		 cmp	 esi, ebx
  0025a	c7 44 24 20 07
	00 00 00	 mov	 DWORD PTR __$EHRec$[esp+44], 7
  00262	74 1d		 je	 SHORT $L92949
  00264	83 ec 1c	 sub	 esp, 28			; 0000001cH
  00267	8b cc		 mov	 ecx, esp
  00269	89 64 24 2c	 mov	 DWORD PTR $T92948[esp+64], esp
  0026d	68 00 00 00 00	 push	 OFFSET FLAT:??_C@_09ICLADCJE@CTBLEvent?$AA@
  00272	e8 00 00 00 00	 call	 ??0?$basic_string@DU?$char_traits@D@std@@V?$allocator@D@2@@std@@QAE@PBD@Z ; std::basic_string<char,std::char_traits<char>,std::allocator<char> >::basic_string<char,std::char_traits<char>,std::allocator<char> >
  00277	57		 push	 edi
  00278	8b ce		 mov	 ecx, esi
  0027a	e8 00 00 00 00	 call	 ??0CTBLEvent@@QAE@PAVCSqlDatabase@@V?$basic_string@DU?$char_traits@D@std@@V?$allocator@D@2@@std@@@Z ; CTBLEvent::CTBLEvent
  0027f	eb 02		 jmp	 SHORT $L92950
$L92949:
  00281	33 c0		 xor	 eax, eax
$L92950:
  00283	3b c3		 cmp	 eax, ebx
  00285	89 6c 24 20	 mov	 DWORD PTR __$EHRec$[esp+44], ebp
  00289	0f 84 68 03 00
	00		 je	 $L93265

; 12   : 	PREDEFINE_QUERY(CTBLPreVersion)

  0028f	68 cc 0c 00 00	 push	 3276			; 00000cccH
  00294	e8 00 00 00 00	 call	 ??2@YAPAXI@Z		; operator new
  00299	8b f0		 mov	 esi, eax
  0029b	83 c4 04	 add	 esp, 4
  0029e	89 74 24 14	 mov	 DWORD PTR $T92952[esp+36], esi
  002a2	3b f3		 cmp	 esi, ebx
  002a4	c7 44 24 20 08
	00 00 00	 mov	 DWORD PTR __$EHRec$[esp+44], 8
  002ac	74 1d		 je	 SHORT $L92954
  002ae	83 ec 1c	 sub	 esp, 28			; 0000001cH
  002b1	8b cc		 mov	 ecx, esp
  002b3	89 64 24 2c	 mov	 DWORD PTR $T92953[esp+64], esp
  002b7	68 00 00 00 00	 push	 OFFSET FLAT:??_C@_0P@PFMHOGAK@CTBLPreVersion?$AA@
  002bc	e8 00 00 00 00	 call	 ??0?$basic_string@DU?$char_traits@D@std@@V?$allocator@D@2@@std@@QAE@PBD@Z ; std::basic_string<char,std::char_traits<char>,std::allocator<char> >::basic_string<char,std::char_traits<char>,std::allocator<char> >
  002c1	57		 push	 edi
  002c2	8b ce		 mov	 ecx, esi
  002c4	e8 00 00 00 00	 call	 ??0CTBLPreVersion@@QAE@PAVCSqlDatabase@@V?$basic_string@DU?$char_traits@D@std@@V?$allocator@D@2@@std@@@Z ; CTBLPreVersion::CTBLPreVersion
  002c9	eb 02		 jmp	 SHORT $L92955
$L92954:
  002cb	33 c0		 xor	 eax, eax
$L92955:
  002cd	3b c3		 cmp	 eax, ebx
  002cf	89 6c 24 20	 mov	 DWORD PTR __$EHRec$[esp+44], ebp
  002d3	0f 84 1e 03 00
	00		 je	 $L93265

; 13   : 
; 14   : 	PREDEFINE_QUERY(CSPUpdatePatch)

  002d9	68 d0 0c 00 00	 push	 3280			; 00000cd0H
  002de	e8 00 00 00 00	 call	 ??2@YAPAXI@Z		; operator new
  002e3	8b f0		 mov	 esi, eax
  002e5	83 c4 04	 add	 esp, 4
  002e8	89 74 24 14	 mov	 DWORD PTR $T92957[esp+36], esi
  002ec	3b f3		 cmp	 esi, ebx
  002ee	c7 44 24 20 09
	00 00 00	 mov	 DWORD PTR __$EHRec$[esp+44], 9
  002f6	74 1d		 je	 SHORT $L92959
  002f8	83 ec 1c	 sub	 esp, 28			; 0000001cH
  002fb	8b cc		 mov	 ecx, esp
  002fd	89 64 24 2c	 mov	 DWORD PTR $T92958[esp+64], esp
  00301	68 00 00 00 00	 push	 OFFSET FLAT:??_C@_0P@DCAEHDBG@CSPUpdatePatch?$AA@
  00306	e8 00 00 00 00	 call	 ??0?$basic_string@DU?$char_traits@D@std@@V?$allocator@D@2@@std@@QAE@PBD@Z ; std::basic_string<char,std::char_traits<char>,std::allocator<char> >::basic_string<char,std::char_traits<char>,std::allocator<char> >
  0030b	57		 push	 edi
  0030c	8b ce		 mov	 ecx, esi
  0030e	e8 00 00 00 00	 call	 ??0CSPUpdatePatch@@QAE@PAVCSqlDatabase@@V?$basic_string@DU?$char_traits@D@std@@V?$allocator@D@2@@std@@@Z ; CSPUpdatePatch::CSPUpdatePatch
  00313	eb 02		 jmp	 SHORT $L92960
$L92959:
  00315	33 c0		 xor	 eax, eax
$L92960:
  00317	3b c3		 cmp	 eax, ebx
  00319	89 6c 24 20	 mov	 DWORD PTR __$EHRec$[esp+44], ebp
  0031d	0f 84 d4 02 00
	00		 je	 $L93265

; 15   : 	PREDEFINE_QUERY(CSPUserProtectedAdd)

  00323	68 68 0c 00 00	 push	 3176			; 00000c68H
  00328	e8 00 00 00 00	 call	 ??2@YAPAXI@Z		; operator new
  0032d	8b f0		 mov	 esi, eax
  0032f	83 c4 04	 add	 esp, 4
  00332	89 74 24 14	 mov	 DWORD PTR $T92962[esp+36], esi
  00336	3b f3		 cmp	 esi, ebx
  00338	c7 44 24 20 0a
	00 00 00	 mov	 DWORD PTR __$EHRec$[esp+44], 10 ; 0000000aH
  00340	74 1d		 je	 SHORT $L92964
  00342	83 ec 1c	 sub	 esp, 28			; 0000001cH
  00345	8b cc		 mov	 ecx, esp
  00347	89 64 24 2c	 mov	 DWORD PTR $T92963[esp+64], esp
  0034b	68 00 00 00 00	 push	 OFFSET FLAT:??_C@_0BE@MFEICKNN@CSPUserProtectedAdd?$AA@
  00350	e8 00 00 00 00	 call	 ??0?$basic_string@DU?$char_traits@D@std@@V?$allocator@D@2@@std@@QAE@PBD@Z ; std::basic_string<char,std::char_traits<char>,std::allocator<char> >::basic_string<char,std::char_traits<char>,std::allocator<char> >
  00355	57		 push	 edi
  00356	8b ce		 mov	 ecx, esi
  00358	e8 00 00 00 00	 call	 ??0CSPUserProtectedAdd@@QAE@PAVCSqlDatabase@@V?$basic_string@DU?$char_traits@D@std@@V?$allocator@D@2@@std@@@Z ; CSPUserProtectedAdd::CSPUserProtectedAdd
  0035d	eb 02		 jmp	 SHORT $L92965
$L92964:
  0035f	33 c0		 xor	 eax, eax
$L92965:
  00361	3b c3		 cmp	 eax, ebx
  00363	89 6c 24 20	 mov	 DWORD PTR __$EHRec$[esp+44], ebp
  00367	0f 84 8a 02 00
	00		 je	 $L93265

; 16   : 	PREDEFINE_QUERY(CSPSvrStatusSMS)

  0036d	68 38 0c 00 00	 push	 3128			; 00000c38H
  00372	e8 00 00 00 00	 call	 ??2@YAPAXI@Z		; operator new
  00377	8b f0		 mov	 esi, eax
  00379	83 c4 04	 add	 esp, 4
  0037c	89 74 24 14	 mov	 DWORD PTR $T92967[esp+36], esi
  00380	3b f3		 cmp	 esi, ebx
  00382	c7 44 24 20 0b
	00 00 00	 mov	 DWORD PTR __$EHRec$[esp+44], 11 ; 0000000bH
  0038a	74 1d		 je	 SHORT $L92969
  0038c	83 ec 1c	 sub	 esp, 28			; 0000001cH
  0038f	8b cc		 mov	 ecx, esp
  00391	89 64 24 2c	 mov	 DWORD PTR $T92968[esp+64], esp
  00395	68 00 00 00 00	 push	 OFFSET FLAT:??_C@_0BA@FLJPGKEH@CSPSvrStatusSMS?$AA@
  0039a	e8 00 00 00 00	 call	 ??0?$basic_string@DU?$char_traits@D@std@@V?$allocator@D@2@@std@@QAE@PBD@Z ; std::basic_string<char,std::char_traits<char>,std::allocator<char> >::basic_string<char,std::char_traits<char>,std::allocator<char> >
  0039f	57		 push	 edi
  003a0	8b ce		 mov	 ecx, esi
  003a2	e8 00 00 00 00	 call	 ??0CSPSvrStatusSMS@@QAE@PAVCSqlDatabase@@V?$basic_string@DU?$char_traits@D@std@@V?$allocator@D@2@@std@@@Z ; CSPSvrStatusSMS::CSPSvrStatusSMS
  003a7	eb 02		 jmp	 SHORT $L92970
$L92969:
  003a9	33 c0		 xor	 eax, eax
$L92970:
  003ab	3b c3		 cmp	 eax, ebx
  003ad	89 6c 24 20	 mov	 DWORD PTR __$EHRec$[esp+44], ebp
  003b1	0f 84 40 02 00
	00		 je	 $L93265

; 17   : 	PREDEFINE_QUERY(CSPLoadService)

  003b7	68 64 0c 00 00	 push	 3172			; 00000c64H
  003bc	e8 00 00 00 00	 call	 ??2@YAPAXI@Z		; operator new
  003c1	8b f0		 mov	 esi, eax
  003c3	83 c4 04	 add	 esp, 4
  003c6	89 74 24 14	 mov	 DWORD PTR $T92972[esp+36], esi
  003ca	3b f3		 cmp	 esi, ebx
  003cc	c7 44 24 20 0c
	00 00 00	 mov	 DWORD PTR __$EHRec$[esp+44], 12 ; 0000000cH
  003d4	74 1d		 je	 SHORT $L92974
  003d6	83 ec 1c	 sub	 esp, 28			; 0000001cH
  003d9	8b cc		 mov	 ecx, esp
  003db	89 64 24 2c	 mov	 DWORD PTR $T92973[esp+64], esp
  003df	68 00 00 00 00	 push	 OFFSET FLAT:??_C@_0P@EOMPGPJC@CSPLoadService?$AA@
  003e4	e8 00 00 00 00	 call	 ??0?$basic_string@DU?$char_traits@D@std@@V?$allocator@D@2@@std@@QAE@PBD@Z ; std::basic_string<char,std::char_traits<char>,std::allocator<char> >::basic_string<char,std::char_traits<char>,std::allocator<char> >
  003e9	57		 push	 edi
  003ea	8b ce		 mov	 ecx, esi
  003ec	e8 00 00 00 00	 call	 ??0CSPLoadService@@QAE@PAVCSqlDatabase@@V?$basic_string@DU?$char_traits@D@std@@V?$allocator@D@2@@std@@@Z ; CSPLoadService::CSPLoadService
  003f1	eb 02		 jmp	 SHORT $L92975
$L92974:
  003f3	33 c0		 xor	 eax, eax
$L92975:
  003f5	3b c3		 cmp	 eax, ebx
  003f7	89 6c 24 20	 mov	 DWORD PTR __$EHRec$[esp+44], ebp
  003fb	0f 84 f6 01 00
	00		 je	 $L93265

; 18   : 	PREDEFINE_QUERY(CSPOPLogin)

  00401	68 98 0c 00 00	 push	 3224			; 00000c98H
  00406	e8 00 00 00 00	 call	 ??2@YAPAXI@Z		; operator new
  0040b	8b f0		 mov	 esi, eax
  0040d	83 c4 04	 add	 esp, 4
  00410	89 74 24 14	 mov	 DWORD PTR $T92977[esp+36], esi
  00414	3b f3		 cmp	 esi, ebx
  00416	c7 44 24 20 0d
	00 00 00	 mov	 DWORD PTR __$EHRec$[esp+44], 13 ; 0000000dH
  0041e	74 1d		 je	 SHORT $L92979
  00420	83 ec 1c	 sub	 esp, 28			; 0000001cH
  00423	8b cc		 mov	 ecx, esp
  00425	89 64 24 2c	 mov	 DWORD PTR $T92978[esp+64], esp
  00429	68 00 00 00 00	 push	 OFFSET FLAT:??_C@_0L@FBLKCHIB@CSPOPLogin?$AA@
  0042e	e8 00 00 00 00	 call	 ??0?$basic_string@DU?$char_traits@D@std@@V?$allocator@D@2@@std@@QAE@PBD@Z ; std::basic_string<char,std::char_traits<char>,std::allocator<char> >::basic_string<char,std::char_traits<char>,std::allocator<char> >
  00433	57		 push	 edi
  00434	8b ce		 mov	 ecx, esi
  00436	e8 00 00 00 00	 call	 ??0CSPOPLogin@@QAE@PAVCSqlDatabase@@V?$basic_string@DU?$char_traits@D@std@@V?$allocator@D@2@@std@@@Z ; CSPOPLogin::CSPOPLogin
  0043b	eb 02		 jmp	 SHORT $L92980
$L92979:
  0043d	33 c0		 xor	 eax, eax
$L92980:
  0043f	3b c3		 cmp	 eax, ebx
  00441	89 6c 24 20	 mov	 DWORD PTR __$EHRec$[esp+44], ebp
  00445	0f 84 ac 01 00
	00		 je	 $L93265

; 19   : 	PREDEFINE_QUERY(CSPEventUpdate)

  0044b	68 a0 2c 00 00	 push	 11424			; 00002ca0H
  00450	e8 00 00 00 00	 call	 ??2@YAPAXI@Z		; operator new
  00455	8b f0		 mov	 esi, eax
  00457	83 c4 04	 add	 esp, 4
  0045a	89 74 24 14	 mov	 DWORD PTR $T92982[esp+36], esi
  0045e	3b f3		 cmp	 esi, ebx
  00460	c7 44 24 20 0e
	00 00 00	 mov	 DWORD PTR __$EHRec$[esp+44], 14 ; 0000000eH
  00468	74 1d		 je	 SHORT $L92984
  0046a	83 ec 1c	 sub	 esp, 28			; 0000001cH
  0046d	8b cc		 mov	 ecx, esp
  0046f	89 64 24 2c	 mov	 DWORD PTR $T92983[esp+64], esp
  00473	68 00 00 00 00	 push	 OFFSET FLAT:??_C@_0P@EKPNLDEH@CSPEventUpdate?$AA@
  00478	e8 00 00 00 00	 call	 ??0?$basic_string@DU?$char_traits@D@std@@V?$allocator@D@2@@std@@QAE@PBD@Z ; std::basic_string<char,std::char_traits<char>,std::allocator<char> >::basic_string<char,std::char_traits<char>,std::allocator<char> >
  0047d	57		 push	 edi
  0047e	8b ce		 mov	 ecx, esi
  00480	e8 00 00 00 00	 call	 ??0CSPEventUpdate@@QAE@PAVCSqlDatabase@@V?$basic_string@DU?$char_traits@D@std@@V?$allocator@D@2@@std@@@Z ; CSPEventUpdate::CSPEventUpdate
  00485	eb 02		 jmp	 SHORT $L92985
$L92984:
  00487	33 c0		 xor	 eax, eax
$L92985:
  00489	3b c3		 cmp	 eax, ebx
  0048b	89 6c 24 20	 mov	 DWORD PTR __$EHRec$[esp+44], ebp
  0048f	0f 84 62 01 00
	00		 je	 $L93265

; 20   : 	PREDEFINE_QUERY(CTBLCashShopItem)

  00495	68 64 0c 00 00	 push	 3172			; 00000c64H
  0049a	e8 00 00 00 00	 call	 ??2@YAPAXI@Z		; operator new
  0049f	8b f0		 mov	 esi, eax
  004a1	83 c4 04	 add	 esp, 4
  004a4	89 74 24 14	 mov	 DWORD PTR $T92987[esp+36], esi
  004a8	3b f3		 cmp	 esi, ebx
  004aa	c7 44 24 20 0f
	00 00 00	 mov	 DWORD PTR __$EHRec$[esp+44], 15 ; 0000000fH
  004b2	74 1d		 je	 SHORT $L92989
  004b4	83 ec 1c	 sub	 esp, 28			; 0000001cH
  004b7	8b cc		 mov	 ecx, esp
  004b9	89 64 24 2c	 mov	 DWORD PTR $T92988[esp+64], esp
  004bd	68 00 00 00 00	 push	 OFFSET FLAT:??_C@_0BB@CKCJFDDH@CTBLCashShopItem?$AA@
  004c2	e8 00 00 00 00	 call	 ??0?$basic_string@DU?$char_traits@D@std@@V?$allocator@D@2@@std@@QAE@PBD@Z ; std::basic_string<char,std::char_traits<char>,std::allocator<char> >::basic_string<char,std::char_traits<char>,std::allocator<char> >
  004c7	57		 push	 edi
  004c8	8b ce		 mov	 ecx, esi
  004ca	e8 00 00 00 00	 call	 ??0CTBLCashShopItem@@QAE@PAVCSqlDatabase@@V?$basic_string@DU?$char_traits@D@std@@V?$allocator@D@2@@std@@@Z ; CTBLCashShopItem::CTBLCashShopItem
  004cf	eb 02		 jmp	 SHORT $L92990
$L92989:
  004d1	33 c0		 xor	 eax, eax
$L92990:
  004d3	3b c3		 cmp	 eax, ebx
  004d5	89 6c 24 20	 mov	 DWORD PTR __$EHRec$[esp+44], ebp
  004d9	0f 84 18 01 00
	00		 je	 $L93265

; 21   : 	PREDEFINE_QUERY(CSPUpdatePrePatch)

  004df	68 cc 0c 00 00	 push	 3276			; 00000cccH
  004e4	e8 00 00 00 00	 call	 ??2@YAPAXI@Z		; operator new
  004e9	8b f0		 mov	 esi, eax
  004eb	83 c4 04	 add	 esp, 4
  004ee	89 74 24 14	 mov	 DWORD PTR $T92992[esp+36], esi
  004f2	3b f3		 cmp	 esi, ebx
  004f4	c7 44 24 20 10
	00 00 00	 mov	 DWORD PTR __$EHRec$[esp+44], 16 ; 00000010H
  004fc	74 1d		 je	 SHORT $L92994
  004fe	83 ec 1c	 sub	 esp, 28			; 0000001cH
  00501	8b cc		 mov	 ecx, esp
  00503	89 64 24 2c	 mov	 DWORD PTR $T92993[esp+64], esp
  00507	68 00 00 00 00	 push	 OFFSET FLAT:??_C@_0BC@KEFPCEAB@CSPUpdatePrePatch?$AA@
  0050c	e8 00 00 00 00	 call	 ??0?$basic_string@DU?$char_traits@D@std@@V?$allocator@D@2@@std@@QAE@PBD@Z ; std::basic_string<char,std::char_traits<char>,std::allocator<char> >::basic_string<char,std::char_traits<char>,std::allocator<char> >
  00511	57		 push	 edi
  00512	8b ce		 mov	 ecx, esi
  00514	e8 00 00 00 00	 call	 ??0CSPUpdatePrePatch@@QAE@PAVCSqlDatabase@@V?$basic_string@DU?$char_traits@D@std@@V?$allocator@D@2@@std@@@Z ; CSPUpdatePrePatch::CSPUpdatePrePatch
  00519	eb 02		 jmp	 SHORT $L92995
$L92994:
  0051b	33 c0		 xor	 eax, eax
$L92995:
  0051d	3b c3		 cmp	 eax, ebx
  0051f	89 6c 24 20	 mov	 DWORD PTR __$EHRec$[esp+44], ebp
  00523	0f 84 ce 00 00
	00		 je	 $L93265

; 22   : 	PREDEFINE_QUERY(CSPBetaToVer)

  00529	68 34 0c 00 00	 push	 3124			; 00000c34H
  0052e	e8 00 00 00 00	 call	 ??2@YAPAXI@Z		; operator new
  00533	8b f0		 mov	 esi, eax
  00535	83 c4 04	 add	 esp, 4
  00538	89 74 24 14	 mov	 DWORD PTR $T92997[esp+36], esi
  0053c	3b f3		 cmp	 esi, ebx
  0053e	c7 44 24 20 11
	00 00 00	 mov	 DWORD PTR __$EHRec$[esp+44], 17 ; 00000011H
  00546	74 1d		 je	 SHORT $L92999
  00548	83 ec 1c	 sub	 esp, 28			; 0000001cH
  0054b	8b cc		 mov	 ecx, esp
  0054d	89 64 24 2c	 mov	 DWORD PTR $T92998[esp+64], esp
  00551	68 00 00 00 00	 push	 OFFSET FLAT:??_C@_0N@HLPJDCDB@CSPBetaToVer?$AA@
  00556	e8 00 00 00 00	 call	 ??0?$basic_string@DU?$char_traits@D@std@@V?$allocator@D@2@@std@@QAE@PBD@Z ; std::basic_string<char,std::char_traits<char>,std::allocator<char> >::basic_string<char,std::char_traits<char>,std::allocator<char> >
  0055b	57		 push	 edi
  0055c	8b ce		 mov	 ecx, esi
  0055e	e8 00 00 00 00	 call	 ??0CSPBetaToVer@@QAE@PAVCSqlDatabase@@V?$basic_string@DU?$char_traits@D@std@@V?$allocator@D@2@@std@@@Z ; CSPBetaToVer::CSPBetaToVer
  00563	eb 02		 jmp	 SHORT $L93000
$L92999:
  00565	33 c0		 xor	 eax, eax
$L93000:
  00567	3b c3		 cmp	 eax, ebx
  00569	89 6c 24 20	 mov	 DWORD PTR __$EHRec$[esp+44], ebp
  0056d	0f 84 84 00 00
	00		 je	 $L93265

; 23   : 	PREDEFINE_QUERY(CSPDeletePreVersion)

  00573	68 34 0c 00 00	 push	 3124			; 00000c34H
  00578	e8 00 00 00 00	 call	 ??2@YAPAXI@Z		; operator new
  0057d	8b f0		 mov	 esi, eax
  0057f	83 c4 04	 add	 esp, 4
  00582	89 74 24 14	 mov	 DWORD PTR $T93002[esp+36], esi
  00586	3b f3		 cmp	 esi, ebx
  00588	c7 44 24 20 12
	00 00 00	 mov	 DWORD PTR __$EHRec$[esp+44], 18 ; 00000012H
  00590	74 1d		 je	 SHORT $L93004
  00592	83 ec 1c	 sub	 esp, 28			; 0000001cH
  00595	8b cc		 mov	 ecx, esp
  00597	89 64 24 2c	 mov	 DWORD PTR $T93003[esp+64], esp
  0059b	68 00 00 00 00	 push	 OFFSET FLAT:??_C@_0BE@HLGEHHLP@CSPDeletePreVersion?$AA@
  005a0	e8 00 00 00 00	 call	 ??0?$basic_string@DU?$char_traits@D@std@@V?$allocator@D@2@@std@@QAE@PBD@Z ; std::basic_string<char,std::char_traits<char>,std::allocator<char> >::basic_string<char,std::char_traits<char>,std::allocator<char> >
  005a5	57		 push	 edi
  005a6	8b ce		 mov	 ecx, esi
  005a8	e8 00 00 00 00	 call	 ??0CSPDeletePreVersion@@QAE@PAVCSqlDatabase@@V?$basic_string@DU?$char_traits@D@std@@V?$allocator@D@2@@std@@@Z ; CSPDeletePreVersion::CSPDeletePreVersion
  005ad	eb 02		 jmp	 SHORT $L93005
$L93004:
  005af	33 c0		 xor	 eax, eax
$L93005:
  005b1	3b c3		 cmp	 eax, ebx
  005b3	89 6c 24 20	 mov	 DWORD PTR __$EHRec$[esp+44], ebp
  005b7	74 3e		 je	 SHORT $L93265

; 24   : 	PREDEFINE_QUERY(CSPUserProtectedAdd)

  005b9	68 68 0c 00 00	 push	 3176			; 00000c68H
  005be	e8 00 00 00 00	 call	 ??2@YAPAXI@Z		; operator new
  005c3	8b f0		 mov	 esi, eax
  005c5	83 c4 04	 add	 esp, 4
  005c8	89 74 24 14	 mov	 DWORD PTR $T93007[esp+36], esi
  005cc	3b f3		 cmp	 esi, ebx
  005ce	c7 44 24 20 13
	00 00 00	 mov	 DWORD PTR __$EHRec$[esp+44], 19 ; 00000013H
  005d6	74 1f		 je	 SHORT $L93265
  005d8	83 ec 1c	 sub	 esp, 28			; 0000001cH
  005db	8b cc		 mov	 ecx, esp
  005dd	89 64 24 2c	 mov	 DWORD PTR $T93008[esp+64], esp
  005e1	68 00 00 00 00	 push	 OFFSET FLAT:??_C@_0BE@MFEICKNN@CSPUserProtectedAdd?$AA@
  005e6	e8 00 00 00 00	 call	 ??0?$basic_string@DU?$char_traits@D@std@@V?$allocator@D@2@@std@@QAE@PBD@Z ; std::basic_string<char,std::char_traits<char>,std::allocator<char> >::basic_string<char,std::char_traits<char>,std::allocator<char> >
  005eb	57		 push	 edi
  005ec	8b ce		 mov	 ecx, esi
  005ee	e8 00 00 00 00	 call	 ??0CSPUserProtectedAdd@@QAE@PAVCSqlDatabase@@V?$basic_string@DU?$char_traits@D@std@@V?$allocator@D@2@@std@@@Z ; CSPUserProtectedAdd::CSPUserProtectedAdd
  005f3	3b c3		 cmp	 eax, ebx
  005f5	75 15		 jne	 SHORT $L87507
$L93265:
  005f7	33 c0		 xor	 eax, eax

; 25   : 
; 26   : END_INIT_QUERY()

  005f9	8b 4c 24 18	 mov	 ecx, DWORD PTR __$EHRec$[esp+36]
  005fd	64 89 0d 00 00
	00 00		 mov	 DWORD PTR fs:__except_list, ecx
  00604	5f		 pop	 edi
  00605	5e		 pop	 esi
  00606	5d		 pop	 ebp
  00607	5b		 pop	 ebx
  00608	83 c4 14	 add	 esp, 20			; 00000014H
  0060b	c3		 ret	 0
$L87507:
  0060c	8b 4c 24 18	 mov	 ecx, DWORD PTR __$EHRec$[esp+36]
  00610	5f		 pop	 edi
  00611	5e		 pop	 esi
  00612	5d		 pop	 ebp
  00613	b8 01 00 00 00	 mov	 eax, 1
  00618	64 89 0d 00 00
	00 00		 mov	 DWORD PTR fs:__except_list, ecx
  0061f	5b		 pop	 ebx
  00620	83 c4 14	 add	 esp, 20			; 00000014H
  00623	c3		 ret	 0
_TEXT	ENDS
;	COMDAT text$x
text$x	SEGMENT
$L93011:
  00000	8b 45 ec	 mov	 eax, DWORD PTR $T92912[ebp]
  00003	50		 push	 eax
  00004	e8 00 00 00 00	 call	 ??3@YAXPAX@Z		; operator delete
  00009	59		 pop	 ecx
  0000a	c3		 ret	 0
$L93013:
  0000b	8b 45 f0	 mov	 eax, DWORD PTR $T92917[ebp]
  0000e	50		 push	 eax
  0000f	e8 00 00 00 00	 call	 ??3@YAXPAX@Z		; operator delete
  00014	59		 pop	 ecx
  00015	c3		 ret	 0
$L93015:
  00016	8b 45 f0	 mov	 eax, DWORD PTR $T92922[ebp]
  00019	50		 push	 eax
  0001a	e8 00 00 00 00	 call	 ??3@YAXPAX@Z		; operator delete
  0001f	59		 pop	 ecx
  00020	c3		 ret	 0
$L93017:
  00021	8b 45 f0	 mov	 eax, DWORD PTR $T92927[ebp]
  00024	50		 push	 eax
  00025	e8 00 00 00 00	 call	 ??3@YAXPAX@Z		; operator delete
  0002a	59		 pop	 ecx
  0002b	c3		 ret	 0
$L93019:
  0002c	8b 45 f0	 mov	 eax, DWORD PTR $T92932[ebp]
  0002f	50		 push	 eax
  00030	e8 00 00 00 00	 call	 ??3@YAXPAX@Z		; operator delete
  00035	59		 pop	 ecx
  00036	c3		 ret	 0
$L93021:
  00037	8b 45 f0	 mov	 eax, DWORD PTR $T92937[ebp]
  0003a	50		 push	 eax
  0003b	e8 00 00 00 00	 call	 ??3@YAXPAX@Z		; operator delete
  00040	59		 pop	 ecx
  00041	c3		 ret	 0
$L93023:
  00042	8b 45 f0	 mov	 eax, DWORD PTR $T92942[ebp]
  00045	50		 push	 eax
  00046	e8 00 00 00 00	 call	 ??3@YAXPAX@Z		; operator delete
  0004b	59		 pop	 ecx
  0004c	c3		 ret	 0
$L93025:
  0004d	8b 45 f0	 mov	 eax, DWORD PTR $T92947[ebp]
  00050	50		 push	 eax
  00051	e8 00 00 00 00	 call	 ??3@YAXPAX@Z		; operator delete
  00056	59		 pop	 ecx
  00057	c3		 ret	 0
$L93027:
  00058	8b 45 f0	 mov	 eax, DWORD PTR $T92952[ebp]
  0005b	50		 push	 eax
  0005c	e8 00 00 00 00	 call	 ??3@YAXPAX@Z		; operator delete
  00061	59		 pop	 ecx
  00062	c3		 ret	 0
$L93029:
  00063	8b 45 f0	 mov	 eax, DWORD PTR $T92957[ebp]
  00066	50		 push	 eax
  00067	e8 00 00 00 00	 call	 ??3@YAXPAX@Z		; operator delete
  0006c	59		 pop	 ecx
  0006d	c3		 ret	 0
$L93031:
  0006e	8b 45 f0	 mov	 eax, DWORD PTR $T92962[ebp]
  00071	50		 push	 eax
  00072	e8 00 00 00 00	 call	 ??3@YAXPAX@Z		; operator delete
  00077	59		 pop	 ecx
  00078	c3		 ret	 0
$L93033:
  00079	8b 45 f0	 mov	 eax, DWORD PTR $T92967[ebp]
  0007c	50		 push	 eax
  0007d	e8 00 00 00 00	 call	 ??3@YAXPAX@Z		; operator delete
  00082	59		 pop	 ecx
  00083	c3		 ret	 0
$L93035:
  00084	8b 45 f0	 mov	 eax, DWORD PTR $T92972[ebp]
  00087	50		 push	 eax
  00088	e8 00 00 00 00	 call	 ??3@YAXPAX@Z		; operator delete
  0008d	59		 pop	 ecx
  0008e	c3		 ret	 0
$L93037:
  0008f	8b 45 f0	 mov	 eax, DWORD PTR $T92977[ebp]
  00092	50		 push	 eax
  00093	e8 00 00 00 00	 call	 ??3@YAXPAX@Z		; operator delete
  00098	59		 pop	 ecx
  00099	c3		 ret	 0
$L93039:
  0009a	8b 45 f0	 mov	 eax, DWORD PTR $T92982[ebp]
  0009d	50		 push	 eax
  0009e	e8 00 00 00 00	 call	 ??3@YAXPAX@Z		; operator delete
  000a3	59		 pop	 ecx
  000a4	c3		 ret	 0
$L93041:
  000a5	8b 45 f0	 mov	 eax, DWORD PTR $T92987[ebp]
  000a8	50		 push	 eax
  000a9	e8 00 00 00 00	 call	 ??3@YAXPAX@Z		; operator delete
  000ae	59		 pop	 ecx
  000af	c3		 ret	 0
$L93043:
  000b0	8b 45 f0	 mov	 eax, DWORD PTR $T92992[ebp]
  000b3	50		 push	 eax
  000b4	e8 00 00 00 00	 call	 ??3@YAXPAX@Z		; operator delete
  000b9	59		 pop	 ecx
  000ba	c3		 ret	 0
$L93045:
  000bb	8b 45 f0	 mov	 eax, DWORD PTR $T92997[ebp]
  000be	50		 push	 eax
  000bf	e8 00 00 00 00	 call	 ??3@YAXPAX@Z		; operator delete
  000c4	59		 pop	 ecx
  000c5	c3		 ret	 0
$L93047:
  000c6	8b 45 f0	 mov	 eax, DWORD PTR $T93002[ebp]
  000c9	50		 push	 eax
  000ca	e8 00 00 00 00	 call	 ??3@YAXPAX@Z		; operator delete
  000cf	59		 pop	 ecx
  000d0	c3		 ret	 0
$L93049:
  000d1	8b 45 f0	 mov	 eax, DWORD PTR $T93007[ebp]
  000d4	50		 push	 eax
  000d5	e8 00 00 00 00	 call	 ??3@YAXPAX@Z		; operator delete
  000da	59		 pop	 ecx
  000db	c3		 ret	 0
__ehhandler$?InitQueryTControlSvr@@YAHPAVCSqlDatabase@@@Z:
  000dc	b8 00 00 00 00	 mov	 eax, OFFSET FLAT:$T93264
  000e1	e9 00 00 00 00	 jmp	 ___CxxFrameHandler
text$x	ENDS
?InitQueryTControlSvr@@YAHPAVCSqlDatabase@@@Z ENDP	; InitQueryTControlSvr
END
