; Listing generated by Microsoft (R) Optimizing Compiler Version 13.10.3077 

	TITLE	.\Handler.cpp
	.386P
include listing.inc
if @Version gt 510
.model FLAT
else
_TEXT	SEGMENT PARA USE32 PUBLIC 'CODE'
_TEXT	ENDS
_DATA	SEGMENT DWORD USE32 PUBLIC 'DATA'
_DATA	ENDS
CONST	SEGMENT DWORD USE32 PUBLIC 'CONST'
CONST	ENDS
_BSS	SEGMENT DWORD USE32 PUBLIC 'BSS'
_BSS	ENDS
$$SYMBOLS	SEGMENT BYTE USE32 'DEBSYM'
$$SYMBOLS	ENDS
$$TYPES	SEGMENT BYTE USE32 'DEBTYP'
$$TYPES	ENDS
_TLS	SEGMENT DWORD USE32 PUBLIC 'TLS'
_TLS	ENDS
;	COMDAT ??_C@_1EO@DHBCHLCP@?$AA?$HL?$AAA?$AA6?$AA6?$AA6?$AAC?$AA7?$AA7?$AA8?$AA?9?$AA2?$AA3?$AA0?$AA8?$AA?9?$AA4?$AA7?$AAB?$AA0?$AA?9@
CONST	SEGMENT DWORD USE32 PUBLIC 'CONST'
CONST	ENDS
;	COMDAT ??_C@_0CH@PFOCPGBE@?$HLA666C778?92308?947B0?9A6F4?9AAE1B0B@
CONST	SEGMENT DWORD USE32 PUBLIC 'CONST'
CONST	ENDS
;	COMDAT ??_C@_0N@OGFEPDED@LocalService?$AA@
CONST	SEGMENT DWORD USE32 PUBLIC 'CONST'
CONST	ENDS
;	COMDAT ??_C@_02CCDHMLDD@?9?1?$AA@
CONST	SEGMENT DWORD USE32 PUBLIC 'CONST'
CONST	ENDS
;	COMDAT ??_C@_0M@MIGBKCMN@UnregServer?$AA@
CONST	SEGMENT DWORD USE32 PUBLIC 'CONST'
CONST	ENDS
;	COMDAT ??_C@_09LJBJJPCG@RegServer?$AA@
CONST	SEGMENT DWORD USE32 PUBLIC 'CONST'
CONST	ENDS
;	COMDAT ??_C@_07LMLHFMEG@Service?$AA@
CONST	SEGMENT DWORD USE32 PUBLIC 'CONST'
CONST	ENDS
;	COMDAT ??_C@_07PNHNHBAB@Install?$AA@
CONST	SEGMENT DWORD USE32 PUBLIC 'CONST'
CONST	ENDS
;	COMDAT ??_C@_09LAEJNBCE@UnInstall?$AA@
CONST	SEGMENT DWORD USE32 PUBLIC 'CONST'
CONST	ENDS
;	COMDAT ??_C@_04FABLJDN@Name?$AA@
CONST	SEGMENT DWORD USE32 PUBLIC 'CONST'
CONST	ENDS
;	COMDAT ??_C@_01CLKCMJKC@?5?$AA@
CONST	SEGMENT DWORD USE32 PUBLIC 'CONST'
CONST	ENDS
;	COMDAT ??_C@_0M@DBFDLFJJ@?$CFs?5?9Name?5?$CFs?$AA@
CONST	SEGMENT DWORD USE32 PUBLIC 'CONST'
CONST	ENDS
;	COMDAT ??_C@_0BP@GECJKCAK@Could?5not?5open?5Service?5Manager?$AA@
CONST	SEGMENT DWORD USE32 PUBLIC 'CONST'
CONST	ENDS
;	COMDAT ??_C@_06HCEGMCNE@RPCSS?$AA?$AA@
CONST	SEGMENT DWORD USE32 PUBLIC 'CONST'
CONST	ENDS
;	COMDAT ??_C@_0BI@HDJFCBEP@Could?5not?5start?5service?$AA@
CONST	SEGMENT DWORD USE32 PUBLIC 'CONST'
CONST	ENDS
;	COMDAT ??_C@_0L@FBLKCHIB@CSPOPLogin?$AA@
CONST	SEGMENT DWORD USE32 PUBLIC 'CONST'
CONST	ENDS
;	COMDAT ??_C@_0BF@DAINNPCJ@start?5SvrControl?3?5?$CFs?$AA@
CONST	SEGMENT DWORD USE32 PUBLIC 'CONST'
CONST	ENDS
;	COMDAT ??_C@_0BE@FFPPINBN@Stop?5SvrControl?3?5?$CFs?$AA@
CONST	SEGMENT DWORD USE32 PUBLIC 'CONST'
CONST	ENDS
;	COMDAT ??_C@_0BJ@MHEBDDEP@Connect?5Error?5?$CFs?0?5?$CFd?0?5?$CFd?$AA@
CONST	SEGMENT DWORD USE32 PUBLIC 'CONST'
CONST	ENDS
;	COMDAT ??_C@_0BG@BMDMCDBC@Iocp?5Error?5?$CFs?0?5?$CFd?0?5?$CFd?$AA@
CONST	SEGMENT DWORD USE32 PUBLIC 'CONST'
CONST	ENDS
;	COMDAT ??_C@_0CA@OKOEHAEP@WaitForMessage?5Error?5?$CFs?0?5?$CFd?0?5?$CFd?$AA@
CONST	SEGMENT DWORD USE32 PUBLIC 'CONST'
CONST	ENDS
;	COMDAT ??_C@_0P@CCHDMKPD@New?5Connect?5?$CFd?$AA@
CONST	SEGMENT DWORD USE32 PUBLIC 'CONST'
CONST	ENDS
;	COMDAT ??_C@_0P@KCNDHKLD@TIMER_REQ?51MIN?$AA@
CONST	SEGMENT DWORD USE32 PUBLIC 'CONST'
CONST	ENDS
;	COMDAT ??_C@_02GMLFBBN@wb?$AA@
CONST	SEGMENT DWORD USE32 PUBLIC 'CONST'
CONST	ENDS
;	COMDAT ??_C@_0BC@MAICDHAC@__ServiceTemp?4hpy?$AA@
CONST	SEGMENT DWORD USE32 PUBLIC 'CONST'
CONST	ENDS
;	COMDAT ??_C@_08JLBBHJMM@Services?$AA@
CONST	SEGMENT DWORD USE32 PUBLIC 'CONST'
CONST	ENDS
;	COMDAT ??_C@_0M@KBPJBIDM@?2?2?$CFs?2c$?2?$CFs?2?$AA@
CONST	SEGMENT DWORD USE32 PUBLIC 'CONST'
CONST	ENDS
;	COMDAT ??_C@_02JDPG@rb?$AA@
CONST	SEGMENT DWORD USE32 PUBLIC 'CONST'
CONST	ENDS
;	COMDAT ??_C@_08JKDDDAD@?$CFd?$CFd?$CFd?$CFd?$AA@
CONST	SEGMENT DWORD USE32 PUBLIC 'CONST'
CONST	ENDS
;	COMDAT ??_C@_0P@DCAEHDBG@CSPUpdatePatch?$AA@
CONST	SEGMENT DWORD USE32 PUBLIC 'CONST'
CONST	ENDS
;	COMDAT ??_C@_0P@PFMHOGAK@CTBLPreVersion?$AA@
CONST	SEGMENT DWORD USE32 PUBLIC 'CONST'
CONST	ENDS
;	COMDAT ??_C@_0N@HLPJDCDB@CSPBetaToVer?$AA@
CONST	SEGMENT DWORD USE32 PUBLIC 'CONST'
CONST	ENDS
;	COMDAT ??_C@_0BE@HLGEHHLP@CSPDeletePreVersion?$AA@
CONST	SEGMENT DWORD USE32 PUBLIC 'CONST'
CONST	ENDS
;	COMDAT ??_C@_0BC@KEFPCEAB@CSPUpdatePrePatch?$AA@
CONST	SEGMENT DWORD USE32 PUBLIC 'CONST'
CONST	ENDS
;	COMDAT ??_C@_0P@EKPNLDEH@CSPEventUpdate?$AA@
CONST	SEGMENT DWORD USE32 PUBLIC 'CONST'
CONST	ENDS
;	COMDAT ??_C@_0BB@CKCJFDDH@CTBLCashShopItem?$AA@
CONST	SEGMENT DWORD USE32 PUBLIC 'CONST'
CONST	ENDS
;	COMDAT ??_C@_0BH@JMOCNDDL@Could?5not?5open?5service?$AA@
CONST	SEGMENT DWORD USE32 PUBLIC 'CONST'
CONST	ENDS
;	COMDAT ??_C@_0BH@GKJBBOLK@Could?5not?5stop?5service?$AA@
CONST	SEGMENT DWORD USE32 PUBLIC 'CONST'
CONST	ENDS
;	COMDAT ??_C@_0BJ@NMBIIKKI@Could?5not?5delete?5service?$AA@
CONST	SEGMENT DWORD USE32 PUBLIC 'CONST'
CONST	ENDS
;	COMDAT ??_C@_0BM@PAPJHAGI@invalid?5map?1set?$DMT?$DO?5iterator?$AA@
CONST	SEGMENT DWORD USE32 PUBLIC 'CONST'
CONST	ENDS
;	COMDAT ??_C@_0BE@JONHPENG@map?1set?$DMT?$DO?5too?5long?$AA@
CONST	SEGMENT DWORD USE32 PUBLIC 'CONST'
CONST	ENDS
text$yc	SEGMENT PARA USE32 PUBLIC 'CODE'
text$yc	ENDS
CRT$XCA	SEGMENT DWORD USE32 PUBLIC 'DATA'
CRT$XCA	ENDS
CRT$XCU	SEGMENT DWORD USE32 PUBLIC 'DATA'
CRT$XCU	ENDS
CRT$XCL	SEGMENT DWORD USE32 PUBLIC 'DATA'
CRT$XCL	ENDS
CRT$XCC	SEGMENT DWORD USE32 PUBLIC 'DATA'
CRT$XCC	ENDS
CRT$XCZ	SEGMENT DWORD USE32 PUBLIC 'DATA'
CRT$XCZ	ENDS
text$yd	SEGMENT PARA USE32 PUBLIC 'CODE'
text$yd	ENDS
ATL$__m	SEGMENT DWORD USE32 PUBLIC ''
ATL$__m	ENDS
ATL$__z	SEGMENT DWORD USE32 PUBLIC ''
ATL$__z	ENDS
ATL$__a	SEGMENT DWORD USE32 PUBLIC ''
ATL$__a	ENDS
xdata$x	SEGMENT DWORD USE32 PUBLIC 'CONST'
xdata$x	ENDS
;	COMDAT ?GetAppId@CTControlSvrModule@@SAPBGXZ
_TEXT	SEGMENT PARA USE32 PUBLIC 'CODE'
_TEXT	ENDS
;	COMDAT ?GetAppIdT@CTControlSvrModule@@SAPADXZ
_TEXT	SEGMENT PARA USE32 PUBLIC 'CODE'
_TEXT	ENDS
;	COMDAT ?UpdateRegistryAppId@CTControlSvrModule@@SGJH@Z
_TEXT	SEGMENT PARA USE32 PUBLIC 'CODE'
_TEXT	ENDS
;	COMDAT ?RegisterAppId@CTControlSvrModule@@QAEJ_N@Z
_TEXT	SEGMENT PARA USE32 PUBLIC 'CODE'
_TEXT	ENDS
;	COMDAT ?Install@CTControlSvrModule@@QAEHXZ
_TEXT	SEGMENT PARA USE32 PUBLIC 'CODE'
_TEXT	ENDS
;	COMDAT ?OnSM_DELSESSION_REQ@CTControlSvrModule@@IAEKPAUtagPACKETBUF@@@Z
_TEXT	SEGMENT PARA USE32 PUBLIC 'CODE'
_TEXT	ENDS
;	COMDAT ?OnCT_OPLOGIN_REQ@CTControlSvrModule@@IAEKPAUtagPACKETBUF@@@Z
_TEXT	SEGMENT PARA USE32 PUBLIC 'CODE'
_TEXT	ENDS
;	COMDAT ?OnCT_STLOGIN_REQ@CTControlSvrModule@@IAEKPAUtagPACKETBUF@@@Z
_TEXT	SEGMENT PARA USE32 PUBLIC 'CODE'
_TEXT	ENDS
;	COMDAT ?OnCT_SERVICESTAT_REQ@CTControlSvrModule@@IAEKPAUtagPACKETBUF@@@Z
_TEXT	SEGMENT PARA USE32 PUBLIC 'CODE'
_TEXT	ENDS
;	COMDAT ?OnCT_SERVICECONTROL_REQ@CTControlSvrModule@@IAEKPAUtagPACKETBUF@@@Z
_TEXT	SEGMENT PARA USE32 PUBLIC 'CODE'
_TEXT	ENDS
;	COMDAT ?OnCT_NEWCONNECT_REQ@CTControlSvrModule@@IAEKPAUtagPACKETBUF@@@Z
_TEXT	SEGMENT PARA USE32 PUBLIC 'CODE'
_TEXT	ENDS
;	COMDAT ?OnCT_SERVICECHANGE_REQ@CTControlSvrModule@@IAEKPAUtagPACKETBUF@@@Z
_TEXT	SEGMENT PARA USE32 PUBLIC 'CODE'
_TEXT	ENDS
;	COMDAT ?OnCT_TIMER_REQ@CTControlSvrModule@@IAEKPAUtagPACKETBUF@@@Z
_TEXT	SEGMENT PARA USE32 PUBLIC 'CODE'
_TEXT	ENDS
;	COMDAT ?OnCT_SERVICEMONITOR_REQ@CTControlSvrModule@@IAEKPAUtagPACKETBUF@@@Z
_TEXT	SEGMENT PARA USE32 PUBLIC 'CODE'
_TEXT	ENDS
;	COMDAT ?OnCT_SERVICEUPLOADSTART_REQ@CTControlSvrModule@@IAEKPAUtagPACKETBUF@@@Z
_TEXT	SEGMENT PARA USE32 PUBLIC 'CODE'
_TEXT	ENDS
;	COMDAT ?OnCT_SERVICEUPLOAD_REQ@CTControlSvrModule@@IAEKPAUtagPACKETBUF@@@Z
_TEXT	SEGMENT PARA USE32 PUBLIC 'CODE'
_TEXT	ENDS
;	COMDAT ?OnCT_SERVICEUPLOADEND_REQ@CTControlSvrModule@@IAEKPAUtagPACKETBUF@@@Z
_TEXT	SEGMENT PARA USE32 PUBLIC 'CODE'
_TEXT	ENDS
;	COMDAT ?OnCT_UPDATEPATCH_REQ@CTControlSvrModule@@IAEKPAUtagPACKETBUF@@@Z
_TEXT	SEGMENT PARA USE32 PUBLIC 'CODE'
_TEXT	ENDS
;	COMDAT ?OnCT_PREVERSIONTABLE_REQ@CTControlSvrModule@@IAEKPAUtagPACKETBUF@@@Z
_TEXT	SEGMENT PARA USE32 PUBLIC 'CODE'
_TEXT	ENDS
;	COMDAT ??0tagPATCHFILE@@QAE@XZ
_TEXT	SEGMENT PARA USE32 PUBLIC 'CODE'
_TEXT	ENDS
;	COMDAT ??1tagPATCHFILE@@QAE@XZ
_TEXT	SEGMENT PARA USE32 PUBLIC 'CODE'
_TEXT	ENDS
;	COMDAT ?OnCT_PREVERSIONUPDATE_REQ@CTControlSvrModule@@IAEKPAUtagPACKETBUF@@@Z
_TEXT	SEGMENT PARA USE32 PUBLIC 'CODE'
_TEXT	ENDS
;	COMDAT ?OnCT_ANNOUNCEMENT_REQ@CTControlSvrModule@@IAEKPAUtagPACKETBUF@@@Z
_TEXT	SEGMENT PARA USE32 PUBLIC 'CODE'
_TEXT	ENDS
;	COMDAT ?OnCT_USERKICKOUT_REQ@CTControlSvrModule@@IAEKPAUtagPACKETBUF@@@Z
_TEXT	SEGMENT PARA USE32 PUBLIC 'CODE'
_TEXT	ENDS
;	COMDAT ?OnCT_USERMOVE_REQ@CTControlSvrModule@@IAEKPAUtagPACKETBUF@@@Z
_TEXT	SEGMENT PARA USE32 PUBLIC 'CODE'
_TEXT	ENDS
;	COMDAT ?OnCT_USERPOSITION_REQ@CTControlSvrModule@@IAEKPAUtagPACKETBUF@@@Z
_TEXT	SEGMENT PARA USE32 PUBLIC 'CODE'
_TEXT	ENDS
;	COMDAT ?OnCT_MONSPAWNFIND_REQ@CTControlSvrModule@@IAEKPAUtagPACKETBUF@@@Z
_TEXT	SEGMENT PARA USE32 PUBLIC 'CODE'
_TEXT	ENDS
;	COMDAT ?OnCT_MONSPAWNFIND_ACK@CTControlSvrModule@@IAEKPAUtagPACKETBUF@@@Z
_TEXT	SEGMENT PARA USE32 PUBLIC 'CODE'
_TEXT	ENDS
;	COMDAT ?OnCT_MONACTION_REQ@CTControlSvrModule@@IAEKPAUtagPACKETBUF@@@Z
_TEXT	SEGMENT PARA USE32 PUBLIC 'CODE'
_TEXT	ENDS
;	COMDAT ?OnCT_PLATFORM_REQ@CTControlSvrModule@@IAEKPAUtagPACKETBUF@@@Z
_TEXT	SEGMENT PARA USE32 PUBLIC 'CODE'
_TEXT	ENDS
;	COMDAT ?OnCT_USERPROTECTED_REQ@CTControlSvrModule@@IAEKPAUtagPACKETBUF@@@Z
_TEXT	SEGMENT PARA USE32 PUBLIC 'CODE'
_TEXT	ENDS
;	COMDAT ?OnCT_CHARMSG_REQ@CTControlSvrModule@@IAEKPAUtagPACKETBUF@@@Z
_TEXT	SEGMENT PARA USE32 PUBLIC 'CODE'
_TEXT	ENDS
;	COMDAT ?OnCT_RECONNECT_REQ@CTControlSvrModule@@IAEKPAUtagPACKETBUF@@@Z
_TEXT	SEGMENT PARA USE32 PUBLIC 'CODE'
_TEXT	ENDS
;	COMDAT ?OnCT_SERVICEAUTOSTART_REQ@CTControlSvrModule@@IAEKPAUtagPACKETBUF@@@Z
_TEXT	SEGMENT PARA USE32 PUBLIC 'CODE'
_TEXT	ENDS
;	COMDAT ?OnCT_CHATBAN_REQ@CTControlSvrModule@@IAEKPAUtagPACKETBUF@@@Z
_TEXT	SEGMENT PARA USE32 PUBLIC 'CODE'
_TEXT	ENDS
;	COMDAT ??0tagBANINFO@@QAE@XZ
_TEXT	SEGMENT PARA USE32 PUBLIC 'CODE'
_TEXT	ENDS
;	COMDAT ?OnCT_CHATBAN_ACK@CTControlSvrModule@@IAEKPAUtagPACKETBUF@@@Z
_TEXT	SEGMENT PARA USE32 PUBLIC 'CODE'
_TEXT	ENDS
;	COMDAT ??_GtagBANINFO@@QAEPAXI@Z
_TEXT	SEGMENT PARA USE32 PUBLIC 'CODE'
_TEXT	ENDS
;	COMDAT ??1tagBANINFO@@QAE@XZ
_TEXT	SEGMENT PARA USE32 PUBLIC 'CODE'
_TEXT	ENDS
;	COMDAT ?OnCT_SERVICEDATACLEAR_REQ@CTControlSvrModule@@IAEKPAUtagPACKETBUF@@@Z
_TEXT	SEGMENT PARA USE32 PUBLIC 'CODE'
_TEXT	ENDS
;	COMDAT ?OnCT_ITEMFIND_REQ@CTControlSvrModule@@IAEKPAUtagPACKETBUF@@@Z
_TEXT	SEGMENT PARA USE32 PUBLIC 'CODE'
_TEXT	ENDS
;	COMDAT ?OnCT_ITEMFIND_ACK@CTControlSvrModule@@IAEKPAUtagPACKETBUF@@@Z
_TEXT	SEGMENT PARA USE32 PUBLIC 'CODE'
_TEXT	ENDS
;	COMDAT ?OnCT_ITEMSTATE_REQ@CTControlSvrModule@@IAEKPAUtagPACKETBUF@@@Z
_TEXT	SEGMENT PARA USE32 PUBLIC 'CODE'
_TEXT	ENDS
;	COMDAT ?OnCT_ITEMSTATE_ACK@CTControlSvrModule@@IAEKPAUtagPACKETBUF@@@Z
_TEXT	SEGMENT PARA USE32 PUBLIC 'CODE'
_TEXT	ENDS
;	COMDAT ?OnCT_CHATBANLIST_REQ@CTControlSvrModule@@IAEKPAUtagPACKETBUF@@@Z
_TEXT	SEGMENT PARA USE32 PUBLIC 'CODE'
_TEXT	ENDS
;	COMDAT ?OnCT_CHATBANLISTDEL_REQ@CTControlSvrModule@@IAEKPAUtagPACKETBUF@@@Z
_TEXT	SEGMENT PARA USE32 PUBLIC 'CODE'
_TEXT	ENDS
;	COMDAT ?OnCT_CASTLEINFO_REQ@CTControlSvrModule@@IAEKPAUtagPACKETBUF@@@Z
_TEXT	SEGMENT PARA USE32 PUBLIC 'CODE'
_TEXT	ENDS
;	COMDAT ?OnCT_CASTLEINFO_ACK@CTControlSvrModule@@IAEKPAUtagPACKETBUF@@@Z
_TEXT	SEGMENT PARA USE32 PUBLIC 'CODE'
_TEXT	ENDS
;	COMDAT ?OnCT_CASTLEGUILDCHG_REQ@CTControlSvrModule@@IAEKPAUtagPACKETBUF@@@Z
_TEXT	SEGMENT PARA USE32 PUBLIC 'CODE'
_TEXT	ENDS
;	COMDAT ?OnCT_CASTLEGUILDCHG_ACK@CTControlSvrModule@@IAEKPAUtagPACKETBUF@@@Z
_TEXT	SEGMENT PARA USE32 PUBLIC 'CODE'
_TEXT	ENDS
;	COMDAT ?OnCT_CASTLEENABLE_REQ@CTControlSvrModule@@IAEKPAUtagPACKETBUF@@@Z
_TEXT	SEGMENT PARA USE32 PUBLIC 'CODE'
_TEXT	ENDS
;	COMDAT ?OnCT_EVENTCHANGE_REQ@CTControlSvrModule@@IAEKPAUtagPACKETBUF@@@Z
_TEXT	SEGMENT PARA USE32 PUBLIC 'CODE'
_TEXT	ENDS
;	COMDAT ??0tagEVENTINFO@@QAE@XZ
_TEXT	SEGMENT PARA USE32 PUBLIC 'CODE'
_TEXT	ENDS
;	COMDAT ??1tagEVENTINFO@@QAE@XZ
_TEXT	SEGMENT PARA USE32 PUBLIC 'CODE'
_TEXT	ENDS
;	COMDAT ??0tagEVENTINFO@@QAE@ABU0@@Z
_TEXT	SEGMENT PARA USE32 PUBLIC 'CODE'
_TEXT	ENDS
;	COMDAT ??1?$pair@$$CBKUtagEVENTINFO@@@std@@QAE@XZ
_TEXT	SEGMENT PARA USE32 PUBLIC 'CODE'
_TEXT	ENDS
;	COMDAT ??0tagMONEVENT@@QAE@XZ
_TEXT	SEGMENT PARA USE32 PUBLIC 'CODE'
_TEXT	ENDS
;	COMDAT ??1tagMONEVENT@@QAE@XZ
_TEXT	SEGMENT PARA USE32 PUBLIC 'CODE'
_TEXT	ENDS
;	COMDAT ??0tagMONEVENT@@QAE@ABU0@@Z
_TEXT	SEGMENT PARA USE32 PUBLIC 'CODE'
_TEXT	ENDS
;	COMDAT ?OnCT_EVENTUPDATE_REQ@CTControlSvrModule@@IAEKPAUtagPACKETBUF@@@Z
_TEXT	SEGMENT PARA USE32 PUBLIC 'CODE'
_TEXT	ENDS
;	COMDAT ?OnCT_CASHITEMSALE_REQ@CTControlSvrModule@@IAEKPAUtagPACKETBUF@@@Z
_TEXT	SEGMENT PARA USE32 PUBLIC 'CODE'
_TEXT	ENDS
;	COMDAT ?OnCT_EVENTMSG_REQ@CTControlSvrModule@@IAEKPAUtagPACKETBUF@@@Z
_TEXT	SEGMENT PARA USE32 PUBLIC 'CODE'
_TEXT	ENDS
;	COMDAT ?OnCT_CASHSHOPSTOP_REQ@CTControlSvrModule@@IAEKPAUtagPACKETBUF@@@Z
_TEXT	SEGMENT PARA USE32 PUBLIC 'CODE'
_TEXT	ENDS
;	COMDAT ?OnCT_EVENTLIST_REQ@CTControlSvrModule@@IAEKPAUtagPACKETBUF@@@Z
_TEXT	SEGMENT PARA USE32 PUBLIC 'CODE'
_TEXT	ENDS
;	COMDAT ?OnCT_EVENTDEL_REQ@CTControlSvrModule@@IAEKPAUtagPACKETBUF@@@Z
_TEXT	SEGMENT PARA USE32 PUBLIC 'CODE'
_TEXT	ENDS
;	COMDAT ?OnCT_CASHITEMLIST_REQ@CTControlSvrModule@@IAEKPAUtagPACKETBUF@@@Z
_TEXT	SEGMENT PARA USE32 PUBLIC 'CODE'
_TEXT	ENDS
;	COMDAT ??0tagTCASHITEM@@QAE@XZ
_TEXT	SEGMENT PARA USE32 PUBLIC 'CODE'
_TEXT	ENDS
;	COMDAT ??1tagTCASHITEM@@QAE@XZ
_TEXT	SEGMENT PARA USE32 PUBLIC 'CODE'
_TEXT	ENDS
;	COMDAT ?OnCT_CASHITEMSALE_ACK@CTControlSvrModule@@IAEKPAUtagPACKETBUF@@@Z
_TEXT	SEGMENT PARA USE32 PUBLIC 'CODE'
_TEXT	ENDS
;	COMDAT ?OnCT_EVENTQUARTERLIST_REQ@CTControlSvrModule@@IAEKPAUtagPACKETBUF@@@Z
_TEXT	SEGMENT PARA USE32 PUBLIC 'CODE'
_TEXT	ENDS
;	COMDAT ?OnCT_EVENTQUARTERLIST_ACK@CTControlSvrModule@@IAEKPAUtagPACKETBUF@@@Z
_TEXT	SEGMENT PARA USE32 PUBLIC 'CODE'
_TEXT	ENDS
;	COMDAT ?OnCT_EVENTQUARTERUPDATE_REQ@CTControlSvrModule@@IAEKPAUtagPACKETBUF@@@Z
_TEXT	SEGMENT PARA USE32 PUBLIC 'CODE'
_TEXT	ENDS
;	COMDAT ?OnCT_EVENTQUARTERUPDATE_ACK@CTControlSvrModule@@IAEKPAUtagPACKETBUF@@@Z
_TEXT	SEGMENT PARA USE32 PUBLIC 'CODE'
_TEXT	ENDS
;	COMDAT ?OnCT_TOURNAMENTEVENT_REQ@CTControlSvrModule@@IAEKPAUtagPACKETBUF@@@Z
_TEXT	SEGMENT PARA USE32 PUBLIC 'CODE'
_TEXT	ENDS
;	COMDAT ?OnCT_TOURNAMENTEVENT_ACK@CTControlSvrModule@@IAEKPAUtagPACKETBUF@@@Z
_TEXT	SEGMENT PARA USE32 PUBLIC 'CODE'
_TEXT	ENDS
;	COMDAT ?OnCT_HELPMESSAGE_REQ@CTControlSvrModule@@IAEKPAUtagPACKETBUF@@@Z
_TEXT	SEGMENT PARA USE32 PUBLIC 'CODE'
_TEXT	ENDS
;	COMDAT ?OnCT_RPSGAMEDATA_REQ@CTControlSvrModule@@IAEKPAUtagPACKETBUF@@@Z
_TEXT	SEGMENT PARA USE32 PUBLIC 'CODE'
_TEXT	ENDS
;	COMDAT ?OnCT_RPSGAMECHANGE_REQ@CTControlSvrModule@@IAEKPAUtagPACKETBUF@@@Z
_TEXT	SEGMENT PARA USE32 PUBLIC 'CODE'
_TEXT	ENDS
;	COMDAT ?OnCT_RPSGAMEDATA_ACK@CTControlSvrModule@@IAEKPAUtagPACKETBUF@@@Z
_TEXT	SEGMENT PARA USE32 PUBLIC 'CODE'
_TEXT	ENDS
;	COMDAT ??4?$CStringT@DV?$StrTraitATL@DV?$ChTraitsCRT@D@ATL@@@ATL@@@ATL@@QAEAAV01@ABV01@@Z
_TEXT	SEGMENT PARA USE32 PUBLIC 'CODE'
_TEXT	ENDS
;	COMDAT ?Tokenize@?$CStringT@DV?$StrTraitATL@DV?$ChTraitsCRT@D@ATL@@@ATL@@@ATL@@QBE?AV12@PBDAAH@Z
_TEXT	SEGMENT PARA USE32 PUBLIC 'CODE'
_TEXT	ENDS
;	COMDAT ?Format@?$CStringT@DV?$StrTraitATL@DV?$ChTraitsCRT@D@ATL@@@ATL@@@ATL@@QAAXPBDZZ
_TEXT	SEGMENT PARA USE32 PUBLIC 'CODE'
_TEXT	ENDS
;	COMDAT ??HATL@@YA?AV?$CStringT@DV?$StrTraitATL@DV?$ChTraitsCRT@D@ATL@@@ATL@@@0@ABV10@0@Z
_TEXT	SEGMENT PARA USE32 PUBLIC 'CODE'
_TEXT	ENDS
;	COMDAT ?IsEmpty@?$CSimpleStringT@D$0A@@ATL@@QBE_NXZ
_TEXT	SEGMENT PARA USE32 PUBLIC 'CODE'
_TEXT	ENDS
;	COMDAT ?front@?$vector@V?$CStringT@DV?$StrTraitATL@DV?$ChTraitsCRT@D@ATL@@@ATL@@@ATL@@V?$allocator@V?$CStringT@DV?$StrTraitATL@DV?$ChTraitsCRT@D@ATL@@@ATL@@@ATL@@@std@@@std@@QAEAAV?$CStringT@DV?$StrTraitATL@DV?$ChTraitsCRT@D@ATL@@@ATL@@@ATL@@XZ
_TEXT	SEGMENT PARA USE32 PUBLIC 'CODE'
_TEXT	ENDS
;	COMDAT ??0?$vector@GV?$allocator@G@std@@@std@@QAE@XZ
_TEXT	SEGMENT PARA USE32 PUBLIC 'CODE'
_TEXT	ENDS
;	COMDAT ??0?$vector@GV?$allocator@G@std@@@std@@QAE@ABV01@@Z
_TEXT	SEGMENT PARA USE32 PUBLIC 'CODE'
_TEXT	ENDS
;	COMDAT ??1?$vector@GV?$allocator@G@std@@@std@@QAE@XZ
_TEXT	SEGMENT PARA USE32 PUBLIC 'CODE'
_TEXT	ENDS
;	COMDAT ??0?$vector@UtagTCASHITEMSALE@@V?$allocator@UtagTCASHITEMSALE@@@std@@@std@@QAE@XZ
_TEXT	SEGMENT PARA USE32 PUBLIC 'CODE'
_TEXT	ENDS
;	COMDAT ??0?$vector@UtagTCASHITEMSALE@@V?$allocator@UtagTCASHITEMSALE@@@std@@@std@@QAE@ABV01@@Z
_TEXT	SEGMENT PARA USE32 PUBLIC 'CODE'
_TEXT	ENDS
;	COMDAT ??1?$vector@UtagTCASHITEMSALE@@V?$allocator@UtagTCASHITEMSALE@@@std@@@std@@QAE@XZ
_TEXT	SEGMENT PARA USE32 PUBLIC 'CODE'
_TEXT	ENDS
;	COMDAT ??0?$vector@UtagMONREGEN@@V?$allocator@UtagMONREGEN@@@std@@@std@@QAE@XZ
_TEXT	SEGMENT PARA USE32 PUBLIC 'CODE'
_TEXT	ENDS
;	COMDAT ??0?$vector@UtagMONREGEN@@V?$allocator@UtagMONREGEN@@@std@@@std@@QAE@ABV01@@Z
_TEXT	SEGMENT PARA USE32 PUBLIC 'CODE'
_TEXT	ENDS
;	COMDAT ??1?$vector@UtagMONREGEN@@V?$allocator@UtagMONREGEN@@@std@@@std@@QAE@XZ
_TEXT	SEGMENT PARA USE32 PUBLIC 'CODE'
_TEXT	ENDS
;	COMDAT ??0?$vector@UtagLOTTERY@@V?$allocator@UtagLOTTERY@@@std@@@std@@QAE@XZ
_TEXT	SEGMENT PARA USE32 PUBLIC 'CODE'
_TEXT	ENDS
;	COMDAT ??0?$vector@UtagLOTTERY@@V?$allocator@UtagLOTTERY@@@std@@@std@@QAE@ABV01@@Z
_TEXT	SEGMENT PARA USE32 PUBLIC 'CODE'
_TEXT	ENDS
;	COMDAT ??1?$vector@UtagLOTTERY@@V?$allocator@UtagLOTTERY@@@std@@@std@@QAE@XZ
_TEXT	SEGMENT PARA USE32 PUBLIC 'CODE'
_TEXT	ENDS
;	COMDAT ?UnregisterAppId@?$CAtlServiceModuleT@VCTControlSvrModule@@$0GE@@ATL@@QAEJXZ
_TEXT	SEGMENT PARA USE32 PUBLIC 'CODE'
_TEXT	ENDS
;	COMDAT ?IsInstalled@?$CAtlServiceModuleT@VCTControlSvrModule@@$0GE@@ATL@@QAEHXZ
_TEXT	SEGMENT PARA USE32 PUBLIC 'CODE'
_TEXT	ENDS
;	COMDAT ?Uninstall@?$CAtlServiceModuleT@VCTControlSvrModule@@$0GE@@ATL@@QAEHXZ
_TEXT	SEGMENT PARA USE32 PUBLIC 'CODE'
_TEXT	ENDS
;	COMDAT ?LogEvent@?$CAtlServiceModuleT@VCTControlSvrModule@@$0GE@@ATL@@QAAXPBDZZ
_TEXT	SEGMENT PARA USE32 PUBLIC 'CODE'
_TEXT	ENDS
;	COMDAT ??1?$CAtlExeModuleT@VCTControlSvrModule@@@ATL@@UAE@XZ
_TEXT	SEGMENT PARA USE32 PUBLIC 'CODE'
_TEXT	ENDS
;	COMDAT ?Unlock@?$CAtlExeModuleT@VCTControlSvrModule@@@ATL@@UAEJXZ
_TEXT	SEGMENT PARA USE32 PUBLIC 'CODE'
_TEXT	ENDS
;	COMDAT ?RegisterServer@?$CAtlModuleT@VCTControlSvrModule@@@ATL@@QAEJHPBU_GUID@@@Z
_TEXT	SEGMENT PARA USE32 PUBLIC 'CODE'
_TEXT	ENDS
;	COMDAT ?UnregisterServer@?$CAtlModuleT@VCTControlSvrModule@@@ATL@@QAEJHPBU_GUID@@@Z
_TEXT	SEGMENT PARA USE32 PUBLIC 'CODE'
_TEXT	ENDS
;	COMDAT ?AddCommonRGSReplacements@?$CAtlModuleT@VCTControlSvrModule@@@ATL@@UAEJPAUIRegistrarBase@@@Z
_TEXT	SEGMENT PARA USE32 PUBLIC 'CODE'
_TEXT	ENDS
;	COMDAT ?begin@?$_Tree@V?$_Tmap_traits@KPAUtagTSVRTEMP@@U?$less@K@std@@V?$allocator@U?$pair@$$CBKPAUtagTSVRTEMP@@@std@@@3@$0A@@std@@@std@@QAE?AViterator@12@XZ
_TEXT	SEGMENT PARA USE32 PUBLIC 'CODE'
_TEXT	ENDS
;	COMDAT ?end@?$_Tree@V?$_Tmap_traits@KPAUtagTSVRTEMP@@U?$less@K@std@@V?$allocator@U?$pair@$$CBKPAUtagTSVRTEMP@@@std@@@3@$0A@@std@@@std@@QAE?AViterator@12@XZ
_TEXT	SEGMENT PARA USE32 PUBLIC 'CODE'
_TEXT	ENDS
;	COMDAT ?find@?$_Tree@V?$_Tmap_traits@KPAUtagTSVRTEMP@@U?$less@K@std@@V?$allocator@U?$pair@$$CBKPAUtagTSVRTEMP@@@std@@@3@$0A@@std@@@std@@QAE?AViterator@12@ABK@Z
_TEXT	SEGMENT PARA USE32 PUBLIC 'CODE'
_TEXT	ENDS
;	COMDAT ?begin@?$_Tree@V?$_Tmap_traits@KPAVCTManager@@U?$less@K@std@@V?$allocator@U?$pair@$$CBKPAVCTManager@@@std@@@3@$0A@@std@@@std@@QAE?AViterator@12@XZ
_TEXT	SEGMENT PARA USE32 PUBLIC 'CODE'
_TEXT	ENDS
;	COMDAT ?end@?$_Tree@V?$_Tmap_traits@KPAVCTManager@@U?$less@K@std@@V?$allocator@U?$pair@$$CBKPAVCTManager@@@std@@@3@$0A@@std@@@std@@QAE?AViterator@12@XZ
_TEXT	SEGMENT PARA USE32 PUBLIC 'CODE'
_TEXT	ENDS
;	COMDAT ?insert@?$_Tree@V?$_Tmap_traits@KPAVCTManager@@U?$less@K@std@@V?$allocator@U?$pair@$$CBKPAVCTManager@@@std@@@3@$0A@@std@@@std@@QAE?AU?$pair@Viterator@?$_Tree@V?$_Tmap_traits@KPAVCTManager@@U?$less@K@std@@V?$allocator@U?$pair@$$CBKPAVCTManager@@@std@@@3@$0A@@std@@@std@@_N@2@ABU?$pair@$$CBKPAVCTManager@@@2@@Z
_TEXT	SEGMENT PARA USE32 PUBLIC 'CODE'
_TEXT	ENDS
;	COMDAT ?find@?$_Tree@V?$_Tmap_traits@KPAVCTManager@@U?$less@K@std@@V?$allocator@U?$pair@$$CBKPAVCTManager@@@std@@@3@$0A@@std@@@std@@QAE?AViterator@12@ABK@Z
_TEXT	SEGMENT PARA USE32 PUBLIC 'CODE'
_TEXT	ENDS
;	COMDAT ?end@?$_Tree@V?$_Tmap_traits@EPAUtagTMACHINE@@U?$less@E@std@@V?$allocator@U?$pair@$$CBEPAUtagTMACHINE@@@std@@@3@$0A@@std@@@std@@QAE?AViterator@12@XZ
_TEXT	SEGMENT PARA USE32 PUBLIC 'CODE'
_TEXT	ENDS
;	COMDAT ?find@?$_Tree@V?$_Tmap_traits@EPAUtagTMACHINE@@U?$less@E@std@@V?$allocator@U?$pair@$$CBEPAUtagTMACHINE@@@std@@@3@$0A@@std@@@std@@QAE?AViterator@12@ABE@Z
_TEXT	SEGMENT PARA USE32 PUBLIC 'CODE'
_TEXT	ENDS
;	COMDAT ?begin@?$_Tree@V?$_Tmap_traits@KPAUtagBANINFO@@U?$less@K@std@@V?$allocator@U?$pair@$$CBKPAUtagBANINFO@@@std@@@3@$0A@@std@@@std@@QAE?AViterator@12@XZ
_TEXT	SEGMENT PARA USE32 PUBLIC 'CODE'
_TEXT	ENDS
;	COMDAT ?end@?$_Tree@V?$_Tmap_traits@KPAUtagBANINFO@@U?$less@K@std@@V?$allocator@U?$pair@$$CBKPAUtagBANINFO@@@std@@@3@$0A@@std@@@std@@QAE?AViterator@12@XZ
_TEXT	SEGMENT PARA USE32 PUBLIC 'CODE'
_TEXT	ENDS
;	COMDAT ?insert@?$_Tree@V?$_Tmap_traits@KPAUtagBANINFO@@U?$less@K@std@@V?$allocator@U?$pair@$$CBKPAUtagBANINFO@@@std@@@3@$0A@@std@@@std@@QAE?AU?$pair@Viterator@?$_Tree@V?$_Tmap_traits@KPAUtagBANINFO@@U?$less@K@std@@V?$allocator@U?$pair@$$CBKPAUtagBANINFO@@@std@@@3@$0A@@std@@@std@@_N@2@ABU?$pair@$$CBKPAUtagBANINFO@@@2@@Z
_TEXT	SEGMENT PARA USE32 PUBLIC 'CODE'
_TEXT	ENDS
;	COMDAT ?erase@?$_Tree@V?$_Tmap_traits@KPAUtagBANINFO@@U?$less@K@std@@V?$allocator@U?$pair@$$CBKPAUtagBANINFO@@@std@@@3@$0A@@std@@@std@@QAE?AViterator@12@V312@@Z
_TEXT	SEGMENT PARA USE32 PUBLIC 'CODE'
_TEXT	ENDS
;	COMDAT ?clear@?$_Tree@V?$_Tmap_traits@KPAUtagBANINFO@@U?$less@K@std@@V?$allocator@U?$pair@$$CBKPAUtagBANINFO@@@std@@@3@$0A@@std@@@std@@QAEXXZ
_TEXT	SEGMENT PARA USE32 PUBLIC 'CODE'
_TEXT	ENDS
;	COMDAT ?find@?$_Tree@V?$_Tmap_traits@KPAUtagBANINFO@@U?$less@K@std@@V?$allocator@U?$pair@$$CBKPAUtagBANINFO@@@std@@@3@$0A@@std@@@std@@QAE?AViterator@12@ABK@Z
_TEXT	SEGMENT PARA USE32 PUBLIC 'CODE'
_TEXT	ENDS
;	COMDAT ?begin@?$_Tree@V?$_Tmap_traits@KUtagEVENTINFO@@U?$less@K@std@@V?$allocator@U?$pair@$$CBKUtagEVENTINFO@@@std@@@3@$0A@@std@@@std@@QAE?AViterator@12@XZ
_TEXT	SEGMENT PARA USE32 PUBLIC 'CODE'
_TEXT	ENDS
;	COMDAT ?end@?$_Tree@V?$_Tmap_traits@KUtagEVENTINFO@@U?$less@K@std@@V?$allocator@U?$pair@$$CBKUtagEVENTINFO@@@std@@@3@$0A@@std@@@std@@QAE?AViterator@12@XZ
_TEXT	SEGMENT PARA USE32 PUBLIC 'CODE'
_TEXT	ENDS
;	COMDAT ?insert@?$_Tree@V?$_Tmap_traits@KUtagEVENTINFO@@U?$less@K@std@@V?$allocator@U?$pair@$$CBKUtagEVENTINFO@@@std@@@3@$0A@@std@@@std@@QAE?AU?$pair@Viterator@?$_Tree@V?$_Tmap_traits@KUtagEVENTINFO@@U?$less@K@std@@V?$allocator@U?$pair@$$CBKUtagEVENTINFO@@@std@@@3@$0A@@std@@@std@@_N@2@ABU?$pair@$$CBKUtagEVENTINFO@@@2@@Z
_TEXT	SEGMENT PARA USE32 PUBLIC 'CODE'
_TEXT	ENDS
;	COMDAT ?erase@?$_Tree@V?$_Tmap_traits@KUtagEVENTINFO@@U?$less@K@std@@V?$allocator@U?$pair@$$CBKUtagEVENTINFO@@@std@@@3@$0A@@std@@@std@@QAE?AViterator@12@V312@@Z
_TEXT	SEGMENT PARA USE32 PUBLIC 'CODE'
_TEXT	ENDS
;	COMDAT ?find@?$_Tree@V?$_Tmap_traits@KUtagEVENTINFO@@U?$less@K@std@@V?$allocator@U?$pair@$$CBKUtagEVENTINFO@@@std@@@3@$0A@@std@@@std@@QAE?AViterator@12@ABK@Z
_TEXT	SEGMENT PARA USE32 PUBLIC 'CODE'
_TEXT	ENDS
;	COMDAT ??0?$pair@$$CBKPAVCTManager@@@std@@QAE@ABKABQAVCTManager@@@Z
_TEXT	SEGMENT PARA USE32 PUBLIC 'CODE'
_TEXT	ENDS
;	COMDAT ??0iterator@?$_Tree@V?$_Tmap_traits@KPAVCTManager@@U?$less@K@std@@V?$allocator@U?$pair@$$CBKPAVCTManager@@@std@@@3@$0A@@std@@@std@@QAE@XZ
_TEXT	SEGMENT PARA USE32 PUBLIC 'CODE'
_TEXT	ENDS
;	COMDAT ??Diterator@?$_Tree@V?$_Tmap_traits@KPAVCTManager@@U?$less@K@std@@V?$allocator@U?$pair@$$CBKPAVCTManager@@@std@@@3@$0A@@std@@@std@@QBEAAU?$pair@$$CBKPAVCTManager@@@2@XZ
_TEXT	SEGMENT PARA USE32 PUBLIC 'CODE'
_TEXT	ENDS
;	COMDAT ??Eiterator@?$_Tree@V?$_Tmap_traits@KPAVCTManager@@U?$less@K@std@@V?$allocator@U?$pair@$$CBKPAVCTManager@@@std@@@3@$0A@@std@@@std@@QAE?AV012@H@Z
_TEXT	SEGMENT PARA USE32 PUBLIC 'CODE'
_TEXT	ENDS
;	COMDAT ??9const_iterator@?$_Tree@V?$_Tmap_traits@KPAVCTManager@@U?$less@K@std@@V?$allocator@U?$pair@$$CBKPAVCTManager@@@std@@@3@$0A@@std@@@std@@QBE_NABV012@@Z
_TEXT	SEGMENT PARA USE32 PUBLIC 'CODE'
_TEXT	ENDS
;	COMDAT ??0iterator@?$_Tree@V?$_Tmap_traits@KPAUtagTSVRTEMP@@U?$less@K@std@@V?$allocator@U?$pair@$$CBKPAUtagTSVRTEMP@@@std@@@3@$0A@@std@@@std@@QAE@XZ
_TEXT	SEGMENT PARA USE32 PUBLIC 'CODE'
_TEXT	ENDS
;	COMDAT ??Diterator@?$_Tree@V?$_Tmap_traits@KPAUtagTSVRTEMP@@U?$less@K@std@@V?$allocator@U?$pair@$$CBKPAUtagTSVRTEMP@@@std@@@3@$0A@@std@@@std@@QBEAAU?$pair@$$CBKPAUtagTSVRTEMP@@@2@XZ
_TEXT	SEGMENT PARA USE32 PUBLIC 'CODE'
_TEXT	ENDS
;	COMDAT ??Eiterator@?$_Tree@V?$_Tmap_traits@KPAUtagTSVRTEMP@@U?$less@K@std@@V?$allocator@U?$pair@$$CBKPAUtagTSVRTEMP@@@std@@@3@$0A@@std@@@std@@QAE?AV012@H@Z
_TEXT	SEGMENT PARA USE32 PUBLIC 'CODE'
_TEXT	ENDS
;	COMDAT ??8const_iterator@?$_Tree@V?$_Tmap_traits@KPAUtagTSVRTEMP@@U?$less@K@std@@V?$allocator@U?$pair@$$CBKPAUtagTSVRTEMP@@@std@@@3@$0A@@std@@@std@@QBE_NABV012@@Z
_TEXT	SEGMENT PARA USE32 PUBLIC 'CODE'
_TEXT	ENDS
;	COMDAT ??9const_iterator@?$_Tree@V?$_Tmap_traits@KPAUtagTSVRTEMP@@U?$less@K@std@@V?$allocator@U?$pair@$$CBKPAUtagTSVRTEMP@@@std@@@3@$0A@@std@@@std@@QBE_NABV012@@Z
_TEXT	SEGMENT PARA USE32 PUBLIC 'CODE'
_TEXT	ENDS
;	COMDAT ??Diterator@?$_Tree@V?$_Tmap_traits@EPAUtagTMACHINE@@U?$less@E@std@@V?$allocator@U?$pair@$$CBEPAUtagTMACHINE@@@std@@@3@$0A@@std@@@std@@QBEAAU?$pair@$$CBEPAUtagTMACHINE@@@2@XZ
_TEXT	SEGMENT PARA USE32 PUBLIC 'CODE'
_TEXT	ENDS
;	COMDAT ??8const_iterator@?$_Tree@V?$_Tmap_traits@EPAUtagTMACHINE@@U?$less@E@std@@V?$allocator@U?$pair@$$CBEPAUtagTMACHINE@@@std@@@3@$0A@@std@@@std@@QBE_NABV012@@Z
_TEXT	SEGMENT PARA USE32 PUBLIC 'CODE'
_TEXT	ENDS
;	COMDAT ??0?$vector@UtagPATCHFILE@@V?$allocator@UtagPATCHFILE@@@std@@@std@@QAE@XZ
_TEXT	SEGMENT PARA USE32 PUBLIC 'CODE'
_TEXT	ENDS
;	COMDAT ??1?$vector@UtagPATCHFILE@@V?$allocator@UtagPATCHFILE@@@std@@@std@@QAE@XZ
_TEXT	SEGMENT PARA USE32 PUBLIC 'CODE'
_TEXT	ENDS
;	COMDAT ?push_back@?$vector@UtagPATCHFILE@@V?$allocator@UtagPATCHFILE@@@std@@@std@@QAEXABUtagPATCHFILE@@@Z
_TEXT	SEGMENT PARA USE32 PUBLIC 'CODE'
_TEXT	ENDS
;	COMDAT ??0?$pair@$$CBKPAUtagBANINFO@@@std@@QAE@ABKABQAUtagBANINFO@@@Z
_TEXT	SEGMENT PARA USE32 PUBLIC 'CODE'
_TEXT	ENDS
;	COMDAT ??0iterator@?$_Tree@V?$_Tmap_traits@KPAUtagBANINFO@@U?$less@K@std@@V?$allocator@U?$pair@$$CBKPAUtagBANINFO@@@std@@@3@$0A@@std@@@std@@QAE@XZ
_TEXT	SEGMENT PARA USE32 PUBLIC 'CODE'
_TEXT	ENDS
;	COMDAT ??Diterator@?$_Tree@V?$_Tmap_traits@KPAUtagBANINFO@@U?$less@K@std@@V?$allocator@U?$pair@$$CBKPAUtagBANINFO@@@std@@@3@$0A@@std@@@std@@QBEAAU?$pair@$$CBKPAUtagBANINFO@@@2@XZ
_TEXT	SEGMENT PARA USE32 PUBLIC 'CODE'
_TEXT	ENDS
;	COMDAT ??Eiterator@?$_Tree@V?$_Tmap_traits@KPAUtagBANINFO@@U?$less@K@std@@V?$allocator@U?$pair@$$CBKPAUtagBANINFO@@@std@@@3@$0A@@std@@@std@@QAE?AV012@H@Z
_TEXT	SEGMENT PARA USE32 PUBLIC 'CODE'
_TEXT	ENDS
;	COMDAT ??8const_iterator@?$_Tree@V?$_Tmap_traits@KPAUtagBANINFO@@U?$less@K@std@@V?$allocator@U?$pair@$$CBKPAUtagBANINFO@@@std@@@3@$0A@@std@@@std@@QBE_NABV012@@Z
_TEXT	SEGMENT PARA USE32 PUBLIC 'CODE'
_TEXT	ENDS
;	COMDAT ??9const_iterator@?$_Tree@V?$_Tmap_traits@KPAUtagBANINFO@@U?$less@K@std@@V?$allocator@U?$pair@$$CBKPAUtagBANINFO@@@std@@@3@$0A@@std@@@std@@QBE_NABV012@@Z
_TEXT	SEGMENT PARA USE32 PUBLIC 'CODE'
_TEXT	ENDS
;	COMDAT ??0iterator@?$_Tree@V?$_Tmap_traits@KUtagEVENTINFO@@U?$less@K@std@@V?$allocator@U?$pair@$$CBKUtagEVENTINFO@@@std@@@3@$0A@@std@@@std@@QAE@XZ
_TEXT	SEGMENT PARA USE32 PUBLIC 'CODE'
_TEXT	ENDS
;	COMDAT ??Diterator@?$_Tree@V?$_Tmap_traits@KUtagEVENTINFO@@U?$less@K@std@@V?$allocator@U?$pair@$$CBKUtagEVENTINFO@@@std@@@3@$0A@@std@@@std@@QBEAAU?$pair@$$CBKUtagEVENTINFO@@@2@XZ
_TEXT	SEGMENT PARA USE32 PUBLIC 'CODE'
_TEXT	ENDS
;	COMDAT ??Eiterator@?$_Tree@V?$_Tmap_traits@KUtagEVENTINFO@@U?$less@K@std@@V?$allocator@U?$pair@$$CBKUtagEVENTINFO@@@std@@@3@$0A@@std@@@std@@QAE?AV012@H@Z
_TEXT	SEGMENT PARA USE32 PUBLIC 'CODE'
_TEXT	ENDS
;	COMDAT ??8const_iterator@?$_Tree@V?$_Tmap_traits@KUtagEVENTINFO@@U?$less@K@std@@V?$allocator@U?$pair@$$CBKUtagEVENTINFO@@@std@@@3@$0A@@std@@@std@@QBE_NABV012@@Z
_TEXT	SEGMENT PARA USE32 PUBLIC 'CODE'
_TEXT	ENDS
;	COMDAT ??9const_iterator@?$_Tree@V?$_Tmap_traits@KUtagEVENTINFO@@U?$less@K@std@@V?$allocator@U?$pair@$$CBKUtagEVENTINFO@@@std@@@3@$0A@@std@@@std@@QBE_NABV012@@Z
_TEXT	SEGMENT PARA USE32 PUBLIC 'CODE'
_TEXT	ENDS
;	COMDAT ??0?$pair@$$CBKUtagEVENTINFO@@@std@@QAE@ABKABUtagEVENTINFO@@@Z
_TEXT	SEGMENT PARA USE32 PUBLIC 'CODE'
_TEXT	ENDS
;	COMDAT ??0?$vector@EV?$allocator@E@std@@@std@@QAE@XZ
_TEXT	SEGMENT PARA USE32 PUBLIC 'CODE'
_TEXT	ENDS
;	COMDAT ??1?$vector@EV?$allocator@E@std@@@std@@QAE@XZ
_TEXT	SEGMENT PARA USE32 PUBLIC 'CODE'
_TEXT	ENDS
;	COMDAT ?size@?$vector@EV?$allocator@E@std@@@std@@QBEIXZ
_TEXT	SEGMENT PARA USE32 PUBLIC 'CODE'
_TEXT	ENDS
;	COMDAT ??A?$vector@EV?$allocator@E@std@@@std@@QAEAAEI@Z
_TEXT	SEGMENT PARA USE32 PUBLIC 'CODE'
_TEXT	ENDS
;	COMDAT ?push_back@?$vector@EV?$allocator@E@std@@@std@@QAEXABE@Z
_TEXT	SEGMENT PARA USE32 PUBLIC 'CODE'
_TEXT	ENDS
;	COMDAT ??0?$vector@UtagTCASHITEM@@V?$allocator@UtagTCASHITEM@@@std@@@std@@QAE@XZ
_TEXT	SEGMENT PARA USE32 PUBLIC 'CODE'
_TEXT	ENDS
;	COMDAT ??1?$vector@UtagTCASHITEM@@V?$allocator@UtagTCASHITEM@@@std@@@std@@QAE@XZ
_TEXT	SEGMENT PARA USE32 PUBLIC 'CODE'
_TEXT	ENDS
;	COMDAT ?push_back@?$vector@UtagTCASHITEM@@V?$allocator@UtagTCASHITEM@@@std@@@std@@QAEXABUtagTCASHITEM@@@Z
_TEXT	SEGMENT PARA USE32 PUBLIC 'CODE'
_TEXT	ENDS
;	COMDAT ?clear@?$vector@UtagTCASHITEM@@V?$allocator@UtagTCASHITEM@@@std@@@std@@QAEXXZ
_TEXT	SEGMENT PARA USE32 PUBLIC 'CODE'
_TEXT	ENDS
;	COMDAT ??_G?$CAtlExeModuleT@VCTControlSvrModule@@@ATL@@UAEPAXI@Z
_TEXT	SEGMENT PARA USE32 PUBLIC 'CODE'
_TEXT	ENDS
;	COMDAT ??1?$CAtlModuleT@VCTControlSvrModule@@@ATL@@UAE@XZ
_TEXT	SEGMENT PARA USE32 PUBLIC 'CODE'
_TEXT	ENDS
;	COMDAT ??0out_of_range@std@@QAE@ABV01@@Z
_TEXT	SEGMENT PARA USE32 PUBLIC 'CODE'
_TEXT	ENDS
;	COMDAT ??0?$CStringT@DV?$StrTraitATL@DV?$ChTraitsCRT@D@ATL@@@ATL@@@ATL@@QAE@PAUIAtlStringMgr@1@@Z
_TEXT	SEGMENT PARA USE32 PUBLIC 'CODE'
_TEXT	ENDS
;	COMDAT ?Mid@?$CStringT@DV?$StrTraitATL@DV?$ChTraitsCRT@D@ATL@@@ATL@@@ATL@@QBE?AV12@HH@Z
_TEXT	SEGMENT PARA USE32 PUBLIC 'CODE'
_TEXT	ENDS
;	COMDAT ?FormatV@?$CStringT@DV?$StrTraitATL@DV?$ChTraitsCRT@D@ATL@@@ATL@@@ATL@@QAEXPBDPAD@Z
_TEXT	SEGMENT PARA USE32 PUBLIC 'CODE'
_TEXT	ENDS
;	COMDAT ??4?$CSimpleStringT@D$0A@@ATL@@QAEAAV01@ABV01@@Z
_TEXT	SEGMENT PARA USE32 PUBLIC 'CODE'
_TEXT	ENDS
;	COMDAT ?GetManager@?$CSimpleStringT@D$0A@@ATL@@QBEPAUIAtlStringMgr@2@XZ
_TEXT	SEGMENT PARA USE32 PUBLIC 'CODE'
_TEXT	ENDS
;	COMDAT ?Concatenate@?$CSimpleStringT@D$0A@@ATL@@KAXAAV12@PBDH1H@Z
_TEXT	SEGMENT PARA USE32 PUBLIC 'CODE'
_TEXT	ENDS
;	COMDAT ?StringSpanIncluding@?$ChTraitsCRT@D@ATL@@SAHPBD0@Z
_TEXT	SEGMENT PARA USE32 PUBLIC 'CODE'
_TEXT	ENDS
;	COMDAT ?StringSpanExcluding@?$ChTraitsCRT@D@ATL@@SAHPBD0@Z
_TEXT	SEGMENT PARA USE32 PUBLIC 'CODE'
_TEXT	ENDS
;	COMDAT ?begin@?$vector@V?$CStringT@DV?$StrTraitATL@DV?$ChTraitsCRT@D@ATL@@@ATL@@@ATL@@V?$allocator@V?$CStringT@DV?$StrTraitATL@DV?$ChTraitsCRT@D@ATL@@@ATL@@@ATL@@@std@@@std@@QAE?AViterator@12@XZ
_TEXT	SEGMENT PARA USE32 PUBLIC 'CODE'
_TEXT	ENDS
;	COMDAT ?begin@?$vector@GV?$allocator@G@std@@@std@@QBE?AVconst_iterator@12@XZ
_TEXT	SEGMENT PARA USE32 PUBLIC 'CODE'
_TEXT	ENDS
;	COMDAT ?end@?$vector@GV?$allocator@G@std@@@std@@QBE?AVconst_iterator@12@XZ
_TEXT	SEGMENT PARA USE32 PUBLIC 'CODE'
_TEXT	ENDS
;	COMDAT ?_Buy@?$vector@GV?$allocator@G@std@@@std@@IAE_NI@Z
_TEXT	SEGMENT PARA USE32 PUBLIC 'CODE'
_TEXT	ENDS
;	COMDAT ??0?$_Vector_val@GV?$allocator@G@std@@@std@@IAE@V?$allocator@G@1@@Z
_TEXT	SEGMENT PARA USE32 PUBLIC 'CODE'
_TEXT	ENDS
;	COMDAT ??0?$allocator@G@std@@QAE@XZ
_TEXT	SEGMENT PARA USE32 PUBLIC 'CODE'
_TEXT	ENDS
;	COMDAT ??0?$allocator@G@std@@QAE@ABV01@@Z
_TEXT	SEGMENT PARA USE32 PUBLIC 'CODE'
_TEXT	ENDS
;	COMDAT ?begin@?$vector@UtagTCASHITEMSALE@@V?$allocator@UtagTCASHITEMSALE@@@std@@@std@@QBE?AVconst_iterator@12@XZ
_TEXT	SEGMENT PARA USE32 PUBLIC 'CODE'
_TEXT	ENDS
;	COMDAT ?end@?$vector@UtagTCASHITEMSALE@@V?$allocator@UtagTCASHITEMSALE@@@std@@@std@@QBE?AVconst_iterator@12@XZ
_TEXT	SEGMENT PARA USE32 PUBLIC 'CODE'
_TEXT	ENDS
;	COMDAT ?_Buy@?$vector@UtagTCASHITEMSALE@@V?$allocator@UtagTCASHITEMSALE@@@std@@@std@@IAE_NI@Z
_TEXT	SEGMENT PARA USE32 PUBLIC 'CODE'
_TEXT	ENDS
;	COMDAT ??0?$_Vector_val@UtagTCASHITEMSALE@@V?$allocator@UtagTCASHITEMSALE@@@std@@@std@@IAE@V?$allocator@UtagTCASHITEMSALE@@@1@@Z
_TEXT	SEGMENT PARA USE32 PUBLIC 'CODE'
_TEXT	ENDS
;	COMDAT ??0?$allocator@UtagTCASHITEMSALE@@@std@@QAE@XZ
_TEXT	SEGMENT PARA USE32 PUBLIC 'CODE'
_TEXT	ENDS
;	COMDAT ??0?$allocator@UtagTCASHITEMSALE@@@std@@QAE@ABV01@@Z
_TEXT	SEGMENT PARA USE32 PUBLIC 'CODE'
_TEXT	ENDS
;	COMDAT ?begin@?$vector@UtagMONREGEN@@V?$allocator@UtagMONREGEN@@@std@@@std@@QBE?AVconst_iterator@12@XZ
_TEXT	SEGMENT PARA USE32 PUBLIC 'CODE'
_TEXT	ENDS
;	COMDAT ?end@?$vector@UtagMONREGEN@@V?$allocator@UtagMONREGEN@@@std@@@std@@QBE?AVconst_iterator@12@XZ
_TEXT	SEGMENT PARA USE32 PUBLIC 'CODE'
_TEXT	ENDS
;	COMDAT ?_Buy@?$vector@UtagMONREGEN@@V?$allocator@UtagMONREGEN@@@std@@@std@@IAE_NI@Z
_TEXT	SEGMENT PARA USE32 PUBLIC 'CODE'
_TEXT	ENDS
;	COMDAT ??0?$_Vector_val@UtagMONREGEN@@V?$allocator@UtagMONREGEN@@@std@@@std@@IAE@V?$allocator@UtagMONREGEN@@@1@@Z
_TEXT	SEGMENT PARA USE32 PUBLIC 'CODE'
_TEXT	ENDS
;	COMDAT ??0?$allocator@UtagMONREGEN@@@std@@QAE@XZ
_TEXT	SEGMENT PARA USE32 PUBLIC 'CODE'
_TEXT	ENDS
;	COMDAT ??0?$allocator@UtagMONREGEN@@@std@@QAE@ABV01@@Z
_TEXT	SEGMENT PARA USE32 PUBLIC 'CODE'
_TEXT	ENDS
;	COMDAT ?begin@?$vector@UtagLOTTERY@@V?$allocator@UtagLOTTERY@@@std@@@std@@QBE?AVconst_iterator@12@XZ
_TEXT	SEGMENT PARA USE32 PUBLIC 'CODE'
_TEXT	ENDS
;	COMDAT ?end@?$vector@UtagLOTTERY@@V?$allocator@UtagLOTTERY@@@std@@@std@@QBE?AVconst_iterator@12@XZ
_TEXT	SEGMENT PARA USE32 PUBLIC 'CODE'
_TEXT	ENDS
;	COMDAT ?_Buy@?$vector@UtagLOTTERY@@V?$allocator@UtagLOTTERY@@@std@@@std@@IAE_NI@Z
_TEXT	SEGMENT PARA USE32 PUBLIC 'CODE'
_TEXT	ENDS
;	COMDAT ??0?$_Vector_val@UtagLOTTERY@@V?$allocator@UtagLOTTERY@@@std@@@std@@IAE@V?$allocator@UtagLOTTERY@@@1@@Z
_TEXT	SEGMENT PARA USE32 PUBLIC 'CODE'
_TEXT	ENDS
;	COMDAT ??0?$allocator@UtagLOTTERY@@@std@@QAE@XZ
_TEXT	SEGMENT PARA USE32 PUBLIC 'CODE'
_TEXT	ENDS
;	COMDAT ??0?$allocator@UtagLOTTERY@@@std@@QAE@ABV01@@Z
_TEXT	SEGMENT PARA USE32 PUBLIC 'CODE'
_TEXT	ENDS
;	COMDAT ?UninitializeCom@?$CAtlExeModuleT@VCTControlSvrModule@@@ATL@@SAXXZ
_TEXT	SEGMENT PARA USE32 PUBLIC 'CODE'
_TEXT	ENDS
;	COMDAT ?_Key@?$_Tree@V?$_Tmap_traits@KPAUtagTSVRTEMP@@U?$less@K@std@@V?$allocator@U?$pair@$$CBKPAUtagTSVRTEMP@@@std@@@3@$0A@@std@@@std@@KAABKPAU_Node@?$_Tree_nod@V?$_Tmap_traits@KPAUtagTSVRTEMP@@U?$less@K@std@@V?$allocator@U?$pair@$$CBKPAUtagTSVRTEMP@@@std@@@3@$0A@@std@@@2@@Z
_TEXT	SEGMENT PARA USE32 PUBLIC 'CODE'
_TEXT	ENDS
;	COMDAT ?lower_bound@?$_Tree@V?$_Tmap_traits@KPAUtagTSVRTEMP@@U?$less@K@std@@V?$allocator@U?$pair@$$CBKPAUtagTSVRTEMP@@@std@@@3@$0A@@std@@@std@@QAE?AViterator@12@ABK@Z
_TEXT	SEGMENT PARA USE32 PUBLIC 'CODE'
_TEXT	ENDS
;	COMDAT ?_Lmost@?$_Tree@V?$_Tmap_traits@KPAUtagTSVRTEMP@@U?$less@K@std@@V?$allocator@U?$pair@$$CBKPAUtagTSVRTEMP@@@std@@@3@$0A@@std@@@std@@IAEAAPAU_Node@?$_Tree_nod@V?$_Tmap_traits@KPAUtagTSVRTEMP@@U?$less@K@std@@V?$allocator@U?$pair@$$CBKPAUtagTSVRTEMP@@@std@@@3@$0A@@std@@@2@XZ
_TEXT	SEGMENT PARA USE32 PUBLIC 'CODE'
_TEXT	ENDS
;	COMDAT ??R?$less@K@std@@QBE_NABK0@Z
_TEXT	SEGMENT PARA USE32 PUBLIC 'CODE'
_TEXT	ENDS
;	COMDAT ?_Isnil@?$_Tree@V?$_Tmap_traits@KPAVCTManager@@U?$less@K@std@@V?$allocator@U?$pair@$$CBKPAVCTManager@@@std@@@3@$0A@@std@@@std@@KAAADPAU_Node@?$_Tree_nod@V?$_Tmap_traits@KPAVCTManager@@U?$less@K@std@@V?$allocator@U?$pair@$$CBKPAVCTManager@@@std@@@3@$0A@@std@@@2@@Z
_TEXT	SEGMENT PARA USE32 PUBLIC 'CODE'
_TEXT	ENDS
;	COMDAT ?_Key@?$_Tree@V?$_Tmap_traits@KPAVCTManager@@U?$less@K@std@@V?$allocator@U?$pair@$$CBKPAVCTManager@@@std@@@3@$0A@@std@@@std@@KAABKPAU_Node@?$_Tree_nod@V?$_Tmap_traits@KPAVCTManager@@U?$less@K@std@@V?$allocator@U?$pair@$$CBKPAVCTManager@@@std@@@3@$0A@@std@@@2@@Z
_TEXT	SEGMENT PARA USE32 PUBLIC 'CODE'
_TEXT	ENDS
;	COMDAT ?_Left@?$_Tree@V?$_Tmap_traits@KPAVCTManager@@U?$less@K@std@@V?$allocator@U?$pair@$$CBKPAVCTManager@@@std@@@3@$0A@@std@@@std@@KAAAPAU_Node@?$_Tree_nod@V?$_Tmap_traits@KPAVCTManager@@U?$less@K@std@@V?$allocator@U?$pair@$$CBKPAVCTManager@@@std@@@3@$0A@@std@@@2@PAU342@@Z
_TEXT	SEGMENT PARA USE32 PUBLIC 'CODE'
_TEXT	ENDS
;	COMDAT ?_Right@?$_Tree@V?$_Tmap_traits@KPAVCTManager@@U?$less@K@std@@V?$allocator@U?$pair@$$CBKPAVCTManager@@@std@@@3@$0A@@std@@@std@@KAAAPAU_Node@?$_Tree_nod@V?$_Tmap_traits@KPAVCTManager@@U?$less@K@std@@V?$allocator@U?$pair@$$CBKPAVCTManager@@@std@@@3@$0A@@std@@@2@PAU342@@Z
_TEXT	SEGMENT PARA USE32 PUBLIC 'CODE'
_TEXT	ENDS
;	COMDAT ?lower_bound@?$_Tree@V?$_Tmap_traits@KPAVCTManager@@U?$less@K@std@@V?$allocator@U?$pair@$$CBKPAVCTManager@@@std@@@3@$0A@@std@@@std@@QAE?AViterator@12@ABK@Z
_TEXT	SEGMENT PARA USE32 PUBLIC 'CODE'
_TEXT	ENDS
;	COMDAT ?_Insert@?$_Tree@V?$_Tmap_traits@KPAVCTManager@@U?$less@K@std@@V?$allocator@U?$pair@$$CBKPAVCTManager@@@std@@@3@$0A@@std@@@std@@IAE?AViterator@12@_NPAU_Node@?$_Tree_nod@V?$_Tmap_traits@KPAVCTManager@@U?$less@K@std@@V?$allocator@U?$pair@$$CBKPAVCTManager@@@std@@@3@$0A@@std@@@2@ABU?$pair@$$CBKPAVCTManager@@@2@@Z
_TEXT	SEGMENT PARA USE32 PUBLIC 'CODE'
_TEXT	ENDS
;	COMDAT ?_Lmost@?$_Tree@V?$_Tmap_traits@KPAVCTManager@@U?$less@K@std@@V?$allocator@U?$pair@$$CBKPAVCTManager@@@std@@@3@$0A@@std@@@std@@IAEAAPAU_Node@?$_Tree_nod@V?$_Tmap_traits@KPAVCTManager@@U?$less@K@std@@V?$allocator@U?$pair@$$CBKPAVCTManager@@@std@@@3@$0A@@std@@@2@XZ
_TEXT	SEGMENT PARA USE32 PUBLIC 'CODE'
_TEXT	ENDS
;	COMDAT ?_Root@?$_Tree@V?$_Tmap_traits@KPAVCTManager@@U?$less@K@std@@V?$allocator@U?$pair@$$CBKPAVCTManager@@@std@@@3@$0A@@std@@@std@@IAEAAPAU_Node@?$_Tree_nod@V?$_Tmap_traits@KPAVCTManager@@U?$less@K@std@@V?$allocator@U?$pair@$$CBKPAVCTManager@@@std@@@3@$0A@@std@@@2@XZ
_TEXT	SEGMENT PARA USE32 PUBLIC 'CODE'
_TEXT	ENDS
;	COMDAT ?_Kfn@?$_Tmap_traits@KPAVCTManager@@U?$less@K@std@@V?$allocator@U?$pair@$$CBKPAVCTManager@@@std@@@3@$0A@@std@@SAABKABU?$pair@$$CBKPAVCTManager@@@2@@Z
_TEXT	SEGMENT PARA USE32 PUBLIC 'CODE'
_TEXT	ENDS
;	COMDAT ??R?$less@E@std@@QBE_NABE0@Z
_TEXT	SEGMENT PARA USE32 PUBLIC 'CODE'
_TEXT	ENDS
;	COMDAT ??0?$allocator@E@std@@QAE@XZ
_TEXT	SEGMENT PARA USE32 PUBLIC 'CODE'
_TEXT	ENDS
;	COMDAT ?_Key@?$_Tree@V?$_Tmap_traits@EPAUtagTMACHINE@@U?$less@E@std@@V?$allocator@U?$pair@$$CBEPAUtagTMACHINE@@@std@@@3@$0A@@std@@@std@@KAABEPAU_Node@?$_Tree_nod@V?$_Tmap_traits@EPAUtagTMACHINE@@U?$less@E@std@@V?$allocator@U?$pair@$$CBEPAUtagTMACHINE@@@std@@@3@$0A@@std@@@2@@Z
_TEXT	SEGMENT PARA USE32 PUBLIC 'CODE'
_TEXT	ENDS
;	COMDAT ?lower_bound@?$_Tree@V?$_Tmap_traits@EPAUtagTMACHINE@@U?$less@E@std@@V?$allocator@U?$pair@$$CBEPAUtagTMACHINE@@@std@@@3@$0A@@std@@@std@@QAE?AViterator@12@ABE@Z
_TEXT	SEGMENT PARA USE32 PUBLIC 'CODE'
_TEXT	ENDS
;	COMDAT ?_Color@?$_Tree@V?$_Tmap_traits@KPAUtagBANINFO@@U?$less@K@std@@V?$allocator@U?$pair@$$CBKPAUtagBANINFO@@@std@@@3@$0A@@std@@@std@@KAAADPAU_Node@?$_Tree_nod@V?$_Tmap_traits@KPAUtagBANINFO@@U?$less@K@std@@V?$allocator@U?$pair@$$CBKPAUtagBANINFO@@@std@@@3@$0A@@std@@@2@@Z
_TEXT	SEGMENT PARA USE32 PUBLIC 'CODE'
_TEXT	ENDS
;	COMDAT ?_Isnil@?$_Tree@V?$_Tmap_traits@KPAUtagBANINFO@@U?$less@K@std@@V?$allocator@U?$pair@$$CBKPAUtagBANINFO@@@std@@@3@$0A@@std@@@std@@KAAADPAU_Node@?$_Tree_nod@V?$_Tmap_traits@KPAUtagBANINFO@@U?$less@K@std@@V?$allocator@U?$pair@$$CBKPAUtagBANINFO@@@std@@@3@$0A@@std@@@2@@Z
_TEXT	SEGMENT PARA USE32 PUBLIC 'CODE'
_TEXT	ENDS
;	COMDAT ?_Key@?$_Tree@V?$_Tmap_traits@KPAUtagBANINFO@@U?$less@K@std@@V?$allocator@U?$pair@$$CBKPAUtagBANINFO@@@std@@@3@$0A@@std@@@std@@KAABKPAU_Node@?$_Tree_nod@V?$_Tmap_traits@KPAUtagBANINFO@@U?$less@K@std@@V?$allocator@U?$pair@$$CBKPAUtagBANINFO@@@std@@@3@$0A@@std@@@2@@Z
_TEXT	SEGMENT PARA USE32 PUBLIC 'CODE'
_TEXT	ENDS
;	COMDAT ?_Left@?$_Tree@V?$_Tmap_traits@KPAUtagBANINFO@@U?$less@K@std@@V?$allocator@U?$pair@$$CBKPAUtagBANINFO@@@std@@@3@$0A@@std@@@std@@KAAAPAU_Node@?$_Tree_nod@V?$_Tmap_traits@KPAUtagBANINFO@@U?$less@K@std@@V?$allocator@U?$pair@$$CBKPAUtagBANINFO@@@std@@@3@$0A@@std@@@2@PAU342@@Z
_TEXT	SEGMENT PARA USE32 PUBLIC 'CODE'
_TEXT	ENDS
;	COMDAT ?_Parent@?$_Tree@V?$_Tmap_traits@KPAUtagBANINFO@@U?$less@K@std@@V?$allocator@U?$pair@$$CBKPAUtagBANINFO@@@std@@@3@$0A@@std@@@std@@KAAAPAU_Node@?$_Tree_nod@V?$_Tmap_traits@KPAUtagBANINFO@@U?$less@K@std@@V?$allocator@U?$pair@$$CBKPAUtagBANINFO@@@std@@@3@$0A@@std@@@2@PAU342@@Z
_TEXT	SEGMENT PARA USE32 PUBLIC 'CODE'
_TEXT	ENDS
;	COMDAT ?_Right@?$_Tree@V?$_Tmap_traits@KPAUtagBANINFO@@U?$less@K@std@@V?$allocator@U?$pair@$$CBKPAUtagBANINFO@@@std@@@3@$0A@@std@@@std@@KAAAPAU_Node@?$_Tree_nod@V?$_Tmap_traits@KPAUtagBANINFO@@U?$less@K@std@@V?$allocator@U?$pair@$$CBKPAUtagBANINFO@@@std@@@3@$0A@@std@@@2@PAU342@@Z
_TEXT	SEGMENT PARA USE32 PUBLIC 'CODE'
_TEXT	ENDS
;	COMDAT ?lower_bound@?$_Tree@V?$_Tmap_traits@KPAUtagBANINFO@@U?$less@K@std@@V?$allocator@U?$pair@$$CBKPAUtagBANINFO@@@std@@@3@$0A@@std@@@std@@QAE?AViterator@12@ABK@Z
_TEXT	SEGMENT PARA USE32 PUBLIC 'CODE'
_TEXT	ENDS
;	COMDAT ?_Erase@?$_Tree@V?$_Tmap_traits@KPAUtagBANINFO@@U?$less@K@std@@V?$allocator@U?$pair@$$CBKPAUtagBANINFO@@@std@@@3@$0A@@std@@@std@@IAEXPAU_Node@?$_Tree_nod@V?$_Tmap_traits@KPAUtagBANINFO@@U?$less@K@std@@V?$allocator@U?$pair@$$CBKPAUtagBANINFO@@@std@@@3@$0A@@std@@@2@@Z
_TEXT	SEGMENT PARA USE32 PUBLIC 'CODE'
_TEXT	ENDS
;	COMDAT ?_Insert@?$_Tree@V?$_Tmap_traits@KPAUtagBANINFO@@U?$less@K@std@@V?$allocator@U?$pair@$$CBKPAUtagBANINFO@@@std@@@3@$0A@@std@@@std@@IAE?AViterator@12@_NPAU_Node@?$_Tree_nod@V?$_Tmap_traits@KPAUtagBANINFO@@U?$less@K@std@@V?$allocator@U?$pair@$$CBKPAUtagBANINFO@@@std@@@3@$0A@@std@@@2@ABU?$pair@$$CBKPAUtagBANINFO@@@2@@Z
_TEXT	SEGMENT PARA USE32 PUBLIC 'CODE'
_TEXT	ENDS
;	COMDAT ?_Lmost@?$_Tree@V?$_Tmap_traits@KPAUtagBANINFO@@U?$less@K@std@@V?$allocator@U?$pair@$$CBKPAUtagBANINFO@@@std@@@3@$0A@@std@@@std@@IAEAAPAU_Node@?$_Tree_nod@V?$_Tmap_traits@KPAUtagBANINFO@@U?$less@K@std@@V?$allocator@U?$pair@$$CBKPAUtagBANINFO@@@std@@@3@$0A@@std@@@2@XZ
_TEXT	SEGMENT PARA USE32 PUBLIC 'CODE'
_TEXT	ENDS
;	COMDAT ?_Lrotate@?$_Tree@V?$_Tmap_traits@KPAUtagBANINFO@@U?$less@K@std@@V?$allocator@U?$pair@$$CBKPAUtagBANINFO@@@std@@@3@$0A@@std@@@std@@IAEXPAU_Node@?$_Tree_nod@V?$_Tmap_traits@KPAUtagBANINFO@@U?$less@K@std@@V?$allocator@U?$pair@$$CBKPAUtagBANINFO@@@std@@@3@$0A@@std@@@2@@Z
_TEXT	SEGMENT PARA USE32 PUBLIC 'CODE'
_TEXT	ENDS
;	COMDAT ?_Max@?$_Tree@V?$_Tmap_traits@KPAUtagBANINFO@@U?$less@K@std@@V?$allocator@U?$pair@$$CBKPAUtagBANINFO@@@std@@@3@$0A@@std@@@std@@KAPAU_Node@?$_Tree_nod@V?$_Tmap_traits@KPAUtagBANINFO@@U?$less@K@std@@V?$allocator@U?$pair@$$CBKPAUtagBANINFO@@@std@@@3@$0A@@std@@@2@PAU342@@Z
_TEXT	SEGMENT PARA USE32 PUBLIC 'CODE'
_TEXT	ENDS
;	COMDAT ?_Min@?$_Tree@V?$_Tmap_traits@KPAUtagBANINFO@@U?$less@K@std@@V?$allocator@U?$pair@$$CBKPAUtagBANINFO@@@std@@@3@$0A@@std@@@std@@KAPAU_Node@?$_Tree_nod@V?$_Tmap_traits@KPAUtagBANINFO@@U?$less@K@std@@V?$allocator@U?$pair@$$CBKPAUtagBANINFO@@@std@@@3@$0A@@std@@@2@PAU342@@Z
_TEXT	SEGMENT PARA USE32 PUBLIC 'CODE'
_TEXT	ENDS
;	COMDAT ?_Rmost@?$_Tree@V?$_Tmap_traits@KPAUtagBANINFO@@U?$less@K@std@@V?$allocator@U?$pair@$$CBKPAUtagBANINFO@@@std@@@3@$0A@@std@@@std@@IAEAAPAU_Node@?$_Tree_nod@V?$_Tmap_traits@KPAUtagBANINFO@@U?$less@K@std@@V?$allocator@U?$pair@$$CBKPAUtagBANINFO@@@std@@@3@$0A@@std@@@2@XZ
_TEXT	SEGMENT PARA USE32 PUBLIC 'CODE'
_TEXT	ENDS
;	COMDAT ?_Root@?$_Tree@V?$_Tmap_traits@KPAUtagBANINFO@@U?$less@K@std@@V?$allocator@U?$pair@$$CBKPAUtagBANINFO@@@std@@@3@$0A@@std@@@std@@IAEAAPAU_Node@?$_Tree_nod@V?$_Tmap_traits@KPAUtagBANINFO@@U?$less@K@std@@V?$allocator@U?$pair@$$CBKPAUtagBANINFO@@@std@@@3@$0A@@std@@@2@XZ
_TEXT	SEGMENT PARA USE32 PUBLIC 'CODE'
_TEXT	ENDS
;	COMDAT ?_Rrotate@?$_Tree@V?$_Tmap_traits@KPAUtagBANINFO@@U?$less@K@std@@V?$allocator@U?$pair@$$CBKPAUtagBANINFO@@@std@@@3@$0A@@std@@@std@@IAEXPAU_Node@?$_Tree_nod@V?$_Tmap_traits@KPAUtagBANINFO@@U?$less@K@std@@V?$allocator@U?$pair@$$CBKPAUtagBANINFO@@@std@@@3@$0A@@std@@@2@@Z
_TEXT	SEGMENT PARA USE32 PUBLIC 'CODE'
_TEXT	ENDS
;	COMDAT ?_Kfn@?$_Tmap_traits@KPAUtagBANINFO@@U?$less@K@std@@V?$allocator@U?$pair@$$CBKPAUtagBANINFO@@@std@@@3@$0A@@std@@SAABKABU?$pair@$$CBKPAUtagBANINFO@@@2@@Z
_TEXT	SEGMENT PARA USE32 PUBLIC 'CODE'
_TEXT	ENDS
;	COMDAT ?deallocate@?$allocator@U_Node@?$_Tree_nod@V?$_Tmap_traits@KPAUtagBANINFO@@U?$less@K@std@@V?$allocator@U?$pair@$$CBKPAUtagBANINFO@@@std@@@3@$0A@@std@@@std@@@std@@QAEXPAU_Node@?$_Tree_nod@V?$_Tmap_traits@KPAUtagBANINFO@@U?$less@K@std@@V?$allocator@U?$pair@$$CBKPAUtagBANINFO@@@std@@@3@$0A@@std@@@2@I@Z
_TEXT	SEGMENT PARA USE32 PUBLIC 'CODE'
_TEXT	ENDS
;	COMDAT ?destroy@?$allocator@U_Node@?$_Tree_nod@V?$_Tmap_traits@KPAUtagBANINFO@@U?$less@K@std@@V?$allocator@U?$pair@$$CBKPAUtagBANINFO@@@std@@@3@$0A@@std@@@std@@@std@@QAEXPAU_Node@?$_Tree_nod@V?$_Tmap_traits@KPAUtagBANINFO@@U?$less@K@std@@V?$allocator@U?$pair@$$CBKPAUtagBANINFO@@@std@@@3@$0A@@std@@@2@@Z
_TEXT	SEGMENT PARA USE32 PUBLIC 'CODE'
_TEXT	ENDS
;	COMDAT ?_Color@?$_Tree@V?$_Tmap_traits@KUtagEVENTINFO@@U?$less@K@std@@V?$allocator@U?$pair@$$CBKUtagEVENTINFO@@@std@@@3@$0A@@std@@@std@@KAAADPAU_Node@?$_Tree_nod@V?$_Tmap_traits@KUtagEVENTINFO@@U?$less@K@std@@V?$allocator@U?$pair@$$CBKUtagEVENTINFO@@@std@@@3@$0A@@std@@@2@@Z
_TEXT	SEGMENT PARA USE32 PUBLIC 'CODE'
_TEXT	ENDS
;	COMDAT ?_Isnil@?$_Tree@V?$_Tmap_traits@KUtagEVENTINFO@@U?$less@K@std@@V?$allocator@U?$pair@$$CBKUtagEVENTINFO@@@std@@@3@$0A@@std@@@std@@KAAADPAU_Node@?$_Tree_nod@V?$_Tmap_traits@KUtagEVENTINFO@@U?$less@K@std@@V?$allocator@U?$pair@$$CBKUtagEVENTINFO@@@std@@@3@$0A@@std@@@2@@Z
_TEXT	SEGMENT PARA USE32 PUBLIC 'CODE'
_TEXT	ENDS
;	COMDAT ?_Key@?$_Tree@V?$_Tmap_traits@KUtagEVENTINFO@@U?$less@K@std@@V?$allocator@U?$pair@$$CBKUtagEVENTINFO@@@std@@@3@$0A@@std@@@std@@KAABKPAU_Node@?$_Tree_nod@V?$_Tmap_traits@KUtagEVENTINFO@@U?$less@K@std@@V?$allocator@U?$pair@$$CBKUtagEVENTINFO@@@std@@@3@$0A@@std@@@2@@Z
_TEXT	SEGMENT PARA USE32 PUBLIC 'CODE'
_TEXT	ENDS
;	COMDAT ?_Left@?$_Tree@V?$_Tmap_traits@KUtagEVENTINFO@@U?$less@K@std@@V?$allocator@U?$pair@$$CBKUtagEVENTINFO@@@std@@@3@$0A@@std@@@std@@KAAAPAU_Node@?$_Tree_nod@V?$_Tmap_traits@KUtagEVENTINFO@@U?$less@K@std@@V?$allocator@U?$pair@$$CBKUtagEVENTINFO@@@std@@@3@$0A@@std@@@2@PAU342@@Z
_TEXT	SEGMENT PARA USE32 PUBLIC 'CODE'
_TEXT	ENDS
;	COMDAT ?_Parent@?$_Tree@V?$_Tmap_traits@KUtagEVENTINFO@@U?$less@K@std@@V?$allocator@U?$pair@$$CBKUtagEVENTINFO@@@std@@@3@$0A@@std@@@std@@KAAAPAU_Node@?$_Tree_nod@V?$_Tmap_traits@KUtagEVENTINFO@@U?$less@K@std@@V?$allocator@U?$pair@$$CBKUtagEVENTINFO@@@std@@@3@$0A@@std@@@2@PAU342@@Z
_TEXT	SEGMENT PARA USE32 PUBLIC 'CODE'
_TEXT	ENDS
;	COMDAT ?_Right@?$_Tree@V?$_Tmap_traits@KUtagEVENTINFO@@U?$less@K@std@@V?$allocator@U?$pair@$$CBKUtagEVENTINFO@@@std@@@3@$0A@@std@@@std@@KAAAPAU_Node@?$_Tree_nod@V?$_Tmap_traits@KUtagEVENTINFO@@U?$less@K@std@@V?$allocator@U?$pair@$$CBKUtagEVENTINFO@@@std@@@3@$0A@@std@@@2@PAU342@@Z
_TEXT	SEGMENT PARA USE32 PUBLIC 'CODE'
_TEXT	ENDS
;	COMDAT ?lower_bound@?$_Tree@V?$_Tmap_traits@KUtagEVENTINFO@@U?$less@K@std@@V?$allocator@U?$pair@$$CBKUtagEVENTINFO@@@std@@@3@$0A@@std@@@std@@QAE?AViterator@12@ABK@Z
_TEXT	SEGMENT PARA USE32 PUBLIC 'CODE'
_TEXT	ENDS
;	COMDAT ?_Insert@?$_Tree@V?$_Tmap_traits@KUtagEVENTINFO@@U?$less@K@std@@V?$allocator@U?$pair@$$CBKUtagEVENTINFO@@@std@@@3@$0A@@std@@@std@@IAE?AViterator@12@_NPAU_Node@?$_Tree_nod@V?$_Tmap_traits@KUtagEVENTINFO@@U?$less@K@std@@V?$allocator@U?$pair@$$CBKUtagEVENTINFO@@@std@@@3@$0A@@std@@@2@ABU?$pair@$$CBKUtagEVENTINFO@@@2@@Z
_TEXT	SEGMENT PARA USE32 PUBLIC 'CODE'
_TEXT	ENDS
;	COMDAT ?_Lmost@?$_Tree@V?$_Tmap_traits@KUtagEVENTINFO@@U?$less@K@std@@V?$allocator@U?$pair@$$CBKUtagEVENTINFO@@@std@@@3@$0A@@std@@@std@@IAEAAPAU_Node@?$_Tree_nod@V?$_Tmap_traits@KUtagEVENTINFO@@U?$less@K@std@@V?$allocator@U?$pair@$$CBKUtagEVENTINFO@@@std@@@3@$0A@@std@@@2@XZ
_TEXT	SEGMENT PARA USE32 PUBLIC 'CODE'
_TEXT	ENDS
;	COMDAT ?_Lrotate@?$_Tree@V?$_Tmap_traits@KUtagEVENTINFO@@U?$less@K@std@@V?$allocator@U?$pair@$$CBKUtagEVENTINFO@@@std@@@3@$0A@@std@@@std@@IAEXPAU_Node@?$_Tree_nod@V?$_Tmap_traits@KUtagEVENTINFO@@U?$less@K@std@@V?$allocator@U?$pair@$$CBKUtagEVENTINFO@@@std@@@3@$0A@@std@@@2@@Z
_TEXT	SEGMENT PARA USE32 PUBLIC 'CODE'
_TEXT	ENDS
;	COMDAT ?_Max@?$_Tree@V?$_Tmap_traits@KUtagEVENTINFO@@U?$less@K@std@@V?$allocator@U?$pair@$$CBKUtagEVENTINFO@@@std@@@3@$0A@@std@@@std@@KAPAU_Node@?$_Tree_nod@V?$_Tmap_traits@KUtagEVENTINFO@@U?$less@K@std@@V?$allocator@U?$pair@$$CBKUtagEVENTINFO@@@std@@@3@$0A@@std@@@2@PAU342@@Z
_TEXT	SEGMENT PARA USE32 PUBLIC 'CODE'
_TEXT	ENDS
;	COMDAT ?_Min@?$_Tree@V?$_Tmap_traits@KUtagEVENTINFO@@U?$less@K@std@@V?$allocator@U?$pair@$$CBKUtagEVENTINFO@@@std@@@3@$0A@@std@@@std@@KAPAU_Node@?$_Tree_nod@V?$_Tmap_traits@KUtagEVENTINFO@@U?$less@K@std@@V?$allocator@U?$pair@$$CBKUtagEVENTINFO@@@std@@@3@$0A@@std@@@2@PAU342@@Z
_TEXT	SEGMENT PARA USE32 PUBLIC 'CODE'
_TEXT	ENDS
;	COMDAT ?_Rmost@?$_Tree@V?$_Tmap_traits@KUtagEVENTINFO@@U?$less@K@std@@V?$allocator@U?$pair@$$CBKUtagEVENTINFO@@@std@@@3@$0A@@std@@@std@@IAEAAPAU_Node@?$_Tree_nod@V?$_Tmap_traits@KUtagEVENTINFO@@U?$less@K@std@@V?$allocator@U?$pair@$$CBKUtagEVENTINFO@@@std@@@3@$0A@@std@@@2@XZ
_TEXT	SEGMENT PARA USE32 PUBLIC 'CODE'
_TEXT	ENDS
;	COMDAT ?_Root@?$_Tree@V?$_Tmap_traits@KUtagEVENTINFO@@U?$less@K@std@@V?$allocator@U?$pair@$$CBKUtagEVENTINFO@@@std@@@3@$0A@@std@@@std@@IAEAAPAU_Node@?$_Tree_nod@V?$_Tmap_traits@KUtagEVENTINFO@@U?$less@K@std@@V?$allocator@U?$pair@$$CBKUtagEVENTINFO@@@std@@@3@$0A@@std@@@2@XZ
_TEXT	SEGMENT PARA USE32 PUBLIC 'CODE'
_TEXT	ENDS
;	COMDAT ?_Rrotate@?$_Tree@V?$_Tmap_traits@KUtagEVENTINFO@@U?$less@K@std@@V?$allocator@U?$pair@$$CBKUtagEVENTINFO@@@std@@@3@$0A@@std@@@std@@IAEXPAU_Node@?$_Tree_nod@V?$_Tmap_traits@KUtagEVENTINFO@@U?$less@K@std@@V?$allocator@U?$pair@$$CBKUtagEVENTINFO@@@std@@@3@$0A@@std@@@2@@Z
_TEXT	SEGMENT PARA USE32 PUBLIC 'CODE'
_TEXT	ENDS
;	COMDAT ?_Kfn@?$_Tmap_traits@KUtagEVENTINFO@@U?$less@K@std@@V?$allocator@U?$pair@$$CBKUtagEVENTINFO@@@std@@@3@$0A@@std@@SAABKABU?$pair@$$CBKUtagEVENTINFO@@@2@@Z
_TEXT	SEGMENT PARA USE32 PUBLIC 'CODE'
_TEXT	ENDS
;	COMDAT ?deallocate@?$allocator@U_Node@?$_Tree_nod@V?$_Tmap_traits@KUtagEVENTINFO@@U?$less@K@std@@V?$allocator@U?$pair@$$CBKUtagEVENTINFO@@@std@@@3@$0A@@std@@@std@@@std@@QAEXPAU_Node@?$_Tree_nod@V?$_Tmap_traits@KUtagEVENTINFO@@U?$less@K@std@@V?$allocator@U?$pair@$$CBKUtagEVENTINFO@@@std@@@3@$0A@@std@@@2@I@Z
_TEXT	SEGMENT PARA USE32 PUBLIC 'CODE'
_TEXT	ENDS
;	COMDAT ?destroy@?$allocator@U_Node@?$_Tree_nod@V?$_Tmap_traits@KUtagEVENTINFO@@U?$less@K@std@@V?$allocator@U?$pair@$$CBKUtagEVENTINFO@@@std@@@3@$0A@@std@@@std@@@std@@QAEXPAU_Node@?$_Tree_nod@V?$_Tmap_traits@KUtagEVENTINFO@@U?$less@K@std@@V?$allocator@U?$pair@$$CBKUtagEVENTINFO@@@std@@@3@$0A@@std@@@2@@Z
_TEXT	SEGMENT PARA USE32 PUBLIC 'CODE'
_TEXT	ENDS
;	COMDAT ??0?$pair@Viterator@?$_Tree@V?$_Tmap_traits@KPAVCTManager@@U?$less@K@std@@V?$allocator@U?$pair@$$CBKPAVCTManager@@@std@@@3@$0A@@std@@@std@@_N@std@@QAE@ABViterator@?$_Tree@V?$_Tmap_traits@KPAVCTManager@@U?$less@K@std@@V?$allocator@U?$pair@$$CBKPAVCTManager@@@std@@@3@$0A@@std@@@1@AB_N@Z
_TEXT	SEGMENT PARA USE32 PUBLIC 'CODE'
_TEXT	ENDS
;	COMDAT ??0iterator@?$_Tree@V?$_Tmap_traits@KPAVCTManager@@U?$less@K@std@@V?$allocator@U?$pair@$$CBKPAVCTManager@@@std@@@3@$0A@@std@@@std@@QAE@PAU_Node@?$_Tree_nod@V?$_Tmap_traits@KPAVCTManager@@U?$less@K@std@@V?$allocator@U?$pair@$$CBKPAVCTManager@@@std@@@3@$0A@@std@@@2@@Z
_TEXT	SEGMENT PARA USE32 PUBLIC 'CODE'
_TEXT	ENDS
;	COMDAT ??Eiterator@?$_Tree@V?$_Tmap_traits@KPAVCTManager@@U?$less@K@std@@V?$allocator@U?$pair@$$CBKPAVCTManager@@@std@@@3@$0A@@std@@@std@@QAEAAV012@XZ
_TEXT	SEGMENT PARA USE32 PUBLIC 'CODE'
_TEXT	ENDS
;	COMDAT ??Fiterator@?$_Tree@V?$_Tmap_traits@KPAVCTManager@@U?$less@K@std@@V?$allocator@U?$pair@$$CBKPAVCTManager@@@std@@@3@$0A@@std@@@std@@QAEAAV012@XZ
_TEXT	SEGMENT PARA USE32 PUBLIC 'CODE'
_TEXT	ENDS
;	COMDAT ??0const_iterator@?$_Tree@V?$_Tmap_traits@KPAVCTManager@@U?$less@K@std@@V?$allocator@U?$pair@$$CBKPAVCTManager@@@std@@@3@$0A@@std@@@std@@QAE@XZ
_TEXT	SEGMENT PARA USE32 PUBLIC 'CODE'
_TEXT	ENDS
;	COMDAT ??Dconst_iterator@?$_Tree@V?$_Tmap_traits@KPAVCTManager@@U?$less@K@std@@V?$allocator@U?$pair@$$CBKPAVCTManager@@@std@@@3@$0A@@std@@@std@@QBEABU?$pair@$$CBKPAVCTManager@@@2@XZ
_TEXT	SEGMENT PARA USE32 PUBLIC 'CODE'
_TEXT	ENDS
;	COMDAT ??8const_iterator@?$_Tree@V?$_Tmap_traits@KPAVCTManager@@U?$less@K@std@@V?$allocator@U?$pair@$$CBKPAVCTManager@@@std@@@3@$0A@@std@@@std@@QBE_NABV012@@Z
_TEXT	SEGMENT PARA USE32 PUBLIC 'CODE'
_TEXT	ENDS
;	COMDAT ?_Mynode@const_iterator@?$_Tree@V?$_Tmap_traits@KPAVCTManager@@U?$less@K@std@@V?$allocator@U?$pair@$$CBKPAVCTManager@@@std@@@3@$0A@@std@@@std@@QBEPAU_Node@?$_Tree_nod@V?$_Tmap_traits@KPAVCTManager@@U?$less@K@std@@V?$allocator@U?$pair@$$CBKPAVCTManager@@@std@@@3@$0A@@std@@@3@XZ
_TEXT	SEGMENT PARA USE32 PUBLIC 'CODE'
_TEXT	ENDS
;	COMDAT ??0iterator@?$_Tree@V?$_Tmap_traits@KPAUtagTSVRTEMP@@U?$less@K@std@@V?$allocator@U?$pair@$$CBKPAUtagTSVRTEMP@@@std@@@3@$0A@@std@@@std@@QAE@PAU_Node@?$_Tree_nod@V?$_Tmap_traits@KPAUtagTSVRTEMP@@U?$less@K@std@@V?$allocator@U?$pair@$$CBKPAUtagTSVRTEMP@@@std@@@3@$0A@@std@@@2@@Z
_TEXT	SEGMENT PARA USE32 PUBLIC 'CODE'
_TEXT	ENDS
;	COMDAT ??Eiterator@?$_Tree@V?$_Tmap_traits@KPAUtagTSVRTEMP@@U?$less@K@std@@V?$allocator@U?$pair@$$CBKPAUtagTSVRTEMP@@@std@@@3@$0A@@std@@@std@@QAEAAV012@XZ
_TEXT	SEGMENT PARA USE32 PUBLIC 'CODE'
_TEXT	ENDS
;	COMDAT ??0const_iterator@?$_Tree@V?$_Tmap_traits@KPAUtagTSVRTEMP@@U?$less@K@std@@V?$allocator@U?$pair@$$CBKPAUtagTSVRTEMP@@@std@@@3@$0A@@std@@@std@@QAE@XZ
_TEXT	SEGMENT PARA USE32 PUBLIC 'CODE'
_TEXT	ENDS
;	COMDAT ??Dconst_iterator@?$_Tree@V?$_Tmap_traits@KPAUtagTSVRTEMP@@U?$less@K@std@@V?$allocator@U?$pair@$$CBKPAUtagTSVRTEMP@@@std@@@3@$0A@@std@@@std@@QBEABU?$pair@$$CBKPAUtagTSVRTEMP@@@2@XZ
_TEXT	SEGMENT PARA USE32 PUBLIC 'CODE'
_TEXT	ENDS
;	COMDAT ?_Mynode@const_iterator@?$_Tree@V?$_Tmap_traits@KPAUtagTSVRTEMP@@U?$less@K@std@@V?$allocator@U?$pair@$$CBKPAUtagTSVRTEMP@@@std@@@3@$0A@@std@@@std@@QBEPAU_Node@?$_Tree_nod@V?$_Tmap_traits@KPAUtagTSVRTEMP@@U?$less@K@std@@V?$allocator@U?$pair@$$CBKPAUtagTSVRTEMP@@@std@@@3@$0A@@std@@@3@XZ
_TEXT	SEGMENT PARA USE32 PUBLIC 'CODE'
_TEXT	ENDS
;	COMDAT ??0iterator@?$_Tree@V?$_Tmap_traits@EPAUtagTMACHINE@@U?$less@E@std@@V?$allocator@U?$pair@$$CBEPAUtagTMACHINE@@@std@@@3@$0A@@std@@@std@@QAE@PAU_Node@?$_Tree_nod@V?$_Tmap_traits@EPAUtagTMACHINE@@U?$less@E@std@@V?$allocator@U?$pair@$$CBEPAUtagTMACHINE@@@std@@@3@$0A@@std@@@2@@Z
_TEXT	SEGMENT PARA USE32 PUBLIC 'CODE'
_TEXT	ENDS
;	COMDAT ??Dconst_iterator@?$_Tree@V?$_Tmap_traits@EPAUtagTMACHINE@@U?$less@E@std@@V?$allocator@U?$pair@$$CBEPAUtagTMACHINE@@@std@@@3@$0A@@std@@@std@@QBEABU?$pair@$$CBEPAUtagTMACHINE@@@2@XZ
_TEXT	SEGMENT PARA USE32 PUBLIC 'CODE'
_TEXT	ENDS
;	COMDAT ?_Mynode@const_iterator@?$_Tree@V?$_Tmap_traits@EPAUtagTMACHINE@@U?$less@E@std@@V?$allocator@U?$pair@$$CBEPAUtagTMACHINE@@@std@@@3@$0A@@std@@@std@@QBEPAU_Node@?$_Tree_nod@V?$_Tmap_traits@EPAUtagTMACHINE@@U?$less@E@std@@V?$allocator@U?$pair@$$CBEPAUtagTMACHINE@@@std@@@3@$0A@@std@@@3@XZ
_TEXT	SEGMENT PARA USE32 PUBLIC 'CODE'
_TEXT	ENDS
;	COMDAT ?capacity@?$vector@UtagPATCHFILE@@V?$allocator@UtagPATCHFILE@@@std@@@std@@QBEIXZ
_TEXT	SEGMENT PARA USE32 PUBLIC 'CODE'
_TEXT	ENDS
;	COMDAT ?end@?$vector@UtagPATCHFILE@@V?$allocator@UtagPATCHFILE@@@std@@@std@@QAE?AViterator@12@XZ
_TEXT	SEGMENT PARA USE32 PUBLIC 'CODE'
_TEXT	ENDS
;	COMDAT ?size@?$vector@UtagPATCHFILE@@V?$allocator@UtagPATCHFILE@@@std@@@std@@QBEIXZ
_TEXT	SEGMENT PARA USE32 PUBLIC 'CODE'
_TEXT	ENDS
;	COMDAT ?insert@?$vector@UtagPATCHFILE@@V?$allocator@UtagPATCHFILE@@@std@@@std@@QAE?AViterator@12@V312@ABUtagPATCHFILE@@@Z
_TEXT	SEGMENT PARA USE32 PUBLIC 'CODE'
_TEXT	ENDS
;	COMDAT ?_Buy@?$vector@UtagPATCHFILE@@V?$allocator@UtagPATCHFILE@@@std@@@std@@IAE_NI@Z
_TEXT	SEGMENT PARA USE32 PUBLIC 'CODE'
_TEXT	ENDS
;	COMDAT ?_Tidy@?$vector@UtagPATCHFILE@@V?$allocator@UtagPATCHFILE@@@std@@@std@@IAEXXZ
_TEXT	SEGMENT PARA USE32 PUBLIC 'CODE'
_TEXT	ENDS
;	COMDAT ?_Ufill@?$vector@UtagPATCHFILE@@V?$allocator@UtagPATCHFILE@@@std@@@std@@IAEPAUtagPATCHFILE@@PAU3@IABU3@@Z
_TEXT	SEGMENT PARA USE32 PUBLIC 'CODE'
_TEXT	ENDS
;	COMDAT ??0?$_Vector_val@UtagPATCHFILE@@V?$allocator@UtagPATCHFILE@@@std@@@std@@IAE@V?$allocator@UtagPATCHFILE@@@1@@Z
_TEXT	SEGMENT PARA USE32 PUBLIC 'CODE'
_TEXT	ENDS
;	COMDAT ??0?$allocator@UtagPATCHFILE@@@std@@QAE@XZ
_TEXT	SEGMENT PARA USE32 PUBLIC 'CODE'
_TEXT	ENDS
;	COMDAT ??0?$pair@Viterator@?$_Tree@V?$_Tmap_traits@KPAUtagBANINFO@@U?$less@K@std@@V?$allocator@U?$pair@$$CBKPAUtagBANINFO@@@std@@@3@$0A@@std@@@std@@_N@std@@QAE@ABViterator@?$_Tree@V?$_Tmap_traits@KPAUtagBANINFO@@U?$less@K@std@@V?$allocator@U?$pair@$$CBKPAUtagBANINFO@@@std@@@3@$0A@@std@@@1@AB_N@Z
_TEXT	SEGMENT PARA USE32 PUBLIC 'CODE'
_TEXT	ENDS
;	COMDAT ??0iterator@?$_Tree@V?$_Tmap_traits@KPAUtagBANINFO@@U?$less@K@std@@V?$allocator@U?$pair@$$CBKPAUtagBANINFO@@@std@@@3@$0A@@std@@@std@@QAE@PAU_Node@?$_Tree_nod@V?$_Tmap_traits@KPAUtagBANINFO@@U?$less@K@std@@V?$allocator@U?$pair@$$CBKPAUtagBANINFO@@@std@@@3@$0A@@std@@@2@@Z
_TEXT	SEGMENT PARA USE32 PUBLIC 'CODE'
_TEXT	ENDS
;	COMDAT ??Eiterator@?$_Tree@V?$_Tmap_traits@KPAUtagBANINFO@@U?$less@K@std@@V?$allocator@U?$pair@$$CBKPAUtagBANINFO@@@std@@@3@$0A@@std@@@std@@QAEAAV012@XZ
_TEXT	SEGMENT PARA USE32 PUBLIC 'CODE'
_TEXT	ENDS
;	COMDAT ??Fiterator@?$_Tree@V?$_Tmap_traits@KPAUtagBANINFO@@U?$less@K@std@@V?$allocator@U?$pair@$$CBKPAUtagBANINFO@@@std@@@3@$0A@@std@@@std@@QAEAAV012@XZ
_TEXT	SEGMENT PARA USE32 PUBLIC 'CODE'
_TEXT	ENDS
;	COMDAT ??0const_iterator@?$_Tree@V?$_Tmap_traits@KPAUtagBANINFO@@U?$less@K@std@@V?$allocator@U?$pair@$$CBKPAUtagBANINFO@@@std@@@3@$0A@@std@@@std@@QAE@XZ
_TEXT	SEGMENT PARA USE32 PUBLIC 'CODE'
_TEXT	ENDS
;	COMDAT ??Dconst_iterator@?$_Tree@V?$_Tmap_traits@KPAUtagBANINFO@@U?$less@K@std@@V?$allocator@U?$pair@$$CBKPAUtagBANINFO@@@std@@@3@$0A@@std@@@std@@QBEABU?$pair@$$CBKPAUtagBANINFO@@@2@XZ
_TEXT	SEGMENT PARA USE32 PUBLIC 'CODE'
_TEXT	ENDS
;	COMDAT ?_Mynode@const_iterator@?$_Tree@V?$_Tmap_traits@KPAUtagBANINFO@@U?$less@K@std@@V?$allocator@U?$pair@$$CBKPAUtagBANINFO@@@std@@@3@$0A@@std@@@std@@QBEPAU_Node@?$_Tree_nod@V?$_Tmap_traits@KPAUtagBANINFO@@U?$less@K@std@@V?$allocator@U?$pair@$$CBKPAUtagBANINFO@@@std@@@3@$0A@@std@@@3@XZ
_TEXT	SEGMENT PARA USE32 PUBLIC 'CODE'
_TEXT	ENDS
;	COMDAT ??0iterator@?$_Tree@V?$_Tmap_traits@KUtagEVENTINFO@@U?$less@K@std@@V?$allocator@U?$pair@$$CBKUtagEVENTINFO@@@std@@@3@$0A@@std@@@std@@QAE@PAU_Node@?$_Tree_nod@V?$_Tmap_traits@KUtagEVENTINFO@@U?$less@K@std@@V?$allocator@U?$pair@$$CBKUtagEVENTINFO@@@std@@@3@$0A@@std@@@2@@Z
_TEXT	SEGMENT PARA USE32 PUBLIC 'CODE'
_TEXT	ENDS
;	COMDAT ??Eiterator@?$_Tree@V?$_Tmap_traits@KUtagEVENTINFO@@U?$less@K@std@@V?$allocator@U?$pair@$$CBKUtagEVENTINFO@@@std@@@3@$0A@@std@@@std@@QAEAAV012@XZ
_TEXT	SEGMENT PARA USE32 PUBLIC 'CODE'
_TEXT	ENDS
;	COMDAT ??Fiterator@?$_Tree@V?$_Tmap_traits@KUtagEVENTINFO@@U?$less@K@std@@V?$allocator@U?$pair@$$CBKUtagEVENTINFO@@@std@@@3@$0A@@std@@@std@@QAEAAV012@XZ
_TEXT	SEGMENT PARA USE32 PUBLIC 'CODE'
_TEXT	ENDS
;	COMDAT ??0const_iterator@?$_Tree@V?$_Tmap_traits@KUtagEVENTINFO@@U?$less@K@std@@V?$allocator@U?$pair@$$CBKUtagEVENTINFO@@@std@@@3@$0A@@std@@@std@@QAE@XZ
_TEXT	SEGMENT PARA USE32 PUBLIC 'CODE'
_TEXT	ENDS
;	COMDAT ??Dconst_iterator@?$_Tree@V?$_Tmap_traits@KUtagEVENTINFO@@U?$less@K@std@@V?$allocator@U?$pair@$$CBKUtagEVENTINFO@@@std@@@3@$0A@@std@@@std@@QBEABU?$pair@$$CBKUtagEVENTINFO@@@2@XZ
_TEXT	SEGMENT PARA USE32 PUBLIC 'CODE'
_TEXT	ENDS
;	COMDAT ?_Mynode@const_iterator@?$_Tree@V?$_Tmap_traits@KUtagEVENTINFO@@U?$less@K@std@@V?$allocator@U?$pair@$$CBKUtagEVENTINFO@@@std@@@3@$0A@@std@@@std@@QBEPAU_Node@?$_Tree_nod@V?$_Tmap_traits@KUtagEVENTINFO@@U?$less@K@std@@V?$allocator@U?$pair@$$CBKUtagEVENTINFO@@@std@@@3@$0A@@std@@@3@XZ
_TEXT	SEGMENT PARA USE32 PUBLIC 'CODE'
_TEXT	ENDS
;	COMDAT ??0?$pair@Viterator@?$_Tree@V?$_Tmap_traits@KUtagEVENTINFO@@U?$less@K@std@@V?$allocator@U?$pair@$$CBKUtagEVENTINFO@@@std@@@3@$0A@@std@@@std@@_N@std@@QAE@ABViterator@?$_Tree@V?$_Tmap_traits@KUtagEVENTINFO@@U?$less@K@std@@V?$allocator@U?$pair@$$CBKUtagEVENTINFO@@@std@@@3@$0A@@std@@@1@AB_N@Z
_TEXT	SEGMENT PARA USE32 PUBLIC 'CODE'
_TEXT	ENDS
;	COMDAT ?capacity@?$vector@EV?$allocator@E@std@@@std@@QBEIXZ
_TEXT	SEGMENT PARA USE32 PUBLIC 'CODE'
_TEXT	ENDS
;	COMDAT ?begin@?$vector@EV?$allocator@E@std@@@std@@QAE?AViterator@12@XZ
_TEXT	SEGMENT PARA USE32 PUBLIC 'CODE'
_TEXT	ENDS
;	COMDAT ?end@?$vector@EV?$allocator@E@std@@@std@@QAE?AViterator@12@XZ
_TEXT	SEGMENT PARA USE32 PUBLIC 'CODE'
_TEXT	ENDS
;	COMDAT ?insert@?$vector@EV?$allocator@E@std@@@std@@QAE?AViterator@12@V312@ABE@Z
_TEXT	SEGMENT PARA USE32 PUBLIC 'CODE'
_TEXT	ENDS
;	COMDAT ?_Buy@?$vector@EV?$allocator@E@std@@@std@@IAE_NI@Z
_TEXT	SEGMENT PARA USE32 PUBLIC 'CODE'
_TEXT	ENDS
;	COMDAT ?_Tidy@?$vector@EV?$allocator@E@std@@@std@@IAEXXZ
_TEXT	SEGMENT PARA USE32 PUBLIC 'CODE'
_TEXT	ENDS
;	COMDAT ?_Ufill@?$vector@EV?$allocator@E@std@@@std@@IAEPAEPAEIABE@Z
_TEXT	SEGMENT PARA USE32 PUBLIC 'CODE'
_TEXT	ENDS
;	COMDAT ??0?$_Vector_val@EV?$allocator@E@std@@@std@@IAE@V?$allocator@E@1@@Z
_TEXT	SEGMENT PARA USE32 PUBLIC 'CODE'
_TEXT	ENDS
;	COMDAT ?capacity@?$vector@UtagTCASHITEM@@V?$allocator@UtagTCASHITEM@@@std@@@std@@QBEIXZ
_TEXT	SEGMENT PARA USE32 PUBLIC 'CODE'
_TEXT	ENDS
;	COMDAT ?end@?$vector@UtagTCASHITEM@@V?$allocator@UtagTCASHITEM@@@std@@@std@@QAE?AViterator@12@XZ
_TEXT	SEGMENT PARA USE32 PUBLIC 'CODE'
_TEXT	ENDS
;	COMDAT ?size@?$vector@UtagTCASHITEM@@V?$allocator@UtagTCASHITEM@@@std@@@std@@QBEIXZ
_TEXT	SEGMENT PARA USE32 PUBLIC 'CODE'
_TEXT	ENDS
;	COMDAT ?insert@?$vector@UtagTCASHITEM@@V?$allocator@UtagTCASHITEM@@@std@@@std@@QAE?AViterator@12@V312@ABUtagTCASHITEM@@@Z
_TEXT	SEGMENT PARA USE32 PUBLIC 'CODE'
_TEXT	ENDS
;	COMDAT ?_Buy@?$vector@UtagTCASHITEM@@V?$allocator@UtagTCASHITEM@@@std@@@std@@IAE_NI@Z
_TEXT	SEGMENT PARA USE32 PUBLIC 'CODE'
_TEXT	ENDS
;	COMDAT ?_Tidy@?$vector@UtagTCASHITEM@@V?$allocator@UtagTCASHITEM@@@std@@@std@@IAEXXZ
_TEXT	SEGMENT PARA USE32 PUBLIC 'CODE'
_TEXT	ENDS
;	COMDAT ?_Ufill@?$vector@UtagTCASHITEM@@V?$allocator@UtagTCASHITEM@@@std@@@std@@IAEPAUtagTCASHITEM@@PAU3@IABU3@@Z
_TEXT	SEGMENT PARA USE32 PUBLIC 'CODE'
_TEXT	ENDS
;	COMDAT ??0?$_Vector_val@UtagTCASHITEM@@V?$allocator@UtagTCASHITEM@@@std@@@std@@IAE@V?$allocator@UtagTCASHITEM@@@1@@Z
_TEXT	SEGMENT PARA USE32 PUBLIC 'CODE'
_TEXT	ENDS
;	COMDAT ??0?$allocator@UtagTCASHITEM@@@std@@QAE@XZ
_TEXT	SEGMENT PARA USE32 PUBLIC 'CODE'
_TEXT	ENDS
;	COMDAT ??Diterator@?$vector@V?$CStringT@DV?$StrTraitATL@DV?$ChTraitsCRT@D@ATL@@@ATL@@@ATL@@V?$allocator@V?$CStringT@DV?$StrTraitATL@DV?$ChTraitsCRT@D@ATL@@@ATL@@@ATL@@@std@@@std@@QBEAAV?$CStringT@DV?$StrTraitATL@DV?$ChTraitsCRT@D@ATL@@@ATL@@@ATL@@XZ
_TEXT	SEGMENT PARA USE32 PUBLIC 'CODE'
_TEXT	ENDS
;	COMDAT ??Diterator@?$vector@EV?$allocator@E@std@@@std@@QBEAAEXZ
_TEXT	SEGMENT PARA USE32 PUBLIC 'CODE'
_TEXT	ENDS
;	COMDAT ??Hiterator@?$vector@EV?$allocator@E@std@@@std@@QBE?AV012@H@Z
_TEXT	SEGMENT PARA USE32 PUBLIC 'CODE'
_TEXT	ENDS
;	COMDAT ??0?$CStringT@DV?$StrTraitATL@DV?$ChTraitsCRT@D@ATL@@@ATL@@@ATL@@QAE@PBDHPAUIAtlStringMgr@1@@Z
_TEXT	SEGMENT PARA USE32 PUBLIC 'CODE'
_TEXT	ENDS
;	COMDAT ?_Left@?$_Tree@V?$_Tmap_traits@KPAUtagTSVRTEMP@@U?$less@K@std@@V?$allocator@U?$pair@$$CBKPAUtagTSVRTEMP@@@std@@@3@$0A@@std@@@std@@KAAAPAU_Node@?$_Tree_nod@V?$_Tmap_traits@KPAUtagTSVRTEMP@@U?$less@K@std@@V?$allocator@U?$pair@$$CBKPAUtagTSVRTEMP@@@std@@@3@$0A@@std@@@2@PAU342@@Z
_TEXT	SEGMENT PARA USE32 PUBLIC 'CODE'
_TEXT	ENDS
;	COMDAT ?_Myval@?$_Tree@V?$_Tmap_traits@KPAUtagTSVRTEMP@@U?$less@K@std@@V?$allocator@U?$pair@$$CBKPAUtagTSVRTEMP@@@std@@@3@$0A@@std@@@std@@KAAAU?$pair@$$CBKPAUtagTSVRTEMP@@@2@PAU_Node@?$_Tree_nod@V?$_Tmap_traits@KPAUtagTSVRTEMP@@U?$less@K@std@@V?$allocator@U?$pair@$$CBKPAUtagTSVRTEMP@@@std@@@3@$0A@@std@@@2@@Z
_TEXT	SEGMENT PARA USE32 PUBLIC 'CODE'
_TEXT	ENDS
;	COMDAT ?_Lbound@?$_Tree@V?$_Tmap_traits@KPAUtagTSVRTEMP@@U?$less@K@std@@V?$allocator@U?$pair@$$CBKPAUtagTSVRTEMP@@@std@@@3@$0A@@std@@@std@@IBEPAU_Node@?$_Tree_nod@V?$_Tmap_traits@KPAUtagTSVRTEMP@@U?$less@K@std@@V?$allocator@U?$pair@$$CBKPAUtagTSVRTEMP@@@std@@@3@$0A@@std@@@2@ABK@Z
_TEXT	SEGMENT PARA USE32 PUBLIC 'CODE'
_TEXT	ENDS
;	COMDAT ?_Kfn@?$_Tmap_traits@KPAUtagTSVRTEMP@@U?$less@K@std@@V?$allocator@U?$pair@$$CBKPAUtagTSVRTEMP@@@std@@@3@$0A@@std@@SAABKABU?$pair@$$CBKPAUtagTSVRTEMP@@@2@@Z
_TEXT	SEGMENT PARA USE32 PUBLIC 'CODE'
_TEXT	ENDS
;	COMDAT ?_Color@?$_Tree@V?$_Tmap_traits@KPAVCTManager@@U?$less@K@std@@V?$allocator@U?$pair@$$CBKPAVCTManager@@@std@@@3@$0A@@std@@@std@@KAAADPAU_Node@?$_Tree_nod@V?$_Tmap_traits@KPAVCTManager@@U?$less@K@std@@V?$allocator@U?$pair@$$CBKPAVCTManager@@@std@@@3@$0A@@std@@@2@@Z
_TEXT	SEGMENT PARA USE32 PUBLIC 'CODE'
_TEXT	ENDS
;	COMDAT ?_Parent@?$_Tree@V?$_Tmap_traits@KPAVCTManager@@U?$less@K@std@@V?$allocator@U?$pair@$$CBKPAVCTManager@@@std@@@3@$0A@@std@@@std@@KAAAPAU_Node@?$_Tree_nod@V?$_Tmap_traits@KPAVCTManager@@U?$less@K@std@@V?$allocator@U?$pair@$$CBKPAVCTManager@@@std@@@3@$0A@@std@@@2@PAU342@@Z
_TEXT	SEGMENT PARA USE32 PUBLIC 'CODE'
_TEXT	ENDS
;	COMDAT ?_Myval@?$_Tree@V?$_Tmap_traits@KPAVCTManager@@U?$less@K@std@@V?$allocator@U?$pair@$$CBKPAVCTManager@@@std@@@3@$0A@@std@@@std@@KAAAU?$pair@$$CBKPAVCTManager@@@2@PAU_Node@?$_Tree_nod@V?$_Tmap_traits@KPAVCTManager@@U?$less@K@std@@V?$allocator@U?$pair@$$CBKPAVCTManager@@@std@@@3@$0A@@std@@@2@@Z
_TEXT	SEGMENT PARA USE32 PUBLIC 'CODE'
_TEXT	ENDS
;	COMDAT ?max_size@?$_Tree@V?$_Tmap_traits@KPAVCTManager@@U?$less@K@std@@V?$allocator@U?$pair@$$CBKPAVCTManager@@@std@@@3@$0A@@std@@@std@@QBEIXZ
_TEXT	SEGMENT PARA USE32 PUBLIC 'CODE'
_TEXT	ENDS
;	COMDAT ?_Lbound@?$_Tree@V?$_Tmap_traits@KPAVCTManager@@U?$less@K@std@@V?$allocator@U?$pair@$$CBKPAVCTManager@@@std@@@3@$0A@@std@@@std@@IBEPAU_Node@?$_Tree_nod@V?$_Tmap_traits@KPAVCTManager@@U?$less@K@std@@V?$allocator@U?$pair@$$CBKPAVCTManager@@@std@@@3@$0A@@std@@@2@ABK@Z
_TEXT	SEGMENT PARA USE32 PUBLIC 'CODE'
_TEXT	ENDS
;	COMDAT ?_Lrotate@?$_Tree@V?$_Tmap_traits@KPAVCTManager@@U?$less@K@std@@V?$allocator@U?$pair@$$CBKPAVCTManager@@@std@@@3@$0A@@std@@@std@@IAEXPAU_Node@?$_Tree_nod@V?$_Tmap_traits@KPAVCTManager@@U?$less@K@std@@V?$allocator@U?$pair@$$CBKPAVCTManager@@@std@@@3@$0A@@std@@@2@@Z
_TEXT	SEGMENT PARA USE32 PUBLIC 'CODE'
_TEXT	ENDS
;	COMDAT ?_Rmost@?$_Tree@V?$_Tmap_traits@KPAVCTManager@@U?$less@K@std@@V?$allocator@U?$pair@$$CBKPAVCTManager@@@std@@@3@$0A@@std@@@std@@IAEAAPAU_Node@?$_Tree_nod@V?$_Tmap_traits@KPAVCTManager@@U?$less@K@std@@V?$allocator@U?$pair@$$CBKPAVCTManager@@@std@@@3@$0A@@std@@@2@XZ
_TEXT	SEGMENT PARA USE32 PUBLIC 'CODE'
_TEXT	ENDS
;	COMDAT ?_Rrotate@?$_Tree@V?$_Tmap_traits@KPAVCTManager@@U?$less@K@std@@V?$allocator@U?$pair@$$CBKPAVCTManager@@@std@@@3@$0A@@std@@@std@@IAEXPAU_Node@?$_Tree_nod@V?$_Tmap_traits@KPAVCTManager@@U?$less@K@std@@V?$allocator@U?$pair@$$CBKPAVCTManager@@@std@@@3@$0A@@std@@@2@@Z
_TEXT	SEGMENT PARA USE32 PUBLIC 'CODE'
_TEXT	ENDS
;	COMDAT ?_Buynode@?$_Tree@V?$_Tmap_traits@KPAVCTManager@@U?$less@K@std@@V?$allocator@U?$pair@$$CBKPAVCTManager@@@std@@@3@$0A@@std@@@std@@IAEPAU_Node@?$_Tree_nod@V?$_Tmap_traits@KPAVCTManager@@U?$less@K@std@@V?$allocator@U?$pair@$$CBKPAVCTManager@@@std@@@3@$0A@@std@@@2@PAU342@00ABU?$pair@$$CBKPAVCTManager@@@2@D@Z
_TEXT	SEGMENT PARA USE32 PUBLIC 'CODE'
_TEXT	ENDS
;	COMDAT ??0?$allocator@E@std@@QAE@ABV01@@Z
_TEXT	SEGMENT PARA USE32 PUBLIC 'CODE'
_TEXT	ENDS
;	COMDAT ?deallocate@?$allocator@E@std@@QAEXPAEI@Z
_TEXT	SEGMENT PARA USE32 PUBLIC 'CODE'
_TEXT	ENDS
;	COMDAT ?allocate@?$allocator@E@std@@QAEPAEI@Z
_TEXT	SEGMENT PARA USE32 PUBLIC 'CODE'
_TEXT	ENDS
;	COMDAT ?_Myval@?$_Tree@V?$_Tmap_traits@EPAUtagTMACHINE@@U?$less@E@std@@V?$allocator@U?$pair@$$CBEPAUtagTMACHINE@@@std@@@3@$0A@@std@@@std@@KAAAU?$pair@$$CBEPAUtagTMACHINE@@@2@PAU_Node@?$_Tree_nod@V?$_Tmap_traits@EPAUtagTMACHINE@@U?$less@E@std@@V?$allocator@U?$pair@$$CBEPAUtagTMACHINE@@@std@@@3@$0A@@std@@@2@@Z
_TEXT	SEGMENT PARA USE32 PUBLIC 'CODE'
_TEXT	ENDS
;	COMDAT ?_Lbound@?$_Tree@V?$_Tmap_traits@EPAUtagTMACHINE@@U?$less@E@std@@V?$allocator@U?$pair@$$CBEPAUtagTMACHINE@@@std@@@3@$0A@@std@@@std@@IBEPAU_Node@?$_Tree_nod@V?$_Tmap_traits@EPAUtagTMACHINE@@U?$less@E@std@@V?$allocator@U?$pair@$$CBEPAUtagTMACHINE@@@std@@@3@$0A@@std@@@2@ABE@Z
_TEXT	SEGMENT PARA USE32 PUBLIC 'CODE'
_TEXT	ENDS
;	COMDAT ?_Kfn@?$_Tmap_traits@EPAUtagTMACHINE@@U?$less@E@std@@V?$allocator@U?$pair@$$CBEPAUtagTMACHINE@@@std@@@3@$0A@@std@@SAABEABU?$pair@$$CBEPAUtagTMACHINE@@@2@@Z
_TEXT	SEGMENT PARA USE32 PUBLIC 'CODE'
_TEXT	ENDS
;	COMDAT ?_Myval@?$_Tree@V?$_Tmap_traits@KPAUtagBANINFO@@U?$less@K@std@@V?$allocator@U?$pair@$$CBKPAUtagBANINFO@@@std@@@3@$0A@@std@@@std@@KAAAU?$pair@$$CBKPAUtagBANINFO@@@2@PAU_Node@?$_Tree_nod@V?$_Tmap_traits@KPAUtagBANINFO@@U?$less@K@std@@V?$allocator@U?$pair@$$CBKPAUtagBANINFO@@@std@@@3@$0A@@std@@@2@@Z
_TEXT	SEGMENT PARA USE32 PUBLIC 'CODE'
_TEXT	ENDS
;	COMDAT ?max_size@?$_Tree@V?$_Tmap_traits@KPAUtagBANINFO@@U?$less@K@std@@V?$allocator@U?$pair@$$CBKPAUtagBANINFO@@@std@@@3@$0A@@std@@@std@@QBEIXZ
_TEXT	SEGMENT PARA USE32 PUBLIC 'CODE'
_TEXT	ENDS
;	COMDAT ?_Lbound@?$_Tree@V?$_Tmap_traits@KPAUtagBANINFO@@U?$less@K@std@@V?$allocator@U?$pair@$$CBKPAUtagBANINFO@@@std@@@3@$0A@@std@@@std@@IBEPAU_Node@?$_Tree_nod@V?$_Tmap_traits@KPAUtagBANINFO@@U?$less@K@std@@V?$allocator@U?$pair@$$CBKPAUtagBANINFO@@@std@@@3@$0A@@std@@@2@ABK@Z
_TEXT	SEGMENT PARA USE32 PUBLIC 'CODE'
_TEXT	ENDS
;	COMDAT ?_Buynode@?$_Tree@V?$_Tmap_traits@KPAUtagBANINFO@@U?$less@K@std@@V?$allocator@U?$pair@$$CBKPAUtagBANINFO@@@std@@@3@$0A@@std@@@std@@IAEPAU_Node@?$_Tree_nod@V?$_Tmap_traits@KPAUtagBANINFO@@U?$less@K@std@@V?$allocator@U?$pair@$$CBKPAUtagBANINFO@@@std@@@3@$0A@@std@@@2@PAU342@00ABU?$pair@$$CBKPAUtagBANINFO@@@2@D@Z
_TEXT	SEGMENT PARA USE32 PUBLIC 'CODE'
_TEXT	ENDS
;	COMDAT ?_Myval@?$_Tree@V?$_Tmap_traits@KUtagEVENTINFO@@U?$less@K@std@@V?$allocator@U?$pair@$$CBKUtagEVENTINFO@@@std@@@3@$0A@@std@@@std@@KAAAU?$pair@$$CBKUtagEVENTINFO@@@2@PAU_Node@?$_Tree_nod@V?$_Tmap_traits@KUtagEVENTINFO@@U?$less@K@std@@V?$allocator@U?$pair@$$CBKUtagEVENTINFO@@@std@@@3@$0A@@std@@@2@@Z
_TEXT	SEGMENT PARA USE32 PUBLIC 'CODE'
_TEXT	ENDS
;	COMDAT ?max_size@?$_Tree@V?$_Tmap_traits@KUtagEVENTINFO@@U?$less@K@std@@V?$allocator@U?$pair@$$CBKUtagEVENTINFO@@@std@@@3@$0A@@std@@@std@@QBEIXZ
_TEXT	SEGMENT PARA USE32 PUBLIC 'CODE'
_TEXT	ENDS
;	COMDAT ?_Lbound@?$_Tree@V?$_Tmap_traits@KUtagEVENTINFO@@U?$less@K@std@@V?$allocator@U?$pair@$$CBKUtagEVENTINFO@@@std@@@3@$0A@@std@@@std@@IBEPAU_Node@?$_Tree_nod@V?$_Tmap_traits@KUtagEVENTINFO@@U?$less@K@std@@V?$allocator@U?$pair@$$CBKUtagEVENTINFO@@@std@@@3@$0A@@std@@@2@ABK@Z
_TEXT	SEGMENT PARA USE32 PUBLIC 'CODE'
_TEXT	ENDS
;	COMDAT ?_Buynode@?$_Tree@V?$_Tmap_traits@KUtagEVENTINFO@@U?$less@K@std@@V?$allocator@U?$pair@$$CBKUtagEVENTINFO@@@std@@@3@$0A@@std@@@std@@IAEPAU_Node@?$_Tree_nod@V?$_Tmap_traits@KUtagEVENTINFO@@U?$less@K@std@@V?$allocator@U?$pair@$$CBKUtagEVENTINFO@@@std@@@3@$0A@@std@@@2@PAU342@00ABU?$pair@$$CBKUtagEVENTINFO@@@2@D@Z
_TEXT	SEGMENT PARA USE32 PUBLIC 'CODE'
_TEXT	ENDS
;	COMDAT ??0const_iterator@?$_Tree@V?$_Tmap_traits@KPAVCTManager@@U?$less@K@std@@V?$allocator@U?$pair@$$CBKPAVCTManager@@@std@@@3@$0A@@std@@@std@@QAE@PAU_Node@?$_Tree_nod@V?$_Tmap_traits@KPAVCTManager@@U?$less@K@std@@V?$allocator@U?$pair@$$CBKPAVCTManager@@@std@@@3@$0A@@std@@@2@@Z
_TEXT	SEGMENT PARA USE32 PUBLIC 'CODE'
_TEXT	ENDS
;	COMDAT ??Econst_iterator@?$_Tree@V?$_Tmap_traits@KPAVCTManager@@U?$less@K@std@@V?$allocator@U?$pair@$$CBKPAVCTManager@@@std@@@3@$0A@@std@@@std@@QAEAAV012@XZ
_TEXT	SEGMENT PARA USE32 PUBLIC 'CODE'
_TEXT	ENDS
;	COMDAT ??Fconst_iterator@?$_Tree@V?$_Tmap_traits@KPAVCTManager@@U?$less@K@std@@V?$allocator@U?$pair@$$CBKPAVCTManager@@@std@@@3@$0A@@std@@@std@@QAEAAV012@XZ
_TEXT	SEGMENT PARA USE32 PUBLIC 'CODE'
_TEXT	ENDS
;	COMDAT ??0const_iterator@?$_Tree@V?$_Tmap_traits@KPAUtagTSVRTEMP@@U?$less@K@std@@V?$allocator@U?$pair@$$CBKPAUtagTSVRTEMP@@@std@@@3@$0A@@std@@@std@@QAE@PAU_Node@?$_Tree_nod@V?$_Tmap_traits@KPAUtagTSVRTEMP@@U?$less@K@std@@V?$allocator@U?$pair@$$CBKPAUtagTSVRTEMP@@@std@@@3@$0A@@std@@@2@@Z
_TEXT	SEGMENT PARA USE32 PUBLIC 'CODE'
_TEXT	ENDS
;	COMDAT ??Econst_iterator@?$_Tree@V?$_Tmap_traits@KPAUtagTSVRTEMP@@U?$less@K@std@@V?$allocator@U?$pair@$$CBKPAUtagTSVRTEMP@@@std@@@3@$0A@@std@@@std@@QAEAAV012@XZ
_TEXT	SEGMENT PARA USE32 PUBLIC 'CODE'
_TEXT	ENDS
;	COMDAT ??0const_iterator@?$_Tree@V?$_Tmap_traits@EPAUtagTMACHINE@@U?$less@E@std@@V?$allocator@U?$pair@$$CBEPAUtagTMACHINE@@@std@@@3@$0A@@std@@@std@@QAE@PAU_Node@?$_Tree_nod@V?$_Tmap_traits@EPAUtagTMACHINE@@U?$less@E@std@@V?$allocator@U?$pair@$$CBEPAUtagTMACHINE@@@std@@@3@$0A@@std@@@2@@Z
_TEXT	SEGMENT PARA USE32 PUBLIC 'CODE'
_TEXT	ENDS
;	COMDAT ?begin@?$vector@UtagPATCHFILE@@V?$allocator@UtagPATCHFILE@@@std@@@std@@QAE?AViterator@12@XZ
_TEXT	SEGMENT PARA USE32 PUBLIC 'CODE'
_TEXT	ENDS
;	COMDAT ?max_size@?$vector@UtagPATCHFILE@@V?$allocator@UtagPATCHFILE@@@std@@@std@@QBEIXZ
_TEXT	SEGMENT PARA USE32 PUBLIC 'CODE'
_TEXT	ENDS
;	COMDAT ?_Destroy@?$vector@UtagPATCHFILE@@V?$allocator@UtagPATCHFILE@@@std@@@std@@IAEXPAUtagPATCHFILE@@0@Z
_TEXT	SEGMENT PARA USE32 PUBLIC 'CODE'
_TEXT	ENDS
;	COMDAT ?_Insert_n@?$vector@UtagPATCHFILE@@V?$allocator@UtagPATCHFILE@@@std@@@std@@IAEXViterator@12@IABUtagPATCHFILE@@@Z
_TEXT	SEGMENT PARA USE32 PUBLIC 'CODE'
_TEXT	ENDS
;	COMDAT ?_Xlen@?$vector@UtagPATCHFILE@@V?$allocator@UtagPATCHFILE@@@std@@@std@@IBEXXZ
_TEXT	SEGMENT PARA USE32 PUBLIC 'CODE'
_TEXT	ENDS
;	COMDAT ??0?$allocator@UtagPATCHFILE@@@std@@QAE@ABV01@@Z
_TEXT	SEGMENT PARA USE32 PUBLIC 'CODE'
_TEXT	ENDS
;	COMDAT ?deallocate@?$allocator@UtagPATCHFILE@@@std@@QAEXPAUtagPATCHFILE@@I@Z
_TEXT	SEGMENT PARA USE32 PUBLIC 'CODE'
_TEXT	ENDS
;	COMDAT ?allocate@?$allocator@UtagPATCHFILE@@@std@@QAEPAUtagPATCHFILE@@I@Z
_TEXT	SEGMENT PARA USE32 PUBLIC 'CODE'
_TEXT	ENDS
;	COMDAT ??0const_iterator@?$_Tree@V?$_Tmap_traits@KPAUtagBANINFO@@U?$less@K@std@@V?$allocator@U?$pair@$$CBKPAUtagBANINFO@@@std@@@3@$0A@@std@@@std@@QAE@PAU_Node@?$_Tree_nod@V?$_Tmap_traits@KPAUtagBANINFO@@U?$less@K@std@@V?$allocator@U?$pair@$$CBKPAUtagBANINFO@@@std@@@3@$0A@@std@@@2@@Z
_TEXT	SEGMENT PARA USE32 PUBLIC 'CODE'
_TEXT	ENDS
;	COMDAT ??Econst_iterator@?$_Tree@V?$_Tmap_traits@KPAUtagBANINFO@@U?$less@K@std@@V?$allocator@U?$pair@$$CBKPAUtagBANINFO@@@std@@@3@$0A@@std@@@std@@QAEAAV012@XZ
_TEXT	SEGMENT PARA USE32 PUBLIC 'CODE'
_TEXT	ENDS
;	COMDAT ??Fconst_iterator@?$_Tree@V?$_Tmap_traits@KPAUtagBANINFO@@U?$less@K@std@@V?$allocator@U?$pair@$$CBKPAUtagBANINFO@@@std@@@3@$0A@@std@@@std@@QAEAAV012@XZ
_TEXT	SEGMENT PARA USE32 PUBLIC 'CODE'
_TEXT	ENDS
;	COMDAT ??0const_iterator@?$_Tree@V?$_Tmap_traits@KUtagEVENTINFO@@U?$less@K@std@@V?$allocator@U?$pair@$$CBKUtagEVENTINFO@@@std@@@3@$0A@@std@@@std@@QAE@PAU_Node@?$_Tree_nod@V?$_Tmap_traits@KUtagEVENTINFO@@U?$less@K@std@@V?$allocator@U?$pair@$$CBKUtagEVENTINFO@@@std@@@3@$0A@@std@@@2@@Z
_TEXT	SEGMENT PARA USE32 PUBLIC 'CODE'
_TEXT	ENDS
;	COMDAT ??Econst_iterator@?$_Tree@V?$_Tmap_traits@KUtagEVENTINFO@@U?$less@K@std@@V?$allocator@U?$pair@$$CBKUtagEVENTINFO@@@std@@@3@$0A@@std@@@std@@QAEAAV012@XZ
_TEXT	SEGMENT PARA USE32 PUBLIC 'CODE'
_TEXT	ENDS
;	COMDAT ??Fconst_iterator@?$_Tree@V?$_Tmap_traits@KUtagEVENTINFO@@U?$less@K@std@@V?$allocator@U?$pair@$$CBKUtagEVENTINFO@@@std@@@3@$0A@@std@@@std@@QAEAAV012@XZ
_TEXT	SEGMENT PARA USE32 PUBLIC 'CODE'
_TEXT	ENDS
;	COMDAT ?max_size@?$vector@EV?$allocator@E@std@@@std@@QBEIXZ
_TEXT	SEGMENT PARA USE32 PUBLIC 'CODE'
_TEXT	ENDS
;	COMDAT ?_Destroy@?$vector@EV?$allocator@E@std@@@std@@IAEXPAE0@Z
_TEXT	SEGMENT PARA USE32 PUBLIC 'CODE'
_TEXT	ENDS
;	COMDAT ?_Insert_n@?$vector@EV?$allocator@E@std@@@std@@IAEXViterator@12@IABE@Z
_TEXT	SEGMENT PARA USE32 PUBLIC 'CODE'
_TEXT	ENDS
;	COMDAT ?_Xlen@?$vector@EV?$allocator@E@std@@@std@@IBEXXZ
_TEXT	SEGMENT PARA USE32 PUBLIC 'CODE'
_TEXT	ENDS
;	COMDAT ?begin@?$vector@UtagTCASHITEM@@V?$allocator@UtagTCASHITEM@@@std@@@std@@QAE?AViterator@12@XZ
_TEXT	SEGMENT PARA USE32 PUBLIC 'CODE'
_TEXT	ENDS
;	COMDAT ?max_size@?$vector@UtagTCASHITEM@@V?$allocator@UtagTCASHITEM@@@std@@@std@@QBEIXZ
_TEXT	SEGMENT PARA USE32 PUBLIC 'CODE'
_TEXT	ENDS
;	COMDAT ?_Destroy@?$vector@UtagTCASHITEM@@V?$allocator@UtagTCASHITEM@@@std@@@std@@IAEXPAUtagTCASHITEM@@0@Z
_TEXT	SEGMENT PARA USE32 PUBLIC 'CODE'
_TEXT	ENDS
;	COMDAT ?_Insert_n@?$vector@UtagTCASHITEM@@V?$allocator@UtagTCASHITEM@@@std@@@std@@IAEXViterator@12@IABUtagTCASHITEM@@@Z
_TEXT	SEGMENT PARA USE32 PUBLIC 'CODE'
_TEXT	ENDS
;	COMDAT ?_Xlen@?$vector@UtagTCASHITEM@@V?$allocator@UtagTCASHITEM@@@std@@@std@@IBEXXZ
_TEXT	SEGMENT PARA USE32 PUBLIC 'CODE'
_TEXT	ENDS
;	COMDAT ??0?$allocator@UtagTCASHITEM@@@std@@QAE@ABV01@@Z
_TEXT	SEGMENT PARA USE32 PUBLIC 'CODE'
_TEXT	ENDS
;	COMDAT ?deallocate@?$allocator@UtagTCASHITEM@@@std@@QAEXPAUtagTCASHITEM@@I@Z
_TEXT	SEGMENT PARA USE32 PUBLIC 'CODE'
_TEXT	ENDS
;	COMDAT ?allocate@?$allocator@UtagTCASHITEM@@@std@@QAEPAUtagTCASHITEM@@I@Z
_TEXT	SEGMENT PARA USE32 PUBLIC 'CODE'
_TEXT	ENDS
;	COMDAT ??0iterator@?$vector@V?$CStringT@DV?$StrTraitATL@DV?$ChTraitsCRT@D@ATL@@@ATL@@@ATL@@V?$allocator@V?$CStringT@DV?$StrTraitATL@DV?$ChTraitsCRT@D@ATL@@@ATL@@@ATL@@@std@@@std@@QAE@PAV?$CStringT@DV?$StrTraitATL@DV?$ChTraitsCRT@D@ATL@@@ATL@@@ATL@@@Z
_TEXT	SEGMENT PARA USE32 PUBLIC 'CODE'
_TEXT	ENDS
;	COMDAT ??Dconst_iterator@?$vector@V?$CStringT@DV?$StrTraitATL@DV?$ChTraitsCRT@D@ATL@@@ATL@@@ATL@@V?$allocator@V?$CStringT@DV?$StrTraitATL@DV?$ChTraitsCRT@D@ATL@@@ATL@@@ATL@@@std@@@std@@QBEABV?$CStringT@DV?$StrTraitATL@DV?$ChTraitsCRT@D@ATL@@@ATL@@@ATL@@XZ
_TEXT	SEGMENT PARA USE32 PUBLIC 'CODE'
_TEXT	ENDS
;	COMDAT ??0iterator@?$vector@UtagPATCHFILE@@V?$allocator@UtagPATCHFILE@@@std@@@std@@QAE@PAUtagPATCHFILE@@@Z
_TEXT	SEGMENT PARA USE32 PUBLIC 'CODE'
_TEXT	ENDS
;	COMDAT ??Hiterator@?$vector@UtagPATCHFILE@@V?$allocator@UtagPATCHFILE@@@std@@@std@@QBE?AV012@H@Z
_TEXT	SEGMENT PARA USE32 PUBLIC 'CODE'
_TEXT	ENDS
;	COMDAT ??Giterator@?$vector@UtagPATCHFILE@@V?$allocator@UtagPATCHFILE@@@std@@@std@@QBEHABVconst_iterator@12@@Z
_TEXT	SEGMENT PARA USE32 PUBLIC 'CODE'
_TEXT	ENDS
;	COMDAT ??0iterator@?$vector@EV?$allocator@E@std@@@std@@QAE@PAE@Z
_TEXT	SEGMENT PARA USE32 PUBLIC 'CODE'
_TEXT	ENDS
;	COMDAT ??Yiterator@?$vector@EV?$allocator@E@std@@@std@@QAEAAV012@H@Z
_TEXT	SEGMENT PARA USE32 PUBLIC 'CODE'
_TEXT	ENDS
;	COMDAT ??Giterator@?$vector@EV?$allocator@E@std@@@std@@QBEHABVconst_iterator@12@@Z
_TEXT	SEGMENT PARA USE32 PUBLIC 'CODE'
_TEXT	ENDS
;	COMDAT ??Dconst_iterator@?$vector@EV?$allocator@E@std@@@std@@QBEABEXZ
_TEXT	SEGMENT PARA USE32 PUBLIC 'CODE'
_TEXT	ENDS
;	COMDAT ??0iterator@?$vector@UtagTCASHITEM@@V?$allocator@UtagTCASHITEM@@@std@@@std@@QAE@PAUtagTCASHITEM@@@Z
_TEXT	SEGMENT PARA USE32 PUBLIC 'CODE'
_TEXT	ENDS
;	COMDAT ??Hiterator@?$vector@UtagTCASHITEM@@V?$allocator@UtagTCASHITEM@@@std@@@std@@QBE?AV012@H@Z
_TEXT	SEGMENT PARA USE32 PUBLIC 'CODE'
_TEXT	ENDS
;	COMDAT ??Giterator@?$vector@UtagTCASHITEM@@V?$allocator@UtagTCASHITEM@@@std@@@std@@QBEHABVconst_iterator@12@@Z
_TEXT	SEGMENT PARA USE32 PUBLIC 'CODE'
_TEXT	ENDS
;	COMDAT ??0tagPATCHFILE@@QAE@ABU0@@Z
_TEXT	SEGMENT PARA USE32 PUBLIC 'CODE'
_TEXT	ENDS
;	COMDAT ??0tagTCASHITEM@@QAE@ABU0@@Z
_TEXT	SEGMENT PARA USE32 PUBLIC 'CODE'
_TEXT	ENDS
;	COMDAT ??0?$CSimpleStringT@D$0A@@ATL@@QAE@PBDHPAUIAtlStringMgr@1@@Z
_TEXT	SEGMENT PARA USE32 PUBLIC 'CODE'
_TEXT	ENDS
;	COMDAT ?_Isnil@?$_Tree@V?$_Tmap_traits@KPAUtagTSVRTEMP@@U?$less@K@std@@V?$allocator@U?$pair@$$CBKPAUtagTSVRTEMP@@@std@@@3@$0A@@std@@@std@@KAAADPAU_Node@?$_Tree_nod@V?$_Tmap_traits@KPAUtagTSVRTEMP@@U?$less@K@std@@V?$allocator@U?$pair@$$CBKPAUtagTSVRTEMP@@@std@@@3@$0A@@std@@@2@@Z
_TEXT	SEGMENT PARA USE32 PUBLIC 'CODE'
_TEXT	ENDS
;	COMDAT ?_Right@?$_Tree@V?$_Tmap_traits@KPAUtagTSVRTEMP@@U?$less@K@std@@V?$allocator@U?$pair@$$CBKPAUtagTSVRTEMP@@@std@@@3@$0A@@std@@@std@@KAAAPAU_Node@?$_Tree_nod@V?$_Tmap_traits@KPAUtagTSVRTEMP@@U?$less@K@std@@V?$allocator@U?$pair@$$CBKPAUtagTSVRTEMP@@@std@@@3@$0A@@std@@@2@PAU342@@Z
_TEXT	SEGMENT PARA USE32 PUBLIC 'CODE'
_TEXT	ENDS
;	COMDAT ?_Root@?$_Tree@V?$_Tmap_traits@KPAUtagTSVRTEMP@@U?$less@K@std@@V?$allocator@U?$pair@$$CBKPAUtagTSVRTEMP@@@std@@@3@$0A@@std@@@std@@IBEAAPAU_Node@?$_Tree_nod@V?$_Tmap_traits@KPAUtagTSVRTEMP@@U?$less@K@std@@V?$allocator@U?$pair@$$CBKPAUtagTSVRTEMP@@@std@@@3@$0A@@std@@@2@XZ
_TEXT	SEGMENT PARA USE32 PUBLIC 'CODE'
_TEXT	ENDS
;	COMDAT ?_Root@?$_Tree@V?$_Tmap_traits@KPAVCTManager@@U?$less@K@std@@V?$allocator@U?$pair@$$CBKPAVCTManager@@@std@@@3@$0A@@std@@@std@@IBEAAPAU_Node@?$_Tree_nod@V?$_Tmap_traits@KPAVCTManager@@U?$less@K@std@@V?$allocator@U?$pair@$$CBKPAVCTManager@@@std@@@3@$0A@@std@@@2@XZ
_TEXT	SEGMENT PARA USE32 PUBLIC 'CODE'
_TEXT	ENDS
;	COMDAT ?max_size@?$allocator@U?$pair@$$CBKPAVCTManager@@@std@@@std@@QBEIXZ
_TEXT	SEGMENT PARA USE32 PUBLIC 'CODE'
_TEXT	ENDS
;	COMDAT ?deallocate@?$allocator@U_Node@?$_Tree_nod@V?$_Tmap_traits@KPAVCTManager@@U?$less@K@std@@V?$allocator@U?$pair@$$CBKPAVCTManager@@@std@@@3@$0A@@std@@@std@@@std@@QAEXPAU_Node@?$_Tree_nod@V?$_Tmap_traits@KPAVCTManager@@U?$less@K@std@@V?$allocator@U?$pair@$$CBKPAVCTManager@@@std@@@3@$0A@@std@@@2@I@Z
_TEXT	SEGMENT PARA USE32 PUBLIC 'CODE'
_TEXT	ENDS
;	COMDAT ?allocate@?$allocator@U_Node@?$_Tree_nod@V?$_Tmap_traits@KPAVCTManager@@U?$less@K@std@@V?$allocator@U?$pair@$$CBKPAVCTManager@@@std@@@3@$0A@@std@@@std@@@std@@QAEPAU_Node@?$_Tree_nod@V?$_Tmap_traits@KPAVCTManager@@U?$less@K@std@@V?$allocator@U?$pair@$$CBKPAVCTManager@@@std@@@3@$0A@@std@@@2@I@Z
_TEXT	SEGMENT PARA USE32 PUBLIC 'CODE'
_TEXT	ENDS
;	COMDAT ?max_size@?$allocator@E@std@@QBEIXZ
_TEXT	SEGMENT PARA USE32 PUBLIC 'CODE'
_TEXT	ENDS
;	COMDAT ?_Isnil@?$_Tree@V?$_Tmap_traits@EPAUtagTMACHINE@@U?$less@E@std@@V?$allocator@U?$pair@$$CBEPAUtagTMACHINE@@@std@@@3@$0A@@std@@@std@@KAAADPAU_Node@?$_Tree_nod@V?$_Tmap_traits@EPAUtagTMACHINE@@U?$less@E@std@@V?$allocator@U?$pair@$$CBEPAUtagTMACHINE@@@std@@@3@$0A@@std@@@2@@Z
_TEXT	SEGMENT PARA USE32 PUBLIC 'CODE'
_TEXT	ENDS
;	COMDAT ?_Left@?$_Tree@V?$_Tmap_traits@EPAUtagTMACHINE@@U?$less@E@std@@V?$allocator@U?$pair@$$CBEPAUtagTMACHINE@@@std@@@3@$0A@@std@@@std@@KAAAPAU_Node@?$_Tree_nod@V?$_Tmap_traits@EPAUtagTMACHINE@@U?$less@E@std@@V?$allocator@U?$pair@$$CBEPAUtagTMACHINE@@@std@@@3@$0A@@std@@@2@PAU342@@Z
_TEXT	SEGMENT PARA USE32 PUBLIC 'CODE'
_TEXT	ENDS
;	COMDAT ?_Right@?$_Tree@V?$_Tmap_traits@EPAUtagTMACHINE@@U?$less@E@std@@V?$allocator@U?$pair@$$CBEPAUtagTMACHINE@@@std@@@3@$0A@@std@@@std@@KAAAPAU_Node@?$_Tree_nod@V?$_Tmap_traits@EPAUtagTMACHINE@@U?$less@E@std@@V?$allocator@U?$pair@$$CBEPAUtagTMACHINE@@@std@@@3@$0A@@std@@@2@PAU342@@Z
_TEXT	SEGMENT PARA USE32 PUBLIC 'CODE'
_TEXT	ENDS
;	COMDAT ?_Root@?$_Tree@V?$_Tmap_traits@EPAUtagTMACHINE@@U?$less@E@std@@V?$allocator@U?$pair@$$CBEPAUtagTMACHINE@@@std@@@3@$0A@@std@@@std@@IBEAAPAU_Node@?$_Tree_nod@V?$_Tmap_traits@EPAUtagTMACHINE@@U?$less@E@std@@V?$allocator@U?$pair@$$CBEPAUtagTMACHINE@@@std@@@3@$0A@@std@@@2@XZ
_TEXT	SEGMENT PARA USE32 PUBLIC 'CODE'
_TEXT	ENDS
;	COMDAT ?_Root@?$_Tree@V?$_Tmap_traits@KPAUtagBANINFO@@U?$less@K@std@@V?$allocator@U?$pair@$$CBKPAUtagBANINFO@@@std@@@3@$0A@@std@@@std@@IBEAAPAU_Node@?$_Tree_nod@V?$_Tmap_traits@KPAUtagBANINFO@@U?$less@K@std@@V?$allocator@U?$pair@$$CBKPAUtagBANINFO@@@std@@@3@$0A@@std@@@2@XZ
_TEXT	SEGMENT PARA USE32 PUBLIC 'CODE'
_TEXT	ENDS
;	COMDAT ?max_size@?$allocator@U?$pair@$$CBKPAUtagBANINFO@@@std@@@std@@QBEIXZ
_TEXT	SEGMENT PARA USE32 PUBLIC 'CODE'
_TEXT	ENDS
;	COMDAT ?allocate@?$allocator@U_Node@?$_Tree_nod@V?$_Tmap_traits@KPAUtagBANINFO@@U?$less@K@std@@V?$allocator@U?$pair@$$CBKPAUtagBANINFO@@@std@@@3@$0A@@std@@@std@@@std@@QAEPAU_Node@?$_Tree_nod@V?$_Tmap_traits@KPAUtagBANINFO@@U?$less@K@std@@V?$allocator@U?$pair@$$CBKPAUtagBANINFO@@@std@@@3@$0A@@std@@@2@I@Z
_TEXT	SEGMENT PARA USE32 PUBLIC 'CODE'
_TEXT	ENDS
;	COMDAT ?_Root@?$_Tree@V?$_Tmap_traits@KUtagEVENTINFO@@U?$less@K@std@@V?$allocator@U?$pair@$$CBKUtagEVENTINFO@@@std@@@3@$0A@@std@@@std@@IBEAAPAU_Node@?$_Tree_nod@V?$_Tmap_traits@KUtagEVENTINFO@@U?$less@K@std@@V?$allocator@U?$pair@$$CBKUtagEVENTINFO@@@std@@@3@$0A@@std@@@2@XZ
_TEXT	SEGMENT PARA USE32 PUBLIC 'CODE'
_TEXT	ENDS
;	COMDAT ?max_size@?$allocator@U?$pair@$$CBKUtagEVENTINFO@@@std@@@std@@QBEIXZ
_TEXT	SEGMENT PARA USE32 PUBLIC 'CODE'
_TEXT	ENDS
;	COMDAT ?allocate@?$allocator@U_Node@?$_Tree_nod@V?$_Tmap_traits@KUtagEVENTINFO@@U?$less@K@std@@V?$allocator@U?$pair@$$CBKUtagEVENTINFO@@@std@@@3@$0A@@std@@@std@@@std@@QAEPAU_Node@?$_Tree_nod@V?$_Tmap_traits@KUtagEVENTINFO@@U?$less@K@std@@V?$allocator@U?$pair@$$CBKUtagEVENTINFO@@@std@@@3@$0A@@std@@@2@I@Z
_TEXT	SEGMENT PARA USE32 PUBLIC 'CODE'
_TEXT	ENDS
;	COMDAT ?_Dec@const_iterator@?$_Tree@V?$_Tmap_traits@KPAVCTManager@@U?$less@K@std@@V?$allocator@U?$pair@$$CBKPAVCTManager@@@std@@@3@$0A@@std@@@std@@QAEXXZ
_TEXT	SEGMENT PARA USE32 PUBLIC 'CODE'
_TEXT	ENDS
;	COMDAT ?_Inc@const_iterator@?$_Tree@V?$_Tmap_traits@KPAVCTManager@@U?$less@K@std@@V?$allocator@U?$pair@$$CBKPAVCTManager@@@std@@@3@$0A@@std@@@std@@QAEXXZ
_TEXT	SEGMENT PARA USE32 PUBLIC 'CODE'
_TEXT	ENDS
;	COMDAT ?_Inc@const_iterator@?$_Tree@V?$_Tmap_traits@KPAUtagTSVRTEMP@@U?$less@K@std@@V?$allocator@U?$pair@$$CBKPAUtagTSVRTEMP@@@std@@@3@$0A@@std@@@std@@QAEXXZ
_TEXT	SEGMENT PARA USE32 PUBLIC 'CODE'
_TEXT	ENDS
;	COMDAT ?max_size@?$allocator@UtagPATCHFILE@@@std@@QBEIXZ
_TEXT	SEGMENT PARA USE32 PUBLIC 'CODE'
_TEXT	ENDS
;	COMDAT ?_Dec@const_iterator@?$_Tree@V?$_Tmap_traits@KPAUtagBANINFO@@U?$less@K@std@@V?$allocator@U?$pair@$$CBKPAUtagBANINFO@@@std@@@3@$0A@@std@@@std@@QAEXXZ
_TEXT	SEGMENT PARA USE32 PUBLIC 'CODE'
_TEXT	ENDS
;	COMDAT ?_Inc@const_iterator@?$_Tree@V?$_Tmap_traits@KPAUtagBANINFO@@U?$less@K@std@@V?$allocator@U?$pair@$$CBKPAUtagBANINFO@@@std@@@3@$0A@@std@@@std@@QAEXXZ
_TEXT	SEGMENT PARA USE32 PUBLIC 'CODE'
_TEXT	ENDS
;	COMDAT ?_Dec@const_iterator@?$_Tree@V?$_Tmap_traits@KUtagEVENTINFO@@U?$less@K@std@@V?$allocator@U?$pair@$$CBKUtagEVENTINFO@@@std@@@3@$0A@@std@@@std@@QAEXXZ
_TEXT	SEGMENT PARA USE32 PUBLIC 'CODE'
_TEXT	ENDS
;	COMDAT ?_Inc@const_iterator@?$_Tree@V?$_Tmap_traits@KUtagEVENTINFO@@U?$less@K@std@@V?$allocator@U?$pair@$$CBKUtagEVENTINFO@@@std@@@3@$0A@@std@@@std@@QAEXXZ
_TEXT	SEGMENT PARA USE32 PUBLIC 'CODE'
_TEXT	ENDS
;	COMDAT ?max_size@?$allocator@UtagTCASHITEM@@@std@@QBEIXZ
_TEXT	SEGMENT PARA USE32 PUBLIC 'CODE'
_TEXT	ENDS
;	COMDAT ??0const_iterator@?$vector@V?$CStringT@DV?$StrTraitATL@DV?$ChTraitsCRT@D@ATL@@@ATL@@@ATL@@V?$allocator@V?$CStringT@DV?$StrTraitATL@DV?$ChTraitsCRT@D@ATL@@@ATL@@@ATL@@@std@@@std@@QAE@PAV?$CStringT@DV?$StrTraitATL@DV?$ChTraitsCRT@D@ATL@@@ATL@@@ATL@@@Z
_TEXT	SEGMENT PARA USE32 PUBLIC 'CODE'
_TEXT	ENDS
;	COMDAT ??Yiterator@?$vector@UtagPATCHFILE@@V?$allocator@UtagPATCHFILE@@@std@@@std@@QAEAAV012@H@Z
_TEXT	SEGMENT PARA USE32 PUBLIC 'CODE'
_TEXT	ENDS
;	COMDAT ??0const_iterator@?$vector@UtagPATCHFILE@@V?$allocator@UtagPATCHFILE@@@std@@@std@@QAE@PAUtagPATCHFILE@@@Z
_TEXT	SEGMENT PARA USE32 PUBLIC 'CODE'
_TEXT	ENDS
;	COMDAT ??Gconst_iterator@?$vector@UtagPATCHFILE@@V?$allocator@UtagPATCHFILE@@@std@@@std@@QBEHABV012@@Z
_TEXT	SEGMENT PARA USE32 PUBLIC 'CODE'
_TEXT	ENDS
;	COMDAT ??0const_iterator@?$vector@EV?$allocator@E@std@@@std@@QAE@PAE@Z
_TEXT	SEGMENT PARA USE32 PUBLIC 'CODE'
_TEXT	ENDS
;	COMDAT ??Gconst_iterator@?$vector@EV?$allocator@E@std@@@std@@QBEHABV012@@Z
_TEXT	SEGMENT PARA USE32 PUBLIC 'CODE'
_TEXT	ENDS
;	COMDAT ??Yiterator@?$vector@UtagTCASHITEM@@V?$allocator@UtagTCASHITEM@@@std@@@std@@QAEAAV012@H@Z
_TEXT	SEGMENT PARA USE32 PUBLIC 'CODE'
_TEXT	ENDS
;	COMDAT ??0const_iterator@?$vector@UtagTCASHITEM@@V?$allocator@UtagTCASHITEM@@@std@@@std@@QAE@PAUtagTCASHITEM@@@Z
_TEXT	SEGMENT PARA USE32 PUBLIC 'CODE'
_TEXT	ENDS
;	COMDAT ??Gconst_iterator@?$vector@UtagTCASHITEM@@V?$allocator@UtagTCASHITEM@@@std@@@std@@QBEHABV012@@Z
_TEXT	SEGMENT PARA USE32 PUBLIC 'CODE'
_TEXT	ENDS
;	COMDAT ??0_Node@?$_Tree_nod@V?$_Tmap_traits@KPAVCTManager@@U?$less@K@std@@V?$allocator@U?$pair@$$CBKPAVCTManager@@@std@@@3@$0A@@std@@@std@@QAE@PAU012@00ABU?$pair@$$CBKPAVCTManager@@@2@D@Z
_TEXT	SEGMENT PARA USE32 PUBLIC 'CODE'
_TEXT	ENDS
;	COMDAT ??0_Node@?$_Tree_nod@V?$_Tmap_traits@KPAUtagBANINFO@@U?$less@K@std@@V?$allocator@U?$pair@$$CBKPAUtagBANINFO@@@std@@@3@$0A@@std@@@std@@QAE@PAU012@00ABU?$pair@$$CBKPAUtagBANINFO@@@2@D@Z
_TEXT	SEGMENT PARA USE32 PUBLIC 'CODE'
_TEXT	ENDS
;	COMDAT ??0_Node@?$_Tree_nod@V?$_Tmap_traits@KUtagEVENTINFO@@U?$less@K@std@@V?$allocator@U?$pair@$$CBKUtagEVENTINFO@@@std@@@3@$0A@@std@@@std@@QAE@PAU012@00ABU?$pair@$$CBKUtagEVENTINFO@@@2@D@Z
_TEXT	SEGMENT PARA USE32 PUBLIC 'CODE'
_TEXT	ENDS
;	COMDAT ??0?$pair@$$CBKUtagEVENTINFO@@@std@@QAE@ABU01@@Z
_TEXT	SEGMENT PARA USE32 PUBLIC 'CODE'
_TEXT	ENDS
;	COMDAT ?_Parent@?$_Tree@V?$_Tmap_traits@KPAUtagTSVRTEMP@@U?$less@K@std@@V?$allocator@U?$pair@$$CBKPAUtagTSVRTEMP@@@std@@@3@$0A@@std@@@std@@KAAAPAU_Node@?$_Tree_nod@V?$_Tmap_traits@KPAUtagTSVRTEMP@@U?$less@K@std@@V?$allocator@U?$pair@$$CBKPAUtagTSVRTEMP@@@std@@@3@$0A@@std@@@2@PAU342@@Z
_TEXT	SEGMENT PARA USE32 PUBLIC 'CODE'
_TEXT	ENDS
;	COMDAT ?_Min@?$_Tree@V?$_Tmap_traits@KPAUtagTSVRTEMP@@U?$less@K@std@@V?$allocator@U?$pair@$$CBKPAUtagTSVRTEMP@@@std@@@3@$0A@@std@@@std@@KAPAU_Node@?$_Tree_nod@V?$_Tmap_traits@KPAUtagTSVRTEMP@@U?$less@K@std@@V?$allocator@U?$pair@$$CBKPAUtagTSVRTEMP@@@std@@@3@$0A@@std@@@2@PAU342@@Z
_TEXT	SEGMENT PARA USE32 PUBLIC 'CODE'
_TEXT	ENDS
;	COMDAT ?_Max@?$_Tree@V?$_Tmap_traits@KPAVCTManager@@U?$less@K@std@@V?$allocator@U?$pair@$$CBKPAVCTManager@@@std@@@3@$0A@@std@@@std@@KAPAU_Node@?$_Tree_nod@V?$_Tmap_traits@KPAVCTManager@@U?$less@K@std@@V?$allocator@U?$pair@$$CBKPAVCTManager@@@std@@@3@$0A@@std@@@2@PAU342@@Z
_TEXT	SEGMENT PARA USE32 PUBLIC 'CODE'
_TEXT	ENDS
;	COMDAT ?_Min@?$_Tree@V?$_Tmap_traits@KPAVCTManager@@U?$less@K@std@@V?$allocator@U?$pair@$$CBKPAVCTManager@@@std@@@3@$0A@@std@@@std@@KAPAU_Node@?$_Tree_nod@V?$_Tmap_traits@KPAVCTManager@@U?$less@K@std@@V?$allocator@U?$pair@$$CBKPAVCTManager@@@std@@@3@$0A@@std@@@2@PAU342@@Z
_TEXT	SEGMENT PARA USE32 PUBLIC 'CODE'
_TEXT	ENDS
;	COMDAT ?_Parent@?$_Tree@V?$_Tmap_traits@EPAUtagTMACHINE@@U?$less@E@std@@V?$allocator@U?$pair@$$CBEPAUtagTMACHINE@@@std@@@3@$0A@@std@@@std@@KAAAPAU_Node@?$_Tree_nod@V?$_Tmap_traits@EPAUtagTMACHINE@@U?$less@E@std@@V?$allocator@U?$pair@$$CBEPAUtagTMACHINE@@@std@@@3@$0A@@std@@@2@PAU342@@Z
_TEXT	SEGMENT PARA USE32 PUBLIC 'CODE'
_TEXT	ENDS
;	COMDAT ?Unlock@?$CComCritSecLock@VCComCriticalSection@ATL@@@ATL@@QAEXXZ
_TEXT	SEGMENT PARA USE32 PUBLIC 'CODE'
_TEXT	ENDS
;	COMDAT ??$_Uninit_fill_n@GIG@std@@YAXPAGIABGAAV?$allocator@G@0@U_Scalar_ptr_iterator_tag@0@@Z
_TEXT	SEGMENT PARA USE32 PUBLIC 'CODE'
_TEXT	ENDS
;	COMDAT ??$_Ptr_cat@PAUtagTCASHITEMSALE@@PAU1@@std@@YA?AU_Nonscalar_ptr_iterator_tag@0@AAPAUtagTCASHITEMSALE@@0@Z
_TEXT	SEGMENT PARA USE32 PUBLIC 'CODE'
_TEXT	ENDS
;	COMDAT ??$_Uninit_fill_n@PAUtagTCASHITEMSALE@@IU1@V?$allocator@UtagTCASHITEMSALE@@@std@@@std@@YAXPAUtagTCASHITEMSALE@@IABU1@AAV?$allocator@UtagTCASHITEMSALE@@@0@U_Nonscalar_ptr_iterator_tag@0@@Z
_TEXT	SEGMENT PARA USE32 PUBLIC 'CODE'
_TEXT	ENDS
;	COMDAT ??$_Ptr_cat@PAUtagMONREGEN@@PAU1@@std@@YA?AU_Nonscalar_ptr_iterator_tag@0@AAPAUtagMONREGEN@@0@Z
_TEXT	SEGMENT PARA USE32 PUBLIC 'CODE'
_TEXT	ENDS
;	COMDAT ??$_Uninit_fill_n@PAUtagMONREGEN@@IU1@V?$allocator@UtagMONREGEN@@@std@@@std@@YAXPAUtagMONREGEN@@IABU1@AAV?$allocator@UtagMONREGEN@@@0@U_Nonscalar_ptr_iterator_tag@0@@Z
_TEXT	SEGMENT PARA USE32 PUBLIC 'CODE'
_TEXT	ENDS
;	COMDAT ??$_Ptr_cat@PAUtagLOTTERY@@PAU1@@std@@YA?AU_Nonscalar_ptr_iterator_tag@0@AAPAUtagLOTTERY@@0@Z
_TEXT	SEGMENT PARA USE32 PUBLIC 'CODE'
_TEXT	ENDS
;	COMDAT ??$_Uninit_fill_n@PAUtagLOTTERY@@IU1@V?$allocator@UtagLOTTERY@@@std@@@std@@YAXPAUtagLOTTERY@@IABU1@AAV?$allocator@UtagLOTTERY@@@0@U_Nonscalar_ptr_iterator_tag@0@@Z
_TEXT	SEGMENT PARA USE32 PUBLIC 'CODE'
_TEXT	ENDS
;	COMDAT ??$_Destroy_range@GV?$allocator@G@std@@@std@@YAXPAG0AAV?$allocator@G@0@U_Scalar_ptr_iterator_tag@0@@Z
_TEXT	SEGMENT PARA USE32 PUBLIC 'CODE'
_TEXT	ENDS
;	COMDAT ??$_Uninitialized_copy@PAGPAGV?$allocator@G@std@@@std@@YAPAGPAG00AAV?$allocator@G@0@@Z
_TEXT	SEGMENT PARA USE32 PUBLIC 'CODE'
_TEXT	ENDS
;	COMDAT ??$_Copy_backward_opt@PAGPAG@std@@YAPAGPAG00U_Scalar_ptr_iterator_tag@0@@Z
_TEXT	SEGMENT PARA USE32 PUBLIC 'CODE'
_TEXT	ENDS
;	COMDAT ??$_Destroy_range@UtagTCASHITEMSALE@@V?$allocator@UtagTCASHITEMSALE@@@std@@@std@@YAXPAUtagTCASHITEMSALE@@0AAV?$allocator@UtagTCASHITEMSALE@@@0@U_Nonscalar_ptr_iterator_tag@0@@Z
_TEXT	SEGMENT PARA USE32 PUBLIC 'CODE'
_TEXT	ENDS
;	COMDAT ??$_Uninitialized_copy@PAUtagTCASHITEMSALE@@PAU1@V?$allocator@UtagTCASHITEMSALE@@@std@@@std@@YAPAUtagTCASHITEMSALE@@PAU1@00AAV?$allocator@UtagTCASHITEMSALE@@@0@@Z
_TEXT	SEGMENT PARA USE32 PUBLIC 'CODE'
_TEXT	ENDS
;	COMDAT ??$_Copy_backward_opt@PAUtagTCASHITEMSALE@@PAU1@@std@@YAPAUtagTCASHITEMSALE@@PAU1@00U_Nonscalar_ptr_iterator_tag@0@@Z
_TEXT	SEGMENT PARA USE32 PUBLIC 'CODE'
_TEXT	ENDS
;	COMDAT ??$_Destroy_range@UtagMONREGEN@@V?$allocator@UtagMONREGEN@@@std@@@std@@YAXPAUtagMONREGEN@@0AAV?$allocator@UtagMONREGEN@@@0@U_Nonscalar_ptr_iterator_tag@0@@Z
_TEXT	SEGMENT PARA USE32 PUBLIC 'CODE'
_TEXT	ENDS
;	COMDAT ??$_Uninitialized_copy@PAUtagMONREGEN@@PAU1@V?$allocator@UtagMONREGEN@@@std@@@std@@YAPAUtagMONREGEN@@PAU1@00AAV?$allocator@UtagMONREGEN@@@0@@Z
_TEXT	SEGMENT PARA USE32 PUBLIC 'CODE'
_TEXT	ENDS
;	COMDAT ??$_Copy_backward_opt@PAUtagMONREGEN@@PAU1@@std@@YAPAUtagMONREGEN@@PAU1@00U_Nonscalar_ptr_iterator_tag@0@@Z
_TEXT	SEGMENT PARA USE32 PUBLIC 'CODE'
_TEXT	ENDS
;	COMDAT ??$_Destroy_range@UtagLOTTERY@@V?$allocator@UtagLOTTERY@@@std@@@std@@YAXPAUtagLOTTERY@@0AAV?$allocator@UtagLOTTERY@@@0@U_Nonscalar_ptr_iterator_tag@0@@Z
_TEXT	SEGMENT PARA USE32 PUBLIC 'CODE'
_TEXT	ENDS
;	COMDAT ??$_Uninitialized_copy@PAUtagLOTTERY@@PAU1@V?$allocator@UtagLOTTERY@@@std@@@std@@YAPAUtagLOTTERY@@PAU1@00AAV?$allocator@UtagLOTTERY@@@0@@Z
_TEXT	SEGMENT PARA USE32 PUBLIC 'CODE'
_TEXT	ENDS
;	COMDAT ??$_Copy_backward_opt@PAUtagLOTTERY@@PAU1@@std@@YAPAUtagLOTTERY@@PAU1@00U_Nonscalar_ptr_iterator_tag@0@@Z
_TEXT	SEGMENT PARA USE32 PUBLIC 'CODE'
_TEXT	ENDS
;	COMDAT ??$_Ucopy@Vconst_iterator@?$vector@GV?$allocator@G@std@@@std@@@?$vector@GV?$allocator@G@std@@@std@@IAEPAGVconst_iterator@01@0PAG@Z
_TEXT	SEGMENT PARA USE32 PUBLIC 'CODE'
_TEXT	ENDS
;	COMDAT ??$_Ucopy@Vconst_iterator@?$vector@UtagTCASHITEMSALE@@V?$allocator@UtagTCASHITEMSALE@@@std@@@std@@@?$vector@UtagTCASHITEMSALE@@V?$allocator@UtagTCASHITEMSALE@@@std@@@std@@IAEPAUtagTCASHITEMSALE@@Vconst_iterator@01@0PAU2@@Z
_TEXT	SEGMENT PARA USE32 PUBLIC 'CODE'
_TEXT	ENDS
;	COMDAT ??$_Ucopy@Vconst_iterator@?$vector@UtagMONREGEN@@V?$allocator@UtagMONREGEN@@@std@@@std@@@?$vector@UtagMONREGEN@@V?$allocator@UtagMONREGEN@@@std@@@std@@IAEPAUtagMONREGEN@@Vconst_iterator@01@0PAU2@@Z
_TEXT	SEGMENT PARA USE32 PUBLIC 'CODE'
_TEXT	ENDS
;	COMDAT ??$_Ucopy@Vconst_iterator@?$vector@UtagLOTTERY@@V?$allocator@UtagLOTTERY@@@std@@@std@@@?$vector@UtagLOTTERY@@V?$allocator@UtagLOTTERY@@@std@@@std@@IAEPAUtagLOTTERY@@Vconst_iterator@01@0PAU2@@Z
_TEXT	SEGMENT PARA USE32 PUBLIC 'CODE'
_TEXT	ENDS
;	COMDAT ??$swap@D@std@@YAXAAD0@Z
_TEXT	SEGMENT PARA USE32 PUBLIC 'CODE'
_TEXT	ENDS
;	COMDAT ??$_Destroy@U_Node@?$_Tree_nod@V?$_Tmap_traits@KPAUtagBANINFO@@U?$less@K@std@@V?$allocator@U?$pair@$$CBKPAUtagBANINFO@@@std@@@3@$0A@@std@@@std@@@std@@YAXPAU_Node@?$_Tree_nod@V?$_Tmap_traits@KPAUtagBANINFO@@U?$less@K@std@@V?$allocator@U?$pair@$$CBKPAUtagBANINFO@@@std@@@3@$0A@@std@@@0@@Z
_TEXT	SEGMENT PARA USE32 PUBLIC 'CODE'
_TEXT	ENDS
;	COMDAT ??$_Destroy@U_Node@?$_Tree_nod@V?$_Tmap_traits@KUtagEVENTINFO@@U?$less@K@std@@V?$allocator@U?$pair@$$CBKUtagEVENTINFO@@@std@@@3@$0A@@std@@@std@@@std@@YAXPAU_Node@?$_Tree_nod@V?$_Tmap_traits@KUtagEVENTINFO@@U?$less@K@std@@V?$allocator@U?$pair@$$CBKUtagEVENTINFO@@@std@@@3@$0A@@std@@@0@@Z
_TEXT	SEGMENT PARA USE32 PUBLIC 'CODE'
_TEXT	ENDS
;	COMDAT ??$_Uninitialized_fill_n@PAUtagPATCHFILE@@IU1@V?$allocator@UtagPATCHFILE@@@std@@@std@@YAXPAUtagPATCHFILE@@IABU1@AAV?$allocator@UtagPATCHFILE@@@0@@Z
_TEXT	SEGMENT PARA USE32 PUBLIC 'CODE'
_TEXT	ENDS
;	COMDAT ??$_Uninitialized_fill_n@PAEIEV?$allocator@E@std@@@std@@YAXPAEIABEAAV?$allocator@E@0@@Z
_TEXT	SEGMENT PARA USE32 PUBLIC 'CODE'
_TEXT	ENDS
;	COMDAT ??$_Uninitialized_fill_n@PAUtagTCASHITEM@@IU1@V?$allocator@UtagTCASHITEM@@@std@@@std@@YAXPAUtagTCASHITEM@@IABU1@AAV?$allocator@UtagTCASHITEM@@@0@@Z
_TEXT	SEGMENT PARA USE32 PUBLIC 'CODE'
_TEXT	ENDS
;	COMDAT ??$_Allocate@E@std@@YAPAEIPAE@Z
_TEXT	SEGMENT PARA USE32 PUBLIC 'CODE'
_TEXT	ENDS
;	COMDAT ??$_Destroy_range@UtagPATCHFILE@@V?$allocator@UtagPATCHFILE@@@std@@@std@@YAXPAUtagPATCHFILE@@0AAV?$allocator@UtagPATCHFILE@@@0@@Z
_TEXT	SEGMENT PARA USE32 PUBLIC 'CODE'
_TEXT	ENDS
;	COMDAT ??$_Ucopy@PAUtagPATCHFILE@@@?$vector@UtagPATCHFILE@@V?$allocator@UtagPATCHFILE@@@std@@@std@@IAEPAUtagPATCHFILE@@PAU2@00@Z
_TEXT	SEGMENT PARA USE32 PUBLIC 'CODE'
_TEXT	ENDS
;	COMDAT ??$fill@PAUtagPATCHFILE@@U1@@std@@YAXPAUtagPATCHFILE@@0ABU1@@Z
_TEXT	SEGMENT PARA USE32 PUBLIC 'CODE'
_TEXT	ENDS
;	COMDAT ??$copy_backward@PAUtagPATCHFILE@@PAU1@@std@@YAPAUtagPATCHFILE@@PAU1@00@Z
_TEXT	SEGMENT PARA USE32 PUBLIC 'CODE'
_TEXT	ENDS
;	COMDAT ??$_Allocate@UtagPATCHFILE@@@std@@YAPAUtagPATCHFILE@@IPAU1@@Z
_TEXT	SEGMENT PARA USE32 PUBLIC 'CODE'
_TEXT	ENDS
;	COMDAT ??$_Destroy_range@EV?$allocator@E@std@@@std@@YAXPAE0AAV?$allocator@E@0@@Z
_TEXT	SEGMENT PARA USE32 PUBLIC 'CODE'
_TEXT	ENDS
;	COMDAT ??$_Ucopy@PAE@?$vector@EV?$allocator@E@std@@@std@@IAEPAEPAE00@Z
_TEXT	SEGMENT PARA USE32 PUBLIC 'CODE'
_TEXT	ENDS
;	COMDAT ??$fill@PAEE@std@@YAXPAE0ABE@Z
_TEXT	SEGMENT PARA USE32 PUBLIC 'CODE'
_TEXT	ENDS
;	COMDAT ??$copy_backward@PAEPAE@std@@YAPAEPAE00@Z
_TEXT	SEGMENT PARA USE32 PUBLIC 'CODE'
_TEXT	ENDS
;	COMDAT ??$_Destroy_range@UtagTCASHITEM@@V?$allocator@UtagTCASHITEM@@@std@@@std@@YAXPAUtagTCASHITEM@@0AAV?$allocator@UtagTCASHITEM@@@0@@Z
_TEXT	SEGMENT PARA USE32 PUBLIC 'CODE'
_TEXT	ENDS
;	COMDAT ??$_Ucopy@PAUtagTCASHITEM@@@?$vector@UtagTCASHITEM@@V?$allocator@UtagTCASHITEM@@@std@@@std@@IAEPAUtagTCASHITEM@@PAU2@00@Z
_TEXT	SEGMENT PARA USE32 PUBLIC 'CODE'
_TEXT	ENDS
;	COMDAT ??$fill@PAUtagTCASHITEM@@U1@@std@@YAXPAUtagTCASHITEM@@0ABU1@@Z
_TEXT	SEGMENT PARA USE32 PUBLIC 'CODE'
_TEXT	ENDS
;	COMDAT ??$copy_backward@PAUtagTCASHITEM@@PAU1@@std@@YAPAUtagTCASHITEM@@PAU1@00@Z
_TEXT	SEGMENT PARA USE32 PUBLIC 'CODE'
_TEXT	ENDS
;	COMDAT ??$_Allocate@UtagTCASHITEM@@@std@@YAPAUtagTCASHITEM@@IPAU1@@Z
_TEXT	SEGMENT PARA USE32 PUBLIC 'CODE'
_TEXT	ENDS
;	COMDAT ??$_Allocate@U_Node@?$_Tree_nod@V?$_Tmap_traits@KPAVCTManager@@U?$less@K@std@@V?$allocator@U?$pair@$$CBKPAVCTManager@@@std@@@3@$0A@@std@@@std@@@std@@YAPAU_Node@?$_Tree_nod@V?$_Tmap_traits@KPAVCTManager@@U?$less@K@std@@V?$allocator@U?$pair@$$CBKPAVCTManager@@@std@@@3@$0A@@std@@@0@IPAU120@@Z
_TEXT	SEGMENT PARA USE32 PUBLIC 'CODE'
_TEXT	ENDS
;	COMDAT ??$_Allocate@U_Node@?$_Tree_nod@V?$_Tmap_traits@KPAUtagBANINFO@@U?$less@K@std@@V?$allocator@U?$pair@$$CBKPAUtagBANINFO@@@std@@@3@$0A@@std@@@std@@@std@@YAPAU_Node@?$_Tree_nod@V?$_Tmap_traits@KPAUtagBANINFO@@U?$less@K@std@@V?$allocator@U?$pair@$$CBKPAUtagBANINFO@@@std@@@3@$0A@@std@@@0@IPAU120@@Z
_TEXT	SEGMENT PARA USE32 PUBLIC 'CODE'
_TEXT	ENDS
;	COMDAT ??$_Allocate@U_Node@?$_Tree_nod@V?$_Tmap_traits@KUtagEVENTINFO@@U?$less@K@std@@V?$allocator@U?$pair@$$CBKUtagEVENTINFO@@@std@@@3@$0A@@std@@@std@@@std@@YAPAU_Node@?$_Tree_nod@V?$_Tmap_traits@KUtagEVENTINFO@@U?$less@K@std@@V?$allocator@U?$pair@$$CBKUtagEVENTINFO@@@std@@@3@$0A@@std@@@0@IPAU120@@Z
_TEXT	SEGMENT PARA USE32 PUBLIC 'CODE'
_TEXT	ENDS
;	COMDAT ??_G_Node@?$_Tree_nod@V?$_Tmap_traits@KUtagEVENTINFO@@U?$less@K@std@@V?$allocator@U?$pair@$$CBKUtagEVENTINFO@@@std@@@3@$0A@@std@@@std@@QAEPAXI@Z
_TEXT	SEGMENT PARA USE32 PUBLIC 'CODE'
_TEXT	ENDS
;	COMDAT ??4tagPATCHFILE@@QAEAAU0@ABU0@@Z
_TEXT	SEGMENT PARA USE32 PUBLIC 'CODE'
_TEXT	ENDS
;	COMDAT ??4tagTCASHITEM@@QAEAAU0@ABU0@@Z
_TEXT	SEGMENT PARA USE32 PUBLIC 'CODE'
_TEXT	ENDS
;	COMDAT ??1_Node@?$_Tree_nod@V?$_Tmap_traits@KUtagEVENTINFO@@U?$less@K@std@@V?$allocator@U?$pair@$$CBKUtagEVENTINFO@@@std@@@3@$0A@@std@@@std@@QAE@XZ
_TEXT	SEGMENT PARA USE32 PUBLIC 'CODE'
_TEXT	ENDS
;	COMDAT ?construct@?$allocator@UtagTCASHITEMSALE@@@std@@QAEXPAUtagTCASHITEMSALE@@ABU3@@Z
_TEXT	SEGMENT PARA USE32 PUBLIC 'CODE'
_TEXT	ENDS
;	COMDAT ?destroy@?$allocator@UtagTCASHITEMSALE@@@std@@QAEXPAUtagTCASHITEMSALE@@@Z
_TEXT	SEGMENT PARA USE32 PUBLIC 'CODE'
_TEXT	ENDS
;	COMDAT ?construct@?$allocator@UtagMONREGEN@@@std@@QAEXPAUtagMONREGEN@@ABU3@@Z
_TEXT	SEGMENT PARA USE32 PUBLIC 'CODE'
_TEXT	ENDS
;	COMDAT ?destroy@?$allocator@UtagMONREGEN@@@std@@QAEXPAUtagMONREGEN@@@Z
_TEXT	SEGMENT PARA USE32 PUBLIC 'CODE'
_TEXT	ENDS
;	COMDAT ?construct@?$allocator@UtagLOTTERY@@@std@@QAEXPAUtagLOTTERY@@ABU3@@Z
_TEXT	SEGMENT PARA USE32 PUBLIC 'CODE'
_TEXT	ENDS
;	COMDAT ?destroy@?$allocator@UtagLOTTERY@@@std@@QAEXPAUtagLOTTERY@@@Z
_TEXT	SEGMENT PARA USE32 PUBLIC 'CODE'
_TEXT	ENDS
;	COMDAT ??$fill_n@PAGIG@std@@YAXPAGIABG@Z
_TEXT	SEGMENT PARA USE32 PUBLIC 'CODE'
_TEXT	ENDS
;	COMDAT ??$_Uninit_copy@GG@std@@YAPAGPAG00AAV?$allocator@G@0@U_Scalar_ptr_iterator_tag@0@@Z
_TEXT	SEGMENT PARA USE32 PUBLIC 'CODE'
_TEXT	ENDS
;	COMDAT ??$_Uninit_copy@PAUtagTCASHITEMSALE@@PAU1@V?$allocator@UtagTCASHITEMSALE@@@std@@@std@@YAPAUtagTCASHITEMSALE@@PAU1@00AAV?$allocator@UtagTCASHITEMSALE@@@0@U_Nonscalar_ptr_iterator_tag@0@@Z
_TEXT	SEGMENT PARA USE32 PUBLIC 'CODE'
_TEXT	ENDS
;	COMDAT ??$_Uninit_copy@PAUtagMONREGEN@@PAU1@V?$allocator@UtagMONREGEN@@@std@@@std@@YAPAUtagMONREGEN@@PAU1@00AAV?$allocator@UtagMONREGEN@@@0@U_Nonscalar_ptr_iterator_tag@0@@Z
_TEXT	SEGMENT PARA USE32 PUBLIC 'CODE'
_TEXT	ENDS
;	COMDAT ??$_Uninit_copy@PAUtagLOTTERY@@PAU1@V?$allocator@UtagLOTTERY@@@std@@@std@@YAPAUtagLOTTERY@@PAU1@00AAV?$allocator@UtagLOTTERY@@@0@U_Nonscalar_ptr_iterator_tag@0@@Z
_TEXT	SEGMENT PARA USE32 PUBLIC 'CODE'
_TEXT	ENDS
;	COMDAT ??$_Uninitialized_copy@Vconst_iterator@?$vector@GV?$allocator@G@std@@@std@@PAGV?$allocator@G@3@@std@@YAPAGVconst_iterator@?$vector@GV?$allocator@G@std@@@0@0PAGAAV?$allocator@G@0@@Z
_TEXT	SEGMENT PARA USE32 PUBLIC 'CODE'
_TEXT	ENDS
;	COMDAT ??$_Uninitialized_copy@Vconst_iterator@?$vector@UtagTCASHITEMSALE@@V?$allocator@UtagTCASHITEMSALE@@@std@@@std@@PAUtagTCASHITEMSALE@@V?$allocator@UtagTCASHITEMSALE@@@3@@std@@YAPAUtagTCASHITEMSALE@@Vconst_iterator@?$vector@UtagTCASHITEMSALE@@V?$allocator@UtagTCASHITEMSALE@@@std@@@0@0PAU1@AAV?$allocator@UtagTCASHITEMSALE@@@0@@Z
_TEXT	SEGMENT PARA USE32 PUBLIC 'CODE'
_TEXT	ENDS
;	COMDAT ??$_Uninitialized_copy@Vconst_iterator@?$vector@UtagMONREGEN@@V?$allocator@UtagMONREGEN@@@std@@@std@@PAUtagMONREGEN@@V?$allocator@UtagMONREGEN@@@3@@std@@YAPAUtagMONREGEN@@Vconst_iterator@?$vector@UtagMONREGEN@@V?$allocator@UtagMONREGEN@@@std@@@0@0PAU1@AAV?$allocator@UtagMONREGEN@@@0@@Z
_TEXT	SEGMENT PARA USE32 PUBLIC 'CODE'
_TEXT	ENDS
;	COMDAT ??$_Uninitialized_copy@Vconst_iterator@?$vector@UtagLOTTERY@@V?$allocator@UtagLOTTERY@@@std@@@std@@PAUtagLOTTERY@@V?$allocator@UtagLOTTERY@@@3@@std@@YAPAUtagLOTTERY@@Vconst_iterator@?$vector@UtagLOTTERY@@V?$allocator@UtagLOTTERY@@@std@@@0@0PAU1@AAV?$allocator@UtagLOTTERY@@@0@@Z
_TEXT	SEGMENT PARA USE32 PUBLIC 'CODE'
_TEXT	ENDS
;	COMDAT ??$_Ptr_cat@PAUtagPATCHFILE@@PAU1@@std@@YA?AU_Nonscalar_ptr_iterator_tag@0@AAPAUtagPATCHFILE@@0@Z
_TEXT	SEGMENT PARA USE32 PUBLIC 'CODE'
_TEXT	ENDS
;	COMDAT ??$_Uninit_fill_n@PAUtagPATCHFILE@@IU1@V?$allocator@UtagPATCHFILE@@@std@@@std@@YAXPAUtagPATCHFILE@@IABU1@AAV?$allocator@UtagPATCHFILE@@@0@U_Nonscalar_ptr_iterator_tag@0@@Z
_TEXT	SEGMENT PARA USE32 PUBLIC 'CODE'
_TEXT	ENDS
;	COMDAT ??$_Uninit_fill_n@EIE@std@@YAXPAEIABEAAV?$allocator@E@0@U_Scalar_ptr_iterator_tag@0@@Z
_TEXT	SEGMENT PARA USE32 PUBLIC 'CODE'
_TEXT	ENDS
;	COMDAT ??$_Ptr_cat@PAUtagTCASHITEM@@PAU1@@std@@YA?AU_Nonscalar_ptr_iterator_tag@0@AAPAUtagTCASHITEM@@0@Z
_TEXT	SEGMENT PARA USE32 PUBLIC 'CODE'
_TEXT	ENDS
;	COMDAT ??$_Uninit_fill_n@PAUtagTCASHITEM@@IU1@V?$allocator@UtagTCASHITEM@@@std@@@std@@YAXPAUtagTCASHITEM@@IABU1@AAV?$allocator@UtagTCASHITEM@@@0@U_Nonscalar_ptr_iterator_tag@0@@Z
_TEXT	SEGMENT PARA USE32 PUBLIC 'CODE'
_TEXT	ENDS
;	COMDAT ??$_Destroy_range@UtagPATCHFILE@@V?$allocator@UtagPATCHFILE@@@std@@@std@@YAXPAUtagPATCHFILE@@0AAV?$allocator@UtagPATCHFILE@@@0@U_Nonscalar_ptr_iterator_tag@0@@Z
_TEXT	SEGMENT PARA USE32 PUBLIC 'CODE'
_TEXT	ENDS
;	COMDAT ??$_Uninitialized_copy@PAUtagPATCHFILE@@PAU1@V?$allocator@UtagPATCHFILE@@@std@@@std@@YAPAUtagPATCHFILE@@PAU1@00AAV?$allocator@UtagPATCHFILE@@@0@@Z
_TEXT	SEGMENT PARA USE32 PUBLIC 'CODE'
_TEXT	ENDS
;	COMDAT ??$_Copy_backward_opt@PAUtagPATCHFILE@@PAU1@@std@@YAPAUtagPATCHFILE@@PAU1@00U_Nonscalar_ptr_iterator_tag@0@@Z
_TEXT	SEGMENT PARA USE32 PUBLIC 'CODE'
_TEXT	ENDS
;	COMDAT ??$_Destroy_range@EV?$allocator@E@std@@@std@@YAXPAE0AAV?$allocator@E@0@U_Scalar_ptr_iterator_tag@0@@Z
_TEXT	SEGMENT PARA USE32 PUBLIC 'CODE'
_TEXT	ENDS
;	COMDAT ??$_Uninitialized_copy@PAEPAEV?$allocator@E@std@@@std@@YAPAEPAE00AAV?$allocator@E@0@@Z
_TEXT	SEGMENT PARA USE32 PUBLIC 'CODE'
_TEXT	ENDS
;	COMDAT ??$_Copy_backward_opt@PAEPAE@std@@YAPAEPAE00U_Scalar_ptr_iterator_tag@0@@Z
_TEXT	SEGMENT PARA USE32 PUBLIC 'CODE'
_TEXT	ENDS
;	COMDAT ??$_Destroy_range@UtagTCASHITEM@@V?$allocator@UtagTCASHITEM@@@std@@@std@@YAXPAUtagTCASHITEM@@0AAV?$allocator@UtagTCASHITEM@@@0@U_Nonscalar_ptr_iterator_tag@0@@Z
_TEXT	SEGMENT PARA USE32 PUBLIC 'CODE'
_TEXT	ENDS
;	COMDAT ??$_Uninitialized_copy@PAUtagTCASHITEM@@PAU1@V?$allocator@UtagTCASHITEM@@@std@@@std@@YAPAUtagTCASHITEM@@PAU1@00AAV?$allocator@UtagTCASHITEM@@@0@@Z
_TEXT	SEGMENT PARA USE32 PUBLIC 'CODE'
_TEXT	ENDS
;	COMDAT ??$_Copy_backward_opt@PAUtagTCASHITEM@@PAU1@@std@@YAPAUtagTCASHITEM@@PAU1@00U_Nonscalar_ptr_iterator_tag@0@@Z
_TEXT	SEGMENT PARA USE32 PUBLIC 'CODE'
_TEXT	ENDS
;	COMDAT ??$_Construct@UtagTCASHITEMSALE@@U1@@std@@YAXPAUtagTCASHITEMSALE@@ABU1@@Z
_TEXT	SEGMENT PARA USE32 PUBLIC 'CODE'
_TEXT	ENDS
;	COMDAT ??$_Destroy@UtagTCASHITEMSALE@@@std@@YAXPAUtagTCASHITEMSALE@@@Z
_TEXT	SEGMENT PARA USE32 PUBLIC 'CODE'
_TEXT	ENDS
;	COMDAT ??$_Construct@UtagMONREGEN@@U1@@std@@YAXPAUtagMONREGEN@@ABU1@@Z
_TEXT	SEGMENT PARA USE32 PUBLIC 'CODE'
_TEXT	ENDS
;	COMDAT ??$_Destroy@UtagMONREGEN@@@std@@YAXPAUtagMONREGEN@@@Z
_TEXT	SEGMENT PARA USE32 PUBLIC 'CODE'
_TEXT	ENDS
;	COMDAT ??$_Construct@UtagLOTTERY@@U1@@std@@YAXPAUtagLOTTERY@@ABU1@@Z
_TEXT	SEGMENT PARA USE32 PUBLIC 'CODE'
_TEXT	ENDS
;	COMDAT ??$_Destroy@UtagLOTTERY@@@std@@YAXPAUtagLOTTERY@@@Z
_TEXT	SEGMENT PARA USE32 PUBLIC 'CODE'
_TEXT	ENDS
;	COMDAT ?construct@?$allocator@UtagPATCHFILE@@@std@@QAEXPAUtagPATCHFILE@@ABU3@@Z
_TEXT	SEGMENT PARA USE32 PUBLIC 'CODE'
_TEXT	ENDS
;	COMDAT ?destroy@?$allocator@UtagPATCHFILE@@@std@@QAEXPAUtagPATCHFILE@@@Z
_TEXT	SEGMENT PARA USE32 PUBLIC 'CODE'
_TEXT	ENDS
;	COMDAT ?construct@?$allocator@UtagTCASHITEM@@@std@@QAEXPAUtagTCASHITEM@@ABU3@@Z
_TEXT	SEGMENT PARA USE32 PUBLIC 'CODE'
_TEXT	ENDS
;	COMDAT ?destroy@?$allocator@UtagTCASHITEM@@@std@@QAEXPAUtagTCASHITEM@@@Z
_TEXT	SEGMENT PARA USE32 PUBLIC 'CODE'
_TEXT	ENDS
;	COMDAT ??$_Ptr_cat@Vconst_iterator@?$vector@GV?$allocator@G@std@@@std@@PAG@std@@YA?AU_Nonscalar_ptr_iterator_tag@0@AAVconst_iterator@?$vector@GV?$allocator@G@std@@@0@AAPAG@Z
_TEXT	SEGMENT PARA USE32 PUBLIC 'CODE'
_TEXT	ENDS
;	COMDAT ??$_Uninit_copy@Vconst_iterator@?$vector@GV?$allocator@G@std@@@std@@PAGV?$allocator@G@3@@std@@YAPAGVconst_iterator@?$vector@GV?$allocator@G@std@@@0@0PAGAAV?$allocator@G@0@U_Nonscalar_ptr_iterator_tag@0@@Z
_TEXT	SEGMENT PARA USE32 PUBLIC 'CODE'
_TEXT	ENDS
;	COMDAT ??$_Ptr_cat@Vconst_iterator@?$vector@UtagTCASHITEMSALE@@V?$allocator@UtagTCASHITEMSALE@@@std@@@std@@PAUtagTCASHITEMSALE@@@std@@YA?AU_Nonscalar_ptr_iterator_tag@0@AAVconst_iterator@?$vector@UtagTCASHITEMSALE@@V?$allocator@UtagTCASHITEMSALE@@@std@@@0@AAPAUtagTCASHITEMSALE@@@Z
_TEXT	SEGMENT PARA USE32 PUBLIC 'CODE'
_TEXT	ENDS
;	COMDAT ??$_Uninit_copy@Vconst_iterator@?$vector@UtagTCASHITEMSALE@@V?$allocator@UtagTCASHITEMSALE@@@std@@@std@@PAUtagTCASHITEMSALE@@V?$allocator@UtagTCASHITEMSALE@@@3@@std@@YAPAUtagTCASHITEMSALE@@Vconst_iterator@?$vector@UtagTCASHITEMSALE@@V?$allocator@UtagTCASHITEMSALE@@@std@@@0@0PAU1@AAV?$allocator@UtagTCASHITEMSALE@@@0@U_Nonscalar_ptr_iterator_tag@0@@Z
_TEXT	SEGMENT PARA USE32 PUBLIC 'CODE'
_TEXT	ENDS
;	COMDAT ??$_Ptr_cat@Vconst_iterator@?$vector@UtagMONREGEN@@V?$allocator@UtagMONREGEN@@@std@@@std@@PAUtagMONREGEN@@@std@@YA?AU_Nonscalar_ptr_iterator_tag@0@AAVconst_iterator@?$vector@UtagMONREGEN@@V?$allocator@UtagMONREGEN@@@std@@@0@AAPAUtagMONREGEN@@@Z
_TEXT	SEGMENT PARA USE32 PUBLIC 'CODE'
_TEXT	ENDS
;	COMDAT ??$_Uninit_copy@Vconst_iterator@?$vector@UtagMONREGEN@@V?$allocator@UtagMONREGEN@@@std@@@std@@PAUtagMONREGEN@@V?$allocator@UtagMONREGEN@@@3@@std@@YAPAUtagMONREGEN@@Vconst_iterator@?$vector@UtagMONREGEN@@V?$allocator@UtagMONREGEN@@@std@@@0@0PAU1@AAV?$allocator@UtagMONREGEN@@@0@U_Nonscalar_ptr_iterator_tag@0@@Z
_TEXT	SEGMENT PARA USE32 PUBLIC 'CODE'
_TEXT	ENDS
;	COMDAT ??$_Ptr_cat@Vconst_iterator@?$vector@UtagLOTTERY@@V?$allocator@UtagLOTTERY@@@std@@@std@@PAUtagLOTTERY@@@std@@YA?AU_Nonscalar_ptr_iterator_tag@0@AAVconst_iterator@?$vector@UtagLOTTERY@@V?$allocator@UtagLOTTERY@@@std@@@0@AAPAUtagLOTTERY@@@Z
_TEXT	SEGMENT PARA USE32 PUBLIC 'CODE'
_TEXT	ENDS
;	COMDAT ??$_Uninit_copy@Vconst_iterator@?$vector@UtagLOTTERY@@V?$allocator@UtagLOTTERY@@@std@@@std@@PAUtagLOTTERY@@V?$allocator@UtagLOTTERY@@@3@@std@@YAPAUtagLOTTERY@@Vconst_iterator@?$vector@UtagLOTTERY@@V?$allocator@UtagLOTTERY@@@std@@@0@0PAU1@AAV?$allocator@UtagLOTTERY@@@0@U_Nonscalar_ptr_iterator_tag@0@@Z
_TEXT	SEGMENT PARA USE32 PUBLIC 'CODE'
_TEXT	ENDS
;	COMDAT ??$fill_n@PAEIE@std@@YAXPAEIABE@Z
_TEXT	SEGMENT PARA USE32 PUBLIC 'CODE'
_TEXT	ENDS
;	COMDAT ??$_Uninit_copy@PAUtagPATCHFILE@@PAU1@V?$allocator@UtagPATCHFILE@@@std@@@std@@YAPAUtagPATCHFILE@@PAU1@00AAV?$allocator@UtagPATCHFILE@@@0@U_Nonscalar_ptr_iterator_tag@0@@Z
_TEXT	SEGMENT PARA USE32 PUBLIC 'CODE'
_TEXT	ENDS
;	COMDAT ??$_Uninit_copy@EE@std@@YAPAEPAE00AAV?$allocator@E@0@U_Scalar_ptr_iterator_tag@0@@Z
_TEXT	SEGMENT PARA USE32 PUBLIC 'CODE'
_TEXT	ENDS
;	COMDAT ??$_Uninit_copy@PAUtagTCASHITEM@@PAU1@V?$allocator@UtagTCASHITEM@@@std@@@std@@YAPAUtagTCASHITEM@@PAU1@00AAV?$allocator@UtagTCASHITEM@@@0@U_Nonscalar_ptr_iterator_tag@0@@Z
_TEXT	SEGMENT PARA USE32 PUBLIC 'CODE'
_TEXT	ENDS
;	COMDAT ??$_Construct@UtagPATCHFILE@@U1@@std@@YAXPAUtagPATCHFILE@@ABU1@@Z
_TEXT	SEGMENT PARA USE32 PUBLIC 'CODE'
_TEXT	ENDS
;	COMDAT ??$_Destroy@UtagPATCHFILE@@@std@@YAXPAUtagPATCHFILE@@@Z
_TEXT	SEGMENT PARA USE32 PUBLIC 'CODE'
_TEXT	ENDS
;	COMDAT ??$_Construct@UtagTCASHITEM@@U1@@std@@YAXPAUtagTCASHITEM@@ABU1@@Z
_TEXT	SEGMENT PARA USE32 PUBLIC 'CODE'
_TEXT	ENDS
;	COMDAT ??$_Destroy@UtagTCASHITEM@@@std@@YAXPAUtagTCASHITEM@@@Z
_TEXT	SEGMENT PARA USE32 PUBLIC 'CODE'
_TEXT	ENDS
;	COMDAT ??_GtagPATCHFILE@@QAEPAXI@Z
_TEXT	SEGMENT PARA USE32 PUBLIC 'CODE'
_TEXT	ENDS
;	COMDAT ??_GtagTCASHITEM@@QAEPAXI@Z
_TEXT	SEGMENT PARA USE32 PUBLIC 'CODE'
_TEXT	ENDS
;	COMDAT ?construct@?$allocator@G@std@@QAEXPAGABG@Z
_TEXT	SEGMENT PARA USE32 PUBLIC 'CODE'
_TEXT	ENDS
;	COMDAT ?destroy@?$allocator@G@std@@QAEXPAG@Z
_TEXT	SEGMENT PARA USE32 PUBLIC 'CODE'
_TEXT	ENDS
;	COMDAT ??Econst_iterator@?$vector@GV?$allocator@G@std@@@std@@QAEAAV012@XZ
_TEXT	SEGMENT PARA USE32 PUBLIC 'CODE'
_TEXT	ENDS
;	COMDAT ??9const_iterator@?$vector@GV?$allocator@G@std@@@std@@QBE_NABV012@@Z
_TEXT	SEGMENT PARA USE32 PUBLIC 'CODE'
_TEXT	ENDS
;	COMDAT ??Econst_iterator@?$vector@UtagTCASHITEMSALE@@V?$allocator@UtagTCASHITEMSALE@@@std@@@std@@QAEAAV012@XZ
_TEXT	SEGMENT PARA USE32 PUBLIC 'CODE'
_TEXT	ENDS
;	COMDAT ??9const_iterator@?$vector@UtagTCASHITEMSALE@@V?$allocator@UtagTCASHITEMSALE@@@std@@@std@@QBE_NABV012@@Z
_TEXT	SEGMENT PARA USE32 PUBLIC 'CODE'
_TEXT	ENDS
;	COMDAT ??Econst_iterator@?$vector@UtagMONREGEN@@V?$allocator@UtagMONREGEN@@@std@@@std@@QAEAAV012@XZ
_TEXT	SEGMENT PARA USE32 PUBLIC 'CODE'
_TEXT	ENDS
;	COMDAT ??9const_iterator@?$vector@UtagMONREGEN@@V?$allocator@UtagMONREGEN@@@std@@@std@@QBE_NABV012@@Z
_TEXT	SEGMENT PARA USE32 PUBLIC 'CODE'
_TEXT	ENDS
;	COMDAT ??Econst_iterator@?$vector@UtagLOTTERY@@V?$allocator@UtagLOTTERY@@@std@@@std@@QAEAAV012@XZ
_TEXT	SEGMENT PARA USE32 PUBLIC 'CODE'
_TEXT	ENDS
;	COMDAT ??9const_iterator@?$vector@UtagLOTTERY@@V?$allocator@UtagLOTTERY@@@std@@@std@@QBE_NABV012@@Z
_TEXT	SEGMENT PARA USE32 PUBLIC 'CODE'
_TEXT	ENDS
;	COMDAT ??8const_iterator@?$vector@GV?$allocator@G@std@@@std@@QBE_NABV012@@Z
_TEXT	SEGMENT PARA USE32 PUBLIC 'CODE'
_TEXT	ENDS
;	COMDAT ??8const_iterator@?$vector@UtagTCASHITEMSALE@@V?$allocator@UtagTCASHITEMSALE@@@std@@@std@@QBE_NABV012@@Z
_TEXT	SEGMENT PARA USE32 PUBLIC 'CODE'
_TEXT	ENDS
;	COMDAT ??8const_iterator@?$vector@UtagMONREGEN@@V?$allocator@UtagMONREGEN@@@std@@@std@@QBE_NABV012@@Z
_TEXT	SEGMENT PARA USE32 PUBLIC 'CODE'
_TEXT	ENDS
;	COMDAT ??8const_iterator@?$vector@UtagLOTTERY@@V?$allocator@UtagLOTTERY@@@std@@@std@@QBE_NABV012@@Z
_TEXT	SEGMENT PARA USE32 PUBLIC 'CODE'
_TEXT	ENDS
;	COMDAT ??$_Construct@GG@std@@YAXPAGABG@Z
_TEXT	SEGMENT PARA USE32 PUBLIC 'CODE'
_TEXT	ENDS
;	COMDAT ?GetGITPtr@CAtlModule@ATL@@UAEJPAPAUIGlobalInterfaceTable@@@Z
_TEXT	SEGMENT PARA USE32 PUBLIC 'CODE'
_TEXT	ENDS
;	COMDAT __GUID_00000146_0000_0000_c000_000000000046
CONST	SEGMENT DWORD USE32 PUBLIC 'CONST'
CONST	ENDS
;	COMDAT _CLSID_StdGlobalInterfaceTable
CONST	SEGMENT DWORD USE32 PUBLIC 'CONST'
CONST	ENDS
;	COMDAT ?GetLockCount@CAtlModule@ATL@@UAEJXZ
_TEXT	SEGMENT PARA USE32 PUBLIC 'CODE'
_TEXT	ENDS
;	COMDAT ?Lock@CAtlModule@ATL@@UAEJXZ
_TEXT	SEGMENT PARA USE32 PUBLIC 'CODE'
_TEXT	ENDS
;	COMDAT ?Increment@CComMultiThreadModel@ATL@@SGKPAJ@Z
_TEXT	SEGMENT PARA USE32 PUBLIC 'CODE'
_TEXT	ENDS
;	COMDAT ??$_Destroy@G@std@@YAXPAG@Z
_TEXT	SEGMENT PARA USE32 PUBLIC 'CODE'
_TEXT	ENDS
;	COMDAT ??Dconst_iterator@?$vector@UtagLOTTERY@@V?$allocator@UtagLOTTERY@@@std@@@std@@QBEABUtagLOTTERY@@XZ
_TEXT	SEGMENT PARA USE32 PUBLIC 'CODE'
_TEXT	ENDS
;	COMDAT ??Dconst_iterator@?$vector@UtagMONREGEN@@V?$allocator@UtagMONREGEN@@@std@@@std@@QBEABUtagMONREGEN@@XZ
_TEXT	SEGMENT PARA USE32 PUBLIC 'CODE'
_TEXT	ENDS
;	COMDAT ??Dconst_iterator@?$vector@UtagTCASHITEMSALE@@V?$allocator@UtagTCASHITEMSALE@@@std@@@std@@QBEABUtagTCASHITEMSALE@@XZ
_TEXT	SEGMENT PARA USE32 PUBLIC 'CODE'
_TEXT	ENDS
;	COMDAT ??Dconst_iterator@?$vector@GV?$allocator@G@std@@@std@@QBEABGXZ
_TEXT	SEGMENT PARA USE32 PUBLIC 'CODE'
_TEXT	ENDS
;	COMDAT ?_Ptr_cat@std@@YA?AU_Scalar_ptr_iterator_tag@1@PAE0@Z
_TEXT	SEGMENT PARA USE32 PUBLIC 'CODE'
_TEXT	ENDS
;	COMDAT ?_Ptr_cat@std@@YA?AU_Scalar_ptr_iterator_tag@1@PAG0@Z
_TEXT	SEGMENT PARA USE32 PUBLIC 'CODE'
_TEXT	ENDS
;	COMDAT ?_Psave@?$_Facetptr@V?$ctype@G@std@@@std@@2PBVfacet@locale@2@B
_DATA	SEGMENT DWORD USE32 PUBLIC 'DATA'
_DATA	ENDS
;	COMDAT ?_Psave@?$_Facetptr@V?$ctype@D@std@@@std@@2PBVfacet@locale@2@B
_DATA	SEGMENT DWORD USE32 PUBLIC 'DATA'
_DATA	ENDS
;	COMDAT ?Unlock@CComCriticalSection@ATL@@QAEJXZ
_TEXT	SEGMENT PARA USE32 PUBLIC 'CODE'
_TEXT	ENDS
;	COMDAT ?SetLength@?$CSimpleStringT@D$0A@@ATL@@AAEXH@Z
_TEXT	SEGMENT PARA USE32 PUBLIC 'CODE'
_TEXT	ENDS
;	COMDAT ?ThrowMemoryException@?$CSimpleStringT@D$0A@@ATL@@KAXXZ
_TEXT	SEGMENT PARA USE32 PUBLIC 'CODE'
_TEXT	ENDS
;	COMDAT ??_C@_0BD@OLBABOEK@vector?$DMT?$DO?5too?5long?$AA@
CONST	SEGMENT DWORD USE32 PUBLIC 'CONST'
CONST	ENDS
;	COMDAT ??3@YAXPAX0@Z
_TEXT	SEGMENT PARA USE32 PUBLIC 'CODE'
_TEXT	ENDS
;	COMDAT ??2@YAPAXIPAX@Z
_TEXT	SEGMENT PARA USE32 PUBLIC 'CODE'
_TEXT	ENDS
;	COMDAT __TI3?AVlength_error@std@@
xdata$x	SEGMENT DWORD USE32 PUBLIC 'CONST'
xdata$x	ENDS
;	COMDAT ??1length_error@std@@UAE@XZ
_TEXT	SEGMENT PARA USE32 PUBLIC 'CODE'
_TEXT	ENDS
;	COMDAT ??_7length_error@std@@6B@
CONST	SEGMENT DWORD USE32 PUBLIC 'CONST'
CONST	ENDS
;	COMDAT ??_Glength_error@std@@UAEPAXI@Z
_TEXT	SEGMENT PARA USE32 PUBLIC 'CODE'
_TEXT	ENDS
;	COMDAT ?what@logic_error@std@@UBEPBDXZ
_TEXT	SEGMENT PARA USE32 PUBLIC 'CODE'
_TEXT	ENDS
;	COMDAT ?c_str@?$basic_string@DU?$char_traits@D@std@@V?$allocator@D@2@@std@@QBEPBDXZ
_TEXT	SEGMENT PARA USE32 PUBLIC 'CODE'
_TEXT	ENDS
;	COMDAT ?_Myptr@?$basic_string@DU?$char_traits@D@std@@V?$allocator@D@2@@std@@QBEPBDXZ
_TEXT	SEGMENT PARA USE32 PUBLIC 'CODE'
_TEXT	ENDS
;	COMDAT __CTA3?AVlength_error@std@@
xdata$x	SEGMENT DWORD USE32 PUBLIC 'CONST'
xdata$x	ENDS
;	COMDAT __CT??_R0?AVlength_error@std@@@8??0length_error@std@@QAE@ABV01@@Z40
xdata$x	SEGMENT DWORD USE32 PUBLIC 'CONST'
xdata$x	ENDS
;	COMDAT ??_R0?AVlength_error@std@@@8
_DATA	SEGMENT DWORD USE32 PUBLIC 'DATA'
_DATA	ENDS
;	COMDAT ??0length_error@std@@QAE@ABV01@@Z
_TEXT	SEGMENT PARA USE32 PUBLIC 'CODE'
_TEXT	ENDS
;	COMDAT ??0length_error@std@@QAE@ABV?$basic_string@DU?$char_traits@D@std@@V?$allocator@D@2@@1@@Z
_TEXT	SEGMENT PARA USE32 PUBLIC 'CODE'
_TEXT	ENDS
;	COMDAT ??0logic_error@std@@QAE@ABV?$basic_string@DU?$char_traits@D@std@@V?$allocator@D@2@@1@@Z
_TEXT	SEGMENT PARA USE32 PUBLIC 'CODE'
_TEXT	ENDS
;	COMDAT ??_7logic_error@std@@6B@
CONST	SEGMENT DWORD USE32 PUBLIC 'CONST'
CONST	ENDS
;	COMDAT ??_Glogic_error@std@@UAEPAXI@Z
_TEXT	SEGMENT PARA USE32 PUBLIC 'CODE'
_TEXT	ENDS
;	COMDAT ??0?$basic_string@DU?$char_traits@D@std@@V?$allocator@D@2@@std@@QAE@ABV01@@Z
_TEXT	SEGMENT PARA USE32 PUBLIC 'CODE'
_TEXT	ENDS
;	COMDAT ??0?$_String_val@DV?$allocator@D@std@@@std@@IAE@V?$allocator@D@1@@Z
_TEXT	SEGMENT PARA USE32 PUBLIC 'CODE'
_TEXT	ENDS
;	COMDAT ??0?$allocator@D@std@@QAE@ABV01@@Z
_TEXT	SEGMENT PARA USE32 PUBLIC 'CODE'
_TEXT	ENDS
;	COMDAT ?_Tidy@?$basic_string@DU?$char_traits@D@std@@V?$allocator@D@2@@std@@IAEX_NI@Z
_TEXT	SEGMENT PARA USE32 PUBLIC 'CODE'
_TEXT	ENDS
;	COMDAT ?copy@?$char_traits@D@std@@SAPADPADPBDI@Z
_TEXT	SEGMENT PARA USE32 PUBLIC 'CODE'
_TEXT	ENDS
;	COMDAT ?deallocate@?$allocator@D@std@@QAEXPADI@Z
_TEXT	SEGMENT PARA USE32 PUBLIC 'CODE'
_TEXT	ENDS
;	COMDAT ?_Eos@?$basic_string@DU?$char_traits@D@std@@V?$allocator@D@2@@std@@IAEXI@Z
_TEXT	SEGMENT PARA USE32 PUBLIC 'CODE'
_TEXT	ENDS
;	COMDAT ?assign@?$char_traits@D@std@@SAXAADABD@Z
_TEXT	SEGMENT PARA USE32 PUBLIC 'CODE'
_TEXT	ENDS
;	COMDAT ?_Myptr@?$basic_string@DU?$char_traits@D@std@@V?$allocator@D@2@@std@@QAEPADXZ
_TEXT	SEGMENT PARA USE32 PUBLIC 'CODE'
_TEXT	ENDS
;	COMDAT ?assign@?$basic_string@DU?$char_traits@D@std@@V?$allocator@D@2@@std@@QAEAAV12@ABV12@II@Z
_TEXT	SEGMENT PARA USE32 PUBLIC 'CODE'
_TEXT	ENDS
;	COMDAT ?size@?$basic_string@DU?$char_traits@D@std@@V?$allocator@D@2@@std@@QBEIXZ
_TEXT	SEGMENT PARA USE32 PUBLIC 'CODE'
_TEXT	ENDS
;	COMDAT ?erase@?$basic_string@DU?$char_traits@D@std@@V?$allocator@D@2@@std@@QAEAAV12@II@Z
_TEXT	SEGMENT PARA USE32 PUBLIC 'CODE'
_TEXT	ENDS
;	COMDAT ?move@?$char_traits@D@std@@SAPADPADPBDI@Z
_TEXT	SEGMENT PARA USE32 PUBLIC 'CODE'
_TEXT	ENDS
;	COMDAT ?_Grow@?$basic_string@DU?$char_traits@D@std@@V?$allocator@D@2@@std@@IAE_NI_N@Z
_TEXT	SEGMENT PARA USE32 PUBLIC 'CODE'
_TEXT	ENDS
;	COMDAT ?max_size@?$basic_string@DU?$char_traits@D@std@@V?$allocator@D@2@@std@@QBEIXZ
_TEXT	SEGMENT PARA USE32 PUBLIC 'CODE'
_TEXT	ENDS
;	COMDAT ?max_size@?$allocator@D@std@@QBEIXZ
_TEXT	SEGMENT PARA USE32 PUBLIC 'CODE'
_TEXT	ENDS
;	COMDAT ?_Copy@?$basic_string@DU?$char_traits@D@std@@V?$allocator@D@2@@std@@IAEXII@Z
_TEXT	SEGMENT PARA USE32 PUBLIC 'CODE'
_TEXT	ENDS
;	COMDAT ?allocate@?$allocator@D@std@@QAEPADI@Z
_TEXT	SEGMENT PARA USE32 PUBLIC 'CODE'
_TEXT	ENDS
;	COMDAT ??$_Allocate@D@std@@YAPADIPAD@Z
_TEXT	SEGMENT PARA USE32 PUBLIC 'CODE'
_TEXT	ENDS
;	COMDAT ?npos@?$basic_string@DU?$char_traits@D@std@@V?$allocator@D@2@@std@@2IB
CONST	SEGMENT DWORD USE32 PUBLIC 'CONST'
CONST	ENDS
;	COMDAT ?allocate@?$allocator@UtagLOTTERY@@@std@@QAEPAUtagLOTTERY@@I@Z
_TEXT	SEGMENT PARA USE32 PUBLIC 'CODE'
_TEXT	ENDS
;	COMDAT ??$_Allocate@UtagLOTTERY@@@std@@YAPAUtagLOTTERY@@IPAU1@@Z
_TEXT	SEGMENT PARA USE32 PUBLIC 'CODE'
_TEXT	ENDS
;	COMDAT ?_Xlen@?$vector@UtagLOTTERY@@V?$allocator@UtagLOTTERY@@@std@@@std@@IBEXXZ
_TEXT	SEGMENT PARA USE32 PUBLIC 'CODE'
_TEXT	ENDS
;	COMDAT ?max_size@?$vector@UtagLOTTERY@@V?$allocator@UtagLOTTERY@@@std@@@std@@QBEIXZ
_TEXT	SEGMENT PARA USE32 PUBLIC 'CODE'
_TEXT	ENDS
;	COMDAT ?max_size@?$allocator@UtagLOTTERY@@@std@@QBEIXZ
_TEXT	SEGMENT PARA USE32 PUBLIC 'CODE'
_TEXT	ENDS
;	COMDAT ??0const_iterator@?$vector@UtagLOTTERY@@V?$allocator@UtagLOTTERY@@@std@@@std@@QAE@PAUtagLOTTERY@@@Z
_TEXT	SEGMENT PARA USE32 PUBLIC 'CODE'
_TEXT	ENDS
;	COMDAT ?allocate@?$allocator@UtagMONREGEN@@@std@@QAEPAUtagMONREGEN@@I@Z
_TEXT	SEGMENT PARA USE32 PUBLIC 'CODE'
_TEXT	ENDS
;	COMDAT ??$_Allocate@UtagMONREGEN@@@std@@YAPAUtagMONREGEN@@IPAU1@@Z
_TEXT	SEGMENT PARA USE32 PUBLIC 'CODE'
_TEXT	ENDS
;	COMDAT ?_Xlen@?$vector@UtagMONREGEN@@V?$allocator@UtagMONREGEN@@@std@@@std@@IBEXXZ
_TEXT	SEGMENT PARA USE32 PUBLIC 'CODE'
_TEXT	ENDS
;	COMDAT ?max_size@?$vector@UtagMONREGEN@@V?$allocator@UtagMONREGEN@@@std@@@std@@QBEIXZ
_TEXT	SEGMENT PARA USE32 PUBLIC 'CODE'
_TEXT	ENDS
;	COMDAT ?max_size@?$allocator@UtagMONREGEN@@@std@@QBEIXZ
_TEXT	SEGMENT PARA USE32 PUBLIC 'CODE'
_TEXT	ENDS
;	COMDAT ??0const_iterator@?$vector@UtagMONREGEN@@V?$allocator@UtagMONREGEN@@@std@@@std@@QAE@PAUtagMONREGEN@@@Z
_TEXT	SEGMENT PARA USE32 PUBLIC 'CODE'
_TEXT	ENDS
;	COMDAT ?allocate@?$allocator@UtagTCASHITEMSALE@@@std@@QAEPAUtagTCASHITEMSALE@@I@Z
_TEXT	SEGMENT PARA USE32 PUBLIC 'CODE'
_TEXT	ENDS
;	COMDAT ??$_Allocate@UtagTCASHITEMSALE@@@std@@YAPAUtagTCASHITEMSALE@@IPAU1@@Z
_TEXT	SEGMENT PARA USE32 PUBLIC 'CODE'
_TEXT	ENDS
;	COMDAT ?_Xlen@?$vector@UtagTCASHITEMSALE@@V?$allocator@UtagTCASHITEMSALE@@@std@@@std@@IBEXXZ
_TEXT	SEGMENT PARA USE32 PUBLIC 'CODE'
_TEXT	ENDS
;	COMDAT ?max_size@?$vector@UtagTCASHITEMSALE@@V?$allocator@UtagTCASHITEMSALE@@@std@@@std@@QBEIXZ
_TEXT	SEGMENT PARA USE32 PUBLIC 'CODE'
_TEXT	ENDS
;	COMDAT ?max_size@?$allocator@UtagTCASHITEMSALE@@@std@@QBEIXZ
_TEXT	SEGMENT PARA USE32 PUBLIC 'CODE'
_TEXT	ENDS
;	COMDAT ??0const_iterator@?$vector@UtagTCASHITEMSALE@@V?$allocator@UtagTCASHITEMSALE@@@std@@@std@@QAE@PAUtagTCASHITEMSALE@@@Z
_TEXT	SEGMENT PARA USE32 PUBLIC 'CODE'
_TEXT	ENDS
;	COMDAT ?allocate@?$allocator@G@std@@QAEPAGI@Z
_TEXT	SEGMENT PARA USE32 PUBLIC 'CODE'
_TEXT	ENDS
;	COMDAT ??$_Allocate@G@std@@YAPAGIPAG@Z
_TEXT	SEGMENT PARA USE32 PUBLIC 'CODE'
_TEXT	ENDS
;	COMDAT ?_Xlen@?$vector@GV?$allocator@G@std@@@std@@IBEXXZ
_TEXT	SEGMENT PARA USE32 PUBLIC 'CODE'
_TEXT	ENDS
;	COMDAT ?max_size@?$vector@GV?$allocator@G@std@@@std@@QBEIXZ
_TEXT	SEGMENT PARA USE32 PUBLIC 'CODE'
_TEXT	ENDS
;	COMDAT ?max_size@?$allocator@G@std@@QBEIXZ
_TEXT	SEGMENT PARA USE32 PUBLIC 'CODE'
_TEXT	ENDS
;	COMDAT ??0const_iterator@?$vector@GV?$allocator@G@std@@@std@@QAE@PAG@Z
_TEXT	SEGMENT PARA USE32 PUBLIC 'CODE'
_TEXT	ENDS
;	COMDAT ?CopyChars@?$CSimpleStringT@D$0A@@ATL@@SAXPADPBDH@Z
_TEXT	SEGMENT PARA USE32 PUBLIC 'CODE'
_TEXT	ENDS
;	COMDAT ?Attach@?$CSimpleStringT@D$0A@@ATL@@AAEXPAUCStringData@2@@Z
_TEXT	SEGMENT PARA USE32 PUBLIC 'CODE'
_TEXT	ENDS
;	COMDAT ?data@CStringData@ATL@@QAEPAXXZ
_TEXT	SEGMENT PARA USE32 PUBLIC 'CODE'
_TEXT	ENDS
;	COMDAT ?Release@CStringData@ATL@@QAEXXZ
_TEXT	SEGMENT PARA USE32 PUBLIC 'CODE'
_TEXT	ENDS
;	COMDAT ?CloneData@?$CSimpleStringT@D$0A@@ATL@@CAPAUCStringData@2@PAU32@@Z
_TEXT	SEGMENT PARA USE32 PUBLIC 'CODE'
_TEXT	ENDS
;	COMDAT ?AddRef@CStringData@ATL@@QAEXXZ
_TEXT	SEGMENT PARA USE32 PUBLIC 'CODE'
_TEXT	ENDS
;	COMDAT ?SetString@?$CSimpleStringT@D$0A@@ATL@@QAEXPBDH@Z
_TEXT	SEGMENT PARA USE32 PUBLIC 'CODE'
_TEXT	ENDS
;	COMDAT ?Empty@?$CSimpleStringT@D$0A@@ATL@@QAEXXZ
_TEXT	SEGMENT PARA USE32 PUBLIC 'CODE'
_TEXT	ENDS
;	COMDAT ?CopyCharsOverlapped@?$CSimpleStringT@D$0A@@ATL@@SAXPADPBDH@Z
_TEXT	SEGMENT PARA USE32 PUBLIC 'CODE'
_TEXT	ENDS
;	COMDAT ?IsLocked@CStringData@ATL@@QBE_NXZ
_TEXT	SEGMENT PARA USE32 PUBLIC 'CODE'
_TEXT	ENDS
;	COMDAT ?GetData@?$CSimpleStringT@D$0A@@ATL@@ABEPAUCStringData@2@XZ
_TEXT	SEGMENT PARA USE32 PUBLIC 'CODE'
_TEXT	ENDS
;	COMDAT ?ReleaseBufferSetLength@?$CSimpleStringT@D$0A@@ATL@@QAEXH@Z
_TEXT	SEGMENT PARA USE32 PUBLIC 'CODE'
_TEXT	ENDS
;	COMDAT ?Format@?$ChTraitsCRT@D@ATL@@SAHPADPBD0@Z
_TEXT	SEGMENT PARA USE32 PUBLIC 'CODE'
_TEXT	ENDS
;	COMDAT ?GetBuffer@?$CSimpleStringT@D$0A@@ATL@@QAEPADH@Z
_TEXT	SEGMENT PARA USE32 PUBLIC 'CODE'
_TEXT	ENDS
;	COMDAT ?PrepareWrite@?$CSimpleStringT@D$0A@@ATL@@AAEPADH@Z
_TEXT	SEGMENT PARA USE32 PUBLIC 'CODE'
_TEXT	ENDS
;	COMDAT ?PrepareWrite2@?$CSimpleStringT@D$0A@@ATL@@AAEXH@Z
_TEXT	SEGMENT PARA USE32 PUBLIC 'CODE'
_TEXT	ENDS
;	COMDAT ?IsShared@CStringData@ATL@@QBE_NXZ
_TEXT	SEGMENT PARA USE32 PUBLIC 'CODE'
_TEXT	ENDS
;	COMDAT ?Fork@?$CSimpleStringT@D$0A@@ATL@@AAEXH@Z
_TEXT	SEGMENT PARA USE32 PUBLIC 'CODE'
_TEXT	ENDS
;	COMDAT ?Reallocate@?$CSimpleStringT@D$0A@@ATL@@AAEXH@Z
_TEXT	SEGMENT PARA USE32 PUBLIC 'CODE'
_TEXT	ENDS
;	COMDAT ?GetFormattedLength@?$ChTraitsCRT@D@ATL@@SAHPBDPAD@Z
_TEXT	SEGMENT PARA USE32 PUBLIC 'CODE'
_TEXT	ENDS
;	COMDAT ??1?$CSimpleStringT@D$0A@@ATL@@QAE@XZ
_TEXT	SEGMENT PARA USE32 PUBLIC 'CODE'
_TEXT	ENDS
;	COMDAT ??0?$CSimpleStringT@D$0A@@ATL@@QAE@PAUIAtlStringMgr@1@@Z
_TEXT	SEGMENT PARA USE32 PUBLIC 'CODE'
_TEXT	ENDS
;	COMDAT ??_7out_of_range@std@@6B@
CONST	SEGMENT DWORD USE32 PUBLIC 'CONST'
CONST	ENDS
;	COMDAT ??_Gout_of_range@std@@UAEPAXI@Z
_TEXT	SEGMENT PARA USE32 PUBLIC 'CODE'
_TEXT	ENDS
;	COMDAT ??1logic_error@std@@UAE@XZ
_TEXT	SEGMENT PARA USE32 PUBLIC 'CODE'
_TEXT	ENDS
;	COMDAT ??0logic_error@std@@QAE@ABV01@@Z
_TEXT	SEGMENT PARA USE32 PUBLIC 'CODE'
_TEXT	ENDS
;	COMDAT ??1CAtlModule@ATL@@UAE@XZ
_TEXT	SEGMENT PARA USE32 PUBLIC 'CODE'
_TEXT	ENDS
;	COMDAT __CTA3?AVout_of_range@std@@
xdata$x	SEGMENT DWORD USE32 PUBLIC 'CONST'
xdata$x	ENDS
;	COMDAT ??1out_of_range@std@@UAE@XZ
_TEXT	SEGMENT PARA USE32 PUBLIC 'CODE'
_TEXT	ENDS
;	COMDAT __CT??_R0?AVexception@@@8??0exception@@QAE@ABV0@@Z12
xdata$x	SEGMENT DWORD USE32 PUBLIC 'CONST'
xdata$x	ENDS
;	COMDAT ??_R0?AVexception@@@8
_DATA	SEGMENT DWORD USE32 PUBLIC 'DATA'
_DATA	ENDS
;	COMDAT __CT??_R0?AVlogic_error@std@@@8??0logic_error@std@@QAE@ABV01@@Z40
xdata$x	SEGMENT DWORD USE32 PUBLIC 'CONST'
xdata$x	ENDS
;	COMDAT ??_R0?AVlogic_error@std@@@8
_DATA	SEGMENT DWORD USE32 PUBLIC 'DATA'
_DATA	ENDS
;	COMDAT __CT??_R0?AVout_of_range@std@@@8??0out_of_range@std@@QAE@ABV01@@Z40
xdata$x	SEGMENT DWORD USE32 PUBLIC 'CONST'
xdata$x	ENDS
;	COMDAT ??_R0?AVout_of_range@std@@@8
_DATA	SEGMENT DWORD USE32 PUBLIC 'DATA'
_DATA	ENDS
;	COMDAT __TI3?AVout_of_range@std@@
xdata$x	SEGMENT DWORD USE32 PUBLIC 'CONST'
xdata$x	ENDS
;	COMDAT ??0out_of_range@std@@QAE@ABV?$basic_string@DU?$char_traits@D@std@@V?$allocator@D@2@@1@@Z
_TEXT	SEGMENT PARA USE32 PUBLIC 'CODE'
_TEXT	ENDS
;	COMDAT ?_pPerfUnRegFunc@ATL@@3P6AJXZA
_DATA	SEGMENT DWORD USE32 PUBLIC 'DATA'
_DATA	ENDS
;	COMDAT ?_pPerfRegFunc@ATL@@3P6AJPAUHINSTANCE__@@@ZA
_DATA	SEGMENT DWORD USE32 PUBLIC 'DATA'
_DATA	ENDS
;	COMDAT ?Decrement@CComMultiThreadModel@ATL@@SGKPAJ@Z
_TEXT	SEGMENT PARA USE32 PUBLIC 'CODE'
_TEXT	ENDS
;	COMDAT ?Term@CAtlModule@ATL@@QAEXXZ
_TEXT	SEGMENT PARA USE32 PUBLIC 'CODE'
_TEXT	ENDS
;	COMDAT ?AtlCallTermFunc@ATL@@YGXPAU_ATL_MODULE70@1@@Z
_TEXT	SEGMENT PARA USE32 PUBLIC 'CODE'
_TEXT	ENDS
;	COMDAT ?_AtlRaiseException@ATL@@YAXKK@Z
_TEXT	SEGMENT PARA USE32 PUBLIC 'CODE'
_TEXT	ENDS
;	COMDAT ?Term@CComCriticalSection@ATL@@QAEJXZ
_TEXT	SEGMENT PARA USE32 PUBLIC 'CODE'
_TEXT	ENDS
;	COMDAT ?Unlock@CAtlModule@ATL@@UAEJXZ
_TEXT	SEGMENT PARA USE32 PUBLIC 'CODE'
_TEXT	ENDS
;	COMDAT ?_Tidy@?$vector@UtagLOTTERY@@V?$allocator@UtagLOTTERY@@@std@@@std@@IAEXXZ
_TEXT	SEGMENT PARA USE32 PUBLIC 'CODE'
_TEXT	ENDS
;	COMDAT ?_Destroy@?$vector@UtagLOTTERY@@V?$allocator@UtagLOTTERY@@@std@@@std@@IAEXPAUtagLOTTERY@@0@Z
_TEXT	SEGMENT PARA USE32 PUBLIC 'CODE'
_TEXT	ENDS
;	COMDAT ??$_Destroy_range@UtagLOTTERY@@V?$allocator@UtagLOTTERY@@@std@@@std@@YAXPAUtagLOTTERY@@0AAV?$allocator@UtagLOTTERY@@@0@@Z
_TEXT	SEGMENT PARA USE32 PUBLIC 'CODE'
_TEXT	ENDS
;	COMDAT ?deallocate@?$allocator@UtagLOTTERY@@@std@@QAEXPAUtagLOTTERY@@I@Z
_TEXT	SEGMENT PARA USE32 PUBLIC 'CODE'
_TEXT	ENDS
;	COMDAT ?size@?$vector@UtagLOTTERY@@V?$allocator@UtagLOTTERY@@@std@@@std@@QBEIXZ
_TEXT	SEGMENT PARA USE32 PUBLIC 'CODE'
_TEXT	ENDS
;	COMDAT ?_Tidy@?$vector@UtagMONREGEN@@V?$allocator@UtagMONREGEN@@@std@@@std@@IAEXXZ
_TEXT	SEGMENT PARA USE32 PUBLIC 'CODE'
_TEXT	ENDS
;	COMDAT ?_Destroy@?$vector@UtagMONREGEN@@V?$allocator@UtagMONREGEN@@@std@@@std@@IAEXPAUtagMONREGEN@@0@Z
_TEXT	SEGMENT PARA USE32 PUBLIC 'CODE'
_TEXT	ENDS
;	COMDAT ??$_Destroy_range@UtagMONREGEN@@V?$allocator@UtagMONREGEN@@@std@@@std@@YAXPAUtagMONREGEN@@0AAV?$allocator@UtagMONREGEN@@@0@@Z
_TEXT	SEGMENT PARA USE32 PUBLIC 'CODE'
_TEXT	ENDS
;	COMDAT ?deallocate@?$allocator@UtagMONREGEN@@@std@@QAEXPAUtagMONREGEN@@I@Z
_TEXT	SEGMENT PARA USE32 PUBLIC 'CODE'
_TEXT	ENDS
;	COMDAT ?size@?$vector@UtagMONREGEN@@V?$allocator@UtagMONREGEN@@@std@@@std@@QBEIXZ
_TEXT	SEGMENT PARA USE32 PUBLIC 'CODE'
_TEXT	ENDS
;	COMDAT ?_Tidy@?$vector@UtagTCASHITEMSALE@@V?$allocator@UtagTCASHITEMSALE@@@std@@@std@@IAEXXZ
_TEXT	SEGMENT PARA USE32 PUBLIC 'CODE'
_TEXT	ENDS
;	COMDAT ?_Destroy@?$vector@UtagTCASHITEMSALE@@V?$allocator@UtagTCASHITEMSALE@@@std@@@std@@IAEXPAUtagTCASHITEMSALE@@0@Z
_TEXT	SEGMENT PARA USE32 PUBLIC 'CODE'
_TEXT	ENDS
;	COMDAT ??$_Destroy_range@UtagTCASHITEMSALE@@V?$allocator@UtagTCASHITEMSALE@@@std@@@std@@YAXPAUtagTCASHITEMSALE@@0AAV?$allocator@UtagTCASHITEMSALE@@@0@@Z
_TEXT	SEGMENT PARA USE32 PUBLIC 'CODE'
_TEXT	ENDS
;	COMDAT ?deallocate@?$allocator@UtagTCASHITEMSALE@@@std@@QAEXPAUtagTCASHITEMSALE@@I@Z
_TEXT	SEGMENT PARA USE32 PUBLIC 'CODE'
_TEXT	ENDS
;	COMDAT ?size@?$vector@UtagTCASHITEMSALE@@V?$allocator@UtagTCASHITEMSALE@@@std@@@std@@QBEIXZ
_TEXT	SEGMENT PARA USE32 PUBLIC 'CODE'
_TEXT	ENDS
;	COMDAT ?_Tidy@?$vector@GV?$allocator@G@std@@@std@@IAEXXZ
_TEXT	SEGMENT PARA USE32 PUBLIC 'CODE'
_TEXT	ENDS
;	COMDAT ?_Destroy@?$vector@GV?$allocator@G@std@@@std@@IAEXPAG0@Z
_TEXT	SEGMENT PARA USE32 PUBLIC 'CODE'
_TEXT	ENDS
;	COMDAT ??$_Destroy_range@GV?$allocator@G@std@@@std@@YAXPAG0AAV?$allocator@G@0@@Z
_TEXT	SEGMENT PARA USE32 PUBLIC 'CODE'
_TEXT	ENDS
;	COMDAT ?deallocate@?$allocator@G@std@@QAEXPAGI@Z
_TEXT	SEGMENT PARA USE32 PUBLIC 'CODE'
_TEXT	ENDS
;	COMDAT ?GetLength@?$CSimpleStringT@D$0A@@ATL@@QBEHXZ
_TEXT	SEGMENT PARA USE32 PUBLIC 'CODE'
_TEXT	ENDS
;	COMDAT ?GetString@?$CSimpleStringT@D$0A@@ATL@@QBEPBDXZ
_TEXT	SEGMENT PARA USE32 PUBLIC 'CODE'
_TEXT	ENDS
;	COMDAT ?AtlThrow@ATL@@YGXJ@Z
_TEXT	SEGMENT PARA USE32 PUBLIC 'CODE'
_TEXT	ENDS
;	COMDAT ??0CAtlException@ATL@@QAE@J@Z
_TEXT	SEGMENT PARA USE32 PUBLIC 'CODE'
_TEXT	ENDS
;	COMDAT __TI1?AVCAtlException@ATL@@
xdata$x	SEGMENT DWORD USE32 PUBLIC 'CONST'
xdata$x	ENDS
;	COMDAT __CTA1?AVCAtlException@ATL@@
xdata$x	SEGMENT DWORD USE32 PUBLIC 'CONST'
xdata$x	ENDS
;	COMDAT __CT??_R0?AVCAtlException@ATL@@@84
xdata$x	SEGMENT DWORD USE32 PUBLIC 'CONST'
xdata$x	ENDS
;	COMDAT ??_R0?AVCAtlException@ATL@@@8
_DATA	SEGMENT DWORD USE32 PUBLIC 'DATA'
_DATA	ENDS
;	COMDAT ?__TIMETODB@@YAX_JAAUtagTIMESTAMP_STRUCT@@@Z
_TEXT	SEGMENT PARA USE32 PUBLIC 'CODE'
_TEXT	ENDS
;	COMDAT ?GetYear@CTime@ATL@@QBEHXZ
_TEXT	SEGMENT PARA USE32 PUBLIC 'CODE'
_TEXT	ENDS
;	COMDAT ?GetLocalTm@CTime@ATL@@QBEPAUtm@@PAU3@@Z
_TEXT	SEGMENT PARA USE32 PUBLIC 'CODE'
_TEXT	ENDS
;	COMDAT ?GetMonth@CTime@ATL@@QBEHXZ
_TEXT	SEGMENT PARA USE32 PUBLIC 'CODE'
_TEXT	ENDS
;	COMDAT ??0CTime@ATL@@QAE@_J@Z
_TEXT	SEGMENT PARA USE32 PUBLIC 'CODE'
_TEXT	ENDS
;	COMDAT ?WrapPacketOut@tagEVENTINFO@@QAEXPAVCPacket@@@Z
_TEXT	SEGMENT PARA USE32 PUBLIC 'CODE'
_TEXT	ENDS
;	COMDAT ?push_back@?$vector@UtagTCASHITEMSALE@@V?$allocator@UtagTCASHITEMSALE@@@std@@@std@@QAEXABUtagTCASHITEMSALE@@@Z
_TEXT	SEGMENT PARA USE32 PUBLIC 'CODE'
_TEXT	ENDS
;	COMDAT ?capacity@?$vector@UtagTCASHITEMSALE@@V?$allocator@UtagTCASHITEMSALE@@@std@@@std@@QBEIXZ
_TEXT	SEGMENT PARA USE32 PUBLIC 'CODE'
_TEXT	ENDS
;	COMDAT ?_Ufill@?$vector@UtagTCASHITEMSALE@@V?$allocator@UtagTCASHITEMSALE@@@std@@@std@@IAEPAUtagTCASHITEMSALE@@PAU3@IABU3@@Z
_TEXT	SEGMENT PARA USE32 PUBLIC 'CODE'
_TEXT	ENDS
;	COMDAT ??$_Uninitialized_fill_n@PAUtagTCASHITEMSALE@@IU1@V?$allocator@UtagTCASHITEMSALE@@@std@@@std@@YAXPAUtagTCASHITEMSALE@@IABU1@AAV?$allocator@UtagTCASHITEMSALE@@@0@@Z
_TEXT	SEGMENT PARA USE32 PUBLIC 'CODE'
_TEXT	ENDS
;	COMDAT ?insert@?$vector@UtagTCASHITEMSALE@@V?$allocator@UtagTCASHITEMSALE@@@std@@@std@@QAE?AViterator@12@V312@ABUtagTCASHITEMSALE@@@Z
_TEXT	SEGMENT PARA USE32 PUBLIC 'CODE'
_TEXT	ENDS
;	COMDAT ??Giterator@?$vector@UtagTCASHITEMSALE@@V?$allocator@UtagTCASHITEMSALE@@@std@@@std@@QBEHABVconst_iterator@12@@Z
_TEXT	SEGMENT PARA USE32 PUBLIC 'CODE'
_TEXT	ENDS
;	COMDAT ??Gconst_iterator@?$vector@UtagTCASHITEMSALE@@V?$allocator@UtagTCASHITEMSALE@@@std@@@std@@QBEHABV012@@Z
_TEXT	SEGMENT PARA USE32 PUBLIC 'CODE'
_TEXT	ENDS
;	COMDAT ?_Insert_n@?$vector@UtagTCASHITEMSALE@@V?$allocator@UtagTCASHITEMSALE@@@std@@@std@@IAEXViterator@12@IABUtagTCASHITEMSALE@@@Z
_TEXT	SEGMENT PARA USE32 PUBLIC 'CODE'
_TEXT	ENDS
;	COMDAT ??$_Ucopy@PAUtagTCASHITEMSALE@@@?$vector@UtagTCASHITEMSALE@@V?$allocator@UtagTCASHITEMSALE@@@std@@@std@@IAEPAUtagTCASHITEMSALE@@PAU2@00@Z
_TEXT	SEGMENT PARA USE32 PUBLIC 'CODE'
_TEXT	ENDS
;	COMDAT ??$copy_backward@PAUtagTCASHITEMSALE@@PAU1@@std@@YAPAUtagTCASHITEMSALE@@PAU1@00@Z
_TEXT	SEGMENT PARA USE32 PUBLIC 'CODE'
_TEXT	ENDS
;	COMDAT ??$fill@PAUtagTCASHITEMSALE@@U1@@std@@YAXPAUtagTCASHITEMSALE@@0ABU1@@Z
_TEXT	SEGMENT PARA USE32 PUBLIC 'CODE'
_TEXT	ENDS
;	COMDAT ??Hiterator@?$vector@UtagTCASHITEMSALE@@V?$allocator@UtagTCASHITEMSALE@@@std@@@std@@QBE?AV012@H@Z
_TEXT	SEGMENT PARA USE32 PUBLIC 'CODE'
_TEXT	ENDS
;	COMDAT ??Yiterator@?$vector@UtagTCASHITEMSALE@@V?$allocator@UtagTCASHITEMSALE@@@std@@@std@@QAEAAV012@H@Z
_TEXT	SEGMENT PARA USE32 PUBLIC 'CODE'
_TEXT	ENDS
;	COMDAT ?begin@?$vector@UtagTCASHITEMSALE@@V?$allocator@UtagTCASHITEMSALE@@@std@@@std@@QAE?AViterator@12@XZ
_TEXT	SEGMENT PARA USE32 PUBLIC 'CODE'
_TEXT	ENDS
;	COMDAT ??0iterator@?$vector@UtagTCASHITEMSALE@@V?$allocator@UtagTCASHITEMSALE@@@std@@@std@@QAE@PAUtagTCASHITEMSALE@@@Z
_TEXT	SEGMENT PARA USE32 PUBLIC 'CODE'
_TEXT	ENDS
;	COMDAT ?end@?$vector@UtagTCASHITEMSALE@@V?$allocator@UtagTCASHITEMSALE@@@std@@@std@@QAE?AViterator@12@XZ
_TEXT	SEGMENT PARA USE32 PUBLIC 'CODE'
_TEXT	ENDS
;	COMDAT ?push_back@?$vector@UtagMONREGEN@@V?$allocator@UtagMONREGEN@@@std@@@std@@QAEXABUtagMONREGEN@@@Z
_TEXT	SEGMENT PARA USE32 PUBLIC 'CODE'
_TEXT	ENDS
;	COMDAT ?capacity@?$vector@UtagMONREGEN@@V?$allocator@UtagMONREGEN@@@std@@@std@@QBEIXZ
_TEXT	SEGMENT PARA USE32 PUBLIC 'CODE'
_TEXT	ENDS
;	COMDAT ?_Ufill@?$vector@UtagMONREGEN@@V?$allocator@UtagMONREGEN@@@std@@@std@@IAEPAUtagMONREGEN@@PAU3@IABU3@@Z
_TEXT	SEGMENT PARA USE32 PUBLIC 'CODE'
_TEXT	ENDS
;	COMDAT ??$_Uninitialized_fill_n@PAUtagMONREGEN@@IU1@V?$allocator@UtagMONREGEN@@@std@@@std@@YAXPAUtagMONREGEN@@IABU1@AAV?$allocator@UtagMONREGEN@@@0@@Z
_TEXT	SEGMENT PARA USE32 PUBLIC 'CODE'
_TEXT	ENDS
;	COMDAT ?insert@?$vector@UtagMONREGEN@@V?$allocator@UtagMONREGEN@@@std@@@std@@QAE?AViterator@12@V312@ABUtagMONREGEN@@@Z
_TEXT	SEGMENT PARA USE32 PUBLIC 'CODE'
_TEXT	ENDS
;	COMDAT ??Giterator@?$vector@UtagMONREGEN@@V?$allocator@UtagMONREGEN@@@std@@@std@@QBEHABVconst_iterator@12@@Z
_TEXT	SEGMENT PARA USE32 PUBLIC 'CODE'
_TEXT	ENDS
;	COMDAT ??Gconst_iterator@?$vector@UtagMONREGEN@@V?$allocator@UtagMONREGEN@@@std@@@std@@QBEHABV012@@Z
_TEXT	SEGMENT PARA USE32 PUBLIC 'CODE'
_TEXT	ENDS
;	COMDAT ?_Insert_n@?$vector@UtagMONREGEN@@V?$allocator@UtagMONREGEN@@@std@@@std@@IAEXViterator@12@IABUtagMONREGEN@@@Z
_TEXT	SEGMENT PARA USE32 PUBLIC 'CODE'
_TEXT	ENDS
;	COMDAT ??$_Ucopy@PAUtagMONREGEN@@@?$vector@UtagMONREGEN@@V?$allocator@UtagMONREGEN@@@std@@@std@@IAEPAUtagMONREGEN@@PAU2@00@Z
_TEXT	SEGMENT PARA USE32 PUBLIC 'CODE'
_TEXT	ENDS
;	COMDAT ??$copy_backward@PAUtagMONREGEN@@PAU1@@std@@YAPAUtagMONREGEN@@PAU1@00@Z
_TEXT	SEGMENT PARA USE32 PUBLIC 'CODE'
_TEXT	ENDS
;	COMDAT ??$fill@PAUtagMONREGEN@@U1@@std@@YAXPAUtagMONREGEN@@0ABU1@@Z
_TEXT	SEGMENT PARA USE32 PUBLIC 'CODE'
_TEXT	ENDS
;	COMDAT ??Hiterator@?$vector@UtagMONREGEN@@V?$allocator@UtagMONREGEN@@@std@@@std@@QBE?AV012@H@Z
_TEXT	SEGMENT PARA USE32 PUBLIC 'CODE'
_TEXT	ENDS
;	COMDAT ??Yiterator@?$vector@UtagMONREGEN@@V?$allocator@UtagMONREGEN@@@std@@@std@@QAEAAV012@H@Z
_TEXT	SEGMENT PARA USE32 PUBLIC 'CODE'
_TEXT	ENDS
;	COMDAT ?begin@?$vector@UtagMONREGEN@@V?$allocator@UtagMONREGEN@@@std@@@std@@QAE?AViterator@12@XZ
_TEXT	SEGMENT PARA USE32 PUBLIC 'CODE'
_TEXT	ENDS
;	COMDAT ??0iterator@?$vector@UtagMONREGEN@@V?$allocator@UtagMONREGEN@@@std@@@std@@QAE@PAUtagMONREGEN@@@Z
_TEXT	SEGMENT PARA USE32 PUBLIC 'CODE'
_TEXT	ENDS
;	COMDAT ?end@?$vector@UtagMONREGEN@@V?$allocator@UtagMONREGEN@@@std@@@std@@QAE?AViterator@12@XZ
_TEXT	SEGMENT PARA USE32 PUBLIC 'CODE'
_TEXT	ENDS
;	COMDAT ?push_back@?$vector@UtagLOTTERY@@V?$allocator@UtagLOTTERY@@@std@@@std@@QAEXABUtagLOTTERY@@@Z
_TEXT	SEGMENT PARA USE32 PUBLIC 'CODE'
_TEXT	ENDS
;	COMDAT ?capacity@?$vector@UtagLOTTERY@@V?$allocator@UtagLOTTERY@@@std@@@std@@QBEIXZ
_TEXT	SEGMENT PARA USE32 PUBLIC 'CODE'
_TEXT	ENDS
;	COMDAT ?_Ufill@?$vector@UtagLOTTERY@@V?$allocator@UtagLOTTERY@@@std@@@std@@IAEPAUtagLOTTERY@@PAU3@IABU3@@Z
_TEXT	SEGMENT PARA USE32 PUBLIC 'CODE'
_TEXT	ENDS
;	COMDAT ??$_Uninitialized_fill_n@PAUtagLOTTERY@@IU1@V?$allocator@UtagLOTTERY@@@std@@@std@@YAXPAUtagLOTTERY@@IABU1@AAV?$allocator@UtagLOTTERY@@@0@@Z
_TEXT	SEGMENT PARA USE32 PUBLIC 'CODE'
_TEXT	ENDS
;	COMDAT ?insert@?$vector@UtagLOTTERY@@V?$allocator@UtagLOTTERY@@@std@@@std@@QAE?AViterator@12@V312@ABUtagLOTTERY@@@Z
_TEXT	SEGMENT PARA USE32 PUBLIC 'CODE'
_TEXT	ENDS
;	COMDAT ??Giterator@?$vector@UtagLOTTERY@@V?$allocator@UtagLOTTERY@@@std@@@std@@QBEHABVconst_iterator@12@@Z
_TEXT	SEGMENT PARA USE32 PUBLIC 'CODE'
_TEXT	ENDS
;	COMDAT ??Gconst_iterator@?$vector@UtagLOTTERY@@V?$allocator@UtagLOTTERY@@@std@@@std@@QBEHABV012@@Z
_TEXT	SEGMENT PARA USE32 PUBLIC 'CODE'
_TEXT	ENDS
;	COMDAT ?_Insert_n@?$vector@UtagLOTTERY@@V?$allocator@UtagLOTTERY@@@std@@@std@@IAEXViterator@12@IABUtagLOTTERY@@@Z
_TEXT	SEGMENT PARA USE32 PUBLIC 'CODE'
_TEXT	ENDS
;	COMDAT ??$_Ucopy@PAUtagLOTTERY@@@?$vector@UtagLOTTERY@@V?$allocator@UtagLOTTERY@@@std@@@std@@IAEPAUtagLOTTERY@@PAU2@00@Z
_TEXT	SEGMENT PARA USE32 PUBLIC 'CODE'
_TEXT	ENDS
;	COMDAT ??$copy_backward@PAUtagLOTTERY@@PAU1@@std@@YAPAUtagLOTTERY@@PAU1@00@Z
_TEXT	SEGMENT PARA USE32 PUBLIC 'CODE'
_TEXT	ENDS
;	COMDAT ??$fill@PAUtagLOTTERY@@U1@@std@@YAXPAUtagLOTTERY@@0ABU1@@Z
_TEXT	SEGMENT PARA USE32 PUBLIC 'CODE'
_TEXT	ENDS
;	COMDAT ??Hiterator@?$vector@UtagLOTTERY@@V?$allocator@UtagLOTTERY@@@std@@@std@@QBE?AV012@H@Z
_TEXT	SEGMENT PARA USE32 PUBLIC 'CODE'
_TEXT	ENDS
;	COMDAT ??Yiterator@?$vector@UtagLOTTERY@@V?$allocator@UtagLOTTERY@@@std@@@std@@QAEAAV012@H@Z
_TEXT	SEGMENT PARA USE32 PUBLIC 'CODE'
_TEXT	ENDS
;	COMDAT ?begin@?$vector@UtagLOTTERY@@V?$allocator@UtagLOTTERY@@@std@@@std@@QAE?AViterator@12@XZ
_TEXT	SEGMENT PARA USE32 PUBLIC 'CODE'
_TEXT	ENDS
;	COMDAT ??0iterator@?$vector@UtagLOTTERY@@V?$allocator@UtagLOTTERY@@@std@@@std@@QAE@PAUtagLOTTERY@@@Z
_TEXT	SEGMENT PARA USE32 PUBLIC 'CODE'
_TEXT	ENDS
;	COMDAT ?end@?$vector@UtagLOTTERY@@V?$allocator@UtagLOTTERY@@@std@@@std@@QAE?AViterator@12@XZ
_TEXT	SEGMENT PARA USE32 PUBLIC 'CODE'
_TEXT	ENDS
;	COMDAT ?Reset@tagEVENTINFO@@QAEXXZ
_TEXT	SEGMENT PARA USE32 PUBLIC 'CODE'
_TEXT	ENDS
;	COMDAT ?clear@?$vector@UtagTCASHITEMSALE@@V?$allocator@UtagTCASHITEMSALE@@@std@@@std@@QAEXXZ
_TEXT	SEGMENT PARA USE32 PUBLIC 'CODE'
_TEXT	ENDS
;	COMDAT ?clear@?$vector@UtagMONREGEN@@V?$allocator@UtagMONREGEN@@@std@@@std@@QAEXXZ
_TEXT	SEGMENT PARA USE32 PUBLIC 'CODE'
_TEXT	ENDS
;	COMDAT ?clear@?$vector@UtagLOTTERY@@V?$allocator@UtagLOTTERY@@@std@@@std@@QAEXXZ
_TEXT	SEGMENT PARA USE32 PUBLIC 'CODE'
_TEXT	ENDS
;	COMDAT ??_C@_00CNPNBAHC@?$AA@
CONST	SEGMENT DWORD USE32 PUBLIC 'CONST'
CONST	ENDS
;	COMDAT ??0tagPACKETBUF@@QAE@XZ
_TEXT	SEGMENT PARA USE32 PUBLIC 'CODE'
_TEXT	ENDS
;	COMDAT ??A?$vector@GV?$allocator@G@std@@@std@@QAEAAGI@Z
_TEXT	SEGMENT PARA USE32 PUBLIC 'CODE'
_TEXT	ENDS
;	COMDAT ??Diterator@?$vector@GV?$allocator@G@std@@@std@@QBEAAGXZ
_TEXT	SEGMENT PARA USE32 PUBLIC 'CODE'
_TEXT	ENDS
;	COMDAT ??Hiterator@?$vector@GV?$allocator@G@std@@@std@@QBE?AV012@H@Z
_TEXT	SEGMENT PARA USE32 PUBLIC 'CODE'
_TEXT	ENDS
;	COMDAT ??Yiterator@?$vector@GV?$allocator@G@std@@@std@@QAEAAV012@H@Z
_TEXT	SEGMENT PARA USE32 PUBLIC 'CODE'
_TEXT	ENDS
;	COMDAT ?begin@?$vector@GV?$allocator@G@std@@@std@@QAE?AViterator@12@XZ
_TEXT	SEGMENT PARA USE32 PUBLIC 'CODE'
_TEXT	ENDS
;	COMDAT ??0iterator@?$vector@GV?$allocator@G@std@@@std@@QAE@PAG@Z
_TEXT	SEGMENT PARA USE32 PUBLIC 'CODE'
_TEXT	ENDS
;	COMDAT ?size@?$vector@GV?$allocator@G@std@@@std@@QBEIXZ
_TEXT	SEGMENT PARA USE32 PUBLIC 'CODE'
_TEXT	ENDS
;	COMDAT ?push_back@?$vector@GV?$allocator@G@std@@@std@@QAEXABG@Z
_TEXT	SEGMENT PARA USE32 PUBLIC 'CODE'
_TEXT	ENDS
;	COMDAT ?capacity@?$vector@GV?$allocator@G@std@@@std@@QBEIXZ
_TEXT	SEGMENT PARA USE32 PUBLIC 'CODE'
_TEXT	ENDS
;	COMDAT ?_Ufill@?$vector@GV?$allocator@G@std@@@std@@IAEPAGPAGIABG@Z
_TEXT	SEGMENT PARA USE32 PUBLIC 'CODE'
_TEXT	ENDS
;	COMDAT ??$_Uninitialized_fill_n@PAGIGV?$allocator@G@std@@@std@@YAXPAGIABGAAV?$allocator@G@0@@Z
_TEXT	SEGMENT PARA USE32 PUBLIC 'CODE'
_TEXT	ENDS
;	COMDAT ?insert@?$vector@GV?$allocator@G@std@@@std@@QAE?AViterator@12@V312@ABG@Z
_TEXT	SEGMENT PARA USE32 PUBLIC 'CODE'
_TEXT	ENDS
;	COMDAT ??Giterator@?$vector@GV?$allocator@G@std@@@std@@QBEHABVconst_iterator@12@@Z
_TEXT	SEGMENT PARA USE32 PUBLIC 'CODE'
_TEXT	ENDS
;	COMDAT ??Gconst_iterator@?$vector@GV?$allocator@G@std@@@std@@QBEHABV012@@Z
_TEXT	SEGMENT PARA USE32 PUBLIC 'CODE'
_TEXT	ENDS
;	COMDAT ?_Insert_n@?$vector@GV?$allocator@G@std@@@std@@IAEXViterator@12@IABG@Z
_TEXT	SEGMENT PARA USE32 PUBLIC 'CODE'
_TEXT	ENDS
;	COMDAT ??$_Ucopy@PAG@?$vector@GV?$allocator@G@std@@@std@@IAEPAGPAG00@Z
_TEXT	SEGMENT PARA USE32 PUBLIC 'CODE'
_TEXT	ENDS
;	COMDAT ??$copy_backward@PAGPAG@std@@YAPAGPAG00@Z
_TEXT	SEGMENT PARA USE32 PUBLIC 'CODE'
_TEXT	ENDS
;	COMDAT ??$fill@PAGG@std@@YAXPAG0ABG@Z
_TEXT	SEGMENT PARA USE32 PUBLIC 'CODE'
_TEXT	ENDS
;	COMDAT ?end@?$vector@GV?$allocator@G@std@@@std@@QAE?AViterator@12@XZ
_TEXT	SEGMENT PARA USE32 PUBLIC 'CODE'
_TEXT	ENDS
;	COMDAT ?clear@?$vector@GV?$allocator@G@std@@@std@@QAEXXZ
_TEXT	SEGMENT PARA USE32 PUBLIC 'CODE'
_TEXT	ENDS
;	COMDAT ??4?$CStringT@DV?$StrTraitATL@DV?$ChTraitsCRT@D@ATL@@@ATL@@@ATL@@QAEAAV01@PBD@Z
_TEXT	SEGMENT PARA USE32 PUBLIC 'CODE'
_TEXT	ENDS
;	COMDAT ??4?$CSimpleStringT@D$0A@@ATL@@QAEAAV01@PBD@Z
_TEXT	SEGMENT PARA USE32 PUBLIC 'CODE'
_TEXT	ENDS
;	COMDAT ?SetString@?$CSimpleStringT@D$0A@@ATL@@QAEXPBD@Z
_TEXT	SEGMENT PARA USE32 PUBLIC 'CODE'
_TEXT	ENDS
;	COMDAT ?StringLength@?$CSimpleStringT@D$0A@@ATL@@SAHPBD@Z
_TEXT	SEGMENT PARA USE32 PUBLIC 'CODE'
_TEXT	ENDS
;	COMDAT ?GetDay@CTime@ATL@@QBEHXZ
_TEXT	SEGMENT PARA USE32 PUBLIC 'CODE'
_TEXT	ENDS
;	COMDAT ?GetHour@CTime@ATL@@QBEHXZ
_TEXT	SEGMENT PARA USE32 PUBLIC 'CODE'
_TEXT	ENDS
;	COMDAT ?GetMinute@CTime@ATL@@QBEHXZ
_TEXT	SEGMENT PARA USE32 PUBLIC 'CODE'
_TEXT	ENDS
;	COMDAT ?GetSecond@CTime@ATL@@QBEHXZ
_TEXT	SEGMENT PARA USE32 PUBLIC 'CODE'
_TEXT	ENDS
;	COMDAT ?GetTime@CTime@ATL@@QBE_JXZ
_TEXT	SEGMENT PARA USE32 PUBLIC 'CODE'
_TEXT	ENDS
;	COMDAT ?GetTickCount@CTime@ATL@@SG?AV12@XZ
_TEXT	SEGMENT PARA USE32 PUBLIC 'CODE'
_TEXT	ENDS
;	COMDAT ??1?$basic_string@DU?$char_traits@D@std@@V?$allocator@D@2@@std@@QAE@XZ
_TEXT	SEGMENT PARA USE32 PUBLIC 'CODE'
_TEXT	ENDS
;	COMDAT ??0?$basic_string@DU?$char_traits@D@std@@V?$allocator@D@2@@std@@QAE@PBD@Z
_TEXT	SEGMENT PARA USE32 PUBLIC 'CODE'
_TEXT	ENDS
;	COMDAT ??0?$allocator@D@std@@QAE@XZ
_TEXT	SEGMENT PARA USE32 PUBLIC 'CODE'
_TEXT	ENDS
;	COMDAT ?assign@?$basic_string@DU?$char_traits@D@std@@V?$allocator@D@2@@std@@QAEAAV12@PBD@Z
_TEXT	SEGMENT PARA USE32 PUBLIC 'CODE'
_TEXT	ENDS
;	COMDAT ?assign@?$basic_string@DU?$char_traits@D@std@@V?$allocator@D@2@@std@@QAEAAV12@PBDI@Z
_TEXT	SEGMENT PARA USE32 PUBLIC 'CODE'
_TEXT	ENDS
;	COMDAT ?_Inside@?$basic_string@DU?$char_traits@D@std@@V?$allocator@D@2@@std@@IAE_NPBD@Z
_TEXT	SEGMENT PARA USE32 PUBLIC 'CODE'
_TEXT	ENDS
;	COMDAT ?length@?$char_traits@D@std@@SAIPBD@Z
_TEXT	SEGMENT PARA USE32 PUBLIC 'CODE'
_TEXT	ENDS
;	COMDAT ??0?$CStringT@DV?$StrTraitATL@DV?$ChTraitsCRT@D@ATL@@@ATL@@@ATL@@QAE@ABV01@@Z
_TEXT	SEGMENT PARA USE32 PUBLIC 'CODE'
_TEXT	ENDS
;	COMDAT ??0?$CSimpleStringT@D$0A@@ATL@@QAE@ABV01@@Z
_TEXT	SEGMENT PARA USE32 PUBLIC 'CODE'
_TEXT	ENDS
;	COMDAT ?AtlLoadString@ATL@@YAHIPADH@Z
_TEXT	SEGMENT PARA USE32 PUBLIC 'CODE'
_TEXT	ENDS
;	COMDAT ??0?$CStringT@DV?$StrTraitATL@DV?$ChTraitsCRT@D@ATL@@@ATL@@@ATL@@QAE@XZ
_TEXT	SEGMENT PARA USE32 PUBLIC 'CODE'
_TEXT	ENDS
;	COMDAT ?GetDefaultManager@?$StrTraitATL@DV?$ChTraitsCRT@D@ATL@@@ATL@@SAPAUIAtlStringMgr@2@XZ
_TEXT	SEGMENT PARA USE32 PUBLIC 'CODE'
_TEXT	ENDS
;	COMDAT ??B?$CSimpleStringT@D$0A@@ATL@@QBEPBDXZ
_TEXT	SEGMENT PARA USE32 PUBLIC 'CODE'
_TEXT	ENDS
;	COMDAT ??1?$CStringT@DV?$StrTraitATL@DV?$ChTraitsCRT@D@ATL@@@ATL@@@ATL@@QAE@XZ
_TEXT	SEGMENT PARA USE32 PUBLIC 'CODE'
_TEXT	ENDS
;	COMDAT ??0?$CStringT@DV?$StrTraitATL@DV?$ChTraitsCRT@D@ATL@@@ATL@@@ATL@@QAE@PBD@Z
_TEXT	SEGMENT PARA USE32 PUBLIC 'CODE'
_TEXT	ENDS
;	COMDAT ?CheckImplicitLoad@?$CStringT@DV?$StrTraitATL@DV?$ChTraitsCRT@D@ATL@@@ATL@@@ATL@@AAE_NPBX@Z
_TEXT	SEGMENT PARA USE32 PUBLIC 'CODE'
_TEXT	ENDS
;	COMDAT ?LoadStringA@?$CStringT@DV?$StrTraitATL@DV?$ChTraitsCRT@D@ATL@@@ATL@@@ATL@@QAEHI@Z
_TEXT	SEGMENT PARA USE32 PUBLIC 'CODE'
_TEXT	ENDS
;	COMDAT ?FindStringResourceInstance@?$StrTraitATL@DV?$ChTraitsCRT@D@ATL@@@ATL@@SAPAUHINSTANCE__@@I@Z
_TEXT	SEGMENT PARA USE32 PUBLIC 'CODE'
_TEXT	ENDS
;	COMDAT ?AtlFindStringResourceInstance@ATL@@YAPAUHINSTANCE__@@IG@Z
_TEXT	SEGMENT PARA USE32 PUBLIC 'CODE'
_TEXT	ENDS
;	COMDAT ?AtlGetStringResourceImage@ATL@@YAPBUATLSTRINGRESOURCEIMAGE@1@PAUHINSTANCE__@@IG@Z
_TEXT	SEGMENT PARA USE32 PUBLIC 'CODE'
_TEXT	ENDS
;	COMDAT ?_AtlGetStringResourceImage@ATL@@YAPBUATLSTRINGRESOURCEIMAGE@1@PAUHINSTANCE__@@PAUHRSRC__@@I@Z
_TEXT	SEGMENT PARA USE32 PUBLIC 'CODE'
_TEXT	ENDS
;	COMDAT ?LoadStringA@?$CStringT@DV?$StrTraitATL@DV?$ChTraitsCRT@D@ATL@@@ATL@@@ATL@@QAEHPAUHINSTANCE__@@I@Z
_TEXT	SEGMENT PARA USE32 PUBLIC 'CODE'
_TEXT	ENDS
;	COMDAT ?AtlGetStringResourceImage@ATL@@YAPBUATLSTRINGRESOURCEIMAGE@1@PAUHINSTANCE__@@I@Z
_TEXT	SEGMENT PARA USE32 PUBLIC 'CODE'
_TEXT	ENDS
;	COMDAT ?GetBaseTypeLength@?$ChTraitsCRT@D@ATL@@SAHPBGH@Z
_TEXT	SEGMENT PARA USE32 PUBLIC 'CODE'
_TEXT	ENDS
;	COMDAT ?_AtlGetConversionACP@ATL@@YGIXZ
_TEXT	SEGMENT PARA USE32 PUBLIC 'CODE'
_TEXT	ENDS
;	COMDAT ?g_pfnGetThreadACP@ATL@@3P6GIXZA
_DATA	SEGMENT DWORD USE32 PUBLIC 'DATA'
_DATA	ENDS
;	COMDAT ?_AtlGetThreadACPThunk@ATL@@YGIXZ
_TEXT	SEGMENT PARA USE32 PUBLIC 'CODE'
_TEXT	ENDS
;	COMDAT ?_AtlGetThreadACPReal@ATL@@YGIXZ
_TEXT	SEGMENT PARA USE32 PUBLIC 'CODE'
_TEXT	ENDS
;	COMDAT ?_AtlGetThreadACPFake@ATL@@YGIXZ
_TEXT	SEGMENT PARA USE32 PUBLIC 'CODE'
_TEXT	ENDS
;	COMDAT ?InterlockedExchangePointer@@YGPAXPAPAXPAX@Z
_TEXT	SEGMENT PARA USE32 PUBLIC 'CODE'
_TEXT	ENDS
;	COMDAT ?ConvertToBaseType@?$ChTraitsCRT@D@ATL@@SAXPADHPBGH@Z
_TEXT	SEGMENT PARA USE32 PUBLIC 'CODE'
_TEXT	ENDS
;	COMDAT ?WordCmpI@CAtlModule@ATL@@SAHPBD0@Z
_TEXT	SEGMENT PARA USE32 PUBLIC 'CODE'
_TEXT	ENDS
;	COMDAT ?FindOneOf@CAtlModule@ATL@@SAPBDPBD0@Z
_TEXT	SEGMENT PARA USE32 PUBLIC 'CODE'
_TEXT	ENDS
;	COMDAT ?SetStringValue@CRegKey@ATL@@QAEJPBD0K@Z
_TEXT	SEGMENT PARA USE32 PUBLIC 'CODE'
_TEXT	ENDS
;	COMDAT ?DeleteValue@CRegKey@ATL@@QAEJPBD@Z
_TEXT	SEGMENT PARA USE32 PUBLIC 'CODE'
_TEXT	ENDS
;	COMDAT ??BCRegKey@ATL@@QBEPAUHKEY__@@XZ
_TEXT	SEGMENT PARA USE32 PUBLIC 'CODE'
_TEXT	ENDS
;	COMDAT ?Create@CRegKey@ATL@@QAEJPAUHKEY__@@PBDPADKKPAU_SECURITY_ATTRIBUTES@@PAK@Z
_TEXT	SEGMENT PARA USE32 PUBLIC 'CODE'
_TEXT	ENDS
;	COMDAT ?Close@CRegKey@ATL@@QAEJXZ
_TEXT	SEGMENT PARA USE32 PUBLIC 'CODE'
_TEXT	ENDS
;	COMDAT ?AtlHresultFromWin32@ATL@@YAJK@Z
_TEXT	SEGMENT PARA USE32 PUBLIC 'CODE'
_TEXT	ENDS
;	COMDAT ??_C@_05PDIKPLII@AppID?$AA@
CONST	SEGMENT DWORD USE32 PUBLIC 'CONST'
CONST	ENDS
;	COMDAT ?Open@CRegKey@ATL@@QAEJPAUHKEY__@@PBDK@Z
_TEXT	SEGMENT PARA USE32 PUBLIC 'CODE'
_TEXT	ENDS
;	COMDAT ??1CRegKey@ATL@@QAE@XZ
_TEXT	SEGMENT PARA USE32 PUBLIC 'CODE'
_TEXT	ENDS
;	COMDAT ??0CRegKey@ATL@@QAE@XZ
_TEXT	SEGMENT PARA USE32 PUBLIC 'CODE'
_TEXT	ENDS
;	COMDAT ?_pAtlModule@ATL@@3PAVCAtlModule@1@A
_DATA	SEGMENT DWORD USE32 PUBLIC 'DATA'
_DATA	ENDS
;	COMDAT ?UpdateRegistryFromResourceS@CAtlModule@ATL@@QAGJIHPAU_ATL_REGMAP_ENTRY@2@@Z
_TEXT	SEGMENT PARA USE32 PUBLIC 'CODE'
_TEXT	ENDS
;	COMDAT ??0CRegObject@ATL@@QAE@XZ
_TEXT	SEGMENT PARA USE32 PUBLIC 'CODE'
_TEXT	ENDS
;	COMDAT ??0IRegistrarBase@@QAE@XZ
_TEXT	SEGMENT PARA USE32 PUBLIC 'CODE'
_TEXT	ENDS
;	COMDAT ??0IUnknown@@QAE@XZ
_TEXT	SEGMENT PARA USE32 PUBLIC 'CODE'
_TEXT	ENDS
;	COMDAT ??_7CRegObject@ATL@@6B@
CONST	SEGMENT DWORD USE32 PUBLIC 'CONST'
CONST	ENDS
;	COMDAT ?QueryInterface@CRegObject@ATL@@UAGJABU_GUID@@PAPAX@Z
_TEXT	SEGMENT PARA USE32 PUBLIC 'CODE'
_TEXT	ENDS
;	COMDAT ?AddRef@CRegObject@ATL@@UAGKXZ
_TEXT	SEGMENT PARA USE32 PUBLIC 'CODE'
_TEXT	ENDS
;	COMDAT ?Release@CRegObject@ATL@@UAGKXZ
_TEXT	SEGMENT PARA USE32 PUBLIC 'CODE'
_TEXT	ENDS
;	COMDAT ?ClearReplacements@CRegObject@ATL@@UAGJXZ
_TEXT	SEGMENT PARA USE32 PUBLIC 'CODE'
_TEXT	ENDS
;	COMDAT ?Lock@CComFakeCriticalSection@ATL@@QAEJXZ
_TEXT	SEGMENT PARA USE32 PUBLIC 'CODE'
_TEXT	ENDS
;	COMDAT ?ClearReplacements@CExpansionVector@ATL@@QAEJXZ
_TEXT	SEGMENT PARA USE32 PUBLIC 'CODE'
_TEXT	ENDS
;	COMDAT ?GetSize@?$CSimpleMap@PADPAGVCExpansionVectorEqualHelper@ATL@@@ATL@@QBEHXZ
_TEXT	SEGMENT PARA USE32 PUBLIC 'CODE'
_TEXT	ENDS
;	COMDAT ?GetKeyAt@?$CSimpleMap@PADPAGVCExpansionVectorEqualHelper@ATL@@@ATL@@QBEAAPADH@Z
_TEXT	SEGMENT PARA USE32 PUBLIC 'CODE'
_TEXT	ENDS
;	COMDAT ?GetValueAt@?$CSimpleMap@PADPAGVCExpansionVectorEqualHelper@ATL@@@ATL@@QBEAAPAGH@Z
_TEXT	SEGMENT PARA USE32 PUBLIC 'CODE'
_TEXT	ENDS
;	COMDAT ?RemoveAll@?$CSimpleMap@PADPAGVCExpansionVectorEqualHelper@ATL@@@ATL@@QAEXXZ
_TEXT	SEGMENT PARA USE32 PUBLIC 'CODE'
_TEXT	ENDS
;	COMDAT ?Unlock@CComFakeCriticalSection@ATL@@QAEJXZ
_TEXT	SEGMENT PARA USE32 PUBLIC 'CODE'
_TEXT	ENDS
;	COMDAT ??_GCRegObject@ATL@@UAEPAXI@Z
_TEXT	SEGMENT PARA USE32 PUBLIC 'CODE'
_TEXT	ENDS
;	COMDAT ??0CExpansionVector@ATL@@QAE@XZ
_TEXT	SEGMENT PARA USE32 PUBLIC 'CODE'
_TEXT	ENDS
;	COMDAT ??0?$CSimpleMap@PADPAGVCExpansionVectorEqualHelper@ATL@@@ATL@@QAE@XZ
_TEXT	SEGMENT PARA USE32 PUBLIC 'CODE'
_TEXT	ENDS
;	COMDAT ??1?$CSimpleMap@PADPAGVCExpansionVectorEqualHelper@ATL@@@ATL@@QAE@XZ
_TEXT	SEGMENT PARA USE32 PUBLIC 'CODE'
_TEXT	ENDS
;	COMDAT ??1CExpansionVector@ATL@@QAE@XZ
_TEXT	SEGMENT PARA USE32 PUBLIC 'CODE'
_TEXT	ENDS
;	COMDAT ??1CRegObject@ATL@@UAE@XZ
_TEXT	SEGMENT PARA USE32 PUBLIC 'CODE'
_TEXT	ENDS
;	COMDAT ??0?$CAtlSafeAllocBufferManager@VCCRTAllocator@ATL@@@_ATL_SAFE_ALLOCA_IMPL@ATL@@QAE@XZ
_TEXT	SEGMENT PARA USE32 PUBLIC 'CODE'
_TEXT	ENDS
;	COMDAT ??1?$CAtlSafeAllocBufferManager@VCCRTAllocator@ATL@@@_ATL_SAFE_ALLOCA_IMPL@ATL@@QAE@XZ
_TEXT	SEGMENT PARA USE32 PUBLIC 'CODE'
_TEXT	ENDS
;	COMDAT ?Free@CCRTAllocator@ATL@@SAXPAX@Z
_TEXT	SEGMENT PARA USE32 PUBLIC 'CODE'
_TEXT	ENDS
;	COMDAT ?GetModuleInstance@CAtlBaseModule@ATL@@QAEPAUHINSTANCE__@@XZ
_TEXT	SEGMENT PARA USE32 PUBLIC 'CODE'
_TEXT	ENDS
;	COMDAT ?AtlHresultFromLastError@ATL@@YAJXZ
_TEXT	SEGMENT PARA USE32 PUBLIC 'CODE'
_TEXT	ENDS
;	COMDAT ?AtlA2WHelper@@YGPAGPAGPBDHI@Z
_TEXT	SEGMENT PARA USE32 PUBLIC 'CODE'
_TEXT	ENDS
;	COMDAT ?_AtlVerifyStackAvailable@_ATL_SAFE_ALLOCA_IMPL@ATL@@YA_NK@Z
_TEXT	SEGMENT PARA USE32 PUBLIC 'CODE'
_TEXT	ENDS
;	COMDAT ?Allocate@?$CAtlSafeAllocBufferManager@VCCRTAllocator@ATL@@@_ATL_SAFE_ALLOCA_IMPL@ATL@@QAEPAXK@Z
_TEXT	SEGMENT PARA USE32 PUBLIC 'CODE'
_TEXT	ENDS
;	COMDAT ?Allocate@CCRTAllocator@ATL@@SAPAXI@Z
_TEXT	SEGMENT PARA USE32 PUBLIC 'CODE'
_TEXT	ENDS
;	COMDAT ?GetData@CAtlSafeAllocBufferNode@?$CAtlSafeAllocBufferManager@VCCRTAllocator@ATL@@@_ATL_SAFE_ALLOCA_IMPL@ATL@@QAEPAXXZ
_TEXT	SEGMENT PARA USE32 PUBLIC 'CODE'
_TEXT	ENDS
;	COMDAT ?EscapeSingleQuote@CAtlModule@ATL@@SAXPAGPBG@Z
_TEXT	SEGMENT PARA USE32 PUBLIC 'CODE'
_TEXT	ENDS
;	COMDAT ?ocscpy@@YAPAGPAGPBG@Z
_TEXT	SEGMENT PARA USE32 PUBLIC 'CODE'
_TEXT	ENDS
;	COMDAT ?ocslen@@YAHPBG@Z
_TEXT	SEGMENT PARA USE32 PUBLIC 'CODE'
_TEXT	ENDS
;	COMDAT ??_C@_1O@MNLDABAF@?$AAM?$AAo?$AAd?$AAu?$AAl?$AAe?$AA?$AA@
CONST	SEGMENT DWORD USE32 PUBLIC 'CONST'
CONST	ENDS
;	COMDAT ?AddReplacement@CRegObject@ATL@@UAGJPBG0@Z
_TEXT	SEGMENT PARA USE32 PUBLIC 'CODE'
_TEXT	ENDS
;	COMDAT ?AtlW2AHelper@@YGPADPADPBGHI@Z
_TEXT	SEGMENT PARA USE32 PUBLIC 'CODE'
_TEXT	ENDS
;	COMDAT ?Add@CExpansionVector@ATL@@QAEHPBDPBG@Z
_TEXT	SEGMENT PARA USE32 PUBLIC 'CODE'
_TEXT	ENDS
;	COMDAT ?Add@?$CSimpleMap@PADPAGVCExpansionVectorEqualHelper@ATL@@@ATL@@QAEHABQADABQAG@Z
_TEXT	SEGMENT PARA USE32 PUBLIC 'CODE'
_TEXT	ENDS
;	COMDAT ?InternalSetAtIndex@?$CSimpleMap@PADPAGVCExpansionVectorEqualHelper@ATL@@@ATL@@QAEXHABQADABQAG@Z
_TEXT	SEGMENT PARA USE32 PUBLIC 'CODE'
_TEXT	ENDS
;	COMDAT ??$?2PAD@?$Wrapper@PAD@?$CSimpleMap@PADPAGVCExpansionVectorEqualHelper@ATL@@@ATL@@SAPAXIPAPAD@Z
_TEXT	SEGMENT PARA USE32 PUBLIC 'CODE'
_TEXT	ENDS
;	COMDAT ??$?3PAD@?$Wrapper@PAD@?$CSimpleMap@PADPAGVCExpansionVectorEqualHelper@ATL@@@ATL@@SAXPAXPAPAD@Z
_TEXT	SEGMENT PARA USE32 PUBLIC 'CODE'
_TEXT	ENDS
;	COMDAT ??0?$Wrapper@PAD@?$CSimpleMap@PADPAGVCExpansionVectorEqualHelper@ATL@@@ATL@@QAE@ABQAD@Z
_TEXT	SEGMENT PARA USE32 PUBLIC 'CODE'
_TEXT	ENDS
;	COMDAT ??$?2PAG@?$Wrapper@PAG@?$CSimpleMap@PADPAGVCExpansionVectorEqualHelper@ATL@@@ATL@@SAPAXIPAPAG@Z
_TEXT	SEGMENT PARA USE32 PUBLIC 'CODE'
_TEXT	ENDS
;	COMDAT ??$?3PAG@?$Wrapper@PAG@?$CSimpleMap@PADPAGVCExpansionVectorEqualHelper@ATL@@@ATL@@SAXPAXPAPAG@Z
_TEXT	SEGMENT PARA USE32 PUBLIC 'CODE'
_TEXT	ENDS
;	COMDAT ??0?$Wrapper@PAG@?$CSimpleMap@PADPAGVCExpansionVectorEqualHelper@ATL@@@ATL@@QAE@ABQAG@Z
_TEXT	SEGMENT PARA USE32 PUBLIC 'CODE'
_TEXT	ENDS
;	COMDAT ??_C@_1BG@JBACFMF@?$AAM?$AAo?$AAd?$AAu?$AAl?$AAe?$AA_?$AAR?$AAa?$AAw?$AA?$AA@
CONST	SEGMENT DWORD USE32 PUBLIC 'CONST'
CONST	ENDS
;	COMDAT ??_C@_1BC@KAILKFFG@?$AAR?$AAE?$AAG?$AAI?$AAS?$AAT?$AAR?$AAY?$AA?$AA@
CONST	SEGMENT DWORD USE32 PUBLIC 'CONST'
CONST	ENDS
;	COMDAT ?ResourceRegister@CRegObject@ATL@@QAGJPBGI0@Z
_TEXT	SEGMENT PARA USE32 PUBLIC 'CODE'
_TEXT	ENDS
;	COMDAT ?RegisterFromResource@CRegObject@ATL@@IAEJPBGPBD1H@Z
_TEXT	SEGMENT PARA USE32 PUBLIC 'CODE'
_TEXT	ENDS
;	COMDAT ??0CRegParser@ATL@@QAE@PAVCRegObject@1@@Z
_TEXT	SEGMENT PARA USE32 PUBLIC 'CODE'
_TEXT	ENDS
;	COMDAT ??0?$CTempBuffer@D$0EAA@VCCRTAllocator@ATL@@@ATL@@QAE@XZ
_TEXT	SEGMENT PARA USE32 PUBLIC 'CODE'
_TEXT	ENDS
;	COMDAT ??1?$CTempBuffer@D$0EAA@VCCRTAllocator@ATL@@@ATL@@QAE@XZ
_TEXT	SEGMENT PARA USE32 PUBLIC 'CODE'
_TEXT	ENDS
;	COMDAT ?FreeHeap@?$CTempBuffer@D$0EAA@VCCRTAllocator@ATL@@@ATL@@AAEXXZ
_TEXT	SEGMENT PARA USE32 PUBLIC 'CODE'
_TEXT	ENDS
;	COMDAT ?Allocate@?$CTempBuffer@D$0EAA@VCCRTAllocator@ATL@@@ATL@@QAEPADI@Z
_TEXT	SEGMENT PARA USE32 PUBLIC 'CODE'
_TEXT	ENDS
;	COMDAT ?AllocateBytes@?$CTempBuffer@D$0EAA@VCCRTAllocator@ATL@@@ATL@@QAEPADI@Z
_TEXT	SEGMENT PARA USE32 PUBLIC 'CODE'
_TEXT	ENDS
;	COMDAT ?AllocateHeap@?$CTempBuffer@D$0EAA@VCCRTAllocator@ATL@@@ATL@@AAEXI@Z
_TEXT	SEGMENT PARA USE32 PUBLIC 'CODE'
_TEXT	ENDS
;	COMDAT ?RegisterBuffer@CRegParser@ATL@@QAEJPADH@Z
_TEXT	SEGMENT PARA USE32 PUBLIC 'CODE'
_TEXT	ENDS
;	COMDAT ?PreProcessBuffer@CRegParser@ATL@@QAEJPADPAPAD@Z
_TEXT	SEGMENT PARA USE32 PUBLIC 'CODE'
_TEXT	ENDS
;	COMDAT ??0CParseBuffer@CRegParser@ATL@@QAE@H@Z
_TEXT	SEGMENT PARA USE32 PUBLIC 'CODE'
_TEXT	ENDS
;	COMDAT ??1CParseBuffer@CRegParser@ATL@@QAE@XZ
_TEXT	SEGMENT PARA USE32 PUBLIC 'CODE'
_TEXT	ENDS
;	COMDAT ?StrChrA@CRegParser@ATL@@KAPADPADD@Z
_TEXT	SEGMENT PARA USE32 PUBLIC 'CODE'
_TEXT	ENDS
;	COMDAT ?StrFromMap@CRegObject@ATL@@QAEPBGPAD@Z
_TEXT	SEGMENT PARA USE32 PUBLIC 'CODE'
_TEXT	ENDS
;	COMDAT ?Lookup@?$CSimpleMap@PADPAGVCExpansionVectorEqualHelper@ATL@@@ATL@@QBEPAGABQAD@Z
_TEXT	SEGMENT PARA USE32 PUBLIC 'CODE'
_TEXT	ENDS
;	COMDAT ?FindKey@?$CSimpleMap@PADPAGVCExpansionVectorEqualHelper@ATL@@@ATL@@QBEHABQAD@Z
_TEXT	SEGMENT PARA USE32 PUBLIC 'CODE'
_TEXT	ENDS
;	COMDAT ?IsEqualKey@CExpansionVectorEqualHelper@ATL@@SA_NQAD0@Z
_TEXT	SEGMENT PARA USE32 PUBLIC 'CODE'
_TEXT	ENDS
;	COMDAT ?AddString@CParseBuffer@CRegParser@ATL@@QAEHPBG@Z
_TEXT	SEGMENT PARA USE32 PUBLIC 'CODE'
_TEXT	ENDS
;	COMDAT ?Append@CParseBuffer@CRegParser@ATL@@QAEHPBDH@Z
_TEXT	SEGMENT PARA USE32 PUBLIC 'CODE'
_TEXT	ENDS
;	COMDAT ?AddChar@CParseBuffer@CRegParser@ATL@@QAEHPBD@Z
_TEXT	SEGMENT PARA USE32 PUBLIC 'CODE'
_TEXT	ENDS
;	COMDAT ?Detach@CParseBuffer@CRegParser@ATL@@QAEPADXZ
_TEXT	SEGMENT PARA USE32 PUBLIC 'CODE'
_TEXT	ENDS
;	COMDAT ?HKeyFromString@CRegParser@ATL@@KAPAUHKEY__@@PAD@Z
_TEXT	SEGMENT PARA USE32 PUBLIC 'CODE'
_TEXT	ENDS
;	COMDAT ??_C@_04OHBKMIBJ@HKCR?$AA@
CONST	SEGMENT DWORD USE32 PUBLIC 'CONST'
CONST	ENDS
;	COMDAT ??_C@_04KIFLFONO@HKCU?$AA@
CONST	SEGMENT DWORD USE32 PUBLIC 'CONST'
CONST	ENDS
;	COMDAT ??_C@_04CBBMIBLK@HKLM?$AA@
CONST	SEGMENT DWORD USE32 PUBLIC 'CONST'
CONST	ENDS
;	COMDAT ??_C@_03DLBIJLAB@HKU?$AA@
CONST	SEGMENT DWORD USE32 PUBLIC 'CONST'
CONST	ENDS
;	COMDAT ??_C@_04OFOCGAOH@HKPD?$AA@
CONST	SEGMENT DWORD USE32 PUBLIC 'CONST'
CONST	ENDS
;	COMDAT ??_C@_04POMNGLEL@HKDD?$AA@
CONST	SEGMENT DWORD USE32 PUBLIC 'CONST'
CONST	ENDS
;	COMDAT ??_C@_04LEMDOLAJ@HKCC?$AA@
CONST	SEGMENT DWORD USE32 PUBLIC 'CONST'
CONST	ENDS
;	COMDAT ??_C@_0BC@JBJOLKMF@HKEY_CLASSES_ROOT?$AA@
CONST	SEGMENT DWORD USE32 PUBLIC 'CONST'
CONST	ENDS
;	COMDAT ??_C@_0BC@GMMMKLBI@HKEY_CURRENT_USER?$AA@
CONST	SEGMENT DWORD USE32 PUBLIC 'CONST'
CONST	ENDS
;	COMDAT ??_C@_0BD@GIIFIKDM@HKEY_LOCAL_MACHINE?$AA@
CONST	SEGMENT DWORD USE32 PUBLIC 'CONST'
CONST	ENDS
;	COMDAT ??_C@_0L@OEMMANAM@HKEY_USERS?$AA@
CONST	SEGMENT DWORD USE32 PUBLIC 'CONST'
CONST	ENDS
;	COMDAT ??_C@_0BG@IDBEHNDO@HKEY_PERFORMANCE_DATA?$AA@
CONST	SEGMENT DWORD USE32 PUBLIC 'CONST'
CONST	ENDS
;	COMDAT ??_C@_0O@MJDLIIGK@HKEY_DYN_DATA?$AA@
CONST	SEGMENT DWORD USE32 PUBLIC 'CONST'
CONST	ENDS
;	COMDAT ??_C@_0BE@NLNNHLLF@HKEY_CURRENT_CONFIG?$AA@
CONST	SEGMENT DWORD USE32 PUBLIC 'CONST'
CONST	ENDS
;	COMDAT ?map@?2??HKeyFromString@CRegParser@ATL@@KAPAUHKEY__@@PAD@Z@4QBUkeymap@23@B
CONST	SEGMENT DWORD USE32 PUBLIC 'CONST'
CONST	ENDS
;	COMDAT ?NextToken@CRegParser@ATL@@IAEJPAD@Z
_TEXT	SEGMENT PARA USE32 PUBLIC 'CODE'
_TEXT	ENDS
;	COMDAT ?EndOfVar@CRegParser@ATL@@IAEHXZ
_TEXT	SEGMENT PARA USE32 PUBLIC 'CODE'
_TEXT	ENDS
;	COMDAT ?IsSpace@CRegParser@ATL@@IAEHD@Z
_TEXT	SEGMENT PARA USE32 PUBLIC 'CODE'
_TEXT	ENDS
;	COMDAT ?GenerateError@CRegParser@ATL@@IAEJI@Z
_TEXT	SEGMENT PARA USE32 PUBLIC 'CODE'
_TEXT	ENDS
;	COMDAT ?RegisterSubkeys@CRegParser@ATL@@IAEJPADPAUHKEY__@@HH@Z
_TEXT	SEGMENT PARA USE32 PUBLIC 'CODE'
_TEXT	ENDS
;	COMDAT ??_C@_06JBKGCNBB@Delete?$AA@
CONST	SEGMENT DWORD USE32 PUBLIC 'CONST'
CONST	ENDS
;	COMDAT ??_C@_0M@DBGDLGLL@ForceRemove?$AA@
CONST	SEGMENT DWORD USE32 PUBLIC 'CONST'
CONST	ENDS
;	COMDAT ??_C@_08KAAPDIAN@NoRemove?$AA@
CONST	SEGMENT DWORD USE32 PUBLIC 'CONST'
CONST	ENDS
;	COMDAT ??_C@_03LAIAPFCB@Val?$AA@
CONST	SEGMENT DWORD USE32 PUBLIC 'CONST'
CONST	ENDS
;	COMDAT ?AddValue@CRegParser@ATL@@IAEJAAVCRegKey@2@PBDPAD@Z
_TEXT	SEGMENT PARA USE32 PUBLIC 'CODE'
_TEXT	ENDS
;	COMDAT ?VTFromRegType@CRegParser@ATL@@KAHPBDAAG@Z
_TEXT	SEGMENT PARA USE32 PUBLIC 'CODE'
_TEXT	ENDS
;	COMDAT ??_C@_01CPLAODJH@S?$AA@
CONST	SEGMENT DWORD USE32 PUBLIC 'CONST'
CONST	ENDS
;	COMDAT ??_C@_01PLPBNMEI@M?$AA@
CONST	SEGMENT DWORD USE32 PUBLIC 'CONST'
CONST	ENDS
;	COMDAT ??_C@_01CKDDGHAB@D?$AA@
CONST	SEGMENT DWORD USE32 PUBLIC 'CONST'
CONST	ENDS
;	COMDAT ??_C@_01HMGJMAIH@B?$AA@
CONST	SEGMENT DWORD USE32 PUBLIC 'CONST'
CONST	ENDS
;	COMDAT ?map@?2??VTFromRegType@CRegParser@ATL@@KAHPBDAAG@Z@4QBUtypemap@23@B
_DATA	SEGMENT DWORD USE32 PUBLIC 'DATA'
_DATA	ENDS
;	COMDAT ?$S4@?2??VTFromRegType@CRegParser@ATL@@KAHPBDAAG@Z@4IA
_BSS	SEGMENT DWORD USE32 PUBLIC 'BSS'
_BSS	ENDS
;	COMDAT ??0?$CTempBuffer@D$0BAA@VCCRTAllocator@ATL@@@ATL@@QAE@XZ
_TEXT	SEGMENT PARA USE32 PUBLIC 'CODE'
_TEXT	ENDS
;	COMDAT ??1?$CTempBuffer@D$0BAA@VCCRTAllocator@ATL@@@ATL@@QAE@XZ
_TEXT	SEGMENT PARA USE32 PUBLIC 'CODE'
_TEXT	ENDS
;	COMDAT ?FreeHeap@?$CTempBuffer@D$0BAA@VCCRTAllocator@ATL@@@ATL@@AAEXXZ
_TEXT	SEGMENT PARA USE32 PUBLIC 'CODE'
_TEXT	ENDS
;	COMDAT ?Allocate@?$CTempBuffer@D$0BAA@VCCRTAllocator@ATL@@@ATL@@QAEPADI@Z
_TEXT	SEGMENT PARA USE32 PUBLIC 'CODE'
_TEXT	ENDS
;	COMDAT ?AllocateBytes@?$CTempBuffer@D$0BAA@VCCRTAllocator@ATL@@@ATL@@QAEPADI@Z
_TEXT	SEGMENT PARA USE32 PUBLIC 'CODE'
_TEXT	ENDS
;	COMDAT ?AllocateHeap@?$CTempBuffer@D$0BAA@VCCRTAllocator@ATL@@@ATL@@AAEXI@Z
_TEXT	SEGMENT PARA USE32 PUBLIC 'CODE'
_TEXT	ENDS
;	COMDAT ?SetMultiStringValue@CRegKey@ATL@@QAEJPBD0@Z
_TEXT	SEGMENT PARA USE32 PUBLIC 'CODE'
_TEXT	ENDS
;	COMDAT ??B?$CTempBuffer@D$0BAA@VCCRTAllocator@ATL@@@ATL@@QBEPADXZ
_TEXT	SEGMENT PARA USE32 PUBLIC 'CODE'
_TEXT	ENDS
;	COMDAT ?SetDWORDValue@CRegKey@ATL@@QAEJPBDK@Z
_TEXT	SEGMENT PARA USE32 PUBLIC 'CODE'
_TEXT	ENDS
;	COMDAT ??0?$CTempBuffer@E$0BAA@VCCRTAllocator@ATL@@@ATL@@QAE@XZ
_TEXT	SEGMENT PARA USE32 PUBLIC 'CODE'
_TEXT	ENDS
;	COMDAT ??1?$CTempBuffer@E$0BAA@VCCRTAllocator@ATL@@@ATL@@QAE@XZ
_TEXT	SEGMENT PARA USE32 PUBLIC 'CODE'
_TEXT	ENDS
;	COMDAT ?FreeHeap@?$CTempBuffer@E$0BAA@VCCRTAllocator@ATL@@@ATL@@AAEXXZ
_TEXT	SEGMENT PARA USE32 PUBLIC 'CODE'
_TEXT	ENDS
;	COMDAT ?Allocate@?$CTempBuffer@E$0BAA@VCCRTAllocator@ATL@@@ATL@@QAEPAEI@Z
_TEXT	SEGMENT PARA USE32 PUBLIC 'CODE'
_TEXT	ENDS
;	COMDAT ?AllocateBytes@?$CTempBuffer@E$0BAA@VCCRTAllocator@ATL@@@ATL@@QAEPAEI@Z
_TEXT	SEGMENT PARA USE32 PUBLIC 'CODE'
_TEXT	ENDS
;	COMDAT ?AllocateHeap@?$CTempBuffer@E$0BAA@VCCRTAllocator@ATL@@@ATL@@AAEXI@Z
_TEXT	SEGMENT PARA USE32 PUBLIC 'CODE'
_TEXT	ENDS
;	COMDAT ?ChToByte@CRegParser@ATL@@KAED@Z
_TEXT	SEGMENT PARA USE32 PUBLIC 'CODE'
_TEXT	ENDS
;	COMDAT ??B?$CTempBuffer@E$0BAA@VCCRTAllocator@ATL@@@ATL@@QBEPAEXZ
_TEXT	SEGMENT PARA USE32 PUBLIC 'CODE'
_TEXT	ENDS
;	COMDAT ?SkipAssignment@CRegParser@ATL@@IAEJPAD@Z
_TEXT	SEGMENT PARA USE32 PUBLIC 'CODE'
_TEXT	ENDS
;	COMDAT ?HasSubKeys@CRegParser@ATL@@IAEHPAUHKEY__@@@Z
_TEXT	SEGMENT PARA USE32 PUBLIC 'CODE'
_TEXT	ENDS
;	COMDAT ?CanForceRemoveKey@CRegParser@ATL@@IAEHPBD@Z
_TEXT	SEGMENT PARA USE32 PUBLIC 'CODE'
_TEXT	ENDS
;	COMDAT ?rgszNeverDelete@CRegParser@ATL@@1QBQBDB
CONST	SEGMENT DWORD USE32 PUBLIC 'CONST'
CONST	ENDS
;	COMDAT ??_C@_05GIBEAPNE@CLSID?$AA@
CONST	SEGMENT DWORD USE32 PUBLIC 'CONST'
CONST	ENDS
;	COMDAT ??_C@_0BF@HDDNNDFH@Component?5Categories?$AA@
CONST	SEGMENT DWORD USE32 PUBLIC 'CONST'
CONST	ENDS
;	COMDAT ??_C@_08PICKODJL@FileType?$AA@
CONST	SEGMENT DWORD USE32 PUBLIC 'CONST'
CONST	ENDS
;	COMDAT ??_C@_09JKPGEJCH@Interface?$AA@
CONST	SEGMENT DWORD USE32 PUBLIC 'CONST'
CONST	ENDS
;	COMDAT ??_C@_08PPIOJEA@Hardware?$AA@
CONST	SEGMENT DWORD USE32 PUBLIC 'CONST'
CONST	ENDS
;	COMDAT ??_C@_04IHBFOLAC@Mime?$AA@
CONST	SEGMENT DWORD USE32 PUBLIC 'CONST'
CONST	ENDS
;	COMDAT ??_C@_03DDIMFGBA@SAM?$AA@
CONST	SEGMENT DWORD USE32 PUBLIC 'CONST'
CONST	ENDS
;	COMDAT ??_C@_08LOPHEHKG@SECURITY?$AA@
CONST	SEGMENT DWORD USE32 PUBLIC 'CONST'
CONST	ENDS
;	COMDAT ??_C@_06FDHFNJBJ@SYSTEM?$AA@
CONST	SEGMENT DWORD USE32 PUBLIC 'CONST'
CONST	ENDS
;	COMDAT ??_C@_08KEKAJNJI@Software?$AA@
CONST	SEGMENT DWORD USE32 PUBLIC 'CONST'
CONST	ENDS
;	COMDAT ??_C@_07KJLOKDKB@TypeLib?$AA@
CONST	SEGMENT DWORD USE32 PUBLIC 'CONST'
CONST	ENDS
;	COMDAT ?RecurseDeleteKey@CRegKey@ATL@@QAEJPBD@Z
_TEXT	SEGMENT PARA USE32 PUBLIC 'CODE'
_TEXT	ENDS
;	COMDAT ?Attach@CRegKey@ATL@@QAEXPAUHKEY__@@@Z
_TEXT	SEGMENT PARA USE32 PUBLIC 'CODE'
_TEXT	ENDS
;	COMDAT ?DeleteSubKey@CRegKey@ATL@@QAEJPBD@Z
_TEXT	SEGMENT PARA USE32 PUBLIC 'CODE'
_TEXT	ENDS
;	COMDAT ?Detach@CRegKey@ATL@@QAEPAUHKEY__@@XZ
_TEXT	SEGMENT PARA USE32 PUBLIC 'CODE'
_TEXT	ENDS
;	COMDAT ?SkipWhiteSpace@CRegParser@ATL@@IAEXXZ
_TEXT	SEGMENT PARA USE32 PUBLIC 'CODE'
_TEXT	ENDS
;	COMDAT ??B?$CTempBuffer@D$0EAA@VCCRTAllocator@ATL@@@ATL@@QBEPADXZ
_TEXT	SEGMENT PARA USE32 PUBLIC 'CODE'
_TEXT	ENDS
;	COMDAT ?ResourceUnregister@CRegObject@ATL@@QAGJPBGI0@Z
_TEXT	SEGMENT PARA USE32 PUBLIC 'CODE'
_TEXT	ENDS
;	COMDAT ??_C@_1M@PPPPCDEP@?$AAA?$AAP?$AAP?$AAI?$AAD?$AA?$AA@
CONST	SEGMENT DWORD USE32 PUBLIC 'CONST'
CONST	ENDS
;	COMDAT ?m_libid@CAtlModule@ATL@@2U_GUID@@A
_DATA	SEGMENT DWORD USE32 PUBLIC 'DATA'
_DATA	ENDS
sxdata	SEGMENT DWORD USE32 'SXDATA'
sxdata	ENDS
FLAT	GROUP _DATA, CONST, _BSS
	ASSUME	CS: FLAT, DS: FLAT, SS: FLAT
endif

INCLUDELIB LIBCMT
INCLUDELIB OLDNAMES

PUBLIC	??_C@_05GIBEAPNE@CLSID?$AA@			; `string'
PUBLIC	??_C@_05PDIKPLII@AppID?$AA@			; `string'
PUBLIC	??_C@_01CPLAODJH@S?$AA@				; `string'
PUBLIC	??_C@_01PLPBNMEI@M?$AA@				; `string'
PUBLIC	??_C@_01CKDDGHAB@D?$AA@				; `string'
PUBLIC	??_C@_01HMGJMAIH@B?$AA@				; `string'
PUBLIC	??_C@_03LAIAPFCB@Val?$AA@			; `string'
PUBLIC	??_C@_0M@DBGDLGLL@ForceRemove?$AA@		; `string'
PUBLIC	??_C@_08KAAPDIAN@NoRemove?$AA@			; `string'
PUBLIC	??_C@_06JBKGCNBB@Delete?$AA@			; `string'
PUBLIC	?_pPerfRegFunc@ATL@@3P6AJPAUHINSTANCE__@@@ZA	; ATL::_pPerfRegFunc
PUBLIC	?_pPerfUnRegFunc@ATL@@3P6AJXZA			; ATL::_pPerfUnRegFunc
PUBLIC	?rgszNeverDelete@CRegParser@ATL@@1QBQBDB	; ATL::CRegParser::rgszNeverDelete
PUBLIC	_CLSID_StdGlobalInterfaceTable
PUBLIC	?g_pfnGetThreadACP@ATL@@3P6GIXZA		; ATL::g_pfnGetThreadACP
PUBLIC	?_AtlGetThreadACPThunk@ATL@@YGIXZ		; ATL::_AtlGetThreadACPThunk
PUBLIC	??_C@_0BF@HDDNNDFH@Component?5Categories?$AA@	; `string'
PUBLIC	??_C@_08PICKODJL@FileType?$AA@			; `string'
PUBLIC	??_C@_09JKPGEJCH@Interface?$AA@			; `string'
PUBLIC	??_C@_08PPIOJEA@Hardware?$AA@			; `string'
PUBLIC	??_C@_04IHBFOLAC@Mime?$AA@			; `string'
PUBLIC	??_C@_03DDIMFGBA@SAM?$AA@			; `string'
PUBLIC	??_C@_08LOPHEHKG@SECURITY?$AA@			; `string'
PUBLIC	??_C@_06FDHFNJBJ@SYSTEM?$AA@			; `string'
PUBLIC	??_C@_08KEKAJNJI@Software?$AA@			; `string'
PUBLIC	??_C@_07KJLOKDKB@TypeLib?$AA@			; `string'
PUBLIC	?_pAtlModule@ATL@@3PAVCAtlModule@1@A		; ATL::_pAtlModule
PUBLIC	?m_libid@CAtlModule@ATL@@2U_GUID@@A		; ATL::CAtlModule::m_libid
;	COMDAT ?_pPerfRegFunc@ATL@@3P6AJPAUHINSTANCE__@@@ZA
_BSS	SEGMENT
?_pPerfRegFunc@ATL@@3P6AJPAUHINSTANCE__@@@ZA DD 01H DUP (?) ; ATL::_pPerfRegFunc
_BSS	ENDS
;	COMDAT ?_pPerfUnRegFunc@ATL@@3P6AJXZA
_BSS	SEGMENT
?_pPerfUnRegFunc@ATL@@3P6AJXZA DD 01H DUP (?)		; ATL::_pPerfUnRegFunc
_BSS	ENDS
;	COMDAT ?_pAtlModule@ATL@@3PAVCAtlModule@1@A
_BSS	SEGMENT
?_pAtlModule@ATL@@3PAVCAtlModule@1@A DD 01H DUP (?)	; ATL::_pAtlModule
_BSS	ENDS
;	COMDAT ?m_libid@CAtlModule@ATL@@2U_GUID@@A
_BSS	SEGMENT
?m_libid@CAtlModule@ATL@@2U_GUID@@A DB 010H DUP (?)	; ATL::CAtlModule::m_libid
_BSS	ENDS
;	COMDAT ?g_pfnGetThreadACP@ATL@@3P6GIXZA
_DATA	SEGMENT
?g_pfnGetThreadACP@ATL@@3P6GIXZA DD FLAT:?_AtlGetThreadACPThunk@ATL@@YGIXZ ; ATL::g_pfnGetThreadACP
_DATA	ENDS
;	COMDAT _CLSID_StdGlobalInterfaceTable
CONST	SEGMENT
_CLSID_StdGlobalInterfaceTable DD 0323H
	DW	00H
	DW	00H
	DB	0c0H
	DB	00H
	DB	00H
	DB	00H
	DB	00H
	DB	00H
	DB	00H
	DB	046H
CONST	ENDS
;	COMDAT ??_C@_01CPLAODJH@S?$AA@
CONST	SEGMENT
??_C@_01CPLAODJH@S?$AA@ DB 'S', 00H			; `string'
CONST	ENDS
CONST	SEGMENT
_szStringVal DD	FLAT:??_C@_01CPLAODJH@S?$AA@
CONST	ENDS
;	COMDAT ??_C@_01PLPBNMEI@M?$AA@
CONST	SEGMENT
??_C@_01PLPBNMEI@M?$AA@ DB 'M', 00H			; `string'
CONST	ENDS
CONST	SEGMENT
_multiszStringVal DD FLAT:??_C@_01PLPBNMEI@M?$AA@
CONST	ENDS
;	COMDAT ??_C@_01CKDDGHAB@D?$AA@
CONST	SEGMENT
??_C@_01CKDDGHAB@D?$AA@ DB 'D', 00H			; `string'
CONST	ENDS
CONST	SEGMENT
_szDwordVal DD	FLAT:??_C@_01CKDDGHAB@D?$AA@
CONST	ENDS
;	COMDAT ??_C@_01HMGJMAIH@B?$AA@
CONST	SEGMENT
??_C@_01HMGJMAIH@B?$AA@ DB 'B', 00H			; `string'
CONST	ENDS
CONST	SEGMENT
_szBinaryVal DD	FLAT:??_C@_01HMGJMAIH@B?$AA@
CONST	ENDS
;	COMDAT ??_C@_03LAIAPFCB@Val?$AA@
CONST	SEGMENT
??_C@_03LAIAPFCB@Val?$AA@ DB 'Val', 00H			; `string'
CONST	ENDS
CONST	SEGMENT
_szValToken DD	FLAT:??_C@_03LAIAPFCB@Val?$AA@
CONST	ENDS
;	COMDAT ??_C@_0M@DBGDLGLL@ForceRemove?$AA@
CONST	SEGMENT
??_C@_0M@DBGDLGLL@ForceRemove?$AA@ DB 'ForceRemove', 00H ; `string'
CONST	ENDS
CONST	SEGMENT
_szForceRemove DD FLAT:??_C@_0M@DBGDLGLL@ForceRemove?$AA@
CONST	ENDS
;	COMDAT ??_C@_08KAAPDIAN@NoRemove?$AA@
CONST	SEGMENT
??_C@_08KAAPDIAN@NoRemove?$AA@ DB 'NoRemove', 00H	; `string'
CONST	ENDS
CONST	SEGMENT
_szNoRemove DD	FLAT:??_C@_08KAAPDIAN@NoRemove?$AA@
CONST	ENDS
;	COMDAT ??_C@_06JBKGCNBB@Delete?$AA@
CONST	SEGMENT
??_C@_06JBKGCNBB@Delete?$AA@ DB 'Delete', 00H		; `string'
CONST	ENDS
CONST	SEGMENT
_szDelete DD	FLAT:??_C@_06JBKGCNBB@Delete?$AA@
CONST	ENDS
;	COMDAT ??_C@_05PDIKPLII@AppID?$AA@
CONST	SEGMENT
??_C@_05PDIKPLII@AppID?$AA@ DB 'AppID', 00H		; `string'
CONST	ENDS
;	COMDAT ??_C@_05GIBEAPNE@CLSID?$AA@
CONST	SEGMENT
??_C@_05GIBEAPNE@CLSID?$AA@ DB 'CLSID', 00H		; `string'
CONST	ENDS
;	COMDAT ??_C@_0BF@HDDNNDFH@Component?5Categories?$AA@
CONST	SEGMENT
??_C@_0BF@HDDNNDFH@Component?5Categories?$AA@ DB 'Component Categories', 00H ; `string'
CONST	ENDS
;	COMDAT ??_C@_08PICKODJL@FileType?$AA@
CONST	SEGMENT
??_C@_08PICKODJL@FileType?$AA@ DB 'FileType', 00H	; `string'
CONST	ENDS
;	COMDAT ??_C@_09JKPGEJCH@Interface?$AA@
CONST	SEGMENT
??_C@_09JKPGEJCH@Interface?$AA@ DB 'Interface', 00H	; `string'
CONST	ENDS
;	COMDAT ??_C@_08PPIOJEA@Hardware?$AA@
CONST	SEGMENT
??_C@_08PPIOJEA@Hardware?$AA@ DB 'Hardware', 00H	; `string'
CONST	ENDS
;	COMDAT ??_C@_04IHBFOLAC@Mime?$AA@
CONST	SEGMENT
??_C@_04IHBFOLAC@Mime?$AA@ DB 'Mime', 00H		; `string'
CONST	ENDS
;	COMDAT ??_C@_03DDIMFGBA@SAM?$AA@
CONST	SEGMENT
??_C@_03DDIMFGBA@SAM?$AA@ DB 'SAM', 00H			; `string'
CONST	ENDS
;	COMDAT ??_C@_08LOPHEHKG@SECURITY?$AA@
CONST	SEGMENT
??_C@_08LOPHEHKG@SECURITY?$AA@ DB 'SECURITY', 00H	; `string'
CONST	ENDS
;	COMDAT ??_C@_06FDHFNJBJ@SYSTEM?$AA@
CONST	SEGMENT
??_C@_06FDHFNJBJ@SYSTEM?$AA@ DB 'SYSTEM', 00H		; `string'
CONST	ENDS
;	COMDAT ??_C@_08KEKAJNJI@Software?$AA@
CONST	SEGMENT
??_C@_08KEKAJNJI@Software?$AA@ DB 'Software', 00H	; `string'
CONST	ENDS
;	COMDAT ??_C@_07KJLOKDKB@TypeLib?$AA@
CONST	SEGMENT
??_C@_07KJLOKDKB@TypeLib?$AA@ DB 'TypeLib', 00H		; `string'
CONST	ENDS
;	COMDAT ?rgszNeverDelete@CRegParser@ATL@@1QBQBDB
CONST	SEGMENT
?rgszNeverDelete@CRegParser@ATL@@1QBQBDB DD FLAT:??_C@_05PDIKPLII@AppID?$AA@ ; ATL::CRegParser::rgszNeverDelete
	DD	FLAT:??_C@_05GIBEAPNE@CLSID?$AA@
	DD	FLAT:??_C@_0BF@HDDNNDFH@Component?5Categories?$AA@
	DD	FLAT:??_C@_08PICKODJL@FileType?$AA@
	DD	FLAT:??_C@_09JKPGEJCH@Interface?$AA@
	DD	FLAT:??_C@_08PPIOJEA@Hardware?$AA@
	DD	FLAT:??_C@_04IHBFOLAC@Mime?$AA@
	DD	FLAT:??_C@_03DDIMFGBA@SAM?$AA@
	DD	FLAT:??_C@_08LOPHEHKG@SECURITY?$AA@
	DD	FLAT:??_C@_06FDHFNJBJ@SYSTEM?$AA@
	DD	FLAT:??_C@_08KEKAJNJI@Software?$AA@
	DD	FLAT:??_C@_07KJLOKDKB@TypeLib?$AA@
CONST	ENDS
PUBLIC	?OnSM_DELSESSION_REQ@CTControlSvrModule@@IAEKPAUtagPACKETBUF@@@Z ; CTControlSvrModule::OnSM_DELSESSION_REQ
EXTRN	__imp__PostQueuedCompletionStatus@16:NEAR
; Function compile flags: /Ogty
; File c:\users\pierr\desktop\4story - oldschool\sources\tserver\tcontrolsvr\handler.cpp
;	COMDAT ?OnSM_DELSESSION_REQ@CTControlSvrModule@@IAEKPAUtagPACKETBUF@@@Z
_TEXT	SEGMENT
_pBUF$ = 8						; size = 4
?OnSM_DELSESSION_REQ@CTControlSvrModule@@IAEKPAUtagPACKETBUF@@@Z PROC NEAR ; CTControlSvrModule::OnSM_DELSESSION_REQ, COMDAT
; _this$ = ecx

; 7    : 	PostQueuedCompletionStatus(
; 8    : 		m_hIocpControl, 0,
; 9    : 		COMP_CLOSE,
; 10   : 		(LPOVERLAPPED) pBUF->m_pSESSION);

  00000	8b 44 24 04	 mov	 eax, DWORD PTR _pBUF$[esp-4]
  00004	8b 10		 mov	 edx, DWORD PTR [eax]
  00006	8b 81 64 12 00
	00		 mov	 eax, DWORD PTR [ecx+4708]
  0000c	52		 push	 edx
  0000d	6a 03		 push	 3
  0000f	6a 00		 push	 0
  00011	50		 push	 eax
  00012	ff 15 00 00 00
	00		 call	 DWORD PTR __imp__PostQueuedCompletionStatus@16

; 11   : 
; 12   : 	return EC_NOERROR;

  00018	33 c0		 xor	 eax, eax

; 13   : }

  0001a	c2 04 00	 ret	 4
?OnSM_DELSESSION_REQ@CTControlSvrModule@@IAEKPAUtagPACKETBUF@@@Z ENDP ; CTControlSvrModule::OnSM_DELSESSION_REQ
_TEXT	ENDS
PUBLIC	?OnCT_SERVICESTAT_REQ@CTControlSvrModule@@IAEKPAUtagPACKETBUF@@@Z ; CTControlSvrModule::OnCT_SERVICESTAT_REQ
EXTRN	?SendCT_SERVICESTAT_ACK@CTManager@@QAEXPAV?$map@KPAUtagTSVRTEMP@@U?$less@K@std@@V?$allocator@U?$pair@$$CBKPAUtagTSVRTEMP@@@std@@@3@@std@@@Z:NEAR ; CTManager::SendCT_SERVICESTAT_ACK
; Function compile flags: /Ogty
;	COMDAT ?OnCT_SERVICESTAT_REQ@CTControlSvrModule@@IAEKPAUtagPACKETBUF@@@Z
_TEXT	SEGMENT
_pBUF$ = 8						; size = 4
?OnCT_SERVICESTAT_REQ@CTControlSvrModule@@IAEKPAUtagPACKETBUF@@@Z PROC NEAR ; CTControlSvrModule::OnCT_SERVICESTAT_REQ, COMDAT
; _this$ = ecx

; 91   : 	CTManager * pManager = (CTManager *)pBUF->m_pSESSION;
; 92   : 	pManager->SendCT_SERVICESTAT_ACK(&m_mapTSVRTEMP);

  00000	8b 44 24 04	 mov	 eax, DWORD PTR _pBUF$[esp-4]
  00004	81 c1 7c 01 00
	00		 add	 ecx, 380		; 0000017cH
  0000a	51		 push	 ecx
  0000b	8b 08		 mov	 ecx, DWORD PTR [eax]
  0000d	e8 00 00 00 00	 call	 ?SendCT_SERVICESTAT_ACK@CTManager@@QAEXPAV?$map@KPAUtagTSVRTEMP@@U?$less@K@std@@V?$allocator@U?$pair@$$CBKPAUtagTSVRTEMP@@@std@@@3@@std@@@Z ; CTManager::SendCT_SERVICESTAT_ACK

; 93   : 	return EC_NOERROR;

  00012	33 c0		 xor	 eax, eax

; 94   : }

  00014	c2 04 00	 ret	 4
?OnCT_SERVICESTAT_REQ@CTControlSvrModule@@IAEKPAUtagPACKETBUF@@@Z ENDP ; CTControlSvrModule::OnCT_SERVICESTAT_REQ
_TEXT	ENDS
PUBLIC	?InterlockedExchangePointer@@YGPAXPAPAXPAX@Z	; InterlockedExchangePointer
EXTRN	__imp__InterlockedExchange@8:NEAR
; Function compile flags: /Ogty
; File c:\program files (x86)\microsoft visual studio .net 2003\vc7\atlmfc\include\atlconv.h
;	COMDAT ?InterlockedExchangePointer@@YGPAXPAPAXPAX@Z
_TEXT	SEGMENT
_pp$ = 8						; size = 4
_pNew$ = 12						; size = 4
?InterlockedExchangePointer@@YGPAXPAPAXPAX@Z PROC NEAR	; InterlockedExchangePointer, COMDAT

; 92   : 	return( reinterpret_cast<void*>(static_cast<LONG_PTR>(::InterlockedExchange(reinterpret_cast<LONG*>(pp), static_cast<LONG>(reinterpret_cast<LONG_PTR>(pNew))))) );

  00000	ff 25 00 00 00
	00		 jmp	 DWORD PTR __imp__InterlockedExchange@8
?InterlockedExchangePointer@@YGPAXPAPAXPAX@Z ENDP	; InterlockedExchangePointer
_TEXT	ENDS
PUBLIC	?_AtlGetThreadACPFake@ATL@@YGIXZ		; ATL::_AtlGetThreadACPFake
EXTRN	___security_cookie:DWORD
EXTRN	@__security_check_cookie@4:NEAR
EXTRN	__imp__GetACP@0:NEAR
EXTRN	__imp__GetLocaleInfoA@16:NEAR
EXTRN	__imp__GetThreadLocale@0:NEAR
; Function compile flags: /Ogty
;	COMDAT ?_AtlGetThreadACPFake@ATL@@YGIXZ
_TEXT	SEGMENT
_szACP$ = -12						; size = 7
__$ArrayPad$ = -4					; size = 4
__$ReturnAddr$ = 4					; size = 4
?_AtlGetThreadACPFake@ATL@@YGIXZ PROC NEAR		; ATL::_AtlGetThreadACPFake, COMDAT

; 101  : {

  00000	83 ec 0c	 sub	 esp, 12			; 0000000cH
  00003	a1 00 00 00 00	 mov	 eax, DWORD PTR ___security_cookie
  00008	56		 push	 esi
  00009	89 44 24 0c	 mov	 DWORD PTR __$ArrayPad$[esp+16], eax

; 102  : 	UINT nACP = 0;

  0000d	33 f6		 xor	 esi, esi

; 103  : 
; 104  : 	LCID lcidThread = ::GetThreadLocale();

  0000f	ff 15 00 00 00
	00		 call	 DWORD PTR __imp__GetThreadLocale@0

; 105  : 
; 106  : 	char szACP[7];
; 107  : 	// GetLocaleInfoA will fail for a Unicode-only LCID, but those are only supported on 
; 108  : 	// Windows 2000.  Since Windows 2000 supports CP_THREAD_ACP, this code path is never
; 109  : 	// executed on Windows 2000.
; 110  : 	if (::GetLocaleInfoA(lcidThread, LOCALE_IDEFAULTANSICODEPAGE, szACP, 7) != 0)

  00015	6a 07		 push	 7
  00017	8d 4c 24 08	 lea	 ecx, DWORD PTR _szACP$[esp+20]
  0001b	51		 push	 ecx
  0001c	68 04 10 00 00	 push	 4100			; 00001004H
  00021	50		 push	 eax
  00022	ff 15 00 00 00
	00		 call	 DWORD PTR __imp__GetLocaleInfoA@16
  00028	85 c0		 test	 eax, eax
  0002a	74 21		 je	 SHORT $L99466

; 111  : 	{
; 112  : 		char* pch = szACP;
; 113  : 		while (*pch != '\0')

  0002c	8a 44 24 04	 mov	 al, BYTE PTR _szACP$[esp+16]
  00030	84 c0		 test	 al, al
  00032	8d 4c 24 04	 lea	 ecx, DWORD PTR _szACP$[esp+16]
  00036	74 15		 je	 SHORT $L99466
$L21114:

; 114  : 		{
; 115  : 			nACP *= 10;
; 116  : 			nACP += *pch++ - '0';

  00038	0f be c0	 movsx	 eax, al
  0003b	8d 14 b6	 lea	 edx, DWORD PTR [esi+esi*4]
  0003e	41		 inc	 ecx
  0003f	8d 74 50 d0	 lea	 esi, DWORD PTR [eax+edx*2-48]
  00043	8a 01		 mov	 al, BYTE PTR [ecx]
  00045	84 c0		 test	 al, al
  00047	75 ef		 jne	 SHORT $L21114

; 117  : 		}
; 118  : 	}
; 119  : 	// Use the Default ANSI Code Page if we were unable to get the thread ACP or if one does not exist.
; 120  : 	if (nACP == 0)

  00049	85 f6		 test	 esi, esi
  0004b	75 14		 jne	 SHORT $L99467
$L99466:

; 121  : 		nACP = ::GetACP();

  0004d	ff 15 00 00 00
	00		 call	 DWORD PTR __imp__GetACP@0
  00053	5e		 pop	 esi

; 122  : 
; 123  : 	return nACP;
; 124  : }

  00054	8b 4c 24 08	 mov	 ecx, DWORD PTR __$ArrayPad$[esp+12]
  00058	e8 00 00 00 00	 call	 @__security_check_cookie@4
  0005d	83 c4 0c	 add	 esp, 12			; 0000000cH
  00060	c3		 ret	 0
$L99467:
  00061	8b 4c 24 0c	 mov	 ecx, DWORD PTR __$ArrayPad$[esp+16]
  00065	8b c6		 mov	 eax, esi
  00067	5e		 pop	 esi
  00068	e8 00 00 00 00	 call	 @__security_check_cookie@4
  0006d	83 c4 0c	 add	 esp, 12			; 0000000cH
  00070	c3		 ret	 0
?_AtlGetThreadACPFake@ATL@@YGIXZ ENDP			; ATL::_AtlGetThreadACPFake
_TEXT	ENDS
PUBLIC	?_AtlGetThreadACPReal@ATL@@YGIXZ		; ATL::_AtlGetThreadACPReal
; Function compile flags: /Ogty
;	COMDAT ?_AtlGetThreadACPReal@ATL@@YGIXZ
_TEXT	SEGMENT
?_AtlGetThreadACPReal@ATL@@YGIXZ PROC NEAR		; ATL::_AtlGetThreadACPReal, COMDAT

; 128  : 	return( CP_THREAD_ACP );

  00000	b8 03 00 00 00	 mov	 eax, 3

; 129  : }

  00005	c3		 ret	 0
?_AtlGetThreadACPReal@ATL@@YGIXZ ENDP			; ATL::_AtlGetThreadACPReal
_TEXT	ENDS
EXTRN	__imp__GetVersionExA@4:NEAR
; Function compile flags: /Ogty
;	COMDAT ?_AtlGetThreadACPThunk@ATL@@YGIXZ
_TEXT	SEGMENT
_ver$ = -152						; size = 148
__$ArrayPad$ = -4					; size = 4
__$ReturnAddr$ = 4					; size = 4
?_AtlGetThreadACPThunk@ATL@@YGIXZ PROC NEAR		; ATL::_AtlGetThreadACPThunk, COMDAT

; 134  : {

  00000	81 ec 98 00 00
	00		 sub	 esp, 152		; 00000098H
  00006	a1 00 00 00 00	 mov	 eax, DWORD PTR ___security_cookie
  0000b	89 84 24 94 00
	00 00		 mov	 DWORD PTR __$ArrayPad$[esp+152], eax

; 135  : 	OSVERSIONINFO ver;
; 136  : 	ATLGETTHREADACP pfnGetThreadACP;
; 137  : 
; 138  : 	ver.dwOSVersionInfoSize = sizeof( ver );
; 139  : 	::GetVersionEx( &ver );

  00012	8d 04 24	 lea	 eax, DWORD PTR _ver$[esp+152]
  00015	50		 push	 eax
  00016	c7 44 24 04 94
	00 00 00	 mov	 DWORD PTR _ver$[esp+156], 148 ; 00000094H
  0001e	ff 15 00 00 00
	00		 call	 DWORD PTR __imp__GetVersionExA@4

; 140  : 	if( (ver.dwPlatformId == VER_PLATFORM_WIN32_NT) && (ver.dwMajorVersion >= 5) )

  00024	83 7c 24 10 02	 cmp	 DWORD PTR _ver$[esp+168], 2
  00029	75 0c		 jne	 SHORT $L21124
  0002b	83 7c 24 04 05	 cmp	 DWORD PTR _ver$[esp+156], 5

; 141  : 	{
; 142  : 		// On Win2K, CP_THREAD_ACP is supported
; 143  : 		pfnGetThreadACP = _AtlGetThreadACPReal;

  00030	b8 00 00 00 00	 mov	 eax, OFFSET FLAT:?_AtlGetThreadACPReal@ATL@@YGIXZ ; ATL::_AtlGetThreadACPReal
  00035	73 05		 jae	 SHORT $L21125
$L21124:

; 144  : 	}
; 145  : 	else
; 146  : 	{
; 147  : 		pfnGetThreadACP = _AtlGetThreadACPFake;

  00037	b8 00 00 00 00	 mov	 eax, OFFSET FLAT:?_AtlGetThreadACPFake@ATL@@YGIXZ ; ATL::_AtlGetThreadACPFake
$L21125:

; 148  : 	}
; 149  : 	InterlockedExchangePointer( reinterpret_cast< void** >(&g_pfnGetThreadACP), pfnGetThreadACP );

  0003c	50		 push	 eax
  0003d	68 00 00 00 00	 push	 OFFSET FLAT:?g_pfnGetThreadACP@ATL@@3P6GIXZA ; ATL::g_pfnGetThreadACP
  00042	ff 15 00 00 00
	00		 call	 DWORD PTR __imp__InterlockedExchange@8

; 150  : 
; 151  : 	return( g_pfnGetThreadACP() );

  00048	ff 15 00 00 00
	00		 call	 DWORD PTR ?g_pfnGetThreadACP@ATL@@3P6GIXZA ; ATL::g_pfnGetThreadACP

; 152  : }

  0004e	8b 8c 24 94 00
	00 00		 mov	 ecx, DWORD PTR __$ArrayPad$[esp+152]
  00055	e8 00 00 00 00	 call	 @__security_check_cookie@4
  0005a	81 c4 98 00 00
	00		 add	 esp, 152		; 00000098H
  00060	c3		 ret	 0
?_AtlGetThreadACPThunk@ATL@@YGIXZ ENDP			; ATL::_AtlGetThreadACPThunk
_TEXT	ENDS
PUBLIC	?_AtlGetConversionACP@ATL@@YGIXZ		; ATL::_AtlGetConversionACP
; Function compile flags: /Ogty
;	COMDAT ?_AtlGetConversionACP@ATL@@YGIXZ
_TEXT	SEGMENT
?_AtlGetConversionACP@ATL@@YGIXZ PROC NEAR		; ATL::_AtlGetConversionACP, COMDAT

; 158  : 	return( g_pfnGetThreadACP() );

  00000	ff 25 00 00 00
	00		 jmp	 DWORD PTR ?g_pfnGetThreadACP@ATL@@3P6GIXZA ; ATL::g_pfnGetThreadACP
?_AtlGetConversionACP@ATL@@YGIXZ ENDP			; ATL::_AtlGetConversionACP
_TEXT	ENDS
PUBLIC	?OnCT_SERVICEUPLOAD_REQ@CTControlSvrModule@@IAEKPAUtagPACKETBUF@@@Z ; CTControlSvrModule::OnCT_SERVICEUPLOAD_REQ
EXTRN	??5CPacket@@QAEAAV0@AAG@Z:NEAR			; CPacket::operator>>
EXTRN	??5CPacket@@QAEAAV0@AAE@Z:NEAR			; CPacket::operator>>
EXTRN	_fwrite:NEAR
EXTRN	?SendCT_SERVICEUPLOAD_ACK@CTManager@@QAEXXZ:NEAR ; CTManager::SendCT_SERVICEUPLOAD_ACK
EXTRN	?SendCT_SERVICEUPLOADEND_ACK@CTManager@@QAEXE@Z:NEAR ; CTManager::SendCT_SERVICEUPLOADEND_ACK
EXTRN	?UploadEnd@CTControlSvrModule@@IAEXXZ:NEAR	; CTControlSvrModule::UploadEnd
; Function compile flags: /Ogty
; File c:\users\pierr\desktop\4story - oldschool\sources\tserver\tcontrolsvr\handler.cpp
;	COMDAT ?OnCT_SERVICEUPLOAD_REQ@CTControlSvrModule@@IAEKPAUtagPACKETBUF@@@Z
_TEXT	SEGMENT
_wSize$ = -1044						; size = 2
_pManager$ = -1040					; size = 4
_this$ = -1036						; size = 4
_data$ = -1032						; size = 1024
__$ArrayPad$ = -4					; size = 4
__$ReturnAddr$ = 4					; size = 4
_pBUF$ = 8						; size = 4
?OnCT_SERVICEUPLOAD_REQ@CTControlSvrModule@@IAEKPAUtagPACKETBUF@@@Z PROC NEAR ; CTControlSvrModule::OnCT_SERVICEUPLOAD_REQ, COMDAT
; _this$ = ecx

; 398  : {

  00000	55		 push	 ebp
  00001	8b ec		 mov	 ebp, esp
  00003	83 e4 f8	 and	 esp, -8			; fffffff8H
  00006	81 ec 14 04 00
	00		 sub	 esp, 1044		; 00000414H
  0000c	a1 00 00 00 00	 mov	 eax, DWORD PTR ___security_cookie
  00011	53		 push	 ebx

; 399  : 	CTManager *pManager = (CTManager *)pBUF->m_pSESSION;

  00012	8b 5d 08	 mov	 ebx, DWORD PTR _pBUF$[ebp]
  00015	56		 push	 esi
  00016	8b f1		 mov	 esi, ecx
  00018	89 84 24 18 04
	00 00		 mov	 DWORD PTR __$ArrayPad$[esp+1052], eax

; 400  : 
; 401  : 	if(!m_fileTemp)

  0001f	8b 86 3c 02 00
	00		 mov	 eax, DWORD PTR [esi+572]
  00025	85 c0		 test	 eax, eax
  00027	57		 push	 edi
  00028	8b 3b		 mov	 edi, DWORD PTR [ebx]
  0002a	89 74 24 14	 mov	 DWORD PTR _this$[esp+1056], esi
  0002e	89 7c 24 10	 mov	 DWORD PTR _pManager$[esp+1056], edi

; 402  : 		return EC_NOERROR;

  00032	0f 84 b4 00 00
	00		 je	 $L99493

; 403  : 
; 404  : 	/*
; 405  : 	DWORD dwSize = pBUF->m_packet.GetSize()-PACKET_HEADER_SIZE;
; 406  : 	if(!dwSize)
; 407  : 	{
; 408  : 		pManager->SendCT_SERVICEUPLOADEND_ACK(4);
; 409  : 		pManager->m_bUpload = FALSE;
; 410  : 		UploadEnd();
; 411  : 		return EC_NOERROR;
; 412  : 	}
; 413  : 
; 414  : 	BYTE data[DEF_PACKET_SIZE];
; 415  : 	memcpy(data, pBUF->m_packet.GetBuffer()+PACKET_HEADER_SIZE, dwSize);
; 416  : 
; 417  : 	size_t dwWrote = fwrite(data, sizeof(BYTE), dwSize, m_fileTemp);
; 418  : 	if(dwWrote != dwSize)
; 419  : 	{
; 420  : 		pManager->SendCT_SERVICEUPLOADEND_ACK(4);
; 421  : 		pManager->m_bUpload = FALSE;
; 422  : 		UploadEnd();
; 423  : 		return EC_NOERROR;
; 424  : 	}
; 425  : 	*/
; 426  : 
; 427  : 	WORD wSize;
; 428  : 	pBUF->m_packet
; 429  : 		>> wSize;

  00038	8d 44 24 0c	 lea	 eax, DWORD PTR _wSize$[esp+1056]
  0003c	83 c3 04	 add	 ebx, 4
  0003f	50		 push	 eax
  00040	8b cb		 mov	 ecx, ebx
  00042	e8 00 00 00 00	 call	 ??5CPacket@@QAEAAV0@AAG@Z ; CPacket::operator>>

; 430  : 
; 431  : 	if(!wSize)

  00047	66 8b 54 24 0c	 mov	 dx, WORD PTR _wSize$[esp+1056]
  0004c	66 85 d2	 test	 dx, dx

; 432  : 	{
; 433  : 		pManager->SendCT_SERVICEUPLOADEND_ACK(4);
; 434  : 		pManager->m_bUpload = FALSE;
; 435  : 		UploadEnd();
; 436  : 		return EC_NOERROR;

  0004f	74 64		 je	 SHORT $L99495

; 437  : 	}
; 438  : 	
; 439  : 	BYTE data[DEF_PACKET_SIZE]={0};

  00051	33 c0		 xor	 eax, eax
  00053	c6 44 24 18 00	 mov	 BYTE PTR _data$[esp+1056], 0
  00058	b9 ff 00 00 00	 mov	 ecx, 255		; 000000ffH
  0005d	8d 7c 24 19	 lea	 edi, DWORD PTR _data$[esp+1057]
  00061	f3 ab		 rep stosd
  00063	66 ab		 stosw

; 440  : 	for(WORD i=0; i<wSize; i++)

  00065	33 f6		 xor	 esi, esi
  00067	66 85 d2	 test	 dx, dx
  0006a	aa		 stosb
  0006b	76 1d		 jbe	 SHORT $L92732
  0006d	8d 49 00	 npad	 3
$L92730:

; 441  : 		pBUF->m_packet
; 442  : 			>> data[i];

  00070	0f b7 ce	 movzx	 ecx, si
  00073	8d 54 0c 18	 lea	 edx, DWORD PTR _data$[esp+ecx+1056]
  00077	52		 push	 edx
  00078	8b cb		 mov	 ecx, ebx
  0007a	e8 00 00 00 00	 call	 ??5CPacket@@QAEAAV0@AAE@Z ; CPacket::operator>>
  0007f	66 8b 54 24 0c	 mov	 dx, WORD PTR _wSize$[esp+1056]
  00084	46		 inc	 esi
  00085	66 3b f2	 cmp	 si, dx
  00088	72 e6		 jb	 SHORT $L92730
$L92732:

; 443  : 	size_t wWrote = fwrite(data, sizeof(BYTE), wSize, m_fileTemp);

  0008a	8b 74 24 14	 mov	 esi, DWORD PTR _this$[esp+1056]
  0008e	8b 86 3c 02 00
	00		 mov	 eax, DWORD PTR [esi+572]
  00094	0f b7 ca	 movzx	 ecx, dx
  00097	50		 push	 eax
  00098	51		 push	 ecx
  00099	8d 54 24 20	 lea	 edx, DWORD PTR _data$[esp+1064]
  0009d	6a 01		 push	 1
  0009f	52		 push	 edx
  000a0	e8 00 00 00 00	 call	 _fwrite

; 444  : 	if(wWrote != wSize)

  000a5	0f b7 4c 24 1c	 movzx	 ecx, WORD PTR _wSize$[esp+1072]
  000aa	83 c4 10	 add	 esp, 16			; 00000010H
  000ad	3b c1		 cmp	 eax, ecx
  000af	74 32		 je	 SHORT $L92735

; 445  : 	{
; 446  : 		pManager->SendCT_SERVICEUPLOADEND_ACK(4);

  000b1	8b 7c 24 10	 mov	 edi, DWORD PTR _pManager$[esp+1056]
$L99495:
  000b5	6a 04		 push	 4
  000b7	8b cf		 mov	 ecx, edi
  000b9	e8 00 00 00 00	 call	 ?SendCT_SERVICEUPLOADEND_ACK@CTManager@@QAEXE@Z ; CTManager::SendCT_SERVICEUPLOADEND_ACK

; 447  : 		pManager->m_bUpload = FALSE;
; 448  : 		UploadEnd();

  000be	8b ce		 mov	 ecx, esi
  000c0	c6 87 01 01 01
	00 00		 mov	 BYTE PTR [edi+65793], 0
  000c7	e8 00 00 00 00	 call	 ?UploadEnd@CTControlSvrModule@@IAEXXZ ; CTControlSvrModule::UploadEnd

; 453  : 
; 454  : 	return EC_NOERROR;

  000cc	33 c0		 xor	 eax, eax

; 455  : }

  000ce	8b 8c 24 1c 04
	00 00		 mov	 ecx, DWORD PTR __$ArrayPad$[esp+1056]
  000d5	e8 00 00 00 00	 call	 @__security_check_cookie@4
  000da	5f		 pop	 edi
  000db	5e		 pop	 esi
  000dc	5b		 pop	 ebx
  000dd	8b e5		 mov	 esp, ebp
  000df	5d		 pop	 ebp
  000e0	c2 04 00	 ret	 4
$L92735:

; 449  : 		return EC_NOERROR;
; 450  : 	}
; 451  : 
; 452  : 	pManager->SendCT_SERVICEUPLOAD_ACK();

  000e3	8b 4c 24 10	 mov	 ecx, DWORD PTR _pManager$[esp+1056]
  000e7	e8 00 00 00 00	 call	 ?SendCT_SERVICEUPLOAD_ACK@CTManager@@QAEXXZ ; CTManager::SendCT_SERVICEUPLOAD_ACK
$L99493:

; 455  : }

  000ec	8b 8c 24 1c 04
	00 00		 mov	 ecx, DWORD PTR __$ArrayPad$[esp+1056]
  000f3	33 c0		 xor	 eax, eax
  000f5	e8 00 00 00 00	 call	 @__security_check_cookie@4
  000fa	5f		 pop	 edi
  000fb	5e		 pop	 esi
  000fc	5b		 pop	 ebx
  000fd	8b e5		 mov	 esp, ebp
  000ff	5d		 pop	 ebp
  00100	c2 04 00	 ret	 4
?OnCT_SERVICEUPLOAD_REQ@CTControlSvrModule@@IAEKPAUtagPACKETBUF@@@Z ENDP ; CTControlSvrModule::OnCT_SERVICEUPLOAD_REQ
_TEXT	ENDS
PUBLIC	??0CAtlException@ATL@@QAE@J@Z			; ATL::CAtlException::CAtlException
; Function compile flags: /Ogty
; File c:\program files (x86)\microsoft visual studio .net 2003\vc7\atlmfc\include\atlexcept.h
;	COMDAT ??0CAtlException@ATL@@QAE@J@Z
_TEXT	SEGMENT
_hr$ = 8						; size = 4
??0CAtlException@ATL@@QAE@J@Z PROC NEAR			; ATL::CAtlException::CAtlException, COMDAT
; _this$ = ecx

; 40   : 	{

  00000	8b c1		 mov	 eax, ecx
  00002	8b 4c 24 04	 mov	 ecx, DWORD PTR _hr$[esp-4]
  00006	89 08		 mov	 DWORD PTR [eax], ecx

; 41   : 	}

  00008	c2 04 00	 ret	 4
??0CAtlException@ATL@@QAE@J@Z ENDP			; ATL::CAtlException::CAtlException
_TEXT	ENDS
PUBLIC	?AtlThrow@ATL@@YGXJ@Z				; ATL::AtlThrow
PUBLIC	__TI1?AVCAtlException@ATL@@
PUBLIC	__CTA1?AVCAtlException@ATL@@
PUBLIC	??_R0?AVCAtlException@ATL@@@8			; ATL::CAtlException `RTTI Type Descriptor'
PUBLIC	__CT??_R0?AVCAtlException@ATL@@@84
EXTRN	??_7type_info@@6B@:DWORD			; type_info::`vftable'
EXTRN	__CxxThrowException@8:NEAR
;	COMDAT __TI1?AVCAtlException@ATL@@
xdata$x	SEGMENT
__TI1?AVCAtlException@ATL@@ DD 00H
	DD	00H
	DD	00H
	DD	FLAT:__CTA1?AVCAtlException@ATL@@
xdata$x	ENDS
;	COMDAT __CTA1?AVCAtlException@ATL@@
xdata$x	SEGMENT
__CTA1?AVCAtlException@ATL@@ DD 01H
	DD	FLAT:__CT??_R0?AVCAtlException@ATL@@@84
xdata$x	ENDS
;	COMDAT __CT??_R0?AVCAtlException@ATL@@@84
xdata$x	SEGMENT
__CT??_R0?AVCAtlException@ATL@@@84 DD 00H
	DD	FLAT:??_R0?AVCAtlException@ATL@@@8
	DD	00H
	DD	0ffffffffH
	ORG $+4
	DD	04H
	DD	00H
xdata$x	ENDS
;	COMDAT ??_R0?AVCAtlException@ATL@@@8
_DATA	SEGMENT
??_R0?AVCAtlException@ATL@@@8 DD FLAT:??_7type_info@@6B@ ; ATL::CAtlException `RTTI Type Descriptor'
	DD	00H
	DB	'.?AVCAtlException@ATL@@', 00H
; Function compile flags: /Ogty
_DATA	ENDS
;	COMDAT ?AtlThrow@ATL@@YGXJ@Z
_TEXT	SEGMENT
$T99501 = 8						; size = 4
_hr$ = 8						; size = 4
?AtlThrow@ATL@@YGXJ@Z PROC NEAR				; ATL::AtlThrow, COMDAT

; 62   : 	ATLTRACE(atlTraceException, 0, _T("AtlThrow: hr = 0x%x\n"), hr );
; 63   : #ifdef _AFX
; 64   : 	if( hr == E_OUTOFMEMORY )
; 65   : 	{
; 66   : 		AfxThrowMemoryException();
; 67   : 	}
; 68   : 	else
; 69   : 	{
; 70   : 		AfxThrowOleException( hr );
; 71   : 	}
; 72   : #else
; 73   : 	throw CAtlException( hr );

  00000	8b 44 24 04	 mov	 eax, DWORD PTR _hr$[esp-4]
  00004	68 00 00 00 00	 push	 OFFSET FLAT:__TI1?AVCAtlException@ATL@@
  00009	8d 4c 24 08	 lea	 ecx, DWORD PTR $T99501[esp]
  0000d	51		 push	 ecx
  0000e	89 44 24 0c	 mov	 DWORD PTR $T99501[esp+4], eax
  00012	e8 00 00 00 00	 call	 __CxxThrowException@8
$L99508:
$L99507:
  00017	cc		 int	 3
?AtlThrow@ATL@@YGXJ@Z ENDP				; ATL::AtlThrow
_TEXT	ENDS
PUBLIC	?_AtlGetStringResourceImage@ATL@@YAPBUATLSTRINGRESOURCEIMAGE@1@PAUHINSTANCE__@@PAUHRSRC__@@I@Z ; ATL::_AtlGetStringResourceImage
EXTRN	__imp__LockResource@4:NEAR
EXTRN	__imp__LoadResource@8:NEAR
EXTRN	__imp__SizeofResource@8:NEAR
; Function compile flags: /Ogty
; File c:\program files (x86)\microsoft visual studio .net 2003\vc7\atlmfc\include\atlcore.h
;	COMDAT ?_AtlGetStringResourceImage@ATL@@YAPBUATLSTRINGRESOURCEIMAGE@1@PAUHINSTANCE__@@PAUHRSRC__@@I@Z
_TEXT	SEGMENT
_hInstance$ = 8						; size = 4
_hResource$ = 12					; size = 4
_id$ = 16						; size = 4
?_AtlGetStringResourceImage@ATL@@YAPBUATLSTRINGRESOURCEIMAGE@1@PAUHINSTANCE__@@PAUHRSRC__@@I@Z PROC NEAR ; ATL::_AtlGetStringResourceImage, COMDAT

; 239  : {

  00000	53		 push	 ebx

; 240  : 	const ATLSTRINGRESOURCEIMAGE* pImage;
; 241  : 	const ATLSTRINGRESOURCEIMAGE* pImageEnd;
; 242  : 	ULONG nResourceSize;
; 243  : 	HGLOBAL hGlobal;
; 244  : 	UINT iIndex;
; 245  : 
; 246  : 	hGlobal = ::LoadResource( hInstance, hResource );

  00001	8b 5c 24 08	 mov	 ebx, DWORD PTR _hInstance$[esp]
  00005	57		 push	 edi
  00006	8b 7c 24 10	 mov	 edi, DWORD PTR _hResource$[esp+4]
  0000a	57		 push	 edi
  0000b	53		 push	 ebx
  0000c	ff 15 00 00 00
	00		 call	 DWORD PTR __imp__LoadResource@8

; 247  : 	if( hGlobal == NULL )

  00012	85 c0		 test	 eax, eax
  00014	75 03		 jne	 SHORT $L21972
  00016	5f		 pop	 edi
  00017	5b		 pop	 ebx

; 272  : 	{
; 273  : 		return( NULL );
; 274  : 	}
; 275  : 
; 276  : 	return( pImage );
; 277  : }

  00018	c3		 ret	 0
$L21972:
  00019	56		 push	 esi

; 248  : 	{
; 249  : 		return( NULL );
; 250  : 	}
; 251  : 
; 252  : 	pImage = (const ATLSTRINGRESOURCEIMAGE*)::LockResource( hGlobal );

  0001a	50		 push	 eax
  0001b	ff 15 00 00 00
	00		 call	 DWORD PTR __imp__LockResource@4
  00021	8b f0		 mov	 esi, eax

; 253  : 	if( pImage == NULL )

  00023	85 f6		 test	 esi, esi
  00025	75 06		 jne	 SHORT $L21974
$L99514:
  00027	5e		 pop	 esi
  00028	5f		 pop	 edi

; 254  : 	{
; 255  : 		return( NULL );

  00029	33 c0		 xor	 eax, eax
  0002b	5b		 pop	 ebx

; 272  : 	{
; 273  : 		return( NULL );
; 274  : 	}
; 275  : 
; 276  : 	return( pImage );
; 277  : }

  0002c	c3		 ret	 0
$L21974:

; 256  : 	}
; 257  : 
; 258  : 	nResourceSize = ::SizeofResource( hInstance, hResource );

  0002d	57		 push	 edi
  0002e	53		 push	 ebx
  0002f	ff 15 00 00 00
	00		 call	 DWORD PTR __imp__SizeofResource@8

; 259  : 	pImageEnd = (const ATLSTRINGRESOURCEIMAGE*)(LPBYTE( pImage )+nResourceSize);
; 260  : 	iIndex = id&0x000f;

  00035	8b 4c 24 18	 mov	 ecx, DWORD PTR _id$[esp+8]
  00039	03 c6		 add	 eax, esi
  0003b	83 e1 0f	 and	 ecx, 15			; 0000000fH

; 261  : 
; 262  : 	while( (iIndex > 0) && (pImage < pImageEnd) )

  0003e	76 0e		 jbe	 SHORT $L21978
$L21977:
  00040	3b f0		 cmp	 esi, eax
  00042	73 e3		 jae	 SHORT $L99514

; 263  : 	{
; 264  : 		pImage = (const ATLSTRINGRESOURCEIMAGE*)(LPBYTE( pImage )+(sizeof( ATLSTRINGRESOURCEIMAGE )+(pImage->nLength*sizeof( WCHAR ))));
; 265  : 		iIndex--;

  00044	49		 dec	 ecx
  00045	0f b7 16	 movzx	 edx, WORD PTR [esi]
  00048	8d 74 56 02	 lea	 esi, DWORD PTR [esi+edx*2+2]
  0004c	75 f2		 jne	 SHORT $L21977
$L21978:

; 266  : 	}
; 267  : 	if( pImage >= pImageEnd )

  0004e	3b f0		 cmp	 esi, eax

; 268  : 	{
; 269  : 		return( NULL );

  00050	73 d5		 jae	 SHORT $L99514

; 270  : 	}
; 271  : 	if( pImage->nLength == 0 )

  00052	66 8b 06	 mov	 ax, WORD PTR [esi]
  00055	66 f7 d8	 neg	 ax
  00058	1b c0		 sbb	 eax, eax
  0005a	23 c6		 and	 eax, esi
  0005c	5e		 pop	 esi
  0005d	5f		 pop	 edi
  0005e	5b		 pop	 ebx

; 272  : 	{
; 273  : 		return( NULL );
; 274  : 	}
; 275  : 
; 276  : 	return( pImage );
; 277  : }

  0005f	c3		 ret	 0
?_AtlGetStringResourceImage@ATL@@YAPBUATLSTRINGRESOURCEIMAGE@1@PAUHINSTANCE__@@PAUHRSRC__@@I@Z ENDP ; ATL::_AtlGetStringResourceImage
_TEXT	ENDS
PUBLIC	?AtlGetStringResourceImage@ATL@@YAPBUATLSTRINGRESOURCEIMAGE@1@PAUHINSTANCE__@@I@Z ; ATL::AtlGetStringResourceImage
EXTRN	__imp__FindResourceA@12:NEAR
; Function compile flags: /Ogty
;	COMDAT ?AtlGetStringResourceImage@ATL@@YAPBUATLSTRINGRESOURCEIMAGE@1@PAUHINSTANCE__@@I@Z
_TEXT	SEGMENT
_hInstance$ = 8						; size = 4
_id$ = 12						; size = 4
?AtlGetStringResourceImage@ATL@@YAPBUATLSTRINGRESOURCEIMAGE@1@PAUHINSTANCE__@@I@Z PROC NEAR ; ATL::AtlGetStringResourceImage, COMDAT

; 280  : {

  00000	56		 push	 esi

; 281  : 	HRSRC hResource;
; 282  : 
; 283  : 	hResource = ::FindResource( hInstance, MAKEINTRESOURCE( ((id>>4)+1) ), RT_STRING );

  00001	8b 74 24 0c	 mov	 esi, DWORD PTR _id$[esp]
  00005	8b c6		 mov	 eax, esi
  00007	c1 e8 04	 shr	 eax, 4
  0000a	57		 push	 edi
  0000b	8b 7c 24 0c	 mov	 edi, DWORD PTR _hInstance$[esp+4]
  0000f	40		 inc	 eax
  00010	0f b7 c8	 movzx	 ecx, ax
  00013	6a 06		 push	 6
  00015	51		 push	 ecx
  00016	57		 push	 edi
  00017	ff 15 00 00 00
	00		 call	 DWORD PTR __imp__FindResourceA@12

; 284  : 	if( hResource == NULL )

  0001d	85 c0		 test	 eax, eax
  0001f	75 03		 jne	 SHORT $L21995
  00021	5f		 pop	 edi
  00022	5e		 pop	 esi

; 290  : }

  00023	c3		 ret	 0
$L21995:

; 285  : 	{
; 286  : 		return( NULL );
; 287  : 	}
; 288  : 
; 289  : 	return _AtlGetStringResourceImage( hInstance, hResource, id );

  00024	56		 push	 esi
  00025	50		 push	 eax
  00026	57		 push	 edi
  00027	e8 00 00 00 00	 call	 ?_AtlGetStringResourceImage@ATL@@YAPBUATLSTRINGRESOURCEIMAGE@1@PAUHINSTANCE__@@PAUHRSRC__@@I@Z ; ATL::_AtlGetStringResourceImage
  0002c	83 c4 0c	 add	 esp, 12			; 0000000cH
  0002f	5f		 pop	 edi
  00030	5e		 pop	 esi

; 290  : }

  00031	c3		 ret	 0
?AtlGetStringResourceImage@ATL@@YAPBUATLSTRINGRESOURCEIMAGE@1@PAUHINSTANCE__@@I@Z ENDP ; ATL::AtlGetStringResourceImage
_TEXT	ENDS
PUBLIC	?AtlGetStringResourceImage@ATL@@YAPBUATLSTRINGRESOURCEIMAGE@1@PAUHINSTANCE__@@IG@Z ; ATL::AtlGetStringResourceImage
EXTRN	__imp__FindResourceExA@16:NEAR
; Function compile flags: /Ogty
;	COMDAT ?AtlGetStringResourceImage@ATL@@YAPBUATLSTRINGRESOURCEIMAGE@1@PAUHINSTANCE__@@IG@Z
_TEXT	SEGMENT
_hInstance$ = 8						; size = 4
_id$ = 12						; size = 4
_wLanguage$ = 16					; size = 2
?AtlGetStringResourceImage@ATL@@YAPBUATLSTRINGRESOURCEIMAGE@1@PAUHINSTANCE__@@IG@Z PROC NEAR ; ATL::AtlGetStringResourceImage, COMDAT

; 294  : 	HRSRC hResource;
; 295  : 
; 296  : 	hResource = ::FindResourceEx( hInstance, RT_STRING, MAKEINTRESOURCE( ((id>>4)+1) ), wLanguage );

  00000	8b 44 24 0c	 mov	 eax, DWORD PTR _wLanguage$[esp-4]
  00004	56		 push	 esi
  00005	8b 74 24 0c	 mov	 esi, DWORD PTR _id$[esp]
  00009	8b ce		 mov	 ecx, esi
  0000b	57		 push	 edi
  0000c	8b 7c 24 0c	 mov	 edi, DWORD PTR _hInstance$[esp+4]
  00010	c1 e9 04	 shr	 ecx, 4
  00013	41		 inc	 ecx
  00014	50		 push	 eax
  00015	0f b7 d1	 movzx	 edx, cx
  00018	52		 push	 edx
  00019	6a 06		 push	 6
  0001b	57		 push	 edi
  0001c	ff 15 00 00 00
	00		 call	 DWORD PTR __imp__FindResourceExA@16

; 297  : 	if( hResource == NULL )

  00022	85 c0		 test	 eax, eax
  00024	75 03		 jne	 SHORT $L22009
  00026	5f		 pop	 edi
  00027	5e		 pop	 esi

; 303  : }

  00028	c3		 ret	 0
$L22009:

; 298  : 	{
; 299  : 		return( NULL );
; 300  : 	}
; 301  : 
; 302  : 	return _AtlGetStringResourceImage( hInstance, hResource, id );

  00029	56		 push	 esi
  0002a	50		 push	 eax
  0002b	57		 push	 edi
  0002c	e8 00 00 00 00	 call	 ?_AtlGetStringResourceImage@ATL@@YAPBUATLSTRINGRESOURCEIMAGE@1@PAUHINSTANCE__@@PAUHRSRC__@@I@Z ; ATL::_AtlGetStringResourceImage
  00031	83 c4 0c	 add	 esp, 12			; 0000000cH
  00034	5f		 pop	 edi
  00035	5e		 pop	 esi

; 303  : }

  00036	c3		 ret	 0
?AtlGetStringResourceImage@ATL@@YAPBUATLSTRINGRESOURCEIMAGE@1@PAUHINSTANCE__@@IG@Z ENDP ; ATL::AtlGetStringResourceImage
_TEXT	ENDS
PUBLIC	?AtlFindStringResourceInstance@ATL@@YAPAUHINSTANCE__@@IG@Z ; ATL::AtlFindStringResourceInstance
EXTRN	?GetHInstanceAt@CAtlBaseModule@ATL@@QAEPAUHINSTANCE__@@H@Z:NEAR ; ATL::CAtlBaseModule::GetHInstanceAt
EXTRN	?_AtlBaseModule@ATL@@3VCAtlBaseModule@1@A:BYTE	; ATL::_AtlBaseModule
; Function compile flags: /Ogty
;	COMDAT ?AtlFindStringResourceInstance@ATL@@YAPAUHINSTANCE__@@IG@Z
_TEXT	SEGMENT
_nID$ = 8						; size = 4
_wLanguage$ = 12					; size = 2
?AtlFindStringResourceInstance@ATL@@YAPAUHINSTANCE__@@IG@Z PROC NEAR ; ATL::AtlFindStringResourceInstance, COMDAT

; 380  : {

  00000	53		 push	 ebx
  00001	55		 push	 ebp
  00002	56		 push	 esi
  00003	57		 push	 edi

; 381  : 	const ATLSTRINGRESOURCEIMAGE* p = NULL;

  00004	33 ff		 xor	 edi, edi

; 382  : 	HINSTANCE hInst = _AtlBaseModule.GetHInstanceAt(0);

  00006	57		 push	 edi
  00007	b9 00 00 00 00	 mov	 ecx, OFFSET FLAT:?_AtlBaseModule@ATL@@3VCAtlBaseModule@1@A
  0000c	e8 00 00 00 00	 call	 ?GetHInstanceAt@CAtlBaseModule@ATL@@QAEPAUHINSTANCE__@@H@Z ; ATL::CAtlBaseModule::GetHInstanceAt
  00011	8b f0		 mov	 esi, eax

; 383  : 
; 384  : 	for (int i = 1; hInst != NULL && p == NULL; hInst = _AtlBaseModule.GetHInstanceAt(i++))

  00013	85 f6		 test	 esi, esi
  00015	bd 01 00 00 00	 mov	 ebp, 1
  0001a	74 47		 je	 SHORT $L22102
  0001c	8b 5c 24 14	 mov	 ebx, DWORD PTR _nID$[esp+12]
$L22100:
  00020	85 ff		 test	 edi, edi
  00022	75 3f		 jne	 SHORT $L22102

; 385  : 	{
; 386  : 		p = AtlGetStringResourceImage(hInst, nID, wLanguage);

  00024	8b 44 24 18	 mov	 eax, DWORD PTR _wLanguage$[esp+12]
  00028	8b cb		 mov	 ecx, ebx
  0002a	c1 e9 04	 shr	 ecx, 4
  0002d	41		 inc	 ecx
  0002e	50		 push	 eax
  0002f	0f b7 d1	 movzx	 edx, cx
  00032	52		 push	 edx
  00033	6a 06		 push	 6
  00035	56		 push	 esi
  00036	ff 15 00 00 00
	00		 call	 DWORD PTR __imp__FindResourceExA@16
  0003c	85 c0		 test	 eax, eax
  0003e	74 11		 je	 SHORT $L99533
$L99529:
  00040	53		 push	 ebx
  00041	50		 push	 eax
  00042	56		 push	 esi
  00043	e8 00 00 00 00	 call	 ?_AtlGetStringResourceImage@ATL@@YAPBUATLSTRINGRESOURCEIMAGE@1@PAUHINSTANCE__@@PAUHRSRC__@@I@Z ; ATL::_AtlGetStringResourceImage
  00048	8b f8		 mov	 edi, eax
  0004a	83 c4 0c	 add	 esp, 12			; 0000000cH

; 387  : 		if (p != NULL)

  0004d	85 ff		 test	 edi, edi
  0004f	75 19		 jne	 SHORT $L99531
$L99533:

; 383  : 
; 384  : 	for (int i = 1; hInst != NULL && p == NULL; hInst = _AtlBaseModule.GetHInstanceAt(i++))

  00051	55		 push	 ebp
  00052	b9 00 00 00 00	 mov	 ecx, OFFSET FLAT:?_AtlBaseModule@ATL@@3VCAtlBaseModule@1@A
  00057	e8 00 00 00 00	 call	 ?GetHInstanceAt@CAtlBaseModule@ATL@@QAEPAUHINSTANCE__@@H@Z ; ATL::CAtlBaseModule::GetHInstanceAt
  0005c	8b f0		 mov	 esi, eax
  0005e	45		 inc	 ebp
  0005f	85 f6		 test	 esi, esi
  00061	75 bd		 jne	 SHORT $L22100
$L22102:
  00063	5f		 pop	 edi
  00064	5e		 pop	 esi
  00065	5d		 pop	 ebp

; 389  : 	}
; 390  : 
; 391  : 	return NULL;

  00066	33 c0		 xor	 eax, eax
  00068	5b		 pop	 ebx

; 392  : }

  00069	c3		 ret	 0
$L99531:
  0006a	5f		 pop	 edi

; 388  : 			return hInst;

  0006b	8b c6		 mov	 eax, esi
  0006d	5e		 pop	 esi
  0006e	5d		 pop	 ebp
  0006f	5b		 pop	 ebx

; 392  : }

  00070	c3		 ret	 0
?AtlFindStringResourceInstance@ATL@@YAPAUHINSTANCE__@@IG@Z ENDP ; ATL::AtlFindStringResourceInstance
_TEXT	ENDS
PUBLIC	?OnCT_ITEMSTATE_ACK@CTControlSvrModule@@IAEKPAUtagPACKETBUF@@@Z ; CTControlSvrModule::OnCT_ITEMSTATE_ACK
EXTRN	??5CPacket@@QAEAAV0@AAK@Z:NEAR			; CPacket::operator>>
EXTRN	?SendCT_ITEMSTATE_ACK@CTManager@@QAEXPAVCPacket@@@Z:NEAR ; CTManager::SendCT_ITEMSTATE_ACK
EXTRN	?FindManager@CTControlSvrModule@@IAEPAVCTManager@@K@Z:NEAR ; CTControlSvrModule::FindManager
; Function compile flags: /Ogty
; File c:\users\pierr\desktop\4story - oldschool\sources\tserver\tcontrolsvr\handler.cpp
;	COMDAT ?OnCT_ITEMSTATE_ACK@CTControlSvrModule@@IAEKPAUtagPACKETBUF@@@Z
_TEXT	SEGMENT
_dwID$ = 8						; size = 4
_pBUF$ = 8						; size = 4
?OnCT_ITEMSTATE_ACK@CTControlSvrModule@@IAEKPAUtagPACKETBUF@@@Z PROC NEAR ; CTControlSvrModule::OnCT_ITEMSTATE_ACK, COMDAT
; _this$ = ecx

; 1331 : {

  00000	56		 push	 esi

; 1332 : 	DWORD dwID;
; 1333 : 	
; 1334 : 	pBUF->m_packet
; 1335 : 		>> dwID;

  00001	8b 74 24 08	 mov	 esi, DWORD PTR _pBUF$[esp]
  00005	57		 push	 edi
  00006	8d 44 24 0c	 lea	 eax, DWORD PTR _dwID$[esp+4]
  0000a	8b f9		 mov	 edi, ecx
  0000c	83 c6 04	 add	 esi, 4
  0000f	50		 push	 eax
  00010	8b ce		 mov	 ecx, esi
  00012	e8 00 00 00 00	 call	 ??5CPacket@@QAEAAV0@AAK@Z ; CPacket::operator>>

; 1336 : 
; 1337 : 	CTManager* pManager = FindManager(dwID);

  00017	8b 4c 24 0c	 mov	 ecx, DWORD PTR _dwID$[esp+4]
  0001b	51		 push	 ecx
  0001c	8b cf		 mov	 ecx, edi
  0001e	e8 00 00 00 00	 call	 ?FindManager@CTControlSvrModule@@IAEPAVCTManager@@K@Z ; CTControlSvrModule::FindManager

; 1338 : 	if(pManager)

  00023	85 c0		 test	 eax, eax
  00025	74 08		 je	 SHORT $L99537

; 1339 : 		pManager->SendCT_ITEMSTATE_ACK(&(pBUF->m_packet));

  00027	56		 push	 esi
  00028	8b c8		 mov	 ecx, eax
  0002a	e8 00 00 00 00	 call	 ?SendCT_ITEMSTATE_ACK@CTManager@@QAEXPAVCPacket@@@Z ; CTManager::SendCT_ITEMSTATE_ACK
$L99537:
  0002f	5f		 pop	 edi

; 1340 : 
; 1341 : 	return EC_NOERROR;

  00030	33 c0		 xor	 eax, eax
  00032	5e		 pop	 esi

; 1342 : }

  00033	c2 04 00	 ret	 4
?OnCT_ITEMSTATE_ACK@CTControlSvrModule@@IAEKPAUtagPACKETBUF@@@Z ENDP ; CTControlSvrModule::OnCT_ITEMSTATE_ACK
_TEXT	ENDS
PUBLIC	?OnCT_CHATBANLIST_REQ@CTControlSvrModule@@IAEKPAUtagPACKETBUF@@@Z ; CTControlSvrModule::OnCT_CHATBANLIST_REQ
EXTRN	?CheckAuthority@CTManager@@QAEEE@Z:NEAR		; CTManager::CheckAuthority
EXTRN	?SendCT_CHATBANLIST_ACK@CTManager@@QAEXPAV?$map@KPAUtagBANINFO@@U?$less@K@std@@V?$allocator@U?$pair@$$CBKPAUtagBANINFO@@@std@@@3@@std@@@Z:NEAR ; CTManager::SendCT_CHATBANLIST_ACK
; Function compile flags: /Ogty
;	COMDAT ?OnCT_CHATBANLIST_REQ@CTControlSvrModule@@IAEKPAUtagPACKETBUF@@@Z
_TEXT	SEGMENT
_pBUF$ = 8						; size = 4
?OnCT_CHATBANLIST_REQ@CTControlSvrModule@@IAEKPAUtagPACKETBUF@@@Z PROC NEAR ; CTControlSvrModule::OnCT_CHATBANLIST_REQ, COMDAT
; _this$ = ecx

; 1346 : 	CTManager * pManager = (CTManager *)pBUF->m_pSESSION; 

  00000	8b 44 24 04	 mov	 eax, DWORD PTR _pBUF$[esp-4]
  00004	56		 push	 esi
  00005	8b 30		 mov	 esi, DWORD PTR [eax]
  00007	57		 push	 edi
  00008	8b f9		 mov	 edi, ecx

; 1347 : 	if(!pManager->CheckAuthority(MANAGER_ALL))  

  0000a	6a 01		 push	 1
  0000c	8b ce		 mov	 ecx, esi
  0000e	e8 00 00 00 00	 call	 ?CheckAuthority@CTManager@@QAEEE@Z ; CTManager::CheckAuthority
  00013	84 c0		 test	 al, al

; 1348 : 		return EC_NOERROR;

  00015	74 0e		 je	 SHORT $L99541

; 1349 : 
; 1350 : 	pManager->SendCT_CHATBANLIST_ACK(&m_mapBanInfo);

  00017	81 c7 d0 01 00
	00		 add	 edi, 464		; 000001d0H
  0001d	57		 push	 edi
  0001e	8b ce		 mov	 ecx, esi
  00020	e8 00 00 00 00	 call	 ?SendCT_CHATBANLIST_ACK@CTManager@@QAEXPAV?$map@KPAUtagBANINFO@@U?$less@K@std@@V?$allocator@U?$pair@$$CBKPAUtagBANINFO@@@std@@@3@@std@@@Z ; CTManager::SendCT_CHATBANLIST_ACK
$L99541:
  00025	5f		 pop	 edi

; 1351 : 
; 1352 : 	return EC_NOERROR;

  00026	33 c0		 xor	 eax, eax
  00028	5e		 pop	 esi

; 1353 : }

  00029	c2 04 00	 ret	 4
?OnCT_CHATBANLIST_REQ@CTControlSvrModule@@IAEKPAUtagPACKETBUF@@@Z ENDP ; CTControlSvrModule::OnCT_CHATBANLIST_REQ
_TEXT	ENDS
PUBLIC	?OnCT_CASTLEINFO_ACK@CTControlSvrModule@@IAEKPAUtagPACKETBUF@@@Z ; CTControlSvrModule::OnCT_CASTLEINFO_ACK
EXTRN	?SendCT_CASTLEINFO_ACK@CTManager@@QAEXPAVCPacket@@@Z:NEAR ; CTManager::SendCT_CASTLEINFO_ACK
; Function compile flags: /Ogty
;	COMDAT ?OnCT_CASTLEINFO_ACK@CTControlSvrModule@@IAEKPAUtagPACKETBUF@@@Z
_TEXT	SEGMENT
_dwManagerID$ = 8					; size = 4
_pBUF$ = 8						; size = 4
?OnCT_CASTLEINFO_ACK@CTControlSvrModule@@IAEKPAUtagPACKETBUF@@@Z PROC NEAR ; CTControlSvrModule::OnCT_CASTLEINFO_ACK, COMDAT
; _this$ = ecx

; 1415 : {	

  00000	56		 push	 esi

; 1416 : 
; 1417 : 	DWORD dwManagerID;
; 1418 : 
; 1419 : 	pBUF->m_packet
; 1420 : 		>> dwManagerID;

  00001	8b 74 24 08	 mov	 esi, DWORD PTR _pBUF$[esp]
  00005	57		 push	 edi
  00006	8d 44 24 0c	 lea	 eax, DWORD PTR _dwManagerID$[esp+4]
  0000a	8b f9		 mov	 edi, ecx
  0000c	83 c6 04	 add	 esi, 4
  0000f	50		 push	 eax
  00010	8b ce		 mov	 ecx, esi
  00012	e8 00 00 00 00	 call	 ??5CPacket@@QAEAAV0@AAK@Z ; CPacket::operator>>

; 1421 : 
; 1422 : 	CTManager* pManager = FindManager(dwManagerID);

  00017	8b 4c 24 0c	 mov	 ecx, DWORD PTR _dwManagerID$[esp+4]
  0001b	51		 push	 ecx
  0001c	8b cf		 mov	 ecx, edi
  0001e	e8 00 00 00 00	 call	 ?FindManager@CTControlSvrModule@@IAEPAVCTManager@@K@Z ; CTControlSvrModule::FindManager

; 1423 : 	if(pManager)

  00023	85 c0		 test	 eax, eax
  00025	74 08		 je	 SHORT $L99545

; 1424 : 		pManager->SendCT_CASTLEINFO_ACK(&(pBUF->m_packet));

  00027	56		 push	 esi
  00028	8b c8		 mov	 ecx, eax
  0002a	e8 00 00 00 00	 call	 ?SendCT_CASTLEINFO_ACK@CTManager@@QAEXPAVCPacket@@@Z ; CTManager::SendCT_CASTLEINFO_ACK
$L99545:
  0002f	5f		 pop	 edi

; 1425 : 
; 1426 : 	return EC_NOERROR;		

  00030	33 c0		 xor	 eax, eax
  00032	5e		 pop	 esi

; 1427 : 
; 1428 : }

  00033	c2 04 00	 ret	 4
?OnCT_CASTLEINFO_ACK@CTControlSvrModule@@IAEKPAUtagPACKETBUF@@@Z ENDP ; CTControlSvrModule::OnCT_CASTLEINFO_ACK
_TEXT	ENDS
PUBLIC	?OnCT_CASTLEGUILDCHG_ACK@CTControlSvrModule@@IAEKPAUtagPACKETBUF@@@Z ; CTControlSvrModule::OnCT_CASTLEGUILDCHG_ACK
EXTRN	?SendCT_CASTLEGUILDCHG_ACK@CTManager@@QAEXPAVCPacket@@@Z:NEAR ; CTManager::SendCT_CASTLEGUILDCHG_ACK
; Function compile flags: /Ogty
;	COMDAT ?OnCT_CASTLEGUILDCHG_ACK@CTControlSvrModule@@IAEKPAUtagPACKETBUF@@@Z
_TEXT	SEGMENT
_dwManagerID$ = 8					; size = 4
_pBUF$ = 8						; size = 4
?OnCT_CASTLEGUILDCHG_ACK@CTControlSvrModule@@IAEKPAUtagPACKETBUF@@@Z PROC NEAR ; CTControlSvrModule::OnCT_CASTLEGUILDCHG_ACK, COMDAT
; _this$ = ecx

; 1463 : {	

  00000	56		 push	 esi

; 1464 : 	DWORD dwManagerID;
; 1465 : 
; 1466 : 	pBUF->m_packet
; 1467 : 		>> dwManagerID;		

  00001	8b 74 24 08	 mov	 esi, DWORD PTR _pBUF$[esp]
  00005	57		 push	 edi
  00006	8d 44 24 0c	 lea	 eax, DWORD PTR _dwManagerID$[esp+4]
  0000a	8b f9		 mov	 edi, ecx
  0000c	83 c6 04	 add	 esi, 4
  0000f	50		 push	 eax
  00010	8b ce		 mov	 ecx, esi
  00012	e8 00 00 00 00	 call	 ??5CPacket@@QAEAAV0@AAK@Z ; CPacket::operator>>

; 1468 : 
; 1469 : 	CTManager* pManager = FindManager(dwManagerID);

  00017	8b 4c 24 0c	 mov	 ecx, DWORD PTR _dwManagerID$[esp+4]
  0001b	51		 push	 ecx
  0001c	8b cf		 mov	 ecx, edi
  0001e	e8 00 00 00 00	 call	 ?FindManager@CTControlSvrModule@@IAEPAVCTManager@@K@Z ; CTControlSvrModule::FindManager

; 1470 : 	if(pManager)

  00023	85 c0		 test	 eax, eax
  00025	74 08		 je	 SHORT $L99549

; 1471 : 		pManager->SendCT_CASTLEGUILDCHG_ACK(&(pBUF->m_packet));

  00027	56		 push	 esi
  00028	8b c8		 mov	 ecx, eax
  0002a	e8 00 00 00 00	 call	 ?SendCT_CASTLEGUILDCHG_ACK@CTManager@@QAEXPAVCPacket@@@Z ; CTManager::SendCT_CASTLEGUILDCHG_ACK
$L99549:
  0002f	5f		 pop	 edi

; 1472 : 
; 1473 : 	return EC_NOERROR;    

  00030	33 c0		 xor	 eax, eax
  00032	5e		 pop	 esi

; 1474 : }

  00033	c2 04 00	 ret	 4
?OnCT_CASTLEGUILDCHG_ACK@CTControlSvrModule@@IAEKPAUtagPACKETBUF@@@Z ENDP ; CTControlSvrModule::OnCT_CASTLEGUILDCHG_ACK
_TEXT	ENDS
PUBLIC	?OnCT_EVENTLIST_REQ@CTControlSvrModule@@IAEKPAUtagPACKETBUF@@@Z ; CTControlSvrModule::OnCT_EVENTLIST_REQ
EXTRN	?SendCT_EVENTLIST_ACK@CTManager@@QAEXPAV?$map@KUtagEVENTINFO@@U?$less@K@std@@V?$allocator@U?$pair@$$CBKUtagEVENTINFO@@@std@@@3@@std@@@Z:NEAR ; CTManager::SendCT_EVENTLIST_ACK
; Function compile flags: /Ogty
;	COMDAT ?OnCT_EVENTLIST_REQ@CTControlSvrModule@@IAEKPAUtagPACKETBUF@@@Z
_TEXT	SEGMENT
_pBUF$ = 8						; size = 4
?OnCT_EVENTLIST_REQ@CTControlSvrModule@@IAEKPAUtagPACKETBUF@@@Z PROC NEAR ; CTControlSvrModule::OnCT_EVENTLIST_REQ, COMDAT
; _this$ = ecx

; 1827 : 	CTManager * pManager = (CTManager *)pBUF->m_pSESSION; 

  00000	8b 44 24 04	 mov	 eax, DWORD PTR _pBUF$[esp-4]
  00004	56		 push	 esi
  00005	8b 30		 mov	 esi, DWORD PTR [eax]
  00007	57		 push	 edi
  00008	8b f9		 mov	 edi, ecx

; 1828 : 	if(!pManager->CheckAuthority(MANAGER_USER))

  0000a	6a 03		 push	 3
  0000c	8b ce		 mov	 ecx, esi
  0000e	e8 00 00 00 00	 call	 ?CheckAuthority@CTManager@@QAEEE@Z ; CTManager::CheckAuthority
  00013	84 c0		 test	 al, al

; 1829 : 		return EC_NOERROR;

  00015	74 0e		 je	 SHORT $L99553

; 1830 : 
; 1831 : 	pManager->SendCT_EVENTLIST_ACK(&m_mapEVENT);	

  00017	81 c7 dc 01 00
	00		 add	 edi, 476		; 000001dcH
  0001d	57		 push	 edi
  0001e	8b ce		 mov	 ecx, esi
  00020	e8 00 00 00 00	 call	 ?SendCT_EVENTLIST_ACK@CTManager@@QAEXPAV?$map@KUtagEVENTINFO@@U?$less@K@std@@V?$allocator@U?$pair@$$CBKUtagEVENTINFO@@@std@@@3@@std@@@Z ; CTManager::SendCT_EVENTLIST_ACK
$L99553:
  00025	5f		 pop	 edi

; 1832 : 
; 1833 : 	return EC_NOERROR;

  00026	33 c0		 xor	 eax, eax
  00028	5e		 pop	 esi

; 1834 : }

  00029	c2 04 00	 ret	 4
?OnCT_EVENTLIST_REQ@CTControlSvrModule@@IAEKPAUtagPACKETBUF@@@Z ENDP ; CTControlSvrModule::OnCT_EVENTLIST_REQ
_TEXT	ENDS
PUBLIC	?OnCT_EVENTQUARTERLIST_ACK@CTControlSvrModule@@IAEKPAUtagPACKETBUF@@@Z ; CTControlSvrModule::OnCT_EVENTQUARTERLIST_ACK
EXTRN	?SendCT_EVENTQUARTERLIST_ACK@CTManager@@QAEXPAVCPacket@@@Z:NEAR ; CTManager::SendCT_EVENTQUARTERLIST_ACK
; Function compile flags: /Ogty
;	COMDAT ?OnCT_EVENTQUARTERLIST_ACK@CTControlSvrModule@@IAEKPAUtagPACKETBUF@@@Z
_TEXT	SEGMENT
_dwManagerID$ = -4					; size = 4
_wCount$ = 8						; size = 2
_pBUF$ = 8						; size = 4
?OnCT_EVENTQUARTERLIST_ACK@CTControlSvrModule@@IAEKPAUtagPACKETBUF@@@Z PROC NEAR ; CTControlSvrModule::OnCT_EVENTQUARTERLIST_ACK, COMDAT
; _this$ = ecx

; 1969 : {

  00000	51		 push	 ecx
  00001	56		 push	 esi

; 1970 : 	DWORD dwManagerID;
; 1971 : 	WORD wCount;
; 1972 : 
; 1973 : 	pBUF->m_packet
; 1974 : 		>> dwManagerID
; 1975 : 		>> wCount;

  00002	8b 74 24 0c	 mov	 esi, DWORD PTR _pBUF$[esp+4]
  00006	57		 push	 edi
  00007	8b f9		 mov	 edi, ecx
  00009	8d 44 24 10	 lea	 eax, DWORD PTR _wCount$[esp+8]
  0000d	50		 push	 eax
  0000e	8d 4c 24 0c	 lea	 ecx, DWORD PTR _dwManagerID$[esp+16]
  00012	83 c6 04	 add	 esi, 4
  00015	51		 push	 ecx
  00016	8b ce		 mov	 ecx, esi
  00018	e8 00 00 00 00	 call	 ??5CPacket@@QAEAAV0@AAK@Z ; CPacket::operator>>
  0001d	8b c8		 mov	 ecx, eax
  0001f	e8 00 00 00 00	 call	 ??5CPacket@@QAEAAV0@AAG@Z ; CPacket::operator>>

; 1976 : 
; 1977 : 	CTManager* pManager = FindManager(dwManagerID);

  00024	8b 54 24 08	 mov	 edx, DWORD PTR _dwManagerID$[esp+12]
  00028	52		 push	 edx
  00029	8b cf		 mov	 ecx, edi
  0002b	e8 00 00 00 00	 call	 ?FindManager@CTControlSvrModule@@IAEPAVCTManager@@K@Z ; CTControlSvrModule::FindManager

; 1978 : 	if(!pManager)

  00030	85 c0		 test	 eax, eax

; 1979 : 		return EC_NOERROR;

  00032	74 08		 je	 SHORT $L99557

; 1980 : 
; 1981 : 	pManager->SendCT_EVENTQUARTERLIST_ACK(&(pBUF->m_packet));

  00034	56		 push	 esi
  00035	8b c8		 mov	 ecx, eax
  00037	e8 00 00 00 00	 call	 ?SendCT_EVENTQUARTERLIST_ACK@CTManager@@QAEXPAVCPacket@@@Z ; CTManager::SendCT_EVENTQUARTERLIST_ACK
$L99557:
  0003c	5f		 pop	 edi

; 1982 : 
; 1983 : 	return EC_NOERROR;

  0003d	33 c0		 xor	 eax, eax
  0003f	5e		 pop	 esi

; 1984 : }

  00040	59		 pop	 ecx
  00041	c2 04 00	 ret	 4
?OnCT_EVENTQUARTERLIST_ACK@CTControlSvrModule@@IAEKPAUtagPACKETBUF@@@Z ENDP ; CTControlSvrModule::OnCT_EVENTQUARTERLIST_ACK
_TEXT	ENDS
PUBLIC	?OnCT_EVENTQUARTERUPDATE_ACK@CTControlSvrModule@@IAEKPAUtagPACKETBUF@@@Z ; CTControlSvrModule::OnCT_EVENTQUARTERUPDATE_ACK
EXTRN	?SendCT_EVENTQUARTERUPDATE_ACK@CTManager@@QAEXPAVCPacket@@@Z:NEAR ; CTManager::SendCT_EVENTQUARTERUPDATE_ACK
; Function compile flags: /Ogty
;	COMDAT ?OnCT_EVENTQUARTERUPDATE_ACK@CTControlSvrModule@@IAEKPAUtagPACKETBUF@@@Z
_TEXT	SEGMENT
_dwManagerID$ = -4					; size = 4
_bRet$ = 8						; size = 1
_pBUF$ = 8						; size = 4
?OnCT_EVENTQUARTERUPDATE_ACK@CTControlSvrModule@@IAEKPAUtagPACKETBUF@@@Z PROC NEAR ; CTControlSvrModule::OnCT_EVENTQUARTERUPDATE_ACK, COMDAT
; _this$ = ecx

; 2019 : {

  00000	51		 push	 ecx
  00001	56		 push	 esi

; 2020 : 	BYTE bRet;
; 2021 : 	DWORD dwManagerID;	
; 2022 : 
; 2023 : 	pBUF->m_packet
; 2024 : 		>> bRet
; 2025 : 		>> dwManagerID;

  00002	8b 74 24 0c	 mov	 esi, DWORD PTR _pBUF$[esp+4]
  00006	57		 push	 edi
  00007	8b f9		 mov	 edi, ecx
  00009	8d 44 24 08	 lea	 eax, DWORD PTR _dwManagerID$[esp+12]
  0000d	50		 push	 eax
  0000e	8d 4c 24 14	 lea	 ecx, DWORD PTR _bRet$[esp+12]
  00012	83 c6 04	 add	 esi, 4
  00015	51		 push	 ecx
  00016	8b ce		 mov	 ecx, esi
  00018	e8 00 00 00 00	 call	 ??5CPacket@@QAEAAV0@AAE@Z ; CPacket::operator>>
  0001d	8b c8		 mov	 ecx, eax
  0001f	e8 00 00 00 00	 call	 ??5CPacket@@QAEAAV0@AAK@Z ; CPacket::operator>>

; 2026 : 		
; 2027 : 	CTManager* pManager = FindManager(dwManagerID);

  00024	8b 54 24 08	 mov	 edx, DWORD PTR _dwManagerID$[esp+12]
  00028	52		 push	 edx
  00029	8b cf		 mov	 ecx, edi
  0002b	e8 00 00 00 00	 call	 ?FindManager@CTControlSvrModule@@IAEPAVCTManager@@K@Z ; CTControlSvrModule::FindManager

; 2028 : 	if(pManager)

  00030	85 c0		 test	 eax, eax
  00032	74 08		 je	 SHORT $L99561

; 2029 : 		pManager->SendCT_EVENTQUARTERUPDATE_ACK(&(pBUF->m_packet));

  00034	56		 push	 esi
  00035	8b c8		 mov	 ecx, eax
  00037	e8 00 00 00 00	 call	 ?SendCT_EVENTQUARTERUPDATE_ACK@CTManager@@QAEXPAVCPacket@@@Z ; CTManager::SendCT_EVENTQUARTERUPDATE_ACK
$L99561:
  0003c	5f		 pop	 edi

; 2030 : 
; 2031 : 	return EC_NOERROR;

  0003d	33 c0		 xor	 eax, eax
  0003f	5e		 pop	 esi

; 2032 : }

  00040	59		 pop	 ecx
  00041	c2 04 00	 ret	 4
?OnCT_EVENTQUARTERUPDATE_ACK@CTControlSvrModule@@IAEKPAUtagPACKETBUF@@@Z ENDP ; CTControlSvrModule::OnCT_EVENTQUARTERUPDATE_ACK
_TEXT	ENDS
PUBLIC	?OnCT_TOURNAMENTEVENT_ACK@CTControlSvrModule@@IAEKPAUtagPACKETBUF@@@Z ; CTControlSvrModule::OnCT_TOURNAMENTEVENT_ACK
EXTRN	?SendCT_TOURNAMENTEVENT_ACK@CTManager@@QAEXPAVCPacket@@@Z:NEAR ; CTManager::SendCT_TOURNAMENTEVENT_ACK
; Function compile flags: /Ogty
;	COMDAT ?OnCT_TOURNAMENTEVENT_ACK@CTControlSvrModule@@IAEKPAUtagPACKETBUF@@@Z
_TEXT	SEGMENT
_dwManagerID$ = 8					; size = 4
_pBUF$ = 8						; size = 4
?OnCT_TOURNAMENTEVENT_ACK@CTControlSvrModule@@IAEKPAUtagPACKETBUF@@@Z PROC NEAR ; CTControlSvrModule::OnCT_TOURNAMENTEVENT_ACK, COMDAT
; _this$ = ecx

; 2056 : {

  00000	56		 push	 esi

; 2057 : 
; 2058 : 	DWORD dwManagerID;
; 2059 : 
; 2060 : 	pBUF->m_packet
; 2061 : 		>> dwManagerID;

  00001	8b 74 24 08	 mov	 esi, DWORD PTR _pBUF$[esp]
  00005	57		 push	 edi
  00006	8d 44 24 0c	 lea	 eax, DWORD PTR _dwManagerID$[esp+4]
  0000a	8b f9		 mov	 edi, ecx
  0000c	83 c6 04	 add	 esi, 4
  0000f	50		 push	 eax
  00010	8b ce		 mov	 ecx, esi
  00012	e8 00 00 00 00	 call	 ??5CPacket@@QAEAAV0@AAK@Z ; CPacket::operator>>

; 2062 : 
; 2063 : 	CTManager* pManager = FindManager(dwManagerID);

  00017	8b 4c 24 0c	 mov	 ecx, DWORD PTR _dwManagerID$[esp+4]
  0001b	51		 push	 ecx
  0001c	8b cf		 mov	 ecx, edi
  0001e	e8 00 00 00 00	 call	 ?FindManager@CTControlSvrModule@@IAEPAVCTManager@@K@Z ; CTControlSvrModule::FindManager

; 2064 : 	if(pManager)

  00023	85 c0		 test	 eax, eax
  00025	74 08		 je	 SHORT $L99565

; 2065 : 		pManager->SendCT_TOURNAMENTEVENT_ACK(&(pBUF->m_packet));

  00027	56		 push	 esi
  00028	8b c8		 mov	 ecx, eax
  0002a	e8 00 00 00 00	 call	 ?SendCT_TOURNAMENTEVENT_ACK@CTManager@@QAEXPAVCPacket@@@Z ; CTManager::SendCT_TOURNAMENTEVENT_ACK
$L99565:
  0002f	5f		 pop	 edi

; 2066 : 
; 2067 : 	return EC_NOERROR;

  00030	33 c0		 xor	 eax, eax
  00032	5e		 pop	 esi

; 2068 : }

  00033	c2 04 00	 ret	 4
?OnCT_TOURNAMENTEVENT_ACK@CTControlSvrModule@@IAEKPAUtagPACKETBUF@@@Z ENDP ; CTControlSvrModule::OnCT_TOURNAMENTEVENT_ACK
_TEXT	ENDS
PUBLIC	?LogEvent@?$CAtlServiceModuleT@VCTControlSvrModule@@$0GE@@ATL@@QAAXPBDZZ ; ATL::CAtlServiceModuleT<CTControlSvrModule,100>::LogEvent
EXTRN	__imp__DeregisterEventSource@4:NEAR
EXTRN	__imp__RegisterEventSourceA@8:NEAR
EXTRN	_puts:NEAR
EXTRN	__imp__ReportEventA@36:NEAR
EXTRN	_vsprintf:NEAR
; Function compile flags: /Ogty
; File c:\program files (x86)\microsoft visual studio .net 2003\vc7\atlmfc\include\atlbase.h
;	COMDAT ?LogEvent@?$CAtlServiceModuleT@VCTControlSvrModule@@$0GE@@ATL@@QAAXPBDZZ
_TEXT	SEGMENT
_lpszStrings$ = -264					; size = 4
_chMsg$ = -260						; size = 256
__$ArrayPad$ = -4					; size = 4
__$ReturnAddr$ = 4					; size = 4
_this$ = 8						; size = 4
_pszFormat$ = 12					; size = 4
?LogEvent@?$CAtlServiceModuleT@VCTControlSvrModule@@$0GE@@ATL@@QAAXPBDZZ PROC NEAR ; ATL::CAtlServiceModuleT<CTControlSvrModule,100>::LogEvent, COMDAT

; 3835 : 	{

  00000	81 ec 08 01 00
	00		 sub	 esp, 264		; 00000108H
  00006	a1 00 00 00 00	 mov	 eax, DWORD PTR ___security_cookie

; 3836 : 		TCHAR chMsg[256];
; 3837 : 		HANDLE hEventSource;
; 3838 : 		LPTSTR lpszStrings[1];
; 3839 : 		va_list pArg;
; 3840 : 
; 3841 : 		va_start(pArg, pszFormat);
; 3842 : 		_vstprintf(chMsg, pszFormat, pArg);

  0000b	8b 8c 24 10 01
	00 00		 mov	 ecx, DWORD PTR _pszFormat$[esp+260]
  00012	89 84 24 04 01
	00 00		 mov	 DWORD PTR __$ArrayPad$[esp+264], eax
  00019	56		 push	 esi
  0001a	8d 84 24 18 01
	00 00		 lea	 eax, DWORD PTR _pszFormat$[esp+268]
  00021	50		 push	 eax
  00022	51		 push	 ecx
  00023	8d 54 24 10	 lea	 edx, DWORD PTR _chMsg$[esp+276]
  00027	52		 push	 edx
  00028	e8 00 00 00 00	 call	 _vsprintf

; 3843 : 		va_end(pArg);
; 3844 : 
; 3845 : 		lpszStrings[0] = chMsg;
; 3846 : 
; 3847 : 		if (!m_bService)

  0002d	8b b4 24 1c 01
	00 00		 mov	 esi, DWORD PTR _this$[esp+276]
  00034	8d 44 24 14	 lea	 eax, DWORD PTR _chMsg$[esp+280]
  00038	89 44 24 10	 mov	 DWORD PTR _lpszStrings$[esp+280], eax
  0003c	8b 86 4c 01 00
	00		 mov	 eax, DWORD PTR [esi+332]
  00042	83 c4 0c	 add	 esp, 12			; 0000000cH
  00045	85 c0		 test	 eax, eax
  00047	75 0d		 jne	 SHORT $L95022

; 3848 : 		{
; 3849 : 			// Not running as a service, so print out the error message 
; 3850 : 			// to the console if possible
; 3851 : 			_putts(chMsg);

  00049	8d 4c 24 08	 lea	 ecx, DWORD PTR _chMsg$[esp+268]
  0004d	51		 push	 ecx
  0004e	e8 00 00 00 00	 call	 _puts
  00053	83 c4 04	 add	 esp, 4
$L95022:

; 3852 : 		}
; 3853 : 
; 3854 : 		/* Get a handle to use with ReportEvent(). */
; 3855 : 		hEventSource = RegisterEventSource(NULL, m_szServiceName);

  00056	83 c6 2c	 add	 esi, 44			; 0000002cH
  00059	56		 push	 esi
  0005a	6a 00		 push	 0
  0005c	ff 15 00 00 00
	00		 call	 DWORD PTR __imp__RegisterEventSourceA@8
  00062	8b f0		 mov	 esi, eax

; 3856 : 		if (hEventSource != NULL)

  00064	85 f6		 test	 esi, esi
  00066	74 21		 je	 SHORT $L95023

; 3857 : 		{
; 3858 : 			/* Write to event log. */
; 3859 : 			ReportEvent(hEventSource, EVENTLOG_INFORMATION_TYPE, 0, 0, NULL, 1, 0, (LPCTSTR*) &lpszStrings[0], NULL);

  00068	6a 00		 push	 0
  0006a	8d 54 24 08	 lea	 edx, DWORD PTR _lpszStrings$[esp+272]
  0006e	52		 push	 edx
  0006f	6a 00		 push	 0
  00071	6a 01		 push	 1
  00073	6a 00		 push	 0
  00075	6a 00		 push	 0
  00077	6a 00		 push	 0
  00079	6a 04		 push	 4
  0007b	56		 push	 esi
  0007c	ff 15 00 00 00
	00		 call	 DWORD PTR __imp__ReportEventA@36

; 3860 : 			DeregisterEventSource(hEventSource);

  00082	56		 push	 esi
  00083	ff 15 00 00 00
	00		 call	 DWORD PTR __imp__DeregisterEventSource@4
$L95023:

; 3861 : 		}
; 3862 : 	}

  00089	8b 8c 24 08 01
	00 00		 mov	 ecx, DWORD PTR __$ArrayPad$[esp+268]
  00090	5e		 pop	 esi
  00091	e8 00 00 00 00	 call	 @__security_check_cookie@4
  00096	81 c4 08 01 00
	00		 add	 esp, 264		; 00000108H
  0009c	c3		 ret	 0
?LogEvent@?$CAtlServiceModuleT@VCTControlSvrModule@@$0GE@@ATL@@QAAXPBDZZ ENDP ; ATL::CAtlServiceModuleT<CTControlSvrModule,100>::LogEvent
_TEXT	ENDS
PUBLIC	??0?$pair@$$CBKPAVCTManager@@@std@@QAE@ABKABQAVCTManager@@@Z ; std::pair<unsigned long const ,CTManager *>::pair<unsigned long const ,CTManager *>
; Function compile flags: /Ogty
; File c:\program files (x86)\microsoft visual studio .net 2003\vc7\include\utility
;	COMDAT ??0?$pair@$$CBKPAVCTManager@@@std@@QAE@ABKABQAVCTManager@@@Z
_TEXT	SEGMENT
__Val1$ = 8						; size = 4
__Val2$ = 12						; size = 4
??0?$pair@$$CBKPAVCTManager@@@std@@QAE@ABKABQAVCTManager@@@Z PROC NEAR ; std::pair<unsigned long const ,CTManager *>::pair<unsigned long const ,CTManager *>, COMDAT
; _this$ = ecx

; 34   : 		{	// construct from specified values

  00000	8b c1		 mov	 eax, ecx
  00002	8b 4c 24 04	 mov	 ecx, DWORD PTR __Val1$[esp-4]
  00006	8b 11		 mov	 edx, DWORD PTR [ecx]
  00008	8b 4c 24 08	 mov	 ecx, DWORD PTR __Val2$[esp-4]
  0000c	89 10		 mov	 DWORD PTR [eax], edx
  0000e	8b 11		 mov	 edx, DWORD PTR [ecx]
  00010	89 50 04	 mov	 DWORD PTR [eax+4], edx

; 35   : 		}

  00013	c2 08 00	 ret	 8
??0?$pair@$$CBKPAVCTManager@@@std@@QAE@ABKABQAVCTManager@@@Z ENDP ; std::pair<unsigned long const ,CTManager *>::pair<unsigned long const ,CTManager *>
_TEXT	ENDS
PUBLIC	??8const_iterator@?$_Tree@V?$_Tmap_traits@KPAUtagTSVRTEMP@@U?$less@K@std@@V?$allocator@U?$pair@$$CBKPAUtagTSVRTEMP@@@std@@@3@$0A@@std@@@std@@QBE_NABV012@@Z ; std::_Tree<std::_Tmap_traits<unsigned long,tagTSVRTEMP *,std::less<unsigned long>,std::allocator<std::pair<unsigned long const ,tagTSVRTEMP *> >,0> >::const_iterator::operator==
; Function compile flags: /Ogty
; File c:\program files (x86)\microsoft visual studio .net 2003\vc7\include\xtree
;	COMDAT ??8const_iterator@?$_Tree@V?$_Tmap_traits@KPAUtagTSVRTEMP@@U?$less@K@std@@V?$allocator@U?$pair@$$CBKPAUtagTSVRTEMP@@@std@@@3@$0A@@std@@@std@@QBE_NABV012@@Z
_TEXT	SEGMENT
__Right$ = 8						; size = 4
??8const_iterator@?$_Tree@V?$_Tmap_traits@KPAUtagTSVRTEMP@@U?$less@K@std@@V?$allocator@U?$pair@$$CBKPAUtagTSVRTEMP@@@std@@@3@$0A@@std@@@std@@QBE_NABV012@@Z PROC NEAR ; std::_Tree<std::_Tmap_traits<unsigned long,tagTSVRTEMP *,std::less<unsigned long>,std::allocator<std::pair<unsigned long const ,tagTSVRTEMP *> >,0> >::const_iterator::operator==, COMDAT
; _this$ = ecx

; 241  : 			return (_Ptr == _Right._Ptr);

  00000	8b 01		 mov	 eax, DWORD PTR [ecx]
  00002	8b 4c 24 04	 mov	 ecx, DWORD PTR __Right$[esp-4]
  00006	2b 01		 sub	 eax, DWORD PTR [ecx]
  00008	f7 d8		 neg	 eax
  0000a	1b c0		 sbb	 eax, eax
  0000c	40		 inc	 eax

; 242  : 			}

  0000d	c2 04 00	 ret	 4
??8const_iterator@?$_Tree@V?$_Tmap_traits@KPAUtagTSVRTEMP@@U?$less@K@std@@V?$allocator@U?$pair@$$CBKPAUtagTSVRTEMP@@@std@@@3@$0A@@std@@@std@@QBE_NABV012@@Z ENDP ; std::_Tree<std::_Tmap_traits<unsigned long,tagTSVRTEMP *,std::less<unsigned long>,std::allocator<std::pair<unsigned long const ,tagTSVRTEMP *> >,0> >::const_iterator::operator==
_TEXT	ENDS
PUBLIC	??9const_iterator@?$_Tree@V?$_Tmap_traits@KPAUtagTSVRTEMP@@U?$less@K@std@@V?$allocator@U?$pair@$$CBKPAUtagTSVRTEMP@@@std@@@3@$0A@@std@@@std@@QBE_NABV012@@Z ; std::_Tree<std::_Tmap_traits<unsigned long,tagTSVRTEMP *,std::less<unsigned long>,std::allocator<std::pair<unsigned long const ,tagTSVRTEMP *> >,0> >::const_iterator::operator!=
; Function compile flags: /Ogty
;	COMDAT ??9const_iterator@?$_Tree@V?$_Tmap_traits@KPAUtagTSVRTEMP@@U?$less@K@std@@V?$allocator@U?$pair@$$CBKPAUtagTSVRTEMP@@@std@@@3@$0A@@std@@@std@@QBE_NABV012@@Z
_TEXT	SEGMENT
__Right$ = 8						; size = 4
??9const_iterator@?$_Tree@V?$_Tmap_traits@KPAUtagTSVRTEMP@@U?$less@K@std@@V?$allocator@U?$pair@$$CBKPAUtagTSVRTEMP@@@std@@@3@$0A@@std@@@std@@QBE_NABV012@@Z PROC NEAR ; std::_Tree<std::_Tmap_traits<unsigned long,tagTSVRTEMP *,std::less<unsigned long>,std::allocator<std::pair<unsigned long const ,tagTSVRTEMP *> >,0> >::const_iterator::operator!=, COMDAT
; _this$ = ecx

; 246  : 			return (!(*this == _Right));

  00000	8b 01		 mov	 eax, DWORD PTR [ecx]
  00002	8b 54 24 04	 mov	 edx, DWORD PTR __Right$[esp-4]
  00006	56		 push	 esi
  00007	8b 32		 mov	 esi, DWORD PTR [edx]
  00009	33 c9		 xor	 ecx, ecx
  0000b	3b c6		 cmp	 eax, esi
  0000d	0f 95 c1	 setne	 cl
  00010	8a c1		 mov	 al, cl
  00012	5e		 pop	 esi

; 247  : 			}

  00013	c2 04 00	 ret	 4
??9const_iterator@?$_Tree@V?$_Tmap_traits@KPAUtagTSVRTEMP@@U?$less@K@std@@V?$allocator@U?$pair@$$CBKPAUtagTSVRTEMP@@@std@@@3@$0A@@std@@@std@@QBE_NABV012@@Z ENDP ; std::_Tree<std::_Tmap_traits<unsigned long,tagTSVRTEMP *,std::less<unsigned long>,std::allocator<std::pair<unsigned long const ,tagTSVRTEMP *> >,0> >::const_iterator::operator!=
_TEXT	ENDS
PUBLIC	??8const_iterator@?$_Tree@V?$_Tmap_traits@EPAUtagTMACHINE@@U?$less@E@std@@V?$allocator@U?$pair@$$CBEPAUtagTMACHINE@@@std@@@3@$0A@@std@@@std@@QBE_NABV012@@Z ; std::_Tree<std::_Tmap_traits<unsigned char,tagTMACHINE *,std::less<unsigned char>,std::allocator<std::pair<unsigned char const ,tagTMACHINE *> >,0> >::const_iterator::operator==
; Function compile flags: /Ogty
;	COMDAT ??8const_iterator@?$_Tree@V?$_Tmap_traits@EPAUtagTMACHINE@@U?$less@E@std@@V?$allocator@U?$pair@$$CBEPAUtagTMACHINE@@@std@@@3@$0A@@std@@@std@@QBE_NABV012@@Z
_TEXT	SEGMENT
__Right$ = 8						; size = 4
??8const_iterator@?$_Tree@V?$_Tmap_traits@EPAUtagTMACHINE@@U?$less@E@std@@V?$allocator@U?$pair@$$CBEPAUtagTMACHINE@@@std@@@3@$0A@@std@@@std@@QBE_NABV012@@Z PROC NEAR ; std::_Tree<std::_Tmap_traits<unsigned char,tagTMACHINE *,std::less<unsigned char>,std::allocator<std::pair<unsigned char const ,tagTMACHINE *> >,0> >::const_iterator::operator==, COMDAT
; _this$ = ecx

; 241  : 			return (_Ptr == _Right._Ptr);

  00000	8b 01		 mov	 eax, DWORD PTR [ecx]
  00002	8b 4c 24 04	 mov	 ecx, DWORD PTR __Right$[esp-4]
  00006	2b 01		 sub	 eax, DWORD PTR [ecx]
  00008	f7 d8		 neg	 eax
  0000a	1b c0		 sbb	 eax, eax
  0000c	40		 inc	 eax

; 242  : 			}

  0000d	c2 04 00	 ret	 4
??8const_iterator@?$_Tree@V?$_Tmap_traits@EPAUtagTMACHINE@@U?$less@E@std@@V?$allocator@U?$pair@$$CBEPAUtagTMACHINE@@@std@@@3@$0A@@std@@@std@@QBE_NABV012@@Z ENDP ; std::_Tree<std::_Tmap_traits<unsigned char,tagTMACHINE *,std::less<unsigned char>,std::allocator<std::pair<unsigned char const ,tagTMACHINE *> >,0> >::const_iterator::operator==
_TEXT	ENDS
PUBLIC	??0?$pair@$$CBKPAUtagBANINFO@@@std@@QAE@ABKABQAUtagBANINFO@@@Z ; std::pair<unsigned long const ,tagBANINFO *>::pair<unsigned long const ,tagBANINFO *>
; Function compile flags: /Ogty
; File c:\program files (x86)\microsoft visual studio .net 2003\vc7\include\utility
;	COMDAT ??0?$pair@$$CBKPAUtagBANINFO@@@std@@QAE@ABKABQAUtagBANINFO@@@Z
_TEXT	SEGMENT
__Val1$ = 8						; size = 4
__Val2$ = 12						; size = 4
??0?$pair@$$CBKPAUtagBANINFO@@@std@@QAE@ABKABQAUtagBANINFO@@@Z PROC NEAR ; std::pair<unsigned long const ,tagBANINFO *>::pair<unsigned long const ,tagBANINFO *>, COMDAT
; _this$ = ecx

; 34   : 		{	// construct from specified values

  00000	8b c1		 mov	 eax, ecx
  00002	8b 4c 24 04	 mov	 ecx, DWORD PTR __Val1$[esp-4]
  00006	8b 11		 mov	 edx, DWORD PTR [ecx]
  00008	8b 4c 24 08	 mov	 ecx, DWORD PTR __Val2$[esp-4]
  0000c	89 10		 mov	 DWORD PTR [eax], edx
  0000e	8b 11		 mov	 edx, DWORD PTR [ecx]
  00010	89 50 04	 mov	 DWORD PTR [eax+4], edx

; 35   : 		}

  00013	c2 08 00	 ret	 8
??0?$pair@$$CBKPAUtagBANINFO@@@std@@QAE@ABKABQAUtagBANINFO@@@Z ENDP ; std::pair<unsigned long const ,tagBANINFO *>::pair<unsigned long const ,tagBANINFO *>
_TEXT	ENDS
PUBLIC	??8const_iterator@?$_Tree@V?$_Tmap_traits@KPAUtagBANINFO@@U?$less@K@std@@V?$allocator@U?$pair@$$CBKPAUtagBANINFO@@@std@@@3@$0A@@std@@@std@@QBE_NABV012@@Z ; std::_Tree<std::_Tmap_traits<unsigned long,tagBANINFO *,std::less<unsigned long>,std::allocator<std::pair<unsigned long const ,tagBANINFO *> >,0> >::const_iterator::operator==
; Function compile flags: /Ogty
; File c:\program files (x86)\microsoft visual studio .net 2003\vc7\include\xtree
;	COMDAT ??8const_iterator@?$_Tree@V?$_Tmap_traits@KPAUtagBANINFO@@U?$less@K@std@@V?$allocator@U?$pair@$$CBKPAUtagBANINFO@@@std@@@3@$0A@@std@@@std@@QBE_NABV012@@Z
_TEXT	SEGMENT
__Right$ = 8						; size = 4
??8const_iterator@?$_Tree@V?$_Tmap_traits@KPAUtagBANINFO@@U?$less@K@std@@V?$allocator@U?$pair@$$CBKPAUtagBANINFO@@@std@@@3@$0A@@std@@@std@@QBE_NABV012@@Z PROC NEAR ; std::_Tree<std::_Tmap_traits<unsigned long,tagBANINFO *,std::less<unsigned long>,std::allocator<std::pair<unsigned long const ,tagBANINFO *> >,0> >::const_iterator::operator==, COMDAT
; _this$ = ecx

; 241  : 			return (_Ptr == _Right._Ptr);

  00000	8b 01		 mov	 eax, DWORD PTR [ecx]
  00002	8b 4c 24 04	 mov	 ecx, DWORD PTR __Right$[esp-4]
  00006	2b 01		 sub	 eax, DWORD PTR [ecx]
  00008	f7 d8		 neg	 eax
  0000a	1b c0		 sbb	 eax, eax
  0000c	40		 inc	 eax

; 242  : 			}

  0000d	c2 04 00	 ret	 4
??8const_iterator@?$_Tree@V?$_Tmap_traits@KPAUtagBANINFO@@U?$less@K@std@@V?$allocator@U?$pair@$$CBKPAUtagBANINFO@@@std@@@3@$0A@@std@@@std@@QBE_NABV012@@Z ENDP ; std::_Tree<std::_Tmap_traits<unsigned long,tagBANINFO *,std::less<unsigned long>,std::allocator<std::pair<unsigned long const ,tagBANINFO *> >,0> >::const_iterator::operator==
_TEXT	ENDS
PUBLIC	??9const_iterator@?$_Tree@V?$_Tmap_traits@KPAUtagBANINFO@@U?$less@K@std@@V?$allocator@U?$pair@$$CBKPAUtagBANINFO@@@std@@@3@$0A@@std@@@std@@QBE_NABV012@@Z ; std::_Tree<std::_Tmap_traits<unsigned long,tagBANINFO *,std::less<unsigned long>,std::allocator<std::pair<unsigned long const ,tagBANINFO *> >,0> >::const_iterator::operator!=
; Function compile flags: /Ogty
;	COMDAT ??9const_iterator@?$_Tree@V?$_Tmap_traits@KPAUtagBANINFO@@U?$less@K@std@@V?$allocator@U?$pair@$$CBKPAUtagBANINFO@@@std@@@3@$0A@@std@@@std@@QBE_NABV012@@Z
_TEXT	SEGMENT
__Right$ = 8						; size = 4
??9const_iterator@?$_Tree@V?$_Tmap_traits@KPAUtagBANINFO@@U?$less@K@std@@V?$allocator@U?$pair@$$CBKPAUtagBANINFO@@@std@@@3@$0A@@std@@@std@@QBE_NABV012@@Z PROC NEAR ; std::_Tree<std::_Tmap_traits<unsigned long,tagBANINFO *,std::less<unsigned long>,std::allocator<std::pair<unsigned long const ,tagBANINFO *> >,0> >::const_iterator::operator!=, COMDAT
; _this$ = ecx

; 246  : 			return (!(*this == _Right));

  00000	8b 01		 mov	 eax, DWORD PTR [ecx]
  00002	8b 54 24 04	 mov	 edx, DWORD PTR __Right$[esp-4]
  00006	56		 push	 esi
  00007	8b 32		 mov	 esi, DWORD PTR [edx]
  00009	33 c9		 xor	 ecx, ecx
  0000b	3b c6		 cmp	 eax, esi
  0000d	0f 95 c1	 setne	 cl
  00010	8a c1		 mov	 al, cl
  00012	5e		 pop	 esi

; 247  : 			}

  00013	c2 04 00	 ret	 4
??9const_iterator@?$_Tree@V?$_Tmap_traits@KPAUtagBANINFO@@U?$less@K@std@@V?$allocator@U?$pair@$$CBKPAUtagBANINFO@@@std@@@3@$0A@@std@@@std@@QBE_NABV012@@Z ENDP ; std::_Tree<std::_Tmap_traits<unsigned long,tagBANINFO *,std::less<unsigned long>,std::allocator<std::pair<unsigned long const ,tagBANINFO *> >,0> >::const_iterator::operator!=
_TEXT	ENDS
PUBLIC	??8const_iterator@?$_Tree@V?$_Tmap_traits@KUtagEVENTINFO@@U?$less@K@std@@V?$allocator@U?$pair@$$CBKUtagEVENTINFO@@@std@@@3@$0A@@std@@@std@@QBE_NABV012@@Z ; std::_Tree<std::_Tmap_traits<unsigned long,tagEVENTINFO,std::less<unsigned long>,std::allocator<std::pair<unsigned long const ,tagEVENTINFO> >,0> >::const_iterator::operator==
; Function compile flags: /Ogty
;	COMDAT ??8const_iterator@?$_Tree@V?$_Tmap_traits@KUtagEVENTINFO@@U?$less@K@std@@V?$allocator@U?$pair@$$CBKUtagEVENTINFO@@@std@@@3@$0A@@std@@@std@@QBE_NABV012@@Z
_TEXT	SEGMENT
__Right$ = 8						; size = 4
??8const_iterator@?$_Tree@V?$_Tmap_traits@KUtagEVENTINFO@@U?$less@K@std@@V?$allocator@U?$pair@$$CBKUtagEVENTINFO@@@std@@@3@$0A@@std@@@std@@QBE_NABV012@@Z PROC NEAR ; std::_Tree<std::_Tmap_traits<unsigned long,tagEVENTINFO,std::less<unsigned long>,std::allocator<std::pair<unsigned long const ,tagEVENTINFO> >,0> >::const_iterator::operator==, COMDAT
; _this$ = ecx

; 241  : 			return (_Ptr == _Right._Ptr);

  00000	8b 01		 mov	 eax, DWORD PTR [ecx]
  00002	8b 4c 24 04	 mov	 ecx, DWORD PTR __Right$[esp-4]
  00006	2b 01		 sub	 eax, DWORD PTR [ecx]
  00008	f7 d8		 neg	 eax
  0000a	1b c0		 sbb	 eax, eax
  0000c	40		 inc	 eax

; 242  : 			}

  0000d	c2 04 00	 ret	 4
??8const_iterator@?$_Tree@V?$_Tmap_traits@KUtagEVENTINFO@@U?$less@K@std@@V?$allocator@U?$pair@$$CBKUtagEVENTINFO@@@std@@@3@$0A@@std@@@std@@QBE_NABV012@@Z ENDP ; std::_Tree<std::_Tmap_traits<unsigned long,tagEVENTINFO,std::less<unsigned long>,std::allocator<std::pair<unsigned long const ,tagEVENTINFO> >,0> >::const_iterator::operator==
_TEXT	ENDS
PUBLIC	??9const_iterator@?$_Tree@V?$_Tmap_traits@KUtagEVENTINFO@@U?$less@K@std@@V?$allocator@U?$pair@$$CBKUtagEVENTINFO@@@std@@@3@$0A@@std@@@std@@QBE_NABV012@@Z ; std::_Tree<std::_Tmap_traits<unsigned long,tagEVENTINFO,std::less<unsigned long>,std::allocator<std::pair<unsigned long const ,tagEVENTINFO> >,0> >::const_iterator::operator!=
; Function compile flags: /Ogty
;	COMDAT ??9const_iterator@?$_Tree@V?$_Tmap_traits@KUtagEVENTINFO@@U?$less@K@std@@V?$allocator@U?$pair@$$CBKUtagEVENTINFO@@@std@@@3@$0A@@std@@@std@@QBE_NABV012@@Z
_TEXT	SEGMENT
__Right$ = 8						; size = 4
??9const_iterator@?$_Tree@V?$_Tmap_traits@KUtagEVENTINFO@@U?$less@K@std@@V?$allocator@U?$pair@$$CBKUtagEVENTINFO@@@std@@@3@$0A@@std@@@std@@QBE_NABV012@@Z PROC NEAR ; std::_Tree<std::_Tmap_traits<unsigned long,tagEVENTINFO,std::less<unsigned long>,std::allocator<std::pair<unsigned long const ,tagEVENTINFO> >,0> >::const_iterator::operator!=, COMDAT
; _this$ = ecx

; 246  : 			return (!(*this == _Right));

  00000	8b 01		 mov	 eax, DWORD PTR [ecx]
  00002	8b 54 24 04	 mov	 edx, DWORD PTR __Right$[esp-4]
  00006	56		 push	 esi
  00007	8b 32		 mov	 esi, DWORD PTR [edx]
  00009	33 c9		 xor	 ecx, ecx
  0000b	3b c6		 cmp	 eax, esi
  0000d	0f 95 c1	 setne	 cl
  00010	8a c1		 mov	 al, cl
  00012	5e		 pop	 esi

; 247  : 			}

  00013	c2 04 00	 ret	 4
??9const_iterator@?$_Tree@V?$_Tmap_traits@KUtagEVENTINFO@@U?$less@K@std@@V?$allocator@U?$pair@$$CBKUtagEVENTINFO@@@std@@@3@$0A@@std@@@std@@QBE_NABV012@@Z ENDP ; std::_Tree<std::_Tmap_traits<unsigned long,tagEVENTINFO,std::less<unsigned long>,std::allocator<std::pair<unsigned long const ,tagEVENTINFO> >,0> >::const_iterator::operator!=
_TEXT	ENDS
PUBLIC	?size@?$vector@EV?$allocator@E@std@@@std@@QBEIXZ ; std::vector<unsigned char,std::allocator<unsigned char> >::size
; Function compile flags: /Ogty
; File c:\program files (x86)\microsoft visual studio .net 2003\vc7\include\vector
;	COMDAT ?size@?$vector@EV?$allocator@E@std@@@std@@QBEIXZ
_TEXT	SEGMENT
?size@?$vector@EV?$allocator@E@std@@@std@@QBEIXZ PROC NEAR ; std::vector<unsigned char,std::allocator<unsigned char> >::size, COMDAT
; _this$ = ecx

; 516  : 		return (_Myfirst == 0 ? 0 : _Mylast - _Myfirst);

  00000	8b 51 04	 mov	 edx, DWORD PTR [ecx+4]
  00003	85 d2		 test	 edx, edx
  00005	75 03		 jne	 SHORT $L99610
  00007	33 c0		 xor	 eax, eax

; 517  : 		}

  00009	c3		 ret	 0
$L99610:

; 516  : 		return (_Myfirst == 0 ? 0 : _Mylast - _Myfirst);

  0000a	8b 41 08	 mov	 eax, DWORD PTR [ecx+8]
  0000d	2b c2		 sub	 eax, edx

; 517  : 		}

  0000f	c3		 ret	 0
?size@?$vector@EV?$allocator@E@std@@@std@@QBEIXZ ENDP	; std::vector<unsigned char,std::allocator<unsigned char> >::size
_TEXT	ENDS
PUBLIC	??0?$allocator@G@std@@QAE@XZ			; std::allocator<unsigned short>::allocator<unsigned short>
; Function compile flags: /Ogty
; File c:\program files (x86)\microsoft visual studio .net 2003\vc7\include\xmemory
;	COMDAT ??0?$allocator@G@std@@QAE@XZ
_TEXT	SEGMENT
??0?$allocator@G@std@@QAE@XZ PROC NEAR			; std::allocator<unsigned short>::allocator<unsigned short>, COMDAT
; _this$ = ecx

; 111  : 	allocator()

  00000	8b c1		 mov	 eax, ecx

; 112  : 		{	// construct default allocator (do nothing)
; 113  : 		}

  00002	c3		 ret	 0
??0?$allocator@G@std@@QAE@XZ ENDP			; std::allocator<unsigned short>::allocator<unsigned short>
_TEXT	ENDS
PUBLIC	??0?$allocator@G@std@@QAE@ABV01@@Z		; std::allocator<unsigned short>::allocator<unsigned short>
; Function compile flags: /Ogty
;	COMDAT ??0?$allocator@G@std@@QAE@ABV01@@Z
_TEXT	SEGMENT
___formal$ = 8						; size = 4
??0?$allocator@G@std@@QAE@ABV01@@Z PROC NEAR		; std::allocator<unsigned short>::allocator<unsigned short>, COMDAT
; _this$ = ecx

; 115  : 	allocator(const allocator<_Ty>&)

  00000	8b c1		 mov	 eax, ecx

; 116  : 		{	// construct by copying (do nothing)
; 117  : 		}

  00002	c2 04 00	 ret	 4
??0?$allocator@G@std@@QAE@ABV01@@Z ENDP			; std::allocator<unsigned short>::allocator<unsigned short>
_TEXT	ENDS
PUBLIC	??0?$allocator@UtagTCASHITEMSALE@@@std@@QAE@XZ	; std::allocator<tagTCASHITEMSALE>::allocator<tagTCASHITEMSALE>
; Function compile flags: /Ogty
;	COMDAT ??0?$allocator@UtagTCASHITEMSALE@@@std@@QAE@XZ
_TEXT	SEGMENT
??0?$allocator@UtagTCASHITEMSALE@@@std@@QAE@XZ PROC NEAR ; std::allocator<tagTCASHITEMSALE>::allocator<tagTCASHITEMSALE>, COMDAT
; _this$ = ecx

; 111  : 	allocator()

  00000	8b c1		 mov	 eax, ecx

; 112  : 		{	// construct default allocator (do nothing)
; 113  : 		}

  00002	c3		 ret	 0
??0?$allocator@UtagTCASHITEMSALE@@@std@@QAE@XZ ENDP	; std::allocator<tagTCASHITEMSALE>::allocator<tagTCASHITEMSALE>
_TEXT	ENDS
PUBLIC	??0?$allocator@UtagTCASHITEMSALE@@@std@@QAE@ABV01@@Z ; std::allocator<tagTCASHITEMSALE>::allocator<tagTCASHITEMSALE>
; Function compile flags: /Ogty
;	COMDAT ??0?$allocator@UtagTCASHITEMSALE@@@std@@QAE@ABV01@@Z
_TEXT	SEGMENT
___formal$ = 8						; size = 4
??0?$allocator@UtagTCASHITEMSALE@@@std@@QAE@ABV01@@Z PROC NEAR ; std::allocator<tagTCASHITEMSALE>::allocator<tagTCASHITEMSALE>, COMDAT
; _this$ = ecx

; 115  : 	allocator(const allocator<_Ty>&)

  00000	8b c1		 mov	 eax, ecx

; 116  : 		{	// construct by copying (do nothing)
; 117  : 		}

  00002	c2 04 00	 ret	 4
??0?$allocator@UtagTCASHITEMSALE@@@std@@QAE@ABV01@@Z ENDP ; std::allocator<tagTCASHITEMSALE>::allocator<tagTCASHITEMSALE>
_TEXT	ENDS
PUBLIC	??0?$allocator@UtagMONREGEN@@@std@@QAE@XZ	; std::allocator<tagMONREGEN>::allocator<tagMONREGEN>
; Function compile flags: /Ogty
;	COMDAT ??0?$allocator@UtagMONREGEN@@@std@@QAE@XZ
_TEXT	SEGMENT
??0?$allocator@UtagMONREGEN@@@std@@QAE@XZ PROC NEAR	; std::allocator<tagMONREGEN>::allocator<tagMONREGEN>, COMDAT
; _this$ = ecx

; 111  : 	allocator()

  00000	8b c1		 mov	 eax, ecx

; 112  : 		{	// construct default allocator (do nothing)
; 113  : 		}

  00002	c3		 ret	 0
??0?$allocator@UtagMONREGEN@@@std@@QAE@XZ ENDP		; std::allocator<tagMONREGEN>::allocator<tagMONREGEN>
_TEXT	ENDS
PUBLIC	??0?$allocator@UtagMONREGEN@@@std@@QAE@ABV01@@Z	; std::allocator<tagMONREGEN>::allocator<tagMONREGEN>
; Function compile flags: /Ogty
;	COMDAT ??0?$allocator@UtagMONREGEN@@@std@@QAE@ABV01@@Z
_TEXT	SEGMENT
___formal$ = 8						; size = 4
??0?$allocator@UtagMONREGEN@@@std@@QAE@ABV01@@Z PROC NEAR ; std::allocator<tagMONREGEN>::allocator<tagMONREGEN>, COMDAT
; _this$ = ecx

; 115  : 	allocator(const allocator<_Ty>&)

  00000	8b c1		 mov	 eax, ecx

; 116  : 		{	// construct by copying (do nothing)
; 117  : 		}

  00002	c2 04 00	 ret	 4
??0?$allocator@UtagMONREGEN@@@std@@QAE@ABV01@@Z ENDP	; std::allocator<tagMONREGEN>::allocator<tagMONREGEN>
_TEXT	ENDS
PUBLIC	??0?$allocator@UtagLOTTERY@@@std@@QAE@XZ	; std::allocator<tagLOTTERY>::allocator<tagLOTTERY>
; Function compile flags: /Ogty
;	COMDAT ??0?$allocator@UtagLOTTERY@@@std@@QAE@XZ
_TEXT	SEGMENT
??0?$allocator@UtagLOTTERY@@@std@@QAE@XZ PROC NEAR	; std::allocator<tagLOTTERY>::allocator<tagLOTTERY>, COMDAT
; _this$ = ecx

; 111  : 	allocator()

  00000	8b c1		 mov	 eax, ecx

; 112  : 		{	// construct default allocator (do nothing)
; 113  : 		}

  00002	c3		 ret	 0
??0?$allocator@UtagLOTTERY@@@std@@QAE@XZ ENDP		; std::allocator<tagLOTTERY>::allocator<tagLOTTERY>
_TEXT	ENDS
PUBLIC	??0?$allocator@UtagLOTTERY@@@std@@QAE@ABV01@@Z	; std::allocator<tagLOTTERY>::allocator<tagLOTTERY>
; Function compile flags: /Ogty
;	COMDAT ??0?$allocator@UtagLOTTERY@@@std@@QAE@ABV01@@Z
_TEXT	SEGMENT
___formal$ = 8						; size = 4
??0?$allocator@UtagLOTTERY@@@std@@QAE@ABV01@@Z PROC NEAR ; std::allocator<tagLOTTERY>::allocator<tagLOTTERY>, COMDAT
; _this$ = ecx

; 115  : 	allocator(const allocator<_Ty>&)

  00000	8b c1		 mov	 eax, ecx

; 116  : 		{	// construct by copying (do nothing)
; 117  : 		}

  00002	c2 04 00	 ret	 4
??0?$allocator@UtagLOTTERY@@@std@@QAE@ABV01@@Z ENDP	; std::allocator<tagLOTTERY>::allocator<tagLOTTERY>
_TEXT	ENDS
PUBLIC	??R?$less@K@std@@QBE_NABK0@Z			; std::less<unsigned long>::operator()
; Function compile flags: /Ogty
; File c:\program files (x86)\microsoft visual studio .net 2003\vc7\include\functional
;	COMDAT ??R?$less@K@std@@QBE_NABK0@Z
_TEXT	SEGMENT
__Left$ = 8						; size = 4
__Right$ = 12						; size = 4
??R?$less@K@std@@QBE_NABK0@Z PROC NEAR			; std::less<unsigned long>::operator(), COMDAT
; _this$ = ecx

; 139  : 		return (_Left < _Right);

  00000	8b 44 24 04	 mov	 eax, DWORD PTR __Left$[esp-4]
  00004	8b 08		 mov	 ecx, DWORD PTR [eax]
  00006	8b 54 24 08	 mov	 edx, DWORD PTR __Right$[esp-4]
  0000a	3b 0a		 cmp	 ecx, DWORD PTR [edx]
  0000c	1b c0		 sbb	 eax, eax
  0000e	f7 d8		 neg	 eax

; 140  : 		}

  00010	c2 08 00	 ret	 8
??R?$less@K@std@@QBE_NABK0@Z ENDP			; std::less<unsigned long>::operator()
_TEXT	ENDS
PUBLIC	?_Isnil@?$_Tree@V?$_Tmap_traits@KPAVCTManager@@U?$less@K@std@@V?$allocator@U?$pair@$$CBKPAVCTManager@@@std@@@3@$0A@@std@@@std@@KAAADPAU_Node@?$_Tree_nod@V?$_Tmap_traits@KPAVCTManager@@U?$less@K@std@@V?$allocator@U?$pair@$$CBKPAVCTManager@@@std@@@3@$0A@@std@@@2@@Z ; std::_Tree<std::_Tmap_traits<unsigned long,CTManager *,std::less<unsigned long>,std::allocator<std::pair<unsigned long const ,CTManager *> >,0> >::_Isnil
; Function compile flags: /Ogty
; File c:\program files (x86)\microsoft visual studio .net 2003\vc7\include\xtree
;	COMDAT ?_Isnil@?$_Tree@V?$_Tmap_traits@KPAVCTManager@@U?$less@K@std@@V?$allocator@U?$pair@$$CBKPAVCTManager@@@std@@@3@$0A@@std@@@std@@KAAADPAU_Node@?$_Tree_nod@V?$_Tmap_traits@KPAVCTManager@@U?$less@K@std@@V?$allocator@U?$pair@$$CBKPAVCTManager@@@std@@@3@$0A@@std@@@2@@Z
_TEXT	SEGMENT
__Pnode$ = 8						; size = 4
?_Isnil@?$_Tree@V?$_Tmap_traits@KPAVCTManager@@U?$less@K@std@@V?$allocator@U?$pair@$$CBKPAVCTManager@@@std@@@3@$0A@@std@@@std@@KAAADPAU_Node@?$_Tree_nod@V?$_Tmap_traits@KPAVCTManager@@U?$less@K@std@@V?$allocator@U?$pair@$$CBKPAVCTManager@@@std@@@3@$0A@@std@@@2@@Z PROC NEAR ; std::_Tree<std::_Tmap_traits<unsigned long,CTManager *,std::less<unsigned long>,std::allocator<std::pair<unsigned long const ,CTManager *> >,0> >::_Isnil, COMDAT

; 137  : 		return ((_Charref)(*_Pnode)._Isnil);

  00000	8b 44 24 04	 mov	 eax, DWORD PTR __Pnode$[esp-4]
  00004	83 c0 15	 add	 eax, 21			; 00000015H

; 138  : 		}

  00007	c3		 ret	 0
?_Isnil@?$_Tree@V?$_Tmap_traits@KPAVCTManager@@U?$less@K@std@@V?$allocator@U?$pair@$$CBKPAVCTManager@@@std@@@3@$0A@@std@@@std@@KAAADPAU_Node@?$_Tree_nod@V?$_Tmap_traits@KPAVCTManager@@U?$less@K@std@@V?$allocator@U?$pair@$$CBKPAVCTManager@@@std@@@3@$0A@@std@@@2@@Z ENDP ; std::_Tree<std::_Tmap_traits<unsigned long,CTManager *,std::less<unsigned long>,std::allocator<std::pair<unsigned long const ,CTManager *> >,0> >::_Isnil
_TEXT	ENDS
PUBLIC	?_Left@?$_Tree@V?$_Tmap_traits@KPAVCTManager@@U?$less@K@std@@V?$allocator@U?$pair@$$CBKPAVCTManager@@@std@@@3@$0A@@std@@@std@@KAAAPAU_Node@?$_Tree_nod@V?$_Tmap_traits@KPAVCTManager@@U?$less@K@std@@V?$allocator@U?$pair@$$CBKPAVCTManager@@@std@@@3@$0A@@std@@@2@PAU342@@Z ; std::_Tree<std::_Tmap_traits<unsigned long,CTManager *,std::less<unsigned long>,std::allocator<std::pair<unsigned long const ,CTManager *> >,0> >::_Left
; Function compile flags: /Ogty
;	COMDAT ?_Left@?$_Tree@V?$_Tmap_traits@KPAVCTManager@@U?$less@K@std@@V?$allocator@U?$pair@$$CBKPAVCTManager@@@std@@@3@$0A@@std@@@std@@KAAAPAU_Node@?$_Tree_nod@V?$_Tmap_traits@KPAVCTManager@@U?$less@K@std@@V?$allocator@U?$pair@$$CBKPAVCTManager@@@std@@@3@$0A@@std@@@2@PAU342@@Z
_TEXT	SEGMENT
__Pnode$ = 8						; size = 4
?_Left@?$_Tree@V?$_Tmap_traits@KPAVCTManager@@U?$less@K@std@@V?$allocator@U?$pair@$$CBKPAVCTManager@@@std@@@3@$0A@@std@@@std@@KAAAPAU_Node@?$_Tree_nod@V?$_Tmap_traits@KPAVCTManager@@U?$less@K@std@@V?$allocator@U?$pair@$$CBKPAVCTManager@@@std@@@3@$0A@@std@@@2@PAU342@@Z PROC NEAR ; std::_Tree<std::_Tmap_traits<unsigned long,CTManager *,std::less<unsigned long>,std::allocator<std::pair<unsigned long const ,CTManager *> >,0> >::_Left, COMDAT

; 147  : 		return ((_Nodepref)(*_Pnode)._Left);

  00000	8b 44 24 04	 mov	 eax, DWORD PTR __Pnode$[esp-4]

; 148  : 		}

  00004	c3		 ret	 0
?_Left@?$_Tree@V?$_Tmap_traits@KPAVCTManager@@U?$less@K@std@@V?$allocator@U?$pair@$$CBKPAVCTManager@@@std@@@3@$0A@@std@@@std@@KAAAPAU_Node@?$_Tree_nod@V?$_Tmap_traits@KPAVCTManager@@U?$less@K@std@@V?$allocator@U?$pair@$$CBKPAVCTManager@@@std@@@3@$0A@@std@@@2@PAU342@@Z ENDP ; std::_Tree<std::_Tmap_traits<unsigned long,CTManager *,std::less<unsigned long>,std::allocator<std::pair<unsigned long const ,CTManager *> >,0> >::_Left
_TEXT	ENDS
PUBLIC	?_Right@?$_Tree@V?$_Tmap_traits@KPAVCTManager@@U?$less@K@std@@V?$allocator@U?$pair@$$CBKPAVCTManager@@@std@@@3@$0A@@std@@@std@@KAAAPAU_Node@?$_Tree_nod@V?$_Tmap_traits@KPAVCTManager@@U?$less@K@std@@V?$allocator@U?$pair@$$CBKPAVCTManager@@@std@@@3@$0A@@std@@@2@PAU342@@Z ; std::_Tree<std::_Tmap_traits<unsigned long,CTManager *,std::less<unsigned long>,std::allocator<std::pair<unsigned long const ,CTManager *> >,0> >::_Right
; Function compile flags: /Ogty
;	COMDAT ?_Right@?$_Tree@V?$_Tmap_traits@KPAVCTManager@@U?$less@K@std@@V?$allocator@U?$pair@$$CBKPAVCTManager@@@std@@@3@$0A@@std@@@std@@KAAAPAU_Node@?$_Tree_nod@V?$_Tmap_traits@KPAVCTManager@@U?$less@K@std@@V?$allocator@U?$pair@$$CBKPAVCTManager@@@std@@@3@$0A@@std@@@2@PAU342@@Z
_TEXT	SEGMENT
__Pnode$ = 8						; size = 4
?_Right@?$_Tree@V?$_Tmap_traits@KPAVCTManager@@U?$less@K@std@@V?$allocator@U?$pair@$$CBKPAVCTManager@@@std@@@3@$0A@@std@@@std@@KAAAPAU_Node@?$_Tree_nod@V?$_Tmap_traits@KPAVCTManager@@U?$less@K@std@@V?$allocator@U?$pair@$$CBKPAVCTManager@@@std@@@3@$0A@@std@@@2@PAU342@@Z PROC NEAR ; std::_Tree<std::_Tmap_traits<unsigned long,CTManager *,std::less<unsigned long>,std::allocator<std::pair<unsigned long const ,CTManager *> >,0> >::_Right, COMDAT

; 157  : 		return ((_Nodepref)(*_Pnode)._Right);

  00000	8b 44 24 04	 mov	 eax, DWORD PTR __Pnode$[esp-4]
  00004	83 c0 08	 add	 eax, 8

; 158  : 		}

  00007	c3		 ret	 0
?_Right@?$_Tree@V?$_Tmap_traits@KPAVCTManager@@U?$less@K@std@@V?$allocator@U?$pair@$$CBKPAVCTManager@@@std@@@3@$0A@@std@@@std@@KAAAPAU_Node@?$_Tree_nod@V?$_Tmap_traits@KPAVCTManager@@U?$less@K@std@@V?$allocator@U?$pair@$$CBKPAVCTManager@@@std@@@3@$0A@@std@@@2@PAU342@@Z ENDP ; std::_Tree<std::_Tmap_traits<unsigned long,CTManager *,std::less<unsigned long>,std::allocator<std::pair<unsigned long const ,CTManager *> >,0> >::_Right
_TEXT	ENDS
PUBLIC	?_Lmost@?$_Tree@V?$_Tmap_traits@KPAVCTManager@@U?$less@K@std@@V?$allocator@U?$pair@$$CBKPAVCTManager@@@std@@@3@$0A@@std@@@std@@IAEAAPAU_Node@?$_Tree_nod@V?$_Tmap_traits@KPAVCTManager@@U?$less@K@std@@V?$allocator@U?$pair@$$CBKPAVCTManager@@@std@@@3@$0A@@std@@@2@XZ ; std::_Tree<std::_Tmap_traits<unsigned long,CTManager *,std::less<unsigned long>,std::allocator<std::pair<unsigned long const ,CTManager *> >,0> >::_Lmost
; Function compile flags: /Ogty
;	COMDAT ?_Lmost@?$_Tree@V?$_Tmap_traits@KPAVCTManager@@U?$less@K@std@@V?$allocator@U?$pair@$$CBKPAVCTManager@@@std@@@3@$0A@@std@@@std@@IAEAAPAU_Node@?$_Tree_nod@V?$_Tmap_traits@KPAVCTManager@@U?$less@K@std@@V?$allocator@U?$pair@$$CBKPAVCTManager@@@std@@@3@$0A@@std@@@2@XZ
_TEXT	SEGMENT
?_Lmost@?$_Tree@V?$_Tmap_traits@KPAVCTManager@@U?$less@K@std@@V?$allocator@U?$pair@$$CBKPAVCTManager@@@std@@@3@$0A@@std@@@std@@IAEAAPAU_Node@?$_Tree_nod@V?$_Tmap_traits@KPAVCTManager@@U?$less@K@std@@V?$allocator@U?$pair@$$CBKPAVCTManager@@@std@@@3@$0A@@std@@@2@XZ PROC NEAR ; std::_Tree<std::_Tmap_traits<unsigned long,CTManager *,std::less<unsigned long>,std::allocator<std::pair<unsigned long const ,CTManager *> >,0> >::_Lmost, COMDAT
; _this$ = ecx

; 1005 : 		return (_Left(_Myhead));

  00000	8b 41 04	 mov	 eax, DWORD PTR [ecx+4]

; 1006 : 		}

  00003	c3		 ret	 0
?_Lmost@?$_Tree@V?$_Tmap_traits@KPAVCTManager@@U?$less@K@std@@V?$allocator@U?$pair@$$CBKPAVCTManager@@@std@@@3@$0A@@std@@@std@@IAEAAPAU_Node@?$_Tree_nod@V?$_Tmap_traits@KPAVCTManager@@U?$less@K@std@@V?$allocator@U?$pair@$$CBKPAVCTManager@@@std@@@3@$0A@@std@@@2@XZ ENDP ; std::_Tree<std::_Tmap_traits<unsigned long,CTManager *,std::less<unsigned long>,std::allocator<std::pair<unsigned long const ,CTManager *> >,0> >::_Lmost
_TEXT	ENDS
PUBLIC	?_Kfn@?$_Tmap_traits@KPAVCTManager@@U?$less@K@std@@V?$allocator@U?$pair@$$CBKPAVCTManager@@@std@@@3@$0A@@std@@SAABKABU?$pair@$$CBKPAVCTManager@@@2@@Z ; std::_Tmap_traits<unsigned long,CTManager *,std::less<unsigned long>,std::allocator<std::pair<unsigned long const ,CTManager *> >,0>::_Kfn
; Function compile flags: /Ogty
; File c:\program files (x86)\microsoft visual studio .net 2003\vc7\include\map
;	COMDAT ?_Kfn@?$_Tmap_traits@KPAVCTManager@@U?$less@K@std@@V?$allocator@U?$pair@$$CBKPAVCTManager@@@std@@@3@$0A@@std@@SAABKABU?$pair@$$CBKPAVCTManager@@@2@@Z
_TEXT	SEGMENT
__Val$ = 8						; size = 4
?_Kfn@?$_Tmap_traits@KPAVCTManager@@U?$less@K@std@@V?$allocator@U?$pair@$$CBKPAVCTManager@@@std@@@3@$0A@@std@@SAABKABU?$pair@$$CBKPAVCTManager@@@2@@Z PROC NEAR ; std::_Tmap_traits<unsigned long,CTManager *,std::less<unsigned long>,std::allocator<std::pair<unsigned long const ,CTManager *> >,0>::_Kfn, COMDAT

; 64   : 		return (_Val.first);

  00000	8b 44 24 04	 mov	 eax, DWORD PTR __Val$[esp-4]

; 65   : 		}

  00004	c3		 ret	 0
?_Kfn@?$_Tmap_traits@KPAVCTManager@@U?$less@K@std@@V?$allocator@U?$pair@$$CBKPAVCTManager@@@std@@@3@$0A@@std@@SAABKABU?$pair@$$CBKPAVCTManager@@@2@@Z ENDP ; std::_Tmap_traits<unsigned long,CTManager *,std::less<unsigned long>,std::allocator<std::pair<unsigned long const ,CTManager *> >,0>::_Kfn
_TEXT	ENDS
PUBLIC	??R?$less@E@std@@QBE_NABE0@Z			; std::less<unsigned char>::operator()
; Function compile flags: /Ogty
; File c:\program files (x86)\microsoft visual studio .net 2003\vc7\include\functional
;	COMDAT ??R?$less@E@std@@QBE_NABE0@Z
_TEXT	SEGMENT
__Left$ = 8						; size = 4
__Right$ = 12						; size = 4
??R?$less@E@std@@QBE_NABE0@Z PROC NEAR			; std::less<unsigned char>::operator(), COMDAT
; _this$ = ecx

; 139  : 		return (_Left < _Right);

  00000	8b 44 24 04	 mov	 eax, DWORD PTR __Left$[esp-4]
  00004	8a 08		 mov	 cl, BYTE PTR [eax]
  00006	8b 54 24 08	 mov	 edx, DWORD PTR __Right$[esp-4]
  0000a	33 c0		 xor	 eax, eax
  0000c	3a 0a		 cmp	 cl, BYTE PTR [edx]
  0000e	1b c0		 sbb	 eax, eax
  00010	f7 d8		 neg	 eax

; 140  : 		}

  00012	c2 08 00	 ret	 8
??R?$less@E@std@@QBE_NABE0@Z ENDP			; std::less<unsigned char>::operator()
_TEXT	ENDS
PUBLIC	??0?$allocator@E@std@@QAE@XZ			; std::allocator<unsigned char>::allocator<unsigned char>
; Function compile flags: /Ogty
; File c:\program files (x86)\microsoft visual studio .net 2003\vc7\include\xmemory
;	COMDAT ??0?$allocator@E@std@@QAE@XZ
_TEXT	SEGMENT
??0?$allocator@E@std@@QAE@XZ PROC NEAR			; std::allocator<unsigned char>::allocator<unsigned char>, COMDAT
; _this$ = ecx

; 111  : 	allocator()

  00000	8b c1		 mov	 eax, ecx

