; Listing generated by Microsoft (R) Optimizing Compiler Version 13.10.3077 

	TITLE	.\Sender.cpp
	.386P
include listing.inc
if @Version gt 510
.model FLAT
else
_TEXT	SEGMENT PARA USE32 PUBLIC 'CODE'
_TEXT	ENDS
_DATA	SEGMENT DWORD USE32 PUBLIC 'DATA'
_DATA	ENDS
CONST	SEGMENT DWORD USE32 PUBLIC 'CONST'
CONST	ENDS
_BSS	SEGMENT DWORD USE32 PUBLIC 'BSS'
_BSS	ENDS
$$SYMBOLS	SEGMENT BYTE USE32 'DEBSYM'
$$SYMBOLS	ENDS
$$TYPES	SEGMENT BYTE USE32 'DEBTYP'
$$TYPES	ENDS
_TLS	SEGMENT DWORD USE32 PUBLIC 'TLS'
_TLS	ENDS
;	COMDAT ??_C@_0BM@NMJKDPPO@invalid?5vector?$DMT?$DO?5subscript?$AA@
CONST	SEGMENT DWORD USE32 PUBLIC 'CONST'
CONST	ENDS
text$yc	SEGMENT PARA USE32 PUBLIC 'CODE'
text$yc	ENDS
CRT$XCA	SEGMENT DWORD USE32 PUBLIC 'DATA'
CRT$XCA	ENDS
CRT$XCU	SEGMENT DWORD USE32 PUBLIC 'DATA'
CRT$XCU	ENDS
CRT$XCL	SEGMENT DWORD USE32 PUBLIC 'DATA'
CRT$XCL	ENDS
CRT$XCC	SEGMENT DWORD USE32 PUBLIC 'DATA'
CRT$XCC	ENDS
CRT$XCZ	SEGMENT DWORD USE32 PUBLIC 'DATA'
CRT$XCZ	ENDS
text$yd	SEGMENT PARA USE32 PUBLIC 'CODE'
text$yd	ENDS
ATL$__m	SEGMENT DWORD USE32 PUBLIC ''
ATL$__m	ENDS
ATL$__z	SEGMENT DWORD USE32 PUBLIC ''
ATL$__z	ENDS
ATL$__a	SEGMENT DWORD USE32 PUBLIC ''
ATL$__a	ENDS
xdata$x	SEGMENT DWORD USE32 PUBLIC 'CONST'
xdata$x	ENDS
;	COMDAT ?SendCT_OPLOGIN_ACK@CTManager@@QAEXEEK@Z
_TEXT	SEGMENT PARA USE32 PUBLIC 'CODE'
_TEXT	ENDS
;	COMDAT ?SendCT_STLOGIN_ACK@CTManager@@QAEXEE@Z
_TEXT	SEGMENT PARA USE32 PUBLIC 'CODE'
_TEXT	ENDS
;	COMDAT ?SendCT_SVRTYPELIST_ACK@CTManager@@QAEXPAV?$map@EPAUtagTSVRTYPE@@U?$less@E@std@@V?$allocator@U?$pair@$$CBEPAUtagTSVRTYPE@@@std@@@3@@std@@@Z
_TEXT	SEGMENT PARA USE32 PUBLIC 'CODE'
_TEXT	ENDS
;	COMDAT ?SendCT_MACHINELIST_ACK@CTManager@@QAEXPAV?$map@EPAUtagTMACHINE@@U?$less@E@std@@V?$allocator@U?$pair@$$CBEPAUtagTMACHINE@@@std@@@3@@std@@@Z
_TEXT	SEGMENT PARA USE32 PUBLIC 'CODE'
_TEXT	ENDS
;	COMDAT ?SendCT_GROUPLIST_ACK@CTManager@@QAEXPAV?$map@EPAUtagTGROUP@@U?$less@E@std@@V?$allocator@U?$pair@$$CBEPAUtagTGROUP@@@std@@@3@@std@@@Z
_TEXT	SEGMENT PARA USE32 PUBLIC 'CODE'
_TEXT	ENDS
;	COMDAT ?SendCT_SERVICESTAT_ACK@CTManager@@QAEXPAV?$map@KPAUtagTSVRTEMP@@U?$less@K@std@@V?$allocator@U?$pair@$$CBKPAUtagTSVRTEMP@@@std@@@3@@std@@@Z
_TEXT	SEGMENT PARA USE32 PUBLIC 'CODE'
_TEXT	ENDS
;	COMDAT ?SendCT_SERVICECONTROL_ACK@CTManager@@QAEXE@Z
_TEXT	SEGMENT PARA USE32 PUBLIC 'CODE'
_TEXT	ENDS
;	COMDAT ?SendCT_SERVICECHANGE_ACK@CTManager@@QAEXKK@Z
_TEXT	SEGMENT PARA USE32 PUBLIC 'CODE'
_TEXT	ENDS
;	COMDAT ?SendCT_SERVICEDATA_ACK@CTManager@@QAEXPAUtagTSVRTEMP@@KKKK@Z
_TEXT	SEGMENT PARA USE32 PUBLIC 'CODE'
_TEXT	ENDS
;	COMDAT ?SendCT_SERVICEUPLOADSTART_ACK@CTManager@@QAEXE@Z
_TEXT	SEGMENT PARA USE32 PUBLIC 'CODE'
_TEXT	ENDS
;	COMDAT ?SendCT_SERVICEUPLOAD_ACK@CTManager@@QAEXXZ
_TEXT	SEGMENT PARA USE32 PUBLIC 'CODE'
_TEXT	ENDS
;	COMDAT ?SendCT_SERVICEUPLOADEND_ACK@CTManager@@QAEXE@Z
_TEXT	SEGMENT PARA USE32 PUBLIC 'CODE'
_TEXT	ENDS
;	COMDAT ?SendCT_AUTHORITY_ACK@CTManager@@QAEXXZ
_TEXT	SEGMENT PARA USE32 PUBLIC 'CODE'
_TEXT	ENDS
;	COMDAT ?SendCT_ACCOUNTINPUT_ACK@CTManager@@QAEXE@Z
_TEXT	SEGMENT PARA USE32 PUBLIC 'CODE'
_TEXT	ENDS
;	COMDAT ?SendCT_PLATFORM_ACK@CTManager@@QAEXEKKM@Z
_TEXT	SEGMENT PARA USE32 PUBLIC 'CODE'
_TEXT	ENDS
;	COMDAT ?SendCT_MONSPAWNFIND_ACK@CTManager@@QAEXPAVCPacket@@@Z
_TEXT	SEGMENT PARA USE32 PUBLIC 'CODE'
_TEXT	ENDS
;	COMDAT ?SendCT_USERPROTECTED_ACK@CTManager@@QAEXE@Z
_TEXT	SEGMENT PARA USE32 PUBLIC 'CODE'
_TEXT	ENDS
;	COMDAT ?SendCT_SERVICEAUTOSTART_ACK@CTManager@@QAEXE@Z
_TEXT	SEGMENT PARA USE32 PUBLIC 'CODE'
_TEXT	ENDS
;	COMDAT ?SendCT_CHATBAN_ACK@CTManager@@QAEXE@Z
_TEXT	SEGMENT PARA USE32 PUBLIC 'CODE'
_TEXT	ENDS
;	COMDAT ?SendCT_ITEMFIND_ACK@CTManager@@QAEXPAVCPacket@@@Z
_TEXT	SEGMENT PARA USE32 PUBLIC 'CODE'
_TEXT	ENDS
;	COMDAT ?SendCT_ITEMSTATE_ACK@CTManager@@QAEXPAVCPacket@@@Z
_TEXT	SEGMENT PARA USE32 PUBLIC 'CODE'
_TEXT	ENDS
;	COMDAT ?SendCT_CHATBANLIST_ACK@CTManager@@QAEXPAV?$map@KPAUtagBANINFO@@U?$less@K@std@@V?$allocator@U?$pair@$$CBKPAUtagBANINFO@@@std@@@3@@std@@@Z
_TEXT	SEGMENT PARA USE32 PUBLIC 'CODE'
_TEXT	ENDS
;	COMDAT ?SendCT_CASTLEINFO_ACK@CTManager@@QAEXPAVCPacket@@@Z
_TEXT	SEGMENT PARA USE32 PUBLIC 'CODE'
_TEXT	ENDS
;	COMDAT ?SendCT_CASTLEGUILDCHG_ACK@CTManager@@QAEXPAVCPacket@@@Z
_TEXT	SEGMENT PARA USE32 PUBLIC 'CODE'
_TEXT	ENDS
;	COMDAT ?SendCT_EVENTCHANGE_ACK@CTManager@@QAEXEEPAUtagEVENTINFO@@@Z
_TEXT	SEGMENT PARA USE32 PUBLIC 'CODE'
_TEXT	ENDS
;	COMDAT ?SendCT_EVENTLIST_ACK@CTManager@@QAEXPAV?$map@KUtagEVENTINFO@@U?$less@K@std@@V?$allocator@U?$pair@$$CBKUtagEVENTINFO@@@std@@@3@@std@@@Z
_TEXT	SEGMENT PARA USE32 PUBLIC 'CODE'
_TEXT	ENDS
;	COMDAT ?SendCT_CASHITEMLIST_ACK@CTManager@@QAEXPAV?$vector@UtagTCASHITEM@@V?$allocator@UtagTCASHITEM@@@std@@@std@@@Z
_TEXT	SEGMENT PARA USE32 PUBLIC 'CODE'
_TEXT	ENDS
;	COMDAT ?SendCT_EVENTQUARTERLIST_ACK@CTManager@@QAEXPAVCPacket@@@Z
_TEXT	SEGMENT PARA USE32 PUBLIC 'CODE'
_TEXT	ENDS
;	COMDAT ?SendCT_EVENTQUARTERUPDATE_ACK@CTManager@@QAEXPAVCPacket@@@Z
_TEXT	SEGMENT PARA USE32 PUBLIC 'CODE'
_TEXT	ENDS
;	COMDAT ?SendCT_TOURNAMENTEVENT_ACK@CTManager@@QAEXPAVCPacket@@@Z
_TEXT	SEGMENT PARA USE32 PUBLIC 'CODE'
_TEXT	ENDS
;	COMDAT ?SendCT_RPSGAMEDATA_ACK@CTManager@@QAEXPAVCPacket@@@Z
_TEXT	SEGMENT PARA USE32 PUBLIC 'CODE'
_TEXT	ENDS
;	COMDAT ?SendCT_PREVERSIONTABLE_ACK@CTManager@@QAEXPAV?$vector@UtagPATCHFILE@@V?$allocator@UtagPATCHFILE@@@std@@@std@@@Z
_TEXT	SEGMENT PARA USE32 PUBLIC 'CODE'
_TEXT	ENDS
;	COMDAT ??0tagPATCHFILE@@QAE@ABU0@@Z
_TEXT	SEGMENT PARA USE32 PUBLIC 'CODE'
_TEXT	ENDS
;	COMDAT ??1tagPATCHFILE@@QAE@XZ
_TEXT	SEGMENT PARA USE32 PUBLIC 'CODE'
_TEXT	ENDS
;	COMDAT ?begin@?$_Tree@V?$_Tmap_traits@EPAUtagTSVRTYPE@@U?$less@E@std@@V?$allocator@U?$pair@$$CBEPAUtagTSVRTYPE@@@std@@@3@$0A@@std@@@std@@QAE?AViterator@12@XZ
_TEXT	SEGMENT PARA USE32 PUBLIC 'CODE'
_TEXT	ENDS
;	COMDAT ?end@?$_Tree@V?$_Tmap_traits@EPAUtagTSVRTYPE@@U?$less@E@std@@V?$allocator@U?$pair@$$CBEPAUtagTSVRTYPE@@@std@@@3@$0A@@std@@@std@@QAE?AViterator@12@XZ
_TEXT	SEGMENT PARA USE32 PUBLIC 'CODE'
_TEXT	ENDS
;	COMDAT ?size@?$_Tree@V?$_Tmap_traits@EPAUtagTSVRTYPE@@U?$less@E@std@@V?$allocator@U?$pair@$$CBEPAUtagTSVRTYPE@@@std@@@3@$0A@@std@@@std@@QBEIXZ
_TEXT	SEGMENT PARA USE32 PUBLIC 'CODE'
_TEXT	ENDS
;	COMDAT ??0iterator@?$_Tree@V?$_Tmap_traits@EPAUtagTSVRTYPE@@U?$less@E@std@@V?$allocator@U?$pair@$$CBEPAUtagTSVRTYPE@@@std@@@3@$0A@@std@@@std@@QAE@XZ
_TEXT	SEGMENT PARA USE32 PUBLIC 'CODE'
_TEXT	ENDS
;	COMDAT ??Diterator@?$_Tree@V?$_Tmap_traits@EPAUtagTSVRTYPE@@U?$less@E@std@@V?$allocator@U?$pair@$$CBEPAUtagTSVRTYPE@@@std@@@3@$0A@@std@@@std@@QBEAAU?$pair@$$CBEPAUtagTSVRTYPE@@@2@XZ
_TEXT	SEGMENT PARA USE32 PUBLIC 'CODE'
_TEXT	ENDS
;	COMDAT ??Eiterator@?$_Tree@V?$_Tmap_traits@EPAUtagTSVRTYPE@@U?$less@E@std@@V?$allocator@U?$pair@$$CBEPAUtagTSVRTYPE@@@std@@@3@$0A@@std@@@std@@QAE?AV012@H@Z
_TEXT	SEGMENT PARA USE32 PUBLIC 'CODE'
_TEXT	ENDS
;	COMDAT ??9const_iterator@?$_Tree@V?$_Tmap_traits@EPAUtagTSVRTYPE@@U?$less@E@std@@V?$allocator@U?$pair@$$CBEPAUtagTSVRTYPE@@@std@@@3@$0A@@std@@@std@@QBE_NABV012@@Z
_TEXT	SEGMENT PARA USE32 PUBLIC 'CODE'
_TEXT	ENDS
;	COMDAT ?begin@?$_Tree@V?$_Tmap_traits@EPAUtagTMACHINE@@U?$less@E@std@@V?$allocator@U?$pair@$$CBEPAUtagTMACHINE@@@std@@@3@$0A@@std@@@std@@QAE?AViterator@12@XZ
_TEXT	SEGMENT PARA USE32 PUBLIC 'CODE'
_TEXT	ENDS
;	COMDAT ?end@?$_Tree@V?$_Tmap_traits@EPAUtagTMACHINE@@U?$less@E@std@@V?$allocator@U?$pair@$$CBEPAUtagTMACHINE@@@std@@@3@$0A@@std@@@std@@QAE?AViterator@12@XZ
_TEXT	SEGMENT PARA USE32 PUBLIC 'CODE'
_TEXT	ENDS
;	COMDAT ?size@?$_Tree@V?$_Tmap_traits@EPAUtagTMACHINE@@U?$less@E@std@@V?$allocator@U?$pair@$$CBEPAUtagTMACHINE@@@std@@@3@$0A@@std@@@std@@QBEIXZ
_TEXT	SEGMENT PARA USE32 PUBLIC 'CODE'
_TEXT	ENDS
;	COMDAT ??0iterator@?$_Tree@V?$_Tmap_traits@EPAUtagTMACHINE@@U?$less@E@std@@V?$allocator@U?$pair@$$CBEPAUtagTMACHINE@@@std@@@3@$0A@@std@@@std@@QAE@XZ
_TEXT	SEGMENT PARA USE32 PUBLIC 'CODE'
_TEXT	ENDS
;	COMDAT ??Diterator@?$_Tree@V?$_Tmap_traits@EPAUtagTMACHINE@@U?$less@E@std@@V?$allocator@U?$pair@$$CBEPAUtagTMACHINE@@@std@@@3@$0A@@std@@@std@@QBEAAU?$pair@$$CBEPAUtagTMACHINE@@@2@XZ
_TEXT	SEGMENT PARA USE32 PUBLIC 'CODE'
_TEXT	ENDS
;	COMDAT ??Eiterator@?$_Tree@V?$_Tmap_traits@EPAUtagTMACHINE@@U?$less@E@std@@V?$allocator@U?$pair@$$CBEPAUtagTMACHINE@@@std@@@3@$0A@@std@@@std@@QAE?AV012@H@Z
_TEXT	SEGMENT PARA USE32 PUBLIC 'CODE'
_TEXT	ENDS
;	COMDAT ??9const_iterator@?$_Tree@V?$_Tmap_traits@EPAUtagTMACHINE@@U?$less@E@std@@V?$allocator@U?$pair@$$CBEPAUtagTMACHINE@@@std@@@3@$0A@@std@@@std@@QBE_NABV012@@Z
_TEXT	SEGMENT PARA USE32 PUBLIC 'CODE'
_TEXT	ENDS
;	COMDAT ?begin@?$_Tree@V?$_Tmap_traits@EPAUtagTGROUP@@U?$less@E@std@@V?$allocator@U?$pair@$$CBEPAUtagTGROUP@@@std@@@3@$0A@@std@@@std@@QAE?AViterator@12@XZ
_TEXT	SEGMENT PARA USE32 PUBLIC 'CODE'
_TEXT	ENDS
;	COMDAT ?end@?$_Tree@V?$_Tmap_traits@EPAUtagTGROUP@@U?$less@E@std@@V?$allocator@U?$pair@$$CBEPAUtagTGROUP@@@std@@@3@$0A@@std@@@std@@QAE?AViterator@12@XZ
_TEXT	SEGMENT PARA USE32 PUBLIC 'CODE'
_TEXT	ENDS
;	COMDAT ?size@?$_Tree@V?$_Tmap_traits@EPAUtagTGROUP@@U?$less@E@std@@V?$allocator@U?$pair@$$CBEPAUtagTGROUP@@@std@@@3@$0A@@std@@@std@@QBEIXZ
_TEXT	SEGMENT PARA USE32 PUBLIC 'CODE'
_TEXT	ENDS
;	COMDAT ??0iterator@?$_Tree@V?$_Tmap_traits@EPAUtagTGROUP@@U?$less@E@std@@V?$allocator@U?$pair@$$CBEPAUtagTGROUP@@@std@@@3@$0A@@std@@@std@@QAE@XZ
_TEXT	SEGMENT PARA USE32 PUBLIC 'CODE'
_TEXT	ENDS
;	COMDAT ??Diterator@?$_Tree@V?$_Tmap_traits@EPAUtagTGROUP@@U?$less@E@std@@V?$allocator@U?$pair@$$CBEPAUtagTGROUP@@@std@@@3@$0A@@std@@@std@@QBEAAU?$pair@$$CBEPAUtagTGROUP@@@2@XZ
_TEXT	SEGMENT PARA USE32 PUBLIC 'CODE'
_TEXT	ENDS
;	COMDAT ??Eiterator@?$_Tree@V?$_Tmap_traits@EPAUtagTGROUP@@U?$less@E@std@@V?$allocator@U?$pair@$$CBEPAUtagTGROUP@@@std@@@3@$0A@@std@@@std@@QAE?AV012@H@Z
_TEXT	SEGMENT PARA USE32 PUBLIC 'CODE'
_TEXT	ENDS
;	COMDAT ??9const_iterator@?$_Tree@V?$_Tmap_traits@EPAUtagTGROUP@@U?$less@E@std@@V?$allocator@U?$pair@$$CBEPAUtagTGROUP@@@std@@@3@$0A@@std@@@std@@QBE_NABV012@@Z
_TEXT	SEGMENT PARA USE32 PUBLIC 'CODE'
_TEXT	ENDS
;	COMDAT ?begin@?$_Tree@V?$_Tmap_traits@KPAUtagTSVRTEMP@@U?$less@K@std@@V?$allocator@U?$pair@$$CBKPAUtagTSVRTEMP@@@std@@@3@$0A@@std@@@std@@QAE?AViterator@12@XZ
_TEXT	SEGMENT PARA USE32 PUBLIC 'CODE'
_TEXT	ENDS
;	COMDAT ?end@?$_Tree@V?$_Tmap_traits@KPAUtagTSVRTEMP@@U?$less@K@std@@V?$allocator@U?$pair@$$CBKPAUtagTSVRTEMP@@@std@@@3@$0A@@std@@@std@@QAE?AViterator@12@XZ
_TEXT	SEGMENT PARA USE32 PUBLIC 'CODE'
_TEXT	ENDS
;	COMDAT ?size@?$_Tree@V?$_Tmap_traits@KPAUtagTSVRTEMP@@U?$less@K@std@@V?$allocator@U?$pair@$$CBKPAUtagTSVRTEMP@@@std@@@3@$0A@@std@@@std@@QBEIXZ
_TEXT	SEGMENT PARA USE32 PUBLIC 'CODE'
_TEXT	ENDS
;	COMDAT ??0iterator@?$_Tree@V?$_Tmap_traits@KPAUtagTSVRTEMP@@U?$less@K@std@@V?$allocator@U?$pair@$$CBKPAUtagTSVRTEMP@@@std@@@3@$0A@@std@@@std@@QAE@XZ
_TEXT	SEGMENT PARA USE32 PUBLIC 'CODE'
_TEXT	ENDS
;	COMDAT ??Diterator@?$_Tree@V?$_Tmap_traits@KPAUtagTSVRTEMP@@U?$less@K@std@@V?$allocator@U?$pair@$$CBKPAUtagTSVRTEMP@@@std@@@3@$0A@@std@@@std@@QBEAAU?$pair@$$CBKPAUtagTSVRTEMP@@@2@XZ
_TEXT	SEGMENT PARA USE32 PUBLIC 'CODE'
_TEXT	ENDS
;	COMDAT ??Eiterator@?$_Tree@V?$_Tmap_traits@KPAUtagTSVRTEMP@@U?$less@K@std@@V?$allocator@U?$pair@$$CBKPAUtagTSVRTEMP@@@std@@@3@$0A@@std@@@std@@QAE?AV012@H@Z
_TEXT	SEGMENT PARA USE32 PUBLIC 'CODE'
_TEXT	ENDS
;	COMDAT ??9const_iterator@?$_Tree@V?$_Tmap_traits@KPAUtagTSVRTEMP@@U?$less@K@std@@V?$allocator@U?$pair@$$CBKPAUtagTSVRTEMP@@@std@@@3@$0A@@std@@@std@@QBE_NABV012@@Z
_TEXT	SEGMENT PARA USE32 PUBLIC 'CODE'
_TEXT	ENDS
;	COMDAT ?begin@?$_Tree@V?$_Tmap_traits@KPAUtagBANINFO@@U?$less@K@std@@V?$allocator@U?$pair@$$CBKPAUtagBANINFO@@@std@@@3@$0A@@std@@@std@@QAE?AViterator@12@XZ
_TEXT	SEGMENT PARA USE32 PUBLIC 'CODE'
_TEXT	ENDS
;	COMDAT ?end@?$_Tree@V?$_Tmap_traits@KPAUtagBANINFO@@U?$less@K@std@@V?$allocator@U?$pair@$$CBKPAUtagBANINFO@@@std@@@3@$0A@@std@@@std@@QAE?AViterator@12@XZ
_TEXT	SEGMENT PARA USE32 PUBLIC 'CODE'
_TEXT	ENDS
;	COMDAT ?size@?$_Tree@V?$_Tmap_traits@KPAUtagBANINFO@@U?$less@K@std@@V?$allocator@U?$pair@$$CBKPAUtagBANINFO@@@std@@@3@$0A@@std@@@std@@QBEIXZ
_TEXT	SEGMENT PARA USE32 PUBLIC 'CODE'
_TEXT	ENDS
;	COMDAT ??0iterator@?$_Tree@V?$_Tmap_traits@KPAUtagBANINFO@@U?$less@K@std@@V?$allocator@U?$pair@$$CBKPAUtagBANINFO@@@std@@@3@$0A@@std@@@std@@QAE@XZ
_TEXT	SEGMENT PARA USE32 PUBLIC 'CODE'
_TEXT	ENDS
;	COMDAT ??Diterator@?$_Tree@V?$_Tmap_traits@KPAUtagBANINFO@@U?$less@K@std@@V?$allocator@U?$pair@$$CBKPAUtagBANINFO@@@std@@@3@$0A@@std@@@std@@QBEAAU?$pair@$$CBKPAUtagBANINFO@@@2@XZ
_TEXT	SEGMENT PARA USE32 PUBLIC 'CODE'
_TEXT	ENDS
;	COMDAT ??Eiterator@?$_Tree@V?$_Tmap_traits@KPAUtagBANINFO@@U?$less@K@std@@V?$allocator@U?$pair@$$CBKPAUtagBANINFO@@@std@@@3@$0A@@std@@@std@@QAE?AV012@H@Z
_TEXT	SEGMENT PARA USE32 PUBLIC 'CODE'
_TEXT	ENDS
;	COMDAT ??9const_iterator@?$_Tree@V?$_Tmap_traits@KPAUtagBANINFO@@U?$less@K@std@@V?$allocator@U?$pair@$$CBKPAUtagBANINFO@@@std@@@3@$0A@@std@@@std@@QBE_NABV012@@Z
_TEXT	SEGMENT PARA USE32 PUBLIC 'CODE'
_TEXT	ENDS
;	COMDAT ?begin@?$_Tree@V?$_Tmap_traits@KUtagEVENTINFO@@U?$less@K@std@@V?$allocator@U?$pair@$$CBKUtagEVENTINFO@@@std@@@3@$0A@@std@@@std@@QAE?AViterator@12@XZ
_TEXT	SEGMENT PARA USE32 PUBLIC 'CODE'
_TEXT	ENDS
;	COMDAT ?end@?$_Tree@V?$_Tmap_traits@KUtagEVENTINFO@@U?$less@K@std@@V?$allocator@U?$pair@$$CBKUtagEVENTINFO@@@std@@@3@$0A@@std@@@std@@QAE?AViterator@12@XZ
_TEXT	SEGMENT PARA USE32 PUBLIC 'CODE'
_TEXT	ENDS
;	COMDAT ?size@?$_Tree@V?$_Tmap_traits@KUtagEVENTINFO@@U?$less@K@std@@V?$allocator@U?$pair@$$CBKUtagEVENTINFO@@@std@@@3@$0A@@std@@@std@@QBEIXZ
_TEXT	SEGMENT PARA USE32 PUBLIC 'CODE'
_TEXT	ENDS
;	COMDAT ??0iterator@?$_Tree@V?$_Tmap_traits@KUtagEVENTINFO@@U?$less@K@std@@V?$allocator@U?$pair@$$CBKUtagEVENTINFO@@@std@@@3@$0A@@std@@@std@@QAE@XZ
_TEXT	SEGMENT PARA USE32 PUBLIC 'CODE'
_TEXT	ENDS
;	COMDAT ??Diterator@?$_Tree@V?$_Tmap_traits@KUtagEVENTINFO@@U?$less@K@std@@V?$allocator@U?$pair@$$CBKUtagEVENTINFO@@@std@@@3@$0A@@std@@@std@@QBEAAU?$pair@$$CBKUtagEVENTINFO@@@2@XZ
_TEXT	SEGMENT PARA USE32 PUBLIC 'CODE'
_TEXT	ENDS
;	COMDAT ??Eiterator@?$_Tree@V?$_Tmap_traits@KUtagEVENTINFO@@U?$less@K@std@@V?$allocator@U?$pair@$$CBKUtagEVENTINFO@@@std@@@3@$0A@@std@@@std@@QAE?AV012@H@Z
_TEXT	SEGMENT PARA USE32 PUBLIC 'CODE'
_TEXT	ENDS
;	COMDAT ??9const_iterator@?$_Tree@V?$_Tmap_traits@KUtagEVENTINFO@@U?$less@K@std@@V?$allocator@U?$pair@$$CBKUtagEVENTINFO@@@std@@@3@$0A@@std@@@std@@QBE_NABV012@@Z
_TEXT	SEGMENT PARA USE32 PUBLIC 'CODE'
_TEXT	ENDS
;	COMDAT ?size@?$vector@UtagTCASHITEM@@V?$allocator@UtagTCASHITEM@@@std@@@std@@QBEIXZ
_TEXT	SEGMENT PARA USE32 PUBLIC 'CODE'
_TEXT	ENDS
;	COMDAT ?at@?$vector@UtagTCASHITEM@@V?$allocator@UtagTCASHITEM@@@std@@@std@@QAEAAUtagTCASHITEM@@I@Z
_TEXT	SEGMENT PARA USE32 PUBLIC 'CODE'
_TEXT	ENDS
;	COMDAT ?size@?$vector@UtagPATCHFILE@@V?$allocator@UtagPATCHFILE@@@std@@@std@@QBEIXZ
_TEXT	SEGMENT PARA USE32 PUBLIC 'CODE'
_TEXT	ENDS
;	COMDAT ?at@?$vector@UtagPATCHFILE@@V?$allocator@UtagPATCHFILE@@@std@@@std@@QAEAAUtagPATCHFILE@@I@Z
_TEXT	SEGMENT PARA USE32 PUBLIC 'CODE'
_TEXT	ENDS
;	COMDAT ?_Lmost@?$_Tree@V?$_Tmap_traits@EPAUtagTSVRTYPE@@U?$less@E@std@@V?$allocator@U?$pair@$$CBEPAUtagTSVRTYPE@@@std@@@3@$0A@@std@@@std@@IAEAAPAU_Node@?$_Tree_nod@V?$_Tmap_traits@EPAUtagTSVRTYPE@@U?$less@E@std@@V?$allocator@U?$pair@$$CBEPAUtagTSVRTYPE@@@std@@@3@$0A@@std@@@2@XZ
_TEXT	SEGMENT PARA USE32 PUBLIC 'CODE'
_TEXT	ENDS
;	COMDAT ??0iterator@?$_Tree@V?$_Tmap_traits@EPAUtagTSVRTYPE@@U?$less@E@std@@V?$allocator@U?$pair@$$CBEPAUtagTSVRTYPE@@@std@@@3@$0A@@std@@@std@@QAE@PAU_Node@?$_Tree_nod@V?$_Tmap_traits@EPAUtagTSVRTYPE@@U?$less@E@std@@V?$allocator@U?$pair@$$CBEPAUtagTSVRTYPE@@@std@@@3@$0A@@std@@@2@@Z
_TEXT	SEGMENT PARA USE32 PUBLIC 'CODE'
_TEXT	ENDS
;	COMDAT ??Eiterator@?$_Tree@V?$_Tmap_traits@EPAUtagTSVRTYPE@@U?$less@E@std@@V?$allocator@U?$pair@$$CBEPAUtagTSVRTYPE@@@std@@@3@$0A@@std@@@std@@QAEAAV012@XZ
_TEXT	SEGMENT PARA USE32 PUBLIC 'CODE'
_TEXT	ENDS
;	COMDAT ??0const_iterator@?$_Tree@V?$_Tmap_traits@EPAUtagTSVRTYPE@@U?$less@E@std@@V?$allocator@U?$pair@$$CBEPAUtagTSVRTYPE@@@std@@@3@$0A@@std@@@std@@QAE@XZ
_TEXT	SEGMENT PARA USE32 PUBLIC 'CODE'
_TEXT	ENDS
;	COMDAT ??Dconst_iterator@?$_Tree@V?$_Tmap_traits@EPAUtagTSVRTYPE@@U?$less@E@std@@V?$allocator@U?$pair@$$CBEPAUtagTSVRTYPE@@@std@@@3@$0A@@std@@@std@@QBEABU?$pair@$$CBEPAUtagTSVRTYPE@@@2@XZ
_TEXT	SEGMENT PARA USE32 PUBLIC 'CODE'
_TEXT	ENDS
;	COMDAT ??8const_iterator@?$_Tree@V?$_Tmap_traits@EPAUtagTSVRTYPE@@U?$less@E@std@@V?$allocator@U?$pair@$$CBEPAUtagTSVRTYPE@@@std@@@3@$0A@@std@@@std@@QBE_NABV012@@Z
_TEXT	SEGMENT PARA USE32 PUBLIC 'CODE'
_TEXT	ENDS
;	COMDAT ?_Lmost@?$_Tree@V?$_Tmap_traits@EPAUtagTMACHINE@@U?$less@E@std@@V?$allocator@U?$pair@$$CBEPAUtagTMACHINE@@@std@@@3@$0A@@std@@@std@@IAEAAPAU_Node@?$_Tree_nod@V?$_Tmap_traits@EPAUtagTMACHINE@@U?$less@E@std@@V?$allocator@U?$pair@$$CBEPAUtagTMACHINE@@@std@@@3@$0A@@std@@@2@XZ
_TEXT	SEGMENT PARA USE32 PUBLIC 'CODE'
_TEXT	ENDS
;	COMDAT ??0iterator@?$_Tree@V?$_Tmap_traits@EPAUtagTMACHINE@@U?$less@E@std@@V?$allocator@U?$pair@$$CBEPAUtagTMACHINE@@@std@@@3@$0A@@std@@@std@@QAE@PAU_Node@?$_Tree_nod@V?$_Tmap_traits@EPAUtagTMACHINE@@U?$less@E@std@@V?$allocator@U?$pair@$$CBEPAUtagTMACHINE@@@std@@@3@$0A@@std@@@2@@Z
_TEXT	SEGMENT PARA USE32 PUBLIC 'CODE'
_TEXT	ENDS
;	COMDAT ??Eiterator@?$_Tree@V?$_Tmap_traits@EPAUtagTMACHINE@@U?$less@E@std@@V?$allocator@U?$pair@$$CBEPAUtagTMACHINE@@@std@@@3@$0A@@std@@@std@@QAEAAV012@XZ
_TEXT	SEGMENT PARA USE32 PUBLIC 'CODE'
_TEXT	ENDS
;	COMDAT ??0const_iterator@?$_Tree@V?$_Tmap_traits@EPAUtagTMACHINE@@U?$less@E@std@@V?$allocator@U?$pair@$$CBEPAUtagTMACHINE@@@std@@@3@$0A@@std@@@std@@QAE@XZ
_TEXT	SEGMENT PARA USE32 PUBLIC 'CODE'
_TEXT	ENDS
;	COMDAT ??Dconst_iterator@?$_Tree@V?$_Tmap_traits@EPAUtagTMACHINE@@U?$less@E@std@@V?$allocator@U?$pair@$$CBEPAUtagTMACHINE@@@std@@@3@$0A@@std@@@std@@QBEABU?$pair@$$CBEPAUtagTMACHINE@@@2@XZ
_TEXT	SEGMENT PARA USE32 PUBLIC 'CODE'
_TEXT	ENDS
;	COMDAT ??8const_iterator@?$_Tree@V?$_Tmap_traits@EPAUtagTMACHINE@@U?$less@E@std@@V?$allocator@U?$pair@$$CBEPAUtagTMACHINE@@@std@@@3@$0A@@std@@@std@@QBE_NABV012@@Z
_TEXT	SEGMENT PARA USE32 PUBLIC 'CODE'
_TEXT	ENDS
;	COMDAT ?_Lmost@?$_Tree@V?$_Tmap_traits@EPAUtagTGROUP@@U?$less@E@std@@V?$allocator@U?$pair@$$CBEPAUtagTGROUP@@@std@@@3@$0A@@std@@@std@@IAEAAPAU_Node@?$_Tree_nod@V?$_Tmap_traits@EPAUtagTGROUP@@U?$less@E@std@@V?$allocator@U?$pair@$$CBEPAUtagTGROUP@@@std@@@3@$0A@@std@@@2@XZ
_TEXT	SEGMENT PARA USE32 PUBLIC 'CODE'
_TEXT	ENDS
;	COMDAT ??0iterator@?$_Tree@V?$_Tmap_traits@EPAUtagTGROUP@@U?$less@E@std@@V?$allocator@U?$pair@$$CBEPAUtagTGROUP@@@std@@@3@$0A@@std@@@std@@QAE@PAU_Node@?$_Tree_nod@V?$_Tmap_traits@EPAUtagTGROUP@@U?$less@E@std@@V?$allocator@U?$pair@$$CBEPAUtagTGROUP@@@std@@@3@$0A@@std@@@2@@Z
_TEXT	SEGMENT PARA USE32 PUBLIC 'CODE'
_TEXT	ENDS
;	COMDAT ??Eiterator@?$_Tree@V?$_Tmap_traits@EPAUtagTGROUP@@U?$less@E@std@@V?$allocator@U?$pair@$$CBEPAUtagTGROUP@@@std@@@3@$0A@@std@@@std@@QAEAAV012@XZ
_TEXT	SEGMENT PARA USE32 PUBLIC 'CODE'
_TEXT	ENDS
;	COMDAT ??0const_iterator@?$_Tree@V?$_Tmap_traits@EPAUtagTGROUP@@U?$less@E@std@@V?$allocator@U?$pair@$$CBEPAUtagTGROUP@@@std@@@3@$0A@@std@@@std@@QAE@XZ
_TEXT	SEGMENT PARA USE32 PUBLIC 'CODE'
_TEXT	ENDS
;	COMDAT ??Dconst_iterator@?$_Tree@V?$_Tmap_traits@EPAUtagTGROUP@@U?$less@E@std@@V?$allocator@U?$pair@$$CBEPAUtagTGROUP@@@std@@@3@$0A@@std@@@std@@QBEABU?$pair@$$CBEPAUtagTGROUP@@@2@XZ
_TEXT	SEGMENT PARA USE32 PUBLIC 'CODE'
_TEXT	ENDS
;	COMDAT ??8const_iterator@?$_Tree@V?$_Tmap_traits@EPAUtagTGROUP@@U?$less@E@std@@V?$allocator@U?$pair@$$CBEPAUtagTGROUP@@@std@@@3@$0A@@std@@@std@@QBE_NABV012@@Z
_TEXT	SEGMENT PARA USE32 PUBLIC 'CODE'
_TEXT	ENDS
;	COMDAT ?_Lmost@?$_Tree@V?$_Tmap_traits@KPAUtagTSVRTEMP@@U?$less@K@std@@V?$allocator@U?$pair@$$CBKPAUtagTSVRTEMP@@@std@@@3@$0A@@std@@@std@@IAEAAPAU_Node@?$_Tree_nod@V?$_Tmap_traits@KPAUtagTSVRTEMP@@U?$less@K@std@@V?$allocator@U?$pair@$$CBKPAUtagTSVRTEMP@@@std@@@3@$0A@@std@@@2@XZ
_TEXT	SEGMENT PARA USE32 PUBLIC 'CODE'
_TEXT	ENDS
;	COMDAT ??0iterator@?$_Tree@V?$_Tmap_traits@KPAUtagTSVRTEMP@@U?$less@K@std@@V?$allocator@U?$pair@$$CBKPAUtagTSVRTEMP@@@std@@@3@$0A@@std@@@std@@QAE@PAU_Node@?$_Tree_nod@V?$_Tmap_traits@KPAUtagTSVRTEMP@@U?$less@K@std@@V?$allocator@U?$pair@$$CBKPAUtagTSVRTEMP@@@std@@@3@$0A@@std@@@2@@Z
_TEXT	SEGMENT PARA USE32 PUBLIC 'CODE'
_TEXT	ENDS
;	COMDAT ??Eiterator@?$_Tree@V?$_Tmap_traits@KPAUtagTSVRTEMP@@U?$less@K@std@@V?$allocator@U?$pair@$$CBKPAUtagTSVRTEMP@@@std@@@3@$0A@@std@@@std@@QAEAAV012@XZ
_TEXT	SEGMENT PARA USE32 PUBLIC 'CODE'
_TEXT	ENDS
;	COMDAT ??0const_iterator@?$_Tree@V?$_Tmap_traits@KPAUtagTSVRTEMP@@U?$less@K@std@@V?$allocator@U?$pair@$$CBKPAUtagTSVRTEMP@@@std@@@3@$0A@@std@@@std@@QAE@XZ
_TEXT	SEGMENT PARA USE32 PUBLIC 'CODE'
_TEXT	ENDS
;	COMDAT ??Dconst_iterator@?$_Tree@V?$_Tmap_traits@KPAUtagTSVRTEMP@@U?$less@K@std@@V?$allocator@U?$pair@$$CBKPAUtagTSVRTEMP@@@std@@@3@$0A@@std@@@std@@QBEABU?$pair@$$CBKPAUtagTSVRTEMP@@@2@XZ
_TEXT	SEGMENT PARA USE32 PUBLIC 'CODE'
_TEXT	ENDS
;	COMDAT ??8const_iterator@?$_Tree@V?$_Tmap_traits@KPAUtagTSVRTEMP@@U?$less@K@std@@V?$allocator@U?$pair@$$CBKPAUtagTSVRTEMP@@@std@@@3@$0A@@std@@@std@@QBE_NABV012@@Z
_TEXT	SEGMENT PARA USE32 PUBLIC 'CODE'
_TEXT	ENDS
;	COMDAT ?_Lmost@?$_Tree@V?$_Tmap_traits@KPAUtagBANINFO@@U?$less@K@std@@V?$allocator@U?$pair@$$CBKPAUtagBANINFO@@@std@@@3@$0A@@std@@@std@@IAEAAPAU_Node@?$_Tree_nod@V?$_Tmap_traits@KPAUtagBANINFO@@U?$less@K@std@@V?$allocator@U?$pair@$$CBKPAUtagBANINFO@@@std@@@3@$0A@@std@@@2@XZ
_TEXT	SEGMENT PARA USE32 PUBLIC 'CODE'
_TEXT	ENDS
;	COMDAT ??0iterator@?$_Tree@V?$_Tmap_traits@KPAUtagBANINFO@@U?$less@K@std@@V?$allocator@U?$pair@$$CBKPAUtagBANINFO@@@std@@@3@$0A@@std@@@std@@QAE@PAU_Node@?$_Tree_nod@V?$_Tmap_traits@KPAUtagBANINFO@@U?$less@K@std@@V?$allocator@U?$pair@$$CBKPAUtagBANINFO@@@std@@@3@$0A@@std@@@2@@Z
_TEXT	SEGMENT PARA USE32 PUBLIC 'CODE'
_TEXT	ENDS
;	COMDAT ??Eiterator@?$_Tree@V?$_Tmap_traits@KPAUtagBANINFO@@U?$less@K@std@@V?$allocator@U?$pair@$$CBKPAUtagBANINFO@@@std@@@3@$0A@@std@@@std@@QAEAAV012@XZ
_TEXT	SEGMENT PARA USE32 PUBLIC 'CODE'
_TEXT	ENDS
;	COMDAT ??0const_iterator@?$_Tree@V?$_Tmap_traits@KPAUtagBANINFO@@U?$less@K@std@@V?$allocator@U?$pair@$$CBKPAUtagBANINFO@@@std@@@3@$0A@@std@@@std@@QAE@XZ
_TEXT	SEGMENT PARA USE32 PUBLIC 'CODE'
_TEXT	ENDS
;	COMDAT ??Dconst_iterator@?$_Tree@V?$_Tmap_traits@KPAUtagBANINFO@@U?$less@K@std@@V?$allocator@U?$pair@$$CBKPAUtagBANINFO@@@std@@@3@$0A@@std@@@std@@QBEABU?$pair@$$CBKPAUtagBANINFO@@@2@XZ
_TEXT	SEGMENT PARA USE32 PUBLIC 'CODE'
_TEXT	ENDS
;	COMDAT ??8const_iterator@?$_Tree@V?$_Tmap_traits@KPAUtagBANINFO@@U?$less@K@std@@V?$allocator@U?$pair@$$CBKPAUtagBANINFO@@@std@@@3@$0A@@std@@@std@@QBE_NABV012@@Z
_TEXT	SEGMENT PARA USE32 PUBLIC 'CODE'
_TEXT	ENDS
;	COMDAT ?_Lmost@?$_Tree@V?$_Tmap_traits@KUtagEVENTINFO@@U?$less@K@std@@V?$allocator@U?$pair@$$CBKUtagEVENTINFO@@@std@@@3@$0A@@std@@@std@@IAEAAPAU_Node@?$_Tree_nod@V?$_Tmap_traits@KUtagEVENTINFO@@U?$less@K@std@@V?$allocator@U?$pair@$$CBKUtagEVENTINFO@@@std@@@3@$0A@@std@@@2@XZ
_TEXT	SEGMENT PARA USE32 PUBLIC 'CODE'
_TEXT	ENDS
;	COMDAT ??0iterator@?$_Tree@V?$_Tmap_traits@KUtagEVENTINFO@@U?$less@K@std@@V?$allocator@U?$pair@$$CBKUtagEVENTINFO@@@std@@@3@$0A@@std@@@std@@QAE@PAU_Node@?$_Tree_nod@V?$_Tmap_traits@KUtagEVENTINFO@@U?$less@K@std@@V?$allocator@U?$pair@$$CBKUtagEVENTINFO@@@std@@@3@$0A@@std@@@2@@Z
_TEXT	SEGMENT PARA USE32 PUBLIC 'CODE'
_TEXT	ENDS
;	COMDAT ??Eiterator@?$_Tree@V?$_Tmap_traits@KUtagEVENTINFO@@U?$less@K@std@@V?$allocator@U?$pair@$$CBKUtagEVENTINFO@@@std@@@3@$0A@@std@@@std@@QAEAAV012@XZ
_TEXT	SEGMENT PARA USE32 PUBLIC 'CODE'
_TEXT	ENDS
;	COMDAT ??0const_iterator@?$_Tree@V?$_Tmap_traits@KUtagEVENTINFO@@U?$less@K@std@@V?$allocator@U?$pair@$$CBKUtagEVENTINFO@@@std@@@3@$0A@@std@@@std@@QAE@XZ
_TEXT	SEGMENT PARA USE32 PUBLIC 'CODE'
_TEXT	ENDS
;	COMDAT ??Dconst_iterator@?$_Tree@V?$_Tmap_traits@KUtagEVENTINFO@@U?$less@K@std@@V?$allocator@U?$pair@$$CBKUtagEVENTINFO@@@std@@@3@$0A@@std@@@std@@QBEABU?$pair@$$CBKUtagEVENTINFO@@@2@XZ
_TEXT	SEGMENT PARA USE32 PUBLIC 'CODE'
_TEXT	ENDS
;	COMDAT ??8const_iterator@?$_Tree@V?$_Tmap_traits@KUtagEVENTINFO@@U?$less@K@std@@V?$allocator@U?$pair@$$CBKUtagEVENTINFO@@@std@@@3@$0A@@std@@@std@@QBE_NABV012@@Z
_TEXT	SEGMENT PARA USE32 PUBLIC 'CODE'
_TEXT	ENDS
;	COMDAT ?begin@?$vector@UtagTCASHITEM@@V?$allocator@UtagTCASHITEM@@@std@@@std@@QAE?AViterator@12@XZ
_TEXT	SEGMENT PARA USE32 PUBLIC 'CODE'
_TEXT	ENDS
;	COMDAT ?_Xran@?$vector@UtagTCASHITEM@@V?$allocator@UtagTCASHITEM@@@std@@@std@@IBEXXZ
_TEXT	SEGMENT PARA USE32 PUBLIC 'CODE'
_TEXT	ENDS
;	COMDAT ?begin@?$vector@UtagPATCHFILE@@V?$allocator@UtagPATCHFILE@@@std@@@std@@QAE?AViterator@12@XZ
_TEXT	SEGMENT PARA USE32 PUBLIC 'CODE'
_TEXT	ENDS
;	COMDAT ?_Xran@?$vector@UtagPATCHFILE@@V?$allocator@UtagPATCHFILE@@@std@@@std@@IBEXXZ
_TEXT	SEGMENT PARA USE32 PUBLIC 'CODE'
_TEXT	ENDS
;	COMDAT ??Diterator@?$vector@UtagTCASHITEM@@V?$allocator@UtagTCASHITEM@@@std@@@std@@QBEAAUtagTCASHITEM@@XZ
_TEXT	SEGMENT PARA USE32 PUBLIC 'CODE'
_TEXT	ENDS
;	COMDAT ??Hiterator@?$vector@UtagTCASHITEM@@V?$allocator@UtagTCASHITEM@@@std@@@std@@QBE?AV012@H@Z
_TEXT	SEGMENT PARA USE32 PUBLIC 'CODE'
_TEXT	ENDS
;	COMDAT ??Diterator@?$vector@UtagPATCHFILE@@V?$allocator@UtagPATCHFILE@@@std@@@std@@QBEAAUtagPATCHFILE@@XZ
_TEXT	SEGMENT PARA USE32 PUBLIC 'CODE'
_TEXT	ENDS
;	COMDAT ??Hiterator@?$vector@UtagPATCHFILE@@V?$allocator@UtagPATCHFILE@@@std@@@std@@QBE?AV012@H@Z
_TEXT	SEGMENT PARA USE32 PUBLIC 'CODE'
_TEXT	ENDS
;	COMDAT ??0out_of_range@std@@QAE@ABV01@@Z
_TEXT	SEGMENT PARA USE32 PUBLIC 'CODE'
_TEXT	ENDS
;	COMDAT ?_Left@?$_Tree@V?$_Tmap_traits@EPAUtagTSVRTYPE@@U?$less@E@std@@V?$allocator@U?$pair@$$CBEPAUtagTSVRTYPE@@@std@@@3@$0A@@std@@@std@@KAAAPAU_Node@?$_Tree_nod@V?$_Tmap_traits@EPAUtagTSVRTYPE@@U?$less@E@std@@V?$allocator@U?$pair@$$CBEPAUtagTSVRTYPE@@@std@@@3@$0A@@std@@@2@PAU342@@Z
_TEXT	SEGMENT PARA USE32 PUBLIC 'CODE'
_TEXT	ENDS
;	COMDAT ?_Myval@?$_Tree@V?$_Tmap_traits@EPAUtagTSVRTYPE@@U?$less@E@std@@V?$allocator@U?$pair@$$CBEPAUtagTSVRTYPE@@@std@@@3@$0A@@std@@@std@@KAAAU?$pair@$$CBEPAUtagTSVRTYPE@@@2@PAU_Node@?$_Tree_nod@V?$_Tmap_traits@EPAUtagTSVRTYPE@@U?$less@E@std@@V?$allocator@U?$pair@$$CBEPAUtagTSVRTYPE@@@std@@@3@$0A@@std@@@2@@Z
_TEXT	SEGMENT PARA USE32 PUBLIC 'CODE'
_TEXT	ENDS
;	COMDAT ??0const_iterator@?$_Tree@V?$_Tmap_traits@EPAUtagTSVRTYPE@@U?$less@E@std@@V?$allocator@U?$pair@$$CBEPAUtagTSVRTYPE@@@std@@@3@$0A@@std@@@std@@QAE@PAU_Node@?$_Tree_nod@V?$_Tmap_traits@EPAUtagTSVRTYPE@@U?$less@E@std@@V?$allocator@U?$pair@$$CBEPAUtagTSVRTYPE@@@std@@@3@$0A@@std@@@2@@Z
_TEXT	SEGMENT PARA USE32 PUBLIC 'CODE'
_TEXT	ENDS
;	COMDAT ??Econst_iterator@?$_Tree@V?$_Tmap_traits@EPAUtagTSVRTYPE@@U?$less@E@std@@V?$allocator@U?$pair@$$CBEPAUtagTSVRTYPE@@@std@@@3@$0A@@std@@@std@@QAEAAV012@XZ
_TEXT	SEGMENT PARA USE32 PUBLIC 'CODE'
_TEXT	ENDS
;	COMDAT ?_Left@?$_Tree@V?$_Tmap_traits@EPAUtagTMACHINE@@U?$less@E@std@@V?$allocator@U?$pair@$$CBEPAUtagTMACHINE@@@std@@@3@$0A@@std@@@std@@KAAAPAU_Node@?$_Tree_nod@V?$_Tmap_traits@EPAUtagTMACHINE@@U?$less@E@std@@V?$allocator@U?$pair@$$CBEPAUtagTMACHINE@@@std@@@3@$0A@@std@@@2@PAU342@@Z
_TEXT	SEGMENT PARA USE32 PUBLIC 'CODE'
_TEXT	ENDS
;	COMDAT ?_Myval@?$_Tree@V?$_Tmap_traits@EPAUtagTMACHINE@@U?$less@E@std@@V?$allocator@U?$pair@$$CBEPAUtagTMACHINE@@@std@@@3@$0A@@std@@@std@@KAAAU?$pair@$$CBEPAUtagTMACHINE@@@2@PAU_Node@?$_Tree_nod@V?$_Tmap_traits@EPAUtagTMACHINE@@U?$less@E@std@@V?$allocator@U?$pair@$$CBEPAUtagTMACHINE@@@std@@@3@$0A@@std@@@2@@Z
_TEXT	SEGMENT PARA USE32 PUBLIC 'CODE'
_TEXT	ENDS
;	COMDAT ??0const_iterator@?$_Tree@V?$_Tmap_traits@EPAUtagTMACHINE@@U?$less@E@std@@V?$allocator@U?$pair@$$CBEPAUtagTMACHINE@@@std@@@3@$0A@@std@@@std@@QAE@PAU_Node@?$_Tree_nod@V?$_Tmap_traits@EPAUtagTMACHINE@@U?$less@E@std@@V?$allocator@U?$pair@$$CBEPAUtagTMACHINE@@@std@@@3@$0A@@std@@@2@@Z
_TEXT	SEGMENT PARA USE32 PUBLIC 'CODE'
_TEXT	ENDS
;	COMDAT ??Econst_iterator@?$_Tree@V?$_Tmap_traits@EPAUtagTMACHINE@@U?$less@E@std@@V?$allocator@U?$pair@$$CBEPAUtagTMACHINE@@@std@@@3@$0A@@std@@@std@@QAEAAV012@XZ
_TEXT	SEGMENT PARA USE32 PUBLIC 'CODE'
_TEXT	ENDS
;	COMDAT ?_Left@?$_Tree@V?$_Tmap_traits@EPAUtagTGROUP@@U?$less@E@std@@V?$allocator@U?$pair@$$CBEPAUtagTGROUP@@@std@@@3@$0A@@std@@@std@@KAAAPAU_Node@?$_Tree_nod@V?$_Tmap_traits@EPAUtagTGROUP@@U?$less@E@std@@V?$allocator@U?$pair@$$CBEPAUtagTGROUP@@@std@@@3@$0A@@std@@@2@PAU342@@Z
_TEXT	SEGMENT PARA USE32 PUBLIC 'CODE'
_TEXT	ENDS
;	COMDAT ?_Myval@?$_Tree@V?$_Tmap_traits@EPAUtagTGROUP@@U?$less@E@std@@V?$allocator@U?$pair@$$CBEPAUtagTGROUP@@@std@@@3@$0A@@std@@@std@@KAAAU?$pair@$$CBEPAUtagTGROUP@@@2@PAU_Node@?$_Tree_nod@V?$_Tmap_traits@EPAUtagTGROUP@@U?$less@E@std@@V?$allocator@U?$pair@$$CBEPAUtagTGROUP@@@std@@@3@$0A@@std@@@2@@Z
_TEXT	SEGMENT PARA USE32 PUBLIC 'CODE'
_TEXT	ENDS
;	COMDAT ??0const_iterator@?$_Tree@V?$_Tmap_traits@EPAUtagTGROUP@@U?$less@E@std@@V?$allocator@U?$pair@$$CBEPAUtagTGROUP@@@std@@@3@$0A@@std@@@std@@QAE@PAU_Node@?$_Tree_nod@V?$_Tmap_traits@EPAUtagTGROUP@@U?$less@E@std@@V?$allocator@U?$pair@$$CBEPAUtagTGROUP@@@std@@@3@$0A@@std@@@2@@Z
_TEXT	SEGMENT PARA USE32 PUBLIC 'CODE'
_TEXT	ENDS
;	COMDAT ??Econst_iterator@?$_Tree@V?$_Tmap_traits@EPAUtagTGROUP@@U?$less@E@std@@V?$allocator@U?$pair@$$CBEPAUtagTGROUP@@@std@@@3@$0A@@std@@@std@@QAEAAV012@XZ
_TEXT	SEGMENT PARA USE32 PUBLIC 'CODE'
_TEXT	ENDS
;	COMDAT ?_Left@?$_Tree@V?$_Tmap_traits@KPAUtagTSVRTEMP@@U?$less@K@std@@V?$allocator@U?$pair@$$CBKPAUtagTSVRTEMP@@@std@@@3@$0A@@std@@@std@@KAAAPAU_Node@?$_Tree_nod@V?$_Tmap_traits@KPAUtagTSVRTEMP@@U?$less@K@std@@V?$allocator@U?$pair@$$CBKPAUtagTSVRTEMP@@@std@@@3@$0A@@std@@@2@PAU342@@Z
_TEXT	SEGMENT PARA USE32 PUBLIC 'CODE'
_TEXT	ENDS
;	COMDAT ?_Myval@?$_Tree@V?$_Tmap_traits@KPAUtagTSVRTEMP@@U?$less@K@std@@V?$allocator@U?$pair@$$CBKPAUtagTSVRTEMP@@@std@@@3@$0A@@std@@@std@@KAAAU?$pair@$$CBKPAUtagTSVRTEMP@@@2@PAU_Node@?$_Tree_nod@V?$_Tmap_traits@KPAUtagTSVRTEMP@@U?$less@K@std@@V?$allocator@U?$pair@$$CBKPAUtagTSVRTEMP@@@std@@@3@$0A@@std@@@2@@Z
_TEXT	SEGMENT PARA USE32 PUBLIC 'CODE'
_TEXT	ENDS
;	COMDAT ??0const_iterator@?$_Tree@V?$_Tmap_traits@KPAUtagTSVRTEMP@@U?$less@K@std@@V?$allocator@U?$pair@$$CBKPAUtagTSVRTEMP@@@std@@@3@$0A@@std@@@std@@QAE@PAU_Node@?$_Tree_nod@V?$_Tmap_traits@KPAUtagTSVRTEMP@@U?$less@K@std@@V?$allocator@U?$pair@$$CBKPAUtagTSVRTEMP@@@std@@@3@$0A@@std@@@2@@Z
_TEXT	SEGMENT PARA USE32 PUBLIC 'CODE'
_TEXT	ENDS
;	COMDAT ??Econst_iterator@?$_Tree@V?$_Tmap_traits@KPAUtagTSVRTEMP@@U?$less@K@std@@V?$allocator@U?$pair@$$CBKPAUtagTSVRTEMP@@@std@@@3@$0A@@std@@@std@@QAEAAV012@XZ
_TEXT	SEGMENT PARA USE32 PUBLIC 'CODE'
_TEXT	ENDS
;	COMDAT ?_Left@?$_Tree@V?$_Tmap_traits@KPAUtagBANINFO@@U?$less@K@std@@V?$allocator@U?$pair@$$CBKPAUtagBANINFO@@@std@@@3@$0A@@std@@@std@@KAAAPAU_Node@?$_Tree_nod@V?$_Tmap_traits@KPAUtagBANINFO@@U?$less@K@std@@V?$allocator@U?$pair@$$CBKPAUtagBANINFO@@@std@@@3@$0A@@std@@@2@PAU342@@Z
_TEXT	SEGMENT PARA USE32 PUBLIC 'CODE'
_TEXT	ENDS
;	COMDAT ?_Myval@?$_Tree@V?$_Tmap_traits@KPAUtagBANINFO@@U?$less@K@std@@V?$allocator@U?$pair@$$CBKPAUtagBANINFO@@@std@@@3@$0A@@std@@@std@@KAAAU?$pair@$$CBKPAUtagBANINFO@@@2@PAU_Node@?$_Tree_nod@V?$_Tmap_traits@KPAUtagBANINFO@@U?$less@K@std@@V?$allocator@U?$pair@$$CBKPAUtagBANINFO@@@std@@@3@$0A@@std@@@2@@Z
_TEXT	SEGMENT PARA USE32 PUBLIC 'CODE'
_TEXT	ENDS
;	COMDAT ??0const_iterator@?$_Tree@V?$_Tmap_traits@KPAUtagBANINFO@@U?$less@K@std@@V?$allocator@U?$pair@$$CBKPAUtagBANINFO@@@std@@@3@$0A@@std@@@std@@QAE@PAU_Node@?$_Tree_nod@V?$_Tmap_traits@KPAUtagBANINFO@@U?$less@K@std@@V?$allocator@U?$pair@$$CBKPAUtagBANINFO@@@std@@@3@$0A@@std@@@2@@Z
_TEXT	SEGMENT PARA USE32 PUBLIC 'CODE'
_TEXT	ENDS
;	COMDAT ??Econst_iterator@?$_Tree@V?$_Tmap_traits@KPAUtagBANINFO@@U?$less@K@std@@V?$allocator@U?$pair@$$CBKPAUtagBANINFO@@@std@@@3@$0A@@std@@@std@@QAEAAV012@XZ
_TEXT	SEGMENT PARA USE32 PUBLIC 'CODE'
_TEXT	ENDS
;	COMDAT ?_Left@?$_Tree@V?$_Tmap_traits@KUtagEVENTINFO@@U?$less@K@std@@V?$allocator@U?$pair@$$CBKUtagEVENTINFO@@@std@@@3@$0A@@std@@@std@@KAAAPAU_Node@?$_Tree_nod@V?$_Tmap_traits@KUtagEVENTINFO@@U?$less@K@std@@V?$allocator@U?$pair@$$CBKUtagEVENTINFO@@@std@@@3@$0A@@std@@@2@PAU342@@Z
_TEXT	SEGMENT PARA USE32 PUBLIC 'CODE'
_TEXT	ENDS
;	COMDAT ?_Myval@?$_Tree@V?$_Tmap_traits@KUtagEVENTINFO@@U?$less@K@std@@V?$allocator@U?$pair@$$CBKUtagEVENTINFO@@@std@@@3@$0A@@std@@@std@@KAAAU?$pair@$$CBKUtagEVENTINFO@@@2@PAU_Node@?$_Tree_nod@V?$_Tmap_traits@KUtagEVENTINFO@@U?$less@K@std@@V?$allocator@U?$pair@$$CBKUtagEVENTINFO@@@std@@@3@$0A@@std@@@2@@Z
_TEXT	SEGMENT PARA USE32 PUBLIC 'CODE'
_TEXT	ENDS
;	COMDAT ??0const_iterator@?$_Tree@V?$_Tmap_traits@KUtagEVENTINFO@@U?$less@K@std@@V?$allocator@U?$pair@$$CBKUtagEVENTINFO@@@std@@@3@$0A@@std@@@std@@QAE@PAU_Node@?$_Tree_nod@V?$_Tmap_traits@KUtagEVENTINFO@@U?$less@K@std@@V?$allocator@U?$pair@$$CBKUtagEVENTINFO@@@std@@@3@$0A@@std@@@2@@Z
_TEXT	SEGMENT PARA USE32 PUBLIC 'CODE'
_TEXT	ENDS
;	COMDAT ??Econst_iterator@?$_Tree@V?$_Tmap_traits@KUtagEVENTINFO@@U?$less@K@std@@V?$allocator@U?$pair@$$CBKUtagEVENTINFO@@@std@@@3@$0A@@std@@@std@@QAEAAV012@XZ
_TEXT	SEGMENT PARA USE32 PUBLIC 'CODE'
_TEXT	ENDS
;	COMDAT ??0iterator@?$vector@UtagTCASHITEM@@V?$allocator@UtagTCASHITEM@@@std@@@std@@QAE@PAUtagTCASHITEM@@@Z
_TEXT	SEGMENT PARA USE32 PUBLIC 'CODE'
_TEXT	ENDS
;	COMDAT ??Yiterator@?$vector@UtagTCASHITEM@@V?$allocator@UtagTCASHITEM@@@std@@@std@@QAEAAV012@H@Z
_TEXT	SEGMENT PARA USE32 PUBLIC 'CODE'
_TEXT	ENDS
;	COMDAT ??Dconst_iterator@?$vector@UtagTCASHITEM@@V?$allocator@UtagTCASHITEM@@@std@@@std@@QBEABUtagTCASHITEM@@XZ
_TEXT	SEGMENT PARA USE32 PUBLIC 'CODE'
_TEXT	ENDS
;	COMDAT ??0iterator@?$vector@UtagPATCHFILE@@V?$allocator@UtagPATCHFILE@@@std@@@std@@QAE@PAUtagPATCHFILE@@@Z
_TEXT	SEGMENT PARA USE32 PUBLIC 'CODE'
_TEXT	ENDS
;	COMDAT ??Yiterator@?$vector@UtagPATCHFILE@@V?$allocator@UtagPATCHFILE@@@std@@@std@@QAEAAV012@H@Z
_TEXT	SEGMENT PARA USE32 PUBLIC 'CODE'
_TEXT	ENDS
;	COMDAT ??Dconst_iterator@?$vector@UtagPATCHFILE@@V?$allocator@UtagPATCHFILE@@@std@@@std@@QBEABUtagPATCHFILE@@XZ
_TEXT	SEGMENT PARA USE32 PUBLIC 'CODE'
_TEXT	ENDS
;	COMDAT ?_Inc@const_iterator@?$_Tree@V?$_Tmap_traits@EPAUtagTSVRTYPE@@U?$less@E@std@@V?$allocator@U?$pair@$$CBEPAUtagTSVRTYPE@@@std@@@3@$0A@@std@@@std@@QAEXXZ
_TEXT	SEGMENT PARA USE32 PUBLIC 'CODE'
_TEXT	ENDS
;	COMDAT ?_Inc@const_iterator@?$_Tree@V?$_Tmap_traits@EPAUtagTMACHINE@@U?$less@E@std@@V?$allocator@U?$pair@$$CBEPAUtagTMACHINE@@@std@@@3@$0A@@std@@@std@@QAEXXZ
_TEXT	SEGMENT PARA USE32 PUBLIC 'CODE'
_TEXT	ENDS
;	COMDAT ?_Inc@const_iterator@?$_Tree@V?$_Tmap_traits@EPAUtagTGROUP@@U?$less@E@std@@V?$allocator@U?$pair@$$CBEPAUtagTGROUP@@@std@@@3@$0A@@std@@@std@@QAEXXZ
_TEXT	SEGMENT PARA USE32 PUBLIC 'CODE'
_TEXT	ENDS
;	COMDAT ?_Inc@const_iterator@?$_Tree@V?$_Tmap_traits@KPAUtagTSVRTEMP@@U?$less@K@std@@V?$allocator@U?$pair@$$CBKPAUtagTSVRTEMP@@@std@@@3@$0A@@std@@@std@@QAEXXZ
_TEXT	SEGMENT PARA USE32 PUBLIC 'CODE'
_TEXT	ENDS
;	COMDAT ?_Inc@const_iterator@?$_Tree@V?$_Tmap_traits@KPAUtagBANINFO@@U?$less@K@std@@V?$allocator@U?$pair@$$CBKPAUtagBANINFO@@@std@@@3@$0A@@std@@@std@@QAEXXZ
_TEXT	SEGMENT PARA USE32 PUBLIC 'CODE'
_TEXT	ENDS
;	COMDAT ?_Inc@const_iterator@?$_Tree@V?$_Tmap_traits@KUtagEVENTINFO@@U?$less@K@std@@V?$allocator@U?$pair@$$CBKUtagEVENTINFO@@@std@@@3@$0A@@std@@@std@@QAEXXZ
_TEXT	SEGMENT PARA USE32 PUBLIC 'CODE'
_TEXT	ENDS
;	COMDAT ??0const_iterator@?$vector@UtagTCASHITEM@@V?$allocator@UtagTCASHITEM@@@std@@@std@@QAE@PAUtagTCASHITEM@@@Z
_TEXT	SEGMENT PARA USE32 PUBLIC 'CODE'
_TEXT	ENDS
;	COMDAT ??0const_iterator@?$vector@UtagPATCHFILE@@V?$allocator@UtagPATCHFILE@@@std@@@std@@QAE@PAUtagPATCHFILE@@@Z
_TEXT	SEGMENT PARA USE32 PUBLIC 'CODE'
_TEXT	ENDS
;	COMDAT ?_Isnil@?$_Tree@V?$_Tmap_traits@EPAUtagTSVRTYPE@@U?$less@E@std@@V?$allocator@U?$pair@$$CBEPAUtagTSVRTYPE@@@std@@@3@$0A@@std@@@std@@KAAADPAU_Node@?$_Tree_nod@V?$_Tmap_traits@EPAUtagTSVRTYPE@@U?$less@E@std@@V?$allocator@U?$pair@$$CBEPAUtagTSVRTYPE@@@std@@@3@$0A@@std@@@2@@Z
_TEXT	SEGMENT PARA USE32 PUBLIC 'CODE'
_TEXT	ENDS
;	COMDAT ?_Parent@?$_Tree@V?$_Tmap_traits@EPAUtagTSVRTYPE@@U?$less@E@std@@V?$allocator@U?$pair@$$CBEPAUtagTSVRTYPE@@@std@@@3@$0A@@std@@@std@@KAAAPAU_Node@?$_Tree_nod@V?$_Tmap_traits@EPAUtagTSVRTYPE@@U?$less@E@std@@V?$allocator@U?$pair@$$CBEPAUtagTSVRTYPE@@@std@@@3@$0A@@std@@@2@PAU342@@Z
_TEXT	SEGMENT PARA USE32 PUBLIC 'CODE'
_TEXT	ENDS
;	COMDAT ?_Right@?$_Tree@V?$_Tmap_traits@EPAUtagTSVRTYPE@@U?$less@E@std@@V?$allocator@U?$pair@$$CBEPAUtagTSVRTYPE@@@std@@@3@$0A@@std@@@std@@KAAAPAU_Node@?$_Tree_nod@V?$_Tmap_traits@EPAUtagTSVRTYPE@@U?$less@E@std@@V?$allocator@U?$pair@$$CBEPAUtagTSVRTYPE@@@std@@@3@$0A@@std@@@2@PAU342@@Z
_TEXT	SEGMENT PARA USE32 PUBLIC 'CODE'
_TEXT	ENDS
;	COMDAT ?_Min@?$_Tree@V?$_Tmap_traits@EPAUtagTSVRTYPE@@U?$less@E@std@@V?$allocator@U?$pair@$$CBEPAUtagTSVRTYPE@@@std@@@3@$0A@@std@@@std@@KAPAU_Node@?$_Tree_nod@V?$_Tmap_traits@EPAUtagTSVRTYPE@@U?$less@E@std@@V?$allocator@U?$pair@$$CBEPAUtagTSVRTYPE@@@std@@@3@$0A@@std@@@2@PAU342@@Z
_TEXT	SEGMENT PARA USE32 PUBLIC 'CODE'
_TEXT	ENDS
;	COMDAT ?_Isnil@?$_Tree@V?$_Tmap_traits@EPAUtagTMACHINE@@U?$less@E@std@@V?$allocator@U?$pair@$$CBEPAUtagTMACHINE@@@std@@@3@$0A@@std@@@std@@KAAADPAU_Node@?$_Tree_nod@V?$_Tmap_traits@EPAUtagTMACHINE@@U?$less@E@std@@V?$allocator@U?$pair@$$CBEPAUtagTMACHINE@@@std@@@3@$0A@@std@@@2@@Z
_TEXT	SEGMENT PARA USE32 PUBLIC 'CODE'
_TEXT	ENDS
;	COMDAT ?_Parent@?$_Tree@V?$_Tmap_traits@EPAUtagTMACHINE@@U?$less@E@std@@V?$allocator@U?$pair@$$CBEPAUtagTMACHINE@@@std@@@3@$0A@@std@@@std@@KAAAPAU_Node@?$_Tree_nod@V?$_Tmap_traits@EPAUtagTMACHINE@@U?$less@E@std@@V?$allocator@U?$pair@$$CBEPAUtagTMACHINE@@@std@@@3@$0A@@std@@@2@PAU342@@Z
_TEXT	SEGMENT PARA USE32 PUBLIC 'CODE'
_TEXT	ENDS
;	COMDAT ?_Right@?$_Tree@V?$_Tmap_traits@EPAUtagTMACHINE@@U?$less@E@std@@V?$allocator@U?$pair@$$CBEPAUtagTMACHINE@@@std@@@3@$0A@@std@@@std@@KAAAPAU_Node@?$_Tree_nod@V?$_Tmap_traits@EPAUtagTMACHINE@@U?$less@E@std@@V?$allocator@U?$pair@$$CBEPAUtagTMACHINE@@@std@@@3@$0A@@std@@@2@PAU342@@Z
_TEXT	SEGMENT PARA USE32 PUBLIC 'CODE'
_TEXT	ENDS
;	COMDAT ?_Min@?$_Tree@V?$_Tmap_traits@EPAUtagTMACHINE@@U?$less@E@std@@V?$allocator@U?$pair@$$CBEPAUtagTMACHINE@@@std@@@3@$0A@@std@@@std@@KAPAU_Node@?$_Tree_nod@V?$_Tmap_traits@EPAUtagTMACHINE@@U?$less@E@std@@V?$allocator@U?$pair@$$CBEPAUtagTMACHINE@@@std@@@3@$0A@@std@@@2@PAU342@@Z
_TEXT	SEGMENT PARA USE32 PUBLIC 'CODE'
_TEXT	ENDS
;	COMDAT ?_Isnil@?$_Tree@V?$_Tmap_traits@EPAUtagTGROUP@@U?$less@E@std@@V?$allocator@U?$pair@$$CBEPAUtagTGROUP@@@std@@@3@$0A@@std@@@std@@KAAADPAU_Node@?$_Tree_nod@V?$_Tmap_traits@EPAUtagTGROUP@@U?$less@E@std@@V?$allocator@U?$pair@$$CBEPAUtagTGROUP@@@std@@@3@$0A@@std@@@2@@Z
_TEXT	SEGMENT PARA USE32 PUBLIC 'CODE'
_TEXT	ENDS
;	COMDAT ?_Parent@?$_Tree@V?$_Tmap_traits@EPAUtagTGROUP@@U?$less@E@std@@V?$allocator@U?$pair@$$CBEPAUtagTGROUP@@@std@@@3@$0A@@std@@@std@@KAAAPAU_Node@?$_Tree_nod@V?$_Tmap_traits@EPAUtagTGROUP@@U?$less@E@std@@V?$allocator@U?$pair@$$CBEPAUtagTGROUP@@@std@@@3@$0A@@std@@@2@PAU342@@Z
_TEXT	SEGMENT PARA USE32 PUBLIC 'CODE'
_TEXT	ENDS
;	COMDAT ?_Right@?$_Tree@V?$_Tmap_traits@EPAUtagTGROUP@@U?$less@E@std@@V?$allocator@U?$pair@$$CBEPAUtagTGROUP@@@std@@@3@$0A@@std@@@std@@KAAAPAU_Node@?$_Tree_nod@V?$_Tmap_traits@EPAUtagTGROUP@@U?$less@E@std@@V?$allocator@U?$pair@$$CBEPAUtagTGROUP@@@std@@@3@$0A@@std@@@2@PAU342@@Z
_TEXT	SEGMENT PARA USE32 PUBLIC 'CODE'
_TEXT	ENDS
;	COMDAT ?_Min@?$_Tree@V?$_Tmap_traits@EPAUtagTGROUP@@U?$less@E@std@@V?$allocator@U?$pair@$$CBEPAUtagTGROUP@@@std@@@3@$0A@@std@@@std@@KAPAU_Node@?$_Tree_nod@V?$_Tmap_traits@EPAUtagTGROUP@@U?$less@E@std@@V?$allocator@U?$pair@$$CBEPAUtagTGROUP@@@std@@@3@$0A@@std@@@2@PAU342@@Z
_TEXT	SEGMENT PARA USE32 PUBLIC 'CODE'
_TEXT	ENDS
;	COMDAT ?_Isnil@?$_Tree@V?$_Tmap_traits@KPAUtagTSVRTEMP@@U?$less@K@std@@V?$allocator@U?$pair@$$CBKPAUtagTSVRTEMP@@@std@@@3@$0A@@std@@@std@@KAAADPAU_Node@?$_Tree_nod@V?$_Tmap_traits@KPAUtagTSVRTEMP@@U?$less@K@std@@V?$allocator@U?$pair@$$CBKPAUtagTSVRTEMP@@@std@@@3@$0A@@std@@@2@@Z
_TEXT	SEGMENT PARA USE32 PUBLIC 'CODE'
_TEXT	ENDS
;	COMDAT ?_Parent@?$_Tree@V?$_Tmap_traits@KPAUtagTSVRTEMP@@U?$less@K@std@@V?$allocator@U?$pair@$$CBKPAUtagTSVRTEMP@@@std@@@3@$0A@@std@@@std@@KAAAPAU_Node@?$_Tree_nod@V?$_Tmap_traits@KPAUtagTSVRTEMP@@U?$less@K@std@@V?$allocator@U?$pair@$$CBKPAUtagTSVRTEMP@@@std@@@3@$0A@@std@@@2@PAU342@@Z
_TEXT	SEGMENT PARA USE32 PUBLIC 'CODE'
_TEXT	ENDS
;	COMDAT ?_Right@?$_Tree@V?$_Tmap_traits@KPAUtagTSVRTEMP@@U?$less@K@std@@V?$allocator@U?$pair@$$CBKPAUtagTSVRTEMP@@@std@@@3@$0A@@std@@@std@@KAAAPAU_Node@?$_Tree_nod@V?$_Tmap_traits@KPAUtagTSVRTEMP@@U?$less@K@std@@V?$allocator@U?$pair@$$CBKPAUtagTSVRTEMP@@@std@@@3@$0A@@std@@@2@PAU342@@Z
_TEXT	SEGMENT PARA USE32 PUBLIC 'CODE'
_TEXT	ENDS
;	COMDAT ?_Min@?$_Tree@V?$_Tmap_traits@KPAUtagTSVRTEMP@@U?$less@K@std@@V?$allocator@U?$pair@$$CBKPAUtagTSVRTEMP@@@std@@@3@$0A@@std@@@std@@KAPAU_Node@?$_Tree_nod@V?$_Tmap_traits@KPAUtagTSVRTEMP@@U?$less@K@std@@V?$allocator@U?$pair@$$CBKPAUtagTSVRTEMP@@@std@@@3@$0A@@std@@@2@PAU342@@Z
_TEXT	SEGMENT PARA USE32 PUBLIC 'CODE'
_TEXT	ENDS
;	COMDAT ?_Isnil@?$_Tree@V?$_Tmap_traits@KPAUtagBANINFO@@U?$less@K@std@@V?$allocator@U?$pair@$$CBKPAUtagBANINFO@@@std@@@3@$0A@@std@@@std@@KAAADPAU_Node@?$_Tree_nod@V?$_Tmap_traits@KPAUtagBANINFO@@U?$less@K@std@@V?$allocator@U?$pair@$$CBKPAUtagBANINFO@@@std@@@3@$0A@@std@@@2@@Z
_TEXT	SEGMENT PARA USE32 PUBLIC 'CODE'
_TEXT	ENDS
;	COMDAT ?_Parent@?$_Tree@V?$_Tmap_traits@KPAUtagBANINFO@@U?$less@K@std@@V?$allocator@U?$pair@$$CBKPAUtagBANINFO@@@std@@@3@$0A@@std@@@std@@KAAAPAU_Node@?$_Tree_nod@V?$_Tmap_traits@KPAUtagBANINFO@@U?$less@K@std@@V?$allocator@U?$pair@$$CBKPAUtagBANINFO@@@std@@@3@$0A@@std@@@2@PAU342@@Z
_TEXT	SEGMENT PARA USE32 PUBLIC 'CODE'
_TEXT	ENDS
;	COMDAT ?_Right@?$_Tree@V?$_Tmap_traits@KPAUtagBANINFO@@U?$less@K@std@@V?$allocator@U?$pair@$$CBKPAUtagBANINFO@@@std@@@3@$0A@@std@@@std@@KAAAPAU_Node@?$_Tree_nod@V?$_Tmap_traits@KPAUtagBANINFO@@U?$less@K@std@@V?$allocator@U?$pair@$$CBKPAUtagBANINFO@@@std@@@3@$0A@@std@@@2@PAU342@@Z
_TEXT	SEGMENT PARA USE32 PUBLIC 'CODE'
_TEXT	ENDS
;	COMDAT ?_Min@?$_Tree@V?$_Tmap_traits@KPAUtagBANINFO@@U?$less@K@std@@V?$allocator@U?$pair@$$CBKPAUtagBANINFO@@@std@@@3@$0A@@std@@@std@@KAPAU_Node@?$_Tree_nod@V?$_Tmap_traits@KPAUtagBANINFO@@U?$less@K@std@@V?$allocator@U?$pair@$$CBKPAUtagBANINFO@@@std@@@3@$0A@@std@@@2@PAU342@@Z
_TEXT	SEGMENT PARA USE32 PUBLIC 'CODE'
_TEXT	ENDS
;	COMDAT ?_Isnil@?$_Tree@V?$_Tmap_traits@KUtagEVENTINFO@@U?$less@K@std@@V?$allocator@U?$pair@$$CBKUtagEVENTINFO@@@std@@@3@$0A@@std@@@std@@KAAADPAU_Node@?$_Tree_nod@V?$_Tmap_traits@KUtagEVENTINFO@@U?$less@K@std@@V?$allocator@U?$pair@$$CBKUtagEVENTINFO@@@std@@@3@$0A@@std@@@2@@Z
_TEXT	SEGMENT PARA USE32 PUBLIC 'CODE'
_TEXT	ENDS
;	COMDAT ?_Parent@?$_Tree@V?$_Tmap_traits@KUtagEVENTINFO@@U?$less@K@std@@V?$allocator@U?$pair@$$CBKUtagEVENTINFO@@@std@@@3@$0A@@std@@@std@@KAAAPAU_Node@?$_Tree_nod@V?$_Tmap_traits@KUtagEVENTINFO@@U?$less@K@std@@V?$allocator@U?$pair@$$CBKUtagEVENTINFO@@@std@@@3@$0A@@std@@@2@PAU342@@Z
_TEXT	SEGMENT PARA USE32 PUBLIC 'CODE'
_TEXT	ENDS
;	COMDAT ?_Right@?$_Tree@V?$_Tmap_traits@KUtagEVENTINFO@@U?$less@K@std@@V?$allocator@U?$pair@$$CBKUtagEVENTINFO@@@std@@@3@$0A@@std@@@std@@KAAAPAU_Node@?$_Tree_nod@V?$_Tmap_traits@KUtagEVENTINFO@@U?$less@K@std@@V?$allocator@U?$pair@$$CBKUtagEVENTINFO@@@std@@@3@$0A@@std@@@2@PAU342@@Z
_TEXT	SEGMENT PARA USE32 PUBLIC 'CODE'
_TEXT	ENDS
;	COMDAT ?_Min@?$_Tree@V?$_Tmap_traits@KUtagEVENTINFO@@U?$less@K@std@@V?$allocator@U?$pair@$$CBKUtagEVENTINFO@@@std@@@3@$0A@@std@@@std@@KAPAU_Node@?$_Tree_nod@V?$_Tmap_traits@KUtagEVENTINFO@@U?$less@K@std@@V?$allocator@U?$pair@$$CBKUtagEVENTINFO@@@std@@@3@$0A@@std@@@2@PAU342@@Z
_TEXT	SEGMENT PARA USE32 PUBLIC 'CODE'
_TEXT	ENDS
;	COMDAT ?Unlock@?$CComCritSecLock@VCComCriticalSection@ATL@@@ATL@@QAEXXZ
_TEXT	SEGMENT PARA USE32 PUBLIC 'CODE'
_TEXT	ENDS
;	COMDAT ??$_Uninit_fill_n@GIG@std@@YAXPAGIABGAAV?$allocator@G@0@U_Scalar_ptr_iterator_tag@0@@Z
_TEXT	SEGMENT PARA USE32 PUBLIC 'CODE'
_TEXT	ENDS
;	COMDAT ??$_Ptr_cat@PAUtagTCASHITEMSALE@@PAU1@@std@@YA?AU_Nonscalar_ptr_iterator_tag@0@AAPAUtagTCASHITEMSALE@@0@Z
_TEXT	SEGMENT PARA USE32 PUBLIC 'CODE'
_TEXT	ENDS
;	COMDAT ??$_Uninit_fill_n@PAUtagTCASHITEMSALE@@IU1@V?$allocator@UtagTCASHITEMSALE@@@std@@@std@@YAXPAUtagTCASHITEMSALE@@IABU1@AAV?$allocator@UtagTCASHITEMSALE@@@0@U_Nonscalar_ptr_iterator_tag@0@@Z
_TEXT	SEGMENT PARA USE32 PUBLIC 'CODE'
_TEXT	ENDS
;	COMDAT ??$_Ptr_cat@PAUtagMONREGEN@@PAU1@@std@@YA?AU_Nonscalar_ptr_iterator_tag@0@AAPAUtagMONREGEN@@0@Z
_TEXT	SEGMENT PARA USE32 PUBLIC 'CODE'
_TEXT	ENDS
;	COMDAT ??$_Uninit_fill_n@PAUtagMONREGEN@@IU1@V?$allocator@UtagMONREGEN@@@std@@@std@@YAXPAUtagMONREGEN@@IABU1@AAV?$allocator@UtagMONREGEN@@@0@U_Nonscalar_ptr_iterator_tag@0@@Z
_TEXT	SEGMENT PARA USE32 PUBLIC 'CODE'
_TEXT	ENDS
;	COMDAT ??$_Ptr_cat@PAUtagLOTTERY@@PAU1@@std@@YA?AU_Nonscalar_ptr_iterator_tag@0@AAPAUtagLOTTERY@@0@Z
_TEXT	SEGMENT PARA USE32 PUBLIC 'CODE'
_TEXT	ENDS
;	COMDAT ??$_Uninit_fill_n@PAUtagLOTTERY@@IU1@V?$allocator@UtagLOTTERY@@@std@@@std@@YAXPAUtagLOTTERY@@IABU1@AAV?$allocator@UtagLOTTERY@@@0@U_Nonscalar_ptr_iterator_tag@0@@Z
_TEXT	SEGMENT PARA USE32 PUBLIC 'CODE'
_TEXT	ENDS
;	COMDAT ??$_Destroy_range@GV?$allocator@G@std@@@std@@YAXPAG0AAV?$allocator@G@0@U_Scalar_ptr_iterator_tag@0@@Z
_TEXT	SEGMENT PARA USE32 PUBLIC 'CODE'
_TEXT	ENDS
;	COMDAT ??$_Uninitialized_copy@PAGPAGV?$allocator@G@std@@@std@@YAPAGPAG00AAV?$allocator@G@0@@Z
_TEXT	SEGMENT PARA USE32 PUBLIC 'CODE'
_TEXT	ENDS
;	COMDAT ??$_Copy_backward_opt@PAGPAG@std@@YAPAGPAG00U_Scalar_ptr_iterator_tag@0@@Z
_TEXT	SEGMENT PARA USE32 PUBLIC 'CODE'
_TEXT	ENDS
;	COMDAT ??$_Destroy_range@UtagTCASHITEMSALE@@V?$allocator@UtagTCASHITEMSALE@@@std@@@std@@YAXPAUtagTCASHITEMSALE@@0AAV?$allocator@UtagTCASHITEMSALE@@@0@U_Nonscalar_ptr_iterator_tag@0@@Z
_TEXT	SEGMENT PARA USE32 PUBLIC 'CODE'
_TEXT	ENDS
;	COMDAT ??$_Uninitialized_copy@PAUtagTCASHITEMSALE@@PAU1@V?$allocator@UtagTCASHITEMSALE@@@std@@@std@@YAPAUtagTCASHITEMSALE@@PAU1@00AAV?$allocator@UtagTCASHITEMSALE@@@0@@Z
_TEXT	SEGMENT PARA USE32 PUBLIC 'CODE'
_TEXT	ENDS
;	COMDAT ??$_Copy_backward_opt@PAUtagTCASHITEMSALE@@PAU1@@std@@YAPAUtagTCASHITEMSALE@@PAU1@00U_Nonscalar_ptr_iterator_tag@0@@Z
_TEXT	SEGMENT PARA USE32 PUBLIC 'CODE'
_TEXT	ENDS
;	COMDAT ??$_Destroy_range@UtagMONREGEN@@V?$allocator@UtagMONREGEN@@@std@@@std@@YAXPAUtagMONREGEN@@0AAV?$allocator@UtagMONREGEN@@@0@U_Nonscalar_ptr_iterator_tag@0@@Z
_TEXT	SEGMENT PARA USE32 PUBLIC 'CODE'
_TEXT	ENDS
;	COMDAT ??$_Uninitialized_copy@PAUtagMONREGEN@@PAU1@V?$allocator@UtagMONREGEN@@@std@@@std@@YAPAUtagMONREGEN@@PAU1@00AAV?$allocator@UtagMONREGEN@@@0@@Z
_TEXT	SEGMENT PARA USE32 PUBLIC 'CODE'
_TEXT	ENDS
;	COMDAT ??$_Copy_backward_opt@PAUtagMONREGEN@@PAU1@@std@@YAPAUtagMONREGEN@@PAU1@00U_Nonscalar_ptr_iterator_tag@0@@Z
_TEXT	SEGMENT PARA USE32 PUBLIC 'CODE'
_TEXT	ENDS
;	COMDAT ??$_Destroy_range@UtagLOTTERY@@V?$allocator@UtagLOTTERY@@@std@@@std@@YAXPAUtagLOTTERY@@0AAV?$allocator@UtagLOTTERY@@@0@U_Nonscalar_ptr_iterator_tag@0@@Z
_TEXT	SEGMENT PARA USE32 PUBLIC 'CODE'
_TEXT	ENDS
;	COMDAT ??$_Uninitialized_copy@PAUtagLOTTERY@@PAU1@V?$allocator@UtagLOTTERY@@@std@@@std@@YAPAUtagLOTTERY@@PAU1@00AAV?$allocator@UtagLOTTERY@@@0@@Z
_TEXT	SEGMENT PARA USE32 PUBLIC 'CODE'
_TEXT	ENDS
;	COMDAT ??$_Copy_backward_opt@PAUtagLOTTERY@@PAU1@@std@@YAPAUtagLOTTERY@@PAU1@00U_Nonscalar_ptr_iterator_tag@0@@Z
_TEXT	SEGMENT PARA USE32 PUBLIC 'CODE'
_TEXT	ENDS
;	COMDAT ?construct@?$allocator@UtagTCASHITEMSALE@@@std@@QAEXPAUtagTCASHITEMSALE@@ABU3@@Z
_TEXT	SEGMENT PARA USE32 PUBLIC 'CODE'
_TEXT	ENDS
;	COMDAT ?destroy@?$allocator@UtagTCASHITEMSALE@@@std@@QAEXPAUtagTCASHITEMSALE@@@Z
_TEXT	SEGMENT PARA USE32 PUBLIC 'CODE'
_TEXT	ENDS
;	COMDAT ?construct@?$allocator@UtagMONREGEN@@@std@@QAEXPAUtagMONREGEN@@ABU3@@Z
_TEXT	SEGMENT PARA USE32 PUBLIC 'CODE'
_TEXT	ENDS
;	COMDAT ?destroy@?$allocator@UtagMONREGEN@@@std@@QAEXPAUtagMONREGEN@@@Z
_TEXT	SEGMENT PARA USE32 PUBLIC 'CODE'
_TEXT	ENDS
;	COMDAT ?construct@?$allocator@UtagLOTTERY@@@std@@QAEXPAUtagLOTTERY@@ABU3@@Z
_TEXT	SEGMENT PARA USE32 PUBLIC 'CODE'
_TEXT	ENDS
;	COMDAT ?destroy@?$allocator@UtagLOTTERY@@@std@@QAEXPAUtagLOTTERY@@@Z
_TEXT	SEGMENT PARA USE32 PUBLIC 'CODE'
_TEXT	ENDS
;	COMDAT ??$fill_n@PAGIG@std@@YAXPAGIABG@Z
_TEXT	SEGMENT PARA USE32 PUBLIC 'CODE'
_TEXT	ENDS
;	COMDAT ??$_Uninit_copy@GG@std@@YAPAGPAG00AAV?$allocator@G@0@U_Scalar_ptr_iterator_tag@0@@Z
_TEXT	SEGMENT PARA USE32 PUBLIC 'CODE'
_TEXT	ENDS
;	COMDAT ??$_Uninit_copy@PAUtagTCASHITEMSALE@@PAU1@V?$allocator@UtagTCASHITEMSALE@@@std@@@std@@YAPAUtagTCASHITEMSALE@@PAU1@00AAV?$allocator@UtagTCASHITEMSALE@@@0@U_Nonscalar_ptr_iterator_tag@0@@Z
_TEXT	SEGMENT PARA USE32 PUBLIC 'CODE'
_TEXT	ENDS
;	COMDAT ??$_Uninit_copy@PAUtagMONREGEN@@PAU1@V?$allocator@UtagMONREGEN@@@std@@@std@@YAPAUtagMONREGEN@@PAU1@00AAV?$allocator@UtagMONREGEN@@@0@U_Nonscalar_ptr_iterator_tag@0@@Z
_TEXT	SEGMENT PARA USE32 PUBLIC 'CODE'
_TEXT	ENDS
;	COMDAT ??$_Uninit_copy@PAUtagLOTTERY@@PAU1@V?$allocator@UtagLOTTERY@@@std@@@std@@YAPAUtagLOTTERY@@PAU1@00AAV?$allocator@UtagLOTTERY@@@0@U_Nonscalar_ptr_iterator_tag@0@@Z
_TEXT	SEGMENT PARA USE32 PUBLIC 'CODE'
_TEXT	ENDS
;	COMDAT ??$_Construct@UtagTCASHITEMSALE@@U1@@std@@YAXPAUtagTCASHITEMSALE@@ABU1@@Z
_TEXT	SEGMENT PARA USE32 PUBLIC 'CODE'
_TEXT	ENDS
;	COMDAT ??$_Destroy@UtagTCASHITEMSALE@@@std@@YAXPAUtagTCASHITEMSALE@@@Z
_TEXT	SEGMENT PARA USE32 PUBLIC 'CODE'
_TEXT	ENDS
;	COMDAT ??$_Construct@UtagMONREGEN@@U1@@std@@YAXPAUtagMONREGEN@@ABU1@@Z
_TEXT	SEGMENT PARA USE32 PUBLIC 'CODE'
_TEXT	ENDS
;	COMDAT ??$_Destroy@UtagMONREGEN@@@std@@YAXPAUtagMONREGEN@@@Z
_TEXT	SEGMENT PARA USE32 PUBLIC 'CODE'
_TEXT	ENDS
;	COMDAT ??$_Construct@UtagLOTTERY@@U1@@std@@YAXPAUtagLOTTERY@@ABU1@@Z
_TEXT	SEGMENT PARA USE32 PUBLIC 'CODE'
_TEXT	ENDS
;	COMDAT ??$_Destroy@UtagLOTTERY@@@std@@YAXPAUtagLOTTERY@@@Z
_TEXT	SEGMENT PARA USE32 PUBLIC 'CODE'
_TEXT	ENDS
;	COMDAT ??2@YAPAXIPAX@Z
_TEXT	SEGMENT PARA USE32 PUBLIC 'CODE'
_TEXT	ENDS
;	COMDAT ?_Ptr_cat@std@@YA?AU_Scalar_ptr_iterator_tag@1@PAG0@Z
_TEXT	SEGMENT PARA USE32 PUBLIC 'CODE'
_TEXT	ENDS
;	COMDAT ?_Psave@?$_Facetptr@V?$ctype@G@std@@@std@@2PBVfacet@locale@2@B
_DATA	SEGMENT DWORD USE32 PUBLIC 'DATA'
_DATA	ENDS
;	COMDAT ?_Psave@?$_Facetptr@V?$ctype@D@std@@@std@@2PBVfacet@locale@2@B
_DATA	SEGMENT DWORD USE32 PUBLIC 'DATA'
_DATA	ENDS
;	COMDAT ?Unlock@CComCriticalSection@ATL@@QAEJXZ
_TEXT	SEGMENT PARA USE32 PUBLIC 'CODE'
_TEXT	ENDS
;	COMDAT ??_7out_of_range@std@@6B@
CONST	SEGMENT DWORD USE32 PUBLIC 'CONST'
CONST	ENDS
;	COMDAT ??_Gout_of_range@std@@UAEPAXI@Z
_TEXT	SEGMENT PARA USE32 PUBLIC 'CODE'
_TEXT	ENDS
;	COMDAT ?what@logic_error@std@@UBEPBDXZ
_TEXT	SEGMENT PARA USE32 PUBLIC 'CODE'
_TEXT	ENDS
;	COMDAT ?c_str@?$basic_string@DU?$char_traits@D@std@@V?$allocator@D@2@@std@@QBEPBDXZ
_TEXT	SEGMENT PARA USE32 PUBLIC 'CODE'
_TEXT	ENDS
;	COMDAT ?_Myptr@?$basic_string@DU?$char_traits@D@std@@V?$allocator@D@2@@std@@QBEPBDXZ
_TEXT	SEGMENT PARA USE32 PUBLIC 'CODE'
_TEXT	ENDS
;	COMDAT ??1logic_error@std@@UAE@XZ
_TEXT	SEGMENT PARA USE32 PUBLIC 'CODE'
_TEXT	ENDS
;	COMDAT ??_7logic_error@std@@6B@
CONST	SEGMENT DWORD USE32 PUBLIC 'CONST'
CONST	ENDS
;	COMDAT ??_Glogic_error@std@@UAEPAXI@Z
_TEXT	SEGMENT PARA USE32 PUBLIC 'CODE'
_TEXT	ENDS
;	COMDAT ??0logic_error@std@@QAE@ABV01@@Z
_TEXT	SEGMENT PARA USE32 PUBLIC 'CODE'
_TEXT	ENDS
;	COMDAT ??0?$basic_string@DU?$char_traits@D@std@@V?$allocator@D@2@@std@@QAE@ABV01@@Z
_TEXT	SEGMENT PARA USE32 PUBLIC 'CODE'
_TEXT	ENDS
;	COMDAT ??0?$_String_val@DV?$allocator@D@std@@@std@@IAE@V?$allocator@D@1@@Z
_TEXT	SEGMENT PARA USE32 PUBLIC 'CODE'
_TEXT	ENDS
;	COMDAT ??0?$allocator@D@std@@QAE@ABV01@@Z
_TEXT	SEGMENT PARA USE32 PUBLIC 'CODE'
_TEXT	ENDS
;	COMDAT ?_Tidy@?$basic_string@DU?$char_traits@D@std@@V?$allocator@D@2@@std@@IAEX_NI@Z
_TEXT	SEGMENT PARA USE32 PUBLIC 'CODE'
_TEXT	ENDS
;	COMDAT ?copy@?$char_traits@D@std@@SAPADPADPBDI@Z
_TEXT	SEGMENT PARA USE32 PUBLIC 'CODE'
_TEXT	ENDS
;	COMDAT ?deallocate@?$allocator@D@std@@QAEXPADI@Z
_TEXT	SEGMENT PARA USE32 PUBLIC 'CODE'
_TEXT	ENDS
;	COMDAT ?_Eos@?$basic_string@DU?$char_traits@D@std@@V?$allocator@D@2@@std@@IAEXI@Z
_TEXT	SEGMENT PARA USE32 PUBLIC 'CODE'
_TEXT	ENDS
;	COMDAT ?assign@?$char_traits@D@std@@SAXAADABD@Z
_TEXT	SEGMENT PARA USE32 PUBLIC 'CODE'
_TEXT	ENDS
;	COMDAT ?_Myptr@?$basic_string@DU?$char_traits@D@std@@V?$allocator@D@2@@std@@QAEPADXZ
_TEXT	SEGMENT PARA USE32 PUBLIC 'CODE'
_TEXT	ENDS
;	COMDAT ?assign@?$basic_string@DU?$char_traits@D@std@@V?$allocator@D@2@@std@@QAEAAV12@ABV12@II@Z
_TEXT	SEGMENT PARA USE32 PUBLIC 'CODE'
_TEXT	ENDS
;	COMDAT ?size@?$basic_string@DU?$char_traits@D@std@@V?$allocator@D@2@@std@@QBEIXZ
_TEXT	SEGMENT PARA USE32 PUBLIC 'CODE'
_TEXT	ENDS
;	COMDAT ?erase@?$basic_string@DU?$char_traits@D@std@@V?$allocator@D@2@@std@@QAEAAV12@II@Z
_TEXT	SEGMENT PARA USE32 PUBLIC 'CODE'
_TEXT	ENDS
;	COMDAT ?move@?$char_traits@D@std@@SAPADPADPBDI@Z
_TEXT	SEGMENT PARA USE32 PUBLIC 'CODE'
_TEXT	ENDS
;	COMDAT ?_Grow@?$basic_string@DU?$char_traits@D@std@@V?$allocator@D@2@@std@@IAE_NI_N@Z
_TEXT	SEGMENT PARA USE32 PUBLIC 'CODE'
_TEXT	ENDS
;	COMDAT ?max_size@?$basic_string@DU?$char_traits@D@std@@V?$allocator@D@2@@std@@QBEIXZ
_TEXT	SEGMENT PARA USE32 PUBLIC 'CODE'
_TEXT	ENDS
;	COMDAT ?max_size@?$allocator@D@std@@QBEIXZ
_TEXT	SEGMENT PARA USE32 PUBLIC 'CODE'
_TEXT	ENDS
;	COMDAT ?_Copy@?$basic_string@DU?$char_traits@D@std@@V?$allocator@D@2@@std@@IAEXII@Z
_TEXT	SEGMENT PARA USE32 PUBLIC 'CODE'
_TEXT	ENDS
;	COMDAT ?allocate@?$allocator@D@std@@QAEPADI@Z
_TEXT	SEGMENT PARA USE32 PUBLIC 'CODE'
_TEXT	ENDS
;	COMDAT ??$_Allocate@D@std@@YAPADIPAD@Z
_TEXT	SEGMENT PARA USE32 PUBLIC 'CODE'
_TEXT	ENDS
;	COMDAT ?npos@?$basic_string@DU?$char_traits@D@std@@V?$allocator@D@2@@std@@2IB
CONST	SEGMENT DWORD USE32 PUBLIC 'CONST'
CONST	ENDS
;	COMDAT __CTA3?AVout_of_range@std@@
xdata$x	SEGMENT DWORD USE32 PUBLIC 'CONST'
xdata$x	ENDS
;	COMDAT ??1out_of_range@std@@UAE@XZ
_TEXT	SEGMENT PARA USE32 PUBLIC 'CODE'
_TEXT	ENDS
;	COMDAT __CT??_R0?AVexception@@@8??0exception@@QAE@ABV0@@Z12
xdata$x	SEGMENT DWORD USE32 PUBLIC 'CONST'
xdata$x	ENDS
;	COMDAT ??_R0?AVexception@@@8
_DATA	SEGMENT DWORD USE32 PUBLIC 'DATA'
_DATA	ENDS
;	COMDAT __CT??_R0?AVlogic_error@std@@@8??0logic_error@std@@QAE@ABV01@@Z40
xdata$x	SEGMENT DWORD USE32 PUBLIC 'CONST'
xdata$x	ENDS
;	COMDAT ??_R0?AVlogic_error@std@@@8
_DATA	SEGMENT DWORD USE32 PUBLIC 'DATA'
_DATA	ENDS
;	COMDAT __CT??_R0?AVout_of_range@std@@@8??0out_of_range@std@@QAE@ABV01@@Z40
xdata$x	SEGMENT DWORD USE32 PUBLIC 'CONST'
xdata$x	ENDS
;	COMDAT ??_R0?AVout_of_range@std@@@8
_DATA	SEGMENT DWORD USE32 PUBLIC 'DATA'
_DATA	ENDS
;	COMDAT __TI3?AVout_of_range@std@@
xdata$x	SEGMENT DWORD USE32 PUBLIC 'CONST'
xdata$x	ENDS
;	COMDAT ??1?$basic_string@DU?$char_traits@D@std@@V?$allocator@D@2@@std@@QAE@XZ
_TEXT	SEGMENT PARA USE32 PUBLIC 'CODE'
_TEXT	ENDS
;	COMDAT ??0?$basic_string@DU?$char_traits@D@std@@V?$allocator@D@2@@std@@QAE@PBD@Z
_TEXT	SEGMENT PARA USE32 PUBLIC 'CODE'
_TEXT	ENDS
;	COMDAT ??0?$allocator@D@std@@QAE@XZ
_TEXT	SEGMENT PARA USE32 PUBLIC 'CODE'
_TEXT	ENDS
;	COMDAT ?assign@?$basic_string@DU?$char_traits@D@std@@V?$allocator@D@2@@std@@QAEAAV12@PBD@Z
_TEXT	SEGMENT PARA USE32 PUBLIC 'CODE'
_TEXT	ENDS
;	COMDAT ?assign@?$basic_string@DU?$char_traits@D@std@@V?$allocator@D@2@@std@@QAEAAV12@PBDI@Z
_TEXT	SEGMENT PARA USE32 PUBLIC 'CODE'
_TEXT	ENDS
;	COMDAT ?_Inside@?$basic_string@DU?$char_traits@D@std@@V?$allocator@D@2@@std@@IAE_NPBD@Z
_TEXT	SEGMENT PARA USE32 PUBLIC 'CODE'
_TEXT	ENDS
;	COMDAT ?length@?$char_traits@D@std@@SAIPBD@Z
_TEXT	SEGMENT PARA USE32 PUBLIC 'CODE'
_TEXT	ENDS
;	COMDAT ??0out_of_range@std@@QAE@ABV?$basic_string@DU?$char_traits@D@std@@V?$allocator@D@2@@1@@Z
_TEXT	SEGMENT PARA USE32 PUBLIC 'CODE'
_TEXT	ENDS
;	COMDAT ??0logic_error@std@@QAE@ABV?$basic_string@DU?$char_traits@D@std@@V?$allocator@D@2@@1@@Z
_TEXT	SEGMENT PARA USE32 PUBLIC 'CODE'
_TEXT	ENDS
;	COMDAT ??1?$CStringT@DV?$StrTraitATL@DV?$ChTraitsCRT@D@ATL@@@ATL@@@ATL@@QAE@XZ
_TEXT	SEGMENT PARA USE32 PUBLIC 'CODE'
_TEXT	ENDS
;	COMDAT ??1?$CSimpleStringT@D$0A@@ATL@@QAE@XZ
_TEXT	SEGMENT PARA USE32 PUBLIC 'CODE'
_TEXT	ENDS
;	COMDAT ?GetData@?$CSimpleStringT@D$0A@@ATL@@ABEPAUCStringData@2@XZ
_TEXT	SEGMENT PARA USE32 PUBLIC 'CODE'
_TEXT	ENDS
;	COMDAT ?Release@CStringData@ATL@@QAEXXZ
_TEXT	SEGMENT PARA USE32 PUBLIC 'CODE'
_TEXT	ENDS
;	COMDAT ??0?$CStringT@DV?$StrTraitATL@DV?$ChTraitsCRT@D@ATL@@@ATL@@@ATL@@QAE@ABV01@@Z
_TEXT	SEGMENT PARA USE32 PUBLIC 'CODE'
_TEXT	ENDS
;	COMDAT ??0?$CSimpleStringT@D$0A@@ATL@@QAE@ABV01@@Z
_TEXT	SEGMENT PARA USE32 PUBLIC 'CODE'
_TEXT	ENDS
;	COMDAT ?CloneData@?$CSimpleStringT@D$0A@@ATL@@CAPAUCStringData@2@PAU32@@Z
_TEXT	SEGMENT PARA USE32 PUBLIC 'CODE'
_TEXT	ENDS
;	COMDAT ?IsLocked@CStringData@ATL@@QBE_NXZ
_TEXT	SEGMENT PARA USE32 PUBLIC 'CODE'
_TEXT	ENDS
;	COMDAT ?AddRef@CStringData@ATL@@QAEXXZ
_TEXT	SEGMENT PARA USE32 PUBLIC 'CODE'
_TEXT	ENDS
;	COMDAT ?ThrowMemoryException@?$CSimpleStringT@D$0A@@ATL@@KAXXZ
_TEXT	SEGMENT PARA USE32 PUBLIC 'CODE'
_TEXT	ENDS
;	COMDAT ?AtlThrow@ATL@@YGXJ@Z
_TEXT	SEGMENT PARA USE32 PUBLIC 'CODE'
_TEXT	ENDS
;	COMDAT ??0CAtlException@ATL@@QAE@J@Z
_TEXT	SEGMENT PARA USE32 PUBLIC 'CODE'
_TEXT	ENDS
;	COMDAT __TI1?AVCAtlException@ATL@@
xdata$x	SEGMENT DWORD USE32 PUBLIC 'CONST'
xdata$x	ENDS
;	COMDAT __CTA1?AVCAtlException@ATL@@
xdata$x	SEGMENT DWORD USE32 PUBLIC 'CONST'
xdata$x	ENDS
;	COMDAT __CT??_R0?AVCAtlException@ATL@@@84
xdata$x	SEGMENT DWORD USE32 PUBLIC 'CONST'
xdata$x	ENDS
;	COMDAT ??_R0?AVCAtlException@ATL@@@8
_DATA	SEGMENT DWORD USE32 PUBLIC 'DATA'
_DATA	ENDS
;	COMDAT ?CopyChars@?$CSimpleStringT@D$0A@@ATL@@SAXPADPBDH@Z
_TEXT	SEGMENT PARA USE32 PUBLIC 'CODE'
_TEXT	ENDS
;	COMDAT ?data@CStringData@ATL@@QAEPAXXZ
_TEXT	SEGMENT PARA USE32 PUBLIC 'CODE'
_TEXT	ENDS
;	COMDAT ?Attach@?$CSimpleStringT@D$0A@@ATL@@AAEXPAUCStringData@2@@Z
_TEXT	SEGMENT PARA USE32 PUBLIC 'CODE'
_TEXT	ENDS
;	COMDAT ?WrapPacketIn@tagEVENTINFO@@QAEXPAVCPacket@@@Z
_TEXT	SEGMENT PARA USE32 PUBLIC 'CODE'
_TEXT	ENDS
;	COMDAT ?size@?$vector@UtagTCASHITEMSALE@@V?$allocator@UtagTCASHITEMSALE@@@std@@@std@@QBEIXZ
_TEXT	SEGMENT PARA USE32 PUBLIC 'CODE'
_TEXT	ENDS
;	COMDAT ??A?$vector@UtagTCASHITEMSALE@@V?$allocator@UtagTCASHITEMSALE@@@std@@@std@@QAEAAUtagTCASHITEMSALE@@I@Z
_TEXT	SEGMENT PARA USE32 PUBLIC 'CODE'
_TEXT	ENDS
;	COMDAT ??Diterator@?$vector@UtagTCASHITEMSALE@@V?$allocator@UtagTCASHITEMSALE@@@std@@@std@@QBEAAUtagTCASHITEMSALE@@XZ
_TEXT	SEGMENT PARA USE32 PUBLIC 'CODE'
_TEXT	ENDS
;	COMDAT ??Dconst_iterator@?$vector@UtagTCASHITEMSALE@@V?$allocator@UtagTCASHITEMSALE@@@std@@@std@@QBEABUtagTCASHITEMSALE@@XZ
_TEXT	SEGMENT PARA USE32 PUBLIC 'CODE'
_TEXT	ENDS
;	COMDAT ??Hiterator@?$vector@UtagTCASHITEMSALE@@V?$allocator@UtagTCASHITEMSALE@@@std@@@std@@QBE?AV012@H@Z
_TEXT	SEGMENT PARA USE32 PUBLIC 'CODE'
_TEXT	ENDS
;	COMDAT ??Yiterator@?$vector@UtagTCASHITEMSALE@@V?$allocator@UtagTCASHITEMSALE@@@std@@@std@@QAEAAV012@H@Z
_TEXT	SEGMENT PARA USE32 PUBLIC 'CODE'
_TEXT	ENDS
;	COMDAT ?begin@?$vector@UtagTCASHITEMSALE@@V?$allocator@UtagTCASHITEMSALE@@@std@@@std@@QAE?AViterator@12@XZ
_TEXT	SEGMENT PARA USE32 PUBLIC 'CODE'
_TEXT	ENDS
;	COMDAT ??0iterator@?$vector@UtagTCASHITEMSALE@@V?$allocator@UtagTCASHITEMSALE@@@std@@@std@@QAE@PAUtagTCASHITEMSALE@@@Z
_TEXT	SEGMENT PARA USE32 PUBLIC 'CODE'
_TEXT	ENDS
;	COMDAT ??0const_iterator@?$vector@UtagTCASHITEMSALE@@V?$allocator@UtagTCASHITEMSALE@@@std@@@std@@QAE@PAUtagTCASHITEMSALE@@@Z
_TEXT	SEGMENT PARA USE32 PUBLIC 'CODE'
_TEXT	ENDS
;	COMDAT ?size@?$vector@GV?$allocator@G@std@@@std@@QBEIXZ
_TEXT	SEGMENT PARA USE32 PUBLIC 'CODE'
_TEXT	ENDS
;	COMDAT ??A?$vector@GV?$allocator@G@std@@@std@@QAEAAGI@Z
_TEXT	SEGMENT PARA USE32 PUBLIC 'CODE'
_TEXT	ENDS
;	COMDAT ??Diterator@?$vector@GV?$allocator@G@std@@@std@@QBEAAGXZ
_TEXT	SEGMENT PARA USE32 PUBLIC 'CODE'
_TEXT	ENDS
;	COMDAT ??Dconst_iterator@?$vector@GV?$allocator@G@std@@@std@@QBEABGXZ
_TEXT	SEGMENT PARA USE32 PUBLIC 'CODE'
_TEXT	ENDS
;	COMDAT ??Hiterator@?$vector@GV?$allocator@G@std@@@std@@QBE?AV012@H@Z
_TEXT	SEGMENT PARA USE32 PUBLIC 'CODE'
_TEXT	ENDS
;	COMDAT ??Yiterator@?$vector@GV?$allocator@G@std@@@std@@QAEAAV012@H@Z
_TEXT	SEGMENT PARA USE32 PUBLIC 'CODE'
_TEXT	ENDS
;	COMDAT ?begin@?$vector@GV?$allocator@G@std@@@std@@QAE?AViterator@12@XZ
_TEXT	SEGMENT PARA USE32 PUBLIC 'CODE'
_TEXT	ENDS
;	COMDAT ??0iterator@?$vector@GV?$allocator@G@std@@@std@@QAE@PAG@Z
_TEXT	SEGMENT PARA USE32 PUBLIC 'CODE'
_TEXT	ENDS
;	COMDAT ??0const_iterator@?$vector@GV?$allocator@G@std@@@std@@QAE@PAG@Z
_TEXT	SEGMENT PARA USE32 PUBLIC 'CODE'
_TEXT	ENDS
;	COMDAT ?size@?$vector@UtagMONREGEN@@V?$allocator@UtagMONREGEN@@@std@@@std@@QBEIXZ
_TEXT	SEGMENT PARA USE32 PUBLIC 'CODE'
_TEXT	ENDS
;	COMDAT ??A?$vector@UtagMONREGEN@@V?$allocator@UtagMONREGEN@@@std@@@std@@QAEAAUtagMONREGEN@@I@Z
_TEXT	SEGMENT PARA USE32 PUBLIC 'CODE'
_TEXT	ENDS
;	COMDAT ??Diterator@?$vector@UtagMONREGEN@@V?$allocator@UtagMONREGEN@@@std@@@std@@QBEAAUtagMONREGEN@@XZ
_TEXT	SEGMENT PARA USE32 PUBLIC 'CODE'
_TEXT	ENDS
;	COMDAT ??Dconst_iterator@?$vector@UtagMONREGEN@@V?$allocator@UtagMONREGEN@@@std@@@std@@QBEABUtagMONREGEN@@XZ
_TEXT	SEGMENT PARA USE32 PUBLIC 'CODE'
_TEXT	ENDS
;	COMDAT ??Hiterator@?$vector@UtagMONREGEN@@V?$allocator@UtagMONREGEN@@@std@@@std@@QBE?AV012@H@Z
_TEXT	SEGMENT PARA USE32 PUBLIC 'CODE'
_TEXT	ENDS
;	COMDAT ??Yiterator@?$vector@UtagMONREGEN@@V?$allocator@UtagMONREGEN@@@std@@@std@@QAEAAV012@H@Z
_TEXT	SEGMENT PARA USE32 PUBLIC 'CODE'
_TEXT	ENDS
;	COMDAT ?begin@?$vector@UtagMONREGEN@@V?$allocator@UtagMONREGEN@@@std@@@std@@QAE?AViterator@12@XZ
_TEXT	SEGMENT PARA USE32 PUBLIC 'CODE'
_TEXT	ENDS
;	COMDAT ??0iterator@?$vector@UtagMONREGEN@@V?$allocator@UtagMONREGEN@@@std@@@std@@QAE@PAUtagMONREGEN@@@Z
_TEXT	SEGMENT PARA USE32 PUBLIC 'CODE'
_TEXT	ENDS
;	COMDAT ??0const_iterator@?$vector@UtagMONREGEN@@V?$allocator@UtagMONREGEN@@@std@@@std@@QAE@PAUtagMONREGEN@@@Z
_TEXT	SEGMENT PARA USE32 PUBLIC 'CODE'
_TEXT	ENDS
;	COMDAT ?size@?$vector@UtagLOTTERY@@V?$allocator@UtagLOTTERY@@@std@@@std@@QBEIXZ
_TEXT	SEGMENT PARA USE32 PUBLIC 'CODE'
_TEXT	ENDS
;	COMDAT ??A?$vector@UtagLOTTERY@@V?$allocator@UtagLOTTERY@@@std@@@std@@QAEAAUtagLOTTERY@@I@Z
_TEXT	SEGMENT PARA USE32 PUBLIC 'CODE'
_TEXT	ENDS
;	COMDAT ??Diterator@?$vector@UtagLOTTERY@@V?$allocator@UtagLOTTERY@@@std@@@std@@QBEAAUtagLOTTERY@@XZ
_TEXT	SEGMENT PARA USE32 PUBLIC 'CODE'
_TEXT	ENDS
;	COMDAT ??Dconst_iterator@?$vector@UtagLOTTERY@@V?$allocator@UtagLOTTERY@@@std@@@std@@QBEABUtagLOTTERY@@XZ
_TEXT	SEGMENT PARA USE32 PUBLIC 'CODE'
_TEXT	ENDS
;	COMDAT ??Hiterator@?$vector@UtagLOTTERY@@V?$allocator@UtagLOTTERY@@@std@@@std@@QBE?AV012@H@Z
_TEXT	SEGMENT PARA USE32 PUBLIC 'CODE'
_TEXT	ENDS
;	COMDAT ??Yiterator@?$vector@UtagLOTTERY@@V?$allocator@UtagLOTTERY@@@std@@@std@@QAEAAV012@H@Z
_TEXT	SEGMENT PARA USE32 PUBLIC 'CODE'
_TEXT	ENDS
;	COMDAT ?begin@?$vector@UtagLOTTERY@@V?$allocator@UtagLOTTERY@@@std@@@std@@QAE?AViterator@12@XZ
_TEXT	SEGMENT PARA USE32 PUBLIC 'CODE'
_TEXT	ENDS
;	COMDAT ??0iterator@?$vector@UtagLOTTERY@@V?$allocator@UtagLOTTERY@@@std@@@std@@QAE@PAUtagLOTTERY@@@Z
_TEXT	SEGMENT PARA USE32 PUBLIC 'CODE'
_TEXT	ENDS
;	COMDAT ??0const_iterator@?$vector@UtagLOTTERY@@V?$allocator@UtagLOTTERY@@@std@@@std@@QAE@PAUtagLOTTERY@@@Z
_TEXT	SEGMENT PARA USE32 PUBLIC 'CODE'
_TEXT	ENDS
;	COMDAT ??B?$CSimpleStringT@D$0A@@ATL@@QBEPBDXZ
_TEXT	SEGMENT PARA USE32 PUBLIC 'CODE'
_TEXT	ENDS
sxdata	SEGMENT DWORD USE32 'SXDATA'
sxdata	ENDS
FLAT	GROUP _DATA, CONST, _BSS
	ASSUME	CS: FLAT, DS: FLAT, SS: FLAT
endif

INCLUDELIB LIBCMT
INCLUDELIB OLDNAMES

PUBLIC	?SendCT_OPLOGIN_ACK@CTManager@@QAEXEEK@Z	; CTManager::SendCT_OPLOGIN_ACK
EXTRN	__except_list:DWORD
EXTRN	___CxxFrameHandler:NEAR
EXTRN	??2@YAPAXI@Z:NEAR				; operator new
EXTRN	??3@YAXPAX@Z:NEAR				; operator delete
EXTRN	??0CPacket@@QAE@XZ:NEAR				; CPacket::CPacket
EXTRN	?SetID@CPacket@@QAEAAV1@G@Z:NEAR		; CPacket::SetID
EXTRN	??6CPacket@@QAEAAV0@K@Z:NEAR			; CPacket::operator<<
EXTRN	??6CPacket@@QAEAAV0@E@Z:NEAR			; CPacket::operator<<
;	COMDAT xdata$x
; File c:\users\pierr\desktop\4story - oldschool\sources\tserver\tcontrolsvr\sender.cpp
xdata$x	SEGMENT
$T93234	DD	0ffffffffH
	DD	FLAT:$L93225
$T93229	DD	019930520H
	DD	01H
	DD	FLAT:$T93234
	DD	2 DUP(00H)
	DD	2 DUP(00H)
; Function compile flags: /Ogty
xdata$x	ENDS
;	COMDAT ?SendCT_OPLOGIN_ACK@CTManager@@QAEXEEK@Z
_TEXT	SEGMENT
$T93222 = -16						; size = 4
__$EHRec$ = -12						; size = 12
_bRet$ = 8						; size = 1
_bAuthority$ = 12					; size = 1
_dwID$ = 16						; size = 4
?SendCT_OPLOGIN_ACK@CTManager@@QAEXEEK@Z PROC NEAR	; CTManager::SendCT_OPLOGIN_ACK, COMDAT
; _this$ = ecx

; 4    : {

  00000	6a ff		 push	 -1
  00002	68 00 00 00 00	 push	 __ehhandler$?SendCT_OPLOGIN_ACK@CTManager@@QAEXEEK@Z
  00007	64 a1 00 00 00
	00		 mov	 eax, DWORD PTR fs:__except_list
  0000d	50		 push	 eax
  0000e	64 89 25 00 00
	00 00		 mov	 DWORD PTR fs:__except_list, esp
  00015	51		 push	 ecx
  00016	56		 push	 esi
  00017	57		 push	 edi

; 5    : 	CPacket * pMsg = new CPacket();

  00018	6a 1c		 push	 28			; 0000001cH
  0001a	8b f9		 mov	 edi, ecx
  0001c	e8 00 00 00 00	 call	 ??2@YAPAXI@Z		; operator new
  00021	83 c4 04	 add	 esp, 4
  00024	89 44 24 08	 mov	 DWORD PTR $T93222[esp+24], eax
  00028	33 f6		 xor	 esi, esi
  0002a	3b c6		 cmp	 eax, esi
  0002c	89 74 24 14	 mov	 DWORD PTR __$EHRec$[esp+32], esi
  00030	74 09		 je	 SHORT $L93224
  00032	8b c8		 mov	 ecx, eax
  00034	e8 00 00 00 00	 call	 ??0CPacket@@QAE@XZ	; CPacket::CPacket
  00039	8b f0		 mov	 esi, eax
$L93224:

; 6    : 	pMsg->SetID(CT_OPLOGIN_ACK)
; 7    : 		<< bRet
; 8    : 		<< bAuthority //   
; 9    : 		<< dwID;

  0003b	8b 44 24 24	 mov	 eax, DWORD PTR _dwID$[esp+20]
  0003f	8b 4c 24 20	 mov	 ecx, DWORD PTR _bAuthority$[esp+20]
  00043	8b 54 24 1c	 mov	 edx, DWORD PTR _bRet$[esp+20]
  00047	50		 push	 eax
  00048	51		 push	 ecx
  00049	52		 push	 edx
  0004a	68 02 60 00 00	 push	 24578			; 00006002H
  0004f	8b ce		 mov	 ecx, esi
  00051	c7 44 24 24 ff
	ff ff ff	 mov	 DWORD PTR __$EHRec$[esp+48], -1
  00059	e8 00 00 00 00	 call	 ?SetID@CPacket@@QAEAAV1@G@Z ; CPacket::SetID
  0005e	8b c8		 mov	 ecx, eax
  00060	e8 00 00 00 00	 call	 ??6CPacket@@QAEAAV0@E@Z	; CPacket::operator<<
  00065	8b c8		 mov	 ecx, eax
  00067	e8 00 00 00 00	 call	 ??6CPacket@@QAEAAV0@E@Z	; CPacket::operator<<
  0006c	8b c8		 mov	 ecx, eax
  0006e	e8 00 00 00 00	 call	 ??6CPacket@@QAEAAV0@K@Z	; CPacket::operator<<

; 10   : 
; 11   : 	Say(pMsg);

  00073	8b 07		 mov	 eax, DWORD PTR [edi]
  00075	56		 push	 esi
  00076	8b cf		 mov	 ecx, edi
  00078	ff 10		 call	 DWORD PTR [eax]

; 12   : }

  0007a	8b 4c 24 0c	 mov	 ecx, DWORD PTR __$EHRec$[esp+24]
  0007e	5f		 pop	 edi
  0007f	5e		 pop	 esi
  00080	64 89 0d 00 00
	00 00		 mov	 DWORD PTR fs:__except_list, ecx
  00087	83 c4 10	 add	 esp, 16			; 00000010H
  0008a	c2 0c 00	 ret	 12			; 0000000cH
_TEXT	ENDS
;	COMDAT text$x
text$x	SEGMENT
$L93225:
  00000	8b 45 f0	 mov	 eax, DWORD PTR $T93222[ebp]
  00003	50		 push	 eax
  00004	e8 00 00 00 00	 call	 ??3@YAXPAX@Z		; operator delete
  00009	59		 pop	 ecx
  0000a	c3		 ret	 0
__ehhandler$?SendCT_OPLOGIN_ACK@CTManager@@QAEXEEK@Z:
  0000b	b8 00 00 00 00	 mov	 eax, OFFSET FLAT:$T93229
  00010	e9 00 00 00 00	 jmp	 ___CxxFrameHandler
text$x	ENDS
?SendCT_OPLOGIN_ACK@CTManager@@QAEXEEK@Z ENDP		; CTManager::SendCT_OPLOGIN_ACK
PUBLIC	?SendCT_STLOGIN_ACK@CTManager@@QAEXEE@Z		; CTManager::SendCT_STLOGIN_ACK
;	COMDAT xdata$x
xdata$x	SEGMENT
$T93249	DD	0ffffffffH
	DD	FLAT:$L93245
$T93247	DD	019930520H
	DD	01H
	DD	FLAT:$T93249
	DD	2 DUP(00H)
	DD	2 DUP(00H)
; Function compile flags: /Ogty
xdata$x	ENDS
;	COMDAT ?SendCT_STLOGIN_ACK@CTManager@@QAEXEE@Z
_TEXT	SEGMENT
$T93242 = -16						; size = 4
__$EHRec$ = -12						; size = 12
_bRet$ = 8						; size = 1
_bAuthority$ = 12					; size = 1
?SendCT_STLOGIN_ACK@CTManager@@QAEXEE@Z PROC NEAR	; CTManager::SendCT_STLOGIN_ACK, COMDAT
; _this$ = ecx

; 15   : {

  00000	6a ff		 push	 -1
  00002	68 00 00 00 00	 push	 __ehhandler$?SendCT_STLOGIN_ACK@CTManager@@QAEXEE@Z
  00007	64 a1 00 00 00
	00		 mov	 eax, DWORD PTR fs:__except_list
  0000d	50		 push	 eax
  0000e	64 89 25 00 00
	00 00		 mov	 DWORD PTR fs:__except_list, esp
  00015	51		 push	 ecx
  00016	56		 push	 esi
  00017	57		 push	 edi

; 16   : 	CPacket * pMsg = new CPacket();

  00018	6a 1c		 push	 28			; 0000001cH
  0001a	8b f9		 mov	 edi, ecx
  0001c	e8 00 00 00 00	 call	 ??2@YAPAXI@Z		; operator new
  00021	83 c4 04	 add	 esp, 4
  00024	89 44 24 08	 mov	 DWORD PTR $T93242[esp+24], eax
  00028	33 f6		 xor	 esi, esi
  0002a	3b c6		 cmp	 eax, esi
  0002c	89 74 24 14	 mov	 DWORD PTR __$EHRec$[esp+32], esi
  00030	74 09		 je	 SHORT $L93244
  00032	8b c8		 mov	 ecx, eax
  00034	e8 00 00 00 00	 call	 ??0CPacket@@QAE@XZ	; CPacket::CPacket
  00039	8b f0		 mov	 esi, eax
$L93244:

; 17   : 	pMsg->SetID(CT_STLOGIN_ACK)
; 18   : 		<< bRet
; 19   : 		<< bAuthority; //   

  0003b	8b 44 24 20	 mov	 eax, DWORD PTR _bAuthority$[esp+20]
  0003f	8b 4c 24 1c	 mov	 ecx, DWORD PTR _bRet$[esp+20]
  00043	50		 push	 eax
  00044	51		 push	 ecx
  00045	68 31 60 00 00	 push	 24625			; 00006031H
  0004a	8b ce		 mov	 ecx, esi
  0004c	c7 44 24 20 ff
	ff ff ff	 mov	 DWORD PTR __$EHRec$[esp+44], -1
  00054	e8 00 00 00 00	 call	 ?SetID@CPacket@@QAEAAV1@G@Z ; CPacket::SetID
  00059	8b c8		 mov	 ecx, eax
  0005b	e8 00 00 00 00	 call	 ??6CPacket@@QAEAAV0@E@Z	; CPacket::operator<<
  00060	8b c8		 mov	 ecx, eax
  00062	e8 00 00 00 00	 call	 ??6CPacket@@QAEAAV0@E@Z	; CPacket::operator<<

; 20   : 
; 21   : 	Say(pMsg);

  00067	8b 17		 mov	 edx, DWORD PTR [edi]
  00069	56		 push	 esi
  0006a	8b cf		 mov	 ecx, edi
  0006c	ff 12		 call	 DWORD PTR [edx]

; 22   : }

  0006e	8b 4c 24 0c	 mov	 ecx, DWORD PTR __$EHRec$[esp+24]
  00072	5f		 pop	 edi
  00073	5e		 pop	 esi
  00074	64 89 0d 00 00
	00 00		 mov	 DWORD PTR fs:__except_list, ecx
  0007b	83 c4 10	 add	 esp, 16			; 00000010H
  0007e	c2 08 00	 ret	 8
_TEXT	ENDS
;	COMDAT text$x
text$x	SEGMENT
$L93245:
  00000	8b 45 f0	 mov	 eax, DWORD PTR $T93242[ebp]
  00003	50		 push	 eax
  00004	e8 00 00 00 00	 call	 ??3@YAXPAX@Z		; operator delete
  00009	59		 pop	 ecx
  0000a	c3		 ret	 0
__ehhandler$?SendCT_STLOGIN_ACK@CTManager@@QAEXEE@Z:
  0000b	b8 00 00 00 00	 mov	 eax, OFFSET FLAT:$T93247
  00010	e9 00 00 00 00	 jmp	 ___CxxFrameHandler
text$x	ENDS
?SendCT_STLOGIN_ACK@CTManager@@QAEXEE@Z ENDP		; CTManager::SendCT_STLOGIN_ACK
PUBLIC	?SendCT_SERVICECONTROL_ACK@CTManager@@QAEXE@Z	; CTManager::SendCT_SERVICECONTROL_ACK
;	COMDAT xdata$x
xdata$x	SEGMENT
$T93263	DD	0ffffffffH
	DD	FLAT:$L93259
$T93261	DD	019930520H
	DD	01H
	DD	FLAT:$T93263
	DD	2 DUP(00H)
	DD	2 DUP(00H)
; Function compile flags: /Ogty
xdata$x	ENDS
;	COMDAT ?SendCT_SERVICECONTROL_ACK@CTManager@@QAEXE@Z
_TEXT	SEGMENT
$T93256 = -16						; size = 4
__$EHRec$ = -12						; size = 12
_bRet$ = 8						; size = 1
?SendCT_SERVICECONTROL_ACK@CTManager@@QAEXE@Z PROC NEAR	; CTManager::SendCT_SERVICECONTROL_ACK, COMDAT
; _this$ = ecx

; 92   : {

  00000	6a ff		 push	 -1
  00002	68 00 00 00 00	 push	 __ehhandler$?SendCT_SERVICECONTROL_ACK@CTManager@@QAEXE@Z
  00007	64 a1 00 00 00
	00		 mov	 eax, DWORD PTR fs:__except_list
  0000d	50		 push	 eax
  0000e	64 89 25 00 00
	00 00		 mov	 DWORD PTR fs:__except_list, esp
  00015	51		 push	 ecx
  00016	56		 push	 esi
  00017	57		 push	 edi

; 93   : 	CPacket * pMsg = new CPacket();

  00018	6a 1c		 push	 28			; 0000001cH
  0001a	8b f9		 mov	 edi, ecx
  0001c	e8 00 00 00 00	 call	 ??2@YAPAXI@Z		; operator new
  00021	83 c4 04	 add	 esp, 4
  00024	89 44 24 08	 mov	 DWORD PTR $T93256[esp+24], eax
  00028	33 f6		 xor	 esi, esi
  0002a	3b c6		 cmp	 eax, esi
  0002c	89 74 24 14	 mov	 DWORD PTR __$EHRec$[esp+32], esi
  00030	74 09		 je	 SHORT $L93258
  00032	8b c8		 mov	 ecx, eax
  00034	e8 00 00 00 00	 call	 ??0CPacket@@QAE@XZ	; CPacket::CPacket
  00039	8b f0		 mov	 esi, eax
$L93258:

; 94   : 	pMsg->SetID(CT_SERVICECONTROL_ACK)
; 95   : 		<< bRet;

  0003b	8b 44 24 1c	 mov	 eax, DWORD PTR _bRet$[esp+20]
  0003f	50		 push	 eax
  00040	68 09 60 00 00	 push	 24585			; 00006009H
  00045	8b ce		 mov	 ecx, esi
  00047	c7 44 24 1c ff
	ff ff ff	 mov	 DWORD PTR __$EHRec$[esp+40], -1
  0004f	e8 00 00 00 00	 call	 ?SetID@CPacket@@QAEAAV1@G@Z ; CPacket::SetID
  00054	8b c8		 mov	 ecx, eax
  00056	e8 00 00 00 00	 call	 ??6CPacket@@QAEAAV0@E@Z	; CPacket::operator<<

; 96   : 
; 97   : 	Say(pMsg);

  0005b	8b 17		 mov	 edx, DWORD PTR [edi]
  0005d	56		 push	 esi
  0005e	8b cf		 mov	 ecx, edi
  00060	ff 12		 call	 DWORD PTR [edx]

; 98   : }

  00062	8b 4c 24 0c	 mov	 ecx, DWORD PTR __$EHRec$[esp+24]
  00066	5f		 pop	 edi
  00067	5e		 pop	 esi
  00068	64 89 0d 00 00
	00 00		 mov	 DWORD PTR fs:__except_list, ecx
  0006f	83 c4 10	 add	 esp, 16			; 00000010H
  00072	c2 04 00	 ret	 4
_TEXT	ENDS
;	COMDAT text$x
text$x	SEGMENT
$L93259:
  00000	8b 45 f0	 mov	 eax, DWORD PTR $T93256[ebp]
  00003	50		 push	 eax
  00004	e8 00 00 00 00	 call	 ??3@YAXPAX@Z		; operator delete
  00009	59		 pop	 ecx
  0000a	c3		 ret	 0
__ehhandler$?SendCT_SERVICECONTROL_ACK@CTManager@@QAEXE@Z:
  0000b	b8 00 00 00 00	 mov	 eax, OFFSET FLAT:$T93261
  00010	e9 00 00 00 00	 jmp	 ___CxxFrameHandler
text$x	ENDS
?SendCT_SERVICECONTROL_ACK@CTManager@@QAEXE@Z ENDP	; CTManager::SendCT_SERVICECONTROL_ACK
PUBLIC	?SendCT_SERVICECHANGE_ACK@CTManager@@QAEXKK@Z	; CTManager::SendCT_SERVICECHANGE_ACK
;	COMDAT xdata$x
xdata$x	SEGMENT
$T93277	DD	0ffffffffH
	DD	FLAT:$L93273
$T93275	DD	019930520H
	DD	01H
	DD	FLAT:$T93277
	DD	2 DUP(00H)
	DD	2 DUP(00H)
; Function compile flags: /Ogty
xdata$x	ENDS
;	COMDAT ?SendCT_SERVICECHANGE_ACK@CTManager@@QAEXKK@Z
_TEXT	SEGMENT
$T93270 = -16						; size = 4
__$EHRec$ = -12						; size = 12
_dwID$ = 8						; size = 4
_dwStatus$ = 12						; size = 4
?SendCT_SERVICECHANGE_ACK@CTManager@@QAEXKK@Z PROC NEAR	; CTManager::SendCT_SERVICECHANGE_ACK, COMDAT
; _this$ = ecx

; 100  : {

  00000	6a ff		 push	 -1
  00002	68 00 00 00 00	 push	 __ehhandler$?SendCT_SERVICECHANGE_ACK@CTManager@@QAEXKK@Z
  00007	64 a1 00 00 00
	00		 mov	 eax, DWORD PTR fs:__except_list
  0000d	50		 push	 eax
  0000e	64 89 25 00 00
	00 00		 mov	 DWORD PTR fs:__except_list, esp
  00015	51		 push	 ecx
  00016	56		 push	 esi
  00017	57		 push	 edi

; 101  : 	CPacket * pMsg = new CPacket();

  00018	6a 1c		 push	 28			; 0000001cH
  0001a	8b f9		 mov	 edi, ecx
  0001c	e8 00 00 00 00	 call	 ??2@YAPAXI@Z		; operator new
  00021	83 c4 04	 add	 esp, 4
  00024	89 44 24 08	 mov	 DWORD PTR $T93270[esp+24], eax
  00028	33 f6		 xor	 esi, esi
  0002a	3b c6		 cmp	 eax, esi
  0002c	89 74 24 14	 mov	 DWORD PTR __$EHRec$[esp+32], esi
  00030	74 09		 je	 SHORT $L93272
  00032	8b c8		 mov	 ecx, eax
  00034	e8 00 00 00 00	 call	 ??0CPacket@@QAE@XZ	; CPacket::CPacket
  00039	8b f0		 mov	 esi, eax
$L93272:

; 102  : 	pMsg->SetID(CT_SERVICECHANGE_ACK)
; 103  : 		<< dwID
; 104  : 		<< dwStatus;

  0003b	8b 44 24 20	 mov	 eax, DWORD PTR _dwStatus$[esp+20]
  0003f	8b 4c 24 1c	 mov	 ecx, DWORD PTR _dwID$[esp+20]
  00043	50		 push	 eax
  00044	51		 push	 ecx
  00045	68 1c 60 00 00	 push	 24604			; 0000601cH
  0004a	8b ce		 mov	 ecx, esi
  0004c	c7 44 24 20 ff
	ff ff ff	 mov	 DWORD PTR __$EHRec$[esp+44], -1
  00054	e8 00 00 00 00	 call	 ?SetID@CPacket@@QAEAAV1@G@Z ; CPacket::SetID
  00059	8b c8		 mov	 ecx, eax
  0005b	e8 00 00 00 00	 call	 ??6CPacket@@QAEAAV0@K@Z	; CPacket::operator<<
  00060	8b c8		 mov	 ecx, eax
  00062	e8 00 00 00 00	 call	 ??6CPacket@@QAEAAV0@K@Z	; CPacket::operator<<

; 105  : 
; 106  : 	Say(pMsg);

  00067	8b 17		 mov	 edx, DWORD PTR [edi]
  00069	56		 push	 esi
  0006a	8b cf		 mov	 ecx, edi
  0006c	ff 12		 call	 DWORD PTR [edx]

; 107  : }

  0006e	8b 4c 24 0c	 mov	 ecx, DWORD PTR __$EHRec$[esp+24]
  00072	5f		 pop	 edi
  00073	5e		 pop	 esi
  00074	64 89 0d 00 00
	00 00		 mov	 DWORD PTR fs:__except_list, ecx
  0007b	83 c4 10	 add	 esp, 16			; 00000010H
  0007e	c2 08 00	 ret	 8
_TEXT	ENDS
;	COMDAT text$x
text$x	SEGMENT
$L93273:
  00000	8b 45 f0	 mov	 eax, DWORD PTR $T93270[ebp]
  00003	50		 push	 eax
  00004	e8 00 00 00 00	 call	 ??3@YAXPAX@Z		; operator delete
  00009	59		 pop	 ecx
  0000a	c3		 ret	 0
__ehhandler$?SendCT_SERVICECHANGE_ACK@CTManager@@QAEXKK@Z:
  0000b	b8 00 00 00 00	 mov	 eax, OFFSET FLAT:$T93275
  00010	e9 00 00 00 00	 jmp	 ___CxxFrameHandler
text$x	ENDS
?SendCT_SERVICECHANGE_ACK@CTManager@@QAEXKK@Z ENDP	; CTManager::SendCT_SERVICECHANGE_ACK
PUBLIC	?SendCT_SERVICEDATA_ACK@CTManager@@QAEXPAUtagTSVRTEMP@@KKKK@Z ; CTManager::SendCT_SERVICEDATA_ACK
EXTRN	??6CPacket@@QAEAAV0@_J@Z:NEAR			; CPacket::operator<<
;	COMDAT xdata$x
xdata$x	SEGMENT
$T93291	DD	0ffffffffH
	DD	FLAT:$L93287
$T93289	DD	019930520H
	DD	01H
	DD	FLAT:$T93291
	DD	2 DUP(00H)
	DD	2 DUP(00H)
; Function compile flags: /Ogty
xdata$x	ENDS
;	COMDAT ?SendCT_SERVICEDATA_ACK@CTManager@@QAEXPAUtagTSVRTEMP@@KKKK@Z
_TEXT	SEGMENT
$T93284 = -16						; size = 4
__$EHRec$ = -12						; size = 12
_pSvr$ = 8						; size = 4
_dwSession$ = 12					; size = 4
_dwCurUser$ = 16					; size = 4
_dwPing$ = 20						; size = 4
_dwActiveUser$ = 24					; size = 4
?SendCT_SERVICEDATA_ACK@CTManager@@QAEXPAUtagTSVRTEMP@@KKKK@Z PROC NEAR ; CTManager::SendCT_SERVICEDATA_ACK, COMDAT
; _this$ = ecx

; 113  : {

  00000	6a ff		 push	 -1
  00002	68 00 00 00 00	 push	 __ehhandler$?SendCT_SERVICEDATA_ACK@CTManager@@QAEXPAUtagTSVRTEMP@@KKKK@Z
  00007	64 a1 00 00 00
	00		 mov	 eax, DWORD PTR fs:__except_list
  0000d	50		 push	 eax
  0000e	64 89 25 00 00
	00 00		 mov	 DWORD PTR fs:__except_list, esp
  00015	51		 push	 ecx
  00016	56		 push	 esi
  00017	57		 push	 edi

; 114  : 	CPacket * pMsg = new CPacket();

  00018	6a 1c		 push	 28			; 0000001cH
  0001a	8b f9		 mov	 edi, ecx
  0001c	e8 00 00 00 00	 call	 ??2@YAPAXI@Z		; operator new
  00021	83 c4 04	 add	 esp, 4
  00024	89 44 24 08	 mov	 DWORD PTR $T93284[esp+24], eax
  00028	33 f6		 xor	 esi, esi
  0002a	3b c6		 cmp	 eax, esi
  0002c	89 74 24 14	 mov	 DWORD PTR __$EHRec$[esp+32], esi
  00030	74 09		 je	 SHORT $L93286
  00032	8b c8		 mov	 ecx, eax
  00034	e8 00 00 00 00	 call	 ??0CPacket@@QAE@XZ	; CPacket::CPacket
  00039	8b f0		 mov	 esi, eax
$L93286:

; 115  : 	pMsg->SetID(CT_SERVICEDATA_ACK)
; 116  : 		<< pSvr->m_dwID
; 117  : 		<< dwSession
; 118  : 		<< dwCurUser
; 119  : 		<< pSvr->m_dwMaxUser
; 120  : 		<< dwPing
; 121  : 		<< pSvr->m_nPickTime
; 122  : 		<< pSvr->m_dwStopCount
; 123  : 		<< pSvr->m_nLatestStop
; 124  : 		<< dwActiveUser;

  0003b	8b 44 24 2c	 mov	 eax, DWORD PTR _dwActiveUser$[esp+20]
  0003f	50		 push	 eax
  00040	8b 44 24 20	 mov	 eax, DWORD PTR _pSvr$[esp+24]
  00044	8b 48 44	 mov	 ecx, DWORD PTR [eax+68]
  00047	8b 50 40	 mov	 edx, DWORD PTR [eax+64]
  0004a	51		 push	 ecx
  0004b	8b 48 34	 mov	 ecx, DWORD PTR [eax+52]
  0004e	52		 push	 edx
  0004f	8b 50 4c	 mov	 edx, DWORD PTR [eax+76]
  00052	51		 push	 ecx
  00053	8b 48 48	 mov	 ecx, DWORD PTR [eax+72]
  00056	52		 push	 edx
  00057	8b 54 24 3c	 mov	 edx, DWORD PTR _dwPing$[esp+40]
  0005b	51		 push	 ecx
  0005c	8b 48 2c	 mov	 ecx, DWORD PTR [eax+44]
  0005f	52		 push	 edx
  00060	8b 54 24 40	 mov	 edx, DWORD PTR _dwCurUser$[esp+48]
  00064	51		 push	 ecx
  00065	8b 4c 24 40	 mov	 ecx, DWORD PTR _dwSession$[esp+52]
  00069	52		 push	 edx
  0006a	8b 10		 mov	 edx, DWORD PTR [eax]
  0006c	51		 push	 ecx
  0006d	52		 push	 edx
  0006e	68 20 60 00 00	 push	 24608			; 00006020H
  00073	8b ce		 mov	 ecx, esi
  00075	c7 44 24 44 ff
	ff ff ff	 mov	 DWORD PTR __$EHRec$[esp+80], -1
  0007d	e8 00 00 00 00	 call	 ?SetID@CPacket@@QAEAAV1@G@Z ; CPacket::SetID
  00082	8b c8		 mov	 ecx, eax
  00084	e8 00 00 00 00	 call	 ??6CPacket@@QAEAAV0@K@Z	; CPacket::operator<<
  00089	8b c8		 mov	 ecx, eax
  0008b	e8 00 00 00 00	 call	 ??6CPacket@@QAEAAV0@K@Z	; CPacket::operator<<
  00090	8b c8		 mov	 ecx, eax
  00092	e8 00 00 00 00	 call	 ??6CPacket@@QAEAAV0@K@Z	; CPacket::operator<<
  00097	8b c8		 mov	 ecx, eax
  00099	e8 00 00 00 00	 call	 ??6CPacket@@QAEAAV0@K@Z	; CPacket::operator<<
  0009e	8b c8		 mov	 ecx, eax
  000a0	e8 00 00 00 00	 call	 ??6CPacket@@QAEAAV0@K@Z	; CPacket::operator<<
  000a5	8b c8		 mov	 ecx, eax
  000a7	e8 00 00 00 00	 call	 ??6CPacket@@QAEAAV0@_J@Z ; CPacket::operator<<
  000ac	8b c8		 mov	 ecx, eax
  000ae	e8 00 00 00 00	 call	 ??6CPacket@@QAEAAV0@K@Z	; CPacket::operator<<
  000b3	8b c8		 mov	 ecx, eax
  000b5	e8 00 00 00 00	 call	 ??6CPacket@@QAEAAV0@_J@Z ; CPacket::operator<<
  000ba	8b c8		 mov	 ecx, eax
  000bc	e8 00 00 00 00	 call	 ??6CPacket@@QAEAAV0@K@Z	; CPacket::operator<<

; 125  : 
; 126  : 	Say(pMsg);

  000c1	8b 07		 mov	 eax, DWORD PTR [edi]
  000c3	56		 push	 esi
  000c4	8b cf		 mov	 ecx, edi
  000c6	ff 10		 call	 DWORD PTR [eax]

; 127  : }

  000c8	8b 4c 24 0c	 mov	 ecx, DWORD PTR __$EHRec$[esp+24]
  000cc	5f		 pop	 edi
  000cd	5e		 pop	 esi
  000ce	64 89 0d 00 00
	00 00		 mov	 DWORD PTR fs:__except_list, ecx
  000d5	83 c4 10	 add	 esp, 16			; 00000010H
  000d8	c2 14 00	 ret	 20			; 00000014H
_TEXT	ENDS
;	COMDAT text$x
text$x	SEGMENT
$L93287:
  00000	8b 45 f0	 mov	 eax, DWORD PTR $T93284[ebp]
  00003	50		 push	 eax
  00004	e8 00 00 00 00	 call	 ??3@YAXPAX@Z		; operator delete
  00009	59		 pop	 ecx
  0000a	c3		 ret	 0
__ehhandler$?SendCT_SERVICEDATA_ACK@CTManager@@QAEXPAUtagTSVRTEMP@@KKKK@Z:
  0000b	b8 00 00 00 00	 mov	 eax, OFFSET FLAT:$T93289
  00010	e9 00 00 00 00	 jmp	 ___CxxFrameHandler
text$x	ENDS
?SendCT_SERVICEDATA_ACK@CTManager@@QAEXPAUtagTSVRTEMP@@KKKK@Z ENDP ; CTManager::SendCT_SERVICEDATA_ACK
PUBLIC	?SendCT_SERVICEUPLOADSTART_ACK@CTManager@@QAEXE@Z ; CTManager::SendCT_SERVICEUPLOADSTART_ACK
;	COMDAT xdata$x
xdata$x	SEGMENT
$T93305	DD	0ffffffffH
	DD	FLAT:$L93301
$T93303	DD	019930520H
	DD	01H
	DD	FLAT:$T93305
	DD	2 DUP(00H)
	DD	2 DUP(00H)
; Function compile flags: /Ogty
xdata$x	ENDS
;	COMDAT ?SendCT_SERVICEUPLOADSTART_ACK@CTManager@@QAEXE@Z
_TEXT	SEGMENT
$T93298 = -16						; size = 4
__$EHRec$ = -12						; size = 12
_bRet$ = 8						; size = 1
?SendCT_SERVICEUPLOADSTART_ACK@CTManager@@QAEXE@Z PROC NEAR ; CTManager::SendCT_SERVICEUPLOADSTART_ACK, COMDAT
; _this$ = ecx

; 129  : {

  00000	6a ff		 push	 -1
  00002	68 00 00 00 00	 push	 __ehhandler$?SendCT_SERVICEUPLOADSTART_ACK@CTManager@@QAEXE@Z
  00007	64 a1 00 00 00
	00		 mov	 eax, DWORD PTR fs:__except_list
  0000d	50		 push	 eax
  0000e	64 89 25 00 00
	00 00		 mov	 DWORD PTR fs:__except_list, esp
  00015	51		 push	 ecx
  00016	56		 push	 esi
  00017	57		 push	 edi

; 130  : 	CPacket * pMsg = new CPacket();

  00018	6a 1c		 push	 28			; 0000001cH
  0001a	8b f9		 mov	 edi, ecx
  0001c	e8 00 00 00 00	 call	 ??2@YAPAXI@Z		; operator new
  00021	83 c4 04	 add	 esp, 4
  00024	89 44 24 08	 mov	 DWORD PTR $T93298[esp+24], eax
  00028	33 f6		 xor	 esi, esi
  0002a	3b c6		 cmp	 eax, esi
  0002c	89 74 24 14	 mov	 DWORD PTR __$EHRec$[esp+32], esi
  00030	74 09		 je	 SHORT $L93300
  00032	8b c8		 mov	 ecx, eax
  00034	e8 00 00 00 00	 call	 ??0CPacket@@QAE@XZ	; CPacket::CPacket
  00039	8b f0		 mov	 esi, eax
$L93300:

; 131  : 	pMsg->SetID(CT_SERVICEUPLOADSTART_ACK)
; 132  : 		<< bRet;

  0003b	8b 44 24 1c	 mov	 eax, DWORD PTR _bRet$[esp+20]
  0003f	50		 push	 eax
  00040	68 22 60 00 00	 push	 24610			; 00006022H
  00045	8b ce		 mov	 ecx, esi
  00047	c7 44 24 1c ff
	ff ff ff	 mov	 DWORD PTR __$EHRec$[esp+40], -1
  0004f	e8 00 00 00 00	 call	 ?SetID@CPacket@@QAEAAV1@G@Z ; CPacket::SetID
  00054	8b c8		 mov	 ecx, eax
  00056	e8 00 00 00 00	 call	 ??6CPacket@@QAEAAV0@E@Z	; CPacket::operator<<

; 133  : 
; 134  : 	Say(pMsg);

  0005b	8b 17		 mov	 edx, DWORD PTR [edi]
  0005d	56		 push	 esi
  0005e	8b cf		 mov	 ecx, edi
  00060	ff 12		 call	 DWORD PTR [edx]

; 135  : }

  00062	8b 4c 24 0c	 mov	 ecx, DWORD PTR __$EHRec$[esp+24]
  00066	5f		 pop	 edi
  00067	5e		 pop	 esi
  00068	64 89 0d 00 00
	00 00		 mov	 DWORD PTR fs:__except_list, ecx
  0006f	83 c4 10	 add	 esp, 16			; 00000010H
  00072	c2 04 00	 ret	 4
_TEXT	ENDS
;	COMDAT text$x
text$x	SEGMENT
$L93301:
  00000	8b 45 f0	 mov	 eax, DWORD PTR $T93298[ebp]
  00003	50		 push	 eax
  00004	e8 00 00 00 00	 call	 ??3@YAXPAX@Z		; operator delete
  00009	59		 pop	 ecx
  0000a	c3		 ret	 0
__ehhandler$?SendCT_SERVICEUPLOADSTART_ACK@CTManager@@QAEXE@Z:
  0000b	b8 00 00 00 00	 mov	 eax, OFFSET FLAT:$T93303
  00010	e9 00 00 00 00	 jmp	 ___CxxFrameHandler
text$x	ENDS
?SendCT_SERVICEUPLOADSTART_ACK@CTManager@@QAEXE@Z ENDP	; CTManager::SendCT_SERVICEUPLOADSTART_ACK
PUBLIC	?SendCT_SERVICEUPLOAD_ACK@CTManager@@QAEXXZ	; CTManager::SendCT_SERVICEUPLOAD_ACK
;	COMDAT xdata$x
xdata$x	SEGMENT
$T93319	DD	0ffffffffH
	DD	FLAT:$L93315
$T93317	DD	019930520H
	DD	01H
	DD	FLAT:$T93319
	DD	2 DUP(00H)
	DD	2 DUP(00H)
; Function compile flags: /Ogty
xdata$x	ENDS
;	COMDAT ?SendCT_SERVICEUPLOAD_ACK@CTManager@@QAEXXZ
_TEXT	SEGMENT
$T93312 = -16						; size = 4
__$EHRec$ = -12						; size = 12
?SendCT_SERVICEUPLOAD_ACK@CTManager@@QAEXXZ PROC NEAR	; CTManager::SendCT_SERVICEUPLOAD_ACK, COMDAT
; _this$ = ecx

; 137  : {

  00000	6a ff		 push	 -1
  00002	68 00 00 00 00	 push	 __ehhandler$?SendCT_SERVICEUPLOAD_ACK@CTManager@@QAEXXZ
  00007	64 a1 00 00 00
	00		 mov	 eax, DWORD PTR fs:__except_list
  0000d	50		 push	 eax
  0000e	64 89 25 00 00
	00 00		 mov	 DWORD PTR fs:__except_list, esp
  00015	51		 push	 ecx
  00016	56		 push	 esi
  00017	57		 push	 edi

; 138  : 	CPacket * pMsg = new CPacket();

  00018	6a 1c		 push	 28			; 0000001cH
  0001a	8b f9		 mov	 edi, ecx
  0001c	e8 00 00 00 00	 call	 ??2@YAPAXI@Z		; operator new
  00021	83 c4 04	 add	 esp, 4
  00024	89 44 24 08	 mov	 DWORD PTR $T93312[esp+24], eax
  00028	33 f6		 xor	 esi, esi
  0002a	3b c6		 cmp	 eax, esi
  0002c	89 74 24 14	 mov	 DWORD PTR __$EHRec$[esp+32], esi
  00030	74 09		 je	 SHORT $L93314
  00032	8b c8		 mov	 ecx, eax
  00034	e8 00 00 00 00	 call	 ??0CPacket@@QAE@XZ	; CPacket::CPacket
  00039	8b f0		 mov	 esi, eax
$L93314:

; 139  : 	pMsg->SetID(CT_SERVICEUPLOAD_ACK);

  0003b	68 24 60 00 00	 push	 24612			; 00006024H
  00040	8b ce		 mov	 ecx, esi
  00042	c7 44 24 18 ff
	ff ff ff	 mov	 DWORD PTR __$EHRec$[esp+36], -1
  0004a	e8 00 00 00 00	 call	 ?SetID@CPacket@@QAEAAV1@G@Z ; CPacket::SetID

; 140  : 
; 141  : 	Say(pMsg);

  0004f	8b 07		 mov	 eax, DWORD PTR [edi]
  00051	56		 push	 esi
  00052	8b cf		 mov	 ecx, edi
  00054	ff 10		 call	 DWORD PTR [eax]

; 142  : }

  00056	8b 4c 24 0c	 mov	 ecx, DWORD PTR __$EHRec$[esp+24]
  0005a	5f		 pop	 edi
  0005b	5e		 pop	 esi
  0005c	64 89 0d 00 00
	00 00		 mov	 DWORD PTR fs:__except_list, ecx
  00063	83 c4 10	 add	 esp, 16			; 00000010H
  00066	c3		 ret	 0
_TEXT	ENDS
;	COMDAT text$x
text$x	SEGMENT
$L93315:
  00000	8b 45 f0	 mov	 eax, DWORD PTR $T93312[ebp]
  00003	50		 push	 eax
  00004	e8 00 00 00 00	 call	 ??3@YAXPAX@Z		; operator delete
  00009	59		 pop	 ecx
  0000a	c3		 ret	 0
__ehhandler$?SendCT_SERVICEUPLOAD_ACK@CTManager@@QAEXXZ:
  0000b	b8 00 00 00 00	 mov	 eax, OFFSET FLAT:$T93317
  00010	e9 00 00 00 00	 jmp	 ___CxxFrameHandler
text$x	ENDS
?SendCT_SERVICEUPLOAD_ACK@CTManager@@QAEXXZ ENDP	; CTManager::SendCT_SERVICEUPLOAD_ACK
PUBLIC	?SendCT_SERVICEUPLOADEND_ACK@CTManager@@QAEXE@Z	; CTManager::SendCT_SERVICEUPLOADEND_ACK
;	COMDAT xdata$x
xdata$x	SEGMENT
$T93333	DD	0ffffffffH
	DD	FLAT:$L93329
$T93331	DD	019930520H
	DD	01H
	DD	FLAT:$T93333
	DD	2 DUP(00H)
	DD	2 DUP(00H)
; Function compile flags: /Ogty
xdata$x	ENDS
;	COMDAT ?SendCT_SERVICEUPLOADEND_ACK@CTManager@@QAEXE@Z
_TEXT	SEGMENT
$T93326 = -16						; size = 4
__$EHRec$ = -12						; size = 12
_bRet$ = 8						; size = 1
?SendCT_SERVICEUPLOADEND_ACK@CTManager@@QAEXE@Z PROC NEAR ; CTManager::SendCT_SERVICEUPLOADEND_ACK, COMDAT
; _this$ = ecx

; 144  : {

  00000	6a ff		 push	 -1
  00002	68 00 00 00 00	 push	 __ehhandler$?SendCT_SERVICEUPLOADEND_ACK@CTManager@@QAEXE@Z
  00007	64 a1 00 00 00
	00		 mov	 eax, DWORD PTR fs:__except_list
  0000d	50		 push	 eax
  0000e	64 89 25 00 00
	00 00		 mov	 DWORD PTR fs:__except_list, esp
  00015	51		 push	 ecx
  00016	56		 push	 esi
  00017	57		 push	 edi

; 145  : 	CPacket * pMsg = new CPacket();

  00018	6a 1c		 push	 28			; 0000001cH
  0001a	8b f9		 mov	 edi, ecx
  0001c	e8 00 00 00 00	 call	 ??2@YAPAXI@Z		; operator new
  00021	83 c4 04	 add	 esp, 4
  00024	89 44 24 08	 mov	 DWORD PTR $T93326[esp+24], eax
  00028	33 f6		 xor	 esi, esi
  0002a	3b c6		 cmp	 eax, esi
  0002c	89 74 24 14	 mov	 DWORD PTR __$EHRec$[esp+32], esi
  00030	74 09		 je	 SHORT $L93328
  00032	8b c8		 mov	 ecx, eax
  00034	e8 00 00 00 00	 call	 ??0CPacket@@QAE@XZ	; CPacket::CPacket
  00039	8b f0		 mov	 esi, eax
$L93328:

; 146  : 	pMsg->SetID(CT_SERVICEUPLOADEND_ACK)
; 147  : 		<< bRet;

  0003b	8b 44 24 1c	 mov	 eax, DWORD PTR _bRet$[esp+20]
  0003f	50		 push	 eax
  00040	68 26 60 00 00	 push	 24614			; 00006026H
  00045	8b ce		 mov	 ecx, esi
  00047	c7 44 24 1c ff
	ff ff ff	 mov	 DWORD PTR __$EHRec$[esp+40], -1
  0004f	e8 00 00 00 00	 call	 ?SetID@CPacket@@QAEAAV1@G@Z ; CPacket::SetID
  00054	8b c8		 mov	 ecx, eax
  00056	e8 00 00 00 00	 call	 ??6CPacket@@QAEAAV0@E@Z	; CPacket::operator<<

; 148  : 
; 149  : 	Say(pMsg);

  0005b	8b 17		 mov	 edx, DWORD PTR [edi]
  0005d	56		 push	 esi
  0005e	8b cf		 mov	 ecx, edi
  00060	ff 12		 call	 DWORD PTR [edx]

; 150  : }

  00062	8b 4c 24 0c	 mov	 ecx, DWORD PTR __$EHRec$[esp+24]
  00066	5f		 pop	 edi
  00067	5e		 pop	 esi
  00068	64 89 0d 00 00
	00 00		 mov	 DWORD PTR fs:__except_list, ecx
  0006f	83 c4 10	 add	 esp, 16			; 00000010H
  00072	c2 04 00	 ret	 4
_TEXT	ENDS
;	COMDAT text$x
text$x	SEGMENT
$L93329:
  00000	8b 45 f0	 mov	 eax, DWORD PTR $T93326[ebp]
  00003	50		 push	 eax
  00004	e8 00 00 00 00	 call	 ??3@YAXPAX@Z		; operator delete
  00009	59		 pop	 ecx
  0000a	c3		 ret	 0
__ehhandler$?SendCT_SERVICEUPLOADEND_ACK@CTManager@@QAEXE@Z:
  0000b	b8 00 00 00 00	 mov	 eax, OFFSET FLAT:$T93331
  00010	e9 00 00 00 00	 jmp	 ___CxxFrameHandler
text$x	ENDS
?SendCT_SERVICEUPLOADEND_ACK@CTManager@@QAEXE@Z ENDP	; CTManager::SendCT_SERVICEUPLOADEND_ACK
PUBLIC	?SendCT_AUTHORITY_ACK@CTManager@@QAEXXZ		; CTManager::SendCT_AUTHORITY_ACK
;	COMDAT xdata$x
xdata$x	SEGMENT
$T93347	DD	0ffffffffH
	DD	FLAT:$L93343
$T93345	DD	019930520H
	DD	01H
	DD	FLAT:$T93347
	DD	2 DUP(00H)
	DD	2 DUP(00H)
; Function compile flags: /Ogty
xdata$x	ENDS
;	COMDAT ?SendCT_AUTHORITY_ACK@CTManager@@QAEXXZ
_TEXT	SEGMENT
$T93340 = -16						; size = 4
__$EHRec$ = -12						; size = 12
?SendCT_AUTHORITY_ACK@CTManager@@QAEXXZ PROC NEAR	; CTManager::SendCT_AUTHORITY_ACK, COMDAT
; _this$ = ecx

; 154  : {

  00000	6a ff		 push	 -1
  00002	68 00 00 00 00	 push	 __ehhandler$?SendCT_AUTHORITY_ACK@CTManager@@QAEXXZ
  00007	64 a1 00 00 00
	00		 mov	 eax, DWORD PTR fs:__except_list
  0000d	50		 push	 eax
  0000e	64 89 25 00 00
	00 00		 mov	 DWORD PTR fs:__except_list, esp
  00015	51		 push	 ecx
  00016	56		 push	 esi
  00017	57		 push	 edi

; 155  : 	CPacket * pMsg = new CPacket();

  00018	6a 1c		 push	 28			; 0000001cH
  0001a	8b f9		 mov	 edi, ecx
  0001c	e8 00 00 00 00	 call	 ??2@YAPAXI@Z		; operator new
  00021	83 c4 04	 add	 esp, 4
  00024	89 44 24 08	 mov	 DWORD PTR $T93340[esp+24], eax
  00028	33 f6		 xor	 esi, esi
  0002a	3b c6		 cmp	 eax, esi
  0002c	89 74 24 14	 mov	 DWORD PTR __$EHRec$[esp+32], esi
  00030	74 09		 je	 SHORT $L93342
  00032	8b c8		 mov	 ecx, eax
  00034	e8 00 00 00 00	 call	 ??0CPacket@@QAE@XZ	; CPacket::CPacket
  00039	8b f0		 mov	 esi, eax
$L93342:

; 156  : 	pMsg->SetID(CT_AUTHORITY_ACK);	

  0003b	68 2f 60 00 00	 push	 24623			; 0000602fH
  00040	8b ce		 mov	 ecx, esi
  00042	c7 44 24 18 ff
	ff ff ff	 mov	 DWORD PTR __$EHRec$[esp+36], -1
  0004a	e8 00 00 00 00	 call	 ?SetID@CPacket@@QAEAAV1@G@Z ; CPacket::SetID

; 157  : 
; 158  : 	Say(pMsg);

  0004f	8b 07		 mov	 eax, DWORD PTR [edi]
  00051	56		 push	 esi
  00052	8b cf		 mov	 ecx, edi
  00054	ff 10		 call	 DWORD PTR [eax]

; 159  : }

  00056	8b 4c 24 0c	 mov	 ecx, DWORD PTR __$EHRec$[esp+24]
  0005a	5f		 pop	 edi
  0005b	5e		 pop	 esi
  0005c	64 89 0d 00 00
	00 00		 mov	 DWORD PTR fs:__except_list, ecx
  00063	83 c4 10	 add	 esp, 16			; 00000010H
  00066	c3		 ret	 0
_TEXT	ENDS
;	COMDAT text$x
text$x	SEGMENT
$L93343:
  00000	8b 45 f0	 mov	 eax, DWORD PTR $T93340[ebp]
  00003	50		 push	 eax
  00004	e8 00 00 00 00	 call	 ??3@YAXPAX@Z		; operator delete
  00009	59		 pop	 ecx
  0000a	c3		 ret	 0
__ehhandler$?SendCT_AUTHORITY_ACK@CTManager@@QAEXXZ:
  0000b	b8 00 00 00 00	 mov	 eax, OFFSET FLAT:$T93345
  00010	e9 00 00 00 00	 jmp	 ___CxxFrameHandler
text$x	ENDS
?SendCT_AUTHORITY_ACK@CTManager@@QAEXXZ ENDP		; CTManager::SendCT_AUTHORITY_ACK
PUBLIC	?SendCT_ACCOUNTINPUT_ACK@CTManager@@QAEXE@Z	; CTManager::SendCT_ACCOUNTINPUT_ACK
;	COMDAT xdata$x
xdata$x	SEGMENT
$T93361	DD	0ffffffffH
	DD	FLAT:$L93357
$T93359	DD	019930520H
	DD	01H
	DD	FLAT:$T93361
	DD	2 DUP(00H)
	DD	2 DUP(00H)
; Function compile flags: /Ogty
xdata$x	ENDS
;	COMDAT ?SendCT_ACCOUNTINPUT_ACK@CTManager@@QAEXE@Z
_TEXT	SEGMENT
$T93354 = -16						; size = 4
__$EHRec$ = -12						; size = 12
_bRet$ = 8						; size = 1
?SendCT_ACCOUNTINPUT_ACK@CTManager@@QAEXE@Z PROC NEAR	; CTManager::SendCT_ACCOUNTINPUT_ACK, COMDAT
; _this$ = ecx

; 162  : {

  00000	6a ff		 push	 -1
  00002	68 00 00 00 00	 push	 __ehhandler$?SendCT_ACCOUNTINPUT_ACK@CTManager@@QAEXE@Z
  00007	64 a1 00 00 00
	00		 mov	 eax, DWORD PTR fs:__except_list
  0000d	50		 push	 eax
  0000e	64 89 25 00 00
	00 00		 mov	 DWORD PTR fs:__except_list, esp
  00015	51		 push	 ecx
  00016	56		 push	 esi
  00017	57		 push	 edi

; 163  : 	CPacket * pMsg = new CPacket();

  00018	6a 1c		 push	 28			; 0000001cH
  0001a	8b f9		 mov	 edi, ecx
  0001c	e8 00 00 00 00	 call	 ??2@YAPAXI@Z		; operator new
  00021	83 c4 04	 add	 esp, 4
  00024	89 44 24 08	 mov	 DWORD PTR $T93354[esp+24], eax
  00028	33 f6		 xor	 esi, esi
  0002a	3b c6		 cmp	 eax, esi
  0002c	89 74 24 14	 mov	 DWORD PTR __$EHRec$[esp+32], esi
  00030	74 09		 je	 SHORT $L93356
  00032	8b c8		 mov	 ecx, eax
  00034	e8 00 00 00 00	 call	 ??0CPacket@@QAE@XZ	; CPacket::CPacket
  00039	8b f0		 mov	 esi, eax
$L93356:

; 164  : 	pMsg->SetID(CT_ACCOUNTINPUT_ACK)
; 165  : 		<< bRet;

  0003b	8b 44 24 1c	 mov	 eax, DWORD PTR _bRet$[esp+20]
  0003f	50		 push	 eax
  00040	68 33 60 00 00	 push	 24627			; 00006033H
  00045	8b ce		 mov	 ecx, esi
  00047	c7 44 24 1c ff
	ff ff ff	 mov	 DWORD PTR __$EHRec$[esp+40], -1
  0004f	e8 00 00 00 00	 call	 ?SetID@CPacket@@QAEAAV1@G@Z ; CPacket::SetID
  00054	8b c8		 mov	 ecx, eax
  00056	e8 00 00 00 00	 call	 ??6CPacket@@QAEAAV0@E@Z	; CPacket::operator<<

; 166  : 
; 167  : 	Say(pMsg);

  0005b	8b 17		 mov	 edx, DWORD PTR [edi]
  0005d	56		 push	 esi
  0005e	8b cf		 mov	 ecx, edi
  00060	ff 12		 call	 DWORD PTR [edx]

; 168  : }

  00062	8b 4c 24 0c	 mov	 ecx, DWORD PTR __$EHRec$[esp+24]
  00066	5f		 pop	 edi
  00067	5e		 pop	 esi
  00068	64 89 0d 00 00
	00 00		 mov	 DWORD PTR fs:__except_list, ecx
  0006f	83 c4 10	 add	 esp, 16			; 00000010H
  00072	c2 04 00	 ret	 4
_TEXT	ENDS
;	COMDAT text$x
text$x	SEGMENT
$L93357:
  00000	8b 45 f0	 mov	 eax, DWORD PTR $T93354[ebp]
  00003	50		 push	 eax
  00004	e8 00 00 00 00	 call	 ??3@YAXPAX@Z		; operator delete
  00009	59		 pop	 ecx
  0000a	c3		 ret	 0
__ehhandler$?SendCT_ACCOUNTINPUT_ACK@CTManager@@QAEXE@Z:
  0000b	b8 00 00 00 00	 mov	 eax, OFFSET FLAT:$T93359
  00010	e9 00 00 00 00	 jmp	 ___CxxFrameHandler
text$x	ENDS
?SendCT_ACCOUNTINPUT_ACK@CTManager@@QAEXE@Z ENDP	; CTManager::SendCT_ACCOUNTINPUT_ACK
PUBLIC	?SendCT_PLATFORM_ACK@CTManager@@QAEXEKKM@Z	; CTManager::SendCT_PLATFORM_ACK
EXTRN	__fltused:NEAR
EXTRN	??6CPacket@@QAEAAV0@M@Z:NEAR			; CPacket::operator<<
;	COMDAT xdata$x
xdata$x	SEGMENT
$T93376	DD	0ffffffffH
	DD	FLAT:$L93371
$T93373	DD	019930520H
	DD	01H
	DD	FLAT:$T93376
	DD	2 DUP(00H)
	DD	2 DUP(00H)
; Function compile flags: /Ogty
xdata$x	ENDS
;	COMDAT ?SendCT_PLATFORM_ACK@CTManager@@QAEXEKKM@Z
_TEXT	SEGMENT
$T93368 = -16						; size = 4
__$EHRec$ = -12						; size = 12
_bMachineID$ = 8					; size = 1
_dwCPU$ = 12						; size = 4
_dwMEM$ = 16						; size = 4
_fNET$ = 20						; size = 4
?SendCT_PLATFORM_ACK@CTManager@@QAEXEKKM@Z PROC NEAR	; CTManager::SendCT_PLATFORM_ACK, COMDAT
; _this$ = ecx

; 171  : {

  00000	6a ff		 push	 -1
  00002	68 00 00 00 00	 push	 __ehhandler$?SendCT_PLATFORM_ACK@CTManager@@QAEXEKKM@Z
  00007	64 a1 00 00 00
	00		 mov	 eax, DWORD PTR fs:__except_list
  0000d	50		 push	 eax
  0000e	64 89 25 00 00
	00 00		 mov	 DWORD PTR fs:__except_list, esp
  00015	51		 push	 ecx
  00016	56		 push	 esi
  00017	57		 push	 edi

; 172  : 	CPacket * pMsg = new CPacket();

  00018	6a 1c		 push	 28			; 0000001cH
  0001a	8b f9		 mov	 edi, ecx
  0001c	e8 00 00 00 00	 call	 ??2@YAPAXI@Z		; operator new
  00021	83 c4 04	 add	 esp, 4
  00024	89 44 24 08	 mov	 DWORD PTR $T93368[esp+24], eax
  00028	33 f6		 xor	 esi, esi
  0002a	3b c6		 cmp	 eax, esi
  0002c	89 74 24 14	 mov	 DWORD PTR __$EHRec$[esp+32], esi
  00030	74 09		 je	 SHORT $L93370
  00032	8b c8		 mov	 ecx, eax
  00034	e8 00 00 00 00	 call	 ??0CPacket@@QAE@XZ	; CPacket::CPacket
  00039	8b f0		 mov	 esi, eax
$L93370:

; 173  : 	pMsg->SetID(CT_PLATFORM_ACK)
; 174  : 		<< bMachineID
; 175  : 		<< dwCPU
; 176  : 		<< dwMEM
; 177  : 		<< fNET;

  0003b	8b 44 24 28	 mov	 eax, DWORD PTR _fNET$[esp+20]
  0003f	8b 4c 24 24	 mov	 ecx, DWORD PTR _dwMEM$[esp+20]
  00043	8b 54 24 20	 mov	 edx, DWORD PTR _dwCPU$[esp+20]
  00047	50		 push	 eax
  00048	8b 44 24 20	 mov	 eax, DWORD PTR _bMachineID$[esp+24]
  0004c	51		 push	 ecx
  0004d	52		 push	 edx
  0004e	50		 push	 eax
  0004f	68 35 60 00 00	 push	 24629			; 00006035H
  00054	8b ce		 mov	 ecx, esi
  00056	c7 44 24 28 ff
	ff ff ff	 mov	 DWORD PTR __$EHRec$[esp+52], -1
  0005e	e8 00 00 00 00	 call	 ?SetID@CPacket@@QAEAAV1@G@Z ; CPacket::SetID
  00063	8b c8		 mov	 ecx, eax
  00065	e8 00 00 00 00	 call	 ??6CPacket@@QAEAAV0@E@Z	; CPacket::operator<<
  0006a	8b c8		 mov	 ecx, eax
  0006c	e8 00 00 00 00	 call	 ??6CPacket@@QAEAAV0@K@Z	; CPacket::operator<<
  00071	8b c8		 mov	 ecx, eax
  00073	e8 00 00 00 00	 call	 ??6CPacket@@QAEAAV0@K@Z	; CPacket::operator<<
  00078	8b c8		 mov	 ecx, eax
  0007a	e8 00 00 00 00	 call	 ??6CPacket@@QAEAAV0@M@Z	; CPacket::operator<<

; 178  : 
; 179  : 	Say(pMsg);

  0007f	8b 17		 mov	 edx, DWORD PTR [edi]
  00081	56		 push	 esi
  00082	8b cf		 mov	 ecx, edi
  00084	ff 12		 call	 DWORD PTR [edx]

; 180  : }

  00086	8b 4c 24 0c	 mov	 ecx, DWORD PTR __$EHRec$[esp+24]
  0008a	5f		 pop	 edi
  0008b	5e		 pop	 esi
  0008c	64 89 0d 00 00
	00 00		 mov	 DWORD PTR fs:__except_list, ecx
  00093	83 c4 10	 add	 esp, 16			; 00000010H
  00096	c2 10 00	 ret	 16			; 00000010H
_TEXT	ENDS
;	COMDAT text$x
text$x	SEGMENT
$L93371:
  00000	8b 45 f0	 mov	 eax, DWORD PTR $T93368[ebp]
  00003	50		 push	 eax
  00004	e8 00 00 00 00	 call	 ??3@YAXPAX@Z		; operator delete
  00009	59		 pop	 ecx
  0000a	c3		 ret	 0
__ehhandler$?SendCT_PLATFORM_ACK@CTManager@@QAEXEKKM@Z:
  0000b	b8 00 00 00 00	 mov	 eax, OFFSET FLAT:$T93373
  00010	e9 00 00 00 00	 jmp	 ___CxxFrameHandler
text$x	ENDS
?SendCT_PLATFORM_ACK@CTManager@@QAEXEKKM@Z ENDP		; CTManager::SendCT_PLATFORM_ACK
PUBLIC	?SendCT_MONSPAWNFIND_ACK@CTManager@@QAEXPAVCPacket@@@Z ; CTManager::SendCT_MONSPAWNFIND_ACK
; Function compile flags: /Ogty
;	COMDAT ?SendCT_MONSPAWNFIND_ACK@CTManager@@QAEXPAVCPacket@@@Z
_TEXT	SEGMENT
_pMsg$ = 8						; size = 4
?SendCT_MONSPAWNFIND_ACK@CTManager@@QAEXPAVCPacket@@@Z PROC NEAR ; CTManager::SendCT_MONSPAWNFIND_ACK, COMDAT
; _this$ = ecx

; 184  : 	Say(pMsg);

  00000	8b 01		 mov	 eax, DWORD PTR [ecx]
  00002	ff 20		 jmp	 DWORD PTR [eax]
?SendCT_MONSPAWNFIND_ACK@CTManager@@QAEXPAVCPacket@@@Z ENDP ; CTManager::SendCT_MONSPAWNFIND_ACK
_TEXT	ENDS
PUBLIC	?SendCT_USERPROTECTED_ACK@CTManager@@QAEXE@Z	; CTManager::SendCT_USERPROTECTED_ACK
;	COMDAT xdata$x
xdata$x	SEGMENT
$T93393	DD	0ffffffffH
	DD	FLAT:$L93389
$T93391	DD	019930520H
	DD	01H
	DD	FLAT:$T93393
	DD	2 DUP(00H)
	DD	2 DUP(00H)
; Function compile flags: /Ogty
xdata$x	ENDS
;	COMDAT ?SendCT_USERPROTECTED_ACK@CTManager@@QAEXE@Z
_TEXT	SEGMENT
$T93386 = -16						; size = 4
__$EHRec$ = -12						; size = 12
_bRet$ = 8						; size = 1
?SendCT_USERPROTECTED_ACK@CTManager@@QAEXE@Z PROC NEAR	; CTManager::SendCT_USERPROTECTED_ACK, COMDAT
; _this$ = ecx

; 187  : {

  00000	6a ff		 push	 -1
  00002	68 00 00 00 00	 push	 __ehhandler$?SendCT_USERPROTECTED_ACK@CTManager@@QAEXE@Z
  00007	64 a1 00 00 00
	00		 mov	 eax, DWORD PTR fs:__except_list
  0000d	50		 push	 eax
  0000e	64 89 25 00 00
	00 00		 mov	 DWORD PTR fs:__except_list, esp
  00015	51		 push	 ecx
  00016	56		 push	 esi
  00017	57		 push	 edi

; 188  : 	CPacket * pMsg = new CPacket();

  00018	6a 1c		 push	 28			; 0000001cH
  0001a	8b f9		 mov	 edi, ecx
  0001c	e8 00 00 00 00	 call	 ??2@YAPAXI@Z		; operator new
  00021	83 c4 04	 add	 esp, 4
  00024	89 44 24 08	 mov	 DWORD PTR $T93386[esp+24], eax
  00028	33 f6		 xor	 esi, esi
  0002a	3b c6		 cmp	 eax, esi
  0002c	89 74 24 14	 mov	 DWORD PTR __$EHRec$[esp+32], esi
  00030	74 09		 je	 SHORT $L93388
  00032	8b c8		 mov	 ecx, eax
  00034	e8 00 00 00 00	 call	 ??0CPacket@@QAE@XZ	; CPacket::CPacket
  00039	8b f0		 mov	 esi, eax
$L93388:

; 189  : 	pMsg->SetID(CT_USERPROTECTED_ACK)
; 190  : 		<< bRet;

  0003b	8b 44 24 1c	 mov	 eax, DWORD PTR _bRet$[esp+20]
  0003f	50		 push	 eax
  00040	68 3b 60 00 00	 push	 24635			; 0000603bH
  00045	8b ce		 mov	 ecx, esi
  00047	c7 44 24 1c ff
	ff ff ff	 mov	 DWORD PTR __$EHRec$[esp+40], -1
  0004f	e8 00 00 00 00	 call	 ?SetID@CPacket@@QAEAAV1@G@Z ; CPacket::SetID
  00054	8b c8		 mov	 ecx, eax
  00056	e8 00 00 00 00	 call	 ??6CPacket@@QAEAAV0@E@Z	; CPacket::operator<<

; 191  : 
; 192  : 	Say(pMsg);

  0005b	8b 17		 mov	 edx, DWORD PTR [edi]
  0005d	56		 push	 esi
  0005e	8b cf		 mov	 ecx, edi
  00060	ff 12		 call	 DWORD PTR [edx]

; 193  : }

  00062	8b 4c 24 0c	 mov	 ecx, DWORD PTR __$EHRec$[esp+24]
  00066	5f		 pop	 edi
  00067	5e		 pop	 esi
  00068	64 89 0d 00 00
	00 00		 mov	 DWORD PTR fs:__except_list, ecx
  0006f	83 c4 10	 add	 esp, 16			; 00000010H
  00072	c2 04 00	 ret	 4
_TEXT	ENDS
;	COMDAT text$x
text$x	SEGMENT
$L93389:
  00000	8b 45 f0	 mov	 eax, DWORD PTR $T93386[ebp]
  00003	50		 push	 eax
  00004	e8 00 00 00 00	 call	 ??3@YAXPAX@Z		; operator delete
  00009	59		 pop	 ecx
  0000a	c3		 ret	 0
__ehhandler$?SendCT_USERPROTECTED_ACK@CTManager@@QAEXE@Z:
  0000b	b8 00 00 00 00	 mov	 eax, OFFSET FLAT:$T93391
  00010	e9 00 00 00 00	 jmp	 ___CxxFrameHandler
text$x	ENDS
?SendCT_USERPROTECTED_ACK@CTManager@@QAEXE@Z ENDP	; CTManager::SendCT_USERPROTECTED_ACK
PUBLIC	?SendCT_SERVICEAUTOSTART_ACK@CTManager@@QAEXE@Z	; CTManager::SendCT_SERVICEAUTOSTART_ACK
;	COMDAT xdata$x
xdata$x	SEGMENT
$T93407	DD	0ffffffffH
	DD	FLAT:$L93403
$T93405	DD	019930520H
	DD	01H
	DD	FLAT:$T93407
	DD	2 DUP(00H)
	DD	2 DUP(00H)
; Function compile flags: /Ogty
xdata$x	ENDS
;	COMDAT ?SendCT_SERVICEAUTOSTART_ACK@CTManager@@QAEXE@Z
_TEXT	SEGMENT
$T93400 = -16						; size = 4
__$EHRec$ = -12						; size = 12
__bAutoStart$ = 8					; size = 1
?SendCT_SERVICEAUTOSTART_ACK@CTManager@@QAEXE@Z PROC NEAR ; CTManager::SendCT_SERVICEAUTOSTART_ACK, COMDAT
; _this$ = ecx

; 198  : {

  00000	6a ff		 push	 -1
  00002	68 00 00 00 00	 push	 __ehhandler$?SendCT_SERVICEAUTOSTART_ACK@CTManager@@QAEXE@Z
  00007	64 a1 00 00 00
	00		 mov	 eax, DWORD PTR fs:__except_list
  0000d	50		 push	 eax
  0000e	64 89 25 00 00
	00 00		 mov	 DWORD PTR fs:__except_list, esp
  00015	51		 push	 ecx
  00016	56		 push	 esi
  00017	57		 push	 edi

; 199  : 	CPacket * pMsg = new CPacket();

  00018	6a 1c		 push	 28			; 0000001cH
  0001a	8b f9		 mov	 edi, ecx
  0001c	e8 00 00 00 00	 call	 ??2@YAPAXI@Z		; operator new
  00021	83 c4 04	 add	 esp, 4
  00024	89 44 24 08	 mov	 DWORD PTR $T93400[esp+24], eax
  00028	33 f6		 xor	 esi, esi
  0002a	3b c6		 cmp	 eax, esi
  0002c	89 74 24 14	 mov	 DWORD PTR __$EHRec$[esp+32], esi
  00030	74 09		 je	 SHORT $L93402
  00032	8b c8		 mov	 ecx, eax
  00034	e8 00 00 00 00	 call	 ??0CPacket@@QAE@XZ	; CPacket::CPacket
  00039	8b f0		 mov	 esi, eax
$L93402:

; 200  : 	pMsg->SetID(CT_SERVICEAUTOSTART_ACK)
; 201  : 		<< _bAutoStart;

  0003b	8b 44 24 1c	 mov	 eax, DWORD PTR __bAutoStart$[esp+20]
  0003f	50		 push	 eax
  00040	68 4b 60 00 00	 push	 24651			; 0000604bH
  00045	8b ce		 mov	 ecx, esi
  00047	c7 44 24 1c ff
	ff ff ff	 mov	 DWORD PTR __$EHRec$[esp+40], -1
  0004f	e8 00 00 00 00	 call	 ?SetID@CPacket@@QAEAAV1@G@Z ; CPacket::SetID
  00054	8b c8		 mov	 ecx, eax
  00056	e8 00 00 00 00	 call	 ??6CPacket@@QAEAAV0@E@Z	; CPacket::operator<<

; 202  : 
; 203  : 	Say(pMsg);

  0005b	8b 17		 mov	 edx, DWORD PTR [edi]
  0005d	56		 push	 esi
  0005e	8b cf		 mov	 ecx, edi
  00060	ff 12		 call	 DWORD PTR [edx]

; 204  : }

  00062	8b 4c 24 0c	 mov	 ecx, DWORD PTR __$EHRec$[esp+24]
  00066	5f		 pop	 edi
  00067	5e		 pop	 esi
  00068	64 89 0d 00 00
	00 00		 mov	 DWORD PTR fs:__except_list, ecx
  0006f	83 c4 10	 add	 esp, 16			; 00000010H
  00072	c2 04 00	 ret	 4
_TEXT	ENDS
;	COMDAT text$x
text$x	SEGMENT
$L93403:
  00000	8b 45 f0	 mov	 eax, DWORD PTR $T93400[ebp]
  00003	50		 push	 eax
  00004	e8 00 00 00 00	 call	 ??3@YAXPAX@Z		; operator delete
  00009	59		 pop	 ecx
  0000a	c3		 ret	 0
__ehhandler$?SendCT_SERVICEAUTOSTART_ACK@CTManager@@QAEXE@Z:
  0000b	b8 00 00 00 00	 mov	 eax, OFFSET FLAT:$T93405
  00010	e9 00 00 00 00	 jmp	 ___CxxFrameHandler
text$x	ENDS
?SendCT_SERVICEAUTOSTART_ACK@CTManager@@QAEXE@Z ENDP	; CTManager::SendCT_SERVICEAUTOSTART_ACK
PUBLIC	?SendCT_CHATBAN_ACK@CTManager@@QAEXE@Z		; CTManager::SendCT_CHATBAN_ACK
;	COMDAT xdata$x
xdata$x	SEGMENT
$T93421	DD	0ffffffffH
	DD	FLAT:$L93417
$T93419	DD	019930520H
	DD	01H
	DD	FLAT:$T93421
	DD	2 DUP(00H)
	DD	2 DUP(00H)
; Function compile flags: /Ogty
xdata$x	ENDS
;	COMDAT ?SendCT_CHATBAN_ACK@CTManager@@QAEXE@Z
_TEXT	SEGMENT
$T93414 = -16						; size = 4
__$EHRec$ = -12						; size = 12
__bRet$ = 8						; size = 1
?SendCT_CHATBAN_ACK@CTManager@@QAEXE@Z PROC NEAR	; CTManager::SendCT_CHATBAN_ACK, COMDAT
; _this$ = ecx

; 207  : {

  00000	6a ff		 push	 -1
  00002	68 00 00 00 00	 push	 __ehhandler$?SendCT_CHATBAN_ACK@CTManager@@QAEXE@Z
  00007	64 a1 00 00 00
	00		 mov	 eax, DWORD PTR fs:__except_list
  0000d	50		 push	 eax
  0000e	64 89 25 00 00
	00 00		 mov	 DWORD PTR fs:__except_list, esp
  00015	51		 push	 ecx
  00016	56		 push	 esi
  00017	57		 push	 edi

; 208  : 	CPacket* pMsg = new CPacket();

  00018	6a 1c		 push	 28			; 0000001cH
  0001a	8b f9		 mov	 edi, ecx
  0001c	e8 00 00 00 00	 call	 ??2@YAPAXI@Z		; operator new
  00021	83 c4 04	 add	 esp, 4
  00024	89 44 24 08	 mov	 DWORD PTR $T93414[esp+24], eax
  00028	33 f6		 xor	 esi, esi
  0002a	3b c6		 cmp	 eax, esi
  0002c	89 74 24 14	 mov	 DWORD PTR __$EHRec$[esp+32], esi
  00030	74 09		 je	 SHORT $L93416
  00032	8b c8		 mov	 ecx, eax
  00034	e8 00 00 00 00	 call	 ??0CPacket@@QAE@XZ	; CPacket::CPacket
  00039	8b f0		 mov	 esi, eax
$L93416:

; 209  : 	pMsg->SetID(CT_CHATBAN_ACK)
; 210  : 		<< _bRet;

  0003b	8b 44 24 1c	 mov	 eax, DWORD PTR __bRet$[esp+20]
  0003f	50		 push	 eax
  00040	68 4d 60 00 00	 push	 24653			; 0000604dH
  00045	8b ce		 mov	 ecx, esi
  00047	c7 44 24 1c ff
	ff ff ff	 mov	 DWORD PTR __$EHRec$[esp+40], -1
  0004f	e8 00 00 00 00	 call	 ?SetID@CPacket@@QAEAAV1@G@Z ; CPacket::SetID
  00054	8b c8		 mov	 ecx, eax
  00056	e8 00 00 00 00	 call	 ??6CPacket@@QAEAAV0@E@Z	; CPacket::operator<<

; 211  : 
; 212  : 	Say(pMsg);

  0005b	8b 17		 mov	 edx, DWORD PTR [edi]
  0005d	56		 push	 esi
  0005e	8b cf		 mov	 ecx, edi
  00060	ff 12		 call	 DWORD PTR [edx]

; 213  : }

  00062	8b 4c 24 0c	 mov	 ecx, DWORD PTR __$EHRec$[esp+24]
  00066	5f		 pop	 edi
  00067	5e		 pop	 esi
  00068	64 89 0d 00 00
	00 00		 mov	 DWORD PTR fs:__except_list, ecx
  0006f	83 c4 10	 add	 esp, 16			; 00000010H
  00072	c2 04 00	 ret	 4
_TEXT	ENDS
;	COMDAT text$x
text$x	SEGMENT
$L93417:
  00000	8b 45 f0	 mov	 eax, DWORD PTR $T93414[ebp]
  00003	50		 push	 eax
  00004	e8 00 00 00 00	 call	 ??3@YAXPAX@Z		; operator delete
  00009	59		 pop	 ecx
  0000a	c3		 ret	 0
__ehhandler$?SendCT_CHATBAN_ACK@CTManager@@QAEXE@Z:
  0000b	b8 00 00 00 00	 mov	 eax, OFFSET FLAT:$T93419
  00010	e9 00 00 00 00	 jmp	 ___CxxFrameHandler
text$x	ENDS
?SendCT_CHATBAN_ACK@CTManager@@QAEXE@Z ENDP		; CTManager::SendCT_CHATBAN_ACK
PUBLIC	?SendCT_ITEMFIND_ACK@CTManager@@QAEXPAVCPacket@@@Z ; CTManager::SendCT_ITEMFIND_ACK
; Function compile flags: /Ogty
;	COMDAT ?SendCT_ITEMFIND_ACK@CTManager@@QAEXPAVCPacket@@@Z
_TEXT	SEGMENT
_pPacket$ = 8						; size = 4
?SendCT_ITEMFIND_ACK@CTManager@@QAEXPAVCPacket@@@Z PROC NEAR ; CTManager::SendCT_ITEMFIND_ACK, COMDAT
; _this$ = ecx

; 217  : 	//CPacket* pMsg = new CPacket();
; 218  : 	//pMsg->Copy(pPacket);
; 219  : 	//Say(pMsg);
; 220  : 
; 221  : 	Say(pPacket);

  00000	8b 01		 mov	 eax, DWORD PTR [ecx]
  00002	ff 20		 jmp	 DWORD PTR [eax]
?SendCT_ITEMFIND_ACK@CTManager@@QAEXPAVCPacket@@@Z ENDP	; CTManager::SendCT_ITEMFIND_ACK
_TEXT	ENDS
PUBLIC	?SendCT_ITEMSTATE_ACK@CTManager@@QAEXPAVCPacket@@@Z ; CTManager::SendCT_ITEMSTATE_ACK
EXTRN	?Copy@CPacket@@QAEXPAV1@@Z:NEAR			; CPacket::Copy
;	COMDAT xdata$x
xdata$x	SEGMENT
$T93438	DD	0ffffffffH
	DD	FLAT:$L93434
$T93436	DD	019930520H
	DD	01H
	DD	FLAT:$T93438
	DD	2 DUP(00H)
	DD	2 DUP(00H)
; Function compile flags: /Ogty
xdata$x	ENDS
;	COMDAT ?SendCT_ITEMSTATE_ACK@CTManager@@QAEXPAVCPacket@@@Z
_TEXT	SEGMENT
$T93431 = -16						; size = 4
__$EHRec$ = -12						; size = 12
_pPacket$ = 8						; size = 4
?SendCT_ITEMSTATE_ACK@CTManager@@QAEXPAVCPacket@@@Z PROC NEAR ; CTManager::SendCT_ITEMSTATE_ACK, COMDAT
; _this$ = ecx

; 225  : {

  00000	6a ff		 push	 -1
  00002	68 00 00 00 00	 push	 __ehhandler$?SendCT_ITEMSTATE_ACK@CTManager@@QAEXPAVCPacket@@@Z
  00007	64 a1 00 00 00
	00		 mov	 eax, DWORD PTR fs:__except_list
  0000d	50		 push	 eax
  0000e	64 89 25 00 00
	00 00		 mov	 DWORD PTR fs:__except_list, esp
  00015	51		 push	 ecx
  00016	56		 push	 esi
  00017	57		 push	 edi

; 226  : 	CPacket* pMsg = new CPacket();

  00018	6a 1c		 push	 28			; 0000001cH
  0001a	8b f9		 mov	 edi, ecx
  0001c	e8 00 00 00 00	 call	 ??2@YAPAXI@Z		; operator new
  00021	83 c4 04	 add	 esp, 4
  00024	89 44 24 08	 mov	 DWORD PTR $T93431[esp+24], eax
  00028	33 f6		 xor	 esi, esi
  0002a	3b c6		 cmp	 eax, esi
  0002c	89 74 24 14	 mov	 DWORD PTR __$EHRec$[esp+32], esi
  00030	74 09		 je	 SHORT $L93433
  00032	8b c8		 mov	 ecx, eax
  00034	e8 00 00 00 00	 call	 ??0CPacket@@QAE@XZ	; CPacket::CPacket
  00039	8b f0		 mov	 esi, eax
$L93433:

; 227  : 	pMsg->Copy(pPacket);

  0003b	8b 44 24 1c	 mov	 eax, DWORD PTR _pPacket$[esp+20]
  0003f	50		 push	 eax
  00040	8b ce		 mov	 ecx, esi
  00042	c7 44 24 18 ff
	ff ff ff	 mov	 DWORD PTR __$EHRec$[esp+36], -1
  0004a	e8 00 00 00 00	 call	 ?Copy@CPacket@@QAEXPAV1@@Z ; CPacket::Copy

; 228  : 	pMsg->SetID(CT_ITEMSTATE_ACK);

  0004f	68 53 60 00 00	 push	 24659			; 00006053H
  00054	8b ce		 mov	 ecx, esi
  00056	e8 00 00 00 00	 call	 ?SetID@CPacket@@QAEAAV1@G@Z ; CPacket::SetID

; 229  : 		
; 230  : 	Say(pMsg);

  0005b	8b 17		 mov	 edx, DWORD PTR [edi]
  0005d	56		 push	 esi
  0005e	8b cf		 mov	 ecx, edi
  00060	ff 12		 call	 DWORD PTR [edx]

; 231  : }

  00062	8b 4c 24 0c	 mov	 ecx, DWORD PTR __$EHRec$[esp+24]
  00066	5f		 pop	 edi
  00067	5e		 pop	 esi
  00068	64 89 0d 00 00
	00 00		 mov	 DWORD PTR fs:__except_list, ecx
  0006f	83 c4 10	 add	 esp, 16			; 00000010H
  00072	c2 04 00	 ret	 4
_TEXT	ENDS
;	COMDAT text$x
text$x	SEGMENT
$L93434:
  00000	8b 45 f0	 mov	 eax, DWORD PTR $T93431[ebp]
  00003	50		 push	 eax
  00004	e8 00 00 00 00	 call	 ??3@YAXPAX@Z		; operator delete
  00009	59		 pop	 ecx
  0000a	c3		 ret	 0
__ehhandler$?SendCT_ITEMSTATE_ACK@CTManager@@QAEXPAVCPacket@@@Z:
  0000b	b8 00 00 00 00	 mov	 eax, OFFSET FLAT:$T93436
  00010	e9 00 00 00 00	 jmp	 ___CxxFrameHandler
text$x	ENDS
?SendCT_ITEMSTATE_ACK@CTManager@@QAEXPAVCPacket@@@Z ENDP ; CTManager::SendCT_ITEMSTATE_ACK
PUBLIC	?SendCT_CASTLEINFO_ACK@CTManager@@QAEXPAVCPacket@@@Z ; CTManager::SendCT_CASTLEINFO_ACK
;	COMDAT xdata$x
xdata$x	SEGMENT
$T93452	DD	0ffffffffH
	DD	FLAT:$L93448
$T93450	DD	019930520H
	DD	01H
	DD	FLAT:$T93452
	DD	2 DUP(00H)
	DD	2 DUP(00H)
; Function compile flags: /Ogty
xdata$x	ENDS
;	COMDAT ?SendCT_CASTLEINFO_ACK@CTManager@@QAEXPAVCPacket@@@Z
_TEXT	SEGMENT
$T93445 = -16						; size = 4
__$EHRec$ = -12						; size = 12
_pPacket$ = 8						; size = 4
?SendCT_CASTLEINFO_ACK@CTManager@@QAEXPAVCPacket@@@Z PROC NEAR ; CTManager::SendCT_CASTLEINFO_ACK, COMDAT
; _this$ = ecx

; 255  : {

  00000	6a ff		 push	 -1
  00002	68 00 00 00 00	 push	 __ehhandler$?SendCT_CASTLEINFO_ACK@CTManager@@QAEXPAVCPacket@@@Z
  00007	64 a1 00 00 00
	00		 mov	 eax, DWORD PTR fs:__except_list
  0000d	50		 push	 eax
  0000e	64 89 25 00 00
	00 00		 mov	 DWORD PTR fs:__except_list, esp
  00015	51		 push	 ecx
  00016	56		 push	 esi
  00017	57		 push	 edi

; 256  : 	CPacket* pMsg = new CPacket();

  00018	6a 1c		 push	 28			; 0000001cH
  0001a	8b f9		 mov	 edi, ecx
  0001c	e8 00 00 00 00	 call	 ??2@YAPAXI@Z		; operator new
  00021	83 c4 04	 add	 esp, 4
  00024	89 44 24 08	 mov	 DWORD PTR $T93445[esp+24], eax
  00028	33 f6		 xor	 esi, esi
  0002a	3b c6		 cmp	 eax, esi
  0002c	89 74 24 14	 mov	 DWORD PTR __$EHRec$[esp+32], esi
  00030	74 09		 je	 SHORT $L93447
  00032	8b c8		 mov	 ecx, eax
  00034	e8 00 00 00 00	 call	 ??0CPacket@@QAE@XZ	; CPacket::CPacket
  00039	8b f0		 mov	 esi, eax
$L93447:

; 257  : 	pMsg->Copy(pPacket);

  0003b	8b 44 24 1c	 mov	 eax, DWORD PTR _pPacket$[esp+20]
  0003f	50		 push	 eax
  00040	8b ce		 mov	 ecx, esi
  00042	c7 44 24 18 ff
	ff ff ff	 mov	 DWORD PTR __$EHRec$[esp+36], -1
  0004a	e8 00 00 00 00	 call	 ?Copy@CPacket@@QAEXPAV1@@Z ; CPacket::Copy

; 258  : 	pMsg->SetID(CT_CASTLEINFO_ACK);

  0004f	68 5a 60 00 00	 push	 24666			; 0000605aH
  00054	8b ce		 mov	 ecx, esi
  00056	e8 00 00 00 00	 call	 ?SetID@CPacket@@QAEAAV1@G@Z ; CPacket::SetID

; 259  : 
; 260  : 	Say(pMsg);

  0005b	8b 17		 mov	 edx, DWORD PTR [edi]
  0005d	56		 push	 esi
  0005e	8b cf		 mov	 ecx, edi
  00060	ff 12		 call	 DWORD PTR [edx]

; 261  : }

  00062	8b 4c 24 0c	 mov	 ecx, DWORD PTR __$EHRec$[esp+24]
  00066	5f		 pop	 edi
  00067	5e		 pop	 esi
  00068	64 89 0d 00 00
	00 00		 mov	 DWORD PTR fs:__except_list, ecx
  0006f	83 c4 10	 add	 esp, 16			; 00000010H
  00072	c2 04 00	 ret	 4
_TEXT	ENDS
;	COMDAT text$x
text$x	SEGMENT
$L93448:
  00000	8b 45 f0	 mov	 eax, DWORD PTR $T93445[ebp]
  00003	50		 push	 eax
  00004	e8 00 00 00 00	 call	 ??3@YAXPAX@Z		; operator delete
  00009	59		 pop	 ecx
  0000a	c3		 ret	 0
__ehhandler$?SendCT_CASTLEINFO_ACK@CTManager@@QAEXPAVCPacket@@@Z:
  0000b	b8 00 00 00 00	 mov	 eax, OFFSET FLAT:$T93450
  00010	e9 00 00 00 00	 jmp	 ___CxxFrameHandler
text$x	ENDS
?SendCT_CASTLEINFO_ACK@CTManager@@QAEXPAVCPacket@@@Z ENDP ; CTManager::SendCT_CASTLEINFO_ACK
PUBLIC	?SendCT_CASTLEGUILDCHG_ACK@CTManager@@QAEXPAVCPacket@@@Z ; CTManager::SendCT_CASTLEGUILDCHG_ACK
;	COMDAT xdata$x
xdata$x	SEGMENT
$T93466	DD	0ffffffffH
	DD	FLAT:$L93462
$T93464	DD	019930520H
	DD	01H
	DD	FLAT:$T93466
	DD	2 DUP(00H)
	DD	2 DUP(00H)
; Function compile flags: /Ogty
xdata$x	ENDS
;	COMDAT ?SendCT_CASTLEGUILDCHG_ACK@CTManager@@QAEXPAVCPacket@@@Z
_TEXT	SEGMENT
$T93459 = -16						; size = 4
__$EHRec$ = -12						; size = 12
_pPacket$ = 8						; size = 4
?SendCT_CASTLEGUILDCHG_ACK@CTManager@@QAEXPAVCPacket@@@Z PROC NEAR ; CTManager::SendCT_CASTLEGUILDCHG_ACK, COMDAT
; _this$ = ecx

; 264  : {

  00000	6a ff		 push	 -1
  00002	68 00 00 00 00	 push	 __ehhandler$?SendCT_CASTLEGUILDCHG_ACK@CTManager@@QAEXPAVCPacket@@@Z
  00007	64 a1 00 00 00
	00		 mov	 eax, DWORD PTR fs:__except_list
  0000d	50		 push	 eax
  0000e	64 89 25 00 00
	00 00		 mov	 DWORD PTR fs:__except_list, esp
  00015	51		 push	 ecx
  00016	56		 push	 esi
  00017	57		 push	 edi

; 265  : 	CPacket* pMsg = new CPacket();

  00018	6a 1c		 push	 28			; 0000001cH
  0001a	8b f9		 mov	 edi, ecx
  0001c	e8 00 00 00 00	 call	 ??2@YAPAXI@Z		; operator new
  00021	83 c4 04	 add	 esp, 4
  00024	89 44 24 08	 mov	 DWORD PTR $T93459[esp+24], eax
  00028	33 f6		 xor	 esi, esi
  0002a	3b c6		 cmp	 eax, esi
  0002c	89 74 24 14	 mov	 DWORD PTR __$EHRec$[esp+32], esi
  00030	74 09		 je	 SHORT $L93461
  00032	8b c8		 mov	 ecx, eax
  00034	e8 00 00 00 00	 call	 ??0CPacket@@QAE@XZ	; CPacket::CPacket
  00039	8b f0		 mov	 esi, eax
$L93461:

; 266  : 	pMsg->Copy(pPacket);

  0003b	8b 44 24 1c	 mov	 eax, DWORD PTR _pPacket$[esp+20]
  0003f	50		 push	 eax
  00040	8b ce		 mov	 ecx, esi
  00042	c7 44 24 18 ff
	ff ff ff	 mov	 DWORD PTR __$EHRec$[esp+36], -1
  0004a	e8 00 00 00 00	 call	 ?Copy@CPacket@@QAEXPAV1@@Z ; CPacket::Copy

; 267  : 	pMsg->SetID(CT_CASTLEGUILDCHG_ACK);		

  0004f	68 5c 60 00 00	 push	 24668			; 0000605cH
  00054	8b ce		 mov	 ecx, esi
  00056	e8 00 00 00 00	 call	 ?SetID@CPacket@@QAEAAV1@G@Z ; CPacket::SetID

; 268  : 
; 269  : 	Say(pMsg);

  0005b	8b 17		 mov	 edx, DWORD PTR [edi]
  0005d	56		 push	 esi
  0005e	8b cf		 mov	 ecx, edi
  00060	ff 12		 call	 DWORD PTR [edx]

; 270  : }

  00062	8b 4c 24 0c	 mov	 ecx, DWORD PTR __$EHRec$[esp+24]
  00066	5f		 pop	 edi
  00067	5e		 pop	 esi
  00068	64 89 0d 00 00
	00 00		 mov	 DWORD PTR fs:__except_list, ecx
  0006f	83 c4 10	 add	 esp, 16			; 00000010H
  00072	c2 04 00	 ret	 4
_TEXT	ENDS
;	COMDAT text$x
text$x	SEGMENT
$L93462:
  00000	8b 45 f0	 mov	 eax, DWORD PTR $T93459[ebp]
  00003	50		 push	 eax
  00004	e8 00 00 00 00	 call	 ??3@YAXPAX@Z		; operator delete
  00009	59		 pop	 ecx
  0000a	c3		 ret	 0
__ehhandler$?SendCT_CASTLEGUILDCHG_ACK@CTManager@@QAEXPAVCPacket@@@Z:
  0000b	b8 00 00 00 00	 mov	 eax, OFFSET FLAT:$T93464
  00010	e9 00 00 00 00	 jmp	 ___CxxFrameHandler
text$x	ENDS
?SendCT_CASTLEGUILDCHG_ACK@CTManager@@QAEXPAVCPacket@@@Z ENDP ; CTManager::SendCT_CASTLEGUILDCHG_ACK
PUBLIC	?SendCT_EVENTQUARTERLIST_ACK@CTManager@@QAEXPAVCPacket@@@Z ; CTManager::SendCT_EVENTQUARTERLIST_ACK
;	COMDAT xdata$x
xdata$x	SEGMENT
$T93480	DD	0ffffffffH
	DD	FLAT:$L93476
$T93478	DD	019930520H
	DD	01H
	DD	FLAT:$T93480
	DD	2 DUP(00H)
	DD	2 DUP(00H)
; Function compile flags: /Ogty
xdata$x	ENDS
;	COMDAT ?SendCT_EVENTQUARTERLIST_ACK@CTManager@@QAEXPAVCPacket@@@Z
_TEXT	SEGMENT
$T93473 = -16						; size = 4
__$EHRec$ = -12						; size = 12
_pPacket$ = 8						; size = 4
?SendCT_EVENTQUARTERLIST_ACK@CTManager@@QAEXPAVCPacket@@@Z PROC NEAR ; CTManager::SendCT_EVENTQUARTERLIST_ACK, COMDAT
; _this$ = ecx

; 314  : {

  00000	6a ff		 push	 -1
  00002	68 00 00 00 00	 push	 __ehhandler$?SendCT_EVENTQUARTERLIST_ACK@CTManager@@QAEXPAVCPacket@@@Z
  00007	64 a1 00 00 00
	00		 mov	 eax, DWORD PTR fs:__except_list
  0000d	50		 push	 eax
  0000e	64 89 25 00 00
	00 00		 mov	 DWORD PTR fs:__except_list, esp
  00015	51		 push	 ecx
  00016	56		 push	 esi
  00017	57		 push	 edi

; 315  : 	CPacket* pMsg = new CPacket();

  00018	6a 1c		 push	 28			; 0000001cH
  0001a	8b f9		 mov	 edi, ecx
  0001c	e8 00 00 00 00	 call	 ??2@YAPAXI@Z		; operator new
  00021	83 c4 04	 add	 esp, 4
  00024	89 44 24 08	 mov	 DWORD PTR $T93473[esp+24], eax
  00028	33 f6		 xor	 esi, esi
  0002a	3b c6		 cmp	 eax, esi
  0002c	89 74 24 14	 mov	 DWORD PTR __$EHRec$[esp+32], esi
  00030	74 09		 je	 SHORT $L93475
  00032	8b c8		 mov	 ecx, eax
  00034	e8 00 00 00 00	 call	 ??0CPacket@@QAE@XZ	; CPacket::CPacket
  00039	8b f0		 mov	 esi, eax
$L93475:

; 316  : 	pMsg->Copy(pPacket);

  0003b	8b 44 24 1c	 mov	 eax, DWORD PTR _pPacket$[esp+20]
  0003f	50		 push	 eax
  00040	8b ce		 mov	 ecx, esi
  00042	c7 44 24 18 ff
	ff ff ff	 mov	 DWORD PTR __$EHRec$[esp+36], -1
  0004a	e8 00 00 00 00	 call	 ?Copy@CPacket@@QAEXPAV1@@Z ; CPacket::Copy

; 317  : 	pMsg->SetID(CT_EVENTQUARTERLIST_ACK);

  0004f	68 70 60 00 00	 push	 24688			; 00006070H
  00054	8b ce		 mov	 ecx, esi
  00056	e8 00 00 00 00	 call	 ?SetID@CPacket@@QAEAAV1@G@Z ; CPacket::SetID

; 318  : 
; 319  : 	Say(pMsg);

  0005b	8b 17		 mov	 edx, DWORD PTR [edi]
  0005d	56		 push	 esi
  0005e	8b cf		 mov	 ecx, edi
  00060	ff 12		 call	 DWORD PTR [edx]

; 320  : }

  00062	8b 4c 24 0c	 mov	 ecx, DWORD PTR __$EHRec$[esp+24]
  00066	5f		 pop	 edi
  00067	5e		 pop	 esi
  00068	64 89 0d 00 00
	00 00		 mov	 DWORD PTR fs:__except_list, ecx
  0006f	83 c4 10	 add	 esp, 16			; 00000010H
  00072	c2 04 00	 ret	 4
_TEXT	ENDS
;	COMDAT text$x
text$x	SEGMENT
$L93476:
  00000	8b 45 f0	 mov	 eax, DWORD PTR $T93473[ebp]
  00003	50		 push	 eax
  00004	e8 00 00 00 00	 call	 ??3@YAXPAX@Z		; operator delete
  00009	59		 pop	 ecx
  0000a	c3		 ret	 0
__ehhandler$?SendCT_EVENTQUARTERLIST_ACK@CTManager@@QAEXPAVCPacket@@@Z:
  0000b	b8 00 00 00 00	 mov	 eax, OFFSET FLAT:$T93478
  00010	e9 00 00 00 00	 jmp	 ___CxxFrameHandler
text$x	ENDS
?SendCT_EVENTQUARTERLIST_ACK@CTManager@@QAEXPAVCPacket@@@Z ENDP ; CTManager::SendCT_EVENTQUARTERLIST_ACK
PUBLIC	?SendCT_EVENTQUARTERUPDATE_ACK@CTManager@@QAEXPAVCPacket@@@Z ; CTManager::SendCT_EVENTQUARTERUPDATE_ACK
;	COMDAT xdata$x
xdata$x	SEGMENT
$T93494	DD	0ffffffffH
	DD	FLAT:$L93490
$T93492	DD	019930520H
	DD	01H
	DD	FLAT:$T93494
	DD	2 DUP(00H)
	DD	2 DUP(00H)
; Function compile flags: /Ogty
xdata$x	ENDS
;	COMDAT ?SendCT_EVENTQUARTERUPDATE_ACK@CTManager@@QAEXPAVCPacket@@@Z
_TEXT	SEGMENT
$T93487 = -16						; size = 4
__$EHRec$ = -12						; size = 12
_pPacket$ = 8						; size = 4
?SendCT_EVENTQUARTERUPDATE_ACK@CTManager@@QAEXPAVCPacket@@@Z PROC NEAR ; CTManager::SendCT_EVENTQUARTERUPDATE_ACK, COMDAT
; _this$ = ecx

; 323  : {

  00000	6a ff		 push	 -1
  00002	68 00 00 00 00	 push	 __ehhandler$?SendCT_EVENTQUARTERUPDATE_ACK@CTManager@@QAEXPAVCPacket@@@Z
  00007	64 a1 00 00 00
	00		 mov	 eax, DWORD PTR fs:__except_list
  0000d	50		 push	 eax
  0000e	64 89 25 00 00
	00 00		 mov	 DWORD PTR fs:__except_list, esp
  00015	51		 push	 ecx
  00016	56		 push	 esi
  00017	57		 push	 edi

; 324  : 	CPacket* pMsg = new CPacket();

  00018	6a 1c		 push	 28			; 0000001cH
  0001a	8b f9		 mov	 edi, ecx
  0001c	e8 00 00 00 00	 call	 ??2@YAPAXI@Z		; operator new
  00021	83 c4 04	 add	 esp, 4
  00024	89 44 24 08	 mov	 DWORD PTR $T93487[esp+24], eax
  00028	33 f6		 xor	 esi, esi
  0002a	3b c6		 cmp	 eax, esi
  0002c	89 74 24 14	 mov	 DWORD PTR __$EHRec$[esp+32], esi
  00030	74 09		 je	 SHORT $L93489
  00032	8b c8		 mov	 ecx, eax
  00034	e8 00 00 00 00	 call	 ??0CPacket@@QAE@XZ	; CPacket::CPacket
  00039	8b f0		 mov	 esi, eax
$L93489:

; 325  : 	pMsg->Copy(pPacket);

  0003b	8b 44 24 1c	 mov	 eax, DWORD PTR _pPacket$[esp+20]
  0003f	50		 push	 eax
  00040	8b ce		 mov	 ecx, esi
  00042	c7 44 24 18 ff
	ff ff ff	 mov	 DWORD PTR __$EHRec$[esp+36], -1
  0004a	e8 00 00 00 00	 call	 ?Copy@CPacket@@QAEXPAV1@@Z ; CPacket::Copy

; 326  : 	pMsg->SetID(CT_EVENTQUARTERUPDATE_ACK);

  0004f	68 6e 60 00 00	 push	 24686			; 0000606eH
  00054	8b ce		 mov	 ecx, esi
  00056	e8 00 00 00 00	 call	 ?SetID@CPacket@@QAEAAV1@G@Z ; CPacket::SetID

; 327  : 
; 328  : 	Say(pMsg);

  0005b	8b 17		 mov	 edx, DWORD PTR [edi]
  0005d	56		 push	 esi
  0005e	8b cf		 mov	 ecx, edi
  00060	ff 12		 call	 DWORD PTR [edx]

; 329  : }

  00062	8b 4c 24 0c	 mov	 ecx, DWORD PTR __$EHRec$[esp+24]
  00066	5f		 pop	 edi
  00067	5e		 pop	 esi
  00068	64 89 0d 00 00
	00 00		 mov	 DWORD PTR fs:__except_list, ecx
  0006f	83 c4 10	 add	 esp, 16			; 00000010H
  00072	c2 04 00	 ret	 4
_TEXT	ENDS
;	COMDAT text$x
text$x	SEGMENT
$L93490:
  00000	8b 45 f0	 mov	 eax, DWORD PTR $T93487[ebp]
  00003	50		 push	 eax
  00004	e8 00 00 00 00	 call	 ??3@YAXPAX@Z		; operator delete
  00009	59		 pop	 ecx
  0000a	c3		 ret	 0
__ehhandler$?SendCT_EVENTQUARTERUPDATE_ACK@CTManager@@QAEXPAVCPacket@@@Z:
  0000b	b8 00 00 00 00	 mov	 eax, OFFSET FLAT:$T93492
  00010	e9 00 00 00 00	 jmp	 ___CxxFrameHandler
text$x	ENDS
?SendCT_EVENTQUARTERUPDATE_ACK@CTManager@@QAEXPAVCPacket@@@Z ENDP ; CTManager::SendCT_EVENTQUARTERUPDATE_ACK
PUBLIC	?SendCT_TOURNAMENTEVENT_ACK@CTManager@@QAEXPAVCPacket@@@Z ; CTManager::SendCT_TOURNAMENTEVENT_ACK
;	COMDAT xdata$x
xdata$x	SEGMENT
$T93508	DD	0ffffffffH
	DD	FLAT:$L93504
$T93506	DD	019930520H
	DD	01H
	DD	FLAT:$T93508
	DD	2 DUP(00H)
	DD	2 DUP(00H)
; Function compile flags: /Ogty
xdata$x	ENDS
;	COMDAT ?SendCT_TOURNAMENTEVENT_ACK@CTManager@@QAEXPAVCPacket@@@Z
_TEXT	SEGMENT
$T93501 = -16						; size = 4
__$EHRec$ = -12						; size = 12
_pPacket$ = 8						; size = 4
?SendCT_TOURNAMENTEVENT_ACK@CTManager@@QAEXPAVCPacket@@@Z PROC NEAR ; CTManager::SendCT_TOURNAMENTEVENT_ACK, COMDAT
; _this$ = ecx

; 332  : {

  00000	6a ff		 push	 -1
  00002	68 00 00 00 00	 push	 __ehhandler$?SendCT_TOURNAMENTEVENT_ACK@CTManager@@QAEXPAVCPacket@@@Z
  00007	64 a1 00 00 00
	00		 mov	 eax, DWORD PTR fs:__except_list
  0000d	50		 push	 eax
  0000e	64 89 25 00 00
	00 00		 mov	 DWORD PTR fs:__except_list, esp
  00015	51		 push	 ecx
  00016	56		 push	 esi
  00017	57		 push	 edi

; 333  : 	CPacket* pMsg = new CPacket();

  00018	6a 1c		 push	 28			; 0000001cH
  0001a	8b f9		 mov	 edi, ecx
  0001c	e8 00 00 00 00	 call	 ??2@YAPAXI@Z		; operator new
  00021	83 c4 04	 add	 esp, 4
  00024	89 44 24 08	 mov	 DWORD PTR $T93501[esp+24], eax
  00028	33 f6		 xor	 esi, esi
  0002a	3b c6		 cmp	 eax, esi
  0002c	89 74 24 14	 mov	 DWORD PTR __$EHRec$[esp+32], esi
  00030	74 09		 je	 SHORT $L93503
  00032	8b c8		 mov	 ecx, eax
  00034	e8 00 00 00 00	 call	 ??0CPacket@@QAE@XZ	; CPacket::CPacket
  00039	8b f0		 mov	 esi, eax
$L93503:

; 334  : 	pMsg->Copy(pPacket);

  0003b	8b 44 24 1c	 mov	 eax, DWORD PTR _pPacket$[esp+20]
  0003f	50		 push	 eax
  00040	8b ce		 mov	 ecx, esi
  00042	c7 44 24 18 ff
	ff ff ff	 mov	 DWORD PTR __$EHRec$[esp+36], -1
  0004a	e8 00 00 00 00	 call	 ?Copy@CPacket@@QAEXPAV1@@Z ; CPacket::Copy

; 335  : 	pMsg->SetID(CT_TOURNAMENTEVENT_ACK);

  0004f	68 72 60 00 00	 push	 24690			; 00006072H
  00054	8b ce		 mov	 ecx, esi
  00056	e8 00 00 00 00	 call	 ?SetID@CPacket@@QAEAAV1@G@Z ; CPacket::SetID

; 336  : 
; 337  : 	Say(pMsg);	

  0005b	8b 17		 mov	 edx, DWORD PTR [edi]
  0005d	56		 push	 esi
  0005e	8b cf		 mov	 ecx, edi
  00060	ff 12		 call	 DWORD PTR [edx]

; 338  : }

  00062	8b 4c 24 0c	 mov	 ecx, DWORD PTR __$EHRec$[esp+24]
  00066	5f		 pop	 edi
  00067	5e		 pop	 esi
  00068	64 89 0d 00 00
	00 00		 mov	 DWORD PTR fs:__except_list, ecx
  0006f	83 c4 10	 add	 esp, 16			; 00000010H
  00072	c2 04 00	 ret	 4
_TEXT	ENDS
;	COMDAT text$x
text$x	SEGMENT
$L93504:
  00000	8b 45 f0	 mov	 eax, DWORD PTR $T93501[ebp]
  00003	50		 push	 eax
  00004	e8 00 00 00 00	 call	 ??3@YAXPAX@Z		; operator delete
  00009	59		 pop	 ecx
  0000a	c3		 ret	 0
__ehhandler$?SendCT_TOURNAMENTEVENT_ACK@CTManager@@QAEXPAVCPacket@@@Z:
  0000b	b8 00 00 00 00	 mov	 eax, OFFSET FLAT:$T93506
  00010	e9 00 00 00 00	 jmp	 ___CxxFrameHandler
text$x	ENDS
?SendCT_TOURNAMENTEVENT_ACK@CTManager@@QAEXPAVCPacket@@@Z ENDP ; CTManager::SendCT_TOURNAMENTEVENT_ACK
PUBLIC	?SendCT_RPSGAMEDATA_ACK@CTManager@@QAEXPAVCPacket@@@Z ; CTManager::SendCT_RPSGAMEDATA_ACK
;	COMDAT xdata$x
xdata$x	SEGMENT
$T93522	DD	0ffffffffH
	DD	FLAT:$L93518
$T93520	DD	019930520H
	DD	01H
	DD	FLAT:$T93522
	DD	2 DUP(00H)
	DD	2 DUP(00H)
; Function compile flags: /Ogty
xdata$x	ENDS
;	COMDAT ?SendCT_RPSGAMEDATA_ACK@CTManager@@QAEXPAVCPacket@@@Z
_TEXT	SEGMENT
$T93515 = -16						; size = 4
__$EHRec$ = -12						; size = 12
_pPacket$ = 8						; size = 4
?SendCT_RPSGAMEDATA_ACK@CTManager@@QAEXPAVCPacket@@@Z PROC NEAR ; CTManager::SendCT_RPSGAMEDATA_ACK, COMDAT
; _this$ = ecx

; 340  : {

  00000	6a ff		 push	 -1
  00002	68 00 00 00 00	 push	 __ehhandler$?SendCT_RPSGAMEDATA_ACK@CTManager@@QAEXPAVCPacket@@@Z
  00007	64 a1 00 00 00
	00		 mov	 eax, DWORD PTR fs:__except_list
  0000d	50		 push	 eax
  0000e	64 89 25 00 00
	00 00		 mov	 DWORD PTR fs:__except_list, esp
  00015	51		 push	 ecx
  00016	56		 push	 esi
  00017	57		 push	 edi

; 341  : 	CPacket* pMsg = new CPacket();

  00018	6a 1c		 push	 28			; 0000001cH
  0001a	8b f9		 mov	 edi, ecx
  0001c	e8 00 00 00 00	 call	 ??2@YAPAXI@Z		; operator new
  00021	83 c4 04	 add	 esp, 4
  00024	89 44 24 08	 mov	 DWORD PTR $T93515[esp+24], eax
  00028	33 f6		 xor	 esi, esi
  0002a	3b c6		 cmp	 eax, esi
  0002c	89 74 24 14	 mov	 DWORD PTR __$EHRec$[esp+32], esi
  00030	74 09		 je	 SHORT $L93517
  00032	8b c8		 mov	 ecx, eax
  00034	e8 00 00 00 00	 call	 ??0CPacket@@QAE@XZ	; CPacket::CPacket
  00039	8b f0		 mov	 esi, eax
$L93517:

; 342  : 	pMsg->Copy(pPacket);

  0003b	8b 44 24 1c	 mov	 eax, DWORD PTR _pPacket$[esp+20]
  0003f	50		 push	 eax
  00040	8b ce		 mov	 ecx, esi
  00042	c7 44 24 18 ff
	ff ff ff	 mov	 DWORD PTR __$EHRec$[esp+36], -1
  0004a	e8 00 00 00 00	 call	 ?Copy@CPacket@@QAEXPAV1@@Z ; CPacket::Copy

; 343  : 	pMsg->SetID(CT_RPSGAMEDATA_ACK);

  0004f	68 75 60 00 00	 push	 24693			; 00006075H
  00054	8b ce		 mov	 ecx, esi
  00056	e8 00 00 00 00	 call	 ?SetID@CPacket@@QAEAAV1@G@Z ; CPacket::SetID

; 344  : 
; 345  : 	Say(pMsg);	

  0005b	8b 17		 mov	 edx, DWORD PTR [edi]
  0005d	56		 push	 esi
  0005e	8b cf		 mov	 ecx, edi
  00060	ff 12		 call	 DWORD PTR [edx]

; 346  : }

  00062	8b 4c 24 0c	 mov	 ecx, DWORD PTR __$EHRec$[esp+24]
  00066	5f		 pop	 edi
  00067	5e		 pop	 esi
  00068	64 89 0d 00 00
	00 00		 mov	 DWORD PTR fs:__except_list, ecx
  0006f	83 c4 10	 add	 esp, 16			; 00000010H
  00072	c2 04 00	 ret	 4
_TEXT	ENDS
;	COMDAT text$x
text$x	SEGMENT
$L93518:
  00000	8b 45 f0	 mov	 eax, DWORD PTR $T93515[ebp]
  00003	50		 push	 eax
  00004	e8 00 00 00 00	 call	 ??3@YAXPAX@Z		; operator delete
  00009	59		 pop	 ecx
  0000a	c3		 ret	 0
__ehhandler$?SendCT_RPSGAMEDATA_ACK@CTManager@@QAEXPAVCPacket@@@Z:
  0000b	b8 00 00 00 00	 mov	 eax, OFFSET FLAT:$T93520
  00010	e9 00 00 00 00	 jmp	 ___CxxFrameHandler
text$x	ENDS
?SendCT_RPSGAMEDATA_ACK@CTManager@@QAEXPAVCPacket@@@Z ENDP ; CTManager::SendCT_RPSGAMEDATA_ACK
PUBLIC	?size@?$_Tree@V?$_Tmap_traits@EPAUtagTSVRTYPE@@U?$less@E@std@@V?$allocator@U?$pair@$$CBEPAUtagTSVRTYPE@@@std@@@3@$0A@@std@@@std@@QBEIXZ ; std::_Tree<std::_Tmap_traits<unsigned char,tagTSVRTYPE *,std::less<unsigned char>,std::allocator<std::pair<unsigned char const ,tagTSVRTYPE *> >,0> >::size
; Function compile flags: /Ogty
; File c:\program files (x86)\microsoft visual studio .net 2003\vc7\include\xtree
;	COMDAT ?size@?$_Tree@V?$_Tmap_traits@EPAUtagTSVRTYPE@@U?$less@E@std@@V?$allocator@U?$pair@$$CBEPAUtagTSVRTYPE@@@std@@@3@$0A@@std@@@std@@QBEIXZ
_TEXT	SEGMENT
?size@?$_Tree@V?$_Tmap_traits@EPAUtagTSVRTYPE@@U?$less@E@std@@V?$allocator@U?$pair@$$CBEPAUtagTSVRTYPE@@@std@@@3@$0A@@std@@@std@@QBEIXZ PROC NEAR ; std::_Tree<std::_Tmap_traits<unsigned char,tagTSVRTYPE *,std::less<unsigned char>,std::allocator<std::pair<unsigned char const ,tagTSVRTYPE *> >,0> >::size, COMDAT
; _this$ = ecx

; 448  : 		return (_Mysize);

  00000	8b 41 08	 mov	 eax, DWORD PTR [ecx+8]

; 449  : 		}

  00003	c3		 ret	 0
?size@?$_Tree@V?$_Tmap_traits@EPAUtagTSVRTYPE@@U?$less@E@std@@V?$allocator@U?$pair@$$CBEPAUtagTSVRTYPE@@@std@@@3@$0A@@std@@@std@@QBEIXZ ENDP ; std::_Tree<std::_Tmap_traits<unsigned char,tagTSVRTYPE *,std::less<unsigned char>,std::allocator<std::pair<unsigned char const ,tagTSVRTYPE *> >,0> >::size
_TEXT	ENDS
PUBLIC	?size@?$_Tree@V?$_Tmap_traits@EPAUtagTMACHINE@@U?$less@E@std@@V?$allocator@U?$pair@$$CBEPAUtagTMACHINE@@@std@@@3@$0A@@std@@@std@@QBEIXZ ; std::_Tree<std::_Tmap_traits<unsigned char,tagTMACHINE *,std::less<unsigned char>,std::allocator<std::pair<unsigned char const ,tagTMACHINE *> >,0> >::size
; Function compile flags: /Ogty
;	COMDAT ?size@?$_Tree@V?$_Tmap_traits@EPAUtagTMACHINE@@U?$less@E@std@@V?$allocator@U?$pair@$$CBEPAUtagTMACHINE@@@std@@@3@$0A@@std@@@std@@QBEIXZ
_TEXT	SEGMENT
?size@?$_Tree@V?$_Tmap_traits@EPAUtagTMACHINE@@U?$less@E@std@@V?$allocator@U?$pair@$$CBEPAUtagTMACHINE@@@std@@@3@$0A@@std@@@std@@QBEIXZ PROC NEAR ; std::_Tree<std::_Tmap_traits<unsigned char,tagTMACHINE *,std::less<unsigned char>,std::allocator<std::pair<unsigned char const ,tagTMACHINE *> >,0> >::size, COMDAT
; _this$ = ecx

; 448  : 		return (_Mysize);

  00000	8b 41 08	 mov	 eax, DWORD PTR [ecx+8]

; 449  : 		}

  00003	c3		 ret	 0
?size@?$_Tree@V?$_Tmap_traits@EPAUtagTMACHINE@@U?$less@E@std@@V?$allocator@U?$pair@$$CBEPAUtagTMACHINE@@@std@@@3@$0A@@std@@@std@@QBEIXZ ENDP ; std::_Tree<std::_Tmap_traits<unsigned char,tagTMACHINE *,std::less<unsigned char>,std::allocator<std::pair<unsigned char const ,tagTMACHINE *> >,0> >::size
_TEXT	ENDS
PUBLIC	?size@?$_Tree@V?$_Tmap_traits@EPAUtagTGROUP@@U?$less@E@std@@V?$allocator@U?$pair@$$CBEPAUtagTGROUP@@@std@@@3@$0A@@std@@@std@@QBEIXZ ; std::_Tree<std::_Tmap_traits<unsigned char,tagTGROUP *,std::less<unsigned char>,std::allocator<std::pair<unsigned char const ,tagTGROUP *> >,0> >::size
; Function compile flags: /Ogty
;	COMDAT ?size@?$_Tree@V?$_Tmap_traits@EPAUtagTGROUP@@U?$less@E@std@@V?$allocator@U?$pair@$$CBEPAUtagTGROUP@@@std@@@3@$0A@@std@@@std@@QBEIXZ
_TEXT	SEGMENT
?size@?$_Tree@V?$_Tmap_traits@EPAUtagTGROUP@@U?$less@E@std@@V?$allocator@U?$pair@$$CBEPAUtagTGROUP@@@std@@@3@$0A@@std@@@std@@QBEIXZ PROC NEAR ; std::_Tree<std::_Tmap_traits<unsigned char,tagTGROUP *,std::less<unsigned char>,std::allocator<std::pair<unsigned char const ,tagTGROUP *> >,0> >::size, COMDAT
; _this$ = ecx

; 448  : 		return (_Mysize);

  00000	8b 41 08	 mov	 eax, DWORD PTR [ecx+8]

; 449  : 		}

  00003	c3		 ret	 0
?size@?$_Tree@V?$_Tmap_traits@EPAUtagTGROUP@@U?$less@E@std@@V?$allocator@U?$pair@$$CBEPAUtagTGROUP@@@std@@@3@$0A@@std@@@std@@QBEIXZ ENDP ; std::_Tree<std::_Tmap_traits<unsigned char,tagTGROUP *,std::less<unsigned char>,std::allocator<std::pair<unsigned char const ,tagTGROUP *> >,0> >::size
_TEXT	ENDS
PUBLIC	?size@?$_Tree@V?$_Tmap_traits@KPAUtagTSVRTEMP@@U?$less@K@std@@V?$allocator@U?$pair@$$CBKPAUtagTSVRTEMP@@@std@@@3@$0A@@std@@@std@@QBEIXZ ; std::_Tree<std::_Tmap_traits<unsigned long,tagTSVRTEMP *,std::less<unsigned long>,std::allocator<std::pair<unsigned long const ,tagTSVRTEMP *> >,0> >::size
; Function compile flags: /Ogty
;	COMDAT ?size@?$_Tree@V?$_Tmap_traits@KPAUtagTSVRTEMP@@U?$less@K@std@@V?$allocator@U?$pair@$$CBKPAUtagTSVRTEMP@@@std@@@3@$0A@@std@@@std@@QBEIXZ
_TEXT	SEGMENT
?size@?$_Tree@V?$_Tmap_traits@KPAUtagTSVRTEMP@@U?$less@K@std@@V?$allocator@U?$pair@$$CBKPAUtagTSVRTEMP@@@std@@@3@$0A@@std@@@std@@QBEIXZ PROC NEAR ; std::_Tree<std::_Tmap_traits<unsigned long,tagTSVRTEMP *,std::less<unsigned long>,std::allocator<std::pair<unsigned long const ,tagTSVRTEMP *> >,0> >::size, COMDAT
; _this$ = ecx

; 448  : 		return (_Mysize);

  00000	8b 41 08	 mov	 eax, DWORD PTR [ecx+8]

; 449  : 		}

  00003	c3		 ret	 0
?size@?$_Tree@V?$_Tmap_traits@KPAUtagTSVRTEMP@@U?$less@K@std@@V?$allocator@U?$pair@$$CBKPAUtagTSVRTEMP@@@std@@@3@$0A@@std@@@std@@QBEIXZ ENDP ; std::_Tree<std::_Tmap_traits<unsigned long,tagTSVRTEMP *,std::less<unsigned long>,std::allocator<std::pair<unsigned long const ,tagTSVRTEMP *> >,0> >::size
_TEXT	ENDS
PUBLIC	?size@?$_Tree@V?$_Tmap_traits@KPAUtagBANINFO@@U?$less@K@std@@V?$allocator@U?$pair@$$CBKPAUtagBANINFO@@@std@@@3@$0A@@std@@@std@@QBEIXZ ; std::_Tree<std::_Tmap_traits<unsigned long,tagBANINFO *,std::less<unsigned long>,std::allocator<std::pair<unsigned long const ,tagBANINFO *> >,0> >::size
; Function compile flags: /Ogty
;	COMDAT ?size@?$_Tree@V?$_Tmap_traits@KPAUtagBANINFO@@U?$less@K@std@@V?$allocator@U?$pair@$$CBKPAUtagBANINFO@@@std@@@3@$0A@@std@@@std@@QBEIXZ
_TEXT	SEGMENT
?size@?$_Tree@V?$_Tmap_traits@KPAUtagBANINFO@@U?$less@K@std@@V?$allocator@U?$pair@$$CBKPAUtagBANINFO@@@std@@@3@$0A@@std@@@std@@QBEIXZ PROC NEAR ; std::_Tree<std::_Tmap_traits<unsigned long,tagBANINFO *,std::less<unsigned long>,std::allocator<std::pair<unsigned long const ,tagBANINFO *> >,0> >::size, COMDAT
; _this$ = ecx

; 448  : 		return (_Mysize);

  00000	8b 41 08	 mov	 eax, DWORD PTR [ecx+8]

; 449  : 		}

  00003	c3		 ret	 0
?size@?$_Tree@V?$_Tmap_traits@KPAUtagBANINFO@@U?$less@K@std@@V?$allocator@U?$pair@$$CBKPAUtagBANINFO@@@std@@@3@$0A@@std@@@std@@QBEIXZ ENDP ; std::_Tree<std::_Tmap_traits<unsigned long,tagBANINFO *,std::less<unsigned long>,std::allocator<std::pair<unsigned long const ,tagBANINFO *> >,0> >::size
_TEXT	ENDS
PUBLIC	?size@?$_Tree@V?$_Tmap_traits@KUtagEVENTINFO@@U?$less@K@std@@V?$allocator@U?$pair@$$CBKUtagEVENTINFO@@@std@@@3@$0A@@std@@@std@@QBEIXZ ; std::_Tree<std::_Tmap_traits<unsigned long,tagEVENTINFO,std::less<unsigned long>,std::allocator<std::pair<unsigned long const ,tagEVENTINFO> >,0> >::size
; Function compile flags: /Ogty
;	COMDAT ?size@?$_Tree@V?$_Tmap_traits@KUtagEVENTINFO@@U?$less@K@std@@V?$allocator@U?$pair@$$CBKUtagEVENTINFO@@@std@@@3@$0A@@std@@@std@@QBEIXZ
_TEXT	SEGMENT
?size@?$_Tree@V?$_Tmap_traits@KUtagEVENTINFO@@U?$less@K@std@@V?$allocator@U?$pair@$$CBKUtagEVENTINFO@@@std@@@3@$0A@@std@@@std@@QBEIXZ PROC NEAR ; std::_Tree<std::_Tmap_traits<unsigned long,tagEVENTINFO,std::less<unsigned long>,std::allocator<std::pair<unsigned long const ,tagEVENTINFO> >,0> >::size, COMDAT
; _this$ = ecx

; 448  : 		return (_Mysize);

  00000	8b 41 08	 mov	 eax, DWORD PTR [ecx+8]

; 449  : 		}

  00003	c3		 ret	 0
?size@?$_Tree@V?$_Tmap_traits@KUtagEVENTINFO@@U?$less@K@std@@V?$allocator@U?$pair@$$CBKUtagEVENTINFO@@@std@@@3@$0A@@std@@@std@@QBEIXZ ENDP ; std::_Tree<std::_Tmap_traits<unsigned long,tagEVENTINFO,std::less<unsigned long>,std::allocator<std::pair<unsigned long const ,tagEVENTINFO> >,0> >::size
_TEXT	ENDS
PUBLIC	??0CAtlException@ATL@@QAE@J@Z			; ATL::CAtlException::CAtlException
; Function compile flags: /Ogty
; File c:\program files (x86)\microsoft visual studio .net 2003\vc7\atlmfc\include\atlexcept.h
;	COMDAT ??0CAtlException@ATL@@QAE@J@Z
_TEXT	SEGMENT
_hr$ = 8						; size = 4
??0CAtlException@ATL@@QAE@J@Z PROC NEAR			; ATL::CAtlException::CAtlException, COMDAT
; _this$ = ecx

; 40   : 	{

  00000	8b c1		 mov	 eax, ecx
  00002	8b 4c 24 04	 mov	 ecx, DWORD PTR _hr$[esp-4]
  00006	89 08		 mov	 DWORD PTR [eax], ecx

; 41   : 	}

  00008	c2 04 00	 ret	 4
??0CAtlException@ATL@@QAE@J@Z ENDP			; ATL::CAtlException::CAtlException
_TEXT	ENDS
PUBLIC	?AtlThrow@ATL@@YGXJ@Z				; ATL::AtlThrow
PUBLIC	__TI1?AVCAtlException@ATL@@
PUBLIC	__CTA1?AVCAtlException@ATL@@
PUBLIC	??_R0?AVCAtlException@ATL@@@8			; ATL::CAtlException `RTTI Type Descriptor'
PUBLIC	__CT??_R0?AVCAtlException@ATL@@@84
EXTRN	??_7type_info@@6B@:DWORD			; type_info::`vftable'
EXTRN	__CxxThrowException@8:NEAR
;	COMDAT __TI1?AVCAtlException@ATL@@
xdata$x	SEGMENT
__TI1?AVCAtlException@ATL@@ DD 00H
	DD	00H
	DD	00H
	DD	FLAT:__CTA1?AVCAtlException@ATL@@
xdata$x	ENDS
;	COMDAT __CTA1?AVCAtlException@ATL@@
xdata$x	SEGMENT
__CTA1?AVCAtlException@ATL@@ DD 01H
	DD	FLAT:__CT??_R0?AVCAtlException@ATL@@@84
xdata$x	ENDS
;	COMDAT __CT??_R0?AVCAtlException@ATL@@@84
xdata$x	SEGMENT
__CT??_R0?AVCAtlException@ATL@@@84 DD 00H
	DD	FLAT:??_R0?AVCAtlException@ATL@@@8
	DD	00H
	DD	0ffffffffH
	ORG $+4
	DD	04H
	DD	00H
xdata$x	ENDS
;	COMDAT ??_R0?AVCAtlException@ATL@@@8
_DATA	SEGMENT
??_R0?AVCAtlException@ATL@@@8 DD FLAT:??_7type_info@@6B@ ; ATL::CAtlException `RTTI Type Descriptor'
	DD	00H
	DB	'.?AVCAtlException@ATL@@', 00H
; Function compile flags: /Ogty
_DATA	ENDS
;	COMDAT ?AtlThrow@ATL@@YGXJ@Z
_TEXT	SEGMENT
$T93549 = 8						; size = 4
_hr$ = 8						; size = 4
?AtlThrow@ATL@@YGXJ@Z PROC NEAR				; ATL::AtlThrow, COMDAT

; 62   : 	ATLTRACE(atlTraceException, 0, _T("AtlThrow: hr = 0x%x\n"), hr );
; 63   : #ifdef _AFX
; 64   : 	if( hr == E_OUTOFMEMORY )
; 65   : 	{
; 66   : 		AfxThrowMemoryException();
; 67   : 	}
; 68   : 	else
; 69   : 	{
; 70   : 		AfxThrowOleException( hr );
; 71   : 	}
; 72   : #else
; 73   : 	throw CAtlException( hr );

  00000	8b 44 24 04	 mov	 eax, DWORD PTR _hr$[esp-4]
  00004	68 00 00 00 00	 push	 OFFSET FLAT:__TI1?AVCAtlException@ATL@@
  00009	8d 4c 24 08	 lea	 ecx, DWORD PTR $T93549[esp]
  0000d	51		 push	 ecx
  0000e	89 44 24 0c	 mov	 DWORD PTR $T93549[esp+4], eax
  00012	e8 00 00 00 00	 call	 __CxxThrowException@8
$L93556:
$L93555:
  00017	cc		 int	 3
?AtlThrow@ATL@@YGXJ@Z ENDP				; ATL::AtlThrow
_TEXT	ENDS
PUBLIC	?size@?$vector@UtagTCASHITEM@@V?$allocator@UtagTCASHITEM@@@std@@@std@@QBEIXZ ; std::vector<tagTCASHITEM,std::allocator<tagTCASHITEM> >::size
; Function compile flags: /Ogty
; File c:\program files (x86)\microsoft visual studio .net 2003\vc7\include\vector
;	COMDAT ?size@?$vector@UtagTCASHITEM@@V?$allocator@UtagTCASHITEM@@@std@@@std@@QBEIXZ
_TEXT	SEGMENT
?size@?$vector@UtagTCASHITEM@@V?$allocator@UtagTCASHITEM@@@std@@@std@@QBEIXZ PROC NEAR ; std::vector<tagTCASHITEM,std::allocator<tagTCASHITEM> >::size, COMDAT
; _this$ = ecx

; 516  : 		return (_Myfirst == 0 ? 0 : _Mylast - _Myfirst);

  00000	8b 51 04	 mov	 edx, DWORD PTR [ecx+4]
  00003	85 d2		 test	 edx, edx
  00005	75 03		 jne	 SHORT $L93560
  00007	33 c0		 xor	 eax, eax

; 517  : 		}

  00009	c3		 ret	 0
$L93560:

; 516  : 		return (_Myfirst == 0 ? 0 : _Mylast - _Myfirst);

  0000a	8b 41 08	 mov	 eax, DWORD PTR [ecx+8]
  0000d	2b c2		 sub	 eax, edx
  0000f	c1 f8 03	 sar	 eax, 3

; 517  : 		}

  00012	c3		 ret	 0
?size@?$vector@UtagTCASHITEM@@V?$allocator@UtagTCASHITEM@@@std@@@std@@QBEIXZ ENDP ; std::vector<tagTCASHITEM,std::allocator<tagTCASHITEM> >::size
_TEXT	ENDS
PUBLIC	?size@?$vector@UtagPATCHFILE@@V?$allocator@UtagPATCHFILE@@@std@@@std@@QBEIXZ ; std::vector<tagPATCHFILE,std::allocator<tagPATCHFILE> >::size
; Function compile flags: /Ogty
;	COMDAT ?size@?$vector@UtagPATCHFILE@@V?$allocator@UtagPATCHFILE@@@std@@@std@@QBEIXZ
_TEXT	SEGMENT
?size@?$vector@UtagPATCHFILE@@V?$allocator@UtagPATCHFILE@@@std@@@std@@QBEIXZ PROC NEAR ; std::vector<tagPATCHFILE,std::allocator<tagPATCHFILE> >::size, COMDAT
; _this$ = ecx

; 516  : 		return (_Myfirst == 0 ? 0 : _Mylast - _Myfirst);

  00000	8b 51 04	 mov	 edx, DWORD PTR [ecx+4]
  00003	85 d2		 test	 edx, edx
  00005	75 03		 jne	 SHORT $L93565
  00007	33 c0		 xor	 eax, eax

; 517  : 		}

  00009	c3		 ret	 0
$L93565:

; 516  : 		return (_Myfirst == 0 ? 0 : _Mylast - _Myfirst);

  0000a	8b 41 08	 mov	 eax, DWORD PTR [ecx+8]
  0000d	2b c2		 sub	 eax, edx
  0000f	c1 f8 04	 sar	 eax, 4

; 517  : 		}

  00012	c3		 ret	 0
?size@?$vector@UtagPATCHFILE@@V?$allocator@UtagPATCHFILE@@@std@@@std@@QBEIXZ ENDP ; std::vector<tagPATCHFILE,std::allocator<tagPATCHFILE> >::size
_TEXT	ENDS
PUBLIC	??0const_iterator@?$_Tree@V?$_Tmap_traits@EPAUtagTSVRTYPE@@U?$less@E@std@@V?$allocator@U?$pair@$$CBEPAUtagTSVRTYPE@@@std@@@3@$0A@@std@@@std@@QAE@XZ ; std::_Tree<std::_Tmap_traits<unsigned char,tagTSVRTYPE *,std::less<unsigned char>,std::allocator<std::pair<unsigned char const ,tagTSVRTYPE *> >,0> >::const_iterator::const_iterator
; Function compile flags: /Ogty
; File c:\program files (x86)\microsoft visual studio .net 2003\vc7\include\xtree
;	COMDAT ??0const_iterator@?$_Tree@V?$_Tmap_traits@EPAUtagTSVRTYPE@@U?$less@E@std@@V?$allocator@U?$pair@$$CBEPAUtagTSVRTYPE@@@std@@@3@$0A@@std@@@std@@QAE@XZ
_TEXT	SEGMENT
??0const_iterator@?$_Tree@V?$_Tmap_traits@EPAUtagTSVRTYPE@@U?$less@E@std@@V?$allocator@U?$pair@$$CBEPAUtagTSVRTYPE@@@std@@@3@$0A@@std@@@std@@QAE@XZ PROC NEAR ; std::_Tree<std::_Tmap_traits<unsigned char,tagTSVRTYPE *,std::less<unsigned char>,std::allocator<std::pair<unsigned char const ,tagTSVRTYPE *> >,0> >::const_iterator::const_iterator, COMDAT
; _this$ = ecx

; 193  : 			{	// construct with null node pointer

  00000	8b c1		 mov	 eax, ecx
  00002	c7 00 00 00 00
	00		 mov	 DWORD PTR [eax], 0

; 194  : 			}

  00008	c3		 ret	 0
??0const_iterator@?$_Tree@V?$_Tmap_traits@EPAUtagTSVRTYPE@@U?$less@E@std@@V?$allocator@U?$pair@$$CBEPAUtagTSVRTYPE@@@std@@@3@$0A@@std@@@std@@QAE@XZ ENDP ; std::_Tree<std::_Tmap_traits<unsigned char,tagTSVRTYPE *,std::less<unsigned char>,std::allocator<std::pair<unsigned char const ,tagTSVRTYPE *> >,0> >::const_iterator::const_iterator
_TEXT	ENDS
PUBLIC	??8const_iterator@?$_Tree@V?$_Tmap_traits@EPAUtagTSVRTYPE@@U?$less@E@std@@V?$allocator@U?$pair@$$CBEPAUtagTSVRTYPE@@@std@@@3@$0A@@std@@@std@@QBE_NABV012@@Z ; std::_Tree<std::_Tmap_traits<unsigned char,tagTSVRTYPE *,std::less<unsigned char>,std::allocator<std::pair<unsigned char const ,tagTSVRTYPE *> >,0> >::const_iterator::operator==
; Function compile flags: /Ogty
;	COMDAT ??8const_iterator@?$_Tree@V?$_Tmap_traits@EPAUtagTSVRTYPE@@U?$less@E@std@@V?$allocator@U?$pair@$$CBEPAUtagTSVRTYPE@@@std@@@3@$0A@@std@@@std@@QBE_NABV012@@Z
_TEXT	SEGMENT
__Right$ = 8						; size = 4
??8const_iterator@?$_Tree@V?$_Tmap_traits@EPAUtagTSVRTYPE@@U?$less@E@std@@V?$allocator@U?$pair@$$CBEPAUtagTSVRTYPE@@@std@@@3@$0A@@std@@@std@@QBE_NABV012@@Z PROC NEAR ; std::_Tree<std::_Tmap_traits<unsigned char,tagTSVRTYPE *,std::less<unsigned char>,std::allocator<std::pair<unsigned char const ,tagTSVRTYPE *> >,0> >::const_iterator::operator==, COMDAT
; _this$ = ecx

; 241  : 			return (_Ptr == _Right._Ptr);

  00000	8b 01		 mov	 eax, DWORD PTR [ecx]
  00002	8b 4c 24 04	 mov	 ecx, DWORD PTR __Right$[esp-4]
  00006	2b 01		 sub	 eax, DWORD PTR [ecx]
  00008	f7 d8		 neg	 eax
  0000a	1b c0		 sbb	 eax, eax
  0000c	40		 inc	 eax

; 242  : 			}

  0000d	c2 04 00	 ret	 4
??8const_iterator@?$_Tree@V?$_Tmap_traits@EPAUtagTSVRTYPE@@U?$less@E@std@@V?$allocator@U?$pair@$$CBEPAUtagTSVRTYPE@@@std@@@3@$0A@@std@@@std@@QBE_NABV012@@Z ENDP ; std::_Tree<std::_Tmap_traits<unsigned char,tagTSVRTYPE *,std::less<unsigned char>,std::allocator<std::pair<unsigned char const ,tagTSVRTYPE *> >,0> >::const_iterator::operator==
_TEXT	ENDS
PUBLIC	??0const_iterator@?$_Tree@V?$_Tmap_traits@EPAUtagTMACHINE@@U?$less@E@std@@V?$allocator@U?$pair@$$CBEPAUtagTMACHINE@@@std@@@3@$0A@@std@@@std@@QAE@XZ ; std::_Tree<std::_Tmap_traits<unsigned char,tagTMACHINE *,std::less<unsigned char>,std::allocator<std::pair<unsigned char const ,tagTMACHINE *> >,0> >::const_iterator::const_iterator
; Function compile flags: /Ogty
;	COMDAT ??0const_iterator@?$_Tree@V?$_Tmap_traits@EPAUtagTMACHINE@@U?$less@E@std@@V?$allocator@U?$pair@$$CBEPAUtagTMACHINE@@@std@@@3@$0A@@std@@@std@@QAE@XZ
_TEXT	SEGMENT
??0const_iterator@?$_Tree@V?$_Tmap_traits@EPAUtagTMACHINE@@U?$less@E@std@@V?$allocator@U?$pair@$$CBEPAUtagTMACHINE@@@std@@@3@$0A@@std@@@std@@QAE@XZ PROC NEAR ; std::_Tree<std::_Tmap_traits<unsigned char,tagTMACHINE *,std::less<unsigned char>,std::allocator<std::pair<unsigned char const ,tagTMACHINE *> >,0> >::const_iterator::const_iterator, COMDAT
; _this$ = ecx

; 193  : 			{	// construct with null node pointer

  00000	8b c1		 mov	 eax, ecx
  00002	c7 00 00 00 00
	00		 mov	 DWORD PTR [eax], 0

; 194  : 			}

  00008	c3		 ret	 0
??0const_iterator@?$_Tree@V?$_Tmap_traits@EPAUtagTMACHINE@@U?$less@E@std@@V?$allocator@U?$pair@$$CBEPAUtagTMACHINE@@@std@@@3@$0A@@std@@@std@@QAE@XZ ENDP ; std::_Tree<std::_Tmap_traits<unsigned char,tagTMACHINE *,std::less<unsigned char>,std::allocator<std::pair<unsigned char const ,tagTMACHINE *> >,0> >::const_iterator::const_iterator
_TEXT	ENDS
PUBLIC	??8const_iterator@?$_Tree@V?$_Tmap_traits@EPAUtagTMACHINE@@U?$less@E@std@@V?$allocator@U?$pair@$$CBEPAUtagTMACHINE@@@std@@@3@$0A@@std@@@std@@QBE_NABV012@@Z ; std::_Tree<std::_Tmap_traits<unsigned char,tagTMACHINE *,std::less<unsigned char>,std::allocator<std::pair<unsigned char const ,tagTMACHINE *> >,0> >::const_iterator::operator==
; Function compile flags: /Ogty
;	COMDAT ??8const_iterator@?$_Tree@V?$_Tmap_traits@EPAUtagTMACHINE@@U?$less@E@std@@V?$allocator@U?$pair@$$CBEPAUtagTMACHINE@@@std@@@3@$0A@@std@@@std@@QBE_NABV012@@Z
_TEXT	SEGMENT
__Right$ = 8						; size = 4
??8const_iterator@?$_Tree@V?$_Tmap_traits@EPAUtagTMACHINE@@U?$less@E@std@@V?$allocator@U?$pair@$$CBEPAUtagTMACHINE@@@std@@@3@$0A@@std@@@std@@QBE_NABV012@@Z PROC NEAR ; std::_Tree<std::_Tmap_traits<unsigned char,tagTMACHINE *,std::less<unsigned char>,std::allocator<std::pair<unsigned char const ,tagTMACHINE *> >,0> >::const_iterator::operator==, COMDAT
; _this$ = ecx

; 241  : 			return (_Ptr == _Right._Ptr);

  00000	8b 01		 mov	 eax, DWORD PTR [ecx]
  00002	8b 4c 24 04	 mov	 ecx, DWORD PTR __Right$[esp-4]
  00006	2b 01		 sub	 eax, DWORD PTR [ecx]
  00008	f7 d8		 neg	 eax
  0000a	1b c0		 sbb	 eax, eax
  0000c	40		 inc	 eax

; 242  : 			}

  0000d	c2 04 00	 ret	 4
??8const_iterator@?$_Tree@V?$_Tmap_traits@EPAUtagTMACHINE@@U?$less@E@std@@V?$allocator@U?$pair@$$CBEPAUtagTMACHINE@@@std@@@3@$0A@@std@@@std@@QBE_NABV012@@Z ENDP ; std::_Tree<std::_Tmap_traits<unsigned char,tagTMACHINE *,std::less<unsigned char>,std::allocator<std::pair<unsigned char const ,tagTMACHINE *> >,0> >::const_iterator::operator==
_TEXT	ENDS
PUBLIC	??0const_iterator@?$_Tree@V?$_Tmap_traits@EPAUtagTGROUP@@U?$less@E@std@@V?$allocator@U?$pair@$$CBEPAUtagTGROUP@@@std@@@3@$0A@@std@@@std@@QAE@XZ ; std::_Tree<std::_Tmap_traits<unsigned char,tagTGROUP *,std::less<unsigned char>,std::allocator<std::pair<unsigned char const ,tagTGROUP *> >,0> >::const_iterator::const_iterator
; Function compile flags: /Ogty
;	COMDAT ??0const_iterator@?$_Tree@V?$_Tmap_traits@EPAUtagTGROUP@@U?$less@E@std@@V?$allocator@U?$pair@$$CBEPAUtagTGROUP@@@std@@@3@$0A@@std@@@std@@QAE@XZ
_TEXT	SEGMENT
??0const_iterator@?$_Tree@V?$_Tmap_traits@EPAUtagTGROUP@@U?$less@E@std@@V?$allocator@U?$pair@$$CBEPAUtagTGROUP@@@std@@@3@$0A@@std@@@std@@QAE@XZ PROC NEAR ; std::_Tree<std::_Tmap_traits<unsigned char,tagTGROUP *,std::less<unsigned char>,std::allocator<std::pair<unsigned char const ,tagTGROUP *> >,0> >::const_iterator::const_iterator, COMDAT
; _this$ = ecx

; 193  : 			{	// construct with null node pointer

  00000	8b c1		 mov	 eax, ecx
  00002	c7 00 00 00 00
	00		 mov	 DWORD PTR [eax], 0

; 194  : 			}

  00008	c3		 ret	 0
??0const_iterator@?$_Tree@V?$_Tmap_traits@EPAUtagTGROUP@@U?$less@E@std@@V?$allocator@U?$pair@$$CBEPAUtagTGROUP@@@std@@@3@$0A@@std@@@std@@QAE@XZ ENDP ; std::_Tree<std::_Tmap_traits<unsigned char,tagTGROUP *,std::less<unsigned char>,std::allocator<std::pair<unsigned char const ,tagTGROUP *> >,0> >::const_iterator::const_iterator
_TEXT	ENDS
PUBLIC	??8const_iterator@?$_Tree@V?$_Tmap_traits@EPAUtagTGROUP@@U?$less@E@std@@V?$allocator@U?$pair@$$CBEPAUtagTGROUP@@@std@@@3@$0A@@std@@@std@@QBE_NABV012@@Z ; std::_Tree<std::_Tmap_traits<unsigned char,tagTGROUP *,std::less<unsigned char>,std::allocator<std::pair<unsigned char const ,tagTGROUP *> >,0> >::const_iterator::operator==
; Function compile flags: /Ogty
;	COMDAT ??8const_iterator@?$_Tree@V?$_Tmap_traits@EPAUtagTGROUP@@U?$less@E@std@@V?$allocator@U?$pair@$$CBEPAUtagTGROUP@@@std@@@3@$0A@@std@@@std@@QBE_NABV012@@Z
_TEXT	SEGMENT
__Right$ = 8						; size = 4
??8const_iterator@?$_Tree@V?$_Tmap_traits@EPAUtagTGROUP@@U?$less@E@std@@V?$allocator@U?$pair@$$CBEPAUtagTGROUP@@@std@@@3@$0A@@std@@@std@@QBE_NABV012@@Z PROC NEAR ; std::_Tree<std::_Tmap_traits<unsigned char,tagTGROUP *,std::less<unsigned char>,std::allocator<std::pair<unsigned char const ,tagTGROUP *> >,0> >::const_iterator::operator==, COMDAT
; _this$ = ecx

; 241  : 			return (_Ptr == _Right._Ptr);

  00000	8b 01		 mov	 eax, DWORD PTR [ecx]
  00002	8b 4c 24 04	 mov	 ecx, DWORD PTR __Right$[esp-4]
  00006	2b 01		 sub	 eax, DWORD PTR [ecx]
  00008	f7 d8		 neg	 eax
  0000a	1b c0		 sbb	 eax, eax
  0000c	40		 inc	 eax

; 242  : 			}

  0000d	c2 04 00	 ret	 4
??8const_iterator@?$_Tree@V?$_Tmap_traits@EPAUtagTGROUP@@U?$less@E@std@@V?$allocator@U?$pair@$$CBEPAUtagTGROUP@@@std@@@3@$0A@@std@@@std@@QBE_NABV012@@Z ENDP ; std::_Tree<std::_Tmap_traits<unsigned char,tagTGROUP *,std::less<unsigned char>,std::allocator<std::pair<unsigned char const ,tagTGROUP *> >,0> >::const_iterator::operator==
_TEXT	ENDS
PUBLIC	??0const_iterator@?$_Tree@V?$_Tmap_traits@KPAUtagTSVRTEMP@@U?$less@K@std@@V?$allocator@U?$pair@$$CBKPAUtagTSVRTEMP@@@std@@@3@$0A@@std@@@std@@QAE@XZ ; std::_Tree<std::_Tmap_traits<unsigned long,tagTSVRTEMP *,std::less<unsigned long>,std::allocator<std::pair<unsigned long const ,tagTSVRTEMP *> >,0> >::const_iterator::const_iterator
; Function compile flags: /Ogty
;	COMDAT ??0const_iterator@?$_Tree@V?$_Tmap_traits@KPAUtagTSVRTEMP@@U?$less@K@std@@V?$allocator@U?$pair@$$CBKPAUtagTSVRTEMP@@@std@@@3@$0A@@std@@@std@@QAE@XZ
_TEXT	SEGMENT
??0const_iterator@?$_Tree@V?$_Tmap_traits@KPAUtagTSVRTEMP@@U?$less@K@std@@V?$allocator@U?$pair@$$CBKPAUtagTSVRTEMP@@@std@@@3@$0A@@std@@@std@@QAE@XZ PROC NEAR ; std::_Tree<std::_Tmap_traits<unsigned long,tagTSVRTEMP *,std::less<unsigned long>,std::allocator<std::pair<unsigned long const ,tagTSVRTEMP *> >,0> >::const_iterator::const_iterator, COMDAT
; _this$ = ecx

; 193  : 			{	// construct with null node pointer

  00000	8b c1		 mov	 eax, ecx
  00002	c7 00 00 00 00
	00		 mov	 DWORD PTR [eax], 0

; 194  : 			}

  00008	c3		 ret	 0
??0const_iterator@?$_Tree@V?$_Tmap_traits@KPAUtagTSVRTEMP@@U?$less@K@std@@V?$allocator@U?$pair@$$CBKPAUtagTSVRTEMP@@@std@@@3@$0A@@std@@@std@@QAE@XZ ENDP ; std::_Tree<std::_Tmap_traits<unsigned long,tagTSVRTEMP *,std::less<unsigned long>,std::allocator<std::pair<unsigned long const ,tagTSVRTEMP *> >,0> >::const_iterator::const_iterator
_TEXT	ENDS
PUBLIC	??8const_iterator@?$_Tree@V?$_Tmap_traits@KPAUtagTSVRTEMP@@U?$less@K@std@@V?$allocator@U?$pair@$$CBKPAUtagTSVRTEMP@@@std@@@3@$0A@@std@@@std@@QBE_NABV012@@Z ; std::_Tree<std::_Tmap_traits<unsigned long,tagTSVRTEMP *,std::less<unsigned long>,std::allocator<std::pair<unsigned long const ,tagTSVRTEMP *> >,0> >::const_iterator::operator==
; Function compile flags: /Ogty
;	COMDAT ??8const_iterator@?$_Tree@V?$_Tmap_traits@KPAUtagTSVRTEMP@@U?$less@K@std@@V?$allocator@U?$pair@$$CBKPAUtagTSVRTEMP@@@std@@@3@$0A@@std@@@std@@QBE_NABV012@@Z
_TEXT	SEGMENT
__Right$ = 8						; size = 4
??8const_iterator@?$_Tree@V?$_Tmap_traits@KPAUtagTSVRTEMP@@U?$less@K@std@@V?$allocator@U?$pair@$$CBKPAUtagTSVRTEMP@@@std@@@3@$0A@@std@@@std@@QBE_NABV012@@Z PROC NEAR ; std::_Tree<std::_Tmap_traits<unsigned long,tagTSVRTEMP *,std::less<unsigned long>,std::allocator<std::pair<unsigned long const ,tagTSVRTEMP *> >,0> >::const_iterator::operator==, COMDAT
; _this$ = ecx

; 241  : 			return (_Ptr == _Right._Ptr);

  00000	8b 01		 mov	 eax, DWORD PTR [ecx]
  00002	8b 4c 24 04	 mov	 ecx, DWORD PTR __Right$[esp-4]
  00006	2b 01		 sub	 eax, DWORD PTR [ecx]
  00008	f7 d8		 neg	 eax
  0000a	1b c0		 sbb	 eax, eax
  0000c	40		 inc	 eax

; 242  : 			}

  0000d	c2 04 00	 ret	 4
??8const_iterator@?$_Tree@V?$_Tmap_traits@KPAUtagTSVRTEMP@@U?$less@K@std@@V?$allocator@U?$pair@$$CBKPAUtagTSVRTEMP@@@std@@@3@$0A@@std@@@std@@QBE_NABV012@@Z ENDP ; std::_Tree<std::_Tmap_traits<unsigned long,tagTSVRTEMP *,std::less<unsigned long>,std::allocator<std::pair<unsigned long const ,tagTSVRTEMP *> >,0> >::const_iterator::operator==
_TEXT	ENDS
PUBLIC	??0const_iterator@?$_Tree@V?$_Tmap_traits@KPAUtagBANINFO@@U?$less@K@std@@V?$allocator@U?$pair@$$CBKPAUtagBANINFO@@@std@@@3@$0A@@std@@@std@@QAE@XZ ; std::_Tree<std::_Tmap_traits<unsigned long,tagBANINFO *,std::less<unsigned long>,std::allocator<std::pair<unsigned long const ,tagBANINFO *> >,0> >::const_iterator::const_iterator
; Function compile flags: /Ogty
;	COMDAT ??0const_iterator@?$_Tree@V?$_Tmap_traits@KPAUtagBANINFO@@U?$less@K@std@@V?$allocator@U?$pair@$$CBKPAUtagBANINFO@@@std@@@3@$0A@@std@@@std@@QAE@XZ
_TEXT	SEGMENT
??0const_iterator@?$_Tree@V?$_Tmap_traits@KPAUtagBANINFO@@U?$less@K@std@@V?$allocator@U?$pair@$$CBKPAUtagBANINFO@@@std@@@3@$0A@@std@@@std@@QAE@XZ PROC NEAR ; std::_Tree<std::_Tmap_traits<unsigned long,tagBANINFO *,std::less<unsigned long>,std::allocator<std::pair<unsigned long const ,tagBANINFO *> >,0> >::const_iterator::const_iterator, COMDAT
; _this$ = ecx

; 193  : 			{	// construct with null node pointer

  00000	8b c1		 mov	 eax, ecx
  00002	c7 00 00 00 00
	00		 mov	 DWORD PTR [eax], 0

; 194  : 			}

  00008	c3		 ret	 0
??0const_iterator@?$_Tree@V?$_Tmap_traits@KPAUtagBANINFO@@U?$less@K@std@@V?$allocator@U?$pair@$$CBKPAUtagBANINFO@@@std@@@3@$0A@@std@@@std@@QAE@XZ ENDP ; std::_Tree<std::_Tmap_traits<unsigned long,tagBANINFO *,std::less<unsigned long>,std::allocator<std::pair<unsigned long const ,tagBANINFO *> >,0> >::const_iterator::const_iterator
_TEXT	ENDS
PUBLIC	??8const_iterator@?$_Tree@V?$_Tmap_traits@KPAUtagBANINFO@@U?$less@K@std@@V?$allocator@U?$pair@$$CBKPAUtagBANINFO@@@std@@@3@$0A@@std@@@std@@QBE_NABV012@@Z ; std::_Tree<std::_Tmap_traits<unsigned long,tagBANINFO *,std::less<unsigned long>,std::allocator<std::pair<unsigned long const ,tagBANINFO *> >,0> >::const_iterator::operator==
; Function compile flags: /Ogty
;	COMDAT ??8const_iterator@?$_Tree@V?$_Tmap_traits@KPAUtagBANINFO@@U?$less@K@std@@V?$allocator@U?$pair@$$CBKPAUtagBANINFO@@@std@@@3@$0A@@std@@@std@@QBE_NABV012@@Z
_TEXT	SEGMENT
__Right$ = 8						; size = 4
??8const_iterator@?$_Tree@V?$_Tmap_traits@KPAUtagBANINFO@@U?$less@K@std@@V?$allocator@U?$pair@$$CBKPAUtagBANINFO@@@std@@@3@$0A@@std@@@std@@QBE_NABV012@@Z PROC NEAR ; std::_Tree<std::_Tmap_traits<unsigned long,tagBANINFO *,std::less<unsigned long>,std::allocator<std::pair<unsigned long const ,tagBANINFO *> >,0> >::const_iterator::operator==, COMDAT
; _this$ = ecx

; 241  : 			return (_Ptr == _Right._Ptr);

  00000	8b 01		 mov	 eax, DWORD PTR [ecx]
  00002	8b 4c 24 04	 mov	 ecx, DWORD PTR __Right$[esp-4]
  00006	2b 01		 sub	 eax, DWORD PTR [ecx]
  00008	f7 d8		 neg	 eax
  0000a	1b c0		 sbb	 eax, eax
  0000c	40		 inc	 eax

; 242  : 			}

  0000d	c2 04 00	 ret	 4
??8const_iterator@?$_Tree@V?$_Tmap_traits@KPAUtagBANINFO@@U?$less@K@std@@V?$allocator@U?$pair@$$CBKPAUtagBANINFO@@@std@@@3@$0A@@std@@@std@@QBE_NABV012@@Z ENDP ; std::_Tree<std::_Tmap_traits<unsigned long,tagBANINFO *,std::less<unsigned long>,std::allocator<std::pair<unsigned long const ,tagBANINFO *> >,0> >::const_iterator::operator==
_TEXT	ENDS
PUBLIC	??0const_iterator@?$_Tree@V?$_Tmap_traits@KUtagEVENTINFO@@U?$less@K@std@@V?$allocator@U?$pair@$$CBKUtagEVENTINFO@@@std@@@3@$0A@@std@@@std@@QAE@XZ ; std::_Tree<std::_Tmap_traits<unsigned long,tagEVENTINFO,std::less<unsigned long>,std::allocator<std::pair<unsigned long const ,tagEVENTINFO> >,0> >::const_iterator::const_iterator
; Function compile flags: /Ogty
;	COMDAT ??0const_iterator@?$_Tree@V?$_Tmap_traits@KUtagEVENTINFO@@U?$less@K@std@@V?$allocator@U?$pair@$$CBKUtagEVENTINFO@@@std@@@3@$0A@@std@@@std@@QAE@XZ
_TEXT	SEGMENT
??0const_iterator@?$_Tree@V?$_Tmap_traits@KUtagEVENTINFO@@U?$less@K@std@@V?$allocator@U?$pair@$$CBKUtagEVENTINFO@@@std@@@3@$0A@@std@@@std@@QAE@XZ PROC NEAR ; std::_Tree<std::_Tmap_traits<unsigned long,tagEVENTINFO,std::less<unsigned long>,std::allocator<std::pair<unsigned long const ,tagEVENTINFO> >,0> >::const_iterator::const_iterator, COMDAT
; _this$ = ecx

; 193  : 			{	// construct with null node pointer

  00000	8b c1		 mov	 eax, ecx
  00002	c7 00 00 00 00
	00		 mov	 DWORD PTR [eax], 0

; 194  : 			}

  00008	c3		 ret	 0
??0const_iterator@?$_Tree@V?$_Tmap_traits@KUtagEVENTINFO@@U?$less@K@std@@V?$allocator@U?$pair@$$CBKUtagEVENTINFO@@@std@@@3@$0A@@std@@@std@@QAE@XZ ENDP ; std::_Tree<std::_Tmap_traits<unsigned long,tagEVENTINFO,std::less<unsigned long>,std::allocator<std::pair<unsigned long const ,tagEVENTINFO> >,0> >::const_iterator::const_iterator
_TEXT	ENDS
PUBLIC	??8const_iterator@?$_Tree@V?$_Tmap_traits@KUtagEVENTINFO@@U?$less@K@std@@V?$allocator@U?$pair@$$CBKUtagEVENTINFO@@@std@@@3@$0A@@std@@@std@@QBE_NABV012@@Z ; std::_Tree<std::_Tmap_traits<unsigned long,tagEVENTINFO,std::less<unsigned long>,std::allocator<std::pair<unsigned long const ,tagEVENTINFO> >,0> >::const_iterator::operator==
; Function compile flags: /Ogty
;	COMDAT ??8const_iterator@?$_Tree@V?$_Tmap_traits@KUtagEVENTINFO@@U?$less@K@std@@V?$allocator@U?$pair@$$CBKUtagEVENTINFO@@@std@@@3@$0A@@std@@@std@@QBE_NABV012@@Z
_TEXT	SEGMENT
__Right$ = 8						; size = 4
??8const_iterator@?$_Tree@V?$_Tmap_traits@KUtagEVENTINFO@@U?$less@K@std@@V?$allocator@U?$pair@$$CBKUtagEVENTINFO@@@std@@@3@$0A@@std@@@std@@QBE_NABV012@@Z PROC NEAR ; std::_Tree<std::_Tmap_traits<unsigned long,tagEVENTINFO,std::less<unsigned long>,std::allocator<std::pair<unsigned long const ,tagEVENTINFO> >,0> >::const_iterator::operator==, COMDAT
; _this$ = ecx

; 241  : 			return (_Ptr == _Right._Ptr);

  00000	8b 01		 mov	 eax, DWORD PTR [ecx]
  00002	8b 4c 24 04	 mov	 ecx, DWORD PTR __Right$[esp-4]
  00006	2b 01		 sub	 eax, DWORD PTR [ecx]
  00008	f7 d8		 neg	 eax
  0000a	1b c0		 sbb	 eax, eax
  0000c	40		 inc	 eax

; 242  : 			}

  0000d	c2 04 00	 ret	 4
??8const_iterator@?$_Tree@V?$_Tmap_traits@KUtagEVENTINFO@@U?$less@K@std@@V?$allocator@U?$pair@$$CBKUtagEVENTINFO@@@std@@@3@$0A@@std@@@std@@QBE_NABV012@@Z ENDP ; std::_Tree<std::_Tmap_traits<unsigned long,tagEVENTINFO,std::less<unsigned long>,std::allocator<std::pair<unsigned long const ,tagEVENTINFO> >,0> >::const_iterator::operator==
_TEXT	ENDS
PUBLIC	?_Left@?$_Tree@V?$_Tmap_traits@EPAUtagTSVRTYPE@@U?$less@E@std@@V?$allocator@U?$pair@$$CBEPAUtagTSVRTYPE@@@std@@@3@$0A@@std@@@std@@KAAAPAU_Node@?$_Tree_nod@V?$_Tmap_traits@EPAUtagTSVRTYPE@@U?$less@E@std@@V?$allocator@U?$pair@$$CBEPAUtagTSVRTYPE@@@std@@@3@$0A@@std@@@2@PAU342@@Z ; std::_Tree<std::_Tmap_traits<unsigned char,tagTSVRTYPE *,std::less<unsigned char>,std::allocator<std::pair<unsigned char const ,tagTSVRTYPE *> >,0> >::_Left
; Function compile flags: /Ogty
;	COMDAT ?_Left@?$_Tree@V?$_Tmap_traits@EPAUtagTSVRTYPE@@U?$less@E@std@@V?$allocator@U?$pair@$$CBEPAUtagTSVRTYPE@@@std@@@3@$0A@@std@@@std@@KAAAPAU_Node@?$_Tree_nod@V?$_Tmap_traits@EPAUtagTSVRTYPE@@U?$less@E@std@@V?$allocator@U?$pair@$$CBEPAUtagTSVRTYPE@@@std@@@3@$0A@@std@@@2@PAU342@@Z
_TEXT	SEGMENT
__Pnode$ = 8						; size = 4
?_Left@?$_Tree@V?$_Tmap_traits@EPAUtagTSVRTYPE@@U?$less@E@std@@V?$allocator@U?$pair@$$CBEPAUtagTSVRTYPE@@@std@@@3@$0A@@std@@@std@@KAAAPAU_Node@?$_Tree_nod@V?$_Tmap_traits@EPAUtagTSVRTYPE@@U?$less@E@std@@V?$allocator@U?$pair@$$CBEPAUtagTSVRTYPE@@@std@@@3@$0A@@std@@@2@PAU342@@Z PROC NEAR ; std::_Tree<std::_Tmap_traits<unsigned char,tagTSVRTYPE *,std::less<unsigned char>,std::allocator<std::pair<unsigned char const ,tagTSVRTYPE *> >,0> >::_Left, COMDAT

; 147  : 		return ((_Nodepref)(*_Pnode)._Left);

  00000	8b 44 24 04	 mov	 eax, DWORD PTR __Pnode$[esp-4]

; 148  : 		}

  00004	c3		 ret	 0
?_Left@?$_Tree@V?$_Tmap_traits@EPAUtagTSVRTYPE@@U?$less@E@std@@V?$allocator@U?$pair@$$CBEPAUtagTSVRTYPE@@@std@@@3@$0A@@std@@@std@@KAAAPAU_Node@?$_Tree_nod@V?$_Tmap_traits@EPAUtagTSVRTYPE@@U?$less@E@std@@V?$allocator@U?$pair@$$CBEPAUtagTSVRTYPE@@@std@@@3@$0A@@std@@@2@PAU342@@Z ENDP ; std::_Tree<std::_Tmap_traits<unsigned char,tagTSVRTYPE *,std::less<unsigned char>,std::allocator<std::pair<unsigned char const ,tagTSVRTYPE *> >,0> >::_Left
_TEXT	ENDS
PUBLIC	?_Myval@?$_Tree@V?$_Tmap_traits@EPAUtagTSVRTYPE@@U?$less@E@std@@V?$allocator@U?$pair@$$CBEPAUtagTSVRTYPE@@@std@@@3@$0A@@std@@@std@@KAAAU?$pair@$$CBEPAUtagTSVRTYPE@@@2@PAU_Node@?$_Tree_nod@V?$_Tmap_traits@EPAUtagTSVRTYPE@@U?$less@E@std@@V?$allocator@U?$pair@$$CBEPAUtagTSVRTYPE@@@std@@@3@$0A@@std@@@2@@Z ; std::_Tree<std::_Tmap_traits<unsigned char,tagTSVRTYPE *,std::less<unsigned char>,std::allocator<std::pair<unsigned char const ,tagTSVRTYPE *> >,0> >::_Myval
; Function compile flags: /Ogty
;	COMDAT ?_Myval@?$_Tree@V?$_Tmap_traits@EPAUtagTSVRTYPE@@U?$less@E@std@@V?$allocator@U?$pair@$$CBEPAUtagTSVRTYPE@@@std@@@3@$0A@@std@@@std@@KAAAU?$pair@$$CBEPAUtagTSVRTYPE@@@2@PAU_Node@?$_Tree_nod@V?$_Tmap_traits@EPAUtagTSVRTYPE@@U?$less@E@std@@V?$allocator@U?$pair@$$CBEPAUtagTSVRTYPE@@@std@@@3@$0A@@std@@@2@@Z
_TEXT	SEGMENT
__Pnode$ = 8						; size = 4
?_Myval@?$_Tree@V?$_Tmap_traits@EPAUtagTSVRTYPE@@U?$less@E@std@@V?$allocator@U?$pair@$$CBEPAUtagTSVRTYPE@@@std@@@3@$0A@@std@@@std@@KAAAU?$pair@$$CBEPAUtagTSVRTYPE@@@2@PAU_Node@?$_Tree_nod@V?$_Tmap_traits@EPAUtagTSVRTYPE@@U?$less@E@std@@V?$allocator@U?$pair@$$CBEPAUtagTSVRTYPE@@@std@@@3@$0A@@std@@@2@@Z PROC NEAR ; std::_Tree<std::_Tmap_traits<unsigned char,tagTSVRTYPE *,std::less<unsigned char>,std::allocator<std::pair<unsigned char const ,tagTSVRTYPE *> >,0> >::_Myval, COMDAT

; 162  : 		return ((_Vref)(*_Pnode)._Myval);

  00000	8b 44 24 04	 mov	 eax, DWORD PTR __Pnode$[esp-4]
  00004	83 c0 0c	 add	 eax, 12			; 0000000cH

; 163  : 		}

  00007	c3		 ret	 0
?_Myval@?$_Tree@V?$_Tmap_traits@EPAUtagTSVRTYPE@@U?$less@E@std@@V?$allocator@U?$pair@$$CBEPAUtagTSVRTYPE@@@std@@@3@$0A@@std@@@std@@KAAAU?$pair@$$CBEPAUtagTSVRTYPE@@@2@PAU_Node@?$_Tree_nod@V?$_Tmap_traits@EPAUtagTSVRTYPE@@U?$less@E@std@@V?$allocator@U?$pair@$$CBEPAUtagTSVRTYPE@@@std@@@3@$0A@@std@@@2@@Z ENDP ; std::_Tree<std::_Tmap_traits<unsigned char,tagTSVRTYPE *,std::less<unsigned char>,std::allocator<std::pair<unsigned char const ,tagTSVRTYPE *> >,0> >::_Myval
_TEXT	ENDS
PUBLIC	??0const_iterator@?$_Tree@V?$_Tmap_traits@EPAUtagTSVRTYPE@@U?$less@E@std@@V?$allocator@U?$pair@$$CBEPAUtagTSVRTYPE@@@std@@@3@$0A@@std@@@std@@QAE@PAU_Node@?$_Tree_nod@V?$_Tmap_traits@EPAUtagTSVRTYPE@@U?$less@E@std@@V?$allocator@U?$pair@$$CBEPAUtagTSVRTYPE@@@std@@@3@$0A@@std@@@2@@Z ; std::_Tree<std::_Tmap_traits<unsigned char,tagTSVRTYPE *,std::less<unsigned char>,std::allocator<std::pair<unsigned char const ,tagTSVRTYPE *> >,0> >::const_iterator::const_iterator
; Function compile flags: /Ogty
;	COMDAT ??0const_iterator@?$_Tree@V?$_Tmap_traits@EPAUtagTSVRTYPE@@U?$less@E@std@@V?$allocator@U?$pair@$$CBEPAUtagTSVRTYPE@@@std@@@3@$0A@@std@@@std@@QAE@PAU_Node@?$_Tree_nod@V?$_Tmap_traits@EPAUtagTSVRTYPE@@U?$less@E@std@@V?$allocator@U?$pair@$$CBEPAUtagTSVRTYPE@@@std@@@3@$0A@@std@@@2@@Z
_TEXT	SEGMENT
__Pnode$ = 8						; size = 4
??0const_iterator@?$_Tree@V?$_Tmap_traits@EPAUtagTSVRTYPE@@U?$less@E@std@@V?$allocator@U?$pair@$$CBEPAUtagTSVRTYPE@@@std@@@3@$0A@@std@@@std@@QAE@PAU_Node@?$_Tree_nod@V?$_Tmap_traits@EPAUtagTSVRTYPE@@U?$less@E@std@@V?$allocator@U?$pair@$$CBEPAUtagTSVRTYPE@@@std@@@3@$0A@@std@@@2@@Z PROC NEAR ; std::_Tree<std::_Tmap_traits<unsigned char,tagTSVRTYPE *,std::less<unsigned char>,std::allocator<std::pair<unsigned char const ,tagTSVRTYPE *> >,0> >::const_iterator::const_iterator, COMDAT
; _this$ = ecx

; 200  : 			{	// construct with node pointer _Pnode

  00000	8b c1		 mov	 eax, ecx
  00002	8b 4c 24 04	 mov	 ecx, DWORD PTR __Pnode$[esp-4]
  00006	89 08		 mov	 DWORD PTR [eax], ecx

; 201  : 			}

  00008	c2 04 00	 ret	 4
??0const_iterator@?$_Tree@V?$_Tmap_traits@EPAUtagTSVRTYPE@@U?$less@E@std@@V?$allocator@U?$pair@$$CBEPAUtagTSVRTYPE@@@std@@@3@$0A@@std@@@std@@QAE@PAU_Node@?$_Tree_nod@V?$_Tmap_traits@EPAUtagTSVRTYPE@@U?$less@E@std@@V?$allocator@U?$pair@$$CBEPAUtagTSVRTYPE@@@std@@@3@$0A@@std@@@2@@Z ENDP ; std::_Tree<std::_Tmap_traits<unsigned char,tagTSVRTYPE *,std::less<unsigned char>,std::allocator<std::pair<unsigned char const ,tagTSVRTYPE *> >,0> >::const_iterator::const_iterator
_TEXT	ENDS
PUBLIC	?_Left@?$_Tree@V?$_Tmap_traits@EPAUtagTMACHINE@@U?$less@E@std@@V?$allocator@U?$pair@$$CBEPAUtagTMACHINE@@@std@@@3@$0A@@std@@@std@@KAAAPAU_Node@?$_Tree_nod@V?$_Tmap_traits@EPAUtagTMACHINE@@U?$less@E@std@@V?$allocator@U?$pair@$$CBEPAUtagTMACHINE@@@std@@@3@$0A@@std@@@2@PAU342@@Z ; std::_Tree<std::_Tmap_traits<unsigned char,tagTMACHINE *,std::less<unsigned char>,std::allocator<std::pair<unsigned char const ,tagTMACHINE *> >,0> >::_Left
; Function compile flags: /Ogty
;	COMDAT ?_Left@?$_Tree@V?$_Tmap_traits@EPAUtagTMACHINE@@U?$less@E@std@@V?$allocator@U?$pair@$$CBEPAUtagTMACHINE@@@std@@@3@$0A@@std@@@std@@KAAAPAU_Node@?$_Tree_nod@V?$_Tmap_traits@EPAUtagTMACHINE@@U?$less@E@std@@V?$allocator@U?$pair@$$CBEPAUtagTMACHINE@@@std@@@3@$0A@@std@@@2@PAU342@@Z
_TEXT	SEGMENT
__Pnode$ = 8						; size = 4
?_Left@?$_Tree@V?$_Tmap_traits@EPAUtagTMACHINE@@U?$less@E@std@@V?$allocator@U?$pair@$$CBEPAUtagTMACHINE@@@std@@@3@$0A@@std@@@std@@KAAAPAU_Node@?$_Tree_nod@V?$_Tmap_traits@EPAUtagTMACHINE@@U?$less@E@std@@V?$allocator@U?$pair@$$CBEPAUtagTMACHINE@@@std@@@3@$0A@@std@@@2@PAU342@@Z PROC NEAR ; std::_Tree<std::_Tmap_traits<unsigned char,tagTMACHINE *,std::less<unsigned char>,std::allocator<std::pair<unsigned char const ,tagTMACHINE *> >,0> >::_Left, COMDAT

; 147  : 		return ((_Nodepref)(*_Pnode)._Left);

  00000	8b 44 24 04	 mov	 eax, DWORD PTR __Pnode$[esp-4]

; 148  : 		}

  00004	c3		 ret	 0
?_Left@?$_Tree@V?$_Tmap_traits@EPAUtagTMACHINE@@U?$less@E@std@@V?$allocator@U?$pair@$$CBEPAUtagTMACHINE@@@std@@@3@$0A@@std@@@std@@KAAAPAU_Node@?$_Tree_nod@V?$_Tmap_traits@EPAUtagTMACHINE@@U?$less@E@std@@V?$allocator@U?$pair@$$CBEPAUtagTMACHINE@@@std@@@3@$0A@@std@@@2@PAU342@@Z ENDP ; std::_Tree<std::_Tmap_traits<unsigned char,tagTMACHINE *,std::less<unsigned char>,std::allocator<std::pair<unsigned char const ,tagTMACHINE *> >,0> >::_Left
_TEXT	ENDS
PUBLIC	?_Myval@?$_Tree@V?$_Tmap_traits@EPAUtagTMACHINE@@U?$less@E@std@@V?$allocator@U?$pair@$$CBEPAUtagTMACHINE@@@std@@@3@$0A@@std@@@std@@KAAAU?$pair@$$CBEPAUtagTMACHINE@@@2@PAU_Node@?$_Tree_nod@V?$_Tmap_traits@EPAUtagTMACHINE@@U?$less@E@std@@V?$allocator@U?$pair@$$CBEPAUtagTMACHINE@@@std@@@3@$0A@@std@@@2@@Z ; std::_Tree<std::_Tmap_traits<unsigned char,tagTMACHINE *,std::less<unsigned char>,std::allocator<std::pair<unsigned char const ,tagTMACHINE *> >,0> >::_Myval
; Function compile flags: /Ogty
;	COMDAT ?_Myval@?$_Tree@V?$_Tmap_traits@EPAUtagTMACHINE@@U?$less@E@std@@V?$allocator@U?$pair@$$CBEPAUtagTMACHINE@@@std@@@3@$0A@@std@@@std@@KAAAU?$pair@$$CBEPAUtagTMACHINE@@@2@PAU_Node@?$_Tree_nod@V?$_Tmap_traits@EPAUtagTMACHINE@@U?$less@E@std@@V?$allocator@U?$pair@$$CBEPAUtagTMACHINE@@@std@@@3@$0A@@std@@@2@@Z
_TEXT	SEGMENT
__Pnode$ = 8						; size = 4
?_Myval@?$_Tree@V?$_Tmap_traits@EPAUtagTMACHINE@@U?$less@E@std@@V?$allocator@U?$pair@$$CBEPAUtagTMACHINE@@@std@@@3@$0A@@std@@@std@@KAAAU?$pair@$$CBEPAUtagTMACHINE@@@2@PAU_Node@?$_Tree_nod@V?$_Tmap_traits@EPAUtagTMACHINE@@U?$less@E@std@@V?$allocator@U?$pair@$$CBEPAUtagTMACHINE@@@std@@@3@$0A@@std@@@2@@Z PROC NEAR ; std::_Tree<std::_Tmap_traits<unsigned char,tagTMACHINE *,std::less<unsigned char>,std::allocator<std::pair<unsigned char const ,tagTMACHINE *> >,0> >::_Myval, COMDAT

; 162  : 		return ((_Vref)(*_Pnode)._Myval);

  00000	8b 44 24 04	 mov	 eax, DWORD PTR __Pnode$[esp-4]
  00004	83 c0 0c	 add	 eax, 12			; 0000000cH

; 163  : 		}

  00007	c3		 ret	 0
?_Myval@?$_Tree@V?$_Tmap_traits@EPAUtagTMACHINE@@U?$less@E@std@@V?$allocator@U?$pair@$$CBEPAUtagTMACHINE@@@std@@@3@$0A@@std@@@std@@KAAAU?$pair@$$CBEPAUtagTMACHINE@@@2@PAU_Node@?$_Tree_nod@V?$_Tmap_traits@EPAUtagTMACHINE@@U?$less@E@std@@V?$allocator@U?$pair@$$CBEPAUtagTMACHINE@@@std@@@3@$0A@@std@@@2@@Z ENDP ; std::_Tree<std::_Tmap_traits<unsigned char,tagTMACHINE *,std::less<unsigned char>,std::allocator<std::pair<unsigned char const ,tagTMACHINE *> >,0> >::_Myval
_TEXT	ENDS
PUBLIC	??0const_iterator@?$_Tree@V?$_Tmap_traits@EPAUtagTMACHINE@@U?$less@E@std@@V?$allocator@U?$pair@$$CBEPAUtagTMACHINE@@@std@@@3@$0A@@std@@@std@@QAE@PAU_Node@?$_Tree_nod@V?$_Tmap_traits@EPAUtagTMACHINE@@U?$less@E@std@@V?$allocator@U?$pair@$$CBEPAUtagTMACHINE@@@std@@@3@$0A@@std@@@2@@Z ; std::_Tree<std::_Tmap_traits<unsigned char,tagTMACHINE *,std::less<unsigned char>,std::allocator<std::pair<unsigned char const ,tagTMACHINE *> >,0> >::const_iterator::const_iterator
; Function compile flags: /Ogty
;	COMDAT ??0const_iterator@?$_Tree@V?$_Tmap_traits@EPAUtagTMACHINE@@U?$less@E@std@@V?$allocator@U?$pair@$$CBEPAUtagTMACHINE@@@std@@@3@$0A@@std@@@std@@QAE@PAU_Node@?$_Tree_nod@V?$_Tmap_traits@EPAUtagTMACHINE@@U?$less@E@std@@V?$allocator@U?$pair@$$CBEPAUtagTMACHINE@@@std@@@3@$0A@@std@@@2@@Z
_TEXT	SEGMENT
__Pnode$ = 8						; size = 4
??0const_iterator@?$_Tree@V?$_Tmap_traits@EPAUtagTMACHINE@@U?$less@E@std@@V?$allocator@U?$pair@$$CBEPAUtagTMACHINE@@@std@@@3@$0A@@std@@@std@@QAE@PAU_Node@?$_Tree_nod@V?$_Tmap_traits@EPAUtagTMACHINE@@U?$less@E@std@@V?$allocator@U?$pair@$$CBEPAUtagTMACHINE@@@std@@@3@$0A@@std@@@2@@Z PROC NEAR ; std::_Tree<std::_Tmap_traits<unsigned char,tagTMACHINE *,std::less<unsigned char>,std::allocator<std::pair<unsigned char const ,tagTMACHINE *> >,0> >::const_iterator::const_iterator, COMDAT
; _this$ = ecx

; 200  : 			{	// construct with node pointer _Pnode

  00000	8b c1		 mov	 eax, ecx
  00002	8b 4c 24 04	 mov	 ecx, DWORD PTR __Pnode$[esp-4]
  00006	89 08		 mov	 DWORD PTR [eax], ecx

; 201  : 			}

  00008	c2 04 00	 ret	 4
??0const_iterator@?$_Tree@V?$_Tmap_traits@EPAUtagTMACHINE@@U?$less@E@std@@V?$allocator@U?$pair@$$CBEPAUtagTMACHINE@@@std@@@3@$0A@@std@@@std@@QAE@PAU_Node@?$_Tree_nod@V?$_Tmap_traits@EPAUtagTMACHINE@@U?$less@E@std@@V?$allocator@U?$pair@$$CBEPAUtagTMACHINE@@@std@@@3@$0A@@std@@@2@@Z ENDP ; std::_Tree<std::_Tmap_traits<unsigned char,tagTMACHINE *,std::less<unsigned char>,std::allocator<std::pair<unsigned char const ,tagTMACHINE *> >,0> >::const_iterator::const_iterator
_TEXT	ENDS
PUBLIC	?_Left@?$_Tree@V?$_Tmap_traits@EPAUtagTGROUP@@U?$less@E@std@@V?$allocator@U?$pair@$$CBEPAUtagTGROUP@@@std@@@3@$0A@@std@@@std@@KAAAPAU_Node@?$_Tree_nod@V?$_Tmap_traits@EPAUtagTGROUP@@U?$less@E@std@@V?$allocator@U?$pair@$$CBEPAUtagTGROUP@@@std@@@3@$0A@@std@@@2@PAU342@@Z ; std::_Tree<std::_Tmap_traits<unsigned char,tagTGROUP *,std::less<unsigned char>,std::allocator<std::pair<unsigned char const ,tagTGROUP *> >,0> >::_Left
; Function compile flags: /Ogty
;	COMDAT ?_Left@?$_Tree@V?$_Tmap_traits@EPAUtagTGROUP@@U?$less@E@std@@V?$allocator@U?$pair@$$CBEPAUtagTGROUP@@@std@@@3@$0A@@std@@@std@@KAAAPAU_Node@?$_Tree_nod@V?$_Tmap_traits@EPAUtagTGROUP@@U?$less@E@std@@V?$allocator@U?$pair@$$CBEPAUtagTGROUP@@@std@@@3@$0A@@std@@@2@PAU342@@Z
_TEXT	SEGMENT
__Pnode$ = 8						; size = 4
?_Left@?$_Tree@V?$_Tmap_traits@EPAUtagTGROUP@@U?$less@E@std@@V?$allocator@U?$pair@$$CBEPAUtagTGROUP@@@std@@@3@$0A@@std@@@std@@KAAAPAU_Node@?$_Tree_nod@V?$_Tmap_traits@EPAUtagTGROUP@@U?$less@E@std@@V?$allocator@U?$pair@$$CBEPAUtagTGROUP@@@std@@@3@$0A@@std@@@2@PAU342@@Z PROC NEAR ; std::_Tree<std::_Tmap_traits<unsigned char,tagTGROUP *,std::less<unsigned char>,std::allocator<std::pair<unsigned char const ,tagTGROUP *> >,0> >::_Left, COMDAT

; 147  : 		return ((_Nodepref)(*_Pnode)._Left);

  00000	8b 44 24 04	 mov	 eax, DWORD PTR __Pnode$[esp-4]

; 148  : 		}

  00004	c3		 ret	 0
?_Left@?$_Tree@V?$_Tmap_traits@EPAUtagTGROUP@@U?$less@E@std@@V?$allocator@U?$pair@$$CBEPAUtagTGROUP@@@std@@@3@$0A@@std@@@std@@KAAAPAU_Node@?$_Tree_nod@V?$_Tmap_traits@EPAUtagTGROUP@@U?$less@E@std@@V?$allocator@U?$pair@$$CBEPAUtagTGROUP@@@std@@@3@$0A@@std@@@2@PAU342@@Z ENDP ; std::_Tree<std::_Tmap_traits<unsigned char,tagTGROUP *,std::less<unsigned char>,std::allocator<std::pair<unsigned char const ,tagTGROUP *> >,0> >::_Left
_TEXT	ENDS
PUBLIC	?_Myval@?$_Tree@V?$_Tmap_traits@EPAUtagTGROUP@@U?$less@E@std@@V?$allocator@U?$pair@$$CBEPAUtagTGROUP@@@std@@@3@$0A@@std@@@std@@KAAAU?$pair@$$CBEPAUtagTGROUP@@@2@PAU_Node@?$_Tree_nod@V?$_Tmap_traits@EPAUtagTGROUP@@U?$less@E@std@@V?$allocator@U?$pair@$$CBEPAUtagTGROUP@@@std@@@3@$0A@@std@@@2@@Z ; std::_Tree<std::_Tmap_traits<unsigned char,tagTGROUP *,std::less<unsigned char>,std::allocator<std::pair<unsigned char const ,tagTGROUP *> >,0> >::_Myval
; Function compile flags: /Ogty
;	COMDAT ?_Myval@?$_Tree@V?$_Tmap_traits@EPAUtagTGROUP@@U?$less@E@std@@V?$allocator@U?$pair@$$CBEPAUtagTGROUP@@@std@@@3@$0A@@std@@@std@@KAAAU?$pair@$$CBEPAUtagTGROUP@@@2@PAU_Node@?$_Tree_nod@V?$_Tmap_traits@EPAUtagTGROUP@@U?$less@E@std@@V?$allocator@U?$pair@$$CBEPAUtagTGROUP@@@std@@@3@$0A@@std@@@2@@Z
_TEXT	SEGMENT
__Pnode$ = 8						; size = 4
?_Myval@?$_Tree@V?$_Tmap_traits@EPAUtagTGROUP@@U?$less@E@std@@V?$allocator@U?$pair@$$CBEPAUtagTGROUP@@@std@@@3@$0A@@std@@@std@@KAAAU?$pair@$$CBEPAUtagTGROUP@@@2@PAU_Node@?$_Tree_nod@V?$_Tmap_traits@EPAUtagTGROUP@@U?$less@E@std@@V?$allocator@U?$pair@$$CBEPAUtagTGROUP@@@std@@@3@$0A@@std@@@2@@Z PROC NEAR ; std::_Tree<std::_Tmap_traits<unsigned char,tagTGROUP *,std::less<unsigned char>,std::allocator<std::pair<unsigned char const ,tagTGROUP *> >,0> >::_Myval, COMDAT

; 162  : 		return ((_Vref)(*_Pnode)._Myval);

  00000	8b 44 24 04	 mov	 eax, DWORD PTR __Pnode$[esp-4]
  00004	83 c0 0c	 add	 eax, 12			; 0000000cH

; 163  : 		}

  00007	c3		 ret	 0
?_Myval@?$_Tree@V?$_Tmap_traits@EPAUtagTGROUP@@U?$less@E@std@@V?$allocator@U?$pair@$$CBEPAUtagTGROUP@@@std@@@3@$0A@@std@@@std@@KAAAU?$pair@$$CBEPAUtagTGROUP@@@2@PAU_Node@?$_Tree_nod@V?$_Tmap_traits@EPAUtagTGROUP@@U?$less@E@std@@V?$allocator@U?$pair@$$CBEPAUtagTGROUP@@@std@@@3@$0A@@std@@@2@@Z ENDP ; std::_Tree<std::_Tmap_traits<unsigned char,tagTGROUP *,std::less<unsigned char>,std::allocator<std::pair<unsigned char const ,tagTGROUP *> >,0> >::_Myval
_TEXT	ENDS
PUBLIC	??0const_iterator@?$_Tree@V?$_Tmap_traits@EPAUtagTGROUP@@U?$less@E@std@@V?$allocator@U?$pair@$$CBEPAUtagTGROUP@@@std@@@3@$0A@@std@@@std@@QAE@PAU_Node@?$_Tree_nod@V?$_Tmap_traits@EPAUtagTGROUP@@U?$less@E@std@@V?$allocator@U?$pair@$$CBEPAUtagTGROUP@@@std@@@3@$0A@@std@@@2@@Z ; std::_Tree<std::_Tmap_traits<unsigned char,tagTGROUP *,std::less<unsigned char>,std::allocator<std::pair<unsigned char const ,tagTGROUP *> >,0> >::const_iterator::const_iterator
; Function compile flags: /Ogty
;	COMDAT ??0const_iterator@?$_Tree@V?$_Tmap_traits@EPAUtagTGROUP@@U?$less@E@std@@V?$allocator@U?$pair@$$CBEPAUtagTGROUP@@@std@@@3@$0A@@std@@@std@@QAE@PAU_Node@?$_Tree_nod@V?$_Tmap_traits@EPAUtagTGROUP@@U?$less@E@std@@V?$allocator@U?$pair@$$CBEPAUtagTGROUP@@@std@@@3@$0A@@std@@@2@@Z
_TEXT	SEGMENT
__Pnode$ = 8						; size = 4
??0const_iterator@?$_Tree@V?$_Tmap_traits@EPAUtagTGROUP@@U?$less@E@std@@V?$allocator@U?$pair@$$CBEPAUtagTGROUP@@@std@@@3@$0A@@std@@@std@@QAE@PAU_Node@?$_Tree_nod@V?$_Tmap_traits@EPAUtagTGROUP@@U?$less@E@std@@V?$allocator@U?$pair@$$CBEPAUtagTGROUP@@@std@@@3@$0A@@std@@@2@@Z PROC NEAR ; std::_Tree<std::_Tmap_traits<unsigned char,tagTGROUP *,std::less<unsigned char>,std::allocator<std::pair<unsigned char const ,tagTGROUP *> >,0> >::const_iterator::const_iterator, COMDAT
; _this$ = ecx

; 200  : 			{	// construct with node pointer _Pnode

  00000	8b c1		 mov	 eax, ecx
  00002	8b 4c 24 04	 mov	 ecx, DWORD PTR __Pnode$[esp-4]
  00006	89 08		 mov	 DWORD PTR [eax], ecx

; 201  : 			}

  00008	c2 04 00	 ret	 4
??0const_iterator@?$_Tree@V?$_Tmap_traits@EPAUtagTGROUP@@U?$less@E@std@@V?$allocator@U?$pair@$$CBEPAUtagTGROUP@@@std@@@3@$0A@@std@@@std@@QAE@PAU_Node@?$_Tree_nod@V?$_Tmap_traits@EPAUtagTGROUP@@U?$less@E@std@@V?$allocator@U?$pair@$$CBEPAUtagTGROUP@@@std@@@3@$0A@@std@@@2@@Z ENDP ; std::_Tree<std::_Tmap_traits<unsigned char,tagTGROUP *,std::less<unsigned char>,std::allocator<std::pair<unsigned char const ,tagTGROUP *> >,0> >::const_iterator::const_iterator
_TEXT	ENDS
PUBLIC	?_Left@?$_Tree@V?$_Tmap_traits@KPAUtagTSVRTEMP@@U?$less@K@std@@V?$allocator@U?$pair@$$CBKPAUtagTSVRTEMP@@@std@@@3@$0A@@std@@@std@@KAAAPAU_Node@?$_Tree_nod@V?$_Tmap_traits@KPAUtagTSVRTEMP@@U?$less@K@std@@V?$allocator@U?$pair@$$CBKPAUtagTSVRTEMP@@@std@@@3@$0A@@std@@@2@PAU342@@Z ; std::_Tree<std::_Tmap_traits<unsigned long,tagTSVRTEMP *,std::less<unsigned long>,std::allocator<std::pair<unsigned long const ,tagTSVRTEMP *> >,0> >::_Left
; Function compile flags: /Ogty
;	COMDAT ?_Left@?$_Tree@V?$_Tmap_traits@KPAUtagTSVRTEMP@@U?$less@K@std@@V?$allocator@U?$pair@$$CBKPAUtagTSVRTEMP@@@std@@@3@$0A@@std@@@std@@KAAAPAU_Node@?$_Tree_nod@V?$_Tmap_traits@KPAUtagTSVRTEMP@@U?$less@K@std@@V?$allocator@U?$pair@$$CBKPAUtagTSVRTEMP@@@std@@@3@$0A@@std@@@2@PAU342@@Z
_TEXT	SEGMENT
__Pnode$ = 8						; size = 4
?_Left@?$_Tree@V?$_Tmap_traits@KPAUtagTSVRTEMP@@U?$less@K@std@@V?$allocator@U?$pair@$$CBKPAUtagTSVRTEMP@@@std@@@3@$0A@@std@@@std@@KAAAPAU_Node@?$_Tree_nod@V?$_Tmap_traits@KPAUtagTSVRTEMP@@U?$less@K@std@@V?$allocator@U?$pair@$$CBKPAUtagTSVRTEMP@@@std@@@3@$0A@@std@@@2@PAU342@@Z PROC NEAR ; std::_Tree<std::_Tmap_traits<unsigned long,tagTSVRTEMP *,std::less<unsigned long>,std::allocator<std::pair<unsigned long const ,tagTSVRTEMP *> >,0> >::_Left, COMDAT

; 147  : 		return ((_Nodepref)(*_Pnode)._Left);

  00000	8b 44 24 04	 mov	 eax, DWORD PTR __Pnode$[esp-4]

; 148  : 		}

  00004	c3		 ret	 0
?_Left@?$_Tree@V?$_Tmap_traits@KPAUtagTSVRTEMP@@U?$less@K@std@@V?$allocator@U?$pair@$$CBKPAUtagTSVRTEMP@@@std@@@3@$0A@@std@@@std@@KAAAPAU_Node@?$_Tree_nod@V?$_Tmap_traits@KPAUtagTSVRTEMP@@U?$less@K@std@@V?$allocator@U?$pair@$$CBKPAUtagTSVRTEMP@@@std@@@3@$0A@@std@@@2@PAU342@@Z ENDP ; std::_Tree<std::_Tmap_traits<unsigned long,tagTSVRTEMP *,std::less<unsigned long>,std::allocator<std::pair<unsigned long const ,tagTSVRTEMP *> >,0> >::_Left
_TEXT	ENDS
PUBLIC	?_Myval@?$_Tree@V?$_Tmap_traits@KPAUtagTSVRTEMP@@U?$less@K@std@@V?$allocator@U?$pair@$$CBKPAUtagTSVRTEMP@@@std@@@3@$0A@@std@@@std@@KAAAU?$pair@$$CBKPAUtagTSVRTEMP@@@2@PAU_Node@?$_Tree_nod@V?$_Tmap_traits@KPAUtagTSVRTEMP@@U?$less@K@std@@V?$allocator@U?$pair@$$CBKPAUtagTSVRTEMP@@@std@@@3@$0A@@std@@@2@@Z ; std::_Tree<std::_Tmap_traits<unsigned long,tagTSVRTEMP *,std::less<unsigned long>,std::allocator<std::pair<unsigned long const ,tagTSVRTEMP *> >,0> >::_Myval
; Function compile flags: /Ogty
;	COMDAT ?_Myval@?$_Tree@V?$_Tmap_traits@KPAUtagTSVRTEMP@@U?$less@K@std@@V?$allocator@U?$pair@$$CBKPAUtagTSVRTEMP@@@std@@@3@$0A@@std@@@std@@KAAAU?$pair@$$CBKPAUtagTSVRTEMP@@@2@PAU_Node@?$_Tree_nod@V?$_Tmap_traits@KPAUtagTSVRTEMP@@U?$less@K@std@@V?$allocator@U?$pair@$$CBKPAUtagTSVRTEMP@@@std@@@3@$0A@@std@@@2@@Z
_TEXT	SEGMENT
__Pnode$ = 8						; size = 4
?_Myval@?$_Tree@V?$_Tmap_traits@KPAUtagTSVRTEMP@@U?$less@K@std@@V?$allocator@U?$pair@$$CBKPAUtagTSVRTEMP@@@std@@@3@$0A@@std@@@std@@KAAAU?$pair@$$CBKPAUtagTSVRTEMP@@@2@PAU_Node@?$_Tree_nod@V?$_Tmap_traits@KPAUtagTSVRTEMP@@U?$less@K@std@@V?$allocator@U?$pair@$$CBKPAUtagTSVRTEMP@@@std@@@3@$0A@@std@@@2@@Z PROC NEAR ; std::_Tree<std::_Tmap_traits<unsigned long,tagTSVRTEMP *,std::less<unsigned long>,std::allocator<std::pair<unsigned long const ,tagTSVRTEMP *> >,0> >::_Myval, COMDAT

; 162  : 		return ((_Vref)(*_Pnode)._Myval);

  00000	8b 44 24 04	 mov	 eax, DWORD PTR __Pnode$[esp-4]
  00004	83 c0 0c	 add	 eax, 12			; 0000000cH

; 163  : 		}

  00007	c3		 ret	 0
?_Myval@?$_Tree@V?$_Tmap_traits@KPAUtagTSVRTEMP@@U?$less@K@std@@V?$allocator@U?$pair@$$CBKPAUtagTSVRTEMP@@@std@@@3@$0A@@std@@@std@@KAAAU?$pair@$$CBKPAUtagTSVRTEMP@@@2@PAU_Node@?$_Tree_nod@V?$_Tmap_traits@KPAUtagTSVRTEMP@@U?$less@K@std@@V?$allocator@U?$pair@$$CBKPAUtagTSVRTEMP@@@std@@@3@$0A@@std@@@2@@Z ENDP ; std::_Tree<std::_Tmap_traits<unsigned long,tagTSVRTEMP *,std::less<unsigned long>,std::allocator<std::pair<unsigned long const ,tagTSVRTEMP *> >,0> >::_Myval
_TEXT	ENDS
PUBLIC	??0const_iterator@?$_Tree@V?$_Tmap_traits@KPAUtagTSVRTEMP@@U?$less@K@std@@V?$allocator@U?$pair@$$CBKPAUtagTSVRTEMP@@@std@@@3@$0A@@std@@@std@@QAE@PAU_Node@?$_Tree_nod@V?$_Tmap_traits@KPAUtagTSVRTEMP@@U?$less@K@std@@V?$allocator@U?$pair@$$CBKPAUtagTSVRTEMP@@@std@@@3@$0A@@std@@@2@@Z ; std::_Tree<std::_Tmap_traits<unsigned long,tagTSVRTEMP *,std::less<unsigned long>,std::allocator<std::pair<unsigned long const ,tagTSVRTEMP *> >,0> >::const_iterator::const_iterator
; Function compile flags: /Ogty
;	COMDAT ??0const_iterator@?$_Tree@V?$_Tmap_traits@KPAUtagTSVRTEMP@@U?$less@K@std@@V?$allocator@U?$pair@$$CBKPAUtagTSVRTEMP@@@std@@@3@$0A@@std@@@std@@QAE@PAU_Node@?$_Tree_nod@V?$_Tmap_traits@KPAUtagTSVRTEMP@@U?$less@K@std@@V?$allocator@U?$pair@$$CBKPAUtagTSVRTEMP@@@std@@@3@$0A@@std@@@2@@Z
_TEXT	SEGMENT
__Pnode$ = 8						; size = 4
??0const_iterator@?$_Tree@V?$_Tmap_traits@KPAUtagTSVRTEMP@@U?$less@K@std@@V?$allocator@U?$pair@$$CBKPAUtagTSVRTEMP@@@std@@@3@$0A@@std@@@std@@QAE@PAU_Node@?$_Tree_nod@V?$_Tmap_traits@KPAUtagTSVRTEMP@@U?$less@K@std@@V?$allocator@U?$pair@$$CBKPAUtagTSVRTEMP@@@std@@@3@$0A@@std@@@2@@Z PROC NEAR ; std::_Tree<std::_Tmap_traits<unsigned long,tagTSVRTEMP *,std::less<unsigned long>,std::allocator<std::pair<unsigned long const ,tagTSVRTEMP *> >,0> >::const_iterator::const_iterator, COMDAT
; _this$ = ecx

; 200  : 			{	// construct with node pointer _Pnode

  00000	8b c1		 mov	 eax, ecx
  00002	8b 4c 24 04	 mov	 ecx, DWORD PTR __Pnode$[esp-4]
  00006	89 08		 mov	 DWORD PTR [eax], ecx

; 201  : 			}

  00008	c2 04 00	 ret	 4
??0const_iterator@?$_Tree@V?$_Tmap_traits@KPAUtagTSVRTEMP@@U?$less@K@std@@V?$allocator@U?$pair@$$CBKPAUtagTSVRTEMP@@@std@@@3@$0A@@std@@@std@@QAE@PAU_Node@?$_Tree_nod@V?$_Tmap_traits@KPAUtagTSVRTEMP@@U?$less@K@std@@V?$allocator@U?$pair@$$CBKPAUtagTSVRTEMP@@@std@@@3@$0A@@std@@@2@@Z ENDP ; std::_Tree<std::_Tmap_traits<unsigned long,tagTSVRTEMP *,std::less<unsigned long>,std::allocator<std::pair<unsigned long const ,tagTSVRTEMP *> >,0> >::const_iterator::const_iterator
_TEXT	ENDS
PUBLIC	?_Left@?$_Tree@V?$_Tmap_traits@KPAUtagBANINFO@@U?$less@K@std@@V?$allocator@U?$pair@$$CBKPAUtagBANINFO@@@std@@@3@$0A@@std@@@std@@KAAAPAU_Node@?$_Tree_nod@V?$_Tmap_traits@KPAUtagBANINFO@@U?$less@K@std@@V?$allocator@U?$pair@$$CBKPAUtagBANINFO@@@std@@@3@$0A@@std@@@2@PAU342@@Z ; std::_Tree<std::_Tmap_traits<unsigned long,tagBANINFO *,std::less<unsigned long>,std::allocator<std::pair<unsigned long const ,tagBANINFO *> >,0> >::_Left
; Function compile flags: /Ogty
;	COMDAT ?_Left@?$_Tree@V?$_Tmap_traits@KPAUtagBANINFO@@U?$less@K@std@@V?$allocator@U?$pair@$$CBKPAUtagBANINFO@@@std@@@3@$0A@@std@@@std@@KAAAPAU_Node@?$_Tree_nod@V?$_Tmap_traits@KPAUtagBANINFO@@U?$less@K@std@@V?$allocator@U?$pair@$$CBKPAUtagBANINFO@@@std@@@3@$0A@@std@@@2@PAU342@@Z
_TEXT	SEGMENT
__Pnode$ = 8						; size = 4
?_Left@?$_Tree@V?$_Tmap_traits@KPAUtagBANINFO@@U?$less@K@std@@V?$allocator@U?$pair@$$CBKPAUtagBANINFO@@@std@@@3@$0A@@std@@@std@@KAAAPAU_Node@?$_Tree_nod@V?$_Tmap_traits@KPAUtagBANINFO@@U?$less@K@std@@V?$allocator@U?$pair@$$CBKPAUtagBANINFO@@@std@@@3@$0A@@std@@@2@PAU342@@Z PROC NEAR ; std::_Tree<std::_Tmap_traits<unsigned long,tagBANINFO *,std::less<unsigned long>,std::allocator<std::pair<unsigned long const ,tagBANINFO *> >,0> >::_Left, COMDAT

; 147  : 		return ((_Nodepref)(*_Pnode)._Left);

  00000	8b 44 24 04	 mov	 eax, DWORD PTR __Pnode$[esp-4]

; 148  : 		}

  00004	c3		 ret	 0
?_Left@?$_Tree@V?$_Tmap_traits@KPAUtagBANINFO@@U?$less@K@std@@V?$allocator@U?$pair@$$CBKPAUtagBANINFO@@@std@@@3@$0A@@std@@@std@@KAAAPAU_Node@?$_Tree_nod@V?$_Tmap_traits@KPAUtagBANINFO@@U?$less@K@std@@V?$allocator@U?$pair@$$CBKPAUtagBANINFO@@@std@@@3@$0A@@std@@@2@PAU342@@Z ENDP ; std::_Tree<std::_Tmap_traits<unsigned long,tagBANINFO *,std::less<unsigned long>,std::allocator<std::pair<unsigned long const ,tagBANINFO *> >,0> >::_Left
_TEXT	ENDS
PUBLIC	?_Myval@?$_Tree@V?$_Tmap_traits@KPAUtagBANINFO@@U?$less@K@std@@V?$allocator@U?$pair@$$CBKPAUtagBANINFO@@@std@@@3@$0A@@std@@@std@@KAAAU?$pair@$$CBKPAUtagBANINFO@@@2@PAU_Node@?$_Tree_nod@V?$_Tmap_traits@KPAUtagBANINFO@@U?$less@K@std@@V?$allocator@U?$pair@$$CBKPAUtagBANINFO@@@std@@@3@$0A@@std@@@2@@Z ; std::_Tree<std::_Tmap_traits<unsigned long,tagBANINFO *,std::less<unsigned long>,std::allocator<std::pair<unsigned long const ,tagBANINFO *> >,0> >::_Myval
; Function compile flags: /Ogty
;	COMDAT ?_Myval@?$_Tree@V?$_Tmap_traits@KPAUtagBANINFO@@U?$less@K@std@@V?$allocator@U?$pair@$$CBKPAUtagBANINFO@@@std@@@3@$0A@@std@@@std@@KAAAU?$pair@$$CBKPAUtagBANINFO@@@2@PAU_Node@?$_Tree_nod@V?$_Tmap_traits@KPAUtagBANINFO@@U?$less@K@std@@V?$allocator@U?$pair@$$CBKPAUtagBANINFO@@@std@@@3@$0A@@std@@@2@@Z
_TEXT	SEGMENT
__Pnode$ = 8						; size = 4
?_Myval@?$_Tree@V?$_Tmap_traits@KPAUtagBANINFO@@U?$less@K@std@@V?$allocator@U?$pair@$$CBKPAUtagBANINFO@@@std@@@3@$0A@@std@@@std@@KAAAU?$pair@$$CBKPAUtagBANINFO@@@2@PAU_Node@?$_Tree_nod@V?$_Tmap_traits@KPAUtagBANINFO@@U?$less@K@std@@V?$allocator@U?$pair@$$CBKPAUtagBANINFO@@@std@@@3@$0A@@std@@@2@@Z PROC NEAR ; std::_Tree<std::_Tmap_traits<unsigned long,tagBANINFO *,std::less<unsigned long>,std::allocator<std::pair<unsigned long const ,tagBANINFO *> >,0> >::_Myval, COMDAT

; 162  : 		return ((_Vref)(*_Pnode)._Myval);

  00000	8b 44 24 04	 mov	 eax, DWORD PTR __Pnode$[esp-4]
  00004	83 c0 0c	 add	 eax, 12			; 0000000cH

; 163  : 		}

  00007	c3		 ret	 0
?_Myval@?$_Tree@V?$_Tmap_traits@KPAUtagBANINFO@@U?$less@K@std@@V?$allocator@U?$pair@$$CBKPAUtagBANINFO@@@std@@@3@$0A@@std@@@std@@KAAAU?$pair@$$CBKPAUtagBANINFO@@@2@PAU_Node@?$_Tree_nod@V?$_Tmap_traits@KPAUtagBANINFO@@U?$less@K@std@@V?$allocator@U?$pair@$$CBKPAUtagBANINFO@@@std@@@3@$0A@@std@@@2@@Z ENDP ; std::_Tree<std::_Tmap_traits<unsigned long,tagBANINFO *,std::less<unsigned long>,std::allocator<std::pair<unsigned long const ,tagBANINFO *> >,0> >::_Myval
_TEXT	ENDS
PUBLIC	??0const_iterator@?$_Tree@V?$_Tmap_traits@KPAUtagBANINFO@@U?$less@K@std@@V?$allocator@U?$pair@$$CBKPAUtagBANINFO@@@std@@@3@$0A@@std@@@std@@QAE@PAU_Node@?$_Tree_nod@V?$_Tmap_traits@KPAUtagBANINFO@@U?$less@K@std@@V?$allocator@U?$pair@$$CBKPAUtagBANINFO@@@std@@@3@$0A@@std@@@2@@Z ; std::_Tree<std::_Tmap_traits<unsigned long,tagBANINFO *,std::less<unsigned long>,std::allocator<std::pair<unsigned long const ,tagBANINFO *> >,0> >::const_iterator::const_iterator
; Function compile flags: /Ogty
;	COMDAT ??0const_iterator@?$_Tree@V?$_Tmap_traits@KPAUtagBANINFO@@U?$less@K@std@@V?$allocator@U?$pair@$$CBKPAUtagBANINFO@@@std@@@3@$0A@@std@@@std@@QAE@PAU_Node@?$_Tree_nod@V?$_Tmap_traits@KPAUtagBANINFO@@U?$less@K@std@@V?$allocator@U?$pair@$$CBKPAUtagBANINFO@@@std@@@3@$0A@@std@@@2@@Z
_TEXT	SEGMENT
__Pnode$ = 8						; size = 4
??0const_iterator@?$_Tree@V?$_Tmap_traits@KPAUtagBANINFO@@U?$less@K@std@@V?$allocator@U?$pair@$$CBKPAUtagBANINFO@@@std@@@3@$0A@@std@@@std@@QAE@PAU_Node@?$_Tree_nod@V?$_Tmap_traits@KPAUtagBANINFO@@U?$less@K@std@@V?$allocator@U?$pair@$$CBKPAUtagBANINFO@@@std@@@3@$0A@@std@@@2@@Z PROC NEAR ; std::_Tree<std::_Tmap_traits<unsigned long,tagBANINFO *,std::less<unsigned long>,std::allocator<std::pair<unsigned long const ,tagBANINFO *> >,0> >::const_iterator::const_iterator, COMDAT
; _this$ = ecx

; 200  : 			{	// construct with node pointer _Pnode

  00000	8b c1		 mov	 eax, ecx
  00002	8b 4c 24 04	 mov	 ecx, DWORD PTR __Pnode$[esp-4]
  00006	89 08		 mov	 DWORD PTR [eax], ecx

; 201  : 			}

  00008	c2 04 00	 ret	 4
??0const_iterator@?$_Tree@V?$_Tmap_traits@KPAUtagBANINFO@@U?$less@K@std@@V?$allocator@U?$pair@$$CBKPAUtagBANINFO@@@std@@@3@$0A@@std@@@std@@QAE@PAU_Node@?$_Tree_nod@V?$_Tmap_traits@KPAUtagBANINFO@@U?$less@K@std@@V?$allocator@U?$pair@$$CBKPAUtagBANINFO@@@std@@@3@$0A@@std@@@2@@Z ENDP ; std::_Tree<std::_Tmap_traits<unsigned long,tagBANINFO *,std::less<unsigned long>,std::allocator<std::pair<unsigned long const ,tagBANINFO *> >,0> >::const_iterator::const_iterator
_TEXT	ENDS
PUBLIC	?_Left@?$_Tree@V?$_Tmap_traits@KUtagEVENTINFO@@U?$less@K@std@@V?$allocator@U?$pair@$$CBKUtagEVENTINFO@@@std@@@3@$0A@@std@@@std@@KAAAPAU_Node@?$_Tree_nod@V?$_Tmap_traits@KUtagEVENTINFO@@U?$less@K@std@@V?$allocator@U?$pair@$$CBKUtagEVENTINFO@@@std@@@3@$0A@@std@@@2@PAU342@@Z ; std::_Tree<std::_Tmap_traits<unsigned long,tagEVENTINFO,std::less<unsigned long>,std::allocator<std::pair<unsigned long const ,tagEVENTINFO> >,0> >::_Left
; Function compile flags: /Ogty
;	COMDAT ?_Left@?$_Tree@V?$_Tmap_traits@KUtagEVENTINFO@@U?$less@K@std@@V?$allocator@U?$pair@$$CBKUtagEVENTINFO@@@std@@@3@$0A@@std@@@std@@KAAAPAU_Node@?$_Tree_nod@V?$_Tmap_traits@KUtagEVENTINFO@@U?$less@K@std@@V?$allocator@U?$pair@$$CBKUtagEVENTINFO@@@std@@@3@$0A@@std@@@2@PAU342@@Z
_TEXT	SEGMENT
__Pnode$ = 8						; size = 4
?_Left@?$_Tree@V?$_Tmap_traits@KUtagEVENTINFO@@U?$less@K@std@@V?$allocator@U?$pair@$$CBKUtagEVENTINFO@@@std@@@3@$0A@@std@@@std@@KAAAPAU_Node@?$_Tree_nod@V?$_Tmap_traits@KUtagEVENTINFO@@U?$less@K@std@@V?$allocator@U?$pair@$$CBKUtagEVENTINFO@@@std@@@3@$0A@@std@@@2@PAU342@@Z PROC NEAR ; std::_Tree<std::_Tmap_traits<unsigned long,tagEVENTINFO,std::less<unsigned long>,std::allocator<std::pair<unsigned long const ,tagEVENTINFO> >,0> >::_Left, COMDAT

; 147  : 		return ((_Nodepref)(*_Pnode)._Left);

  00000	8b 44 24 04	 mov	 eax, DWORD PTR __Pnode$[esp-4]

; 148  : 		}

  00004	c3		 ret	 0
?_Left@?$_Tree@V?$_Tmap_traits@KUtagEVENTINFO@@U?$less@K@std@@V?$allocator@U?$pair@$$CBKUtagEVENTINFO@@@std@@@3@$0A@@std@@@std@@KAAAPAU_Node@?$_Tree_nod@V?$_Tmap_traits@KUtagEVENTINFO@@U?$less@K@std@@V?$allocator@U?$pair@$$CBKUtagEVENTINFO@@@std@@@3@$0A@@std@@@2@PAU342@@Z ENDP ; std::_Tree<std::_Tmap_traits<unsigned long,tagEVENTINFO,std::less<unsigned long>,std::allocator<std::pair<unsigned long const ,tagEVENTINFO> >,0> >::_Left
_TEXT	ENDS
PUBLIC	?_Myval@?$_Tree@V?$_Tmap_traits@KUtagEVENTINFO@@U?$less@K@std@@V?$allocator@U?$pair@$$CBKUtagEVENTINFO@@@std@@@3@$0A@@std@@@std@@KAAAU?$pair@$$CBKUtagEVENTINFO@@@2@PAU_Node@?$_Tree_nod@V?$_Tmap_traits@KUtagEVENTINFO@@U?$less@K@std@@V?$allocator@U?$pair@$$CBKUtagEVENTINFO@@@std@@@3@$0A@@std@@@2@@Z ; std::_Tree<std::_Tmap_traits<unsigned long,tagEVENTINFO,std::less<unsigned long>,std::allocator<std::pair<unsigned long const ,tagEVENTINFO> >,0> >::_Myval
; Function compile flags: /Ogty
;	COMDAT ?_Myval@?$_Tree@V?$_Tmap_traits@KUtagEVENTINFO@@U?$less@K@std@@V?$allocator@U?$pair@$$CBKUtagEVENTINFO@@@std@@@3@$0A@@std@@@std@@KAAAU?$pair@$$CBKUtagEVENTINFO@@@2@PAU_Node@?$_Tree_nod@V?$_Tmap_traits@KUtagEVENTINFO@@U?$less@K@std@@V?$allocator@U?$pair@$$CBKUtagEVENTINFO@@@std@@@3@$0A@@std@@@2@@Z
_TEXT	SEGMENT
__Pnode$ = 8						; size = 4
?_Myval@?$_Tree@V?$_Tmap_traits@KUtagEVENTINFO@@U?$less@K@std@@V?$allocator@U?$pair@$$CBKUtagEVENTINFO@@@std@@@3@$0A@@std@@@std@@KAAAU?$pair@$$CBKUtagEVENTINFO@@@2@PAU_Node@?$_Tree_nod@V?$_Tmap_traits@KUtagEVENTINFO@@U?$less@K@std@@V?$allocator@U?$pair@$$CBKUtagEVENTINFO@@@std@@@3@$0A@@std@@@2@@Z PROC NEAR ; std::_Tree<std::_Tmap_traits<unsigned long,tagEVENTINFO,std::less<unsigned long>,std::allocator<std::pair<unsigned long const ,tagEVENTINFO> >,0> >::_Myval, COMDAT

; 162  : 		return ((_Vref)(*_Pnode)._Myval);

  00000	8b 44 24 04	 mov	 eax, DWORD PTR __Pnode$[esp-4]
  00004	83 c0 10	 add	 eax, 16			; 00000010H

; 163  : 		}

  00007	c3		 ret	 0
?_Myval@?$_Tree@V?$_Tmap_traits@KUtagEVENTINFO@@U?$less@K@std@@V?$allocator@U?$pair@$$CBKUtagEVENTINFO@@@std@@@3@$0A@@std@@@std@@KAAAU?$pair@$$CBKUtagEVENTINFO@@@2@PAU_Node@?$_Tree_nod@V?$_Tmap_traits@KUtagEVENTINFO@@U?$less@K@std@@V?$allocator@U?$pair@$$CBKUtagEVENTINFO@@@std@@@3@$0A@@std@@@2@@Z ENDP ; std::_Tree<std::_Tmap_traits<unsigned long,tagEVENTINFO,std::less<unsigned long>,std::allocator<std::pair<unsigned long const ,tagEVENTINFO> >,0> >::_Myval
_TEXT	ENDS
PUBLIC	??0const_iterator@?$_Tree@V?$_Tmap_traits@KUtagEVENTINFO@@U?$less@K@std@@V?$allocator@U?$pair@$$CBKUtagEVENTINFO@@@std@@@3@$0A@@std@@@std@@QAE@PAU_Node@?$_Tree_nod@V?$_Tmap_traits@KUtagEVENTINFO@@U?$less@K@std@@V?$allocator@U?$pair@$$CBKUtagEVENTINFO@@@std@@@3@$0A@@std@@@2@@Z ; std::_Tree<std::_Tmap_traits<unsigned long,tagEVENTINFO,std::less<unsigned long>,std::allocator<std::pair<unsigned long const ,tagEVENTINFO> >,0> >::const_iterator::const_iterator
; Function compile flags: /Ogty
;	COMDAT ??0const_iterator@?$_Tree@V?$_Tmap_traits@KUtagEVENTINFO@@U?$less@K@std@@V?$allocator@U?$pair@$$CBKUtagEVENTINFO@@@std@@@3@$0A@@std@@@std@@QAE@PAU_Node@?$_Tree_nod@V?$_Tmap_traits@KUtagEVENTINFO@@U?$less@K@std@@V?$allocator@U?$pair@$$CBKUtagEVENTINFO@@@std@@@3@$0A@@std@@@2@@Z
_TEXT	SEGMENT
__Pnode$ = 8						; size = 4
??0const_iterator@?$_Tree@V?$_Tmap_traits@KUtagEVENTINFO@@U?$less@K@std@@V?$allocator@U?$pair@$$CBKUtagEVENTINFO@@@std@@@3@$0A@@std@@@std@@QAE@PAU_Node@?$_Tree_nod@V?$_Tmap_traits@KUtagEVENTINFO@@U?$less@K@std@@V?$allocator@U?$pair@$$CBKUtagEVENTINFO@@@std@@@3@$0A@@std@@@2@@Z PROC NEAR ; std::_Tree<std::_Tmap_traits<unsigned long,tagEVENTINFO,std::less<unsigned long>,std::allocator<std::pair<unsigned long const ,tagEVENTINFO> >,0> >::const_iterator::const_iterator, COMDAT
; _this$ = ecx

; 200  : 			{	// construct with node pointer _Pnode

  00000	8b c1		 mov	 eax, ecx
  00002	8b 4c 24 04	 mov	 ecx, DWORD PTR __Pnode$[esp-4]
  00006	89 08		 mov	 DWORD PTR [eax], ecx

; 201  : 			}

  00008	c2 04 00	 ret	 4
??0const_iterator@?$_Tree@V?$_Tmap_traits@KUtagEVENTINFO@@U?$less@K@std@@V?$allocator@U?$pair@$$CBKUtagEVENTINFO@@@std@@@3@$0A@@std@@@std@@QAE@PAU_Node@?$_Tree_nod@V?$_Tmap_traits@KUtagEVENTINFO@@U?$less@K@std@@V?$allocator@U?$pair@$$CBKUtagEVENTINFO@@@std@@@3@$0A@@std@@@2@@Z ENDP ; std::_Tree<std::_Tmap_traits<unsigned long,tagEVENTINFO,std::less<unsigned long>,std::allocator<std::pair<unsigned long const ,tagEVENTINFO> >,0> >::const_iterator::const_iterator
_TEXT	ENDS
PUBLIC	??Yiterator@?$vector@UtagTCASHITEM@@V?$allocator@UtagTCASHITEM@@@std@@@std@@QAEAAV012@H@Z ; std::vector<tagTCASHITEM,std::allocator<tagTCASHITEM> >::iterator::operator+=
; Function compile flags: /Ogty
; File c:\program files (x86)\microsoft visual studio .net 2003\vc7\include\vector
;	COMDAT ??Yiterator@?$vector@UtagTCASHITEM@@V?$allocator@UtagTCASHITEM@@@std@@@std@@QAEAAV012@H@Z
_TEXT	SEGMENT
__Off$ = 8						; size = 4
??Yiterator@?$vector@UtagTCASHITEM@@V?$allocator@UtagTCASHITEM@@@std@@@std@@QAEAAV012@H@Z PROC NEAR ; std::vector<tagTCASHITEM,std::allocator<tagTCASHITEM> >::iterator::operator+=, COMDAT
; _this$ = ecx

; 255  : 			{	// increment by integer

  00000	8b c1		 mov	 eax, ecx

; 256  : 			this->_Myptr += _Off;

  00002	8b 4c 24 04	 mov	 ecx, DWORD PTR __Off$[esp-4]
  00006	8d 14 cd 00 00
	00 00		 lea	 edx, DWORD PTR [ecx*8]
  0000d	01 10		 add	 DWORD PTR [eax], edx

; 257  : 			return (*this);
; 258  : 			}

  0000f	c2 04 00	 ret	 4
??Yiterator@?$vector@UtagTCASHITEM@@V?$allocator@UtagTCASHITEM@@@std@@@std@@QAEAAV012@H@Z ENDP ; std::vector<tagTCASHITEM,std::allocator<tagTCASHITEM> >::iterator::operator+=
_TEXT	ENDS
PUBLIC	??Dconst_iterator@?$vector@UtagTCASHITEM@@V?$allocator@UtagTCASHITEM@@@std@@@std@@QBEABUtagTCASHITEM@@XZ ; std::vector<tagTCASHITEM,std::allocator<tagTCASHITEM> >::const_iterator::operator*
; Function compile flags: /Ogty
;	COMDAT ??Dconst_iterator@?$vector@UtagTCASHITEM@@V?$allocator@UtagTCASHITEM@@@std@@@std@@QBEABUtagTCASHITEM@@XZ
_TEXT	SEGMENT
??Dconst_iterator@?$vector@UtagTCASHITEM@@V?$allocator@UtagTCASHITEM@@@std@@@std@@QBEABUtagTCASHITEM@@XZ PROC NEAR ; std::vector<tagTCASHITEM,std::allocator<tagTCASHITEM> >::const_iterator::operator*, COMDAT
; _this$ = ecx

; 80   : 
; 81   : 
; 82   : 			return (*_Myptr);

  00000	8b 01		 mov	 eax, DWORD PTR [ecx]

; 83   : 			}

  00002	c3		 ret	 0
??Dconst_iterator@?$vector@UtagTCASHITEM@@V?$allocator@UtagTCASHITEM@@@std@@@std@@QBEABUtagTCASHITEM@@XZ ENDP ; std::vector<tagTCASHITEM,std::allocator<tagTCASHITEM> >::const_iterator::operator*
_TEXT	ENDS
PUBLIC	??Yiterator@?$vector@UtagPATCHFILE@@V?$allocator@UtagPATCHFILE@@@std@@@std@@QAEAAV012@H@Z ; std::vector<tagPATCHFILE,std::allocator<tagPATCHFILE> >::iterator::operator+=
; Function compile flags: /Ogty
;	COMDAT ??Yiterator@?$vector@UtagPATCHFILE@@V?$allocator@UtagPATCHFILE@@@std@@@std@@QAEAAV012@H@Z
_TEXT	SEGMENT
__Off$ = 8						; size = 4
??Yiterator@?$vector@UtagPATCHFILE@@V?$allocator@UtagPATCHFILE@@@std@@@std@@QAEAAV012@H@Z PROC NEAR ; std::vector<tagPATCHFILE,std::allocator<tagPATCHFILE> >::iterator::operator+=, COMDAT
; _this$ = ecx

; 255  : 			{	// increment by integer

  00000	8b c1		 mov	 eax, ecx

; 256  : 			this->_Myptr += _Off;

  00002	8b 4c 24 04	 mov	 ecx, DWORD PTR __Off$[esp-4]
  00006	8b 10		 mov	 edx, DWORD PTR [eax]
  00008	c1 e1 04	 shl	 ecx, 4
  0000b	03 d1		 add	 edx, ecx
  0000d	89 10		 mov	 DWORD PTR [eax], edx

; 257  : 			return (*this);
; 258  : 			}

  0000f	c2 04 00	 ret	 4
??Yiterator@?$vector@UtagPATCHFILE@@V?$allocator@UtagPATCHFILE@@@std@@@std@@QAEAAV012@H@Z ENDP ; std::vector<tagPATCHFILE,std::allocator<tagPATCHFILE> >::iterator::operator+=
_TEXT	ENDS
PUBLIC	??Dconst_iterator@?$vector@UtagPATCHFILE@@V?$allocator@UtagPATCHFILE@@@std@@@std@@QBEABUtagPATCHFILE@@XZ ; std::vector<tagPATCHFILE,std::allocator<tagPATCHFILE> >::const_iterator::operator*
; Function compile flags: /Ogty
;	COMDAT ??Dconst_iterator@?$vector@UtagPATCHFILE@@V?$allocator@UtagPATCHFILE@@@std@@@std@@QBEABUtagPATCHFILE@@XZ
_TEXT	SEGMENT
??Dconst_iterator@?$vector@UtagPATCHFILE@@V?$allocator@UtagPATCHFILE@@@std@@@std@@QBEABUtagPATCHFILE@@XZ PROC NEAR ; std::vector<tagPATCHFILE,std::allocator<tagPATCHFILE> >::const_iterator::operator*, COMDAT
; _this$ = ecx

; 80   : 
; 81   : 
; 82   : 			return (*_Myptr);

  00000	8b 01		 mov	 eax, DWORD PTR [ecx]

; 83   : 			}

  00002	c3		 ret	 0
??Dconst_iterator@?$vector@UtagPATCHFILE@@V?$allocator@UtagPATCHFILE@@@std@@@std@@QBEABUtagPATCHFILE@@XZ ENDP ; std::vector<tagPATCHFILE,std::allocator<tagPATCHFILE> >::const_iterator::operator*
_TEXT	ENDS
PUBLIC	??0const_iterator@?$vector@UtagTCASHITEM@@V?$allocator@UtagTCASHITEM@@@std@@@std@@QAE@PAUtagTCASHITEM@@@Z ; std::vector<tagTCASHITEM,std::allocator<tagTCASHITEM> >::const_iterator::const_iterator
; Function compile flags: /Ogty
;	COMDAT ??0const_iterator@?$vector@UtagTCASHITEM@@V?$allocator@UtagTCASHITEM@@@std@@@std@@QAE@PAUtagTCASHITEM@@@Z
_TEXT	SEGMENT
__Ptr$ = 8						; size = 4
??0const_iterator@?$vector@UtagTCASHITEM@@V?$allocator@UtagTCASHITEM@@@std@@@std@@QAE@PAUtagTCASHITEM@@@Z PROC NEAR ; std::vector<tagTCASHITEM,std::allocator<tagTCASHITEM> >::const_iterator::const_iterator, COMDAT
; _this$ = ecx

; 73   : 		const_iterator(_Tptr _Ptr)

  00000	8b c1		 mov	 eax, ecx

; 74   : 			{	// construct with pointer _Ptr
; 75   : 			_Myptr = _Ptr;

  00002	8b 4c 24 04	 mov	 ecx, DWORD PTR __Ptr$[esp-4]
  00006	89 08		 mov	 DWORD PTR [eax], ecx

; 76   : 			}

  00008	c2 04 00	 ret	 4
??0const_iterator@?$vector@UtagTCASHITEM@@V?$allocator@UtagTCASHITEM@@@std@@@std@@QAE@PAUtagTCASHITEM@@@Z ENDP ; std::vector<tagTCASHITEM,std::allocator<tagTCASHITEM> >::const_iterator::const_iterator
_TEXT	ENDS
PUBLIC	??0const_iterator@?$vector@UtagPATCHFILE@@V?$allocator@UtagPATCHFILE@@@std@@@std@@QAE@PAUtagPATCHFILE@@@Z ; std::vector<tagPATCHFILE,std::allocator<tagPATCHFILE> >::const_iterator::const_iterator
; Function compile flags: /Ogty
;	COMDAT ??0const_iterator@?$vector@UtagPATCHFILE@@V?$allocator@UtagPATCHFILE@@@std@@@std@@QAE@PAUtagPATCHFILE@@@Z
_TEXT	SEGMENT
__Ptr$ = 8						; size = 4
??0const_iterator@?$vector@UtagPATCHFILE@@V?$allocator@UtagPATCHFILE@@@std@@@std@@QAE@PAUtagPATCHFILE@@@Z PROC NEAR ; std::vector<tagPATCHFILE,std::allocator<tagPATCHFILE> >::const_iterator::const_iterator, COMDAT
; _this$ = ecx

; 73   : 		const_iterator(_Tptr _Ptr)

  00000	8b c1		 mov	 eax, ecx

; 74   : 			{	// construct with pointer _Ptr
; 75   : 			_Myptr = _Ptr;

  00002	8b 4c 24 04	 mov	 ecx, DWORD PTR __Ptr$[esp-4]
  00006	89 08		 mov	 DWORD PTR [eax], ecx

; 76   : 			}

  00008	c2 04 00	 ret	 4
??0const_iterator@?$vector@UtagPATCHFILE@@V?$allocator@UtagPATCHFILE@@@std@@@std@@QAE@PAUtagPATCHFILE@@@Z ENDP ; std::vector<tagPATCHFILE,std::allocator<tagPATCHFILE> >::const_iterator::const_iterator
_TEXT	ENDS
PUBLIC	?_Isnil@?$_Tree@V?$_Tmap_traits@EPAUtagTSVRTYPE@@U?$less@E@std@@V?$allocator@U?$pair@$$CBEPAUtagTSVRTYPE@@@std@@@3@$0A@@std@@@std@@KAAADPAU_Node@?$_Tree_nod@V?$_Tmap_traits@EPAUtagTSVRTYPE@@U?$less@E@std@@V?$allocator@U?$pair@$$CBEPAUtagTSVRTYPE@@@std@@@3@$0A@@std@@@2@@Z ; std::_Tree<std::_Tmap_traits<unsigned char,tagTSVRTYPE *,std::less<unsigned char>,std::allocator<std::pair<unsigned char const ,tagTSVRTYPE *> >,0> >::_Isnil
; Function compile flags: /Ogty
; File c:\program files (x86)\microsoft visual studio .net 2003\vc7\include\xtree
;	COMDAT ?_Isnil@?$_Tree@V?$_Tmap_traits@EPAUtagTSVRTYPE@@U?$less@E@std@@V?$allocator@U?$pair@$$CBEPAUtagTSVRTYPE@@@std@@@3@$0A@@std@@@std@@KAAADPAU_Node@?$_Tree_nod@V?$_Tmap_traits@EPAUtagTSVRTYPE@@U?$less@E@std@@V?$allocator@U?$pair@$$CBEPAUtagTSVRTYPE@@@std@@@3@$0A@@std@@@2@@Z
_TEXT	SEGMENT
__Pnode$ = 8						; size = 4
?_Isnil@?$_Tree@V?$_Tmap_traits@EPAUtagTSVRTYPE@@U?$less@E@std@@V?$allocator@U?$pair@$$CBEPAUtagTSVRTYPE@@@std@@@3@$0A@@std@@@std@@KAAADPAU_Node@?$_Tree_nod@V?$_Tmap_traits@EPAUtagTSVRTYPE@@U?$less@E@std@@V?$allocator@U?$pair@$$CBEPAUtagTSVRTYPE@@@std@@@3@$0A@@std@@@2@@Z PROC NEAR ; std::_Tree<std::_Tmap_traits<unsigned char,tagTSVRTYPE *,std::less<unsigned char>,std::allocator<std::pair<unsigned char const ,tagTSVRTYPE *> >,0> >::_Isnil, COMDAT

; 137  : 		return ((_Charref)(*_Pnode)._Isnil);

  00000	8b 44 24 04	 mov	 eax, DWORD PTR __Pnode$[esp-4]
  00004	83 c0 15	 add	 eax, 21			; 00000015H

; 138  : 		}

  00007	c3		 ret	 0
?_Isnil@?$_Tree@V?$_Tmap_traits@EPAUtagTSVRTYPE@@U?$less@E@std@@V?$allocator@U?$pair@$$CBEPAUtagTSVRTYPE@@@std@@@3@$0A@@std@@@std@@KAAADPAU_Node@?$_Tree_nod@V?$_Tmap_traits@EPAUtagTSVRTYPE@@U?$less@E@std@@V?$allocator@U?$pair@$$CBEPAUtagTSVRTYPE@@@std@@@3@$0A@@std@@@2@@Z ENDP ; std::_Tree<std::_Tmap_traits<unsigned char,tagTSVRTYPE *,std::less<unsigned char>,std::allocator<std::pair<unsigned char const ,tagTSVRTYPE *> >,0> >::_Isnil
_TEXT	ENDS
PUBLIC	?_Parent@?$_Tree@V?$_Tmap_traits@EPAUtagTSVRTYPE@@U?$less@E@std@@V?$allocator@U?$pair@$$CBEPAUtagTSVRTYPE@@@std@@@3@$0A@@std@@@std@@KAAAPAU_Node@?$_Tree_nod@V?$_Tmap_traits@EPAUtagTSVRTYPE@@U?$less@E@std@@V?$allocator@U?$pair@$$CBEPAUtagTSVRTYPE@@@std@@@3@$0A@@std@@@2@PAU342@@Z ; std::_Tree<std::_Tmap_traits<unsigned char,tagTSVRTYPE *,std::less<unsigned char>,std::allocator<std::pair<unsigned char const ,tagTSVRTYPE *> >,0> >::_Parent
; Function compile flags: /Ogty
;	COMDAT ?_Parent@?$_Tree@V?$_Tmap_traits@EPAUtagTSVRTYPE@@U?$less@E@std@@V?$allocator@U?$pair@$$CBEPAUtagTSVRTYPE@@@std@@@3@$0A@@std@@@std@@KAAAPAU_Node@?$_Tree_nod@V?$_Tmap_traits@EPAUtagTSVRTYPE@@U?$less@E@std@@V?$allocator@U?$pair@$$CBEPAUtagTSVRTYPE@@@std@@@3@$0A@@std@@@2@PAU342@@Z
_TEXT	SEGMENT
__Pnode$ = 8						; size = 4
?_Parent@?$_Tree@V?$_Tmap_traits@EPAUtagTSVRTYPE@@U?$less@E@std@@V?$allocator@U?$pair@$$CBEPAUtagTSVRTYPE@@@std@@@3@$0A@@std@@@std@@KAAAPAU_Node@?$_Tree_nod@V?$_Tmap_traits@EPAUtagTSVRTYPE@@U?$less@E@std@@V?$allocator@U?$pair@$$CBEPAUtagTSVRTYPE@@@std@@@3@$0A@@std@@@2@PAU342@@Z PROC NEAR ; std::_Tree<std::_Tmap_traits<unsigned char,tagTSVRTYPE *,std::less<unsigned char>,std::allocator<std::pair<unsigned char const ,tagTSVRTYPE *> >,0> >::_Parent, COMDAT

; 152  : 		return ((_Nodepref)(*_Pnode)._Parent);

  00000	8b 44 24 04	 mov	 eax, DWORD PTR __Pnode$[esp-4]
  00004	83 c0 04	 add	 eax, 4

; 153  : 		}

  00007	c3		 ret	 0
?_Parent@?$_Tree@V?$_Tmap_traits@EPAUtagTSVRTYPE@@U?$less@E@std@@V?$allocator@U?$pair@$$CBEPAUtagTSVRTYPE@@@std@@@3@$0A@@std@@@std@@KAAAPAU_Node@?$_Tree_nod@V?$_Tmap_traits@EPAUtagTSVRTYPE@@U?$less@E@std@@V?$allocator@U?$pair@$$CBEPAUtagTSVRTYPE@@@std@@@3@$0A@@std@@@2@PAU342@@Z ENDP ; std::_Tree<std::_Tmap_traits<unsigned char,tagTSVRTYPE *,std::less<unsigned char>,std::allocator<std::pair<unsigned char const ,tagTSVRTYPE *> >,0> >::_Parent
_TEXT	ENDS
PUBLIC	?_Right@?$_Tree@V?$_Tmap_traits@EPAUtagTSVRTYPE@@U?$less@E@std@@V?$allocator@U?$pair@$$CBEPAUtagTSVRTYPE@@@std@@@3@$0A@@std@@@std@@KAAAPAU_Node@?$_Tree_nod@V?$_Tmap_traits@EPAUtagTSVRTYPE@@U?$less@E@std@@V?$allocator@U?$pair@$$CBEPAUtagTSVRTYPE@@@std@@@3@$0A@@std@@@2@PAU342@@Z ; std::_Tree<std::_Tmap_traits<unsigned char,tagTSVRTYPE *,std::less<unsigned char>,std::allocator<std::pair<unsigned char const ,tagTSVRTYPE *> >,0> >::_Right
; Function compile flags: /Ogty
;	COMDAT ?_Right@?$_Tree@V?$_Tmap_traits@EPAUtagTSVRTYPE@@U?$less@E@std@@V?$allocator@U?$pair@$$CBEPAUtagTSVRTYPE@@@std@@@3@$0A@@std@@@std@@KAAAPAU_Node@?$_Tree_nod@V?$_Tmap_traits@EPAUtagTSVRTYPE@@U?$less@E@std@@V?$allocator@U?$pair@$$CBEPAUtagTSVRTYPE@@@std@@@3@$0A@@std@@@2@PAU342@@Z
_TEXT	SEGMENT
__Pnode$ = 8						; size = 4
?_Right@?$_Tree@V?$_Tmap_traits@EPAUtagTSVRTYPE@@U?$less@E@std@@V?$allocator@U?$pair@$$CBEPAUtagTSVRTYPE@@@std@@@3@$0A@@std@@@std@@KAAAPAU_Node@?$_Tree_nod@V?$_Tmap_traits@EPAUtagTSVRTYPE@@U?$less@E@std@@V?$allocator@U?$pair@$$CBEPAUtagTSVRTYPE@@@std@@@3@$0A@@std@@@2@PAU342@@Z PROC NEAR ; std::_Tree<std::_Tmap_traits<unsigned char,tagTSVRTYPE *,std::less<unsigned char>,std::allocator<std::pair<unsigned char const ,tagTSVRTYPE *> >,0> >::_Right, COMDAT

; 157  : 		return ((_Nodepref)(*_Pnode)._Right);

  00000	8b 44 24 04	 mov	 eax, DWORD PTR __Pnode$[esp-4]
  00004	83 c0 08	 add	 eax, 8

; 158  : 		}

  00007	c3		 ret	 0
?_Right@?$_Tree@V?$_Tmap_traits@EPAUtagTSVRTYPE@@U?$less@E@std@@V?$allocator@U?$pair@$$CBEPAUtagTSVRTYPE@@@std@@@3@$0A@@std@@@std@@KAAAPAU_Node@?$_Tree_nod@V?$_Tmap_traits@EPAUtagTSVRTYPE@@U?$less@E@std@@V?$allocator@U?$pair@$$CBEPAUtagTSVRTYPE@@@std@@@3@$0A@@std@@@2@PAU342@@Z ENDP ; std::_Tree<std::_Tmap_traits<unsigned char,tagTSVRTYPE *,std::less<unsigned char>,std::allocator<std::pair<unsigned char const ,tagTSVRTYPE *> >,0> >::_Right
_TEXT	ENDS
PUBLIC	?_Min@?$_Tree@V?$_Tmap_traits@EPAUtagTSVRTYPE@@U?$less@E@std@@V?$allocator@U?$pair@$$CBEPAUtagTSVRTYPE@@@std@@@3@$0A@@std@@@std@@KAPAU_Node@?$_Tree_nod@V?$_Tmap_traits@EPAUtagTSVRTYPE@@U?$less@E@std@@V?$allocator@U?$pair@$$CBEPAUtagTSVRTYPE@@@std@@@3@$0A@@std@@@2@PAU342@@Z ; std::_Tree<std::_Tmap_traits<unsigned char,tagTSVRTYPE *,std::less<unsigned char>,std::allocator<std::pair<unsigned char const ,tagTSVRTYPE *> >,0> >::_Min
; Function compile flags: /Ogty
;	COMDAT ?_Min@?$_Tree@V?$_Tmap_traits@EPAUtagTSVRTYPE@@U?$less@E@std@@V?$allocator@U?$pair@$$CBEPAUtagTSVRTYPE@@@std@@@3@$0A@@std@@@std@@KAPAU_Node@?$_Tree_nod@V?$_Tmap_traits@EPAUtagTSVRTYPE@@U?$less@E@std@@V?$allocator@U?$pair@$$CBEPAUtagTSVRTYPE@@@std@@@3@$0A@@std@@@2@PAU342@@Z
_TEXT	SEGMENT
__Pnode$ = 8						; size = 4
?_Min@?$_Tree@V?$_Tmap_traits@EPAUtagTSVRTYPE@@U?$less@E@std@@V?$allocator@U?$pair@$$CBEPAUtagTSVRTYPE@@@std@@@3@$0A@@std@@@std@@KAPAU_Node@?$_Tree_nod@V?$_Tmap_traits@EPAUtagTSVRTYPE@@U?$less@E@std@@V?$allocator@U?$pair@$$CBEPAUtagTSVRTYPE@@@std@@@3@$0A@@std@@@2@PAU342@@Z PROC NEAR ; std::_Tree<std::_Tmap_traits<unsigned char,tagTSVRTYPE *,std::less<unsigned char>,std::allocator<std::pair<unsigned char const ,tagTSVRTYPE *> >,0> >::_Min, COMDAT

; 1042 : 		while (!_Isnil(_Left(_Pnode)))

  00000	8b 44 24 04	 mov	 eax, DWORD PTR __Pnode$[esp-4]
  00004	8b 08		 mov	 ecx, DWORD PTR [eax]
  00006	8a 51 15	 mov	 dl, BYTE PTR [ecx+21]
  00009	84 d2		 test	 dl, dl
  0000b	75 0e		 jne	 SHORT $L92499
  0000d	8d 49 00	 npad	 3
$L92498:

; 1043 : 			_Pnode = _Left(_Pnode);

  00010	8b c1		 mov	 eax, ecx
  00012	8b 08		 mov	 ecx, DWORD PTR [eax]
  00014	8a 51 15	 mov	 dl, BYTE PTR [ecx+21]
  00017	84 d2		 test	 dl, dl
  00019	74 f5		 je	 SHORT $L92498
$L92499:

; 1044 : 		return (_Pnode);
; 1045 : 		}

  0001b	c3		 ret	 0
?_Min@?$_Tree@V?$_Tmap_traits@EPAUtagTSVRTYPE@@U?$less@E@std@@V?$allocator@U?$pair@$$CBEPAUtagTSVRTYPE@@@std@@@3@$0A@@std@@@std@@KAPAU_Node@?$_Tree_nod@V?$_Tmap_traits@EPAUtagTSVRTYPE@@U?$less@E@std@@V?$allocator@U?$pair@$$CBEPAUtagTSVRTYPE@@@std@@@3@$0A@@std@@@2@PAU342@@Z ENDP ; std::_Tree<std::_Tmap_traits<unsigned char,tagTSVRTYPE *,std::less<unsigned char>,std::allocator<std::pair<unsigned char const ,tagTSVRTYPE *> >,0> >::_Min
_TEXT	ENDS
PUBLIC	?_Isnil@?$_Tree@V?$_Tmap_traits@EPAUtagTMACHINE@@U?$less@E@std@@V?$allocator@U?$pair@$$CBEPAUtagTMACHINE@@@std@@@3@$0A@@std@@@std@@KAAADPAU_Node@?$_Tree_nod@V?$_Tmap_traits@EPAUtagTMACHINE@@U?$less@E@std@@V?$allocator@U?$pair@$$CBEPAUtagTMACHINE@@@std@@@3@$0A@@std@@@2@@Z ; std::_Tree<std::_Tmap_traits<unsigned char,tagTMACHINE *,std::less<unsigned char>,std::allocator<std::pair<unsigned char const ,tagTMACHINE *> >,0> >::_Isnil
; Function compile flags: /Ogty
;	COMDAT ?_Isnil@?$_Tree@V?$_Tmap_traits@EPAUtagTMACHINE@@U?$less@E@std@@V?$allocator@U?$pair@$$CBEPAUtagTMACHINE@@@std@@@3@$0A@@std@@@std@@KAAADPAU_Node@?$_Tree_nod@V?$_Tmap_traits@EPAUtagTMACHINE@@U?$less@E@std@@V?$allocator@U?$pair@$$CBEPAUtagTMACHINE@@@std@@@3@$0A@@std@@@2@@Z
_TEXT	SEGMENT
__Pnode$ = 8						; size = 4
?_Isnil@?$_Tree@V?$_Tmap_traits@EPAUtagTMACHINE@@U?$less@E@std@@V?$allocator@U?$pair@$$CBEPAUtagTMACHINE@@@std@@@3@$0A@@std@@@std@@KAAADPAU_Node@?$_Tree_nod@V?$_Tmap_traits@EPAUtagTMACHINE@@U?$less@E@std@@V?$allocator@U?$pair@$$CBEPAUtagTMACHINE@@@std@@@3@$0A@@std@@@2@@Z PROC NEAR ; std::_Tree<std::_Tmap_traits<unsigned char,tagTMACHINE *,std::less<unsigned char>,std::allocator<std::pair<unsigned char const ,tagTMACHINE *> >,0> >::_Isnil, COMDAT

; 137  : 		return ((_Charref)(*_Pnode)._Isnil);

  00000	8b 44 24 04	 mov	 eax, DWORD PTR __Pnode$[esp-4]
  00004	83 c0 15	 add	 eax, 21			; 00000015H

; 138  : 		}

  00007	c3		 ret	 0
?_Isnil@?$_Tree@V?$_Tmap_traits@EPAUtagTMACHINE@@U?$less@E@std@@V?$allocator@U?$pair@$$CBEPAUtagTMACHINE@@@std@@@3@$0A@@std@@@std@@KAAADPAU_Node@?$_Tree_nod@V?$_Tmap_traits@EPAUtagTMACHINE@@U?$less@E@std@@V?$allocator@U?$pair@$$CBEPAUtagTMACHINE@@@std@@@3@$0A@@std@@@2@@Z ENDP ; std::_Tree<std::_Tmap_traits<unsigned char,tagTMACHINE *,std::less<unsigned char>,std::allocator<std::pair<unsigned char const ,tagTMACHINE *> >,0> >::_Isnil
_TEXT	ENDS
PUBLIC	?_Parent@?$_Tree@V?$_Tmap_traits@EPAUtagTMACHINE@@U?$less@E@std@@V?$allocator@U?$pair@$$CBEPAUtagTMACHINE@@@std@@@3@$0A@@std@@@std@@KAAAPAU_Node@?$_Tree_nod@V?$_Tmap_traits@EPAUtagTMACHINE@@U?$less@E@std@@V?$allocator@U?$pair@$$CBEPAUtagTMACHINE@@@std@@@3@$0A@@std@@@2@PAU342@@Z ; std::_Tree<std::_Tmap_traits<unsigned char,tagTMACHINE *,std::less<unsigned char>,std::allocator<std::pair<unsigned char const ,tagTMACHINE *> >,0> >::_Parent
; Function compile flags: /Ogty
;	COMDAT ?_Parent@?$_Tree@V?$_Tmap_traits@EPAUtagTMACHINE@@U?$less@E@std@@V?$allocator@U?$pair@$$CBEPAUtagTMACHINE@@@std@@@3@$0A@@std@@@std@@KAAAPAU_Node@?$_Tree_nod@V?$_Tmap_traits@EPAUtagTMACHINE@@U?$less@E@std@@V?$allocator@U?$pair@$$CBEPAUtagTMACHINE@@@std@@@3@$0A@@std@@@2@PAU342@@Z
_TEXT	SEGMENT
__Pnode$ = 8						; size = 4
?_Parent@?$_Tree@V?$_Tmap_traits@EPAUtagTMACHINE@@U?$less@E@std@@V?$allocator@U?$pair@$$CBEPAUtagTMACHINE@@@std@@@3@$0A@@std@@@std@@KAAAPAU_Node@?$_Tree_nod@V?$_Tmap_traits@EPAUtagTMACHINE@@U?$less@E@std@@V?$allocator@U?$pair@$$CBEPAUtagTMACHINE@@@std@@@3@$0A@@std@@@2@PAU342@@Z PROC NEAR ; std::_Tree<std::_Tmap_traits<unsigned char,tagTMACHINE *,std::less<unsigned char>,std::allocator<std::pair<unsigned char const ,tagTMACHINE *> >,0> >::_Parent, COMDAT

; 152  : 		return ((_Nodepref)(*_Pnode)._Parent);

  00000	8b 44 24 04	 mov	 eax, DWORD PTR __Pnode$[esp-4]
  00004	83 c0 04	 add	 eax, 4

; 153  : 		}

  00007	c3		 ret	 0
?_Parent@?$_Tree@V?$_Tmap_traits@EPAUtagTMACHINE@@U?$less@E@std@@V?$allocator@U?$pair@$$CBEPAUtagTMACHINE@@@std@@@3@$0A@@std@@@std@@KAAAPAU_Node@?$_Tree_nod@V?$_Tmap_traits@EPAUtagTMACHINE@@U?$less@E@std@@V?$allocator@U?$pair@$$CBEPAUtagTMACHINE@@@std@@@3@$0A@@std@@@2@PAU342@@Z ENDP ; std::_Tree<std::_Tmap_traits<unsigned char,tagTMACHINE *,std::less<unsigned char>,std::allocator<std::pair<unsigned char const ,tagTMACHINE *> >,0> >::_Parent
_TEXT	ENDS
PUBLIC	?_Right@?$_Tree@V?$_Tmap_traits@EPAUtagTMACHINE@@U?$less@E@std@@V?$allocator@U?$pair@$$CBEPAUtagTMACHINE@@@std@@@3@$0A@@std@@@std@@KAAAPAU_Node@?$_Tree_nod@V?$_Tmap_traits@EPAUtagTMACHINE@@U?$less@E@std@@V?$allocator@U?$pair@$$CBEPAUtagTMACHINE@@@std@@@3@$0A@@std@@@2@PAU342@@Z ; std::_Tree<std::_Tmap_traits<unsigned char,tagTMACHINE *,std::less<unsigned char>,std::allocator<std::pair<unsigned char const ,tagTMACHINE *> >,0> >::_Right
; Function compile flags: /Ogty
;	COMDAT ?_Right@?$_Tree@V?$_Tmap_traits@EPAUtagTMACHINE@@U?$less@E@std@@V?$allocator@U?$pair@$$CBEPAUtagTMACHINE@@@std@@@3@$0A@@std@@@std@@KAAAPAU_Node@?$_Tree_nod@V?$_Tmap_traits@EPAUtagTMACHINE@@U?$less@E@std@@V?$allocator@U?$pair@$$CBEPAUtagTMACHINE@@@std@@@3@$0A@@std@@@2@PAU342@@Z
_TEXT	SEGMENT
__Pnode$ = 8						; size = 4
?_Right@?$_Tree@V?$_Tmap_traits@EPAUtagTMACHINE@@U?$less@E@std@@V?$allocator@U?$pair@$$CBEPAUtagTMACHINE@@@std@@@3@$0A@@std@@@std@@KAAAPAU_Node@?$_Tree_nod@V?$_Tmap_traits@EPAUtagTMACHINE@@U?$less@E@std@@V?$allocator@U?$pair@$$CBEPAUtagTMACHINE@@@std@@@3@$0A@@std@@@2@PAU342@@Z PROC NEAR ; std::_Tree<std::_Tmap_traits<unsigned char,tagTMACHINE *,std::less<unsigned char>,std::allocator<std::pair<unsigned char const ,tagTMACHINE *> >,0> >::_Right, COMDAT

; 157  : 		return ((_Nodepref)(*_Pnode)._Right);

  00000	8b 44 24 04	 mov	 eax, DWORD PTR __Pnode$[esp-4]
  00004	83 c0 08	 add	 eax, 8

; 158  : 		}

  00007	c3		 ret	 0
?_Right@?$_Tree@V?$_Tmap_traits@EPAUtagTMACHINE@@U?$less@E@std@@V?$allocator@U?$pair@$$CBEPAUtagTMACHINE@@@std@@@3@$0A@@std@@@std@@KAAAPAU_Node@?$_Tree_nod@V?$_Tmap_traits@EPAUtagTMACHINE@@U?$less@E@std@@V?$allocator@U?$pair@$$CBEPAUtagTMACHINE@@@std@@@3@$0A@@std@@@2@PAU342@@Z ENDP ; std::_Tree<std::_Tmap_traits<unsigned char,tagTMACHINE *,std::less<unsigned char>,std::allocator<std::pair<unsigned char const ,tagTMACHINE *> >,0> >::_Right
_TEXT	ENDS
PUBLIC	?_Min@?$_Tree@V?$_Tmap_traits@EPAUtagTMACHINE@@U?$less@E@std@@V?$allocator@U?$pair@$$CBEPAUtagTMACHINE@@@std@@@3@$0A@@std@@@std@@KAPAU_Node@?$_Tree_nod@V?$_Tmap_traits@EPAUtagTMACHINE@@U?$less@E@std@@V?$allocator@U?$pair@$$CBEPAUtagTMACHINE@@@std@@@3@$0A@@std@@@2@PAU342@@Z ; std::_Tree<std::_Tmap_traits<unsigned char,tagTMACHINE *,std::less<unsigned char>,std::allocator<std::pair<unsigned char const ,tagTMACHINE *> >,0> >::_Min
; Function compile flags: /Ogty
;	COMDAT ?_Min@?$_Tree@V?$_Tmap_traits@EPAUtagTMACHINE@@U?$less@E@std@@V?$allocator@U?$pair@$$CBEPAUtagTMACHINE@@@std@@@3@$0A@@std@@@std@@KAPAU_Node@?$_Tree_nod@V?$_Tmap_traits@EPAUtagTMACHINE@@U?$less@E@std@@V?$allocator@U?$pair@$$CBEPAUtagTMACHINE@@@std@@@3@$0A@@std@@@2@PAU342@@Z
_TEXT	SEGMENT
__Pnode$ = 8						; size = 4
?_Min@?$_Tree@V?$_Tmap_traits@EPAUtagTMACHINE@@U?$less@E@std@@V?$allocator@U?$pair@$$CBEPAUtagTMACHINE@@@std@@@3@$0A@@std@@@std@@KAPAU_Node@?$_Tree_nod@V?$_Tmap_traits@EPAUtagTMACHINE@@U?$less@E@std@@V?$allocator@U?$pair@$$CBEPAUtagTMACHINE@@@std@@@3@$0A@@std@@@2@PAU342@@Z PROC NEAR ; std::_Tree<std::_Tmap_traits<unsigned char,tagTMACHINE *,std::less<unsigned char>,std::allocator<std::pair<unsigned char const ,tagTMACHINE *> >,0> >::_Min, COMDAT

; 1042 : 		while (!_Isnil(_Left(_Pnode)))

  00000	8b 44 24 04	 mov	 eax, DWORD PTR __Pnode$[esp-4]
  00004	8b 08		 mov	 ecx, DWORD PTR [eax]
  00006	8a 51 15	 mov	 dl, BYTE PTR [ecx+21]
  00009	84 d2		 test	 dl, dl
  0000b	75 0e		 jne	 SHORT $L92509
  0000d	8d 49 00	 npad	 3
$L92508:

; 1043 : 			_Pnode = _Left(_Pnode);

  00010	8b c1		 mov	 eax, ecx
  00012	8b 08		 mov	 ecx, DWORD PTR [eax]
  00014	8a 51 15	 mov	 dl, BYTE PTR [ecx+21]
  00017	84 d2		 test	 dl, dl
  00019	74 f5		 je	 SHORT $L92508
$L92509:

; 1044 : 		return (_Pnode);
; 1045 : 		}

  0001b	c3		 ret	 0
?_Min@?$_Tree@V?$_Tmap_traits@EPAUtagTMACHINE@@U?$less@E@std@@V?$allocator@U?$pair@$$CBEPAUtagTMACHINE@@@std@@@3@$0A@@std@@@std@@KAPAU_Node@?$_Tree_nod@V?$_Tmap_traits@EPAUtagTMACHINE@@U?$less@E@std@@V?$allocator@U?$pair@$$CBEPAUtagTMACHINE@@@std@@@3@$0A@@std@@@2@PAU342@@Z ENDP ; std::_Tree<std::_Tmap_traits<unsigned char,tagTMACHINE *,std::less<unsigned char>,std::allocator<std::pair<unsigned char const ,tagTMACHINE *> >,0> >::_Min
_TEXT	ENDS
PUBLIC	?_Isnil@?$_Tree@V?$_Tmap_traits@EPAUtagTGROUP@@U?$less@E@std@@V?$allocator@U?$pair@$$CBEPAUtagTGROUP@@@std@@@3@$0A@@std@@@std@@KAAADPAU_Node@?$_Tree_nod@V?$_Tmap_traits@EPAUtagTGROUP@@U?$less@E@std@@V?$allocator@U?$pair@$$CBEPAUtagTGROUP@@@std@@@3@$0A@@std@@@2@@Z ; std::_Tree<std::_Tmap_traits<unsigned char,tagTGROUP *,std::less<unsigned char>,std::allocator<std::pair<unsigned char const ,tagTGROUP *> >,0> >::_Isnil
; Function compile flags: /Ogty
;	COMDAT ?_Isnil@?$_Tree@V?$_Tmap_traits@EPAUtagTGROUP@@U?$less@E@std@@V?$allocator@U?$pair@$$CBEPAUtagTGROUP@@@std@@@3@$0A@@std@@@std@@KAAADPAU_Node@?$_Tree_nod@V?$_Tmap_traits@EPAUtagTGROUP@@U?$less@E@std@@V?$allocator@U?$pair@$$CBEPAUtagTGROUP@@@std@@@3@$0A@@std@@@2@@Z
_TEXT	SEGMENT
__Pnode$ = 8						; size = 4
?_Isnil@?$_Tree@V?$_Tmap_traits@EPAUtagTGROUP@@U?$less@E@std@@V?$allocator@U?$pair@$$CBEPAUtagTGROUP@@@std@@@3@$0A@@std@@@std@@KAAADPAU_Node@?$_Tree_nod@V?$_Tmap_traits@EPAUtagTGROUP@@U?$less@E@std@@V?$allocator@U?$pair@$$CBEPAUtagTGROUP@@@std@@@3@$0A@@std@@@2@@Z PROC NEAR ; std::_Tree<std::_Tmap_traits<unsigned char,tagTGROUP *,std::less<unsigned char>,std::allocator<std::pair<unsigned char const ,tagTGROUP *> >,0> >::_Isnil, COMDAT

; 137  : 		return ((_Charref)(*_Pnode)._Isnil);

  00000	8b 44 24 04	 mov	 eax, DWORD PTR __Pnode$[esp-4]
  00004	83 c0 15	 add	 eax, 21			; 00000015H

; 138  : 		}

  00007	c3		 ret	 0
?_Isnil@?$_Tree@V?$_Tmap_traits@EPAUtagTGROUP@@U?$less@E@std@@V?$allocator@U?$pair@$$CBEPAUtagTGROUP@@@std@@@3@$0A@@std@@@std@@KAAADPAU_Node@?$_Tree_nod@V?$_Tmap_traits@EPAUtagTGROUP@@U?$less@E@std@@V?$allocator@U?$pair@$$CBEPAUtagTGROUP@@@std@@@3@$0A@@std@@@2@@Z ENDP ; std::_Tree<std::_Tmap_traits<unsigned char,tagTGROUP *,std::less<unsigned char>,std::allocator<std::pair<unsigned char const ,tagTGROUP *> >,0> >::_Isnil
_TEXT	ENDS
PUBLIC	?_Parent@?$_Tree@V?$_Tmap_traits@EPAUtagTGROUP@@U?$less@E@std@@V?$allocator@U?$pair@$$CBEPAUtagTGROUP@@@std@@@3@$0A@@std@@@std@@KAAAPAU_Node@?$_Tree_nod@V?$_Tmap_traits@EPAUtagTGROUP@@U?$less@E@std@@V?$allocator@U?$pair@$$CBEPAUtagTGROUP@@@std@@@3@$0A@@std@@@2@PAU342@@Z ; std::_Tree<std::_Tmap_traits<unsigned char,tagTGROUP *,std::less<unsigned char>,std::allocator<std::pair<unsigned char const ,tagTGROUP *> >,0> >::_Parent
; Function compile flags: /Ogty
;	COMDAT ?_Parent@?$_Tree@V?$_Tmap_traits@EPAUtagTGROUP@@U?$less@E@std@@V?$allocator@U?$pair@$$CBEPAUtagTGROUP@@@std@@@3@$0A@@std@@@std@@KAAAPAU_Node@?$_Tree_nod@V?$_Tmap_traits@EPAUtagTGROUP@@U?$less@E@std@@V?$allocator@U?$pair@$$CBEPAUtagTGROUP@@@std@@@3@$0A@@std@@@2@PAU342@@Z
_TEXT	SEGMENT
__Pnode$ = 8						; size = 4
?_Parent@?$_Tree@V?$_Tmap_traits@EPAUtagTGROUP@@U?$less@E@std@@V?$allocator@U?$pair@$$CBEPAUtagTGROUP@@@std@@@3@$0A@@std@@@std@@KAAAPAU_Node@?$_Tree_nod@V?$_Tmap_traits@EPAUtagTGROUP@@U?$less@E@std@@V?$allocator@U?$pair@$$CBEPAUtagTGROUP@@@std@@@3@$0A@@std@@@2@PAU342@@Z PROC NEAR ; std::_Tree<std::_Tmap_traits<unsigned char,tagTGROUP *,std::less<unsigned char>,std::allocator<std::pair<unsigned char const ,tagTGROUP *> >,0> >::_Parent, COMDAT

; 152  : 		return ((_Nodepref)(*_Pnode)._Parent);

  00000	8b 44 24 04	 mov	 eax, DWORD PTR __Pnode$[esp-4]
  00004	83 c0 04	 add	 eax, 4

; 153  : 		}

  00007	c3		 ret	 0
?_Parent@?$_Tree@V?$_Tmap_traits@EPAUtagTGROUP@@U?$less@E@std@@V?$allocator@U?$pair@$$CBEPAUtagTGROUP@@@std@@@3@$0A@@std@@@std@@KAAAPAU_Node@?$_Tree_nod@V?$_Tmap_traits@EPAUtagTGROUP@@U?$less@E@std@@V?$allocator@U?$pair@$$CBEPAUtagTGROUP@@@std@@@3@$0A@@std@@@2@PAU342@@Z ENDP ; std::_Tree<std::_Tmap_traits<unsigned char,tagTGROUP *,std::less<unsigned char>,std::allocator<std::pair<unsigned char const ,tagTGROUP *> >,0> >::_Parent
_TEXT	ENDS
PUBLIC	?_Right@?$_Tree@V?$_Tmap_traits@EPAUtagTGROUP@@U?$less@E@std@@V?$allocator@U?$pair@$$CBEPAUtagTGROUP@@@std@@@3@$0A@@std@@@std@@KAAAPAU_Node@?$_Tree_nod@V?$_Tmap_traits@EPAUtagTGROUP@@U?$less@E@std@@V?$allocator@U?$pair@$$CBEPAUtagTGROUP@@@std@@@3@$0A@@std@@@2@PAU342@@Z ; std::_Tree<std::_Tmap_traits<unsigned char,tagTGROUP *,std::less<unsigned char>,std::allocator<std::pair<unsigned char const ,tagTGROUP *> >,0> >::_Right
; Function compile flags: /Ogty
;	COMDAT ?_Right@?$_Tree@V?$_Tmap_traits@EPAUtagTGROUP@@U?$less@E@std@@V?$allocator@U?$pair@$$CBEPAUtagTGROUP@@@std@@@3@$0A@@std@@@std@@KAAAPAU_Node@?$_Tree_nod@V?$_Tmap_traits@EPAUtagTGROUP@@U?$less@E@std@@V?$allocator@U?$pair@$$CBEPAUtagTGROUP@@@std@@@3@$0A@@std@@@2@PAU342@@Z
_TEXT	SEGMENT
__Pnode$ = 8						; size = 4
?_Right@?$_Tree@V?$_Tmap_traits@EPAUtagTGROUP@@U?$less@E@std@@V?$allocator@U?$pair@$$CBEPAUtagTGROUP@@@std@@@3@$0A@@std@@@std@@KAAAPAU_Node@?$_Tree_nod@V?$_Tmap_traits@EPAUtagTGROUP@@U?$less@E@std@@V?$allocator@U?$pair@$$CBEPAUtagTGROUP@@@std@@@3@$0A@@std@@@2@PAU342@@Z PROC NEAR ; std::_Tree<std::_Tmap_traits<unsigned char,tagTGROUP *,std::less<unsigned char>,std::allocator<std::pair<unsigned char const ,tagTGROUP *> >,0> >::_Right, COMDAT

; 157  : 		return ((_Nodepref)(*_Pnode)._Right);

  00000	8b 44 24 04	 mov	 eax, DWORD PTR __Pnode$[esp-4]
  00004	83 c0 08	 add	 eax, 8

; 158  : 		}

  00007	c3		 ret	 0
?_Right@?$_Tree@V?$_Tmap_traits@EPAUtagTGROUP@@U?$less@E@std@@V?$allocator@U?$pair@$$CBEPAUtagTGROUP@@@std@@@3@$0A@@std@@@std@@KAAAPAU_Node@?$_Tree_nod@V?$_Tmap_traits@EPAUtagTGROUP@@U?$less@E@std@@V?$allocator@U?$pair@$$CBEPAUtagTGROUP@@@std@@@3@$0A@@std@@@2@PAU342@@Z ENDP ; std::_Tree<std::_Tmap_traits<unsigned char,tagTGROUP *,std::less<unsigned char>,std::allocator<std::pair<unsigned char const ,tagTGROUP *> >,0> >::_Right
_TEXT	ENDS
PUBLIC	?_Min@?$_Tree@V?$_Tmap_traits@EPAUtagTGROUP@@U?$less@E@std@@V?$allocator@U?$pair@$$CBEPAUtagTGROUP@@@std@@@3@$0A@@std@@@std@@KAPAU_Node@?$_Tree_nod@V?$_Tmap_traits@EPAUtagTGROUP@@U?$less@E@std@@V?$allocator@U?$pair@$$CBEPAUtagTGROUP@@@std@@@3@$0A@@std@@@2@PAU342@@Z ; std::_Tree<std::_Tmap_traits<unsigned char,tagTGROUP *,std::less<unsigned char>,std::allocator<std::pair<unsigned char const ,tagTGROUP *> >,0> >::_Min
; Function compile flags: /Ogty
;	COMDAT ?_Min@?$_Tree@V?$_Tmap_traits@EPAUtagTGROUP@@U?$less@E@std@@V?$allocator@U?$pair@$$CBEPAUtagTGROUP@@@std@@@3@$0A@@std@@@std@@KAPAU_Node@?$_Tree_nod@V?$_Tmap_traits@EPAUtagTGROUP@@U?$less@E@std@@V?$allocator@U?$pair@$$CBEPAUtagTGROUP@@@std@@@3@$0A@@std@@@2@PAU342@@Z
_TEXT	SEGMENT
__Pnode$ = 8						; size = 4
?_Min@?$_Tree@V?$_Tmap_traits@EPAUtagTGROUP@@U?$less@E@std@@V?$allocator@U?$pair@$$CBEPAUtagTGROUP@@@std@@@3@$0A@@std@@@std@@KAPAU_Node@?$_Tree_nod@V?$_Tmap_traits@EPAUtagTGROUP@@U?$less@E@std@@V?$allocator@U?$pair@$$CBEPAUtagTGROUP@@@std@@@3@$0A@@std@@@2@PAU342@@Z PROC NEAR ; std::_Tree<std::_Tmap_traits<unsigned char,tagTGROUP *,std::less<unsigned char>,std::allocator<std::pair<unsigned char const ,tagTGROUP *> >,0> >::_Min, COMDAT

; 1042 : 		while (!_Isnil(_Left(_Pnode)))

  00000	8b 44 24 04	 mov	 eax, DWORD PTR __Pnode$[esp-4]
  00004	8b 08		 mov	 ecx, DWORD PTR [eax]
  00006	8a 51 15	 mov	 dl, BYTE PTR [ecx+21]
  00009	84 d2		 test	 dl, dl
  0000b	75 0e		 jne	 SHORT $L92519
  0000d	8d 49 00	 npad	 3
$L92518:

; 1043 : 			_Pnode = _Left(_Pnode);

  00010	8b c1		 mov	 eax, ecx
  00012	8b 08		 mov	 ecx, DWORD PTR [eax]
  00014	8a 51 15	 mov	 dl, BYTE PTR [ecx+21]
  00017	84 d2		 test	 dl, dl
  00019	74 f5		 je	 SHORT $L92518
$L92519:

; 1044 : 		return (_Pnode);
; 1045 : 		}

  0001b	c3		 ret	 0
?_Min@?$_Tree@V?$_Tmap_traits@EPAUtagTGROUP@@U?$less@E@std@@V?$allocator@U?$pair@$$CBEPAUtagTGROUP@@@std@@@3@$0A@@std@@@std@@KAPAU_Node@?$_Tree_nod@V?$_Tmap_traits@EPAUtagTGROUP@@U?$less@E@std@@V?$allocator@U?$pair@$$CBEPAUtagTGROUP@@@std@@@3@$0A@@std@@@2@PAU342@@Z ENDP ; std::_Tree<std::_Tmap_traits<unsigned char,tagTGROUP *,std::less<unsigned char>,std::allocator<std::pair<unsigned char const ,tagTGROUP *> >,0> >::_Min
_TEXT	ENDS
PUBLIC	?_Isnil@?$_Tree@V?$_Tmap_traits@KPAUtagTSVRTEMP@@U?$less@K@std@@V?$allocator@U?$pair@$$CBKPAUtagTSVRTEMP@@@std@@@3@$0A@@std@@@std@@KAAADPAU_Node@?$_Tree_nod@V?$_Tmap_traits@KPAUtagTSVRTEMP@@U?$less@K@std@@V?$allocator@U?$pair@$$CBKPAUtagTSVRTEMP@@@std@@@3@$0A@@std@@@2@@Z ; std::_Tree<std::_Tmap_traits<unsigned long,tagTSVRTEMP *,std::less<unsigned long>,std::allocator<std::pair<unsigned long const ,tagTSVRTEMP *> >,0> >::_Isnil
; Function compile flags: /Ogty
;	COMDAT ?_Isnil@?$_Tree@V?$_Tmap_traits@KPAUtagTSVRTEMP@@U?$less@K@std@@V?$allocator@U?$pair@$$CBKPAUtagTSVRTEMP@@@std@@@3@$0A@@std@@@std@@KAAADPAU_Node@?$_Tree_nod@V?$_Tmap_traits@KPAUtagTSVRTEMP@@U?$less@K@std@@V?$allocator@U?$pair@$$CBKPAUtagTSVRTEMP@@@std@@@3@$0A@@std@@@2@@Z
_TEXT	SEGMENT
__Pnode$ = 8						; size = 4
?_Isnil@?$_Tree@V?$_Tmap_traits@KPAUtagTSVRTEMP@@U?$less@K@std@@V?$allocator@U?$pair@$$CBKPAUtagTSVRTEMP@@@std@@@3@$0A@@std@@@std@@KAAADPAU_Node@?$_Tree_nod@V?$_Tmap_traits@KPAUtagTSVRTEMP@@U?$less@K@std@@V?$allocator@U?$pair@$$CBKPAUtagTSVRTEMP@@@std@@@3@$0A@@std@@@2@@Z PROC NEAR ; std::_Tree<std::_Tmap_traits<unsigned long,tagTSVRTEMP *,std::less<unsigned long>,std::allocator<std::pair<unsigned long const ,tagTSVRTEMP *> >,0> >::_Isnil, COMDAT

; 137  : 		return ((_Charref)(*_Pnode)._Isnil);

  00000	8b 44 24 04	 mov	 eax, DWORD PTR __Pnode$[esp-4]
  00004	83 c0 15	 add	 eax, 21			; 00000015H

; 138  : 		}

  00007	c3		 ret	 0
?_Isnil@?$_Tree@V?$_Tmap_traits@KPAUtagTSVRTEMP@@U?$less@K@std@@V?$allocator@U?$pair@$$CBKPAUtagTSVRTEMP@@@std@@@3@$0A@@std@@@std@@KAAADPAU_Node@?$_Tree_nod@V?$_Tmap_traits@KPAUtagTSVRTEMP@@U?$less@K@std@@V?$allocator@U?$pair@$$CBKPAUtagTSVRTEMP@@@std@@@3@$0A@@std@@@2@@Z ENDP ; std::_Tree<std::_Tmap_traits<unsigned long,tagTSVRTEMP *,std::less<unsigned long>,std::allocator<std::pair<unsigned long const ,tagTSVRTEMP *> >,0> >::_Isnil
_TEXT	ENDS
PUBLIC	?_Parent@?$_Tree@V?$_Tmap_traits@KPAUtagTSVRTEMP@@U?$less@K@std@@V?$allocator@U?$pair@$$CBKPAUtagTSVRTEMP@@@std@@@3@$0A@@std@@@std@@KAAAPAU_Node@?$_Tree_nod@V?$_Tmap_traits@KPAUtagTSVRTEMP@@U?$less@K@std@@V?$allocator@U?$pair@$$CBKPAUtagTSVRTEMP@@@std@@@3@$0A@@std@@@2@PAU342@@Z ; std::_Tree<std::_Tmap_traits<unsigned long,tagTSVRTEMP *,std::less<unsigned long>,std::allocator<std::pair<unsigned long const ,tagTSVRTEMP *> >,0> >::_Parent
; Function compile flags: /Ogty
;	COMDAT ?_Parent@?$_Tree@V?$_Tmap_traits@KPAUtagTSVRTEMP@@U?$less@K@std@@V?$allocator@U?$pair@$$CBKPAUtagTSVRTEMP@@@std@@@3@$0A@@std@@@std@@KAAAPAU_Node@?$_Tree_nod@V?$_Tmap_traits@KPAUtagTSVRTEMP@@U?$less@K@std@@V?$allocator@U?$pair@$$CBKPAUtagTSVRTEMP@@@std@@@3@$0A@@std@@@2@PAU342@@Z
_TEXT	SEGMENT
__Pnode$ = 8						; size = 4
?_Parent@?$_Tree@V?$_Tmap_traits@KPAUtagTSVRTEMP@@U?$less@K@std@@V?$allocator@U?$pair@$$CBKPAUtagTSVRTEMP@@@std@@@3@$0A@@std@@@std@@KAAAPAU_Node@?$_Tree_nod@V?$_Tmap_traits@KPAUtagTSVRTEMP@@U?$less@K@std@@V?$allocator@U?$pair@$$CBKPAUtagTSVRTEMP@@@std@@@3@$0A@@std@@@2@PAU342@@Z PROC NEAR ; std::_Tree<std::_Tmap_traits<unsigned long,tagTSVRTEMP *,std::less<unsigned long>,std::allocator<std::pair<unsigned long const ,tagTSVRTEMP *> >,0> >::_Parent, COMDAT

; 152  : 		return ((_Nodepref)(*_Pnode)._Parent);

  00000	8b 44 24 04	 mov	 eax, DWORD PTR __Pnode$[esp-4]
  00004	83 c0 04	 add	 eax, 4

; 153  : 		}

  00007	c3		 ret	 0
?_Parent@?$_Tree@V?$_Tmap_traits@KPAUtagTSVRTEMP@@U?$less@K@std@@V?$allocator@U?$pair@$$CBKPAUtagTSVRTEMP@@@std@@@3@$0A@@std@@@std@@KAAAPAU_Node@?$_Tree_nod@V?$_Tmap_traits@KPAUtagTSVRTEMP@@U?$less@K@std@@V?$allocator@U?$pair@$$CBKPAUtagTSVRTEMP@@@std@@@3@$0A@@std@@@2@PAU342@@Z ENDP ; std::_Tree<std::_Tmap_traits<unsigned long,tagTSVRTEMP *,std::less<unsigned long>,std::allocator<std::pair<unsigned long const ,tagTSVRTEMP *> >,0> >::_Parent
_TEXT	ENDS
PUBLIC	?_Right@?$_Tree@V?$_Tmap_traits@KPAUtagTSVRTEMP@@U?$less@K@std@@V?$allocator@U?$pair@$$CBKPAUtagTSVRTEMP@@@std@@@3@$0A@@std@@@std@@KAAAPAU_Node@?$_Tree_nod@V?$_Tmap_traits@KPAUtagTSVRTEMP@@U?$less@K@std@@V?$allocator@U?$pair@$$CBKPAUtagTSVRTEMP@@@std@@@3@$0A@@std@@@2@PAU342@@Z ; std::_Tree<std::_Tmap_traits<unsigned long,tagTSVRTEMP *,std::less<unsigned long>,std::allocator<std::pair<unsigned long const ,tagTSVRTEMP *> >,0> >::_Right
; Function compile flags: /Ogty
;	COMDAT ?_Right@?$_Tree@V?$_Tmap_traits@KPAUtagTSVRTEMP@@U?$less@K@std@@V?$allocator@U?$pair@$$CBKPAUtagTSVRTEMP@@@std@@@3@$0A@@std@@@std@@KAAAPAU_Node@?$_Tree_nod@V?$_Tmap_traits@KPAUtagTSVRTEMP@@U?$less@K@std@@V?$allocator@U?$pair@$$CBKPAUtagTSVRTEMP@@@std@@@3@$0A@@std@@@2@PAU342@@Z
_TEXT	SEGMENT
__Pnode$ = 8						; size = 4
?_Right@?$_Tree@V?$_Tmap_traits@KPAUtagTSVRTEMP@@U?$less@K@std@@V?$allocator@U?$pair@$$CBKPAUtagTSVRTEMP@@@std@@@3@$0A@@std@@@std@@KAAAPAU_Node@?$_Tree_nod@V?$_Tmap_traits@KPAUtagTSVRTEMP@@U?$less@K@std@@V?$allocator@U?$pair@$$CBKPAUtagTSVRTEMP@@@std@@@3@$0A@@std@@@2@PAU342@@Z PROC NEAR ; std::_Tree<std::_Tmap_traits<unsigned long,tagTSVRTEMP *,std::less<unsigned long>,std::allocator<std::pair<unsigned long const ,tagTSVRTEMP *> >,0> >::_Right, COMDAT

; 157  : 		return ((_Nodepref)(*_Pnode)._Right);

  00000	8b 44 24 04	 mov	 eax, DWORD PTR __Pnode$[esp-4]
  00004	83 c0 08	 add	 eax, 8

; 158  : 		}

  00007	c3		 ret	 0
?_Right@?$_Tree@V?$_Tmap_traits@KPAUtagTSVRTEMP@@U?$less@K@std@@V?$allocator@U?$pair@$$CBKPAUtagTSVRTEMP@@@std@@@3@$0A@@std@@@std@@KAAAPAU_Node@?$_Tree_nod@V?$_Tmap_traits@KPAUtagTSVRTEMP@@U?$less@K@std@@V?$allocator@U?$pair@$$CBKPAUtagTSVRTEMP@@@std@@@3@$0A@@std@@@2@PAU342@@Z ENDP ; std::_Tree<std::_Tmap_traits<unsigned long,tagTSVRTEMP *,std::less<unsigned long>,std::allocator<std::pair<unsigned long const ,tagTSVRTEMP *> >,0> >::_Right
_TEXT	ENDS
PUBLIC	?_Min@?$_Tree@V?$_Tmap_traits@KPAUtagTSVRTEMP@@U?$less@K@std@@V?$allocator@U?$pair@$$CBKPAUtagTSVRTEMP@@@std@@@3@$0A@@std@@@std@@KAPAU_Node@?$_Tree_nod@V?$_Tmap_traits@KPAUtagTSVRTEMP@@U?$less@K@std@@V?$allocator@U?$pair@$$CBKPAUtagTSVRTEMP@@@std@@@3@$0A@@std@@@2@PAU342@@Z ; std::_Tree<std::_Tmap_traits<unsigned long,tagTSVRTEMP *,std::less<unsigned long>,std::allocator<std::pair<unsigned long const ,tagTSVRTEMP *> >,0> >::_Min
; Function compile flags: /Ogty
;	COMDAT ?_Min@?$_Tree@V?$_Tmap_traits@KPAUtagTSVRTEMP@@U?$less@K@std@@V?$allocator@U?$pair@$$CBKPAUtagTSVRTEMP@@@std@@@3@$0A@@std@@@std@@KAPAU_Node@?$_Tree_nod@V?$_Tmap_traits@KPAUtagTSVRTEMP@@U?$less@K@std@@V?$allocator@U?$pair@$$CBKPAUtagTSVRTEMP@@@std@@@3@$0A@@std@@@2@PAU342@@Z
_TEXT	SEGMENT
__Pnode$ = 8						; size = 4
?_Min@?$_Tree@V?$_Tmap_traits@KPAUtagTSVRTEMP@@U?$less@K@std@@V?$allocator@U?$pair@$$CBKPAUtagTSVRTEMP@@@std@@@3@$0A@@std@@@std@@KAPAU_Node@?$_Tree_nod@V?$_Tmap_traits@KPAUtagTSVRTEMP@@U?$less@K@std@@V?$allocator@U?$pair@$$CBKPAUtagTSVRTEMP@@@std@@@3@$0A@@std@@@2@PAU342@@Z PROC NEAR ; std::_Tree<std::_Tmap_traits<unsigned long,tagTSVRTEMP *,std::less<unsigned long>,std::allocator<std::pair<unsigned long const ,tagTSVRTEMP *> >,0> >::_Min, COMDAT

; 1042 : 		while (!_Isnil(_Left(_Pnode)))

  00000	8b 44 24 04	 mov	 eax, DWORD PTR __Pnode$[esp-4]
  00004	8b 08		 mov	 ecx, DWORD PTR [eax]
  00006	8a 51 15	 mov	 dl, BYTE PTR [ecx+21]
  00009	84 d2		 test	 dl, dl
  0000b	75 0e		 jne	 SHORT $L92529
  0000d	8d 49 00	 npad	 3
$L92528:

; 1043 : 			_Pnode = _Left(_Pnode);

  00010	8b c1		 mov	 eax, ecx
  00012	8b 08		 mov	 ecx, DWORD PTR [eax]
  00014	8a 51 15	 mov	 dl, BYTE PTR [ecx+21]
  00017	84 d2		 test	 dl, dl
  00019	74 f5		 je	 SHORT $L92528
$L92529:

; 1044 : 		return (_Pnode);
; 1045 : 		}

  0001b	c3		 ret	 0
?_Min@?$_Tree@V?$_Tmap_traits@KPAUtagTSVRTEMP@@U?$less@K@std@@V?$allocator@U?$pair@$$CBKPAUtagTSVRTEMP@@@std@@@3@$0A@@std@@@std@@KAPAU_Node@?$_Tree_nod@V?$_Tmap_traits@KPAUtagTSVRTEMP@@U?$less@K@std@@V?$allocator@U?$pair@$$CBKPAUtagTSVRTEMP@@@std@@@3@$0A@@std@@@2@PAU342@@Z ENDP ; std::_Tree<std::_Tmap_traits<unsigned long,tagTSVRTEMP *,std::less<unsigned long>,std::allocator<std::pair<unsigned long const ,tagTSVRTEMP *> >,0> >::_Min
_TEXT	ENDS
PUBLIC	?_Isnil@?$_Tree@V?$_Tmap_traits@KPAUtagBANINFO@@U?$less@K@std@@V?$allocator@U?$pair@$$CBKPAUtagBANINFO@@@std@@@3@$0A@@std@@@std@@KAAADPAU_Node@?$_Tree_nod@V?$_Tmap_traits@KPAUtagBANINFO@@U?$less@K@std@@V?$allocator@U?$pair@$$CBKPAUtagBANINFO@@@std@@@3@$0A@@std@@@2@@Z ; std::_Tree<std::_Tmap_traits<unsigned long,tagBANINFO *,std::less<unsigned long>,std::allocator<std::pair<unsigned long const ,tagBANINFO *> >,0> >::_Isnil
; Function compile flags: /Ogty
;	COMDAT ?_Isnil@?$_Tree@V?$_Tmap_traits@KPAUtagBANINFO@@U?$less@K@std@@V?$allocator@U?$pair@$$CBKPAUtagBANINFO@@@std@@@3@$0A@@std@@@std@@KAAADPAU_Node@?$_Tree_nod@V?$_Tmap_traits@KPAUtagBANINFO@@U?$less@K@std@@V?$allocator@U?$pair@$$CBKPAUtagBANINFO@@@std@@@3@$0A@@std@@@2@@Z
_TEXT	SEGMENT
__Pnode$ = 8						; size = 4
?_Isnil@?$_Tree@V?$_Tmap_traits@KPAUtagBANINFO@@U?$less@K@std@@V?$allocator@U?$pair@$$CBKPAUtagBANINFO@@@std@@@3@$0A@@std@@@std@@KAAADPAU_Node@?$_Tree_nod@V?$_Tmap_traits@KPAUtagBANINFO@@U?$less@K@std@@V?$allocator@U?$pair@$$CBKPAUtagBANINFO@@@std@@@3@$0A@@std@@@2@@Z PROC NEAR ; std::_Tree<std::_Tmap_traits<unsigned long,tagBANINFO *,std::less<unsigned long>,std::allocator<std::pair<unsigned long const ,tagBANINFO *> >,0> >::_Isnil, COMDAT

; 137  : 		return ((_Charref)(*_Pnode)._Isnil);

  00000	8b 44 24 04	 mov	 eax, DWORD PTR __Pnode$[esp-4]
  00004	83 c0 15	 add	 eax, 21			; 00000015H

; 138  : 		}

  00007	c3		 ret	 0
?_Isnil@?$_Tree@V?$_Tmap_traits@KPAUtagBANINFO@@U?$less@K@std@@V?$allocator@U?$pair@$$CBKPAUtagBANINFO@@@std@@@3@$0A@@std@@@std@@KAAADPAU_Node@?$_Tree_nod@V?$_Tmap_traits@KPAUtagBANINFO@@U?$less@K@std@@V?$allocator@U?$pair@$$CBKPAUtagBANINFO@@@std@@@3@$0A@@std@@@2@@Z ENDP ; std::_Tree<std::_Tmap_traits<unsigned long,tagBANINFO *,std::less<unsigned long>,std::allocator<std::pair<unsigned long const ,tagBANINFO *> >,0> >::_Isnil
_TEXT	ENDS
PUBLIC	?_Parent@?$_Tree@V?$_Tmap_traits@KPAUtagBANINFO@@U?$less@K@std@@V?$allocator@U?$pair@$$CBKPAUtagBANINFO@@@std@@@3@$0A@@std@@@std@@KAAAPAU_Node@?$_Tree_nod@V?$_Tmap_traits@KPAUtagBANINFO@@U?$less@K@std@@V?$allocator@U?$pair@$$CBKPAUtagBANINFO@@@std@@@3@$0A@@std@@@2@PAU342@@Z ; std::_Tree<std::_Tmap_traits<unsigned long,tagBANINFO *,std::less<unsigned long>,std::allocator<std::pair<unsigned long const ,tagBANINFO *> >,0> >::_Parent
; Function compile flags: /Ogty
;	COMDAT ?_Parent@?$_Tree@V?$_Tmap_traits@KPAUtagBANINFO@@U?$less@K@std@@V?$allocator@U?$pair@$$CBKPAUtagBANINFO@@@std@@@3@$0A@@std@@@std@@KAAAPAU_Node@?$_Tree_nod@V?$_Tmap_traits@KPAUtagBANINFO@@U?$less@K@std@@V?$allocator@U?$pair@$$CBKPAUtagBANINFO@@@std@@@3@$0A@@std@@@2@PAU342@@Z
_TEXT	SEGMENT
__Pnode$ = 8						; size = 4
?_Parent@?$_Tree@V?$_Tmap_traits@KPAUtagBANINFO@@U?$less@K@std@@V?$allocator@U?$pair@$$CBKPAUtagBANINFO@@@std@@@3@$0A@@std@@@std@@KAAAPAU_Node@?$_Tree_nod@V?$_Tmap_traits@KPAUtagBANINFO@@U?$less@K@std@@V?$allocator@U?$pair@$$CBKPAUtagBANINFO@@@std@@@3@$0A@@std@@@2@PAU342@@Z PROC NEAR ; std::_Tree<std::_Tmap_traits<unsigned long,tagBANINFO *,std::less<unsigned long>,std::allocator<std::pair<unsigned long const ,tagBANINFO *> >,0> >::_Parent, COMDAT

; 152  : 		return ((_Nodepref)(*_Pnode)._Parent);

  00000	8b 44 24 04	 mov	 eax, DWORD PTR __Pnode$[esp-4]
  00004	83 c0 04	 add	 eax, 4

; 153  : 		}

  00007	c3		 ret	 0
?_Parent@?$_Tree@V?$_Tmap_traits@KPAUtagBANINFO@@U?$less@K@std@@V?$allocator@U?$pair@$$CBKPAUtagBANINFO@@@std@@@3@$0A@@std@@@std@@KAAAPAU_Node@?$_Tree_nod@V?$_Tmap_traits@KPAUtagBANINFO@@U?$less@K@std@@V?$allocator@U?$pair@$$CBKPAUtagBANINFO@@@std@@@3@$0A@@std@@@2@PAU342@@Z ENDP ; std::_Tree<std::_Tmap_traits<unsigned long,tagBANINFO *,std::less<unsigned long>,std::allocator<std::pair<unsigned long const ,tagBANINFO *> >,0> >::_Parent
_TEXT	ENDS
PUBLIC	?_Right@?$_Tree@V?$_Tmap_traits@KPAUtagBANINFO@@U?$less@K@std@@V?$allocator@U?$pair@$$CBKPAUtagBANINFO@@@std@@@3@$0A@@std@@@std@@KAAAPAU_Node@?$_Tree_nod@V?$_Tmap_traits@KPAUtagBANINFO@@U?$less@K@std@@V?$allocator@U?$pair@$$CBKPAUtagBANINFO@@@std@@@3@$0A@@std@@@2@PAU342@@Z ; std::_Tree<std::_Tmap_traits<unsigned long,tagBANINFO *,std::less<unsigned long>,std::allocator<std::pair<unsigned long const ,tagBANINFO *> >,0> >::_Right
; Function compile flags: /Ogty
;	COMDAT ?_Right@?$_Tree@V?$_Tmap_traits@KPAUtagBANINFO@@U?$less@K@std@@V?$allocator@U?$pair@$$CBKPAUtagBANINFO@@@std@@@3@$0A@@std@@@std@@KAAAPAU_Node@?$_Tree_nod@V?$_Tmap_traits@KPAUtagBANINFO@@U?$less@K@std@@V?$allocator@U?$pair@$$CBKPAUtagBANINFO@@@std@@@3@$0A@@std@@@2@PAU342@@Z
_TEXT	SEGMENT
__Pnode$ = 8						; size = 4
?_Right@?$_Tree@V?$_Tmap_traits@KPAUtagBANINFO@@U?$less@K@std@@V?$allocator@U?$pair@$$CBKPAUtagBANINFO@@@std@@@3@$0A@@std@@@std@@KAAAPAU_Node@?$_Tree_nod@V?$_Tmap_traits@KPAUtagBANINFO@@U?$less@K@std@@V?$allocator@U?$pair@$$CBKPAUtagBANINFO@@@std@@@3@$0A@@std@@@2@PAU342@@Z PROC NEAR ; std::_Tree<std::_Tmap_traits<unsigned long,tagBANINFO *,std::less<unsigned long>,std::allocator<std::pair<unsigned long const ,tagBANINFO *> >,0> >::_Right, COMDAT

; 157  : 		return ((_Nodepref)(*_Pnode)._Right);

  00000	8b 44 24 04	 mov	 eax, DWORD PTR __Pnode$[esp-4]
  00004	83 c0 08	 add	 eax, 8

; 158  : 		}

  00007	c3		 ret	 0
?_Right@?$_Tree@V?$_Tmap_traits@KPAUtagBANINFO@@U?$less@K@std@@V?$allocator@U?$pair@$$CBKPAUtagBANINFO@@@std@@@3@$0A@@std@@@std@@KAAAPAU_Node@?$_Tree_nod@V?$_Tmap_traits@KPAUtagBANINFO@@U?$less@K@std@@V?$allocator@U?$pair@$$CBKPAUtagBANINFO@@@std@@@3@$0A@@std@@@2@PAU342@@Z ENDP ; std::_Tree<std::_Tmap_traits<unsigned long,tagBANINFO *,std::less<unsigned long>,std::allocator<std::pair<unsigned long const ,tagBANINFO *> >,0> >::_Right
_TEXT	ENDS
PUBLIC	?_Min@?$_Tree@V?$_Tmap_traits@KPAUtagBANINFO@@U?$less@K@std@@V?$allocator@U?$pair@$$CBKPAUtagBANINFO@@@std@@@3@$0A@@std@@@std@@KAPAU_Node@?$_Tree_nod@V?$_Tmap_traits@KPAUtagBANINFO@@U?$less@K@std@@V?$allocator@U?$pair@$$CBKPAUtagBANINFO@@@std@@@3@$0A@@std@@@2@PAU342@@Z ; std::_Tree<std::_Tmap_traits<unsigned long,tagBANINFO *,std::less<unsigned long>,std::allocator<std::pair<unsigned long const ,tagBANINFO *> >,0> >::_Min
; Function compile flags: /Ogty
;	COMDAT ?_Min@?$_Tree@V?$_Tmap_traits@KPAUtagBANINFO@@U?$less@K@std@@V?$allocator@U?$pair@$$CBKPAUtagBANINFO@@@std@@@3@$0A@@std@@@std@@KAPAU_Node@?$_Tree_nod@V?$_Tmap_traits@KPAUtagBANINFO@@U?$less@K@std@@V?$allocator@U?$pair@$$CBKPAUtagBANINFO@@@std@@@3@$0A@@std@@@2@PAU342@@Z
_TEXT	SEGMENT
__Pnode$ = 8						; size = 4
?_Min@?$_Tree@V?$_Tmap_traits@KPAUtagBANINFO@@U?$less@K@std@@V?$allocator@U?$pair@$$CBKPAUtagBANINFO@@@std@@@3@$0A@@std@@@std@@KAPAU_Node@?$_Tree_nod@V?$_Tmap_traits@KPAUtagBANINFO@@U?$less@K@std@@V?$allocator@U?$pair@$$CBKPAUtagBANINFO@@@std@@@3@$0A@@std@@@2@PAU342@@Z PROC NEAR ; std::_Tree<std::_Tmap_traits<unsigned long,tagBANINFO *,std::less<unsigned long>,std::allocator<std::pair<unsigned long const ,tagBANINFO *> >,0> >::_Min, COMDAT

; 1042 : 		while (!_Isnil(_Left(_Pnode)))

  00000	8b 44 24 04	 mov	 eax, DWORD PTR __Pnode$[esp-4]
  00004	8b 08		 mov	 ecx, DWORD PTR [eax]
  00006	8a 51 15	 mov	 dl, BYTE PTR [ecx+21]
  00009	84 d2		 test	 dl, dl
  0000b	75 0e		 jne	 SHORT $L92539
  0000d	8d 49 00	 npad	 3
$L92538:

; 1043 : 			_Pnode = _Left(_Pnode);

  00010	8b c1		 mov	 eax, ecx
  00012	8b 08		 mov	 ecx, DWORD PTR [eax]
  00014	8a 51 15	 mov	 dl, BYTE PTR [ecx+21]
  00017	84 d2		 test	 dl, dl
  00019	74 f5		 je	 SHORT $L92538
$L92539:

; 1044 : 		return (_Pnode);
; 1045 : 		}

  0001b	c3		 ret	 0
?_Min@?$_Tree@V?$_Tmap_traits@KPAUtagBANINFO@@U?$less@K@std@@V?$allocator@U?$pair@$$CBKPAUtagBANINFO@@@std@@@3@$0A@@std@@@std@@KAPAU_Node@?$_Tree_nod@V?$_Tmap_traits@KPAUtagBANINFO@@U?$less@K@std@@V?$allocator@U?$pair@$$CBKPAUtagBANINFO@@@std@@@3@$0A@@std@@@2@PAU342@@Z ENDP ; std::_Tree<std::_Tmap_traits<unsigned long,tagBANINFO *,std::less<unsigned long>,std::allocator<std::pair<unsigned long const ,tagBANINFO *> >,0> >::_Min
_TEXT	ENDS
PUBLIC	?_Isnil@?$_Tree@V?$_Tmap_traits@KUtagEVENTINFO@@U?$less@K@std@@V?$allocator@U?$pair@$$CBKUtagEVENTINFO@@@std@@@3@$0A@@std@@@std@@KAAADPAU_Node@?$_Tree_nod@V?$_Tmap_traits@KUtagEVENTINFO@@U?$less@K@std@@V?$allocator@U?$pair@$$CBKUtagEVENTINFO@@@std@@@3@$0A@@std@@@2@@Z ; std::_Tree<std::_Tmap_traits<unsigned long,tagEVENTINFO,std::less<unsigned long>,std::allocator<std::pair<unsigned long const ,tagEVENTINFO> >,0> >::_Isnil
; Function compile flags: /Ogty
;	COMDAT ?_Isnil@?$_Tree@V?$_Tmap_traits@KUtagEVENTINFO@@U?$less@K@std@@V?$allocator@U?$pair@$$CBKUtagEVENTINFO@@@std@@@3@$0A@@std@@@std@@KAAADPAU_Node@?$_Tree_nod@V?$_Tmap_traits@KUtagEVENTINFO@@U?$less@K@std@@V?$allocator@U?$pair@$$CBKUtagEVENTINFO@@@std@@@3@$0A@@std@@@2@@Z
_TEXT	SEGMENT
__Pnode$ = 8						; size = 4
?_Isnil@?$_Tree@V?$_Tmap_traits@KUtagEVENTINFO@@U?$less@K@std@@V?$allocator@U?$pair@$$CBKUtagEVENTINFO@@@std@@@3@$0A@@std@@@std@@KAAADPAU_Node@?$_Tree_nod@V?$_Tmap_traits@KUtagEVENTINFO@@U?$less@K@std@@V?$allocator@U?$pair@$$CBKUtagEVENTINFO@@@std@@@3@$0A@@std@@@2@@Z PROC NEAR ; std::_Tree<std::_Tmap_traits<unsigned long,tagEVENTINFO,std::less<unsigned long>,std::allocator<std::pair<unsigned long const ,tagEVENTINFO> >,0> >::_Isnil, COMDAT

; 137  : 		return ((_Charref)(*_Pnode)._Isnil);

  00000	8b 44 24 04	 mov	 eax, DWORD PTR __Pnode$[esp-4]
  00004	05 a1 00 00 00	 add	 eax, 161		; 000000a1H

; 138  : 		}

  00009	c3		 ret	 0
?_Isnil@?$_Tree@V?$_Tmap_traits@KUtagEVENTINFO@@U?$less@K@std@@V?$allocator@U?$pair@$$CBKUtagEVENTINFO@@@std@@@3@$0A@@std@@@std@@KAAADPAU_Node@?$_Tree_nod@V?$_Tmap_traits@KUtagEVENTINFO@@U?$less@K@std@@V?$allocator@U?$pair@$$CBKUtagEVENTINFO@@@std@@@3@$0A@@std@@@2@@Z ENDP ; std::_Tree<std::_Tmap_traits<unsigned long,tagEVENTINFO,std::less<unsigned long>,std::allocator<std::pair<unsigned long const ,tagEVENTINFO> >,0> >::_Isnil
_TEXT	ENDS
PUBLIC	?_Parent@?$_Tree@V?$_Tmap_traits@KUtagEVENTINFO@@U?$less@K@std@@V?$allocator@U?$pair@$$CBKUtagEVENTINFO@@@std@@@3@$0A@@std@@@std@@KAAAPAU_Node@?$_Tree_nod@V?$_Tmap_traits@KUtagEVENTINFO@@U?$less@K@std@@V?$allocator@U?$pair@$$CBKUtagEVENTINFO@@@std@@@3@$0A@@std@@@2@PAU342@@Z ; std::_Tree<std::_Tmap_traits<unsigned long,tagEVENTINFO,std::less<unsigned long>,std::allocator<std::pair<unsigned long const ,tagEVENTINFO> >,0> >::_Parent
; Function compile flags: /Ogty
;	COMDAT ?_Parent@?$_Tree@V?$_Tmap_traits@KUtagEVENTINFO@@U?$less@K@std@@V?$allocator@U?$pair@$$CBKUtagEVENTINFO@@@std@@@3@$0A@@std@@@std@@KAAAPAU_Node@?$_Tree_nod@V?$_Tmap_traits@KUtagEVENTINFO@@U?$less@K@std@@V?$allocator@U?$pair@$$CBKUtagEVENTINFO@@@std@@@3@$0A@@std@@@2@PAU342@@Z
_TEXT	SEGMENT
__Pnode$ = 8						; size = 4
?_Parent@?$_Tree@V?$_Tmap_traits@KUtagEVENTINFO@@U?$less@K@std@@V?$allocator@U?$pair@$$CBKUtagEVENTINFO@@@std@@@3@$0A@@std@@@std@@KAAAPAU_Node@?$_Tree_nod@V?$_Tmap_traits@KUtagEVENTINFO@@U?$less@K@std@@V?$allocator@U?$pair@$$CBKUtagEVENTINFO@@@std@@@3@$0A@@std@@@2@PAU342@@Z PROC NEAR ; std::_Tree<std::_Tmap_traits<unsigned long,tagEVENTINFO,std::less<unsigned long>,std::allocator<std::pair<unsigned long const ,tagEVENTINFO> >,0> >::_Parent, COMDAT

; 152  : 		return ((_Nodepref)(*_Pnode)._Parent);

  00000	8b 44 24 04	 mov	 eax, DWORD PTR __Pnode$[esp-4]
  00004	83 c0 04	 add	 eax, 4

; 153  : 		}

  00007	c3		 ret	 0
?_Parent@?$_Tree@V?$_Tmap_traits@KUtagEVENTINFO@@U?$less@K@std@@V?$allocator@U?$pair@$$CBKUtagEVENTINFO@@@std@@@3@$0A@@std@@@std@@KAAAPAU_Node@?$_Tree_nod@V?$_Tmap_traits@KUtagEVENTINFO@@U?$less@K@std@@V?$allocator@U?$pair@$$CBKUtagEVENTINFO@@@std@@@3@$0A@@std@@@2@PAU342@@Z ENDP ; std::_Tree<std::_Tmap_traits<unsigned long,tagEVENTINFO,std::less<unsigned long>,std::allocator<std::pair<unsigned long const ,tagEVENTINFO> >,0> >::_Parent
_TEXT	ENDS
PUBLIC	?_Right@?$_Tree@V?$_Tmap_traits@KUtagEVENTINFO@@U?$less@K@std@@V?$allocator@U?$pair@$$CBKUtagEVENTINFO@@@std@@@3@$0A@@std@@@std@@KAAAPAU_Node@?$_Tree_nod@V?$_Tmap_traits@KUtagEVENTINFO@@U?$less@K@std@@V?$allocator@U?$pair@$$CBKUtagEVENTINFO@@@std@@@3@$0A@@std@@@2@PAU342@@Z ; std::_Tree<std::_Tmap_traits<unsigned long,tagEVENTINFO,std::less<unsigned long>,std::allocator<std::pair<unsigned long const ,tagEVENTINFO> >,0> >::_Right
; Function compile flags: /Ogty
;	COMDAT ?_Right@?$_Tree@V?$_Tmap_traits@KUtagEVENTINFO@@U?$less@K@std@@V?$allocator@U?$pair@$$CBKUtagEVENTINFO@@@std@@@3@$0A@@std@@@std@@KAAAPAU_Node@?$_Tree_nod@V?$_Tmap_traits@KUtagEVENTINFO@@U?$less@K@std@@V?$allocator@U?$pair@$$CBKUtagEVENTINFO@@@std@@@3@$0A@@std@@@2@PAU342@@Z
_TEXT	SEGMENT
__Pnode$ = 8						; size = 4
?_Right@?$_Tree@V?$_Tmap_traits@KUtagEVENTINFO@@U?$less@K@std@@V?$allocator@U?$pair@$$CBKUtagEVENTINFO@@@std@@@3@$0A@@std@@@std@@KAAAPAU_Node@?$_Tree_nod@V?$_Tmap_traits@KUtagEVENTINFO@@U?$less@K@std@@V?$allocator@U?$pair@$$CBKUtagEVENTINFO@@@std@@@3@$0A@@std@@@2@PAU342@@Z PROC NEAR ; std::_Tree<std::_Tmap_traits<unsigned long,tagEVENTINFO,std::less<unsigned long>,std::allocator<std::pair<unsigned long const ,tagEVENTINFO> >,0> >::_Right, COMDAT

; 157  : 		return ((_Nodepref)(*_Pnode)._Right);

  00000	8b 44 24 04	 mov	 eax, DWORD PTR __Pnode$[esp-4]
  00004	83 c0 08	 add	 eax, 8

; 158  : 		}

  00007	c3		 ret	 0
?_Right@?$_Tree@V?$_Tmap_traits@KUtagEVENTINFO@@U?$less@K@std@@V?$allocator@U?$pair@$$CBKUtagEVENTINFO@@@std@@@3@$0A@@std@@@std@@KAAAPAU_Node@?$_Tree_nod@V?$_Tmap_traits@KUtagEVENTINFO@@U?$less@K@std@@V?$allocator@U?$pair@$$CBKUtagEVENTINFO@@@std@@@3@$0A@@std@@@2@PAU342@@Z ENDP ; std::_Tree<std::_Tmap_traits<unsigned long,tagEVENTINFO,std::less<unsigned long>,std::allocator<std::pair<unsigned long const ,tagEVENTINFO> >,0> >::_Right
_TEXT	ENDS
PUBLIC	?_Min@?$_Tree@V?$_Tmap_traits@KUtagEVENTINFO@@U?$less@K@std@@V?$allocator@U?$pair@$$CBKUtagEVENTINFO@@@std@@@3@$0A@@std@@@std@@KAPAU_Node@?$_Tree_nod@V?$_Tmap_traits@KUtagEVENTINFO@@U?$less@K@std@@V?$allocator@U?$pair@$$CBKUtagEVENTINFO@@@std@@@3@$0A@@std@@@2@PAU342@@Z ; std::_Tree<std::_Tmap_traits<unsigned long,tagEVENTINFO,std::less<unsigned long>,std::allocator<std::pair<unsigned long const ,tagEVENTINFO> >,0> >::_Min
; Function compile flags: /Ogty
;	COMDAT ?_Min@?$_Tree@V?$_Tmap_traits@KUtagEVENTINFO@@U?$less@K@std@@V?$allocator@U?$pair@$$CBKUtagEVENTINFO@@@std@@@3@$0A@@std@@@std@@KAPAU_Node@?$_Tree_nod@V?$_Tmap_traits@KUtagEVENTINFO@@U?$less@K@std@@V?$allocator@U?$pair@$$CBKUtagEVENTINFO@@@std@@@3@$0A@@std@@@2@PAU342@@Z
_TEXT	SEGMENT
__Pnode$ = 8						; size = 4
?_Min@?$_Tree@V?$_Tmap_traits@KUtagEVENTINFO@@U?$less@K@std@@V?$allocator@U?$pair@$$CBKUtagEVENTINFO@@@std@@@3@$0A@@std@@@std@@KAPAU_Node@?$_Tree_nod@V?$_Tmap_traits@KUtagEVENTINFO@@U?$less@K@std@@V?$allocator@U?$pair@$$CBKUtagEVENTINFO@@@std@@@3@$0A@@std@@@2@PAU342@@Z PROC NEAR ; std::_Tree<std::_Tmap_traits<unsigned long,tagEVENTINFO,std::less<unsigned long>,std::allocator<std::pair<unsigned long const ,tagEVENTINFO> >,0> >::_Min, COMDAT

; 1042 : 		while (!_Isnil(_Left(_Pnode)))

  00000	8b 44 24 04	 mov	 eax, DWORD PTR __Pnode$[esp-4]
  00004	8b 08		 mov	 ecx, DWORD PTR [eax]
  00006	8a 91 a1 00 00
	00		 mov	 dl, BYTE PTR [ecx+161]
  0000c	84 d2		 test	 dl, dl
  0000e	75 0e		 jne	 SHORT $L92549
$L92548:

; 1043 : 			_Pnode = _Left(_Pnode);

  00010	8b c1		 mov	 eax, ecx
  00012	8b 08		 mov	 ecx, DWORD PTR [eax]
  00014	8a 91 a1 00 00
	00		 mov	 dl, BYTE PTR [ecx+161]
  0001a	84 d2		 test	 dl, dl
  0001c	74 f2		 je	 SHORT $L92548
$L92549:

; 1044 : 		return (_Pnode);
; 1045 : 		}

  0001e	c3		 ret	 0
?_Min@?$_Tree@V?$_Tmap_traits@KUtagEVENTINFO@@U?$less@K@std@@V?$allocator@U?$pair@$$CBKUtagEVENTINFO@@@std@@@3@$0A@@std@@@std@@KAPAU_Node@?$_Tree_nod@V?$_Tmap_traits@KUtagEVENTINFO@@U?$less@K@std@@V?$allocator@U?$pair@$$CBKUtagEVENTINFO@@@std@@@3@$0A@@std@@@2@PAU342@@Z ENDP ; std::_Tree<std::_Tmap_traits<unsigned long,tagEVENTINFO,std::less<unsigned long>,std::allocator<std::pair<unsigned long const ,tagEVENTINFO> >,0> >::_Min
_TEXT	ENDS
PUBLIC	?data@CStringData@ATL@@QAEPAXXZ			; ATL::CStringData::data
; Function compile flags: /Ogty
; File c:\program files (x86)\microsoft visual studio .net 2003\vc7\atlmfc\include\atlsimpstr.h
;	COMDAT ?data@CStringData@ATL@@QAEPAXXZ
_TEXT	SEGMENT
?data@CStringData@ATL@@QAEPAXXZ PROC NEAR		; ATL::CStringData::data, COMDAT
; _this$ = ecx

; 66   : 		return (this+1);

  00000	8d 41 10	 lea	 eax, DWORD PTR [ecx+16]

; 67   : 	}

  00003	c3		 ret	 0
?data@CStringData@ATL@@QAEPAXXZ ENDP			; ATL::CStringData::data
_TEXT	ENDS
PUBLIC	?AddRef@CStringData@ATL@@QAEXXZ			; ATL::CStringData::AddRef
; Function compile flags: /Ogty
;	COMDAT ?AddRef@CStringData@ATL@@QAEXXZ
_TEXT	SEGMENT
?AddRef@CStringData@ATL@@QAEXXZ PROC NEAR		; ATL::CStringData::AddRef, COMDAT
; _this$ = ecx

; 71   : 		ATLASSERT(nRefs > 0);
; 72   : 		_InterlockedIncrement(&nRefs);

  00000	83 c1 0c	 add	 ecx, 12			; 0000000cH
  00003	b8 01 00 00 00	 mov	 eax, 1
  00008	f0 0f c1 01	 lock	  xadd	 DWORD PTR [ecx], eax

; 73   : 	}

  0000c	c3		 ret	 0
?AddRef@CStringData@ATL@@QAEXXZ ENDP			; ATL::CStringData::AddRef
_TEXT	ENDS
PUBLIC	?IsLocked@CStringData@ATL@@QBE_NXZ		; ATL::CStringData::IsLocked
; Function compile flags: /Ogty
;	COMDAT ?IsLocked@CStringData@ATL@@QBE_NXZ
_TEXT	SEGMENT
?IsLocked@CStringData@ATL@@QBE_NXZ PROC NEAR		; ATL::CStringData::IsLocked, COMDAT
; _this$ = ecx

; 76   : 		return nRefs < 0;

  00000	8b 51 0c	 mov	 edx, DWORD PTR [ecx+12]
  00003	33 c0		 xor	 eax, eax
  00005	85 d2		 test	 edx, edx
  00007	0f 9c c0	 setl	 al

; 77   : 	}

  0000a	c3		 ret	 0
?IsLocked@CStringData@ATL@@QBE_NXZ ENDP			; ATL::CStringData::IsLocked
_TEXT	ENDS
PUBLIC	?Release@CStringData@ATL@@QAEXXZ		; ATL::CStringData::Release
; Function compile flags: /Ogty
;	COMDAT ?Release@CStringData@ATL@@QAEXXZ
_TEXT	SEGMENT
?Release@CStringData@ATL@@QAEXXZ PROC NEAR		; ATL::CStringData::Release, COMDAT
; _this$ = ecx

; 93   : 		ATLASSERT( nRefs != 0 );
; 94   : 
; 95   : 		if( _InterlockedDecrement( &nRefs ) <= 0 )

  00000	8d 41 0c	 lea	 eax, DWORD PTR [ecx+12]
  00003	83 ca ff	 or	 edx, -1
  00006	f0 0f c1 10	 lock	  xadd	 DWORD PTR [eax], edx
  0000a	4a		 dec	 edx
  0000b	85 d2		 test	 edx, edx
  0000d	7f 0a		 jg	 SHORT $L59419

; 96   : 		{
; 97   : 			pStringMgr->Free( this );

  0000f	8b 01		 mov	 eax, DWORD PTR [ecx]
  00011	8b 10		 mov	 edx, DWORD PTR [eax]
  00013	51		 push	 ecx
  00014	8b c8		 mov	 ecx, eax
