; Listing generated by Microsoft (R) Optimizing Compiler Version 13.10.3077 

	TITLE	.\Sender.cpp
	.386P
include listing.inc
if @Version gt 510
.model FLAT
else
_TEXT	SEGMENT PARA USE32 PUBLIC 'CODE'
_TEXT	ENDS
_DATA	SEGMENT DWORD USE32 PUBLIC 'DATA'
_DATA	ENDS
CONST	SEGMENT DWORD USE32 PUBLIC 'CONST'
CONST	ENDS
_BSS	SEGMENT DWORD USE32 PUBLIC 'BSS'
_BSS	ENDS
$$SYMBOLS	SEGMENT BYTE USE32 'DEBSYM'
$$SYMBOLS	ENDS
$$TYPES	SEGMENT BYTE USE32 'DEBTYP'
$$TYPES	ENDS
_TLS	SEGMENT DWORD USE32 PUBLIC 'TLS'
_TLS	ENDS
;	COMDAT ??_C@_0BM@NMJKDPPO@invalid?5vector?$DMT?$DO?5subscript?$AA@
CONST	SEGMENT DWORD USE32 PUBLIC 'CONST'
CONST	ENDS
text$yc	SEGMENT PARA USE32 PUBLIC 'CODE'
text$yc	ENDS
CRT$XCA	SEGMENT DWORD USE32 PUBLIC 'DATA'
CRT$XCA	ENDS
CRT$XCU	SEGMENT DWORD USE32 PUBLIC 'DATA'
CRT$XCU	ENDS
CRT$XCL	SEGMENT DWORD USE32 PUBLIC 'DATA'
CRT$XCL	ENDS
CRT$XCC	SEGMENT DWORD USE32 PUBLIC 'DATA'
CRT$XCC	ENDS
CRT$XCZ	SEGMENT DWORD USE32 PUBLIC 'DATA'
CRT$XCZ	ENDS
text$yd	SEGMENT PARA USE32 PUBLIC 'CODE'
text$yd	ENDS
ATL$__m	SEGMENT DWORD USE32 PUBLIC ''
ATL$__m	ENDS
ATL$__z	SEGMENT DWORD USE32 PUBLIC ''
ATL$__z	ENDS
ATL$__a	SEGMENT DWORD USE32 PUBLIC ''
ATL$__a	ENDS
xdata$x	SEGMENT DWORD USE32 PUBLIC 'CONST'
xdata$x	ENDS
;	COMDAT ?SendCT_OPLOGIN_ACK@CTManager@@QAEXEEK@Z
_TEXT	SEGMENT PARA USE32 PUBLIC 'CODE'
_TEXT	ENDS
;	COMDAT ?SendCT_STLOGIN_ACK@CTManager@@QAEXEE@Z
_TEXT	SEGMENT PARA USE32 PUBLIC 'CODE'
_TEXT	ENDS
;	COMDAT ?SendCT_SVRTYPELIST_ACK@CTManager@@QAEXPAV?$map@EPAUtagTSVRTYPE@@U?$less@E@std@@V?$allocator@U?$pair@$$CBEPAUtagTSVRTYPE@@@std@@@3@@std@@@Z
_TEXT	SEGMENT PARA USE32 PUBLIC 'CODE'
_TEXT	ENDS
;	COMDAT ?SendCT_MACHINELIST_ACK@CTManager@@QAEXPAV?$map@EPAUtagTMACHINE@@U?$less@E@std@@V?$allocator@U?$pair@$$CBEPAUtagTMACHINE@@@std@@@3@@std@@@Z
_TEXT	SEGMENT PARA USE32 PUBLIC 'CODE'
_TEXT	ENDS
;	COMDAT ?SendCT_GROUPLIST_ACK@CTManager@@QAEXPAV?$map@EPAUtagTGROUP@@U?$less@E@std@@V?$allocator@U?$pair@$$CBEPAUtagTGROUP@@@std@@@3@@std@@@Z
_TEXT	SEGMENT PARA USE32 PUBLIC 'CODE'
_TEXT	ENDS
;	COMDAT ?SendCT_SERVICESTAT_ACK@CTManager@@QAEXPAV?$map@KPAUtagTSVRTEMP@@U?$less@K@std@@V?$allocator@U?$pair@$$CBKPAUtagTSVRTEMP@@@std@@@3@@std@@@Z
_TEXT	SEGMENT PARA USE32 PUBLIC 'CODE'
_TEXT	ENDS
;	COMDAT ?SendCT_SERVICECONTROL_ACK@CTManager@@QAEXE@Z
_TEXT	SEGMENT PARA USE32 PUBLIC 'CODE'
_TEXT	ENDS
;	COMDAT ?SendCT_SERVICECHANGE_ACK@CTManager@@QAEXKK@Z
_TEXT	SEGMENT PARA USE32 PUBLIC 'CODE'
_TEXT	ENDS
;	COMDAT ?SendCT_SERVICEDATA_ACK@CTManager@@QAEXPAUtagTSVRTEMP@@KKKK@Z
_TEXT	SEGMENT PARA USE32 PUBLIC 'CODE'
_TEXT	ENDS
;	COMDAT ?SendCT_SERVICEUPLOADSTART_ACK@CTManager@@QAEXE@Z
_TEXT	SEGMENT PARA USE32 PUBLIC 'CODE'
_TEXT	ENDS
;	COMDAT ?SendCT_SERVICEUPLOAD_ACK@CTManager@@QAEXXZ
_TEXT	SEGMENT PARA USE32 PUBLIC 'CODE'
_TEXT	ENDS
;	COMDAT ?SendCT_SERVICEUPLOADEND_ACK@CTManager@@QAEXE@Z
_TEXT	SEGMENT PARA USE32 PUBLIC 'CODE'
_TEXT	ENDS
;	COMDAT ?SendCT_AUTHORITY_ACK@CTManager@@QAEXXZ
_TEXT	SEGMENT PARA USE32 PUBLIC 'CODE'
_TEXT	ENDS
;	COMDAT ?SendCT_ACCOUNTINPUT_ACK@CTManager@@QAEXE@Z
_TEXT	SEGMENT PARA USE32 PUBLIC 'CODE'
_TEXT	ENDS
;	COMDAT ?SendCT_PLATFORM_ACK@CTManager@@QAEXEKKM@Z
_TEXT	SEGMENT PARA USE32 PUBLIC 'CODE'
_TEXT	ENDS
;	COMDAT ?SendCT_MONSPAWNFIND_ACK@CTManager@@QAEXPAVCPacket@@@Z
_TEXT	SEGMENT PARA USE32 PUBLIC 'CODE'
_TEXT	ENDS
;	COMDAT ?SendCT_USERPROTECTED_ACK@CTManager@@QAEXE@Z
_TEXT	SEGMENT PARA USE32 PUBLIC 'CODE'
_TEXT	ENDS
;	COMDAT ?SendCT_SERVICEAUTOSTART_ACK@CTManager@@QAEXE@Z
_TEXT	SEGMENT PARA USE32 PUBLIC 'CODE'
_TEXT	ENDS
;	COMDAT ?SendCT_CHATBAN_ACK@CTManager@@QAEXE@Z
_TEXT	SEGMENT PARA USE32 PUBLIC 'CODE'
_TEXT	ENDS
;	COMDAT ?SendCT_ITEMFIND_ACK@CTManager@@QAEXPAVCPacket@@@Z
_TEXT	SEGMENT PARA USE32 PUBLIC 'CODE'
_TEXT	ENDS
;	COMDAT ?SendCT_ITEMSTATE_ACK@CTManager@@QAEXPAVCPacket@@@Z
_TEXT	SEGMENT PARA USE32 PUBLIC 'CODE'
_TEXT	ENDS
;	COMDAT ?SendCT_CHATBANLIST_ACK@CTManager@@QAEXPAV?$map@KPAUtagBANINFO@@U?$less@K@std@@V?$allocator@U?$pair@$$CBKPAUtagBANINFO@@@std@@@3@@std@@@Z
_TEXT	SEGMENT PARA USE32 PUBLIC 'CODE'
_TEXT	ENDS
;	COMDAT ?SendCT_CASTLEINFO_ACK@CTManager@@QAEXPAVCPacket@@@Z
_TEXT	SEGMENT PARA USE32 PUBLIC 'CODE'
_TEXT	ENDS
;	COMDAT ?SendCT_CASTLEGUILDCHG_ACK@CTManager@@QAEXPAVCPacket@@@Z
_TEXT	SEGMENT PARA USE32 PUBLIC 'CODE'
_TEXT	ENDS
;	COMDAT ?SendCT_EVENTCHANGE_ACK@CTManager@@QAEXEEPAUtagEVENTINFO@@@Z
_TEXT	SEGMENT PARA USE32 PUBLIC 'CODE'
_TEXT	ENDS
;	COMDAT ?SendCT_EVENTLIST_ACK@CTManager@@QAEXPAV?$map@KUtagEVENTINFO@@U?$less@K@std@@V?$allocator@U?$pair@$$CBKUtagEVENTINFO@@@std@@@3@@std@@@Z
_TEXT	SEGMENT PARA USE32 PUBLIC 'CODE'
_TEXT	ENDS
;	COMDAT ?SendCT_CASHITEMLIST_ACK@CTManager@@QAEXPAV?$vector@UtagTCASHITEM@@V?$allocator@UtagTCASHITEM@@@std@@@std@@@Z
_TEXT	SEGMENT PARA USE32 PUBLIC 'CODE'
_TEXT	ENDS
;	COMDAT ?SendCT_EVENTQUARTERLIST_ACK@CTManager@@QAEXPAVCPacket@@@Z
_TEXT	SEGMENT PARA USE32 PUBLIC 'CODE'
_TEXT	ENDS
;	COMDAT ?SendCT_EVENTQUARTERUPDATE_ACK@CTManager@@QAEXPAVCPacket@@@Z
_TEXT	SEGMENT PARA USE32 PUBLIC 'CODE'
_TEXT	ENDS
;	COMDAT ?SendCT_TOURNAMENTEVENT_ACK@CTManager@@QAEXPAVCPacket@@@Z
_TEXT	SEGMENT PARA USE32 PUBLIC 'CODE'
_TEXT	ENDS
;	COMDAT ?SendCT_RPSGAMEDATA_ACK@CTManager@@QAEXPAVCPacket@@@Z
_TEXT	SEGMENT PARA USE32 PUBLIC 'CODE'
_TEXT	ENDS
;	COMDAT ?SendCT_PREVERSIONTABLE_ACK@CTManager@@QAEXPAV?$vector@UtagPATCHFILE@@V?$allocator@UtagPATCHFILE@@@std@@@std@@@Z
_TEXT	SEGMENT PARA USE32 PUBLIC 'CODE'
_TEXT	ENDS
;	COMDAT ??0tagPATCHFILE@@QAE@ABU0@@Z
_TEXT	SEGMENT PARA USE32 PUBLIC 'CODE'
_TEXT	ENDS
;	COMDAT ??1tagPATCHFILE@@QAE@XZ
_TEXT	SEGMENT PARA USE32 PUBLIC 'CODE'
_TEXT	ENDS
;	COMDAT ?begin@?$_Tree@V?$_Tmap_traits@EPAUtagTSVRTYPE@@U?$less@E@std@@V?$allocator@U?$pair@$$CBEPAUtagTSVRTYPE@@@std@@@3@$0A@@std@@@std@@QAE?AViterator@12@XZ
_TEXT	SEGMENT PARA USE32 PUBLIC 'CODE'
_TEXT	ENDS
;	COMDAT ?end@?$_Tree@V?$_Tmap_traits@EPAUtagTSVRTYPE@@U?$less@E@std@@V?$allocator@U?$pair@$$CBEPAUtagTSVRTYPE@@@std@@@3@$0A@@std@@@std@@QAE?AViterator@12@XZ
_TEXT	SEGMENT PARA USE32 PUBLIC 'CODE'
_TEXT	ENDS
;	COMDAT ?size@?$_Tree@V?$_Tmap_traits@EPAUtagTSVRTYPE@@U?$less@E@std@@V?$allocator@U?$pair@$$CBEPAUtagTSVRTYPE@@@std@@@3@$0A@@std@@@std@@QBEIXZ
_TEXT	SEGMENT PARA USE32 PUBLIC 'CODE'
_TEXT	ENDS
;	COMDAT ??0iterator@?$_Tree@V?$_Tmap_traits@EPAUtagTSVRTYPE@@U?$less@E@std@@V?$allocator@U?$pair@$$CBEPAUtagTSVRTYPE@@@std@@@3@$0A@@std@@@std@@QAE@XZ
_TEXT	SEGMENT PARA USE32 PUBLIC 'CODE'
_TEXT	ENDS
;	COMDAT ??Diterator@?$_Tree@V?$_Tmap_traits@EPAUtagTSVRTYPE@@U?$less@E@std@@V?$allocator@U?$pair@$$CBEPAUtagTSVRTYPE@@@std@@@3@$0A@@std@@@std@@QBEAAU?$pair@$$CBEPAUtagTSVRTYPE@@@2@XZ
_TEXT	SEGMENT PARA USE32 PUBLIC 'CODE'
_TEXT	ENDS
;	COMDAT ??Eiterator@?$_Tree@V?$_Tmap_traits@EPAUtagTSVRTYPE@@U?$less@E@std@@V?$allocator@U?$pair@$$CBEPAUtagTSVRTYPE@@@std@@@3@$0A@@std@@@std@@QAE?AV012@H@Z
_TEXT	SEGMENT PARA USE32 PUBLIC 'CODE'
_TEXT	ENDS
;	COMDAT ??9const_iterator@?$_Tree@V?$_Tmap_traits@EPAUtagTSVRTYPE@@U?$less@E@std@@V?$allocator@U?$pair@$$CBEPAUtagTSVRTYPE@@@std@@@3@$0A@@std@@@std@@QBE_NABV012@@Z
_TEXT	SEGMENT PARA USE32 PUBLIC 'CODE'
_TEXT	ENDS
;	COMDAT ?begin@?$_Tree@V?$_Tmap_traits@EPAUtagTMACHINE@@U?$less@E@std@@V?$allocator@U?$pair@$$CBEPAUtagTMACHINE@@@std@@@3@$0A@@std@@@std@@QAE?AViterator@12@XZ
_TEXT	SEGMENT PARA USE32 PUBLIC 'CODE'
_TEXT	ENDS
;	COMDAT ?end@?$_Tree@V?$_Tmap_traits@EPAUtagTMACHINE@@U?$less@E@std@@V?$allocator@U?$pair@$$CBEPAUtagTMACHINE@@@std@@@3@$0A@@std@@@std@@QAE?AViterator@12@XZ
_TEXT	SEGMENT PARA USE32 PUBLIC 'CODE'
_TEXT	ENDS
;	COMDAT ?size@?$_Tree@V?$_Tmap_traits@EPAUtagTMACHINE@@U?$less@E@std@@V?$allocator@U?$pair@$$CBEPAUtagTMACHINE@@@std@@@3@$0A@@std@@@std@@QBEIXZ
_TEXT	SEGMENT PARA USE32 PUBLIC 'CODE'
_TEXT	ENDS
;	COMDAT ??0iterator@?$_Tree@V?$_Tmap_traits@EPAUtagTMACHINE@@U?$less@E@std@@V?$allocator@U?$pair@$$CBEPAUtagTMACHINE@@@std@@@3@$0A@@std@@@std@@QAE@XZ
_TEXT	SEGMENT PARA USE32 PUBLIC 'CODE'
_TEXT	ENDS
;	COMDAT ??Diterator@?$_Tree@V?$_Tmap_traits@EPAUtagTMACHINE@@U?$less@E@std@@V?$allocator@U?$pair@$$CBEPAUtagTMACHINE@@@std@@@3@$0A@@std@@@std@@QBEAAU?$pair@$$CBEPAUtagTMACHINE@@@2@XZ
_TEXT	SEGMENT PARA USE32 PUBLIC 'CODE'
_TEXT	ENDS
;	COMDAT ??Eiterator@?$_Tree@V?$_Tmap_traits@EPAUtagTMACHINE@@U?$less@E@std@@V?$allocator@U?$pair@$$CBEPAUtagTMACHINE@@@std@@@3@$0A@@std@@@std@@QAE?AV012@H@Z
_TEXT	SEGMENT PARA USE32 PUBLIC 'CODE'
_TEXT	ENDS
;	COMDAT ??9const_iterator@?$_Tree@V?$_Tmap_traits@EPAUtagTMACHINE@@U?$less@E@std@@V?$allocator@U?$pair@$$CBEPAUtagTMACHINE@@@std@@@3@$0A@@std@@@std@@QBE_NABV012@@Z
_TEXT	SEGMENT PARA USE32 PUBLIC 'CODE'
_TEXT	ENDS
;	COMDAT ?begin@?$_Tree@V?$_Tmap_traits@EPAUtagTGROUP@@U?$less@E@std@@V?$allocator@U?$pair@$$CBEPAUtagTGROUP@@@std@@@3@$0A@@std@@@std@@QAE?AViterator@12@XZ
_TEXT	SEGMENT PARA USE32 PUBLIC 'CODE'
_TEXT	ENDS
;	COMDAT ?end@?$_Tree@V?$_Tmap_traits@EPAUtagTGROUP@@U?$less@E@std@@V?$allocator@U?$pair@$$CBEPAUtagTGROUP@@@std@@@3@$0A@@std@@@std@@QAE?AViterator@12@XZ
_TEXT	SEGMENT PARA USE32 PUBLIC 'CODE'
_TEXT	ENDS
;	COMDAT ?size@?$_Tree@V?$_Tmap_traits@EPAUtagTGROUP@@U?$less@E@std@@V?$allocator@U?$pair@$$CBEPAUtagTGROUP@@@std@@@3@$0A@@std@@@std@@QBEIXZ
_TEXT	SEGMENT PARA USE32 PUBLIC 'CODE'
_TEXT	ENDS
;	COMDAT ??0iterator@?$_Tree@V?$_Tmap_traits@EPAUtagTGROUP@@U?$less@E@std@@V?$allocator@U?$pair@$$CBEPAUtagTGROUP@@@std@@@3@$0A@@std@@@std@@QAE@XZ
_TEXT	SEGMENT PARA USE32 PUBLIC 'CODE'
_TEXT	ENDS
;	COMDAT ??Diterator@?$_Tree@V?$_Tmap_traits@EPAUtagTGROUP@@U?$less@E@std@@V?$allocator@U?$pair@$$CBEPAUtagTGROUP@@@std@@@3@$0A@@std@@@std@@QBEAAU?$pair@$$CBEPAUtagTGROUP@@@2@XZ
_TEXT	SEGMENT PARA USE32 PUBLIC 'CODE'
_TEXT	ENDS
;	COMDAT ??Eiterator@?$_Tree@V?$_Tmap_traits@EPAUtagTGROUP@@U?$less@E@std@@V?$allocator@U?$pair@$$CBEPAUtagTGROUP@@@std@@@3@$0A@@std@@@std@@QAE?AV012@H@Z
_TEXT	SEGMENT PARA USE32 PUBLIC 'CODE'
_TEXT	ENDS
;	COMDAT ??9const_iterator@?$_Tree@V?$_Tmap_traits@EPAUtagTGROUP@@U?$less@E@std@@V?$allocator@U?$pair@$$CBEPAUtagTGROUP@@@std@@@3@$0A@@std@@@std@@QBE_NABV012@@Z
_TEXT	SEGMENT PARA USE32 PUBLIC 'CODE'
_TEXT	ENDS
;	COMDAT ?begin@?$_Tree@V?$_Tmap_traits@KPAUtagTSVRTEMP@@U?$less@K@std@@V?$allocator@U?$pair@$$CBKPAUtagTSVRTEMP@@@std@@@3@$0A@@std@@@std@@QAE?AViterator@12@XZ
_TEXT	SEGMENT PARA USE32 PUBLIC 'CODE'
_TEXT	ENDS
;	COMDAT ?end@?$_Tree@V?$_Tmap_traits@KPAUtagTSVRTEMP@@U?$less@K@std@@V?$allocator@U?$pair@$$CBKPAUtagTSVRTEMP@@@std@@@3@$0A@@std@@@std@@QAE?AViterator@12@XZ
_TEXT	SEGMENT PARA USE32 PUBLIC 'CODE'
_TEXT	ENDS
;	COMDAT ?size@?$_Tree@V?$_Tmap_traits@KPAUtagTSVRTEMP@@U?$less@K@std@@V?$allocator@U?$pair@$$CBKPAUtagTSVRTEMP@@@std@@@3@$0A@@std@@@std@@QBEIXZ
_TEXT	SEGMENT PARA USE32 PUBLIC 'CODE'
_TEXT	ENDS
;	COMDAT ??0iterator@?$_Tree@V?$_Tmap_traits@KPAUtagTSVRTEMP@@U?$less@K@std@@V?$allocator@U?$pair@$$CBKPAUtagTSVRTEMP@@@std@@@3@$0A@@std@@@std@@QAE@XZ
_TEXT	SEGMENT PARA USE32 PUBLIC 'CODE'
_TEXT	ENDS
;	COMDAT ??Diterator@?$_Tree@V?$_Tmap_traits@KPAUtagTSVRTEMP@@U?$less@K@std@@V?$allocator@U?$pair@$$CBKPAUtagTSVRTEMP@@@std@@@3@$0A@@std@@@std@@QBEAAU?$pair@$$CBKPAUtagTSVRTEMP@@@2@XZ
_TEXT	SEGMENT PARA USE32 PUBLIC 'CODE'
_TEXT	ENDS
;	COMDAT ??Eiterator@?$_Tree@V?$_Tmap_traits@KPAUtagTSVRTEMP@@U?$less@K@std@@V?$allocator@U?$pair@$$CBKPAUtagTSVRTEMP@@@std@@@3@$0A@@std@@@std@@QAE?AV012@H@Z
_TEXT	SEGMENT PARA USE32 PUBLIC 'CODE'
_TEXT	ENDS
;	COMDAT ??9const_iterator@?$_Tree@V?$_Tmap_traits@KPAUtagTSVRTEMP@@U?$less@K@std@@V?$allocator@U?$pair@$$CBKPAUtagTSVRTEMP@@@std@@@3@$0A@@std@@@std@@QBE_NABV012@@Z
_TEXT	SEGMENT PARA USE32 PUBLIC 'CODE'
_TEXT	ENDS
;	COMDAT ?begin@?$_Tree@V?$_Tmap_traits@KPAUtagBANINFO@@U?$less@K@std@@V?$allocator@U?$pair@$$CBKPAUtagBANINFO@@@std@@@3@$0A@@std@@@std@@QAE?AViterator@12@XZ
_TEXT	SEGMENT PARA USE32 PUBLIC 'CODE'
_TEXT	ENDS
;	COMDAT ?end@?$_Tree@V?$_Tmap_traits@KPAUtagBANINFO@@U?$less@K@std@@V?$allocator@U?$pair@$$CBKPAUtagBANINFO@@@std@@@3@$0A@@std@@@std@@QAE?AViterator@12@XZ
_TEXT	SEGMENT PARA USE32 PUBLIC 'CODE'
_TEXT	ENDS
;	COMDAT ?size@?$_Tree@V?$_Tmap_traits@KPAUtagBANINFO@@U?$less@K@std@@V?$allocator@U?$pair@$$CBKPAUtagBANINFO@@@std@@@3@$0A@@std@@@std@@QBEIXZ
_TEXT	SEGMENT PARA USE32 PUBLIC 'CODE'
_TEXT	ENDS
;	COMDAT ??0iterator@?$_Tree@V?$_Tmap_traits@KPAUtagBANINFO@@U?$less@K@std@@V?$allocator@U?$pair@$$CBKPAUtagBANINFO@@@std@@@3@$0A@@std@@@std@@QAE@XZ
_TEXT	SEGMENT PARA USE32 PUBLIC 'CODE'
_TEXT	ENDS
;	COMDAT ??Diterator@?$_Tree@V?$_Tmap_traits@KPAUtagBANINFO@@U?$less@K@std@@V?$allocator@U?$pair@$$CBKPAUtagBANINFO@@@std@@@3@$0A@@std@@@std@@QBEAAU?$pair@$$CBKPAUtagBANINFO@@@2@XZ
_TEXT	SEGMENT PARA USE32 PUBLIC 'CODE'
_TEXT	ENDS
;	COMDAT ??Eiterator@?$_Tree@V?$_Tmap_traits@KPAUtagBANINFO@@U?$less@K@std@@V?$allocator@U?$pair@$$CBKPAUtagBANINFO@@@std@@@3@$0A@@std@@@std@@QAE?AV012@H@Z
_TEXT	SEGMENT PARA USE32 PUBLIC 'CODE'
_TEXT	ENDS
;	COMDAT ??9const_iterator@?$_Tree@V?$_Tmap_traits@KPAUtagBANINFO@@U?$less@K@std@@V?$allocator@U?$pair@$$CBKPAUtagBANINFO@@@std@@@3@$0A@@std@@@std@@QBE_NABV012@@Z
_TEXT	SEGMENT PARA USE32 PUBLIC 'CODE'
_TEXT	ENDS
;	COMDAT ?begin@?$_Tree@V?$_Tmap_traits@KUtagEVENTINFO@@U?$less@K@std@@V?$allocator@U?$pair@$$CBKUtagEVENTINFO@@@std@@@3@$0A@@std@@@std@@QAE?AViterator@12@XZ
_TEXT	SEGMENT PARA USE32 PUBLIC 'CODE'
_TEXT	ENDS
;	COMDAT ?end@?$_Tree@V?$_Tmap_traits@KUtagEVENTINFO@@U?$less@K@std@@V?$allocator@U?$pair@$$CBKUtagEVENTINFO@@@std@@@3@$0A@@std@@@std@@QAE?AViterator@12@XZ
_TEXT	SEGMENT PARA USE32 PUBLIC 'CODE'
_TEXT	ENDS
;	COMDAT ?size@?$_Tree@V?$_Tmap_traits@KUtagEVENTINFO@@U?$less@K@std@@V?$allocator@U?$pair@$$CBKUtagEVENTINFO@@@std@@@3@$0A@@std@@@std@@QBEIXZ
_TEXT	SEGMENT PARA USE32 PUBLIC 'CODE'
_TEXT	ENDS
;	COMDAT ??0iterator@?$_Tree@V?$_Tmap_traits@KUtagEVENTINFO@@U?$less@K@std@@V?$allocator@U?$pair@$$CBKUtagEVENTINFO@@@std@@@3@$0A@@std@@@std@@QAE@XZ
_TEXT	SEGMENT PARA USE32 PUBLIC 'CODE'
_TEXT	ENDS
;	COMDAT ??Diterator@?$_Tree@V?$_Tmap_traits@KUtagEVENTINFO@@U?$less@K@std@@V?$allocator@U?$pair@$$CBKUtagEVENTINFO@@@std@@@3@$0A@@std@@@std@@QBEAAU?$pair@$$CBKUtagEVENTINFO@@@2@XZ
_TEXT	SEGMENT PARA USE32 PUBLIC 'CODE'
_TEXT	ENDS
;	COMDAT ??Eiterator@?$_Tree@V?$_Tmap_traits@KUtagEVENTINFO@@U?$less@K@std@@V?$allocator@U?$pair@$$CBKUtagEVENTINFO@@@std@@@3@$0A@@std@@@std@@QAE?AV012@H@Z
_TEXT	SEGMENT PARA USE32 PUBLIC 'CODE'
_TEXT	ENDS
;	COMDAT ??9const_iterator@?$_Tree@V?$_Tmap_traits@KUtagEVENTINFO@@U?$less@K@std@@V?$allocator@U?$pair@$$CBKUtagEVENTINFO@@@std@@@3@$0A@@std@@@std@@QBE_NABV012@@Z
_TEXT	SEGMENT PARA USE32 PUBLIC 'CODE'
_TEXT	ENDS
;	COMDAT ?size@?$vector@UtagTCASHITEM@@V?$allocator@UtagTCASHITEM@@@std@@@std@@QBEIXZ
_TEXT	SEGMENT PARA USE32 PUBLIC 'CODE'
_TEXT	ENDS
;	COMDAT ?at@?$vector@UtagTCASHITEM@@V?$allocator@UtagTCASHITEM@@@std@@@std@@QAEAAUtagTCASHITEM@@I@Z
_TEXT	SEGMENT PARA USE32 PUBLIC 'CODE'
_TEXT	ENDS
;	COMDAT ?size@?$vector@UtagPATCHFILE@@V?$allocator@UtagPATCHFILE@@@std@@@std@@QBEIXZ
_TEXT	SEGMENT PARA USE32 PUBLIC 'CODE'
_TEXT	ENDS
;	COMDAT ?at@?$vector@UtagPATCHFILE@@V?$allocator@UtagPATCHFILE@@@std@@@std@@QAEAAUtagPATCHFILE@@I@Z
_TEXT	SEGMENT PARA USE32 PUBLIC 'CODE'
_TEXT	ENDS
;	COMDAT ?_Lmost@?$_Tree@V?$_Tmap_traits@EPAUtagTSVRTYPE@@U?$less@E@std@@V?$allocator@U?$pair@$$CBEPAUtagTSVRTYPE@@@std@@@3@$0A@@std@@@std@@IAEAAPAU_Node@?$_Tree_nod@V?$_Tmap_traits@EPAUtagTSVRTYPE@@U?$less@E@std@@V?$allocator@U?$pair@$$CBEPAUtagTSVRTYPE@@@std@@@3@$0A@@std@@@2@XZ
_TEXT	SEGMENT PARA USE32 PUBLIC 'CODE'
_TEXT	ENDS
;	COMDAT ??0iterator@?$_Tree@V?$_Tmap_traits@EPAUtagTSVRTYPE@@U?$less@E@std@@V?$allocator@U?$pair@$$CBEPAUtagTSVRTYPE@@@std@@@3@$0A@@std@@@std@@QAE@PAU_Node@?$_Tree_nod@V?$_Tmap_traits@EPAUtagTSVRTYPE@@U?$less@E@std@@V?$allocator@U?$pair@$$CBEPAUtagTSVRTYPE@@@std@@@3@$0A@@std@@@2@@Z
_TEXT	SEGMENT PARA USE32 PUBLIC 'CODE'
_TEXT	ENDS
;	COMDAT ??Eiterator@?$_Tree@V?$_Tmap_traits@EPAUtagTSVRTYPE@@U?$less@E@std@@V?$allocator@U?$pair@$$CBEPAUtagTSVRTYPE@@@std@@@3@$0A@@std@@@std@@QAEAAV012@XZ
_TEXT	SEGMENT PARA USE32 PUBLIC 'CODE'
_TEXT	ENDS
;	COMDAT ??0const_iterator@?$_Tree@V?$_Tmap_traits@EPAUtagTSVRTYPE@@U?$less@E@std@@V?$allocator@U?$pair@$$CBEPAUtagTSVRTYPE@@@std@@@3@$0A@@std@@@std@@QAE@XZ
_TEXT	SEGMENT PARA USE32 PUBLIC 'CODE'
_TEXT	ENDS
;	COMDAT ??Dconst_iterator@?$_Tree@V?$_Tmap_traits@EPAUtagTSVRTYPE@@U?$less@E@std@@V?$allocator@U?$pair@$$CBEPAUtagTSVRTYPE@@@std@@@3@$0A@@std@@@std@@QBEABU?$pair@$$CBEPAUtagTSVRTYPE@@@2@XZ
_TEXT	SEGMENT PARA USE32 PUBLIC 'CODE'
_TEXT	ENDS
;	COMDAT ??8const_iterator@?$_Tree@V?$_Tmap_traits@EPAUtagTSVRTYPE@@U?$less@E@std@@V?$allocator@U?$pair@$$CBEPAUtagTSVRTYPE@@@std@@@3@$0A@@std@@@std@@QBE_NABV012@@Z
_TEXT	SEGMENT PARA USE32 PUBLIC 'CODE'
_TEXT	ENDS
;	COMDAT ?_Lmost@?$_Tree@V?$_Tmap_traits@EPAUtagTMACHINE@@U?$less@E@std@@V?$allocator@U?$pair@$$CBEPAUtagTMACHINE@@@std@@@3@$0A@@std@@@std@@IAEAAPAU_Node@?$_Tree_nod@V?$_Tmap_traits@EPAUtagTMACHINE@@U?$less@E@std@@V?$allocator@U?$pair@$$CBEPAUtagTMACHINE@@@std@@@3@$0A@@std@@@2@XZ
_TEXT	SEGMENT PARA USE32 PUBLIC 'CODE'
_TEXT	ENDS
;	COMDAT ??0iterator@?$_Tree@V?$_Tmap_traits@EPAUtagTMACHINE@@U?$less@E@std@@V?$allocator@U?$pair@$$CBEPAUtagTMACHINE@@@std@@@3@$0A@@std@@@std@@QAE@PAU_Node@?$_Tree_nod@V?$_Tmap_traits@EPAUtagTMACHINE@@U?$less@E@std@@V?$allocator@U?$pair@$$CBEPAUtagTMACHINE@@@std@@@3@$0A@@std@@@2@@Z
_TEXT	SEGMENT PARA USE32 PUBLIC 'CODE'
_TEXT	ENDS
;	COMDAT ??Eiterator@?$_Tree@V?$_Tmap_traits@EPAUtagTMACHINE@@U?$less@E@std@@V?$allocator@U?$pair@$$CBEPAUtagTMACHINE@@@std@@@3@$0A@@std@@@std@@QAEAAV012@XZ
_TEXT	SEGMENT PARA USE32 PUBLIC 'CODE'
_TEXT	ENDS
;	COMDAT ??0const_iterator@?$_Tree@V?$_Tmap_traits@EPAUtagTMACHINE@@U?$less@E@std@@V?$allocator@U?$pair@$$CBEPAUtagTMACHINE@@@std@@@3@$0A@@std@@@std@@QAE@XZ
_TEXT	SEGMENT PARA USE32 PUBLIC 'CODE'
_TEXT	ENDS
;	COMDAT ??Dconst_iterator@?$_Tree@V?$_Tmap_traits@EPAUtagTMACHINE@@U?$less@E@std@@V?$allocator@U?$pair@$$CBEPAUtagTMACHINE@@@std@@@3@$0A@@std@@@std@@QBEABU?$pair@$$CBEPAUtagTMACHINE@@@2@XZ
_TEXT	SEGMENT PARA USE32 PUBLIC 'CODE'
_TEXT	ENDS
;	COMDAT ??8const_iterator@?$_Tree@V?$_Tmap_traits@EPAUtagTMACHINE@@U?$less@E@std@@V?$allocator@U?$pair@$$CBEPAUtagTMACHINE@@@std@@@3@$0A@@std@@@std@@QBE_NABV012@@Z
_TEXT	SEGMENT PARA USE32 PUBLIC 'CODE'
_TEXT	ENDS
;	COMDAT ?_Lmost@?$_Tree@V?$_Tmap_traits@EPAUtagTGROUP@@U?$less@E@std@@V?$allocator@U?$pair@$$CBEPAUtagTGROUP@@@std@@@3@$0A@@std@@@std@@IAEAAPAU_Node@?$_Tree_nod@V?$_Tmap_traits@EPAUtagTGROUP@@U?$less@E@std@@V?$allocator@U?$pair@$$CBEPAUtagTGROUP@@@std@@@3@$0A@@std@@@2@XZ
_TEXT	SEGMENT PARA USE32 PUBLIC 'CODE'
_TEXT	ENDS
;	COMDAT ??0iterator@?$_Tree@V?$_Tmap_traits@EPAUtagTGROUP@@U?$less@E@std@@V?$allocator@U?$pair@$$CBEPAUtagTGROUP@@@std@@@3@$0A@@std@@@std@@QAE@PAU_Node@?$_Tree_nod@V?$_Tmap_traits@EPAUtagTGROUP@@U?$less@E@std@@V?$allocator@U?$pair@$$CBEPAUtagTGROUP@@@std@@@3@$0A@@std@@@2@@Z
_TEXT	SEGMENT PARA USE32 PUBLIC 'CODE'
_TEXT	ENDS
;	COMDAT ??Eiterator@?$_Tree@V?$_Tmap_traits@EPAUtagTGROUP@@U?$less@E@std@@V?$allocator@U?$pair@$$CBEPAUtagTGROUP@@@std@@@3@$0A@@std@@@std@@QAEAAV012@XZ
_TEXT	SEGMENT PARA USE32 PUBLIC 'CODE'
_TEXT	ENDS
;	COMDAT ??0const_iterator@?$_Tree@V?$_Tmap_traits@EPAUtagTGROUP@@U?$less@E@std@@V?$allocator@U?$pair@$$CBEPAUtagTGROUP@@@std@@@3@$0A@@std@@@std@@QAE@XZ
_TEXT	SEGMENT PARA USE32 PUBLIC 'CODE'
_TEXT	ENDS
;	COMDAT ??Dconst_iterator@?$_Tree@V?$_Tmap_traits@EPAUtagTGROUP@@U?$less@E@std@@V?$allocator@U?$pair@$$CBEPAUtagTGROUP@@@std@@@3@$0A@@std@@@std@@QBEABU?$pair@$$CBEPAUtagTGROUP@@@2@XZ
_TEXT	SEGMENT PARA USE32 PUBLIC 'CODE'
_TEXT	ENDS
;	COMDAT ??8const_iterator@?$_Tree@V?$_Tmap_traits@EPAUtagTGROUP@@U?$less@E@std@@V?$allocator@U?$pair@$$CBEPAUtagTGROUP@@@std@@@3@$0A@@std@@@std@@QBE_NABV012@@Z
_TEXT	SEGMENT PARA USE32 PUBLIC 'CODE'
_TEXT	ENDS
;	COMDAT ?_Lmost@?$_Tree@V?$_Tmap_traits@KPAUtagTSVRTEMP@@U?$less@K@std@@V?$allocator@U?$pair@$$CBKPAUtagTSVRTEMP@@@std@@@3@$0A@@std@@@std@@IAEAAPAU_Node@?$_Tree_nod@V?$_Tmap_traits@KPAUtagTSVRTEMP@@U?$less@K@std@@V?$allocator@U?$pair@$$CBKPAUtagTSVRTEMP@@@std@@@3@$0A@@std@@@2@XZ
_TEXT	SEGMENT PARA USE32 PUBLIC 'CODE'
_TEXT	ENDS
;	COMDAT ??0iterator@?$_Tree@V?$_Tmap_traits@KPAUtagTSVRTEMP@@U?$less@K@std@@V?$allocator@U?$pair@$$CBKPAUtagTSVRTEMP@@@std@@@3@$0A@@std@@@std@@QAE@PAU_Node@?$_Tree_nod@V?$_Tmap_traits@KPAUtagTSVRTEMP@@U?$less@K@std@@V?$allocator@U?$pair@$$CBKPAUtagTSVRTEMP@@@std@@@3@$0A@@std@@@2@@Z
_TEXT	SEGMENT PARA USE32 PUBLIC 'CODE'
_TEXT	ENDS
;	COMDAT ??Eiterator@?$_Tree@V?$_Tmap_traits@KPAUtagTSVRTEMP@@U?$less@K@std@@V?$allocator@U?$pair@$$CBKPAUtagTSVRTEMP@@@std@@@3@$0A@@std@@@std@@QAEAAV012@XZ
_TEXT	SEGMENT PARA USE32 PUBLIC 'CODE'
_TEXT	ENDS
;	COMDAT ??0const_iterator@?$_Tree@V?$_Tmap_traits@KPAUtagTSVRTEMP@@U?$less@K@std@@V?$allocator@U?$pair@$$CBKPAUtagTSVRTEMP@@@std@@@3@$0A@@std@@@std@@QAE@XZ
_TEXT	SEGMENT PARA USE32 PUBLIC 'CODE'
_TEXT	ENDS
;	COMDAT ??Dconst_iterator@?$_Tree@V?$_Tmap_traits@KPAUtagTSVRTEMP@@U?$less@K@std@@V?$allocator@U?$pair@$$CBKPAUtagTSVRTEMP@@@std@@@3@$0A@@std@@@std@@QBEABU?$pair@$$CBKPAUtagTSVRTEMP@@@2@XZ
_TEXT	SEGMENT PARA USE32 PUBLIC 'CODE'
_TEXT	ENDS
;	COMDAT ??8const_iterator@?$_Tree@V?$_Tmap_traits@KPAUtagTSVRTEMP@@U?$less@K@std@@V?$allocator@U?$pair@$$CBKPAUtagTSVRTEMP@@@std@@@3@$0A@@std@@@std@@QBE_NABV012@@Z
_TEXT	SEGMENT PARA USE32 PUBLIC 'CODE'
_TEXT	ENDS
;	COMDAT ?_Lmost@?$_Tree@V?$_Tmap_traits@KPAUtagBANINFO@@U?$less@K@std@@V?$allocator@U?$pair@$$CBKPAUtagBANINFO@@@std@@@3@$0A@@std@@@std@@IAEAAPAU_Node@?$_Tree_nod@V?$_Tmap_traits@KPAUtagBANINFO@@U?$less@K@std@@V?$allocator@U?$pair@$$CBKPAUtagBANINFO@@@std@@@3@$0A@@std@@@2@XZ
_TEXT	SEGMENT PARA USE32 PUBLIC 'CODE'
_TEXT	ENDS
;	COMDAT ??0iterator@?$_Tree@V?$_Tmap_traits@KPAUtagBANINFO@@U?$less@K@std@@V?$allocator@U?$pair@$$CBKPAUtagBANINFO@@@std@@@3@$0A@@std@@@std@@QAE@PAU_Node@?$_Tree_nod@V?$_Tmap_traits@KPAUtagBANINFO@@U?$less@K@std@@V?$allocator@U?$pair@$$CBKPAUtagBANINFO@@@std@@@3@$0A@@std@@@2@@Z
_TEXT	SEGMENT PARA USE32 PUBLIC 'CODE'
_TEXT	ENDS
;	COMDAT ??Eiterator@?$_Tree@V?$_Tmap_traits@KPAUtagBANINFO@@U?$less@K@std@@V?$allocator@U?$pair@$$CBKPAUtagBANINFO@@@std@@@3@$0A@@std@@@std@@QAEAAV012@XZ
_TEXT	SEGMENT PARA USE32 PUBLIC 'CODE'
_TEXT	ENDS
;	COMDAT ??0const_iterator@?$_Tree@V?$_Tmap_traits@KPAUtagBANINFO@@U?$less@K@std@@V?$allocator@U?$pair@$$CBKPAUtagBANINFO@@@std@@@3@$0A@@std@@@std@@QAE@XZ
_TEXT	SEGMENT PARA USE32 PUBLIC 'CODE'
_TEXT	ENDS
;	COMDAT ??Dconst_iterator@?$_Tree@V?$_Tmap_traits@KPAUtagBANINFO@@U?$less@K@std@@V?$allocator@U?$pair@$$CBKPAUtagBANINFO@@@std@@@3@$0A@@std@@@std@@QBEABU?$pair@$$CBKPAUtagBANINFO@@@2@XZ
_TEXT	SEGMENT PARA USE32 PUBLIC 'CODE'
_TEXT	ENDS
;	COMDAT ??8const_iterator@?$_Tree@V?$_Tmap_traits@KPAUtagBANINFO@@U?$less@K@std@@V?$allocator@U?$pair@$$CBKPAUtagBANINFO@@@std@@@3@$0A@@std@@@std@@QBE_NABV012@@Z
_TEXT	SEGMENT PARA USE32 PUBLIC 'CODE'
_TEXT	ENDS
;	COMDAT ?_Lmost@?$_Tree@V?$_Tmap_traits@KUtagEVENTINFO@@U?$less@K@std@@V?$allocator@U?$pair@$$CBKUtagEVENTINFO@@@std@@@3@$0A@@std@@@std@@IAEAAPAU_Node@?$_Tree_nod@V?$_Tmap_traits@KUtagEVENTINFO@@U?$less@K@std@@V?$allocator@U?$pair@$$CBKUtagEVENTINFO@@@std@@@3@$0A@@std@@@2@XZ
_TEXT	SEGMENT PARA USE32 PUBLIC 'CODE'
_TEXT	ENDS
;	COMDAT ??0iterator@?$_Tree@V?$_Tmap_traits@KUtagEVENTINFO@@U?$less@K@std@@V?$allocator@U?$pair@$$CBKUtagEVENTINFO@@@std@@@3@$0A@@std@@@std@@QAE@PAU_Node@?$_Tree_nod@V?$_Tmap_traits@KUtagEVENTINFO@@U?$less@K@std@@V?$allocator@U?$pair@$$CBKUtagEVENTINFO@@@std@@@3@$0A@@std@@@2@@Z
_TEXT	SEGMENT PARA USE32 PUBLIC 'CODE'
_TEXT	ENDS
;	COMDAT ??Eiterator@?$_Tree@V?$_Tmap_traits@KUtagEVENTINFO@@U?$less@K@std@@V?$allocator@U?$pair@$$CBKUtagEVENTINFO@@@std@@@3@$0A@@std@@@std@@QAEAAV012@XZ
_TEXT	SEGMENT PARA USE32 PUBLIC 'CODE'
_TEXT	ENDS
;	COMDAT ??0const_iterator@?$_Tree@V?$_Tmap_traits@KUtagEVENTINFO@@U?$less@K@std@@V?$allocator@U?$pair@$$CBKUtagEVENTINFO@@@std@@@3@$0A@@std@@@std@@QAE@XZ
_TEXT	SEGMENT PARA USE32 PUBLIC 'CODE'
_TEXT	ENDS
;	COMDAT ??Dconst_iterator@?$_Tree@V?$_Tmap_traits@KUtagEVENTINFO@@U?$less@K@std@@V?$allocator@U?$pair@$$CBKUtagEVENTINFO@@@std@@@3@$0A@@std@@@std@@QBEABU?$pair@$$CBKUtagEVENTINFO@@@2@XZ
_TEXT	SEGMENT PARA USE32 PUBLIC 'CODE'
_TEXT	ENDS
;	COMDAT ??8const_iterator@?$_Tree@V?$_Tmap_traits@KUtagEVENTINFO@@U?$less@K@std@@V?$allocator@U?$pair@$$CBKUtagEVENTINFO@@@std@@@3@$0A@@std@@@std@@QBE_NABV012@@Z
_TEXT	SEGMENT PARA USE32 PUBLIC 'CODE'
_TEXT	ENDS
;	COMDAT ?begin@?$vector@UtagTCASHITEM@@V?$allocator@UtagTCASHITEM@@@std@@@std@@QAE?AViterator@12@XZ
_TEXT	SEGMENT PARA USE32 PUBLIC 'CODE'
_TEXT	ENDS
;	COMDAT ?_Xran@?$vector@UtagTCASHITEM@@V?$allocator@UtagTCASHITEM@@@std@@@std@@IBEXXZ
_TEXT	SEGMENT PARA USE32 PUBLIC 'CODE'
_TEXT	ENDS
;	COMDAT ?begin@?$vector@UtagPATCHFILE@@V?$allocator@UtagPATCHFILE@@@std@@@std@@QAE?AViterator@12@XZ
_TEXT	SEGMENT PARA USE32 PUBLIC 'CODE'
_TEXT	ENDS
;	COMDAT ?_Xran@?$vector@UtagPATCHFILE@@V?$allocator@UtagPATCHFILE@@@std@@@std@@IBEXXZ
_TEXT	SEGMENT PARA USE32 PUBLIC 'CODE'
_TEXT	ENDS
;	COMDAT ??Diterator@?$vector@UtagTCASHITEM@@V?$allocator@UtagTCASHITEM@@@std@@@std@@QBEAAUtagTCASHITEM@@XZ
_TEXT	SEGMENT PARA USE32 PUBLIC 'CODE'
_TEXT	ENDS
;	COMDAT ??Hiterator@?$vector@UtagTCASHITEM@@V?$allocator@UtagTCASHITEM@@@std@@@std@@QBE?AV012@H@Z
_TEXT	SEGMENT PARA USE32 PUBLIC 'CODE'
_TEXT	ENDS
;	COMDAT ??Diterator@?$vector@UtagPATCHFILE@@V?$allocator@UtagPATCHFILE@@@std@@@std@@QBEAAUtagPATCHFILE@@XZ
_TEXT	SEGMENT PARA USE32 PUBLIC 'CODE'
_TEXT	ENDS
;	COMDAT ??Hiterator@?$vector@UtagPATCHFILE@@V?$allocator@UtagPATCHFILE@@@std@@@std@@QBE?AV012@H@Z
_TEXT	SEGMENT PARA USE32 PUBLIC 'CODE'
_TEXT	ENDS
;	COMDAT ??0out_of_range@std@@QAE@ABV01@@Z
_TEXT	SEGMENT PARA USE32 PUBLIC 'CODE'
_TEXT	ENDS
;	COMDAT ?_Left@?$_Tree@V?$_Tmap_traits@EPAUtagTSVRTYPE@@U?$less@E@std@@V?$allocator@U?$pair@$$CBEPAUtagTSVRTYPE@@@std@@@3@$0A@@std@@@std@@KAAAPAU_Node@?$_Tree_nod@V?$_Tmap_traits@EPAUtagTSVRTYPE@@U?$less@E@std@@V?$allocator@U?$pair@$$CBEPAUtagTSVRTYPE@@@std@@@3@$0A@@std@@@2@PAU342@@Z
_TEXT	SEGMENT PARA USE32 PUBLIC 'CODE'
_TEXT	ENDS
;	COMDAT ?_Myval@?$_Tree@V?$_Tmap_traits@EPAUtagTSVRTYPE@@U?$less@E@std@@V?$allocator@U?$pair@$$CBEPAUtagTSVRTYPE@@@std@@@3@$0A@@std@@@std@@KAAAU?$pair@$$CBEPAUtagTSVRTYPE@@@2@PAU_Node@?$_Tree_nod@V?$_Tmap_traits@EPAUtagTSVRTYPE@@U?$less@E@std@@V?$allocator@U?$pair@$$CBEPAUtagTSVRTYPE@@@std@@@3@$0A@@std@@@2@@Z
_TEXT	SEGMENT PARA USE32 PUBLIC 'CODE'
_TEXT	ENDS
;	COMDAT ??0const_iterator@?$_Tree@V?$_Tmap_traits@EPAUtagTSVRTYPE@@U?$less@E@std@@V?$allocator@U?$pair@$$CBEPAUtagTSVRTYPE@@@std@@@3@$0A@@std@@@std@@QAE@PAU_Node@?$_Tree_nod@V?$_Tmap_traits@EPAUtagTSVRTYPE@@U?$less@E@std@@V?$allocator@U?$pair@$$CBEPAUtagTSVRTYPE@@@std@@@3@$0A@@std@@@2@@Z
_TEXT	SEGMENT PARA USE32 PUBLIC 'CODE'
_TEXT	ENDS
;	COMDAT ??Econst_iterator@?$_Tree@V?$_Tmap_traits@EPAUtagTSVRTYPE@@U?$less@E@std@@V?$allocator@U?$pair@$$CBEPAUtagTSVRTYPE@@@std@@@3@$0A@@std@@@std@@QAEAAV012@XZ
_TEXT	SEGMENT PARA USE32 PUBLIC 'CODE'
_TEXT	ENDS
;	COMDAT ?_Left@?$_Tree@V?$_Tmap_traits@EPAUtagTMACHINE@@U?$less@E@std@@V?$allocator@U?$pair@$$CBEPAUtagTMACHINE@@@std@@@3@$0A@@std@@@std@@KAAAPAU_Node@?$_Tree_nod@V?$_Tmap_traits@EPAUtagTMACHINE@@U?$less@E@std@@V?$allocator@U?$pair@$$CBEPAUtagTMACHINE@@@std@@@3@$0A@@std@@@2@PAU342@@Z
_TEXT	SEGMENT PARA USE32 PUBLIC 'CODE'
_TEXT	ENDS
;	COMDAT ?_Myval@?$_Tree@V?$_Tmap_traits@EPAUtagTMACHINE@@U?$less@E@std@@V?$allocator@U?$pair@$$CBEPAUtagTMACHINE@@@std@@@3@$0A@@std@@@std@@KAAAU?$pair@$$CBEPAUtagTMACHINE@@@2@PAU_Node@?$_Tree_nod@V?$_Tmap_traits@EPAUtagTMACHINE@@U?$less@E@std@@V?$allocator@U?$pair@$$CBEPAUtagTMACHINE@@@std@@@3@$0A@@std@@@2@@Z
_TEXT	SEGMENT PARA USE32 PUBLIC 'CODE'
_TEXT	ENDS
;	COMDAT ??0const_iterator@?$_Tree@V?$_Tmap_traits@EPAUtagTMACHINE@@U?$less@E@std@@V?$allocator@U?$pair@$$CBEPAUtagTMACHINE@@@std@@@3@$0A@@std@@@std@@QAE@PAU_Node@?$_Tree_nod@V?$_Tmap_traits@EPAUtagTMACHINE@@U?$less@E@std@@V?$allocator@U?$pair@$$CBEPAUtagTMACHINE@@@std@@@3@$0A@@std@@@2@@Z
_TEXT	SEGMENT PARA USE32 PUBLIC 'CODE'
_TEXT	ENDS
;	COMDAT ??Econst_iterator@?$_Tree@V?$_Tmap_traits@EPAUtagTMACHINE@@U?$less@E@std@@V?$allocator@U?$pair@$$CBEPAUtagTMACHINE@@@std@@@3@$0A@@std@@@std@@QAEAAV012@XZ
_TEXT	SEGMENT PARA USE32 PUBLIC 'CODE'
_TEXT	ENDS
;	COMDAT ?_Left@?$_Tree@V?$_Tmap_traits@EPAUtagTGROUP@@U?$less@E@std@@V?$allocator@U?$pair@$$CBEPAUtagTGROUP@@@std@@@3@$0A@@std@@@std@@KAAAPAU_Node@?$_Tree_nod@V?$_Tmap_traits@EPAUtagTGROUP@@U?$less@E@std@@V?$allocator@U?$pair@$$CBEPAUtagTGROUP@@@std@@@3@$0A@@std@@@2@PAU342@@Z
_TEXT	SEGMENT PARA USE32 PUBLIC 'CODE'
_TEXT	ENDS
;	COMDAT ?_Myval@?$_Tree@V?$_Tmap_traits@EPAUtagTGROUP@@U?$less@E@std@@V?$allocator@U?$pair@$$CBEPAUtagTGROUP@@@std@@@3@$0A@@std@@@std@@KAAAU?$pair@$$CBEPAUtagTGROUP@@@2@PAU_Node@?$_Tree_nod@V?$_Tmap_traits@EPAUtagTGROUP@@U?$less@E@std@@V?$allocator@U?$pair@$$CBEPAUtagTGROUP@@@std@@@3@$0A@@std@@@2@@Z
_TEXT	SEGMENT PARA USE32 PUBLIC 'CODE'
_TEXT	ENDS
;	COMDAT ??0const_iterator@?$_Tree@V?$_Tmap_traits@EPAUtagTGROUP@@U?$less@E@std@@V?$allocator@U?$pair@$$CBEPAUtagTGROUP@@@std@@@3@$0A@@std@@@std@@QAE@PAU_Node@?$_Tree_nod@V?$_Tmap_traits@EPAUtagTGROUP@@U?$less@E@std@@V?$allocator@U?$pair@$$CBEPAUtagTGROUP@@@std@@@3@$0A@@std@@@2@@Z
_TEXT	SEGMENT PARA USE32 PUBLIC 'CODE'
_TEXT	ENDS
;	COMDAT ??Econst_iterator@?$_Tree@V?$_Tmap_traits@EPAUtagTGROUP@@U?$less@E@std@@V?$allocator@U?$pair@$$CBEPAUtagTGROUP@@@std@@@3@$0A@@std@@@std@@QAEAAV012@XZ
_TEXT	SEGMENT PARA USE32 PUBLIC 'CODE'
_TEXT	ENDS
;	COMDAT ?_Left@?$_Tree@V?$_Tmap_traits@KPAUtagTSVRTEMP@@U?$less@K@std@@V?$allocator@U?$pair@$$CBKPAUtagTSVRTEMP@@@std@@@3@$0A@@std@@@std@@KAAAPAU_Node@?$_Tree_nod@V?$_Tmap_traits@KPAUtagTSVRTEMP@@U?$less@K@std@@V?$allocator@U?$pair@$$CBKPAUtagTSVRTEMP@@@std@@@3@$0A@@std@@@2@PAU342@@Z
_TEXT	SEGMENT PARA USE32 PUBLIC 'CODE'
_TEXT	ENDS
;	COMDAT ?_Myval@?$_Tree@V?$_Tmap_traits@KPAUtagTSVRTEMP@@U?$less@K@std@@V?$allocator@U?$pair@$$CBKPAUtagTSVRTEMP@@@std@@@3@$0A@@std@@@std@@KAAAU?$pair@$$CBKPAUtagTSVRTEMP@@@2@PAU_Node@?$_Tree_nod@V?$_Tmap_traits@KPAUtagTSVRTEMP@@U?$less@K@std@@V?$allocator@U?$pair@$$CBKPAUtagTSVRTEMP@@@std@@@3@$0A@@std@@@2@@Z
_TEXT	SEGMENT PARA USE32 PUBLIC 'CODE'
_TEXT	ENDS
;	COMDAT ??0const_iterator@?$_Tree@V?$_Tmap_traits@KPAUtagTSVRTEMP@@U?$less@K@std@@V?$allocator@U?$pair@$$CBKPAUtagTSVRTEMP@@@std@@@3@$0A@@std@@@std@@QAE@PAU_Node@?$_Tree_nod@V?$_Tmap_traits@KPAUtagTSVRTEMP@@U?$less@K@std@@V?$allocator@U?$pair@$$CBKPAUtagTSVRTEMP@@@std@@@3@$0A@@std@@@2@@Z
_TEXT	SEGMENT PARA USE32 PUBLIC 'CODE'
_TEXT	ENDS
;	COMDAT ??Econst_iterator@?$_Tree@V?$_Tmap_traits@KPAUtagTSVRTEMP@@U?$less@K@std@@V?$allocator@U?$pair@$$CBKPAUtagTSVRTEMP@@@std@@@3@$0A@@std@@@std@@QAEAAV012@XZ
_TEXT	SEGMENT PARA USE32 PUBLIC 'CODE'
_TEXT	ENDS
;	COMDAT ?_Left@?$_Tree@V?$_Tmap_traits@KPAUtagBANINFO@@U?$less@K@std@@V?$allocator@U?$pair@$$CBKPAUtagBANINFO@@@std@@@3@$0A@@std@@@std@@KAAAPAU_Node@?$_Tree_nod@V?$_Tmap_traits@KPAUtagBANINFO@@U?$less@K@std@@V?$allocator@U?$pair@$$CBKPAUtagBANINFO@@@std@@@3@$0A@@std@@@2@PAU342@@Z
_TEXT	SEGMENT PARA USE32 PUBLIC 'CODE'
_TEXT	ENDS
;	COMDAT ?_Myval@?$_Tree@V?$_Tmap_traits@KPAUtagBANINFO@@U?$less@K@std@@V?$allocator@U?$pair@$$CBKPAUtagBANINFO@@@std@@@3@$0A@@std@@@std@@KAAAU?$pair@$$CBKPAUtagBANINFO@@@2@PAU_Node@?$_Tree_nod@V?$_Tmap_traits@KPAUtagBANINFO@@U?$less@K@std@@V?$allocator@U?$pair@$$CBKPAUtagBANINFO@@@std@@@3@$0A@@std@@@2@@Z
_TEXT	SEGMENT PARA USE32 PUBLIC 'CODE'
_TEXT	ENDS
;	COMDAT ??0const_iterator@?$_Tree@V?$_Tmap_traits@KPAUtagBANINFO@@U?$less@K@std@@V?$allocator@U?$pair@$$CBKPAUtagBANINFO@@@std@@@3@$0A@@std@@@std@@QAE@PAU_Node@?$_Tree_nod@V?$_Tmap_traits@KPAUtagBANINFO@@U?$less@K@std@@V?$allocator@U?$pair@$$CBKPAUtagBANINFO@@@std@@@3@$0A@@std@@@2@@Z
_TEXT	SEGMENT PARA USE32 PUBLIC 'CODE'
_TEXT	ENDS
;	COMDAT ??Econst_iterator@?$_Tree@V?$_Tmap_traits@KPAUtagBANINFO@@U?$less@K@std@@V?$allocator@U?$pair@$$CBKPAUtagBANINFO@@@std@@@3@$0A@@std@@@std@@QAEAAV012@XZ
_TEXT	SEGMENT PARA USE32 PUBLIC 'CODE'
_TEXT	ENDS
;	COMDAT ?_Left@?$_Tree@V?$_Tmap_traits@KUtagEVENTINFO@@U?$less@K@std@@V?$allocator@U?$pair@$$CBKUtagEVENTINFO@@@std@@@3@$0A@@std@@@std@@KAAAPAU_Node@?$_Tree_nod@V?$_Tmap_traits@KUtagEVENTINFO@@U?$less@K@std@@V?$allocator@U?$pair@$$CBKUtagEVENTINFO@@@std@@@3@$0A@@std@@@2@PAU342@@Z
_TEXT	SEGMENT PARA USE32 PUBLIC 'CODE'
_TEXT	ENDS
;	COMDAT ?_Myval@?$_Tree@V?$_Tmap_traits@KUtagEVENTINFO@@U?$less@K@std@@V?$allocator@U?$pair@$$CBKUtagEVENTINFO@@@std@@@3@$0A@@std@@@std@@KAAAU?$pair@$$CBKUtagEVENTINFO@@@2@PAU_Node@?$_Tree_nod@V?$_Tmap_traits@KUtagEVENTINFO@@U?$less@K@std@@V?$allocator@U?$pair@$$CBKUtagEVENTINFO@@@std@@@3@$0A@@std@@@2@@Z
_TEXT	SEGMENT PARA USE32 PUBLIC 'CODE'
_TEXT	ENDS
;	COMDAT ??0const_iterator@?$_Tree@V?$_Tmap_traits@KUtagEVENTINFO@@U?$less@K@std@@V?$allocator@U?$pair@$$CBKUtagEVENTINFO@@@std@@@3@$0A@@std@@@std@@QAE@PAU_Node@?$_Tree_nod@V?$_Tmap_traits@KUtagEVENTINFO@@U?$less@K@std@@V?$allocator@U?$pair@$$CBKUtagEVENTINFO@@@std@@@3@$0A@@std@@@2@@Z
_TEXT	SEGMENT PARA USE32 PUBLIC 'CODE'
_TEXT	ENDS
;	COMDAT ??Econst_iterator@?$_Tree@V?$_Tmap_traits@KUtagEVENTINFO@@U?$less@K@std@@V?$allocator@U?$pair@$$CBKUtagEVENTINFO@@@std@@@3@$0A@@std@@@std@@QAEAAV012@XZ
_TEXT	SEGMENT PARA USE32 PUBLIC 'CODE'
_TEXT	ENDS
;	COMDAT ??0iterator@?$vector@UtagTCASHITEM@@V?$allocator@UtagTCASHITEM@@@std@@@std@@QAE@PAUtagTCASHITEM@@@Z
_TEXT	SEGMENT PARA USE32 PUBLIC 'CODE'
_TEXT	ENDS
;	COMDAT ??Yiterator@?$vector@UtagTCASHITEM@@V?$allocator@UtagTCASHITEM@@@std@@@std@@QAEAAV012@H@Z
_TEXT	SEGMENT PARA USE32 PUBLIC 'CODE'
_TEXT	ENDS
;	COMDAT ??Dconst_iterator@?$vector@UtagTCASHITEM@@V?$allocator@UtagTCASHITEM@@@std@@@std@@QBEABUtagTCASHITEM@@XZ
_TEXT	SEGMENT PARA USE32 PUBLIC 'CODE'
_TEXT	ENDS
;	COMDAT ??0iterator@?$vector@UtagPATCHFILE@@V?$allocator@UtagPATCHFILE@@@std@@@std@@QAE@PAUtagPATCHFILE@@@Z
_TEXT	SEGMENT PARA USE32 PUBLIC 'CODE'
_TEXT	ENDS
;	COMDAT ??Yiterator@?$vector@UtagPATCHFILE@@V?$allocator@UtagPATCHFILE@@@std@@@std@@QAEAAV012@H@Z
_TEXT	SEGMENT PARA USE32 PUBLIC 'CODE'
_TEXT	ENDS
;	COMDAT ??Dconst_iterator@?$vector@UtagPATCHFILE@@V?$allocator@UtagPATCHFILE@@@std@@@std@@QBEABUtagPATCHFILE@@XZ
_TEXT	SEGMENT PARA USE32 PUBLIC 'CODE'
_TEXT	ENDS
;	COMDAT ?_Inc@const_iterator@?$_Tree@V?$_Tmap_traits@EPAUtagTSVRTYPE@@U?$less@E@std@@V?$allocator@U?$pair@$$CBEPAUtagTSVRTYPE@@@std@@@3@$0A@@std@@@std@@QAEXXZ
_TEXT	SEGMENT PARA USE32 PUBLIC 'CODE'
_TEXT	ENDS
;	COMDAT ?_Inc@const_iterator@?$_Tree@V?$_Tmap_traits@EPAUtagTMACHINE@@U?$less@E@std@@V?$allocator@U?$pair@$$CBEPAUtagTMACHINE@@@std@@@3@$0A@@std@@@std@@QAEXXZ
_TEXT	SEGMENT PARA USE32 PUBLIC 'CODE'
_TEXT	ENDS
;	COMDAT ?_Inc@const_iterator@?$_Tree@V?$_Tmap_traits@EPAUtagTGROUP@@U?$less@E@std@@V?$allocator@U?$pair@$$CBEPAUtagTGROUP@@@std@@@3@$0A@@std@@@std@@QAEXXZ
_TEXT	SEGMENT PARA USE32 PUBLIC 'CODE'
_TEXT	ENDS
;	COMDAT ?_Inc@const_iterator@?$_Tree@V?$_Tmap_traits@KPAUtagTSVRTEMP@@U?$less@K@std@@V?$allocator@U?$pair@$$CBKPAUtagTSVRTEMP@@@std@@@3@$0A@@std@@@std@@QAEXXZ
_TEXT	SEGMENT PARA USE32 PUBLIC 'CODE'
_TEXT	ENDS
;	COMDAT ?_Inc@const_iterator@?$_Tree@V?$_Tmap_traits@KPAUtagBANINFO@@U?$less@K@std@@V?$allocator@U?$pair@$$CBKPAUtagBANINFO@@@std@@@3@$0A@@std@@@std@@QAEXXZ
_TEXT	SEGMENT PARA USE32 PUBLIC 'CODE'
_TEXT	ENDS
;	COMDAT ?_Inc@const_iterator@?$_Tree@V?$_Tmap_traits@KUtagEVENTINFO@@U?$less@K@std@@V?$allocator@U?$pair@$$CBKUtagEVENTINFO@@@std@@@3@$0A@@std@@@std@@QAEXXZ
_TEXT	SEGMENT PARA USE32 PUBLIC 'CODE'
_TEXT	ENDS
;	COMDAT ??0const_iterator@?$vector@UtagTCASHITEM@@V?$allocator@UtagTCASHITEM@@@std@@@std@@QAE@PAUtagTCASHITEM@@@Z
_TEXT	SEGMENT PARA USE32 PUBLIC 'CODE'
_TEXT	ENDS
;	COMDAT ??0const_iterator@?$vector@UtagPATCHFILE@@V?$allocator@UtagPATCHFILE@@@std@@@std@@QAE@PAUtagPATCHFILE@@@Z
_TEXT	SEGMENT PARA USE32 PUBLIC 'CODE'
_TEXT	ENDS
;	COMDAT ?_Isnil@?$_Tree@V?$_Tmap_traits@EPAUtagTSVRTYPE@@U?$less@E@std@@V?$allocator@U?$pair@$$CBEPAUtagTSVRTYPE@@@std@@@3@$0A@@std@@@std@@KAAADPAU_Node@?$_Tree_nod@V?$_Tmap_traits@EPAUtagTSVRTYPE@@U?$less@E@std@@V?$allocator@U?$pair@$$CBEPAUtagTSVRTYPE@@@std@@@3@$0A@@std@@@2@@Z
_TEXT	SEGMENT PARA USE32 PUBLIC 'CODE'
_TEXT	ENDS
;	COMDAT ?_Parent@?$_Tree@V?$_Tmap_traits@EPAUtagTSVRTYPE@@U?$less@E@std@@V?$allocator@U?$pair@$$CBEPAUtagTSVRTYPE@@@std@@@3@$0A@@std@@@std@@KAAAPAU_Node@?$_Tree_nod@V?$_Tmap_traits@EPAUtagTSVRTYPE@@U?$less@E@std@@V?$allocator@U?$pair@$$CBEPAUtagTSVRTYPE@@@std@@@3@$0A@@std@@@2@PAU342@@Z
_TEXT	SEGMENT PARA USE32 PUBLIC 'CODE'
_TEXT	ENDS
;	COMDAT ?_Right@?$_Tree@V?$_Tmap_traits@EPAUtagTSVRTYPE@@U?$less@E@std@@V?$allocator@U?$pair@$$CBEPAUtagTSVRTYPE@@@std@@@3@$0A@@std@@@std@@KAAAPAU_Node@?$_Tree_nod@V?$_Tmap_traits@EPAUtagTSVRTYPE@@U?$less@E@std@@V?$allocator@U?$pair@$$CBEPAUtagTSVRTYPE@@@std@@@3@$0A@@std@@@2@PAU342@@Z
_TEXT	SEGMENT PARA USE32 PUBLIC 'CODE'
_TEXT	ENDS
;	COMDAT ?_Min@?$_Tree@V?$_Tmap_traits@EPAUtagTSVRTYPE@@U?$less@E@std@@V?$allocator@U?$pair@$$CBEPAUtagTSVRTYPE@@@std@@@3@$0A@@std@@@std@@KAPAU_Node@?$_Tree_nod@V?$_Tmap_traits@EPAUtagTSVRTYPE@@U?$less@E@std@@V?$allocator@U?$pair@$$CBEPAUtagTSVRTYPE@@@std@@@3@$0A@@std@@@2@PAU342@@Z
_TEXT	SEGMENT PARA USE32 PUBLIC 'CODE'
_TEXT	ENDS
;	COMDAT ?_Isnil@?$_Tree@V?$_Tmap_traits@EPAUtagTMACHINE@@U?$less@E@std@@V?$allocator@U?$pair@$$CBEPAUtagTMACHINE@@@std@@@3@$0A@@std@@@std@@KAAADPAU_Node@?$_Tree_nod@V?$_Tmap_traits@EPAUtagTMACHINE@@U?$less@E@std@@V?$allocator@U?$pair@$$CBEPAUtagTMACHINE@@@std@@@3@$0A@@std@@@2@@Z
_TEXT	SEGMENT PARA USE32 PUBLIC 'CODE'
_TEXT	ENDS
;	COMDAT ?_Parent@?$_Tree@V?$_Tmap_traits@EPAUtagTMACHINE@@U?$less@E@std@@V?$allocator@U?$pair@$$CBEPAUtagTMACHINE@@@std@@@3@$0A@@std@@@std@@KAAAPAU_Node@?$_Tree_nod@V?$_Tmap_traits@EPAUtagTMACHINE@@U?$less@E@std@@V?$allocator@U?$pair@$$CBEPAUtagTMACHINE@@@std@@@3@$0A@@std@@@2@PAU342@@Z
_TEXT	SEGMENT PARA USE32 PUBLIC 'CODE'
_TEXT	ENDS
;	COMDAT ?_Right@?$_Tree@V?$_Tmap_traits@EPAUtagTMACHINE@@U?$less@E@std@@V?$allocator@U?$pair@$$CBEPAUtagTMACHINE@@@std@@@3@$0A@@std@@@std@@KAAAPAU_Node@?$_Tree_nod@V?$_Tmap_traits@EPAUtagTMACHINE@@U?$less@E@std@@V?$allocator@U?$pair@$$CBEPAUtagTMACHINE@@@std@@@3@$0A@@std@@@2@PAU342@@Z
_TEXT	SEGMENT PARA USE32 PUBLIC 'CODE'
_TEXT	ENDS
;	COMDAT ?_Min@?$_Tree@V?$_Tmap_traits@EPAUtagTMACHINE@@U?$less@E@std@@V?$allocator@U?$pair@$$CBEPAUtagTMACHINE@@@std@@@3@$0A@@std@@@std@@KAPAU_Node@?$_Tree_nod@V?$_Tmap_traits@EPAUtagTMACHINE@@U?$less@E@std@@V?$allocator@U?$pair@$$CBEPAUtagTMACHINE@@@std@@@3@$0A@@std@@@2@PAU342@@Z
_TEXT	SEGMENT PARA USE32 PUBLIC 'CODE'
_TEXT	ENDS
;	COMDAT ?_Isnil@?$_Tree@V?$_Tmap_traits@EPAUtagTGROUP@@U?$less@E@std@@V?$allocator@U?$pair@$$CBEPAUtagTGROUP@@@std@@@3@$0A@@std@@@std@@KAAADPAU_Node@?$_Tree_nod@V?$_Tmap_traits@EPAUtagTGROUP@@U?$less@E@std@@V?$allocator@U?$pair@$$CBEPAUtagTGROUP@@@std@@@3@$0A@@std@@@2@@Z
_TEXT	SEGMENT PARA USE32 PUBLIC 'CODE'
_TEXT	ENDS
;	COMDAT ?_Parent@?$_Tree@V?$_Tmap_traits@EPAUtagTGROUP@@U?$less@E@std@@V?$allocator@U?$pair@$$CBEPAUtagTGROUP@@@std@@@3@$0A@@std@@@std@@KAAAPAU_Node@?$_Tree_nod@V?$_Tmap_traits@EPAUtagTGROUP@@U?$less@E@std@@V?$allocator@U?$pair@$$CBEPAUtagTGROUP@@@std@@@3@$0A@@std@@@2@PAU342@@Z
_TEXT	SEGMENT PARA USE32 PUBLIC 'CODE'
_TEXT	ENDS
;	COMDAT ?_Right@?$_Tree@V?$_Tmap_traits@EPAUtagTGROUP@@U?$less@E@std@@V?$allocator@U?$pair@$$CBEPAUtagTGROUP@@@std@@@3@$0A@@std@@@std@@KAAAPAU_Node@?$_Tree_nod@V?$_Tmap_traits@EPAUtagTGROUP@@U?$less@E@std@@V?$allocator@U?$pair@$$CBEPAUtagTGROUP@@@std@@@3@$0A@@std@@@2@PAU342@@Z
_TEXT	SEGMENT PARA USE32 PUBLIC 'CODE'
_TEXT	ENDS
;	COMDAT ?_Min@?$_Tree@V?$_Tmap_traits@EPAUtagTGROUP@@U?$less@E@std@@V?$allocator@U?$pair@$$CBEPAUtagTGROUP@@@std@@@3@$0A@@std@@@std@@KAPAU_Node@?$_Tree_nod@V?$_Tmap_traits@EPAUtagTGROUP@@U?$less@E@std@@V?$allocator@U?$pair@$$CBEPAUtagTGROUP@@@std@@@3@$0A@@std@@@2@PAU342@@Z
_TEXT	SEGMENT PARA USE32 PUBLIC 'CODE'
_TEXT	ENDS
;	COMDAT ?_Isnil@?$_Tree@V?$_Tmap_traits@KPAUtagTSVRTEMP@@U?$less@K@std@@V?$allocator@U?$pair@$$CBKPAUtagTSVRTEMP@@@std@@@3@$0A@@std@@@std@@KAAADPAU_Node@?$_Tree_nod@V?$_Tmap_traits@KPAUtagTSVRTEMP@@U?$less@K@std@@V?$allocator@U?$pair@$$CBKPAUtagTSVRTEMP@@@std@@@3@$0A@@std@@@2@@Z
_TEXT	SEGMENT PARA USE32 PUBLIC 'CODE'
_TEXT	ENDS
;	COMDAT ?_Parent@?$_Tree@V?$_Tmap_traits@KPAUtagTSVRTEMP@@U?$less@K@std@@V?$allocator@U?$pair@$$CBKPAUtagTSVRTEMP@@@std@@@3@$0A@@std@@@std@@KAAAPAU_Node@?$_Tree_nod@V?$_Tmap_traits@KPAUtagTSVRTEMP@@U?$less@K@std@@V?$allocator@U?$pair@$$CBKPAUtagTSVRTEMP@@@std@@@3@$0A@@std@@@2@PAU342@@Z
_TEXT	SEGMENT PARA USE32 PUBLIC 'CODE'
_TEXT	ENDS
;	COMDAT ?_Right@?$_Tree@V?$_Tmap_traits@KPAUtagTSVRTEMP@@U?$less@K@std@@V?$allocator@U?$pair@$$CBKPAUtagTSVRTEMP@@@std@@@3@$0A@@std@@@std@@KAAAPAU_Node@?$_Tree_nod@V?$_Tmap_traits@KPAUtagTSVRTEMP@@U?$less@K@std@@V?$allocator@U?$pair@$$CBKPAUtagTSVRTEMP@@@std@@@3@$0A@@std@@@2@PAU342@@Z
_TEXT	SEGMENT PARA USE32 PUBLIC 'CODE'
_TEXT	ENDS
;	COMDAT ?_Min@?$_Tree@V?$_Tmap_traits@KPAUtagTSVRTEMP@@U?$less@K@std@@V?$allocator@U?$pair@$$CBKPAUtagTSVRTEMP@@@std@@@3@$0A@@std@@@std@@KAPAU_Node@?$_Tree_nod@V?$_Tmap_traits@KPAUtagTSVRTEMP@@U?$less@K@std@@V?$allocator@U?$pair@$$CBKPAUtagTSVRTEMP@@@std@@@3@$0A@@std@@@2@PAU342@@Z
_TEXT	SEGMENT PARA USE32 PUBLIC 'CODE'
_TEXT	ENDS
;	COMDAT ?_Isnil@?$_Tree@V?$_Tmap_traits@KPAUtagBANINFO@@U?$less@K@std@@V?$allocator@U?$pair@$$CBKPAUtagBANINFO@@@std@@@3@$0A@@std@@@std@@KAAADPAU_Node@?$_Tree_nod@V?$_Tmap_traits@KPAUtagBANINFO@@U?$less@K@std@@V?$allocator@U?$pair@$$CBKPAUtagBANINFO@@@std@@@3@$0A@@std@@@2@@Z
_TEXT	SEGMENT PARA USE32 PUBLIC 'CODE'
_TEXT	ENDS
;	COMDAT ?_Parent@?$_Tree@V?$_Tmap_traits@KPAUtagBANINFO@@U?$less@K@std@@V?$allocator@U?$pair@$$CBKPAUtagBANINFO@@@std@@@3@$0A@@std@@@std@@KAAAPAU_Node@?$_Tree_nod@V?$_Tmap_traits@KPAUtagBANINFO@@U?$less@K@std@@V?$allocator@U?$pair@$$CBKPAUtagBANINFO@@@std@@@3@$0A@@std@@@2@PAU342@@Z
_TEXT	SEGMENT PARA USE32 PUBLIC 'CODE'
_TEXT	ENDS
;	COMDAT ?_Right@?$_Tree@V?$_Tmap_traits@KPAUtagBANINFO@@U?$less@K@std@@V?$allocator@U?$pair@$$CBKPAUtagBANINFO@@@std@@@3@$0A@@std@@@std@@KAAAPAU_Node@?$_Tree_nod@V?$_Tmap_traits@KPAUtagBANINFO@@U?$less@K@std@@V?$allocator@U?$pair@$$CBKPAUtagBANINFO@@@std@@@3@$0A@@std@@@2@PAU342@@Z
_TEXT	SEGMENT PARA USE32 PUBLIC 'CODE'
_TEXT	ENDS
;	COMDAT ?_Min@?$_Tree@V?$_Tmap_traits@KPAUtagBANINFO@@U?$less@K@std@@V?$allocator@U?$pair@$$CBKPAUtagBANINFO@@@std@@@3@$0A@@std@@@std@@KAPAU_Node@?$_Tree_nod@V?$_Tmap_traits@KPAUtagBANINFO@@U?$less@K@std@@V?$allocator@U?$pair@$$CBKPAUtagBANINFO@@@std@@@3@$0A@@std@@@2@PAU342@@Z
_TEXT	SEGMENT PARA USE32 PUBLIC 'CODE'
_TEXT	ENDS
;	COMDAT ?_Isnil@?$_Tree@V?$_Tmap_traits@KUtagEVENTINFO@@U?$less@K@std@@V?$allocator@U?$pair@$$CBKUtagEVENTINFO@@@std@@@3@$0A@@std@@@std@@KAAADPAU_Node@?$_Tree_nod@V?$_Tmap_traits@KUtagEVENTINFO@@U?$less@K@std@@V?$allocator@U?$pair@$$CBKUtagEVENTINFO@@@std@@@3@$0A@@std@@@2@@Z
_TEXT	SEGMENT PARA USE32 PUBLIC 'CODE'
_TEXT	ENDS
;	COMDAT ?_Parent@?$_Tree@V?$_Tmap_traits@KUtagEVENTINFO@@U?$less@K@std@@V?$allocator@U?$pair@$$CBKUtagEVENTINFO@@@std@@@3@$0A@@std@@@std@@KAAAPAU_Node@?$_Tree_nod@V?$_Tmap_traits@KUtagEVENTINFO@@U?$less@K@std@@V?$allocator@U?$pair@$$CBKUtagEVENTINFO@@@std@@@3@$0A@@std@@@2@PAU342@@Z
_TEXT	SEGMENT PARA USE32 PUBLIC 'CODE'
_TEXT	ENDS
;	COMDAT ?_Right@?$_Tree@V?$_Tmap_traits@KUtagEVENTINFO@@U?$less@K@std@@V?$allocator@U?$pair@$$CBKUtagEVENTINFO@@@std@@@3@$0A@@std@@@std@@KAAAPAU_Node@?$_Tree_nod@V?$_Tmap_traits@KUtagEVENTINFO@@U?$less@K@std@@V?$allocator@U?$pair@$$CBKUtagEVENTINFO@@@std@@@3@$0A@@std@@@2@PAU342@@Z
_TEXT	SEGMENT PARA USE32 PUBLIC 'CODE'
_TEXT	ENDS
;	COMDAT ?_Min@?$_Tree@V?$_Tmap_traits@KUtagEVENTINFO@@U?$less@K@std@@V?$allocator@U?$pair@$$CBKUtagEVENTINFO@@@std@@@3@$0A@@std@@@std@@KAPAU_Node@?$_Tree_nod@V?$_Tmap_traits@KUtagEVENTINFO@@U?$less@K@std@@V?$allocator@U?$pair@$$CBKUtagEVENTINFO@@@std@@@3@$0A@@std@@@2@PAU342@@Z
_TEXT	SEGMENT PARA USE32 PUBLIC 'CODE'
_TEXT	ENDS
;	COMDAT ?Unlock@?$CComCritSecLock@VCComCriticalSection@ATL@@@ATL@@QAEXXZ
_TEXT	SEGMENT PARA USE32 PUBLIC 'CODE'
_TEXT	ENDS
;	COMDAT ??$_Uninit_fill_n@GIG@std@@YAXPAGIABGAAV?$allocator@G@0@U_Scalar_ptr_iterator_tag@0@@Z
_TEXT	SEGMENT PARA USE32 PUBLIC 'CODE'
_TEXT	ENDS
;	COMDAT ??$_Ptr_cat@PAUtagTCASHITEMSALE@@PAU1@@std@@YA?AU_Nonscalar_ptr_iterator_tag@0@AAPAUtagTCASHITEMSALE@@0@Z
_TEXT	SEGMENT PARA USE32 PUBLIC 'CODE'
_TEXT	ENDS
;	COMDAT ??$_Uninit_fill_n@PAUtagTCASHITEMSALE@@IU1@V?$allocator@UtagTCASHITEMSALE@@@std@@@std@@YAXPAUtagTCASHITEMSALE@@IABU1@AAV?$allocator@UtagTCASHITEMSALE@@@0@U_Nonscalar_ptr_iterator_tag@0@@Z
_TEXT	SEGMENT PARA USE32 PUBLIC 'CODE'
_TEXT	ENDS
;	COMDAT ??$_Ptr_cat@PAUtagMONREGEN@@PAU1@@std@@YA?AU_Nonscalar_ptr_iterator_tag@0@AAPAUtagMONREGEN@@0@Z
_TEXT	SEGMENT PARA USE32 PUBLIC 'CODE'
_TEXT	ENDS
;	COMDAT ??$_Uninit_fill_n@PAUtagMONREGEN@@IU1@V?$allocator@UtagMONREGEN@@@std@@@std@@YAXPAUtagMONREGEN@@IABU1@AAV?$allocator@UtagMONREGEN@@@0@U_Nonscalar_ptr_iterator_tag@0@@Z
_TEXT	SEGMENT PARA USE32 PUBLIC 'CODE'
_TEXT	ENDS
;	COMDAT ??$_Ptr_cat@PAUtagLOTTERY@@PAU1@@std@@YA?AU_Nonscalar_ptr_iterator_tag@0@AAPAUtagLOTTERY@@0@Z
_TEXT	SEGMENT PARA USE32 PUBLIC 'CODE'
_TEXT	ENDS
;	COMDAT ??$_Uninit_fill_n@PAUtagLOTTERY@@IU1@V?$allocator@UtagLOTTERY@@@std@@@std@@YAXPAUtagLOTTERY@@IABU1@AAV?$allocator@UtagLOTTERY@@@0@U_Nonscalar_ptr_iterator_tag@0@@Z
_TEXT	SEGMENT PARA USE32 PUBLIC 'CODE'
_TEXT	ENDS
;	COMDAT ??$_Destroy_range@GV?$allocator@G@std@@@std@@YAXPAG0AAV?$allocator@G@0@U_Scalar_ptr_iterator_tag@0@@Z
_TEXT	SEGMENT PARA USE32 PUBLIC 'CODE'
_TEXT	ENDS
;	COMDAT ??$_Uninitialized_copy@PAGPAGV?$allocator@G@std@@@std@@YAPAGPAG00AAV?$allocator@G@0@@Z
_TEXT	SEGMENT PARA USE32 PUBLIC 'CODE'
_TEXT	ENDS
;	COMDAT ??$_Copy_backward_opt@PAGPAG@std@@YAPAGPAG00U_Scalar_ptr_iterator_tag@0@@Z
_TEXT	SEGMENT PARA USE32 PUBLIC 'CODE'
_TEXT	ENDS
;	COMDAT ??$_Destroy_range@UtagTCASHITEMSALE@@V?$allocator@UtagTCASHITEMSALE@@@std@@@std@@YAXPAUtagTCASHITEMSALE@@0AAV?$allocator@UtagTCASHITEMSALE@@@0@U_Nonscalar_ptr_iterator_tag@0@@Z
_TEXT	SEGMENT PARA USE32 PUBLIC 'CODE'
_TEXT	ENDS
;	COMDAT ??$_Uninitialized_copy@PAUtagTCASHITEMSALE@@PAU1@V?$allocator@UtagTCASHITEMSALE@@@std@@@std@@YAPAUtagTCASHITEMSALE@@PAU1@00AAV?$allocator@UtagTCASHITEMSALE@@@0@@Z
_TEXT	SEGMENT PARA USE32 PUBLIC 'CODE'
_TEXT	ENDS
;	COMDAT ??$_Copy_backward_opt@PAUtagTCASHITEMSALE@@PAU1@@std@@YAPAUtagTCASHITEMSALE@@PAU1@00U_Nonscalar_ptr_iterator_tag@0@@Z
_TEXT	SEGMENT PARA USE32 PUBLIC 'CODE'
_TEXT	ENDS
;	COMDAT ??$_Destroy_range@UtagMONREGEN@@V?$allocator@UtagMONREGEN@@@std@@@std@@YAXPAUtagMONREGEN@@0AAV?$allocator@UtagMONREGEN@@@0@U_Nonscalar_ptr_iterator_tag@0@@Z
_TEXT	SEGMENT PARA USE32 PUBLIC 'CODE'
_TEXT	ENDS
;	COMDAT ??$_Uninitialized_copy@PAUtagMONREGEN@@PAU1@V?$allocator@UtagMONREGEN@@@std@@@std@@YAPAUtagMONREGEN@@PAU1@00AAV?$allocator@UtagMONREGEN@@@0@@Z
_TEXT	SEGMENT PARA USE32 PUBLIC 'CODE'
_TEXT	ENDS
;	COMDAT ??$_Copy_backward_opt@PAUtagMONREGEN@@PAU1@@std@@YAPAUtagMONREGEN@@PAU1@00U_Nonscalar_ptr_iterator_tag@0@@Z
_TEXT	SEGMENT PARA USE32 PUBLIC 'CODE'
_TEXT	ENDS
;	COMDAT ??$_Destroy_range@UtagLOTTERY@@V?$allocator@UtagLOTTERY@@@std@@@std@@YAXPAUtagLOTTERY@@0AAV?$allocator@UtagLOTTERY@@@0@U_Nonscalar_ptr_iterator_tag@0@@Z
_TEXT	SEGMENT PARA USE32 PUBLIC 'CODE'
_TEXT	ENDS
;	COMDAT ??$_Uninitialized_copy@PAUtagLOTTERY@@PAU1@V?$allocator@UtagLOTTERY@@@std@@@std@@YAPAUtagLOTTERY@@PAU1@00AAV?$allocator@UtagLOTTERY@@@0@@Z
_TEXT	SEGMENT PARA USE32 PUBLIC 'CODE'
_TEXT	ENDS
;	COMDAT ??$_Copy_backward_opt@PAUtagLOTTERY@@PAU1@@std@@YAPAUtagLOTTERY@@PAU1@00U_Nonscalar_ptr_iterator_tag@0@@Z
_TEXT	SEGMENT PARA USE32 PUBLIC 'CODE'
_TEXT	ENDS
;	COMDAT ?construct@?$allocator@UtagTCASHITEMSALE@@@std@@QAEXPAUtagTCASHITEMSALE@@ABU3@@Z
_TEXT	SEGMENT PARA USE32 PUBLIC 'CODE'
_TEXT	ENDS
;	COMDAT ?destroy@?$allocator@UtagTCASHITEMSALE@@@std@@QAEXPAUtagTCASHITEMSALE@@@Z
_TEXT	SEGMENT PARA USE32 PUBLIC 'CODE'
_TEXT	ENDS
;	COMDAT ?construct@?$allocator@UtagMONREGEN@@@std@@QAEXPAUtagMONREGEN@@ABU3@@Z
_TEXT	SEGMENT PARA USE32 PUBLIC 'CODE'
_TEXT	ENDS
;	COMDAT ?destroy@?$allocator@UtagMONREGEN@@@std@@QAEXPAUtagMONREGEN@@@Z
_TEXT	SEGMENT PARA USE32 PUBLIC 'CODE'
_TEXT	ENDS
;	COMDAT ?construct@?$allocator@UtagLOTTERY@@@std@@QAEXPAUtagLOTTERY@@ABU3@@Z
_TEXT	SEGMENT PARA USE32 PUBLIC 'CODE'
_TEXT	ENDS
;	COMDAT ?destroy@?$allocator@UtagLOTTERY@@@std@@QAEXPAUtagLOTTERY@@@Z
_TEXT	SEGMENT PARA USE32 PUBLIC 'CODE'
_TEXT	ENDS
;	COMDAT ??$fill_n@PAGIG@std@@YAXPAGIABG@Z
_TEXT	SEGMENT PARA USE32 PUBLIC 'CODE'
_TEXT	ENDS
;	COMDAT ??$_Uninit_copy@GG@std@@YAPAGPAG00AAV?$allocator@G@0@U_Scalar_ptr_iterator_tag@0@@Z
_TEXT	SEGMENT PARA USE32 PUBLIC 'CODE'
_TEXT	ENDS
;	COMDAT ??$_Uninit_copy@PAUtagTCASHITEMSALE@@PAU1@V?$allocator@UtagTCASHITEMSALE@@@std@@@std@@YAPAUtagTCASHITEMSALE@@PAU1@00AAV?$allocator@UtagTCASHITEMSALE@@@0@U_Nonscalar_ptr_iterator_tag@0@@Z
_TEXT	SEGMENT PARA USE32 PUBLIC 'CODE'
_TEXT	ENDS
;	COMDAT ??$_Uninit_copy@PAUtagMONREGEN@@PAU1@V?$allocator@UtagMONREGEN@@@std@@@std@@YAPAUtagMONREGEN@@PAU1@00AAV?$allocator@UtagMONREGEN@@@0@U_Nonscalar_ptr_iterator_tag@0@@Z
_TEXT	SEGMENT PARA USE32 PUBLIC 'CODE'
_TEXT	ENDS
;	COMDAT ??$_Uninit_copy@PAUtagLOTTERY@@PAU1@V?$allocator@UtagLOTTERY@@@std@@@std@@YAPAUtagLOTTERY@@PAU1@00AAV?$allocator@UtagLOTTERY@@@0@U_Nonscalar_ptr_iterator_tag@0@@Z
_TEXT	SEGMENT PARA USE32 PUBLIC 'CODE'
_TEXT	ENDS
;	COMDAT ??$_Construct@UtagTCASHITEMSALE@@U1@@std@@YAXPAUtagTCASHITEMSALE@@ABU1@@Z
_TEXT	SEGMENT PARA USE32 PUBLIC 'CODE'
_TEXT	ENDS
;	COMDAT ??$_Destroy@UtagTCASHITEMSALE@@@std@@YAXPAUtagTCASHITEMSALE@@@Z
_TEXT	SEGMENT PARA USE32 PUBLIC 'CODE'
_TEXT	ENDS
;	COMDAT ??$_Construct@UtagMONREGEN@@U1@@std@@YAXPAUtagMONREGEN@@ABU1@@Z
_TEXT	SEGMENT PARA USE32 PUBLIC 'CODE'
_TEXT	ENDS
;	COMDAT ??$_Destroy@UtagMONREGEN@@@std@@YAXPAUtagMONREGEN@@@Z
_TEXT	SEGMENT PARA USE32 PUBLIC 'CODE'
_TEXT	ENDS
;	COMDAT ??$_Construct@UtagLOTTERY@@U1@@std@@YAXPAUtagLOTTERY@@ABU1@@Z
_TEXT	SEGMENT PARA USE32 PUBLIC 'CODE'
_TEXT	ENDS
;	COMDAT ??$_Destroy@UtagLOTTERY@@@std@@YAXPAUtagLOTTERY@@@Z
_TEXT	SEGMENT PARA USE32 PUBLIC 'CODE'
_TEXT	ENDS
;	COMDAT ??2@YAPAXIPAX@Z
_TEXT	SEGMENT PARA USE32 PUBLIC 'CODE'
_TEXT	ENDS
;	COMDAT ?_Ptr_cat@std@@YA?AU_Scalar_ptr_iterator_tag@1@PAG0@Z
_TEXT	SEGMENT PARA USE32 PUBLIC 'CODE'
_TEXT	ENDS
;	COMDAT ?_Psave@?$_Facetptr@V?$ctype@G@std@@@std@@2PBVfacet@locale@2@B
_DATA	SEGMENT DWORD USE32 PUBLIC 'DATA'
_DATA	ENDS
;	COMDAT ?_Psave@?$_Facetptr@V?$ctype@D@std@@@std@@2PBVfacet@locale@2@B
_DATA	SEGMENT DWORD USE32 PUBLIC 'DATA'
_DATA	ENDS
;	COMDAT ?Unlock@CComCriticalSection@ATL@@QAEJXZ
_TEXT	SEGMENT PARA USE32 PUBLIC 'CODE'
_TEXT	ENDS
;	COMDAT ??_7out_of_range@std@@6B@
CONST	SEGMENT DWORD USE32 PUBLIC 'CONST'
CONST	ENDS
;	COMDAT ??_Gout_of_range@std@@UAEPAXI@Z
_TEXT	SEGMENT PARA USE32 PUBLIC 'CODE'
_TEXT	ENDS
;	COMDAT ?what@logic_error@std@@UBEPBDXZ
_TEXT	SEGMENT PARA USE32 PUBLIC 'CODE'
_TEXT	ENDS
;	COMDAT ?c_str@?$basic_string@DU?$char_traits@D@std@@V?$allocator@D@2@@std@@QBEPBDXZ
_TEXT	SEGMENT PARA USE32 PUBLIC 'CODE'
_TEXT	ENDS
;	COMDAT ?_Myptr@?$basic_string@DU?$char_traits@D@std@@V?$allocator@D@2@@std@@QBEPBDXZ
_TEXT	SEGMENT PARA USE32 PUBLIC 'CODE'
_TEXT	ENDS
;	COMDAT ??1logic_error@std@@UAE@XZ
_TEXT	SEGMENT PARA USE32 PUBLIC 'CODE'
_TEXT	ENDS
;	COMDAT ??_7logic_error@std@@6B@
CONST	SEGMENT DWORD USE32 PUBLIC 'CONST'
CONST	ENDS
;	COMDAT ??_Glogic_error@std@@UAEPAXI@Z
_TEXT	SEGMENT PARA USE32 PUBLIC 'CODE'
_TEXT	ENDS
;	COMDAT ??0logic_error@std@@QAE@ABV01@@Z
_TEXT	SEGMENT PARA USE32 PUBLIC 'CODE'
_TEXT	ENDS
;	COMDAT ??0?$basic_string@DU?$char_traits@D@std@@V?$allocator@D@2@@std@@QAE@ABV01@@Z
_TEXT	SEGMENT PARA USE32 PUBLIC 'CODE'
_TEXT	ENDS
;	COMDAT ??0?$_String_val@DV?$allocator@D@std@@@std@@IAE@V?$allocator@D@1@@Z
_TEXT	SEGMENT PARA USE32 PUBLIC 'CODE'
_TEXT	ENDS
;	COMDAT ??0?$allocator@D@std@@QAE@ABV01@@Z
_TEXT	SEGMENT PARA USE32 PUBLIC 'CODE'
_TEXT	ENDS
;	COMDAT ?_Tidy@?$basic_string@DU?$char_traits@D@std@@V?$allocator@D@2@@std@@IAEX_NI@Z
_TEXT	SEGMENT PARA USE32 PUBLIC 'CODE'
_TEXT	ENDS
;	COMDAT ?copy@?$char_traits@D@std@@SAPADPADPBDI@Z
_TEXT	SEGMENT PARA USE32 PUBLIC 'CODE'
_TEXT	ENDS
;	COMDAT ?deallocate@?$allocator@D@std@@QAEXPADI@Z
_TEXT	SEGMENT PARA USE32 PUBLIC 'CODE'
_TEXT	ENDS
;	COMDAT ?_Eos@?$basic_string@DU?$char_traits@D@std@@V?$allocator@D@2@@std@@IAEXI@Z
_TEXT	SEGMENT PARA USE32 PUBLIC 'CODE'
_TEXT	ENDS
;	COMDAT ?assign@?$char_traits@D@std@@SAXAADABD@Z
_TEXT	SEGMENT PARA USE32 PUBLIC 'CODE'
_TEXT	ENDS
;	COMDAT ?_Myptr@?$basic_string@DU?$char_traits@D@std@@V?$allocator@D@2@@std@@QAEPADXZ
_TEXT	SEGMENT PARA USE32 PUBLIC 'CODE'
_TEXT	ENDS
;	COMDAT ?assign@?$basic_string@DU?$char_traits@D@std@@V?$allocator@D@2@@std@@QAEAAV12@ABV12@II@Z
_TEXT	SEGMENT PARA USE32 PUBLIC 'CODE'
_TEXT	ENDS
;	COMDAT ?size@?$basic_string@DU?$char_traits@D@std@@V?$allocator@D@2@@std@@QBEIXZ
_TEXT	SEGMENT PARA USE32 PUBLIC 'CODE'
_TEXT	ENDS
;	COMDAT ?erase@?$basic_string@DU?$char_traits@D@std@@V?$allocator@D@2@@std@@QAEAAV12@II@Z
_TEXT	SEGMENT PARA USE32 PUBLIC 'CODE'
_TEXT	ENDS
;	COMDAT ?move@?$char_traits@D@std@@SAPADPADPBDI@Z
_TEXT	SEGMENT PARA USE32 PUBLIC 'CODE'
_TEXT	ENDS
;	COMDAT ?_Grow@?$basic_string@DU?$char_traits@D@std@@V?$allocator@D@2@@std@@IAE_NI_N@Z
_TEXT	SEGMENT PARA USE32 PUBLIC 'CODE'
_TEXT	ENDS
;	COMDAT ?max_size@?$basic_string@DU?$char_traits@D@std@@V?$allocator@D@2@@std@@QBEIXZ
_TEXT	SEGMENT PARA USE32 PUBLIC 'CODE'
_TEXT	ENDS
;	COMDAT ?max_size@?$allocator@D@std@@QBEIXZ
_TEXT	SEGMENT PARA USE32 PUBLIC 'CODE'
_TEXT	ENDS
;	COMDAT ?_Copy@?$basic_string@DU?$char_traits@D@std@@V?$allocator@D@2@@std@@IAEXII@Z
_TEXT	SEGMENT PARA USE32 PUBLIC 'CODE'
_TEXT	ENDS
;	COMDAT ?allocate@?$allocator@D@std@@QAEPADI@Z
_TEXT	SEGMENT PARA USE32 PUBLIC 'CODE'
_TEXT	ENDS
;	COMDAT ??$_Allocate@D@std@@YAPADIPAD@Z
_TEXT	SEGMENT PARA USE32 PUBLIC 'CODE'
_TEXT	ENDS
;	COMDAT ?npos@?$basic_string@DU?$char_traits@D@std@@V?$allocator@D@2@@std@@2IB
CONST	SEGMENT DWORD USE32 PUBLIC 'CONST'
CONST	ENDS
;	COMDAT __CTA3?AVout_of_range@std@@
xdata$x	SEGMENT DWORD USE32 PUBLIC 'CONST'
xdata$x	ENDS
;	COMDAT ??1out_of_range@std@@UAE@XZ
_TEXT	SEGMENT PARA USE32 PUBLIC 'CODE'
_TEXT	ENDS
;	COMDAT __CT??_R0?AVexception@@@8??0exception@@QAE@ABV0@@Z12
xdata$x	SEGMENT DWORD USE32 PUBLIC 'CONST'
xdata$x	ENDS
;	COMDAT ??_R0?AVexception@@@8
_DATA	SEGMENT DWORD USE32 PUBLIC 'DATA'
_DATA	ENDS
;	COMDAT __CT??_R0?AVlogic_error@std@@@8??0logic_error@std@@QAE@ABV01@@Z40
xdata$x	SEGMENT DWORD USE32 PUBLIC 'CONST'
xdata$x	ENDS
;	COMDAT ??_R0?AVlogic_error@std@@@8
_DATA	SEGMENT DWORD USE32 PUBLIC 'DATA'
_DATA	ENDS
;	COMDAT __CT??_R0?AVout_of_range@std@@@8??0out_of_range@std@@QAE@ABV01@@Z40
xdata$x	SEGMENT DWORD USE32 PUBLIC 'CONST'
xdata$x	ENDS
;	COMDAT ??_R0?AVout_of_range@std@@@8
_DATA	SEGMENT DWORD USE32 PUBLIC 'DATA'
_DATA	ENDS
;	COMDAT __TI3?AVout_of_range@std@@
xdata$x	SEGMENT DWORD USE32 PUBLIC 'CONST'
xdata$x	ENDS
;	COMDAT ??1?$basic_string@DU?$char_traits@D@std@@V?$allocator@D@2@@std@@QAE@XZ
_TEXT	SEGMENT PARA USE32 PUBLIC 'CODE'
_TEXT	ENDS
;	COMDAT ??0?$basic_string@DU?$char_traits@D@std@@V?$allocator@D@2@@std@@QAE@PBD@Z
_TEXT	SEGMENT PARA USE32 PUBLIC 'CODE'
_TEXT	ENDS
;	COMDAT ??0?$allocator@D@std@@QAE@XZ
_TEXT	SEGMENT PARA USE32 PUBLIC 'CODE'
_TEXT	ENDS
;	COMDAT ?assign@?$basic_string@DU?$char_traits@D@std@@V?$allocator@D@2@@std@@QAEAAV12@PBD@Z
_TEXT	SEGMENT PARA USE32 PUBLIC 'CODE'
_TEXT	ENDS
;	COMDAT ?assign@?$basic_string@DU?$char_traits@D@std@@V?$allocator@D@2@@std@@QAEAAV12@PBDI@Z
_TEXT	SEGMENT PARA USE32 PUBLIC 'CODE'
_TEXT	ENDS
;	COMDAT ?_Inside@?$basic_string@DU?$char_traits@D@std@@V?$allocator@D@2@@std@@IAE_NPBD@Z
_TEXT	SEGMENT PARA USE32 PUBLIC 'CODE'
_TEXT	ENDS
;	COMDAT ?length@?$char_traits@D@std@@SAIPBD@Z
_TEXT	SEGMENT PARA USE32 PUBLIC 'CODE'
_TEXT	ENDS
;	COMDAT ??0out_of_range@std@@QAE@ABV?$basic_string@DU?$char_traits@D@std@@V?$allocator@D@2@@1@@Z
_TEXT	SEGMENT PARA USE32 PUBLIC 'CODE'
_TEXT	ENDS
;	COMDAT ??0logic_error@std@@QAE@ABV?$basic_string@DU?$char_traits@D@std@@V?$allocator@D@2@@1@@Z
_TEXT	SEGMENT PARA USE32 PUBLIC 'CODE'
_TEXT	ENDS
;	COMDAT ??1?$CStringT@DV?$StrTraitATL@DV?$ChTraitsCRT@D@ATL@@@ATL@@@ATL@@QAE@XZ
_TEXT	SEGMENT PARA USE32 PUBLIC 'CODE'
_TEXT	ENDS
;	COMDAT ??1?$CSimpleStringT@D$0A@@ATL@@QAE@XZ
_TEXT	SEGMENT PARA USE32 PUBLIC 'CODE'
_TEXT	ENDS
;	COMDAT ?GetData@?$CSimpleStringT@D$0A@@ATL@@ABEPAUCStringData@2@XZ
_TEXT	SEGMENT PARA USE32 PUBLIC 'CODE'
_TEXT	ENDS
;	COMDAT ?Release@CStringData@ATL@@QAEXXZ
_TEXT	SEGMENT PARA USE32 PUBLIC 'CODE'
_TEXT	ENDS
;	COMDAT ??0?$CStringT@DV?$StrTraitATL@DV?$ChTraitsCRT@D@ATL@@@ATL@@@ATL@@QAE@ABV01@@Z
_TEXT	SEGMENT PARA USE32 PUBLIC 'CODE'
_TEXT	ENDS
;	COMDAT ??0?$CSimpleStringT@D$0A@@ATL@@QAE@ABV01@@Z
_TEXT	SEGMENT PARA USE32 PUBLIC 'CODE'
_TEXT	ENDS
;	COMDAT ?CloneData@?$CSimpleStringT@D$0A@@ATL@@CAPAUCStringData@2@PAU32@@Z
_TEXT	SEGMENT PARA USE32 PUBLIC 'CODE'
_TEXT	ENDS
;	COMDAT ?IsLocked@CStringData@ATL@@QBE_NXZ
_TEXT	SEGMENT PARA USE32 PUBLIC 'CODE'
_TEXT	ENDS
;	COMDAT ?AddRef@CStringData@ATL@@QAEXXZ
_TEXT	SEGMENT PARA USE32 PUBLIC 'CODE'
_TEXT	ENDS
;	COMDAT ?ThrowMemoryException@?$CSimpleStringT@D$0A@@ATL@@KAXXZ
_TEXT	SEGMENT PARA USE32 PUBLIC 'CODE'
_TEXT	ENDS
;	COMDAT ?AtlThrow@ATL@@YGXJ@Z
_TEXT	SEGMENT PARA USE32 PUBLIC 'CODE'
_TEXT	ENDS
;	COMDAT ??0CAtlException@ATL@@QAE@J@Z
_TEXT	SEGMENT PARA USE32 PUBLIC 'CODE'
_TEXT	ENDS
;	COMDAT __TI1?AVCAtlException@ATL@@
xdata$x	SEGMENT DWORD USE32 PUBLIC 'CONST'
xdata$x	ENDS
;	COMDAT __CTA1?AVCAtlException@ATL@@
xdata$x	SEGMENT DWORD USE32 PUBLIC 'CONST'
xdata$x	ENDS
;	COMDAT __CT??_R0?AVCAtlException@ATL@@@84
xdata$x	SEGMENT DWORD USE32 PUBLIC 'CONST'
xdata$x	ENDS
;	COMDAT ??_R0?AVCAtlException@ATL@@@8
_DATA	SEGMENT DWORD USE32 PUBLIC 'DATA'
_DATA	ENDS
;	COMDAT ?CopyChars@?$CSimpleStringT@D$0A@@ATL@@SAXPADPBDH@Z
_TEXT	SEGMENT PARA USE32 PUBLIC 'CODE'
_TEXT	ENDS
;	COMDAT ?data@CStringData@ATL@@QAEPAXXZ
_TEXT	SEGMENT PARA USE32 PUBLIC 'CODE'
_TEXT	ENDS
;	COMDAT ?Attach@?$CSimpleStringT@D$0A@@ATL@@AAEXPAUCStringData@2@@Z
_TEXT	SEGMENT PARA USE32 PUBLIC 'CODE'
_TEXT	ENDS
;	COMDAT ?WrapPacketIn@tagEVENTINFO@@QAEXPAVCPacket@@@Z
_TEXT	SEGMENT PARA USE32 PUBLIC 'CODE'
_TEXT	ENDS
;	COMDAT ?size@?$vector@UtagTCASHITEMSALE@@V?$allocator@UtagTCASHITEMSALE@@@std@@@std@@QBEIXZ
_TEXT	SEGMENT PARA USE32 PUBLIC 'CODE'
_TEXT	ENDS
;	COMDAT ??A?$vector@UtagTCASHITEMSALE@@V?$allocator@UtagTCASHITEMSALE@@@std@@@std@@QAEAAUtagTCASHITEMSALE@@I@Z
_TEXT	SEGMENT PARA USE32 PUBLIC 'CODE'
_TEXT	ENDS
;	COMDAT ??Diterator@?$vector@UtagTCASHITEMSALE@@V?$allocator@UtagTCASHITEMSALE@@@std@@@std@@QBEAAUtagTCASHITEMSALE@@XZ
_TEXT	SEGMENT PARA USE32 PUBLIC 'CODE'
_TEXT	ENDS
;	COMDAT ??Dconst_iterator@?$vector@UtagTCASHITEMSALE@@V?$allocator@UtagTCASHITEMSALE@@@std@@@std@@QBEABUtagTCASHITEMSALE@@XZ
_TEXT	SEGMENT PARA USE32 PUBLIC 'CODE'
_TEXT	ENDS
;	COMDAT ??Hiterator@?$vector@UtagTCASHITEMSALE@@V?$allocator@UtagTCASHITEMSALE@@@std@@@std@@QBE?AV012@H@Z
_TEXT	SEGMENT PARA USE32 PUBLIC 'CODE'
_TEXT	ENDS
;	COMDAT ??Yiterator@?$vector@UtagTCASHITEMSALE@@V?$allocator@UtagTCASHITEMSALE@@@std@@@std@@QAEAAV012@H@Z
_TEXT	SEGMENT PARA USE32 PUBLIC 'CODE'
_TEXT	ENDS
;	COMDAT ?begin@?$vector@UtagTCASHITEMSALE@@V?$allocator@UtagTCASHITEMSALE@@@std@@@std@@QAE?AViterator@12@XZ
_TEXT	SEGMENT PARA USE32 PUBLIC 'CODE'
_TEXT	ENDS
;	COMDAT ??0iterator@?$vector@UtagTCASHITEMSALE@@V?$allocator@UtagTCASHITEMSALE@@@std@@@std@@QAE@PAUtagTCASHITEMSALE@@@Z
_TEXT	SEGMENT PARA USE32 PUBLIC 'CODE'
_TEXT	ENDS
;	COMDAT ??0const_iterator@?$vector@UtagTCASHITEMSALE@@V?$allocator@UtagTCASHITEMSALE@@@std@@@std@@QAE@PAUtagTCASHITEMSALE@@@Z
_TEXT	SEGMENT PARA USE32 PUBLIC 'CODE'
_TEXT	ENDS
;	COMDAT ?size@?$vector@GV?$allocator@G@std@@@std@@QBEIXZ
_TEXT	SEGMENT PARA USE32 PUBLIC 'CODE'
_TEXT	ENDS
;	COMDAT ??A?$vector@GV?$allocator@G@std@@@std@@QAEAAGI@Z
_TEXT	SEGMENT PARA USE32 PUBLIC 'CODE'
_TEXT	ENDS
;	COMDAT ??Diterator@?$vector@GV?$allocator@G@std@@@std@@QBEAAGXZ
_TEXT	SEGMENT PARA USE32 PUBLIC 'CODE'
_TEXT	ENDS
;	COMDAT ??Dconst_iterator@?$vector@GV?$allocator@G@std@@@std@@QBEABGXZ
_TEXT	SEGMENT PARA USE32 PUBLIC 'CODE'
_TEXT	ENDS
;	COMDAT ??Hiterator@?$vector@GV?$allocator@G@std@@@std@@QBE?AV012@H@Z
_TEXT	SEGMENT PARA USE32 PUBLIC 'CODE'
_TEXT	ENDS
;	COMDAT ??Yiterator@?$vector@GV?$allocator@G@std@@@std@@QAEAAV012@H@Z
_TEXT	SEGMENT PARA USE32 PUBLIC 'CODE'
_TEXT	ENDS
;	COMDAT ?begin@?$vector@GV?$allocator@G@std@@@std@@QAE?AViterator@12@XZ
_TEXT	SEGMENT PARA USE32 PUBLIC 'CODE'
_TEXT	ENDS
;	COMDAT ??0iterator@?$vector@GV?$allocator@G@std@@@std@@QAE@PAG@Z
_TEXT	SEGMENT PARA USE32 PUBLIC 'CODE'
_TEXT	ENDS
;	COMDAT ??0const_iterator@?$vector@GV?$allocator@G@std@@@std@@QAE@PAG@Z
_TEXT	SEGMENT PARA USE32 PUBLIC 'CODE'
_TEXT	ENDS
;	COMDAT ?size@?$vector@UtagMONREGEN@@V?$allocator@UtagMONREGEN@@@std@@@std@@QBEIXZ
_TEXT	SEGMENT PARA USE32 PUBLIC 'CODE'
_TEXT	ENDS
;	COMDAT ??A?$vector@UtagMONREGEN@@V?$allocator@UtagMONREGEN@@@std@@@std@@QAEAAUtagMONREGEN@@I@Z
_TEXT	SEGMENT PARA USE32 PUBLIC 'CODE'
_TEXT	ENDS
;	COMDAT ??Diterator@?$vector@UtagMONREGEN@@V?$allocator@UtagMONREGEN@@@std@@@std@@QBEAAUtagMONREGEN@@XZ
_TEXT	SEGMENT PARA USE32 PUBLIC 'CODE'
_TEXT	ENDS
;	COMDAT ??Dconst_iterator@?$vector@UtagMONREGEN@@V?$allocator@UtagMONREGEN@@@std@@@std@@QBEABUtagMONREGEN@@XZ
_TEXT	SEGMENT PARA USE32 PUBLIC 'CODE'
_TEXT	ENDS
;	COMDAT ??Hiterator@?$vector@UtagMONREGEN@@V?$allocator@UtagMONREGEN@@@std@@@std@@QBE?AV012@H@Z
_TEXT	SEGMENT PARA USE32 PUBLIC 'CODE'
_TEXT	ENDS
;	COMDAT ??Yiterator@?$vector@UtagMONREGEN@@V?$allocator@UtagMONREGEN@@@std@@@std@@QAEAAV012@H@Z
_TEXT	SEGMENT PARA USE32 PUBLIC 'CODE'
_TEXT	ENDS
;	COMDAT ?begin@?$vector@UtagMONREGEN@@V?$allocator@UtagMONREGEN@@@std@@@std@@QAE?AViterator@12@XZ
_TEXT	SEGMENT PARA USE32 PUBLIC 'CODE'
_TEXT	ENDS
;	COMDAT ??0iterator@?$vector@UtagMONREGEN@@V?$allocator@UtagMONREGEN@@@std@@@std@@QAE@PAUtagMONREGEN@@@Z
_TEXT	SEGMENT PARA USE32 PUBLIC 'CODE'
_TEXT	ENDS
;	COMDAT ??0const_iterator@?$vector@UtagMONREGEN@@V?$allocator@UtagMONREGEN@@@std@@@std@@QAE@PAUtagMONREGEN@@@Z
_TEXT	SEGMENT PARA USE32 PUBLIC 'CODE'
_TEXT	ENDS
;	COMDAT ?size@?$vector@UtagLOTTERY@@V?$allocator@UtagLOTTERY@@@std@@@std@@QBEIXZ
_TEXT	SEGMENT PARA USE32 PUBLIC 'CODE'
_TEXT	ENDS
;	COMDAT ??A?$vector@UtagLOTTERY@@V?$allocator@UtagLOTTERY@@@std@@@std@@QAEAAUtagLOTTERY@@I@Z
_TEXT	SEGMENT PARA USE32 PUBLIC 'CODE'
_TEXT	ENDS
;	COMDAT ??Diterator@?$vector@UtagLOTTERY@@V?$allocator@UtagLOTTERY@@@std@@@std@@QBEAAUtagLOTTERY@@XZ
_TEXT	SEGMENT PARA USE32 PUBLIC 'CODE'
_TEXT	ENDS
;	COMDAT ??Dconst_iterator@?$vector@UtagLOTTERY@@V?$allocator@UtagLOTTERY@@@std@@@std@@QBEABUtagLOTTERY@@XZ
_TEXT	SEGMENT PARA USE32 PUBLIC 'CODE'
_TEXT	ENDS
;	COMDAT ??Hiterator@?$vector@UtagLOTTERY@@V?$allocator@UtagLOTTERY@@@std@@@std@@QBE?AV012@H@Z
_TEXT	SEGMENT PARA USE32 PUBLIC 'CODE'
_TEXT	ENDS
;	COMDAT ??Yiterator@?$vector@UtagLOTTERY@@V?$allocator@UtagLOTTERY@@@std@@@std@@QAEAAV012@H@Z
_TEXT	SEGMENT PARA USE32 PUBLIC 'CODE'
_TEXT	ENDS
;	COMDAT ?begin@?$vector@UtagLOTTERY@@V?$allocator@UtagLOTTERY@@@std@@@std@@QAE?AViterator@12@XZ
_TEXT	SEGMENT PARA USE32 PUBLIC 'CODE'
_TEXT	ENDS
;	COMDAT ??0iterator@?$vector@UtagLOTTERY@@V?$allocator@UtagLOTTERY@@@std@@@std@@QAE@PAUtagLOTTERY@@@Z
_TEXT	SEGMENT PARA USE32 PUBLIC 'CODE'
_TEXT	ENDS
;	COMDAT ??0const_iterator@?$vector@UtagLOTTERY@@V?$allocator@UtagLOTTERY@@@std@@@std@@QAE@PAUtagLOTTERY@@@Z
_TEXT	SEGMENT PARA USE32 PUBLIC 'CODE'
_TEXT	ENDS
;	COMDAT ??B?$CSimpleStringT@D$0A@@ATL@@QBEPBDXZ
_TEXT	SEGMENT PARA USE32 PUBLIC 'CODE'
_TEXT	ENDS
sxdata	SEGMENT DWORD USE32 'SXDATA'
sxdata	ENDS
FLAT	GROUP _DATA, CONST, _BSS
	ASSUME	CS: FLAT, DS: FLAT, SS: FLAT
endif

INCLUDELIB LIBCMT
INCLUDELIB OLDNAMES

PUBLIC	?SendCT_OPLOGIN_ACK@CTManager@@QAEXEEK@Z	; CTManager::SendCT_OPLOGIN_ACK
EXTRN	__except_list:DWORD
EXTRN	___CxxFrameHandler:NEAR
EXTRN	??2@YAPAXI@Z:NEAR				; operator new
EXTRN	??3@YAXPAX@Z:NEAR				; operator delete
EXTRN	??0CPacket@@QAE@XZ:NEAR				; CPacket::CPacket
EXTRN	?SetID@CPacket@@QAEAAV1@G@Z:NEAR		; CPacket::SetID
EXTRN	??6CPacket@@QAEAAV0@K@Z:NEAR			; CPacket::operator<<
EXTRN	??6CPacket@@QAEAAV0@E@Z:NEAR			; CPacket::operator<<
;	COMDAT xdata$x
; File c:\users\pierr\desktop\4story - oldschool\sources\tserver\tcontrolsvr\sender.cpp
xdata$x	SEGMENT
$T93234	DD	0ffffffffH
	DD	FLAT:$L93225
$T93229	DD	019930520H
	DD	01H
	DD	FLAT:$T93234
	DD	2 DUP(00H)
	DD	2 DUP(00H)
; Function compile flags: /Ogty
xdata$x	ENDS
;	COMDAT ?SendCT_OPLOGIN_ACK@CTManager@@QAEXEEK@Z
_TEXT	SEGMENT
$T93222 = -16						; size = 4
__$EHRec$ = -12						; size = 12
_bRet$ = 8						; size = 1
_bAuthority$ = 12					; size = 1
_dwID$ = 16						; size = 4
?SendCT_OPLOGIN_ACK@CTManager@@QAEXEEK@Z PROC NEAR	; CTManager::SendCT_OPLOGIN_ACK, COMDAT
; _this$ = ecx

; 4    : {

  00000	6a ff		 push	 -1
  00002	68 00 00 00 00	 push	 __ehhandler$?SendCT_OPLOGIN_ACK@CTManager@@QAEXEEK@Z
  00007	64 a1 00 00 00
	00		 mov	 eax, DWORD PTR fs:__except_list
  0000d	50		 push	 eax
  0000e	64 89 25 00 00
	00 00		 mov	 DWORD PTR fs:__except_list, esp
  00015	51		 push	 ecx
  00016	56		 push	 esi
  00017	57		 push	 edi

; 5    : 	CPacket * pMsg = new CPacket();

  00018	6a 1c		 push	 28			; 0000001cH
  0001a	8b f9		 mov	 edi, ecx
  0001c	e8 00 00 00 00	 call	 ??2@YAPAXI@Z		; operator new
  00021	83 c4 04	 add	 esp, 4
  00024	89 44 24 08	 mov	 DWORD PTR $T93222[esp+24], eax
  00028	33 f6		 xor	 esi, esi
  0002a	3b c6		 cmp	 eax, esi
  0002c	89 74 24 14	 mov	 DWORD PTR __$EHRec$[esp+32], esi
  00030	74 09		 je	 SHORT $L93224
  00032	8b c8		 mov	 ecx, eax
  00034	e8 00 00 00 00	 call	 ??0CPacket@@QAE@XZ	; CPacket::CPacket
  00039	8b f0		 mov	 esi, eax
$L93224:

; 6    : 	pMsg->SetID(CT_OPLOGIN_ACK)
; 7    : 		<< bRet
; 8    : 		<< bAuthority //   
; 9    : 		<< dwID;

  0003b	8b 44 24 24	 mov	 eax, DWORD PTR _dwID$[esp+20]
  0003f	8b 4c 24 20	 mov	 ecx, DWORD PTR _bAuthority$[esp+20]
  00043	8b 54 24 1c	 mov	 edx, DWORD PTR _bRet$[esp+20]
  00047	50		 push	 eax
  00048	51		 push	 ecx
  00049	52		 push	 edx
  0004a	68 02 60 00 00	 push	 24578			; 00006002H
  0004f	8b ce		 mov	 ecx, esi
  00051	c7 44 24 24 ff
	ff ff ff	 mov	 DWORD PTR __$EHRec$[esp+48], -1
  00059	e8 00 00 00 00	 call	 ?SetID@CPacket@@QAEAAV1@G@Z ; CPacket::SetID
  0005e	8b c8		 mov	 ecx, eax
  00060	e8 00 00 00 00	 call	 ??6CPacket@@QAEAAV0@E@Z	; CPacket::operator<<
  00065	8b c8		 mov	 ecx, eax
  00067	e8 00 00 00 00	 call	 ??6CPacket@@QAEAAV0@E@Z	; CPacket::operator<<
  0006c	8b c8		 mov	 ecx, eax
  0006e	e8 00 00 00 00	 call	 ??6CPacket@@QAEAAV0@K@Z	; CPacket::operator<<

; 10   : 
; 11   : 	Say(pMsg);

  00073	8b 07		 mov	 eax, DWORD PTR [edi]
  00075	56		 push	 esi
  00076	8b cf		 mov	 ecx, edi
  00078	ff 10		 call	 DWORD PTR [eax]

; 12   : }

  0007a	8b 4c 24 0c	 mov	 ecx, DWORD PTR __$EHRec$[esp+24]
  0007e	5f		 pop	 edi
  0007f	5e		 pop	 esi
  00080	64 89 0d 00 00
	00 00		 mov	 DWORD PTR fs:__except_list, ecx
  00087	83 c4 10	 add	 esp, 16			; 00000010H
  0008a	c2 0c 00	 ret	 12			; 0000000cH
_TEXT	ENDS
;	COMDAT text$x
text$x	SEGMENT
$L93225:
  00000	8b 45 f0	 mov	 eax, DWORD PTR $T93222[ebp]
  00003	50		 push	 eax
  00004	e8 00 00 00 00	 call	 ??3@YAXPAX@Z		; operator delete
  00009	59		 pop	 ecx
  0000a	c3		 ret	 0
__ehhandler$?SendCT_OPLOGIN_ACK@CTManager@@QAEXEEK@Z:
  0000b	b8 00 00 00 00	 mov	 eax, OFFSET FLAT:$T93229
  00010	e9 00 00 00 00	 jmp	 ___CxxFrameHandler
text$x	ENDS
?SendCT_OPLOGIN_ACK@CTManager@@QAEXEEK@Z ENDP		; CTManager::SendCT_OPLOGIN_ACK
PUBLIC	?SendCT_STLOGIN_ACK@CTManager@@QAEXEE@Z		; CTManager::SendCT_STLOGIN_ACK
;	COMDAT xdata$x
xdata$x	SEGMENT
$T93249	DD	0ffffffffH
	DD	FLAT:$L93245
$T93247	DD	019930520H
	DD	01H
	DD	FLAT:$T93249
	DD	2 DUP(00H)
	DD	2 DUP(00H)
; Function compile flags: /Ogty
xdata$x	ENDS
;	COMDAT ?SendCT_STLOGIN_ACK@CTManager@@QAEXEE@Z
_TEXT	SEGMENT
$T93242 = -16						; size = 4
__$EHRec$ = -12						; size = 12
_bRet$ = 8						; size = 1
_bAuthority$ = 12					; size = 1
?SendCT_STLOGIN_ACK@CTManager@@QAEXEE@Z PROC NEAR	; CTManager::SendCT_STLOGIN_ACK, COMDAT
; _this$ = ecx

; 15   : {

  00000	6a ff		 push	 -1
  00002	68 00 00 00 00	 push	 __ehhandler$?SendCT_STLOGIN_ACK@CTManager@@QAEXEE@Z
  00007	64 a1 00 00 00
	00		 mov	 eax, DWORD PTR fs:__except_list
  0000d	50		 push	 eax
  0000e	64 89 25 00 00
	00 00		 mov	 DWORD PTR fs:__except_list, esp
  00015	51		 push	 ecx
  00016	56		 push	 esi
  00017	57		 push	 edi

; 16   : 	CPacket * pMsg = new CPacket();

  00018	6a 1c		 push	 28			; 0000001cH
  0001a	8b f9		 mov	 edi, ecx
  0001c	e8 00 00 00 00	 call	 ??2@YAPAXI@Z		; operator new
  00021	83 c4 04	 add	 esp, 4
  00024	89 44 24 08	 mov	 DWORD PTR $T93242[esp+24], eax
  00028	33 f6		 xor	 esi, esi
  0002a	3b c6		 cmp	 eax, esi
  0002c	89 74 24 14	 mov	 DWORD PTR __$EHRec$[esp+32], esi
  00030	74 09		 je	 SHORT $L93244
  00032	8b c8		 mov	 ecx, eax
  00034	e8 00 00 00 00	 call	 ??0CPacket@@QAE@XZ	; CPacket::CPacket
  00039	8b f0		 mov	 esi, eax
$L93244:

; 17   : 	pMsg->SetID(CT_STLOGIN_ACK)
; 18   : 		<< bRet
; 19   : 		<< bAuthority; //   

  0003b	8b 44 24 20	 mov	 eax, DWORD PTR _bAuthority$[esp+20]
  0003f	8b 4c 24 1c	 mov	 ecx, DWORD PTR _bRet$[esp+20]
  00043	50		 push	 eax
  00044	51		 push	 ecx
  00045	68 31 60 00 00	 push	 24625			; 00006031H
  0004a	8b ce		 mov	 ecx, esi
  0004c	c7 44 24 20 ff
	ff ff ff	 mov	 DWORD PTR __$EHRec$[esp+44], -1
  00054	e8 00 00 00 00	 call	 ?SetID@CPacket@@QAEAAV1@G@Z ; CPacket::SetID
  00059	8b c8		 mov	 ecx, eax
  0005b	e8 00 00 00 00	 call	 ??6CPacket@@QAEAAV0@E@Z	; CPacket::operator<<
  00060	8b c8		 mov	 ecx, eax
  00062	e8 00 00 00 00	 call	 ??6CPacket@@QAEAAV0@E@Z	; CPacket::operator<<

; 20   : 
; 21   : 	Say(pMsg);

  00067	8b 17		 mov	 edx, DWORD PTR [edi]
  00069	56		 push	 esi
  0006a	8b cf		 mov	 ecx, edi
  0006c	ff 12		 call	 DWORD PTR [edx]

; 22   : }

  0006e	8b 4c 24 0c	 mov	 ecx, DWORD PTR __$EHRec$[esp+24]
  00072	5f		 pop	 edi
  00073	5e		 pop	 esi
  00074	64 89 0d 00 00
	00 00		 mov	 DWORD PTR fs:__except_list, ecx
  0007b	83 c4 10	 add	 esp, 16			; 00000010H
  0007e	c2 08 00	 ret	 8
_TEXT	ENDS
;	COMDAT text$x
text$x	SEGMENT
$L93245:
  00000	8b 45 f0	 mov	 eax, DWORD PTR $T93242[ebp]
  00003	50		 push	 eax
  00004	e8 00 00 00 00	 call	 ??3@YAXPAX@Z		; operator delete
  00009	59		 pop	 ecx
  0000a	c3		 ret	 0
__ehhandler$?SendCT_STLOGIN_ACK@CTManager@@QAEXEE@Z:
  0000b	b8 00 00 00 00	 mov	 eax, OFFSET FLAT:$T93247
  00010	e9 00 00 00 00	 jmp	 ___CxxFrameHandler
text$x	ENDS
?SendCT_STLOGIN_ACK@CTManager@@QAEXEE@Z ENDP		; CTManager::SendCT_STLOGIN_ACK
PUBLIC	?SendCT_SERVICECONTROL_ACK@CTManager@@QAEXE@Z	; CTManager::SendCT_SERVICECONTROL_ACK
;	COMDAT xdata$x
xdata$x	SEGMENT
$T93263	DD	0ffffffffH
	DD	FLAT:$L93259
$T93261	DD	019930520H
	DD	01H
	DD	FLAT:$T93263
	DD	2 DUP(00H)
	DD	2 DUP(00H)
; Function compile flags: /Ogty
xdata$x	ENDS
;	COMDAT ?SendCT_SERVICECONTROL_ACK@CTManager@@QAEXE@Z
_TEXT	SEGMENT
$T93256 = -16						; size = 4
__$EHRec$ = -12						; size = 12
_bRet$ = 8						; size = 1
?SendCT_SERVICECONTROL_ACK@CTManager@@QAEXE@Z PROC NEAR	; CTManager::SendCT_SERVICECONTROL_ACK, COMDAT
; _this$ = ecx

; 92   : {

  00000	6a ff		 push	 -1
  00002	68 00 00 00 00	 push	 __ehhandler$?SendCT_SERVICECONTROL_ACK@CTManager@@QAEXE@Z
  00007	64 a1 00 00 00
	00		 mov	 eax, DWORD PTR fs:__except_list
  0000d	50		 push	 eax
  0000e	64 89 25 00 00
	00 00		 mov	 DWORD PTR fs:__except_list, esp
  00015	51		 push	 ecx
  00016	56		 push	 esi
  00017	57		 push	 edi

; 93   : 	CPacket * pMsg = new CPacket();

  00018	6a 1c		 push	 28			; 0000001cH
  0001a	8b f9		 mov	 edi, ecx
  0001c	e8 00 00 00 00	 call	 ??2@YAPAXI@Z		; operator new
  00021	83 c4 04	 add	 esp, 4
  00024	89 44 24 08	 mov	 DWORD PTR $T93256[esp+24], eax
  00028	33 f6		 xor	 esi, esi
  0002a	3b c6		 cmp	 eax, esi
  0002c	89 74 24 14	 mov	 DWORD PTR __$EHRec$[esp+32], esi
  00030	74 09		 je	 SHORT $L93258
  00032	8b c8		 mov	 ecx, eax
  00034	e8 00 00 00 00	 call	 ??0CPacket@@QAE@XZ	; CPacket::CPacket
  00039	8b f0		 mov	 esi, eax
$L93258:

; 94   : 	pMsg->SetID(CT_SERVICECONTROL_ACK)
; 95   : 		<< bRet;

  0003b	8b 44 24 1c	 mov	 eax, DWORD PTR _bRet$[esp+20]
  0003f	50		 push	 eax
  00040	68 09 60 00 00	 push	 24585			; 00006009H
  00045	8b ce		 mov	 ecx, esi
  00047	c7 44 24 1c ff
	ff ff ff	 mov	 DWORD PTR __$EHRec$[esp+40], -1
  0004f	e8 00 00 00 00	 call	 ?SetID@CPacket@@QAEAAV1@G@Z ; CPacket::SetID
  00054	8b c8		 mov	 ecx, eax
  00056	e8 00 00 00 00	 call	 ??6CPacket@@QAEAAV0@E@Z	; CPacket::operator<<

; 96   : 
; 97   : 	Say(pMsg);

  0005b	8b 17		 mov	 edx, DWORD PTR [edi]
  0005d	56		 push	 esi
  0005e	8b cf		 mov	 ecx, edi
  00060	ff 12		 call	 DWORD PTR [edx]

; 98   : }

  00062	8b 4c 24 0c	 mov	 ecx, DWORD PTR __$EHRec$[esp+24]
  00066	5f		 pop	 edi
  00067	5e		 pop	 esi
  00068	64 89 0d 00 00
	00 00		 mov	 DWORD PTR fs:__except_list, ecx
  0006f	83 c4 10	 add	 esp, 16			; 00000010H
  00072	c2 04 00	 ret	 4
_TEXT	ENDS
;	COMDAT text$x
text$x	SEGMENT
$L93259:
  00000	8b 45 f0	 mov	 eax, DWORD PTR $T93256[ebp]
  00003	50		 push	 eax
  00004	e8 00 00 00 00	 call	 ??3@YAXPAX@Z		; operator delete
  00009	59		 pop	 ecx
  0000a	c3		 ret	 0
__ehhandler$?SendCT_SERVICECONTROL_ACK@CTManager@@QAEXE@Z:
  0000b	b8 00 00 00 00	 mov	 eax, OFFSET FLAT:$T93261
  00010	e9 00 00 00 00	 jmp	 ___CxxFrameHandler
text$x	ENDS
?SendCT_SERVICECONTROL_ACK@CTManager@@QAEXE@Z ENDP	; CTManager::SendCT_SERVICECONTROL_ACK
PUBLIC	?SendCT_SERVICECHANGE_ACK@CTManager@@QAEXKK@Z	; CTManager::SendCT_SERVICECHANGE_ACK
;	COMDAT xdata$x
xdata$x	SEGMENT
$T93277	DD	0ffffffffH
	DD	FLAT:$L93273
$T93275	DD	019930520H
	DD	01H
	DD	FLAT:$T93277
	DD	2 DUP(00H)
	DD	2 DUP(00H)
; Function compile flags: /Ogty
xdata$x	ENDS
;	COMDAT ?SendCT_SERVICECHANGE_ACK@CTManager@@QAEXKK@Z
_TEXT	SEGMENT
$T93270 = -16						; size = 4
__$EHRec$ = -12						; size = 12
_dwID$ = 8						; size = 4
_dwStatus$ = 12						; size = 4
?SendCT_SERVICECHANGE_ACK@CTManager@@QAEXKK@Z PROC NEAR	; CTManager::SendCT_SERVICECHANGE_ACK, COMDAT
; _this$ = ecx

; 100  : {

  00000	6a ff		 push	 -1
  00002	68 00 00 00 00	 push	 __ehhandler$?SendCT_SERVICECHANGE_ACK@CTManager@@QAEXKK@Z
  00007	64 a1 00 00 00
	00		 mov	 eax, DWORD PTR fs:__except_list
  0000d	50		 push	 eax
  0000e	64 89 25 00 00
	00 00		 mov	 DWORD PTR fs:__except_list, esp
  00015	51		 push	 ecx
  00016	56		 push	 esi
  00017	57		 push	 edi

; 101  : 	CPacket * pMsg = new CPacket();

  00018	6a 1c		 push	 28			; 0000001cH
  0001a	8b f9		 mov	 edi, ecx
  0001c	e8 00 00 00 00	 call	 ??2@YAPAXI@Z		; operator new
  00021	83 c4 04	 add	 esp, 4
  00024	89 44 24 08	 mov	 DWORD PTR $T93270[esp+24], eax
  00028	33 f6		 xor	 esi, esi
  0002a	3b c6		 cmp	 eax, esi
  0002c	89 74 24 14	 mov	 DWORD PTR __$EHRec$[esp+32], esi
  00030	74 09		 je	 SHORT $L93272
  00032	8b c8		 mov	 ecx, eax
  00034	e8 00 00 00 00	 call	 ??0CPacket@@QAE@XZ	; CPacket::CPacket
  00039	8b f0		 mov	 esi, eax
$L93272:

; 102  : 	pMsg->SetID(CT_SERVICECHANGE_ACK)
; 103  : 		<< dwID
; 104  : 		<< dwStatus;

  0003b	8b 44 24 20	 mov	 eax, DWORD PTR _dwStatus$[esp+20]
  0003f	8b 4c 24 1c	 mov	 ecx, DWORD PTR _dwID$[esp+20]
  00043	50		 push	 eax
  00044	51		 push	 ecx
  00045	68 1c 60 00 00	 push	 24604			; 0000601cH
  0004a	8b ce		 mov	 ecx, esi
  0004c	c7 44 24 20 ff
	ff ff ff	 mov	 DWORD PTR __$EHRec$[esp+44], -1
  00054	e8 00 00 00 00	 call	 ?SetID@CPacket@@QAEAAV1@G@Z ; CPacket::SetID
  00059	8b c8		 mov	 ecx, eax
  0005b	e8 00 00 00 00	 call	 ??6CPacket@@QAEAAV0@K@Z	; CPacket::operator<<
  00060	8b c8		 mov	 ecx, eax
  00062	e8 00 00 00 00	 call	 ??6CPacket@@QAEAAV0@K@Z	; CPacket::operator<<

; 105  : 
; 106  : 	Say(pMsg);

  00067	8b 17		 mov	 edx, DWORD PTR [edi]
  00069	56		 push	 esi
  0006a	8b cf		 mov	 ecx, edi
  0006c	ff 12		 call	 DWORD PTR [edx]

; 107  : }

  0006e	8b 4c 24 0c	 mov	 ecx, DWORD PTR __$EHRec$[esp+24]
  00072	5f		 pop	 edi
  00073	5e		 pop	 esi
  00074	64 89 0d 00 00
	00 00		 mov	 DWORD PTR fs:__except_list, ecx
  0007b	83 c4 10	 add	 esp, 16			; 00000010H
  0007e	c2 08 00	 ret	 8
_TEXT	ENDS
;	COMDAT text$x
text$x	SEGMENT
$L93273:
  00000	8b 45 f0	 mov	 eax, DWORD PTR $T93270[ebp]
  00003	50		 push	 eax
  00004	e8 00 00 00 00	 call	 ??3@YAXPAX@Z		; operator delete
  00009	59		 pop	 ecx
  0000a	c3		 ret	 0
__ehhandler$?SendCT_SERVICECHANGE_ACK@CTManager@@QAEXKK@Z:
  0000b	b8 00 00 00 00	 mov	 eax, OFFSET FLAT:$T93275
  00010	e9 00 00 00 00	 jmp	 ___CxxFrameHandler
text$x	ENDS
?SendCT_SERVICECHANGE_ACK@CTManager@@QAEXKK@Z ENDP	; CTManager::SendCT_SERVICECHANGE_ACK
PUBLIC	?SendCT_SERVICEDATA_ACK@CTManager@@QAEXPAUtagTSVRTEMP@@KKKK@Z ; CTManager::SendCT_SERVICEDATA_ACK
EXTRN	??6CPacket@@QAEAAV0@_J@Z:NEAR			; CPacket::operator<<
;	COMDAT xdata$x
xdata$x	SEGMENT
$T93291	DD	0ffffffffH
	DD	FLAT:$L93287
$T93289	DD	019930520H
	DD	01H
	DD	FLAT:$T93291
	DD	2 DUP(00H)
	DD	2 DUP(00H)
; Function compile flags: /Ogty
xdata$x	ENDS
;	COMDAT ?SendCT_SERVICEDATA_ACK@CTManager@@QAEXPAUtagTSVRTEMP@@KKKK@Z
_TEXT	SEGMENT
$T93284 = -16						; size = 4
__$EHRec$ = -12						; size = 12
_pSvr$ = 8						; size = 4
_dwSession$ = 12					; size = 4
_dwCurUser$ = 16					; size = 4
_dwPing$ = 20						; size = 4
_dwActiveUser$ = 24					; size = 4
?SendCT_SERVICEDATA_ACK@CTManager@@QAEXPAUtagTSVRTEMP@@KKKK@Z PROC NEAR ; CTManager::SendCT_SERVICEDATA_ACK, COMDAT
; _this$ = ecx

; 113  : {

  00000	6a ff		 push	 -1
  00002	68 00 00 00 00	 push	 __ehhandler$?SendCT_SERVICEDATA_ACK@CTManager@@QAEXPAUtagTSVRTEMP@@KKKK@Z
  00007	64 a1 00 00 00
	00		 mov	 eax, DWORD PTR fs:__except_list
  0000d	50		 push	 eax
  0000e	64 89 25 00 00
	00 00		 mov	 DWORD PTR fs:__except_list, esp
  00015	51		 push	 ecx
  00016	56		 push	 esi
  00017	57		 push	 edi

; 114  : 	CPacket * pMsg = new CPacket();

  00018	6a 1c		 push	 28			; 0000001cH
  0001a	8b f9		 mov	 edi, ecx
  0001c	e8 00 00 00 00	 call	 ??2@YAPAXI@Z		; operator new
  00021	83 c4 04	 add	 esp, 4
  00024	89 44 24 08	 mov	 DWORD PTR $T93284[esp+24], eax
  00028	33 f6		 xor	 esi, esi
  0002a	3b c6		 cmp	 eax, esi
  0002c	89 74 24 14	 mov	 DWORD PTR __$EHRec$[esp+32], esi
  00030	74 09		 je	 SHORT $L93286
  00032	8b c8		 mov	 ecx, eax
  00034	e8 00 00 00 00	 call	 ??0CPacket@@QAE@XZ	; CPacket::CPacket
  00039	8b f0		 mov	 esi, eax
$L93286:

; 115  : 	pMsg->SetID(CT_SERVICEDATA_ACK)
; 116  : 		<< pSvr->m_dwID
; 117  : 		<< dwSession
; 118  : 		<< dwCurUser
; 119  : 		<< pSvr->m_dwMaxUser
; 120  : 		<< dwPing
; 121  : 		<< pSvr->m_nPickTime
; 122  : 		<< pSvr->m_dwStopCount
; 123  : 		<< pSvr->m_nLatestStop
; 124  : 		<< dwActiveUser;

  0003b	8b 44 24 2c	 mov	 eax, DWORD PTR _dwActiveUser$[esp+20]
  0003f	50		 push	 eax
  00040	8b 44 24 20	 mov	 eax, DWORD PTR _pSvr$[esp+24]
  00044	8b 48 44	 mov	 ecx, DWORD PTR [eax+68]
  00047	8b 50 40	 mov	 edx, DWORD PTR [eax+64]
  0004a	51		 push	 ecx
  0004b	8b 48 34	 mov	 ecx, DWORD PTR [eax+52]
  0004e	52		 push	 edx
  0004f	8b 50 4c	 mov	 edx, DWORD PTR [eax+76]
  00052	51		 push	 ecx
  00053	8b 48 48	 mov	 ecx, DWORD PTR [eax+72]
  00056	52		 push	 edx
  00057	8b 54 24 3c	 mov	 edx, DWORD PTR _dwPing$[esp+40]
  0005b	51		 push	 ecx
  0005c	8b 48 2c	 mov	 ecx, DWORD PTR [eax+44]
  0005f	52		 push	 edx
  00060	8b 54 24 40	 mov	 edx, DWORD PTR _dwCurUser$[esp+48]
  00064	51		 push	 ecx
  00065	8b 4c 24 40	 mov	 ecx, DWORD PTR _dwSession$[esp+52]
  00069	52		 push	 edx
  0006a	8b 10		 mov	 edx, DWORD PTR [eax]
  0006c	51		 push	 ecx
  0006d	52		 push	 edx
  0006e	68 20 60 00 00	 push	 24608			; 00006020H
  00073	8b ce		 mov	 ecx, esi
  00075	c7 44 24 44 ff
	ff ff ff	 mov	 DWORD PTR __$EHRec$[esp+80], -1
  0007d	e8 00 00 00 00	 call	 ?SetID@CPacket@@QAEAAV1@G@Z ; CPacket::SetID
  00082	8b c8		 mov	 ecx, eax
  00084	e8 00 00 00 00	 call	 ??6CPacket@@QAEAAV0@K@Z	; CPacket::operator<<
  00089	8b c8		 mov	 ecx, eax
  0008b	e8 00 00 00 00	 call	 ??6CPacket@@QAEAAV0@K@Z	; CPacket::operator<<
  00090	8b c8		 mov	 ecx, eax
  00092	e8 00 00 00 00	 call	 ??6CPacket@@QAEAAV0@K@Z	; CPacket::operator<<
  00097	8b c8		 mov	 ecx, eax
  00099	e8 00 00 00 00	 call	 ??6CPacket@@QAEAAV0@K@Z	; CPacket::operator<<
  0009e	8b c8		 mov	 ecx, eax
  000a0	e8 00 00 00 00	 call	 ??6CPacket@@QAEAAV0@K@Z	; CPacket::operator<<
  000a5	8b c8		 mov	 ecx, eax
  000a7	e8 00 00 00 00	 call	 ??6CPacket@@QAEAAV0@_J@Z ; CPacket::operator<<
  000ac	8b c8		 mov	 ecx, eax
  000ae	e8 00 00 00 00	 call	 ??6CPacket@@QAEAAV0@K@Z	; CPacket::operator<<
  000b3	8b c8		 mov	 ecx, eax
  000b5	e8 00 00 00 00	 call	 ??6CPacket@@QAEAAV0@_J@Z ; CPacket::operator<<
  000ba	8b c8		 mov	 ecx, eax
  000bc	e8 00 00 00 00	 call	 ??6CPacket@@QAEAAV0@K@Z	; CPacket::operator<<

; 125  : 
; 126  : 	Say(pMsg);

  000c1	8b 07		 mov	 eax, DWORD PTR [edi]
  000c3	56		 push	 esi
  000c4	8b cf		 mov	 ecx, edi
  000c6	ff 10		 call	 DWORD PTR [eax]

; 127  : }

  000c8	8b 4c 24 0c	 mov	 ecx, DWORD PTR __$EHRec$[esp+24]
  000cc	5f		 pop	 edi
  000cd	5e		 pop	 esi
  000ce	64 89 0d 00 00
	00 00		 mov	 DWORD PTR fs:__except_list, ecx
  000d5	83 c4 10	 add	 esp, 16			; 00000010H
  000d8	c2 14 00	 ret	 20			; 00000014H
_TEXT	ENDS
;	COMDAT text$x
text$x	SEGMENT
$L93287:
  00000	8b 45 f0	 mov	 eax, DWORD PTR $T93284[ebp]
  00003	50		 push	 eax
  00004	e8 00 00 00 00	 call	 ??3@YAXPAX@Z		; operator delete
  00009	59		 pop	 ecx
  0000a	c3		 ret	 0
__ehhandler$?SendCT_SERVICEDATA_ACK@CTManager@@QAEXPAUtagTSVRTEMP@@KKKK@Z:
  0000b	b8 00 00 00 00	 mov	 eax, OFFSET FLAT:$T93289
  00010	e9 00 00 00 00	 jmp	 ___CxxFrameHandler
text$x	ENDS
?SendCT_SERVICEDATA_ACK@CTManager@@QAEXPAUtagTSVRTEMP@@KKKK@Z ENDP ; CTManager::SendCT_SERVICEDATA_ACK
PUBLIC	?SendCT_SERVICEUPLOADSTART_ACK@CTManager@@QAEXE@Z ; CTManager::SendCT_SERVICEUPLOADSTART_ACK
;	COMDAT xdata$x
xdata$x	SEGMENT
$T93305	DD	0ffffffffH
	DD	FLAT:$L93301
$T93303	DD	019930520H
	DD	01H
	DD	FLAT:$T93305
	DD	2 DUP(00H)
	DD	2 DUP(00H)
; Function compile flags: /Ogty
xdata$x	ENDS
;	COMDAT ?SendCT_SERVICEUPLOADSTART_ACK@CTManager@@QAEXE@Z
_TEXT	SEGMENT
$T93298 = -16						; size = 4
__$EHRec$ = -12						; size = 12
_bRet$ = 8						; size = 1
?SendCT_SERVICEUPLOADSTART_ACK@CTManager@@QAEXE@Z PROC NEAR ; CTManager::SendCT_SERVICEUPLOADSTART_ACK, COMDAT
; _this$ = ecx

; 129  : {

  00000	6a ff		 push	 -1
  00002	68 00 00 00 00	 push	 __ehhandler$?SendCT_SERVICEUPLOADSTART_ACK@CTManager@@QAEXE@Z
  00007	64 a1 00 00 00
	00		 mov	 eax, DWORD PTR fs:__except_list
  0000d	50		 push	 eax
  0000e	64 89 25 00 00
	00 00		 mov	 DWORD PTR fs:__except_list, esp
  00015	51		 push	 ecx
  00016	56		 push	 esi
  00017	57		 push	 edi

; 130  : 	CPacket * pMsg = new CPacket();

  00018	6a 1c		 push	 28			; 0000001cH
  0001a	8b f9		 mov	 edi, ecx
  0001c	e8 00 00 00 00	 call	 ??2@YAPAXI@Z		; operator new
  00021	83 c4 04	 add	 esp, 4
  00024	89 44 24 08	 mov	 DWORD PTR $T93298[esp+24], eax
  00028	33 f6		 xor	 esi, esi
  0002a	3b c6		 cmp	 eax, esi
  0002c	89 74 24 14	 mov	 DWORD PTR __$EHRec$[esp+32], esi
  00030	74 09		 je	 SHORT $L93300
  00032	8b c8		 mov	 ecx, eax
  00034	e8 00 00 00 00	 call	 ??0CPacket@@QAE@XZ	; CPacket::CPacket
  00039	8b f0		 mov	 esi, eax
$L93300:

; 131  : 	pMsg->SetID(CT_SERVICEUPLOADSTART_ACK)
; 132  : 		<< bRet;

  0003b	8b 44 24 1c	 mov	 eax, DWORD PTR _bRet$[esp+20]
  0003f	50		 push	 eax
  00040	68 22 60 00 00	 push	 24610			; 00006022H
  00045	8b ce		 mov	 ecx, esi
  00047	c7 44 24 1c ff
	ff ff ff	 mov	 DWORD PTR __$EHRec$[esp+40], -1
  0004f	e8 00 00 00 00	 call	 ?SetID@CPacket@@QAEAAV1@G@Z ; CPacket::SetID
  00054	8b c8		 mov	 ecx, eax
  00056	e8 00 00 00 00	 call	 ??6CPacket@@QAEAAV0@E@Z	; CPacket::operator<<

; 133  : 
; 134  : 	Say(pMsg);

  0005b	8b 17		 mov	 edx, DWORD PTR [edi]
  0005d	56		 push	 esi
  0005e	8b cf		 mov	 ecx, edi
  00060	ff 12		 call	 DWORD PTR [edx]

; 135  : }

  00062	8b 4c 24 0c	 mov	 ecx, DWORD PTR __$EHRec$[esp+24]
  00066	5f		 pop	 edi
  00067	5e		 pop	 esi
  00068	64 89 0d 00 00
	00 00		 mov	 DWORD PTR fs:__except_list, ecx
  0006f	83 c4 10	 add	 esp, 16			; 00000010H
  00072	c2 04 00	 ret	 4
_TEXT	ENDS
;	COMDAT text$x
text$x	SEGMENT
$L93301:
  00000	8b 45 f0	 mov	 eax, DWORD PTR $T93298[ebp]
  00003	50		 push	 eax
  00004	e8 00 00 00 00	 call	 ??3@YAXPAX@Z		; operator delete
  00009	59		 pop	 ecx
  0000a	c3		 ret	 0
__ehhandler$?SendCT_SERVICEUPLOADSTART_ACK@CTManager@@QAEXE@Z:
  0000b	b8 00 00 00 00	 mov	 eax, OFFSET FLAT:$T93303
  00010	e9 00 00 00 00	 jmp	 ___CxxFrameHandler
text$x	ENDS
?SendCT_SERVICEUPLOADSTART_ACK@CTManager@@QAEXE@Z ENDP	; CTManager::SendCT_SERVICEUPLOADSTART_ACK
PUBLIC	?SendCT_SERVICEUPLOAD_ACK@CTManager@@QAEXXZ	; CTManager::SendCT_SERVICEUPLOAD_ACK
;	COMDAT xdata$x
xdata$x	SEGMENT
$T93319	DD	0ffffffffH
	DD	FLAT:$L93315
$T93317	DD	019930520H
	DD	01H
	DD	FLAT:$T93319
	DD	2 DUP(00H)
	DD	2 DUP(00H)
; Function compile flags: /Ogty
xdata$x	ENDS
;	COMDAT ?SendCT_SERVICEUPLOAD_ACK@CTManager@@QAEXXZ
_TEXT	SEGMENT
$T93312 = -16						; size = 4
__$EHRec$ = -12						; size = 12
?SendCT_SERVICEUPLOAD_ACK@CTManager@@QAEXXZ PROC NEAR	; CTManager::SendCT_SERVICEUPLOAD_ACK, COMDAT
; _this$ = ecx

; 137  : {

  00000	6a ff		 push	 -1
  00002	68 00 00 00 00	 push	 __ehhandler$?SendCT_SERVICEUPLOAD_ACK@CTManager@@QAEXXZ
  00007	64 a1 00 00 00
	00		 mov	 eax, DWORD PTR fs:__except_list
  0000d	50		 push	 eax
  0000e	64 89 25 00 00
	00 00		 mov	 DWORD PTR fs:__except_list, esp
  00015	51		 push	 ecx
  00016	56		 push	 esi
  00017	57		 push	 edi

; 138  : 	CPacket * pMsg = new CPacket();

  00018	6a 1c		 push	 28			; 0000001cH
  0001a	8b f9		 mov	 edi, ecx
  0001c	e8 00 00 00 00	 call	 ??2@YAPAXI@Z		; operator new
  00021	83 c4 04	 add	 esp, 4
  00024	89 44 24 08	 mov	 DWORD PTR $T93312[esp+24], eax
  00028	33 f6		 xor	 esi, esi
  0002a	3b c6		 cmp	 eax, esi
  0002c	89 74 24 14	 mov	 DWORD PTR __$EHRec$[esp+32], esi
  00030	74 09		 je	 SHORT $L93314
  00032	8b c8		 mov	 ecx, eax
  00034	e8 00 00 00 00	 call	 ??0CPacket@@QAE@XZ	; CPacket::CPacket
  00039	8b f0		 mov	 esi, eax
$L93314:

; 139  : 	pMsg->SetID(CT_SERVICEUPLOAD_ACK);

  0003b	68 24 60 00 00	 push	 24612			; 00006024H
  00040	8b ce		 mov	 ecx, esi
  00042	c7 44 24 18 ff
	ff ff ff	 mov	 DWORD PTR __$EHRec$[esp+36], -1
  0004a	e8 00 00 00 00	 call	 ?SetID@CPacket@@QAEAAV1@G@Z ; CPacket::SetID

; 140  : 
; 141  : 	Say(pMsg);

  0004f	8b 07		 mov	 eax, DWORD PTR [edi]
  00051	56		 push	 esi
  00052	8b cf		 mov	 ecx, edi
  00054	ff 10		 call	 DWORD PTR [eax]

; 142  : }

  00056	8b 4c 24 0c	 mov	 ecx, DWORD PTR __$EHRec$[esp+24]
  0005a	5f		 pop	 edi
  0005b	5e		 pop	 esi
  0005c	64 89 0d 00 00
	00 00		 mov	 DWORD PTR fs:__except_list, ecx
  00063	83 c4 10	 add	 esp, 16			; 00000010H
  00066	c3		 ret	 0
_TEXT	ENDS
;	COMDAT text$x
text$x	SEGMENT
$L93315:
  00000	8b 45 f0	 mov	 eax, DWORD PTR $T93312[ebp]
  00003	50		 push	 eax
  00004	e8 00 00 00 00	 call	 ??3@YAXPAX@Z		; operator delete
  00009	59		 pop	 ecx
  0000a	c3		 ret	 0
__ehhandler$?SendCT_SERVICEUPLOAD_ACK@CTManager@@QAEXXZ:
  0000b	b8 00 00 00 00	 mov	 eax, OFFSET FLAT:$T93317
  00010	e9 00 00 00 00	 jmp	 ___CxxFrameHandler
text$x	ENDS
?SendCT_SERVICEUPLOAD_ACK@CTManager@@QAEXXZ ENDP	; CTManager::SendCT_SERVICEUPLOAD_ACK
PUBLIC	?SendCT_SERVICEUPLOADEND_ACK@CTManager@@QAEXE@Z	; CTManager::SendCT_SERVICEUPLOADEND_ACK
;	COMDAT xdata$x
xdata$x	SEGMENT
$T93333	DD	0ffffffffH
	DD	FLAT:$L93329
$T93331	DD	019930520H
	DD	01H
	DD	FLAT:$T93333
	DD	2 DUP(00H)
	DD	2 DUP(00H)
; Function compile flags: /Ogty
xdata$x	ENDS
;	COMDAT ?SendCT_SERVICEUPLOADEND_ACK@CTManager@@QAEXE@Z
_TEXT	SEGMENT
$T93326 = -16						; size = 4
__$EHRec$ = -12						; size = 12
_bRet$ = 8						; size = 1
?SendCT_SERVICEUPLOADEND_ACK@CTManager@@QAEXE@Z PROC NEAR ; CTManager::SendCT_SERVICEUPLOADEND_ACK, COMDAT
; _this$ = ecx

; 144  : {

  00000	6a ff		 push	 -1
  00002	68 00 00 00 00	 push	 __ehhandler$?SendCT_SERVICEUPLOADEND_ACK@CTManager@@QAEXE@Z
  00007	64 a1 00 00 00
	00		 mov	 eax, DWORD PTR fs:__except_list
  0000d	50		 push	 eax
  0000e	64 89 25 00 00
	00 00		 mov	 DWORD PTR fs:__except_list, esp
  00015	51		 push	 ecx
  00016	56		 push	 esi
  00017	57		 push	 edi

; 145  : 	CPacket * pMsg = new CPacket();

  00018	6a 1c		 push	 28			; 0000001cH
  0001a	8b f9		 mov	 edi, ecx
  0001c	e8 00 00 00 00	 call	 ??2@YAPAXI@Z		; operator new
  00021	83 c4 04	 add	 esp, 4
  00024	89 44 24 08	 mov	 DWORD PTR $T93326[esp+24], eax
  00028	33 f6		 xor	 esi, esi
  0002a	3b c6		 cmp	 eax, esi
  0002c	89 74 24 14	 mov	 DWORD PTR __$EHRec$[esp+32], esi
  00030	74 09		 je	 SHORT $L93328
  00032	8b c8		 mov	 ecx, eax
  00034	e8 00 00 00 00	 call	 ??0CPacket@@QAE@XZ	; CPacket::CPacket
  00039	8b f0		 mov	 esi, eax
$L93328:

; 146  : 	pMsg->SetID(CT_SERVICEUPLOADEND_ACK)
; 147  : 		<< bRet;

  0003b	8b 44 24 1c	 mov	 eax, DWORD PTR _bRet$[esp+20]
  0003f	50		 push	 eax
  00040	68 26 60 00 00	 push	 24614			; 00006026H
  00045	8b ce		 mov	 ecx, esi
  00047	c7 44 24 1c ff
	ff ff ff	 mov	 DWORD PTR __$EHRec$[esp+40], -1
  0004f	e8 00 00 00 00	 call	 ?SetID@CPacket@@QAEAAV1@G@Z ; CPacket::SetID
  00054	8b c8		 mov	 ecx, eax
  00056	e8 00 00 00 00	 call	 ??6CPacket@@QAEAAV0@E@Z	; CPacket::operator<<

; 148  : 
; 149  : 	Say(pMsg);

  0005b	8b 17		 mov	 edx, DWORD PTR [edi]
  0005d	56		 push	 esi
  0005e	8b cf		 mov	 ecx, edi
  00060	ff 12		 call	 DWORD PTR [edx]

; 150  : }

  00062	8b 4c 24 0c	 mov	 ecx, DWORD PTR __$EHRec$[esp+24]
  00066	5f		 pop	 edi
  00067	5e		 pop	 esi
  00068	64 89 0d 00 00
	00 00		 mov	 DWORD PTR fs:__except_list, ecx
  0006f	83 c4 10	 add	 esp, 16			; 00000010H
  00072	c2 04 00	 ret	 4
_TEXT	ENDS
;	COMDAT text$x
text$x	SEGMENT
$L93329:
  00000	8b 45 f0	 mov	 eax, DWORD PTR $T93326[ebp]
  00003	50		 push	 eax
  00004	e8 00 00 00 00	 call	 ??3@YAXPAX@Z		; operator delete
  00009	59		 pop	 ecx
  0000a	c3		 ret	 0
__ehhandler$?SendCT_SERVICEUPLOADEND_ACK@CTManager@@QAEXE@Z:
  0000b	b8 00 00 00 00	 mov	 eax, OFFSET FLAT:$T93331
  00010	e9 00 00 00 00	 jmp	 ___CxxFrameHandler
text$x	ENDS
?SendCT_SERVICEUPLOADEND_ACK@CTManager@@QAEXE@Z ENDP	; CTManager::SendCT_SERVICEUPLOADEND_ACK
PUBLIC	?SendCT_AUTHORITY_ACK@CTManager@@QAEXXZ		; CTManager::SendCT_AUTHORITY_ACK
;	COMDAT xdata$x
xdata$x	SEGMENT
$T93347	DD	0ffffffffH
	DD	FLAT:$L93343
$T93345	DD	019930520H
	DD	01H
	DD	FLAT:$T93347
	DD	2 DUP(00H)
	DD	2 DUP(00H)
; Function compile flags: /Ogty
xdata$x	ENDS
;	COMDAT ?SendCT_AUTHORITY_ACK@CTManager@@QAEXXZ
_TEXT	SEGMENT
$T93340 = -16						; size = 4
__$EHRec$ = -12						; size = 12
?SendCT_AUTHORITY_ACK@CTManager@@QAEXXZ PROC NEAR	; CTManager::SendCT_AUTHORITY_ACK, COMDAT
; _this$ = ecx

; 154  : {

  00000	6a ff		 push	 -1
  00002	68 00 00 00 00	 push	 __ehhandler$?SendCT_AUTHORITY_ACK@CTManager@@QAEXXZ
  00007	64 a1 00 00 00
	00		 mov	 eax, DWORD PTR fs:__except_list
  0000d	50		 push	 eax
  0000e	64 89 25 00 00
	00 00		 mov	 DWORD PTR fs:__except_list, esp
  00015	51		 push	 ecx
  00016	56		 push	 esi
  00017	57		 push	 edi

; 155  : 	CPacket * pMsg = new CPacket();

  00018	6a 1c		 push	 28			; 0000001cH
  0001a	8b f9		 mov	 edi, ecx
  0001c	e8 00 00 00 00	 call	 ??2@YAPAXI@Z		; operator new
  00021	83 c4 04	 add	 esp, 4
  00024	89 44 24 08	 mov	 DWORD PTR $T93340[esp+24], eax
  00028	33 f6		 xor	 esi, esi
  0002a	3b c6		 cmp	 eax, esi
  0002c	89 74 24 14	 mov	 DWORD PTR __$EHRec$[esp+32], esi
  00030	74 09		 je	 SHORT $L93342
  00032	8b c8		 mov	 ecx, eax
  00034	e8 00 00 00 00	 call	 ??0CPacket@@QAE@XZ	; CPacket::CPacket
  00039	8b f0		 mov	 esi, eax
$L93342:

; 156  : 	pMsg->SetID(CT_AUTHORITY_ACK);	

  0003b	68 2f 60 00 00	 push	 24623			; 0000602fH
  00040	8b ce		 mov	 ecx, esi
  00042	c7 44 24 18 ff
	ff ff ff	 mov	 DWORD PTR __$EHRec$[esp+36], -1
  0004a	e8 00 00 00 00	 call	 ?SetID@CPacket@@QAEAAV1@G@Z ; CPacket::SetID

; 157  : 
; 158  : 	Say(pMsg);

  0004f	8b 07		 mov	 eax, DWORD PTR [edi]
  00051	56		 push	 esi
  00052	8b cf		 mov	 ecx, edi
  00054	ff 10		 call	 DWORD PTR [eax]

; 159  : }

  00056	8b 4c 24 0c	 mov	 ecx, DWORD PTR __$EHRec$[esp+24]
  0005a	5f		 pop	 edi
  0005b	5e		 pop	 esi
  0005c	64 89 0d 00 00
	00 00		 mov	 DWORD PTR fs:__except_list, ecx
  00063	83 c4 10	 add	 esp, 16			; 00000010H
  00066	c3		 ret	 0
_TEXT	ENDS
;	COMDAT text$x
text$x	SEGMENT
$L93343:
  00000	8b 45 f0	 mov	 eax, DWORD PTR $T93340[ebp]
  00003	50		 push	 eax
  00004	e8 00 00 00 00	 call	 ??3@YAXPAX@Z		; operator delete
  00009	59		 pop	 ecx
  0000a	c3		 ret	 0
__ehhandler$?SendCT_AUTHORITY_ACK@CTManager@@QAEXXZ:
  0000b	b8 00 00 00 00	 mov	 eax, OFFSET FLAT:$T93345
  00010	e9 00 00 00 00	 jmp	 ___CxxFrameHandler
text$x	ENDS
?SendCT_AUTHORITY_ACK@CTManager@@QAEXXZ ENDP		; CTManager::SendCT_AUTHORITY_ACK
PUBLIC	?SendCT_ACCOUNTINPUT_ACK@CTManager@@QAEXE@Z	; CTManager::SendCT_ACCOUNTINPUT_ACK
;	COMDAT xdata$x
xdata$x	SEGMENT
$T93361	DD	0ffffffffH
	DD	FLAT:$L93357
$T93359	DD	019930520H
	DD	01H
	DD	FLAT:$T93361
	DD	2 DUP(00H)
	DD	2 DUP(00H)
; Function compile flags: /Ogty
xdata$x	ENDS
;	COMDAT ?SendCT_ACCOUNTINPUT_ACK@CTManager@@QAEXE@Z
_TEXT	SEGMENT
$T93354 = -16						; size = 4
__$EHRec$ = -12						; size = 12
_bRet$ = 8						; size = 1
?SendCT_ACCOUNTINPUT_ACK@CTManager@@QAEXE@Z PROC NEAR	; CTManager::SendCT_ACCOUNTINPUT_ACK, COMDAT
; _this$ = ecx

; 162  : {

  00000	6a ff		 push	 -1
  00002	68 00 00 00 00	 push	 __ehhandler$?SendCT_ACCOUNTINPUT_ACK@CTManager@@QAEXE@Z
  00007	64 a1 00 00 00
	00		 mov	 eax, DWORD PTR fs:__except_list
  0000d	50		 push	 eax
  0000e	64 89 25 00 00
	00 00		 mov	 DWORD PTR fs:__except_list, esp
  00015	51		 push	 ecx
  00016	56		 push	 esi
  00017	57		 push	 edi

; 163  : 	CPacket * pMsg = new CPacket();

  00018	6a 1c		 push	 28			; 0000001cH
  0001a	8b f9		 mov	 edi, ecx
  0001c	e8 00 00 00 00	 call	 ??2@YAPAXI@Z		; operator new
  00021	83 c4 04	 add	 esp, 4
  00024	89 44 24 08	 mov	 DWORD PTR $T93354[esp+24], eax
  00028	33 f6		 xor	 esi, esi
  0002a	3b c6		 cmp	 eax, esi
  0002c	89 74 24 14	 mov	 DWORD PTR __$EHRec$[esp+32], esi
  00030	74 09		 je	 SHORT $L93356
  00032	8b c8		 mov	 ecx, eax
  00034	e8 00 00 00 00	 call	 ??0CPacket@@QAE@XZ	; CPacket::CPacket
  00039	8b f0		 mov	 esi, eax
$L93356:

; 164  : 	pMsg->SetID(CT_ACCOUNTINPUT_ACK)
; 165  : 		<< bRet;

  0003b	8b 44 24 1c	 mov	 eax, DWORD PTR _bRet$[esp+20]
  0003f	50		 push	 eax
  00040	68 33 60 00 00	 push	 24627			; 00006033H
  00045	8b ce		 mov	 ecx, esi
  00047	c7 44 24 1c ff
	ff ff ff	 mov	 DWORD PTR __$EHRec$[esp+40], -1
  0004f	e8 00 00 00 00	 call	 ?SetID@CPacket@@QAEAAV1@G@Z ; CPacket::SetID
  00054	8b c8		 mov	 ecx, eax
  00056	e8 00 00 00 00	 call	 ??6CPacket@@QAEAAV0@E@Z	; CPacket::operator<<

; 166  : 
; 167  : 	Say(pMsg);

  0005b	8b 17		 mov	 edx, DWORD PTR [edi]
  0005d	56		 push	 esi
  0005e	8b cf		 mov	 ecx, edi
  00060	ff 12		 call	 DWORD PTR [edx]

; 168  : }

  00062	8b 4c 24 0c	 mov	 ecx, DWORD PTR __$EHRec$[esp+24]
  00066	5f		 pop	 edi
  00067	5e		 pop	 esi
  00068	64 89 0d 00 00
	00 00		 mov	 DWORD PTR fs:__except_list, ecx
  0006f	83 c4 10	 add	 esp, 16			; 00000010H
  00072	c2 04 00	 ret	 4
_TEXT	ENDS
;	COMDAT text$x
text$x	SEGMENT
$L93357:
  00000	8b 45 f0	 mov	 eax, DWORD PTR $T93354[ebp]
  00003	50		 push	 eax
  00004	e8 00 00 00 00	 call	 ??3@YAXPAX@Z		; operator delete
  00009	59		 pop	 ecx
  0000a	c3		 ret	 0
__ehhandler$?SendCT_ACCOUNTINPUT_ACK@CTManager@@QAEXE@Z:
  0000b	b8 00 00 00 00	 mov	 eax, OFFSET FLAT:$T93359
  00010	e9 00 00 00 00	 jmp	 ___CxxFrameHandler
text$x	ENDS
?SendCT_ACCOUNTINPUT_ACK@CTManager@@QAEXE@Z ENDP	; CTManager::SendCT_ACCOUNTINPUT_ACK
PUBLIC	?SendCT_PLATFORM_ACK@CTManager@@QAEXEKKM@Z	; CTManager::SendCT_PLATFORM_ACK
EXTRN	__fltused:NEAR
EXTRN	??6CPacket@@QAEAAV0@M@Z:NEAR			; CPacket::operator<<
;	COMDAT xdata$x
xdata$x	SEGMENT
$T93376	DD	0ffffffffH
	DD	FLAT:$L93371
$T93373	DD	019930520H
	DD	01H
	DD	FLAT:$T93376
	DD	2 DUP(00H)
	DD	2 DUP(00H)
; Function compile flags: /Ogty
xdata$x	ENDS
;	COMDAT ?SendCT_PLATFORM_ACK@CTManager@@QAEXEKKM@Z
_TEXT	SEGMENT
$T93368 = -16						; size = 4
__$EHRec$ = -12						; size = 12
_bMachineID$ = 8					; size = 1
_dwCPU$ = 12						; size = 4
_dwMEM$ = 16						; size = 4
_fNET$ = 20						; size = 4
?SendCT_PLATFORM_ACK@CTManager@@QAEXEKKM@Z PROC NEAR	; CTManager::SendCT_PLATFORM_ACK, COMDAT
; _this$ = ecx

; 171  : {

  00000	6a ff		 push	 -1
  00002	68 00 00 00 00	 push	 __ehhandler$?SendCT_PLATFORM_ACK@CTManager@@QAEXEKKM@Z
  00007	64 a1 00 00 00
	00		 mov	 eax, DWORD PTR fs:__except_list
  0000d	50		 push	 eax
  0000e	64 89 25 00 00
	00 00		 mov	 DWORD PTR fs:__except_list, esp
  00015	51		 push	 ecx
  00016	56		 push	 esi
  00017	57		 push	 edi

; 172  : 	CPacket * pMsg = new CPacket();

  00018	6a 1c		 push	 28			; 0000001cH
  0001a	8b f9		 mov	 edi, ecx
  0001c	e8 00 00 00 00	 call	 ??2@YAPAXI@Z		; operator new
  00021	83 c4 04	 add	 esp, 4
  00024	89 44 24 08	 mov	 DWORD PTR $T93368[esp+24], eax
  00028	33 f6		 xor	 esi, esi
  0002a	3b c6		 cmp	 eax, esi
  0002c	89 74 24 14	 mov	 DWORD PTR __$EHRec$[esp+32], esi
  00030	74 09		 je	 SHORT $L93370
  00032	8b c8		 mov	 ecx, eax
  00034	e8 00 00 00 00	 call	 ??0CPacket@@QAE@XZ	; CPacket::CPacket
  00039	8b f0		 mov	 esi, eax
$L93370:

; 173  : 	pMsg->SetID(CT_PLATFORM_ACK)
; 174  : 		<< bMachineID
; 175  : 		<< dwCPU
; 176  : 		<< dwMEM
; 177  : 		<< fNET;

  0003b	8b 44 24 28	 mov	 eax, DWORD PTR _fNET$[esp+20]
  0003f	8b 4c 24 24	 mov	 ecx, DWORD PTR _dwMEM$[esp+20]
  00043	8b 54 24 20	 mov	 edx, DWORD PTR _dwCPU$[esp+20]
  00047	50		 push	 eax
  00048	8b 44 24 20	 mov	 eax, DWORD PTR _bMachineID$[esp+24]
  0004c	51		 push	 ecx
  0004d	52		 push	 edx
  0004e	50		 push	 eax
  0004f	68 35 60 00 00	 push	 24629			; 00006035H
  00054	8b ce		 mov	 ecx, esi
  00056	c7 44 24 28 ff
	ff ff ff	 mov	 DWORD PTR __$EHRec$[esp+52], -1
  0005e	e8 00 00 00 00	 call	 ?SetID@CPacket@@QAEAAV1@G@Z ; CPacket::SetID
  00063	8b c8		 mov	 ecx, eax
  00065	e8 00 00 00 00	 call	 ??6CPacket@@QAEAAV0@E@Z	; CPacket::operator<<
  0006a	8b c8		 mov	 ecx, eax
  0006c	e8 00 00 00 00	 call	 ??6CPacket@@QAEAAV0@K@Z	; CPacket::operator<<
  00071	8b c8		 mov	 ecx, eax
  00073	e8 00 00 00 00	 call	 ??6CPacket@@QAEAAV0@K@Z	; CPacket::operator<<
  00078	8b c8		 mov	 ecx, eax
  0007a	e8 00 00 00 00	 call	 ??6CPacket@@QAEAAV0@M@Z	; CPacket::operator<<

; 178  : 
; 179  : 	Say(pMsg);

  0007f	8b 17		 mov	 edx, DWORD PTR [edi]
  00081	56		 push	 esi
  00082	8b cf		 mov	 ecx, edi
  00084	ff 12		 call	 DWORD PTR [edx]

; 180  : }

  00086	8b 4c 24 0c	 mov	 ecx, DWORD PTR __$EHRec$[esp+24]
  0008a	5f		 pop	 edi
  0008b	5e		 pop	 esi
  0008c	64 89 0d 00 00
	00 00		 mov	 DWORD PTR fs:__except_list, ecx
  00093	83 c4 10	 add	 esp, 16			; 00000010H
  00096	c2 10 00	 ret	 16			; 00000010H
_TEXT	ENDS
;	COMDAT text$x
text$x	SEGMENT
$L93371:
  00000	8b 45 f0	 mov	 eax, DWORD PTR $T93368[ebp]
  00003	50		 push	 eax
  00004	e8 00 00 00 00	 call	 ??3@YAXPAX@Z		; operator delete
  00009	59		 pop	 ecx
  0000a	c3		 ret	 0
__ehhandler$?SendCT_PLATFORM_ACK@CTManager@@QAEXEKKM@Z:
  0000b	b8 00 00 00 00	 mov	 eax, OFFSET FLAT:$T93373
  00010	e9 00 00 00 00	 jmp	 ___CxxFrameHandler
text$x	ENDS
?SendCT_PLATFORM_ACK@CTManager@@QAEXEKKM@Z ENDP		; CTManager::SendCT_PLATFORM_ACK
PUBLIC	?SendCT_MONSPAWNFIND_ACK@CTManager@@QAEXPAVCPacket@@@Z ; CTManager::SendCT_MONSPAWNFIND_ACK
; Function compile flags: /Ogty
;	COMDAT ?SendCT_MONSPAWNFIND_ACK@CTManager@@QAEXPAVCPacket@@@Z
_TEXT	SEGMENT
_pMsg$ = 8						; size = 4
?SendCT_MONSPAWNFIND_ACK@CTManager@@QAEXPAVCPacket@@@Z PROC NEAR ; CTManager::SendCT_MONSPAWNFIND_ACK, COMDAT
; _this$ = ecx

; 184  : 	Say(pMsg);

  00000	8b 01		 mov	 eax, DWORD PTR [ecx]
  00002	ff 20		 jmp	 DWORD PTR [eax]
?SendCT_MONSPAWNFIND_ACK@CTManager@@QAEXPAVCPacket@@@Z ENDP ; CTManager::SendCT_MONSPAWNFIND_ACK
_TEXT	ENDS
PUBLIC	?SendCT_USERPROTECTED_ACK@CTManager@@QAEXE@Z	; CTManager::SendCT_USERPROTECTED_ACK
;	COMDAT xdata$x
xdata$x	SEGMENT
$T93393	DD	0ffffffffH
	DD	FLAT:$L93389
$T93391	DD	019930520H
	DD	01H
	DD	FLAT:$T93393
	DD	2 DUP(00H)
	DD	2 DUP(00H)
; Function compile flags: /Ogty
xdata$x	ENDS
;	COMDAT ?SendCT_USERPROTECTED_ACK@CTManager@@QAEXE@Z
_TEXT	SEGMENT
$T93386 = -16						; size = 4
__$EHRec$ = -12						; size = 12
_bRet$ = 8						; size = 1
?SendCT_USERPROTECTED_ACK@CTManager@@QAEXE@Z PROC NEAR	; CTManager::SendCT_USERPROTECTED_ACK, COMDAT
; _this$ = ecx

; 187  : {

  00000	6a ff		 push	 -1
  00002	68 00 00 00 00	 push	 __ehhandler$?SendCT_USERPROTECTED_ACK@CTManager@@QAEXE@Z
  00007	64 a1 00 00 00
	00		 mov	 eax, DWORD PTR fs:__except_list
  0000d	50		 push	 eax
  0000e	64 89 25 00 00
	00 00		 mov	 DWORD PTR fs:__except_list, esp
  00015	51		 push	 ecx
  00016	56		 push	 esi
  00017	57		 push	 edi

; 188  : 	CPacket * pMsg = new CPacket();

  00018	6a 1c		 push	 28			; 0000001cH
  0001a	8b f9		 mov	 edi, ecx
  0001c	e8 00 00 00 00	 call	 ??2@YAPAXI@Z		; operator new
  00021	83 c4 04	 add	 esp, 4
  00024	89 44 24 08	 mov	 DWORD PTR $T93386[esp+24], eax
  00028	33 f6		 xor	 esi, esi
  0002a	3b c6		 cmp	 eax, esi
  0002c	89 74 24 14	 mov	 DWORD PTR __$EHRec$[esp+32], esi
  00030	74 09		 je	 SHORT $L93388
  00032	8b c8		 mov	 ecx, eax
  00034	e8 00 00 00 00	 call	 ??0CPacket@@QAE@XZ	; CPacket::CPacket
  00039	8b f0		 mov	 esi, eax
$L93388:

; 189  : 	pMsg->SetID(CT_USERPROTECTED_ACK)
; 190  : 		<< bRet;

  0003b	8b 44 24 1c	 mov	 eax, DWORD PTR _bRet$[esp+20]
  0003f	50		 push	 eax
  00040	68 3b 60 00 00	 push	 24635			; 0000603bH
  00045	8b ce		 mov	 ecx, esi
  00047	c7 44 24 1c ff
	ff ff ff	 mov	 DWORD PTR __$EHRec$[esp+40], -1
  0004f	e8 00 00 00 00	 call	 ?SetID@CPacket@@QAEAAV1@G@Z ; CPacket::SetID
  00054	8b c8		 mov	 ecx, eax
  00056	e8 00 00 00 00	 call	 ??6CPacket@@QAEAAV0@E@Z	; CPacket::operator<<

; 191  : 
; 192  : 	Say(pMsg);

  0005b	8b 17		 mov	 edx, DWORD PTR [edi]
  0005d	56		 push	 esi
  0005e	8b cf		 mov	 ecx, edi
  00060	ff 12		 call	 DWORD PTR [edx]

; 193  : }

  00062	8b 4c 24 0c	 mov	 ecx, DWORD PTR __$EHRec$[esp+24]
  00066	5f		 pop	 edi
  00067	5e		 pop	 esi
  00068	64 89 0d 00 00
	00 00		 mov	 DWORD PTR fs:__except_list, ecx
  0006f	83 c4 10	 add	 esp, 16			; 00000010H
  00072	c2 04 00	 ret	 4
_TEXT	ENDS
;	COMDAT text$x
text$x	SEGMENT
$L93389:
  00000	8b 45 f0	 mov	 eax, DWORD PTR $T93386[ebp]
  00003	50		 push	 eax
  00004	e8 00 00 00 00	 call	 ??3@YAXPAX@Z		; operator delete
  00009	59		 pop	 ecx
  0000a	c3		 ret	 0
__ehhandler$?SendCT_USERPROTECTED_ACK@CTManager@@QAEXE@Z:
  0000b	b8 00 00 00 00	 mov	 eax, OFFSET FLAT:$T93391
  00010	e9 00 00 00 00	 jmp	 ___CxxFrameHandler
text$x	ENDS
?SendCT_USERPROTECTED_ACK@CTManager@@QAEXE@Z ENDP	; CTManager::SendCT_USERPROTECTED_ACK
PUBLIC	?SendCT_SERVICEAUTOSTART_ACK@CTManager@@QAEXE@Z	; CTManager::SendCT_SERVICEAUTOSTART_ACK
;	COMDAT xdata$x
xdata$x	SEGMENT
$T93407	DD	0ffffffffH
	DD	FLAT:$L93403
$T93405	DD	019930520H
	DD	01H
	DD	FLAT:$T93407
	DD	2 DUP(00H)
	DD	2 DUP(00H)
; Function compile flags: /Ogty
xdata$x	ENDS
;	COMDAT ?SendCT_SERVICEAUTOSTART_ACK@CTManager@@QAEXE@Z
_TEXT	SEGMENT
$T93400 = -16						; size = 4
__$EHRec$ = -12						; size = 12
__bAutoStart$ = 8					; size = 1
?SendCT_SERVICEAUTOSTART_ACK@CTManager@@QAEXE@Z PROC NEAR ; CTManager::SendCT_SERVICEAUTOSTART_ACK, COMDAT
; _this$ = ecx

; 198  : {

  00000	6a ff		 push	 -1
  00002	68 00 00 00 00	 push	 __ehhandler$?SendCT_SERVICEAUTOSTART_ACK@CTManager@@QAEXE@Z
  00007	64 a1 00 00 00
	00		 mov	 eax, DWORD PTR fs:__except_list
  0000d	50		 push	 eax
  0000e	64 89 25 00 00
	00 00		 mov	 DWORD PTR fs:__except_list, esp
  00015	51		 push	 ecx
  00016	56		 push	 esi
  00017	57		 push	 edi

; 199  : 	CPacket * pMsg = new CPacket();

  00018	6a 1c		 push	 28			; 0000001cH
  0001a	8b f9		 mov	 edi, ecx
  0001c	e8 00 00 00 00	 call	 ??2@YAPAXI@Z		; operator new
  00021	83 c4 04	 add	 esp, 4
  00024	89 44 24 08	 mov	 DWORD PTR $T93400[esp+24], eax
  00028	33 f6		 xor	 esi, esi
  0002a	3b c6		 cmp	 eax, esi
  0002c	89 74 24 14	 mov	 DWORD PTR __$EHRec$[esp+32], esi
  00030	74 09		 je	 SHORT $L93402
  00032	8b c8		 mov	 ecx, eax
  00034	e8 00 00 00 00	 call	 ??0CPacket@@QAE@XZ	; CPacket::CPacket
  00039	8b f0		 mov	 esi, eax
$L93402:

; 200  : 	pMsg->SetID(CT_SERVICEAUTOSTART_ACK)
; 201  : 		<< _bAutoStart;

  0003b	8b 44 24 1c	 mov	 eax, DWORD PTR __bAutoStart$[esp+20]
  0003f	50		 push	 eax
  00040	68 4b 60 00 00	 push	 24651			; 0000604bH
  00045	8b ce		 mov	 ecx, esi
  00047	c7 44 24 1c ff
	ff ff ff	 mov	 DWORD PTR __$EHRec$[esp+40], -1
  0004f	e8 00 00 00 00	 call	 ?SetID@CPacket@@QAEAAV1@G@Z ; CPacket::SetID
  00054	8b c8		 mov	 ecx, eax
  00056	e8 00 00 00 00	 call	 ??6CPacket@@QAEAAV0@E@Z	; CPacket::operator<<

; 202  : 
; 203  : 	Say(pMsg);

  0005b	8b 17		 mov	 edx, DWORD PTR [edi]
  0005d	56		 push	 esi
  0005e	8b cf		 mov	 ecx, edi
  00060	ff 12		 call	 DWORD PTR [edx]

; 204  : }

  00062	8b 4c 24 0c	 mov	 ecx, DWORD PTR __$EHRec$[esp+24]
  00066	5f		 pop	 edi
  00067	5e		 pop	 esi
  00068	64 89 0d 00 00
	00 00		 mov	 DWORD PTR fs:__except_list, ecx
  0006f	83 c4 10	 add	 esp, 16			; 00000010H
  00072	c2 04 00	 ret	 4
_TEXT	ENDS
;	COMDAT text$x
text$x	SEGMENT
$L93403:
  00000	8b 45 f0	 mov	 eax, DWORD PTR $T93400[ebp]
  00003	50		 push	 eax
  00004	e8 00 00 00 00	 call	 ??3@YAXPAX@Z		; operator delete
  00009	59		 pop	 ecx
  0000a	c3		 ret	 0
__ehhandler$?SendCT_SERVICEAUTOSTART_ACK@CTManager@@QAEXE@Z:
  0000b	b8 00 00 00 00	 mov	 eax, OFFSET FLAT:$T93405
  00010	e9 00 00 00 00	 jmp	 ___CxxFrameHandler
text$x	ENDS
?SendCT_SERVICEAUTOSTART_ACK@CTManager@@QAEXE@Z ENDP	; CTManager::SendCT_SERVICEAUTOSTART_ACK
PUBLIC	?SendCT_CHATBAN_ACK@CTManager@@QAEXE@Z		; CTManager::SendCT_CHATBAN_ACK
;	COMDAT xdata$x
xdata$x	SEGMENT
$T93421	DD	0ffffffffH
	DD	FLAT:$L93417
$T93419	DD	019930520H
	DD	01H
	DD	FLAT:$T93421
	DD	2 DUP(00H)
	DD	2 DUP(00H)
; Function compile flags: /Ogty
xdata$x	ENDS
;	COMDAT ?SendCT_CHATBAN_ACK@CTManager@@QAEXE@Z
_TEXT	SEGMENT
$T93414 = -16						; size = 4
__$EHRec$ = -12						; size = 12
__bRet$ = 8						; size = 1
?SendCT_CHATBAN_ACK@CTManager@@QAEXE@Z PROC NEAR	; CTManager::SendCT_CHATBAN_ACK, COMDAT
; _this$ = ecx

; 207  : {

  00000	6a ff		 push	 -1
  00002	68 00 00 00 00	 push	 __ehhandler$?SendCT_CHATBAN_ACK@CTManager@@QAEXE@Z
  00007	64 a1 00 00 00
	00		 mov	 eax, DWORD PTR fs:__except_list
  0000d	50		 push	 eax
  0000e	64 89 25 00 00
	00 00		 mov	 DWORD PTR fs:__except_list, esp
  00015	51		 push	 ecx
  00016	56		 push	 esi
  00017	57		 push	 edi

; 208  : 	CPacket* pMsg = new CPacket();

  00018	6a 1c		 push	 28			; 0000001cH
  0001a	8b f9		 mov	 edi, ecx
  0001c	e8 00 00 00 00	 call	 ??2@YAPAXI@Z		; operator new
  00021	83 c4 04	 add	 esp, 4
  00024	89 44 24 08	 mov	 DWORD PTR $T93414[esp+24], eax
  00028	33 f6		 xor	 esi, esi
  0002a	3b c6		 cmp	 eax, esi
  0002c	89 74 24 14	 mov	 DWORD PTR __$EHRec$[esp+32], esi
  00030	74 09		 je	 SHORT $L93416
  00032	8b c8		 mov	 ecx, eax
  00034	e8 00 00 00 00	 call	 ??0CPacket@@QAE@XZ	; CPacket::CPacket
  00039	8b f0		 mov	 esi, eax
$L93416:

; 209  : 	pMsg->SetID(CT_CHATBAN_ACK)
; 210  : 		<< _bRet;

  0003b	8b 44 24 1c	 mov	 eax, DWORD PTR __bRet$[esp+20]
  0003f	50		 push	 eax
  00040	68 4d 60 00 00	 push	 24653			; 0000604dH
  00045	8b ce		 mov	 ecx, esi
  00047	c7 44 24 1c ff
	ff ff ff	 mov	 DWORD PTR __$EHRec$[esp+40], -1
  0004f	e8 00 00 00 00	 call	 ?SetID@CPacket@@QAEAAV1@G@Z ; CPacket::SetID
  00054	8b c8		 mov	 ecx, eax
  00056	e8 00 00 00 00	 call	 ??6CPacket@@QAEAAV0@E@Z	; CPacket::operator<<

; 211  : 
; 212  : 	Say(pMsg);

  0005b	8b 17		 mov	 edx, DWORD PTR [edi]
  0005d	56		 push	 esi
  0005e	8b cf		 mov	 ecx, edi
  00060	ff 12		 call	 DWORD PTR [edx]

; 213  : }

  00062	8b 4c 24 0c	 mov	 ecx, DWORD PTR __$EHRec$[esp+24]
  00066	5f		 pop	 edi
  00067	5e		 pop	 esi
  00068	64 89 0d 00 00
	00 00		 mov	 DWORD PTR fs:__except_list, ecx
  0006f	83 c4 10	 add	 esp, 16			; 00000010H
  00072	c2 04 00	 ret	 4
_TEXT	ENDS
;	COMDAT text$x
text$x	SEGMENT
$L93417:
  00000	8b 45 f0	 mov	 eax, DWORD PTR $T93414[ebp]
  00003	50		 push	 eax
  00004	e8 00 00 00 00	 call	 ??3@YAXPAX@Z		; operator delete
  00009	59		 pop	 ecx
  0000a	c3		 ret	 0
__ehhandler$?SendCT_CHATBAN_ACK@CTManager@@QAEXE@Z:
  0000b	b8 00 00 00 00	 mov	 eax, OFFSET FLAT:$T93419
  00010	e9 00 00 00 00	 jmp	 ___CxxFrameHandler
text$x	ENDS
?SendCT_CHATBAN_ACK@CTManager@@QAEXE@Z ENDP		; CTManager::SendCT_CHATBAN_ACK
PUBLIC	?SendCT_ITEMFIND_ACK@CTManager@@QAEXPAVCPacket@@@Z ; CTManager::SendCT_ITEMFIND_ACK
; Function compile flags: /Ogty
;	COMDAT ?SendCT_ITEMFIND_ACK@CTManager@@QAEXPAVCPacket@@@Z
_TEXT	SEGMENT
_pPacket$ = 8						; size = 4
?SendCT_ITEMFIND_ACK@CTManager@@QAEXPAVCPacket@@@Z PROC NEAR ; CTManager::SendCT_ITEMFIND_ACK, COMDAT
; _this$ = ecx

; 217  : 	//CPacket* pMsg = new CPacket();
; 218  : 	//pMsg->Copy(pPacket);
; 219  : 	//Say(pMsg);
; 220  : 
; 221  : 	Say(pPacket);

  00000	8b 01		 mov	 eax, DWORD PTR [ecx]
  00002	ff 20		 jmp	 DWORD PTR [eax]
?SendCT_ITEMFIND_ACK@CTManager@@QAEXPAVCPacket@@@Z ENDP	; CTManager::SendCT_ITEMFIND_ACK
_TEXT	ENDS
PUBLIC	?SendCT_ITEMSTATE_ACK@CTManager@@QAEXPAVCPacket@@@Z ; CTManager::SendCT_ITEMSTATE_ACK
EXTRN	?Copy@CPacket@@QAEXPAV1@@Z:NEAR			; CPacket::Copy
;	COMDAT xdata$x
xdata$x	SEGMENT
$T93438	DD	0ffffffffH
	DD	FLAT:$L93434
$T93436	DD	019930520H
	DD	01H
	DD	FLAT:$T93438
	DD	2 DUP(00H)
	DD	2 DUP(00H)
; Function compile flags: /Ogty
xdata$x	ENDS
;	COMDAT ?SendCT_ITEMSTATE_ACK@CTManager@@QAEXPAVCPacket@@@Z
_TEXT	SEGMENT
$T93431 = -16						; size = 4
__$EHRec$ = -12						; size = 12
_pPacket$ = 8						; size = 4
?SendCT_ITEMSTATE_ACK@CTManager@@QAEXPAVCPacket@@@Z PROC NEAR ; CTManager::SendCT_ITEMSTATE_ACK, COMDAT
; _this$ = ecx

; 225  : {

  00000	6a ff		 push	 -1
  00002	68 00 00 00 00	 push	 __ehhandler$?SendCT_ITEMSTATE_ACK@CTManager@@QAEXPAVCPacket@@@Z
  00007	64 a1 00 00 00
	00		 mov	 eax, DWORD PTR fs:__except_list
  0000d	50		 push	 eax
  0000e	64 89 25 00 00
	00 00		 mov	 DWORD PTR fs:__except_list, esp
  00015	51		 push	 ecx
  00016	56		 push	 esi
  00017	57		 push	 edi

; 226  : 	CPacket* pMsg = new CPacket();

  00018	6a 1c		 push	 28			; 0000001cH
  0001a	8b f9		 mov	 edi, ecx
  0001c	e8 00 00 00 00	 call	 ??2@YAPAXI@Z		; operator new
  00021	83 c4 04	 add	 esp, 4
  00024	89 44 24 08	 mov	 DWORD PTR $T93431[esp+24], eax
  00028	33 f6		 xor	 esi, esi
  0002a	3b c6		 cmp	 eax, esi
  0002c	89 74 24 14	 mov	 DWORD PTR __$EHRec$[esp+32], esi
  00030	74 09		 je	 SHORT $L93433
  00032	8b c8		 mov	 ecx, eax
  00034	e8 00 00 00 00	 call	 ??0CPacket@@QAE@XZ	; CPacket::CPacket
  00039	8b f0		 mov	 esi, eax
$L93433:

; 227  : 	pMsg->Copy(pPacket);

  0003b	8b 44 24 1c	 mov	 eax, DWORD PTR _pPacket$[esp+20]
  0003f	50		 push	 eax
  00040	8b ce		 mov	 ecx, esi
  00042	c7 44 24 18 ff
	ff ff ff	 mov	 DWORD PTR __$EHRec$[esp+36], -1
  0004a	e8 00 00 00 00	 call	 ?Copy@CPacket@@QAEXPAV1@@Z ; CPacket::Copy

; 228  : 	pMsg->SetID(CT_ITEMSTATE_ACK);

  0004f	68 53 60 00 00	 push	 24659			; 00006053H
  00054	8b ce		 mov	 ecx, esi
  00056	e8 00 00 00 00	 call	 ?SetID@CPacket@@QAEAAV1@G@Z ; CPacket::SetID

; 229  : 		
; 230  : 	Say(pMsg);

  0005b	8b 17		 mov	 edx, DWORD PTR [edi]
  0005d	56		 push	 esi
  0005e	8b cf		 mov	 ecx, edi
  00060	ff 12		 call	 DWORD PTR [edx]

; 231  : }

  00062	8b 4c 24 0c	 mov	 ecx, DWORD PTR __$EHRec$[esp+24]
  00066	5f		 pop	 edi
  00067	5e		 pop	 esi
  00068	64 89 0d 00 00
	00 00		 mov	 DWORD PTR fs:__except_list, ecx
  0006f	83 c4 10	 add	 esp, 16			; 00000010H
  00072	c2 04 00	 ret	 4
_TEXT	ENDS
;	COMDAT text$x
text$x	SEGMENT
$L93434:
  00000	8b 45 f0	 mov	 eax, DWORD PTR $T93431[ebp]
  00003	50		 push	 eax
  00004	e8 00 00 00 00	 call	 ??3@YAXPAX@Z		; operator delete
  00009	59		 pop	 ecx
  0000a	c3		 ret	 0
__ehhandler$?SendCT_ITEMSTATE_ACK@CTManager@@QAEXPAVCPacket@@@Z:
  0000b	b8 00 00 00 00	 mov	 eax, OFFSET FLAT:$T93436
  00010	e9 00 00 00 00	 jmp	 ___CxxFrameHandler
text$x	ENDS
?SendCT_ITEMSTATE_ACK@CTManager@@QAEXPAVCPacket@@@Z ENDP ; CTManager::SendCT_ITEMSTATE_ACK
PUBLIC	?SendCT_CASTLEINFO_ACK@CTManager@@QAEXPAVCPacket@@@Z ; CTManager::SendCT_CASTLEINFO_ACK
;	COMDAT xdata$x
xdata$x	SEGMENT
$T93452	DD	0ffffffffH
	DD	FLAT:$L93448
$T93450	DD	019930520H
	DD	01H
	DD	FLAT:$T93452
	DD	2 DUP(00H)
	DD	2 DUP(00H)
; Function compile flags: /Ogty
xdata$x	ENDS
;	COMDAT ?SendCT_CASTLEINFO_ACK@CTManager@@QAEXPAVCPacket@@@Z
_TEXT	SEGMENT
$T93445 = -16						; size = 4
__$EHRec$ = -12						; size = 12
_pPacket$ = 8						; size = 4
?SendCT_CASTLEINFO_ACK@CTManager@@QAEXPAVCPacket@@@Z PROC NEAR ; CTManager::SendCT_CASTLEINFO_ACK, COMDAT
; _this$ = ecx

; 255  : {

  00000	6a ff		 push	 -1
  00002	68 00 00 00 00	 push	 __ehhandler$?SendCT_CASTLEINFO_ACK@CTManager@@QAEXPAVCPacket@@@Z
  00007	64 a1 00 00 00
	00		 mov	 eax, DWORD PTR fs:__except_list
  0000d	50		 push	 eax
  0000e	64 89 25 00 00
	00 00		 mov	 DWORD PTR fs:__except_list, esp
  00015	51		 push	 ecx
  00016	56		 push	 esi
  00017	57		 push	 edi

; 256  : 	CPacket* pMsg = new CPacket();

  00018	6a 1c		 push	 28			; 0000001cH
  0001a	8b f9		 mov	 edi, ecx
  0001c	e8 00 00 00 00	 call	 ??2@YAPAXI@Z		; operator new
  00021	83 c4 04	 add	 esp, 4
  00024	89 44 24 08	 mov	 DWORD PTR $T93445[esp+24], eax
  00028	33 f6		 xor	 esi, esi
  0002a	3b c6		 cmp	 eax, esi
  0002c	89 74 24 14	 mov	 DWORD PTR __$EHRec$[esp+32], esi
  00030	74 09		 je	 SHORT $L93447
  00032	8b c8		 mov	 ecx, eax
  00034	e8 00 00 00 00	 call	 ??0CPacket@@QAE@XZ	; CPacket::CPacket
  00039	8b f0		 mov	 esi, eax
$L93447:

; 257  : 	pMsg->Copy(pPacket);

  0003b	8b 44 24 1c	 mov	 eax, DWORD PTR _pPacket$[esp+20]
  0003f	50		 push	 eax
  00040	8b ce		 mov	 ecx, esi
  00042	c7 44 24 18 ff
	ff ff ff	 mov	 DWORD PTR __$EHRec$[esp+36], -1
  0004a	e8 00 00 00 00	 call	 ?Copy@CPacket@@QAEXPAV1@@Z ; CPacket::Copy

; 258  : 	pMsg->SetID(CT_CASTLEINFO_ACK);

  0004f	68 5a 60 00 00	 push	 24666			; 0000605aH
  00054	8b ce		 mov	 ecx, esi
  00056	e8 00 00 00 00	 call	 ?SetID@CPacket@@QAEAAV1@G@Z ; CPacket::SetID

; 259  : 
; 260  : 	Say(pMsg);

  0005b	8b 17		 mov	 edx, DWORD PTR [edi]
  0005d	56		 push	 esi
  0005e	8b cf		 mov	 ecx, edi
  00060	ff 12		 call	 DWORD PTR [edx]

; 261  : }

  00062	8b 4c 24 0c	 mov	 ecx, DWORD PTR __$EHRec$[esp+24]
  00066	5f		 pop	 edi
  00067	5e		 pop	 esi
  00068	64 89 0d 00 00
	00 00		 mov	 DWORD PTR fs:__except_list, ecx
  0006f	83 c4 10	 add	 esp, 16			; 00000010H
  00072	c2 04 00	 ret	 4
_TEXT	ENDS
;	COMDAT text$x
text$x	SEGMENT
$L93448:
  00000	8b 45 f0	 mov	 eax, DWORD PTR $T93445[ebp]
  00003	50		 push	 eax
  00004	e8 00 00 00 00	 call	 ??3@YAXPAX@Z		; operator delete
  00009	59		 pop	 ecx
  0000a	c3		 ret	 0
__ehhandler$?SendCT_CASTLEINFO_ACK@CTManager@@QAEXPAVCPacket@@@Z:
  0000b	b8 00 00 00 00	 mov	 eax, OFFSET FLAT:$T93450
  00010	e9 00 00 00 00	 jmp	 ___CxxFrameHandler
text$x	ENDS
?SendCT_CASTLEINFO_ACK@CTManager@@QAEXPAVCPacket@@@Z ENDP ; CTManager::SendCT_CASTLEINFO_ACK
PUBLIC	?SendCT_CASTLEGUILDCHG_ACK@CTManager@@QAEXPAVCPacket@@@Z ; CTManager::SendCT_CASTLEGUILDCHG_ACK
;	COMDAT xdata$x
xdata$x	SEGMENT
$T93466	DD	0ffffffffH
	DD	FLAT:$L93462
$T93464	DD	019930520H
	DD	01H
	DD	FLAT:$T93466
	DD	2 DUP(00H)
	DD	2 DUP(00H)
; Function compile flags: /Ogty
xdata$x	ENDS
;	COMDAT ?SendCT_CASTLEGUILDCHG_ACK@CTManager@@QAEXPAVCPacket@@@Z
_TEXT	SEGMENT
$T93459 = -16						; size = 4
__$EHRec$ = -12						; size = 12
_pPacket$ = 8						; size = 4
?SendCT_CASTLEGUILDCHG_ACK@CTManager@@QAEXPAVCPacket@@@Z PROC NEAR ; CTManager::SendCT_CASTLEGUILDCHG_ACK, COMDAT
; _this$ = ecx

; 264  : {

  00000	6a ff		 push	 -1
  00002	68 00 00 00 00	 push	 __ehhandler$?SendCT_CASTLEGUILDCHG_ACK@CTManager@@QAEXPAVCPacket@@@Z
  00007	64 a1 00 00 00
	00		 mov	 eax, DWORD PTR fs:__except_list
  0000d	50		 push	 eax
  0000e	64 89 25 00 00
	00 00		 mov	 DWORD PTR fs:__except_list, esp
  00015	51		 push	 ecx
  00016	56		 push	 esi
  00017	57		 push	 edi

; 265  : 	CPacket* pMsg = new CPacket();

  00018	6a 1c		 push	 28			; 0000001cH
  0001a	8b f9		 mov	 edi, ecx
  0001c	e8 00 00 00 00	 call	 ??2@YAPAXI@Z		; operator new
  00021	83 c4 04	 add	 esp, 4
  00024	89 44 24 08	 mov	 DWORD PTR $T93459[esp+24], eax
  00028	33 f6		 xor	 esi, esi
  0002a	3b c6		 cmp	 eax, esi
  0002c	89 74 24 14	 mov	 DWORD PTR __$EHRec$[esp+32], esi
  00030	74 09		 je	 SHORT $L93461
  00032	8b c8		 mov	 ecx, eax
  00034	e8 00 00 00 00	 call	 ??0CPacket@@QAE@XZ	; CPacket::CPacket
  00039	8b f0		 mov	 esi, eax
$L93461:

; 266  : 	pMsg->Copy(pPacket);

  0003b	8b 44 24 1c	 mov	 eax, DWORD PTR _pPacket$[esp+20]
  0003f	50		 push	 eax
  00040	8b ce		 mov	 ecx, esi
  00042	c7 44 24 18 ff
	ff ff ff	 mov	 DWORD PTR __$EHRec$[esp+36], -1
  0004a	e8 00 00 00 00	 call	 ?Copy@CPacket@@QAEXPAV1@@Z ; CPacket::Copy

; 267  : 	pMsg->SetID(CT_CASTLEGUILDCHG_ACK);		

  0004f	68 5c 60 00 00	 push	 24668			; 0000605cH
  00054	8b ce		 mov	 ecx, esi
  00056	e8 00 00 00 00	 call	 ?SetID@CPacket@@QAEAAV1@G@Z ; CPacket::SetID

; 268  : 
; 269  : 	Say(pMsg);

  0005b	8b 17		 mov	 edx, DWORD PTR [edi]
  0005d	56		 push	 esi
  0005e	8b cf		 mov	 ecx, edi
  00060	ff 12		 call	 DWORD PTR [edx]

; 270  : }

  00062	8b 4c 24 0c	 mov	 ecx, DWORD PTR __$EHRec$[esp+24]
  00066	5f		 pop	 edi
  00067	5e		 pop	 esi
  00068	64 89 0d 00 00
	00 00		 mov	 DWORD PTR fs:__except_list, ecx
  0006f	83 c4 10	 add	 esp, 16			; 00000010H
  00072	c2 04 00	 ret	 4
_TEXT	ENDS
;	COMDAT text$x
text$x	SEGMENT
$L93462:
  00000	8b 45 f0	 mov	 eax, DWORD PTR $T93459[ebp]
  00003	50		 push	 eax
  00004	e8 00 00 00 00	 call	 ??3@YAXPAX@Z		; operator delete
  00009	59		 pop	 ecx
  0000a	c3		 ret	 0
__ehhandler$?SendCT_CASTLEGUILDCHG_ACK@CTManager@@QAEXPAVCPacket@@@Z:
  0000b	b8 00 00 00 00	 mov	 eax, OFFSET FLAT:$T93464
  00010	e9 00 00 00 00	 jmp	 ___CxxFrameHandler
text$x	ENDS
?SendCT_CASTLEGUILDCHG_ACK@CTManager@@QAEXPAVCPacket@@@Z ENDP ; CTManager::SendCT_CASTLEGUILDCHG_ACK
PUBLIC	?SendCT_EVENTQUARTERLIST_ACK@CTManager@@QAEXPAVCPacket@@@Z ; CTManager::SendCT_EVENTQUARTERLIST_ACK
;	COMDAT xdata$x
xdata$x	SEGMENT
$T93480	DD	0ffffffffH
	DD	FLAT:$L93476
$T93478	DD	019930520H
	DD	01H
	DD	FLAT:$T93480
	DD	2 DUP(00H)
	DD	2 DUP(00H)
; Function compile flags: /Ogty
xdata$x	ENDS
;	COMDAT ?SendCT_EVENTQUARTERLIST_ACK@CTManager@@QAEXPAVCPacket@@@Z
_TEXT	SEGMENT
$T93473 = -16						; size = 4
__$EHRec$ = -12						; size = 12
_pPacket$ = 8						; size = 4
?SendCT_EVENTQUARTERLIST_ACK@CTManager@@QAEXPAVCPacket@@@Z PROC NEAR ; CTManager::SendCT_EVENTQUARTERLIST_ACK, COMDAT
; _this$ = ecx

; 314  : {

  00000	6a ff		 push	 -1
  00002	68 00 00 00 00	 push	 __ehhandler$?SendCT_EVENTQUARTERLIST_ACK@CTManager@@QAEXPAVCPacket@@@Z
  00007	64 a1 00 00 00
	00		 mov	 eax, DWORD PTR fs:__except_list
  0000d	50		 push	 eax
  0000e	64 89 25 00 00
	00 00		 mov	 DWORD PTR fs:__except_list, esp
  00015	51		 push	 ecx
  00016	56		 push	 esi
  00017	57		 push	 edi

; 315  : 	CPacket* pMsg = new CPacket();

  00018	6a 1c		 push	 28			; 0000001cH
  0001a	8b f9		 mov	 edi, ecx
  0001c	e8 00 00 00 00	 call	 ??2@YAPAXI@Z		; operator new
  00021	83 c4 04	 add	 esp, 4
  00024	89 44 24 08	 mov	 DWORD PTR $T93473[esp+24], eax
  00028	33 f6		 xor	 esi, esi
  0002a	3b c6		 cmp	 eax, esi
  0002c	89 74 24 14	 mov	 DWORD PTR __$EHRec$[esp+32], esi
  00030	74 09		 je	 SHORT $L93475
  00032	8b c8		 mov	 ecx, eax
  00034	e8 00 00 00 00	 call	 ??0CPacket@@QAE@XZ	; CPacket::CPacket
  00039	8b f0		 mov	 esi, eax
$L93475:

; 316  : 	pMsg->Copy(pPacket);

  0003b	8b 44 24 1c	 mov	 eax, DWORD PTR _pPacket$[esp+20]
  0003f	50		 push	 eax
  00040	8b ce		 mov	 ecx, esi
  00042	c7 44 24 18 ff
	ff ff ff	 mov	 DWORD PTR __$EHRec$[esp+36], -1
  0004a	e8 00 00 00 00	 call	 ?Copy@CPacket@@QAEXPAV1@@Z ; CPacket::Copy

; 317  : 	pMsg->SetID(CT_EVENTQUARTERLIST_ACK);

  0004f	68 70 60 00 00	 push	 24688			; 00006070H
  00054	8b ce		 mov	 ecx, esi
  00056	e8 00 00 00 00	 call	 ?SetID@CPacket@@QAEAAV1@G@Z ; CPacket::SetID

; 318  : 
; 319  : 	Say(pMsg);

  0005b	8b 17		 mov	 edx, DWORD PTR [edi]
  0005d	56		 push	 esi
  0005e	8b cf		 mov	 ecx, edi
  00060	ff 12		 call	 DWORD PTR [edx]

; 320  : }

  00062	8b 4c 24 0c	 mov	 ecx, DWORD PTR __$EHRec$[esp+24]
  00066	5f		 pop	 edi
  00067	5e		 pop	 esi
  00068	64 89 0d 00 00
	00 00		 mov	 DWORD PTR fs:__except_list, ecx
  0006f	83 c4 10	 add	 esp, 16			; 00000010H
  00072	c2 04 00	 ret	 4
_TEXT	ENDS
;	COMDAT text$x
text$x	SEGMENT
$L93476:
  00000	8b 45 f0	 mov	 eax, DWORD PTR $T93473[ebp]
  00003	50		 push	 eax
  00004	e8 00 00 00 00	 call	 ??3@YAXPAX@Z		; operator delete
  00009	59		 pop	 ecx
  0000a	c3		 ret	 0
__ehhandler$?SendCT_EVENTQUARTERLIST_ACK@CTManager@@QAEXPAVCPacket@@@Z:
  0000b	b8 00 00 00 00	 mov	 eax, OFFSET FLAT:$T93478
  00010	e9 00 00 00 00	 jmp	 ___CxxFrameHandler
text$x	ENDS
?SendCT_EVENTQUARTERLIST_ACK@CTManager@@QAEXPAVCPacket@@@Z ENDP ; CTManager::SendCT_EVENTQUARTERLIST_ACK
PUBLIC	?SendCT_EVENTQUARTERUPDATE_ACK@CTManager@@QAEXPAVCPacket@@@Z ; CTManager::SendCT_EVENTQUARTERUPDATE_ACK
;	COMDAT xdata$x
xdata$x	SEGMENT
$T93494	DD	0ffffffffH
	DD	FLAT:$L93490
$T93492	DD	019930520H
	DD	01H
	DD	FLAT:$T93494
	DD	2 DUP(00H)
	DD	2 DUP(00H)
; Function compile flags: /Ogty
xdata$x	ENDS
;	COMDAT ?SendCT_EVENTQUARTERUPDATE_ACK@CTManager@@QAEXPAVCPacket@@@Z
_TEXT	SEGMENT
$T93487 = -16						; size = 4
__$EHRec$ = -12						; size = 12
_pPacket$ = 8						; size = 4
?SendCT_EVENTQUARTERUPDATE_ACK@CTManager@@QAEXPAVCPacket@@@Z PROC NEAR ; CTManager::SendCT_EVENTQUARTERUPDATE_ACK, COMDAT
; _this$ = ecx

; 323  : {

  00000	6a ff		 push	 -1
  00002	68 00 00 00 00	 push	 __ehhandler$?SendCT_EVENTQUARTERUPDATE_ACK@CTManager@@QAEXPAVCPacket@@@Z
  00007	64 a1 00 00 00
	00		 mov	 eax, DWORD PTR fs:__except_list
  0000d	50		 push	 eax
  0000e	64 89 25 00 00
	00 00		 mov	 DWORD PTR fs:__except_list, esp
  00015	51		 push	 ecx
  00016	56		 push	 esi
  00017	57		 push	 edi

; 324  : 	CPacket* pMsg = new CPacket();

  00018	6a 1c		 push	 28			; 0000001cH
  0001a	8b f9		 mov	 edi, ecx
  0001c	e8 00 00 00 00	 call	 ??2@YAPAXI@Z		; operator new
  00021	83 c4 04	 add	 esp, 4
  00024	89 44 24 08	 mov	 DWORD PTR $T93487[esp+24], eax
  00028	33 f6		 xor	 esi, esi
  0002a	3b c6		 cmp	 eax, esi
  0002c	89 74 24 14	 mov	 DWORD PTR __$EHRec$[esp+32], esi
  00030	74 09		 je	 SHORT $L93489
  00032	8b c8		 mov	 ecx, eax
  00034	e8 00 00 00 00	 call	 ??0CPacket@@QAE@XZ	; CPacket::CPacket
  00039	8b f0		 mov	 esi, eax
$L93489:

; 325  : 	pMsg->Copy(pPacket);

  0003b	8b 44 24 1c	 mov	 eax, DWORD PTR _pPacket$[esp+20]
  0003f	50		 push	 eax
  00040	8b ce		 mov	 ecx, esi
  00042	c7 44 24 18 ff
	ff ff ff	 mov	 DWORD PTR __$EHRec$[esp+36], -1
  0004a	e8 00 00 00 00	 call	 ?Copy@CPacket@@QAEXPAV1@@Z ; CPacket::Copy

; 326  : 	pMsg->SetID(CT_EVENTQUARTERUPDATE_ACK);

  0004f	68 6e 60 00 00	 push	 24686			; 0000606eH
  00054	8b ce		 mov	 ecx, esi
  00056	e8 00 00 00 00	 call	 ?SetID@CPacket@@QAEAAV1@G@Z ; CPacket::SetID

; 327  : 
; 328  : 	Say(pMsg);

  0005b	8b 17		 mov	 edx, DWORD PTR [edi]
  0005d	56		 push	 esi
  0005e	8b cf		 mov	 ecx, edi
  00060	ff 12		 call	 DWORD PTR [edx]

; 329  : }

  00062	8b 4c 24 0c	 mov	 ecx, DWORD PTR __$EHRec$[esp+24]
  00066	5f		 pop	 edi
  00067	5e		 pop	 esi
  00068	64 89 0d 00 00
	00 00		 mov	 DWORD PTR fs:__except_list, ecx
  0006f	83 c4 10	 add	 esp, 16			; 00000010H
  00072	c2 04 00	 ret	 4
_TEXT	ENDS
;	COMDAT text$x
text$x	SEGMENT
$L93490:
  00000	8b 45 f0	 mov	 eax, DWORD PTR $T93487[ebp]
  00003	50		 push	 eax
  00004	e8 00 00 00 00	 call	 ??3@YAXPAX@Z		; operator delete
  00009	59		 pop	 ecx
  0000a	c3		 ret	 0
__ehhandler$?SendCT_EVENTQUARTERUPDATE_ACK@CTManager@@QAEXPAVCPacket@@@Z:
  0000b	b8 00 00 00 00	 mov	 eax, OFFSET FLAT:$T93492
  00010	e9 00 00 00 00	 jmp	 ___CxxFrameHandler
text$x	ENDS
?SendCT_EVENTQUARTERUPDATE_ACK@CTManager@@QAEXPAVCPacket@@@Z ENDP ; CTManager::SendCT_EVENTQUARTERUPDATE_ACK
PUBLIC	?SendCT_TOURNAMENTEVENT_ACK@CTManager@@QAEXPAVCPacket@@@Z ; CTManager::SendCT_TOURNAMENTEVENT_ACK
;	COMDAT xdata$x
xdata$x	SEGMENT
$T93508	DD	0ffffffffH
	DD	FLAT:$L93504
$T93506	DD	019930520H
	DD	01H
	DD	FLAT:$T93508
	DD	2 DUP(00H)
	DD	2 DUP(00H)
; Function compile flags: /Ogty
xdata$x	ENDS
;	COMDAT ?SendCT_TOURNAMENTEVENT_ACK@CTManager@@QAEXPAVCPacket@@@Z
_TEXT	SEGMENT
$T93501 = -16						; size = 4
__$EHRec$ = -12						; size = 12
_pPacket$ = 8						; size = 4
?SendCT_TOURNAMENTEVENT_ACK@CTManager@@QAEXPAVCPacket@@@Z PROC NEAR ; CTManager::SendCT_TOURNAMENTEVENT_ACK, COMDAT
; _this$ = ecx

; 332  : {

  00000	6a ff		 push	 -1
  00002	68 00 00 00 00	 push	 __ehhandler$?SendCT_TOURNAMENTEVENT_ACK@CTManager@@QAEXPAVCPacket@@@Z
  00007	64 a1 00 00 00
	00		 mov	 eax, DWORD PTR fs:__except_list
  0000d	50		 push	 eax
  0000e	64 89 25 00 00
	00 00		 mov	 DWORD PTR fs:__except_list, esp
  00015	51		 push	 ecx
  00016	56		 push	 esi
  00017	57		 push	 edi

; 333  : 	CPacket* pMsg = new CPacket();

  00018	6a 1c		 push	 28			; 0000001cH
  0001a	8b f9		 mov	 edi, ecx
  0001c	e8 00 00 00 00	 call	 ??2@YAPAXI@Z		; operator new
  00021	83 c4 04	 add	 esp, 4
  00024	89 44 24 08	 mov	 DWORD PTR $T93501[esp+24], eax
  00028	33 f6		 xor	 esi, esi
  0002a	3b c6		 cmp	 eax, esi
  0002c	89 74 24 14	 mov	 DWORD PTR __$EHRec$[esp+32], esi
  00030	74 09		 je	 SHORT $L93503
  00032	8b c8		 mov	 ecx, eax
  00034	e8 00 00 00 00	 call	 ??0CPacket@@QAE@XZ	; CPacket::CPacket
  00039	8b f0		 mov	 esi, eax
$L93503:

; 334  : 	pMsg->Copy(pPacket);

  0003b	8b 44 24 1c	 mov	 eax, DWORD PTR _pPacket$[esp+20]
  0003f	50		 push	 eax
  00040	8b ce		 mov	 ecx, esi
  00042	c7 44 24 18 ff
	ff ff ff	 mov	 DWORD PTR __$EHRec$[esp+36], -1
  0004a	e8 00 00 00 00	 call	 ?Copy@CPacket@@QAEXPAV1@@Z ; CPacket::Copy

; 335  : 	pMsg->SetID(CT_TOURNAMENTEVENT_ACK);

  0004f	68 72 60 00 00	 push	 24690			; 00006072H
  00054	8b ce		 mov	 ecx, esi
  00056	e8 00 00 00 00	 call	 ?SetID@CPacket@@QAEAAV1@G@Z ; CPacket::SetID

; 336  : 
; 337  : 	Say(pMsg);	

  0005b	8b 17		 mov	 edx, DWORD PTR [edi]
  0005d	56		 push	 esi
  0005e	8b cf		 mov	 ecx, edi
  00060	ff 12		 call	 DWORD PTR [edx]

; 338  : }

  00062	8b 4c 24 0c	 mov	 ecx, DWORD PTR __$EHRec$[esp+24]
  00066	5f		 pop	 edi
  00067	5e		 pop	 esi
  00068	64 89 0d 00 00
	00 00		 mov	 DWORD PTR fs:__except_list, ecx
  0006f	83 c4 10	 add	 esp, 16			; 00000010H
  00072	c2 04 00	 ret	 4
_TEXT	ENDS
;	COMDAT text$x
text$x	SEGMENT
$L93504:
  00000	8b 45 f0	 mov	 eax, DWORD PTR $T93501[ebp]
  00003	50		 push	 eax
  00004	e8 00 00 00 00	 call	 ??3@YAXPAX@Z		; operator delete
  00009	59		 pop	 ecx
  0000a	c3		 ret	 0
__ehhandler$?SendCT_TOURNAMENTEVENT_ACK@CTManager@@QAEXPAVCPacket@@@Z:
  0000b	b8 00 00 00 00	 mov	 eax, OFFSET FLAT:$T93506
  00010	e9 00 00 00 00	 jmp	 ___CxxFrameHandler
text$x	ENDS
?SendCT_TOURNAMENTEVENT_ACK@CTManager@@QAEXPAVCPacket@@@Z ENDP ; CTManager::SendCT_TOURNAMENTEVENT_ACK
PUBLIC	?SendCT_RPSGAMEDATA_ACK@CTManager@@QAEXPAVCPacket@@@Z ; CTManager::SendCT_RPSGAMEDATA_ACK
;	COMDAT xdata$x
xdata$x	SEGMENT
$T93522	DD	0ffffffffH
	DD	FLAT:$L93518
$T93520	DD	019930520H
	DD	01H
	DD	FLAT:$T93522
	DD	2 DUP(00H)
	DD	2 DUP(00H)
; Function compile flags: /Ogty
xdata$x	ENDS
;	COMDAT ?SendCT_RPSGAMEDATA_ACK@CTManager@@QAEXPAVCPacket@@@Z
_TEXT	SEGMENT
$T93515 = -16						; size = 4
__$EHRec$ = -12						; size = 12
_pPacket$ = 8						; size = 4
?SendCT_RPSGAMEDATA_ACK@CTManager@@QAEXPAVCPacket@@@Z PROC NEAR ; CTManager::SendCT_RPSGAMEDATA_ACK, COMDAT
; _this$ = ecx

; 340  : {

  00000	6a ff		 push	 -1
  00002	68 00 00 00 00	 push	 __ehhandler$?SendCT_RPSGAMEDATA_ACK@CTManager@@QAEXPAVCPacket@@@Z
  00007	64 a1 00 00 00
	00		 mov	 eax, DWORD PTR fs:__except_list
  0000d	50		 push	 eax
  0000e	64 89 25 00 00
	00 00		 mov	 DWORD PTR fs:__except_list, esp
  00015	51		 push	 ecx
  00016	56		 push	 esi
  00017	57		 push	 edi

; 341  : 	CPacket* pMsg = new CPacket();

  00018	6a 1c		 push	 28			; 0000001cH
  0001a	8b f9		 mov	 edi, ecx
  0001c	e8 00 00 00 00	 call	 ??2@YAPAXI@Z		; operator new
  00021	83 c4 04	 add	 esp, 4
  00024	89 44 24 08	 mov	 DWORD PTR $T93515[esp+24], eax
  00028	33 f6		 xor	 esi, esi
  0002a	3b c6		 cmp	 eax, esi
  0002c	89 74 24 14	 mov	 DWORD PTR __$EHRec$[esp+32], esi
  00030	74 09		 je	 SHORT $L93517
  00032	8b c8		 mov	 ecx, eax
  00034	e8 00 00 00 00	 call	 ??0CPacket@@QAE@XZ	; CPacket::CPacket
  00039	8b f0		 mov	 esi, eax
$L93517:

; 342  : 	pMsg->Copy(pPacket);

  0003b	8b 44 24 1c	 mov	 eax, DWORD PTR _pPacket$[esp+20]
  0003f	50		 push	 eax
  00040	8b ce		 mov	 ecx, esi
  00042	c7 44 24 18 ff
	ff ff ff	 mov	 DWORD PTR __$EHRec$[esp+36], -1
  0004a	e8 00 00 00 00	 call	 ?Copy@CPacket@@QAEXPAV1@@Z ; CPacket::Copy

; 343  : 	pMsg->SetID(CT_RPSGAMEDATA_ACK);

  0004f	68 75 60 00 00	 push	 24693			; 00006075H
  00054	8b ce		 mov	 ecx, esi
  00056	e8 00 00 00 00	 call	 ?SetID@CPacket@@QAEAAV1@G@Z ; CPacket::SetID

; 344  : 
; 345  : 	Say(pMsg);	

  0005b	8b 17		 mov	 edx, DWORD PTR [edi]
  0005d	56		 push	 esi
  0005e	8b cf		 mov	 ecx, edi
  00060	ff 12		 call	 DWORD PTR [edx]

; 346  : }

  00062	8b 4c 24 0c	 mov	 ecx, DWORD PTR __$EHRec$[esp+24]
  00066	5f		 pop	 edi
  00067	5e		 pop	 esi
  00068	64 89 0d 00 00
	00 00		 mov	 DWORD PTR fs:__except_list, ecx
  0006f	83 c4 10	 add	 esp, 16			; 00000010H
  00072	c2 04 00	 ret	 4
_TEXT	ENDS
;	COMDAT text$x
text$x	SEGMENT
$L93518:
  00000	8b 45 f0	 mov	 eax, DWORD PTR $T93515[ebp]
  00003	50		 push	 eax
  00004	e8 00 00 00 00	 call	 ??3@YAXPAX@Z		; operator delete
  00009	59		 pop	 ecx
  0000a	c3		 ret	 0
__ehhandler$?SendCT_RPSGAMEDATA_ACK@CTManager@@QAEXPAVCPacket@@@Z:
  0000b	b8 00 00 00 00	 mov	 eax, OFFSET FLAT:$T93520
  00010	e9 00 00 00 00	 jmp	 ___CxxFrameHandler
text$x	ENDS
?SendCT_RPSGAMEDATA_ACK@CTManager@@QAEXPAVCPacket@@@Z ENDP ; CTManager::SendCT_RPSGAMEDATA_ACK
PUBLIC	?size@?$_Tree@V?$_Tmap_traits@EPAUtagTSVRTYPE@@U?$less@E@std@@V?$allocator@U?$pair@$$CBEPAUtagTSVRTYPE@@@std@@@3@$0A@@std@@@std@@QBEIXZ ; std::_Tree<std::_Tmap_traits<unsigned char,tagTSVRTYPE *,std::less<unsigned char>,std::allocator<std::pair<unsigned char const ,tagTSVRTYPE *> >,0> >::size
; Function compile flags: /Ogty
; File c:\program files (x86)\microsoft visual studio .net 2003\vc7\include\xtree
;	COMDAT ?size@?$_Tree@V?$_Tmap_traits@EPAUtagTSVRTYPE@@U?$less@E@std@@V?$allocator@U?$pair@$$CBEPAUtagTSVRTYPE@@@std@@@3@$0A@@std@@@std@@QBEIXZ
_TEXT	SEGMENT
?size@?$_Tree@V?$_Tmap_traits@EPAUtagTSVRTYPE@@U?$less@E@std@@V?$allocator@U?$pair@$$CBEPAUtagTSVRTYPE@@@std@@@3@$0A@@std@@@std@@QBEIXZ PROC NEAR ; std::_Tree<std::_Tmap_traits<unsigned char,tagTSVRTYPE *,std::less<unsigned char>,std::allocator<std::pair<unsigned char const ,tagTSVRTYPE *> >,0> >::size, COMDAT
; _this$ = ecx

; 448  : 		return (_Mysize);

  00000	8b 41 08	 mov	 eax, DWORD PTR [ecx+8]

; 449  : 		}

  00003	c3		 ret	 0
?size@?$_Tree@V?$_Tmap_traits@EPAUtagTSVRTYPE@@U?$less@E@std@@V?$allocator@U?$pair@$$CBEPAUtagTSVRTYPE@@@std@@@3@$0A@@std@@@std@@QBEIXZ ENDP ; std::_Tree<std::_Tmap_traits<unsigned char,tagTSVRTYPE *,std::less<unsigned char>,std::allocator<std::pair<unsigned char const ,tagTSVRTYPE *> >,0> >::size
_TEXT	ENDS
PUBLIC	?size@?$_Tree@V?$_Tmap_traits@EPAUtagTMACHINE@@U?$less@E@std@@V?$allocator@U?$pair@$$CBEPAUtagTMACHINE@@@std@@@3@$0A@@std@@@std@@QBEIXZ ; std::_Tree<std::_Tmap_traits<unsigned char,tagTMACHINE *,std::less<unsigned char>,std::allocator<std::pair<unsigned char const ,tagTMACHINE *> >,0> >::size
; Function compile flags: /Ogty
;	COMDAT ?size@?$_Tree@V?$_Tmap_traits@EPAUtagTMACHINE@@U?$less@E@std@@V?$allocator@U?$pair@$$CBEPAUtagTMACHINE@@@std@@@3@$0A@@std@@@std@@QBEIXZ
_TEXT	SEGMENT
?size@?$_Tree@V?$_Tmap_traits@EPAUtagTMACHINE@@U?$less@E@std@@V?$allocator@U?$pair@$$CBEPAUtagTMACHINE@@@std@@@3@$0A@@std@@@std@@QBEIXZ PROC NEAR ; std::_Tree<std::_Tmap_traits<unsigned char,tagTMACHINE *,std::less<unsigned char>,std::allocator<std::pair<unsigned char const ,tagTMACHINE *> >,0> >::size, COMDAT
; _this$ = ecx

; 448  : 		return (_Mysize);

  00000	8b 41 08	 mov	 eax, DWORD PTR [ecx+8]

; 449  : 		}

  00003	c3		 ret	 0
?size@?$_Tree@V?$_Tmap_traits@EPAUtagTMACHINE@@U?$less@E@std@@V?$allocator@U?$pair@$$CBEPAUtagTMACHINE@@@std@@@3@$0A@@std@@@std@@QBEIXZ ENDP ; std::_Tree<std::_Tmap_traits<unsigned char,tagTMACHINE *,std::less<unsigned char>,std::allocator<std::pair<unsigned char const ,tagTMACHINE *> >,0> >::size
_TEXT	ENDS
PUBLIC	?size@?$_Tree@V?$_Tmap_traits@EPAUtagTGROUP@@U?$less@E@std@@V?$allocator@U?$pair@$$CBEPAUtagTGROUP@@@std@@@3@$0A@@std@@@std@@QBEIXZ ; std::_Tree<std::_Tmap_traits<unsigned char,tagTGROUP *,std::less<unsigned char>,std::allocator<std::pair<unsigned char const ,tagTGROUP *> >,0> >::size
; Function compile flags: /Ogty
;	COMDAT ?size@?$_Tree@V?$_Tmap_traits@EPAUtagTGROUP@@U?$less@E@std@@V?$allocator@U?$pair@$$CBEPAUtagTGROUP@@@std@@@3@$0A@@std@@@std@@QBEIXZ
_TEXT	SEGMENT
?size@?$_Tree@V?$_Tmap_traits@EPAUtagTGROUP@@U?$less@E@std@@V?$allocator@U?$pair@$$CBEPAUtagTGROUP@@@std@@@3@$0A@@std@@@std@@QBEIXZ PROC NEAR ; std::_Tree<std::_Tmap_traits<unsigned char,tagTGROUP *,std::less<unsigned char>,std::allocator<std::pair<unsigned char const ,tagTGROUP *> >,0> >::size, COMDAT
; _this$ = ecx

; 448  : 		return (_Mysize);

  00000	8b 41 08	 mov	 eax, DWORD PTR [ecx+8]

; 449  : 		}

  00003	c3		 ret	 0
?size@?$_Tree@V?$_Tmap_traits@EPAUtagTGROUP@@U?$less@E@std@@V?$allocator@U?$pair@$$CBEPAUtagTGROUP@@@std@@@3@$0A@@std@@@std@@QBEIXZ ENDP ; std::_Tree<std::_Tmap_traits<unsigned char,tagTGROUP *,std::less<unsigned char>,std::allocator<std::pair<unsigned char const ,tagTGROUP *> >,0> >::size
_TEXT	ENDS
PUBLIC	?size@?$_Tree@V?$_Tmap_traits@KPAUtagTSVRTEMP@@U?$less@K@std@@V?$allocator@U?$pair@$$CBKPAUtagTSVRTEMP@@@std@@@3@$0A@@std@@@std@@QBEIXZ ; std::_Tree<std::_Tmap_traits<unsigned long,tagTSVRTEMP *,std::less<unsigned long>,std::allocator<std::pair<unsigned long const ,tagTSVRTEMP *> >,0> >::size
; Function compile flags: /Ogty
;	COMDAT ?size@?$_Tree@V?$_Tmap_traits@KPAUtagTSVRTEMP@@U?$less@K@std@@V?$allocator@U?$pair@$$CBKPAUtagTSVRTEMP@@@std@@@3@$0A@@std@@@std@@QBEIXZ
_TEXT	SEGMENT
?size@?$_Tree@V?$_Tmap_traits@KPAUtagTSVRTEMP@@U?$less@K@std@@V?$allocator@U?$pair@$$CBKPAUtagTSVRTEMP@@@std@@@3@$0A@@std@@@std@@QBEIXZ PROC NEAR ; std::_Tree<std::_Tmap_traits<unsigned long,tagTSVRTEMP *,std::less<unsigned long>,std::allocator<std::pair<unsigned long const ,tagTSVRTEMP *> >,0> >::size, COMDAT
; _this$ = ecx

; 448  : 		return (_Mysize);

  00000	8b 41 08	 mov	 eax, DWORD PTR [ecx+8]

; 449  : 		}

  00003	c3		 ret	 0
?size@?$_Tree@V?$_Tmap_traits@KPAUtagTSVRTEMP@@U?$less@K@std@@V?$allocator@U?$pair@$$CBKPAUtagTSVRTEMP@@@std@@@3@$0A@@std@@@std@@QBEIXZ ENDP ; std::_Tree<std::_Tmap_traits<unsigned long,tagTSVRTEMP *,std::less<unsigned long>,std::allocator<std::pair<unsigned long const ,tagTSVRTEMP *> >,0> >::size
_TEXT	ENDS
PUBLIC	?size@?$_Tree@V?$_Tmap_traits@KPAUtagBANINFO@@U?$less@K@std@@V?$allocator@U?$pair@$$CBKPAUtagBANINFO@@@std@@@3@$0A@@std@@@std@@QBEIXZ ; std::_Tree<std::_Tmap_traits<unsigned long,tagBANINFO *,std::less<unsigned long>,std::allocator<std::pair<unsigned long const ,tagBANINFO *> >,0> >::size
; Function compile flags: /Ogty
;	COMDAT ?size@?$_Tree@V?$_Tmap_traits@KPAUtagBANINFO@@U?$less@K@std@@V?$allocator@U?$pair@$$CBKPAUtagBANINFO@@@std@@@3@$0A@@std@@@std@@QBEIXZ
_TEXT	SEGMENT
?size@?$_Tree@V?$_Tmap_traits@KPAUtagBANINFO@@U?$less@K@std@@V?$allocator@U?$pair@$$CBKPAUtagBANINFO@@@std@@@3@$0A@@std@@@std@@QBEIXZ PROC NEAR ; std::_Tree<std::_Tmap_traits<unsigned long,tagBANINFO *,std::less<unsigned long>,std::allocator<std::pair<unsigned long const ,tagBANINFO *> >,0> >::size, COMDAT
; _this$ = ecx

; 448  : 		return (_Mysize);

  00000	8b 41 08	 mov	 eax, DWORD PTR [ecx+8]

; 449  : 		}

  00003	c3		 ret	 0
?size@?$_Tree@V?$_Tmap_traits@KPAUtagBANINFO@@U?$less@K@std@@V?$allocator@U?$pair@$$CBKPAUtagBANINFO@@@std@@@3@$0A@@std@@@std@@QBEIXZ ENDP ; std::_Tree<std::_Tmap_traits<unsigned long,tagBANINFO *,std::less<unsigned long>,std::allocator<std::pair<unsigned long const ,tagBANINFO *> >,0> >::size
_TEXT	ENDS
PUBLIC	?size@?$_Tree@V?$_Tmap_traits@KUtagEVENTINFO@@U?$less@K@std@@V?$allocator@U?$pair@$$CBKUtagEVENTINFO@@@std@@@3@$0A@@std@@@std@@QBEIXZ ; std::_Tree<std::_Tmap_traits<unsigned long,tagEVENTINFO,std::less<unsigned long>,std::allocator<std::pair<unsigned long const ,tagEVENTINFO> >,0> >::size
; Function compile flags: /Ogty
;	COMDAT ?size@?$_Tree@V?$_Tmap_traits@KUtagEVENTINFO@@U?$less@K@std@@V?$allocator@U?$pair@$$CBKUtagEVENTINFO@@@std@@@3@$0A@@std@@@std@@QBEIXZ
_TEXT	SEGMENT
?size@?$_Tree@V?$_Tmap_traits@KUtagEVENTINFO@@U?$less@K@std@@V?$allocator@U?$pair@$$CBKUtagEVENTINFO@@@std@@@3@$0A@@std@@@std@@QBEIXZ PROC NEAR ; std::_Tree<std::_Tmap_traits<unsigned long,tagEVENTINFO,std::less<unsigned long>,std::allocator<std::pair<unsigned long const ,tagEVENTINFO> >,0> >::size, COMDAT
; _this$ = ecx

; 448  : 		return (_Mysize);

  00000	8b 41 08	 mov	 eax, DWORD PTR [ecx+8]

; 449  : 		}

  00003	c3		 ret	 0
?size@?$_Tree@V?$_Tmap_traits@KUtagEVENTINFO@@U?$less@K@std@@V?$allocator@U?$pair@$$CBKUtagEVENTINFO@@@std@@@3@$0A@@std@@@std@@QBEIXZ ENDP ; std::_Tree<std::_Tmap_traits<unsigned long,tagEVENTINFO,std::less<unsigned long>,std::allocator<std::pair<unsigned long const ,tagEVENTINFO> >,0> >::size
_TEXT	ENDS
PUBLIC	??0CAtlException@ATL@@QAE@J@Z			; ATL::CAtlException::CAtlException
; Function compile flags: /Ogty
; File c:\program files (x86)\microsoft visual studio .net 2003\vc7\atlmfc\include\atlexcept.h
;	COMDAT ??0CAtlException@ATL@@QAE@J@Z
_TEXT	SEGMENT
_hr$ = 8						; size = 4
??0CAtlException@ATL@@QAE@J@Z PROC NEAR			; ATL::CAtlException::CAtlException, COMDAT
; _this$ = ecx

; 40   : 	{

  00000	8b c1		 mov	 eax, ecx
  00002	8b 4c 24 04	 mov	 ecx, DWORD PTR _hr$[esp-4]
  00006	89 08		 mov	 DWORD PTR [eax], ecx

; 41   : 	}

  00008	c2 04 00	 ret	 4
??0CAtlException@ATL@@QAE@J@Z ENDP			; ATL::CAtlException::CAtlException
_TEXT	ENDS
PUBLIC	?AtlThrow@ATL@@YGXJ@Z				; ATL::AtlThrow
PUBLIC	__TI1?AVCAtlException@ATL@@
PUBLIC	__CTA1?AVCAtlException@ATL@@
PUBLIC	??_R0?AVCAtlException@ATL@@@8			; ATL::CAtlException `RTTI Type Descriptor'
PUBLIC	__CT??_R0?AVCAtlException@ATL@@@84
EXTRN	??_7type_info@@6B@:DWORD			; type_info::`vftable'
EXTRN	__CxxThrowException@8:NEAR
;	COMDAT __TI1?AVCAtlException@ATL@@
xdata$x	SEGMENT
__TI1?AVCAtlException@ATL@@ DD 00H
	DD	00H
	DD	00H
	DD	FLAT:__CTA1?AVCAtlException@ATL@@
xdata$x	ENDS
;	COMDAT __CTA1?AVCAtlException@ATL@@
xdata$x	SEGMENT
__CTA1?AVCAtlException@ATL@@ DD 01H
	DD	FLAT:__CT??_R0?AVCAtlException@ATL@@@84
xdata$x	ENDS
;	COMDAT __CT??_R0?AVCAtlException@ATL@@@84
xdata$x	SEGMENT
__CT??_R0?AVCAtlException@ATL@@@84 DD 00H
	DD	FLAT:??_R0?AVCAtlException@ATL@@@8
	DD	00H
	DD	0ffffffffH
	ORG $+4
	DD	04H
	DD	00H
xdata$x	ENDS
;	COMDAT ??_R0?AVCAtlException@ATL@@@8
_DATA	SEGMENT
??_R0?AVCAtlException@ATL@@@8 DD FLAT:??_7type_info@@6B@ ; ATL::CAtlException `RTTI Type Descriptor'
	DD	00H
	DB	'.?AVCAtlException@ATL@@', 00H
; Function compile flags: /Ogty
_DATA	ENDS
;	COMDAT ?AtlThrow@ATL@@YGXJ@Z
_TEXT	SEGMENT
$T93549 = 8						; size = 4
_hr$ = 8						; size = 4
?AtlThrow@ATL@@YGXJ@Z PROC NEAR				; ATL::AtlThrow, COMDAT

; 62   : 	ATLTRACE(atlTraceException, 0, _T("AtlThrow: hr = 0x%x\n"), hr );
; 63   : #ifdef _AFX
; 64   : 	if( hr == E_OUTOFMEMORY )
; 65   : 	{
; 66   : 		AfxThrowMemoryException();
; 67   : 	}
; 68   : 	else
; 69   : 	{
; 70   : 		AfxThrowOleException( hr );
; 71   : 	}
; 72   : #else
; 73   : 	throw CAtlException( hr );

  00000	8b 44 24 04	 mov	 eax, DWORD PTR _hr$[esp-4]
  00004	68 00 00 00 00	 push	 OFFSET FLAT:__TI1?AVCAtlException@ATL@@
  00009	8d 4c 24 08	 lea	 ecx, DWORD PTR $T93549[esp]
  0000d	51		 push	 ecx
  0000e	89 44 24 0c	 mov	 DWORD PTR $T93549[esp+4], eax
  00012	e8 00 00 00 00	 call	 __CxxThrowException@8
$L93556:
$L93555:
  00017	cc		 int	 3
?AtlThrow@ATL@@YGXJ@Z ENDP				; ATL::AtlThrow
_TEXT	ENDS
PUBLIC	?size@?$vector@UtagTCASHITEM@@V?$allocator@UtagTCASHITEM@@@std@@@std@@QBEIXZ ; std::vector<tagTCASHITEM,std::allocator<tagTCASHITEM> >::size
; Function compile flags: /Ogty
; File c:\program files (x86)\microsoft visual studio .net 2003\vc7\include\vector
;	COMDAT ?size@?$vector@UtagTCASHITEM@@V?$allocator@UtagTCASHITEM@@@std@@@std@@QBEIXZ
_TEXT	SEGMENT
?size@?$vector@UtagTCASHITEM@@V?$allocator@UtagTCASHITEM@@@std@@@std@@QBEIXZ PROC NEAR ; std::vector<tagTCASHITEM,std::allocator<tagTCASHITEM> >::size, COMDAT
; _this$ = ecx

; 516  : 		return (_Myfirst == 0 ? 0 : _Mylast - _Myfirst);

  00000	8b 51 04	 mov	 edx, DWORD PTR [ecx+4]
  00003	85 d2		 test	 edx, edx
  00005	75 03		 jne	 SHORT $L93560
  00007	33 c0		 xor	 eax, eax

; 517  : 		}

  00009	c3		 ret	 0
$L93560:

; 516  : 		return (_Myfirst == 0 ? 0 : _Mylast - _Myfirst);

  0000a	8b 41 08	 mov	 eax, DWORD PTR [ecx+8]
  0000d	2b c2		 sub	 eax, edx
  0000f	c1 f8 03	 sar	 eax, 3

; 517  : 		}

  00012	c3		 ret	 0
?size@?$vector@UtagTCASHITEM@@V?$allocator@UtagTCASHITEM@@@std@@@std@@QBEIXZ ENDP ; std::vector<tagTCASHITEM,std::allocator<tagTCASHITEM> >::size
_TEXT	ENDS
PUBLIC	?size@?$vector@UtagPATCHFILE@@V?$allocator@UtagPATCHFILE@@@std@@@std@@QBEIXZ ; std::vector<tagPATCHFILE,std::allocator<tagPATCHFILE> >::size
; Function compile flags: /Ogty
;	COMDAT ?size@?$vector@UtagPATCHFILE@@V?$allocator@UtagPATCHFILE@@@std@@@std@@QBEIXZ
_TEXT	SEGMENT
?size@?$vector@UtagPATCHFILE@@V?$allocator@UtagPATCHFILE@@@std@@@std@@QBEIXZ PROC NEAR ; std::vector<tagPATCHFILE,std::allocator<tagPATCHFILE> >::size, COMDAT
; _this$ = ecx

; 516  : 		return (_Myfirst == 0 ? 0 : _Mylast - _Myfirst);

  00000	8b 51 04	 mov	 edx, DWORD PTR [ecx+4]
  00003	85 d2		 test	 edx, edx
  00005	75 03		 jne	 SHORT $L93565
  00007	33 c0		 xor	 eax, eax

; 517  : 		}

  00009	c3		 ret	 0
$L93565:

; 516  : 		return (_Myfirst == 0 ? 0 : _Mylast - _Myfirst);

  0000a	8b 41 08	 mov	 eax, DWORD PTR [ecx+8]
  0000d	2b c2		 sub	 eax, edx
  0000f	c1 f8 04	 sar	 eax, 4

; 517  : 		}

  00012	c3		 ret	 0
?size@?$vector@UtagPATCHFILE@@V?$allocator@UtagPATCHFILE@@@std@@@std@@QBEIXZ ENDP ; std::vector<tagPATCHFILE,std::allocator<tagPATCHFILE> >::size
_TEXT	ENDS
PUBLIC	??0const_iterator@?$_Tree@V?$_Tmap_traits@EPAUtagTSVRTYPE@@U?$less@E@std@@V?$allocator@U?$pair@$$CBEPAUtagTSVRTYPE@@@std@@@3@$0A@@std@@@std@@QAE@XZ ; std::_Tree<std::_Tmap_traits<unsigned char,tagTSVRTYPE *,std::less<unsigned char>,std::allocator<std::pair<unsigned char const ,tagTSVRTYPE *> >,0> >::const_iterator::const_iterator
; Function compile flags: /Ogty
; File c:\program files (x86)\microsoft visual studio .net 2003\vc7\include\xtree
;	COMDAT ??0const_iterator@?$_Tree@V?$_Tmap_traits@EPAUtagTSVRTYPE@@U?$less@E@std@@V?$allocator@U?$pair@$$CBEPAUtagTSVRTYPE@@@std@@@3@$0A@@std@@@std@@QAE@XZ
_TEXT	SEGMENT
??0const_iterator@?$_Tree@V?$_Tmap_traits@EPAUtagTSVRTYPE@@U?$less@E@std@@V?$allocator@U?$pair@$$CBEPAUtagTSVRTYPE@@@std@@@3@$0A@@std@@@std@@QAE@XZ PROC NEAR ; std::_Tree<std::_Tmap_traits<unsigned char,tagTSVRTYPE *,std::less<unsigned char>,std::allocator<std::pair<unsigned char const ,tagTSVRTYPE *> >,0> >::const_iterator::const_iterator, COMDAT
; _this$ = ecx

; 193  : 			{	// construct with null node pointer

  00000	8b c1		 mov	 eax, ecx
  00002	c7 00 00 00 00
	00		 mov	 DWORD PTR [eax], 0

; 194  : 			}

  00008	c3		 ret	 0
??0const_iterator@?$_Tree@V?$_Tmap_traits@EPAUtagTSVRTYPE@@U?$less@E@std@@V?$allocator@U?$pair@$$CBEPAUtagTSVRTYPE@@@std@@@3@$0A@@std@@@std@@QAE@XZ ENDP ; std::_Tree<std::_Tmap_traits<unsigned char,tagTSVRTYPE *,std::less<unsigned char>,std::allocator<std::pair<unsigned char const ,tagTSVRTYPE *> >,0> >::const_iterator::const_iterator
_TEXT	ENDS
PUBLIC	??8const_iterator@?$_Tree@V?$_Tmap_traits@EPAUtagTSVRTYPE@@U?$less@E@std@@V?$allocator@U?$pair@$$CBEPAUtagTSVRTYPE@@@std@@@3@$0A@@std@@@std@@QBE_NABV012@@Z ; std::_Tree<std::_Tmap_traits<unsigned char,tagTSVRTYPE *,std::less<unsigned char>,std::allocator<std::pair<unsigned char const ,tagTSVRTYPE *> >,0> >::const_iterator::operator==
; Function compile flags: /Ogty
;	COMDAT ??8const_iterator@?$_Tree@V?$_Tmap_traits@EPAUtagTSVRTYPE@@U?$less@E@std@@V?$allocator@U?$pair@$$CBEPAUtagTSVRTYPE@@@std@@@3@$0A@@std@@@std@@QBE_NABV012@@Z
_TEXT	SEGMENT
__Right$ = 8						; size = 4
??8const_iterator@?$_Tree@V?$_Tmap_traits@EPAUtagTSVRTYPE@@U?$less@E@std@@V?$allocator@U?$pair@$$CBEPAUtagTSVRTYPE@@@std@@@3@$0A@@std@@@std@@QBE_NABV012@@Z PROC NEAR ; std::_Tree<std::_Tmap_traits<unsigned char,tagTSVRTYPE *,std::less<unsigned char>,std::allocator<std::pair<unsigned char const ,tagTSVRTYPE *> >,0> >::const_iterator::operator==, COMDAT
; _this$ = ecx

; 241  : 			return (_Ptr == _Right._Ptr);

  00000	8b 01		 mov	 eax, DWORD PTR [ecx]
  00002	8b 4c 24 04	 mov	 ecx, DWORD PTR __Right$[esp-4]
  00006	2b 01		 sub	 eax, DWORD PTR [ecx]
  00008	f7 d8		 neg	 eax
  0000a	1b c0		 sbb	 eax, eax
  0000c	40		 inc	 eax

; 242  : 			}

  0000d	c2 04 00	 ret	 4
??8const_iterator@?$_Tree@V?$_Tmap_traits@EPAUtagTSVRTYPE@@U?$less@E@std@@V?$allocator@U?$pair@$$CBEPAUtagTSVRTYPE@@@std@@@3@$0A@@std@@@std@@QBE_NABV012@@Z ENDP ; std::_Tree<std::_Tmap_traits<unsigned char,tagTSVRTYPE *,std::less<unsigned char>,std::allocator<std::pair<unsigned char const ,tagTSVRTYPE *> >,0> >::const_iterator::operator==
_TEXT	ENDS
PUBLIC	??0const_iterator@?$_Tree@V?$_Tmap_traits@EPAUtagTMACHINE@@U?$less@E@std@@V?$allocator@U?$pair@$$CBEPAUtagTMACHINE@@@std@@@3@$0A@@std@@@std@@QAE@XZ ; std::_Tree<std::_Tmap_traits<unsigned char,tagTMACHINE *,std::less<unsigned char>,std::allocator<std::pair<unsigned char const ,tagTMACHINE *> >,0> >::const_iterator::const_iterator
; Function compile flags: /Ogty
;	COMDAT ??0const_iterator@?$_Tree@V?$_Tmap_traits@EPAUtagTMACHINE@@U?$less@E@std@@V?$allocator@U?$pair@$$CBEPAUtagTMACHINE@@@std@@@3@$0A@@std@@@std@@QAE@XZ
_TEXT	SEGMENT
??0const_iterator@?$_Tree@V?$_Tmap_traits@EPAUtagTMACHINE@@U?$less@E@std@@V?$allocator@U?$pair@$$CBEPAUtagTMACHINE@@@std@@@3@$0A@@std@@@std@@QAE@XZ PROC NEAR ; std::_Tree<std::_Tmap_traits<unsigned char,tagTMACHINE *,std::less<unsigned char>,std::allocator<std::pair<unsigned char const ,tagTMACHINE *> >,0> >::const_iterator::const_iterator, COMDAT
; _this$ = ecx

; 193  : 			{	// construct with null node pointer

  00000	8b c1		 mov	 eax, ecx
  00002	c7 00 00 00 00
	00		 mov	 DWORD PTR [eax], 0

; 194  : 			}

  00008	c3		 ret	 0
??0const_iterator@?$_Tree@V?$_Tmap_traits@EPAUtagTMACHINE@@U?$less@E@std@@V?$allocator@U?$pair@$$CBEPAUtagTMACHINE@@@std@@@3@$0A@@std@@@std@@QAE@XZ ENDP ; std::_Tree<std::_Tmap_traits<unsigned char,tagTMACHINE *,std::less<unsigned char>,std::allocator<std::pair<unsigned char const ,tagTMACHINE *> >,0> >::const_iterator::const_iterator
_TEXT	ENDS
PUBLIC	??8const_iterator@?$_Tree@V?$_Tmap_traits@EPAUtagTMACHINE@@U?$less@E@std@@V?$allocator@U?$pair@$$CBEPAUtagTMACHINE@@@std@@@3@$0A@@std@@@std@@QBE_NABV012@@Z ; std::_Tree<std::_Tmap_traits<unsigned char,tagTMACHINE *,std::less<unsigned char>,std::allocator<std::pair<unsigned char const ,tagTMACHINE *> >,0> >::const_iterator::operator==
; Function compile flags: /Ogty
;	COMDAT ??8const_iterator@?$_Tree@V?$_Tmap_traits@EPAUtagTMACHINE@@U?$less@E@std@@V?$allocator@U?$pair@$$CBEPAUtagTMACHINE@@@std@@@3@$0A@@std@@@std@@QBE_NABV012@@Z
_TEXT	SEGMENT
__Right$ = 8						; size = 4
??8const_iterator@?$_Tree@V?$_Tmap_traits@EPAUtagTMACHINE@@U?$less@E@std@@V?$allocator@U?$pair@$$CBEPAUtagTMACHINE@@@std@@@3@$0A@@std@@@std@@QBE_NABV012@@Z PROC NEAR ; std::_Tree<std::_Tmap_traits<unsigned char,tagTMACHINE *,std::less<unsigned char>,std::allocator<std::pair<unsigned char const ,tagTMACHINE *> >,0> >::const_iterator::operator==, COMDAT
; _this$ = ecx

; 241  : 			return (_Ptr == _Right._Ptr);

  00000	8b 01		 mov	 eax, DWORD PTR [ecx]
  00002	8b 4c 24 04	 mov	 ecx, DWORD PTR __Right$[esp-4]
  00006	2b 01		 sub	 eax, DWORD PTR [ecx]
  00008	f7 d8		 neg	 eax
  0000a	1b c0		 sbb	 eax, eax
  0000c	40		 inc	 eax

; 242  : 			}

  0000d	c2 04 00	 ret	 4
??8const_iterator@?$_Tree@V?$_Tmap_traits@EPAUtagTMACHINE@@U?$less@E@std@@V?$allocator@U?$pair@$$CBEPAUtagTMACHINE@@@std@@@3@$0A@@std@@@std@@QBE_NABV012@@Z ENDP ; std::_Tree<std::_Tmap_traits<unsigned char,tagTMACHINE *,std::less<unsigned char>,std::allocator<std::pair<unsigned char const ,tagTMACHINE *> >,0> >::const_iterator::operator==
_TEXT	ENDS
PUBLIC	??0const_iterator@?$_Tree@V?$_Tmap_traits@EPAUtagTGROUP@@U?$less@E@std@@V?$allocator@U?$pair@$$CBEPAUtagTGROUP@@@std@@@3@$0A@@std@@@std@@QAE@XZ ; std::_Tree<std::_Tmap_traits<unsigned char,tagTGROUP *,std::less<unsigned char>,std::allocator<std::pair<unsigned char const ,tagTGROUP *> >,0> >::const_iterator::const_iterator
; Function compile flags: /Ogty
;	COMDAT ??0const_iterator@?$_Tree@V?$_Tmap_traits@EPAUtagTGROUP@@U?$less@E@std@@V?$allocator@U?$pair@$$CBEPAUtagTGROUP@@@std@@@3@$0A@@std@@@std@@QAE@XZ
_TEXT	SEGMENT
??0const_iterator@?$_Tree@V?$_Tmap_traits@EPAUtagTGROUP@@U?$less@E@std@@V?$allocator@U?$pair@$$CBEPAUtagTGROUP@@@std@@@3@$0A@@std@@@std@@QAE@XZ PROC NEAR ; std::_Tree<std::_Tmap_traits<unsigned char,tagTGROUP *,std::less<unsigned char>,std::allocator<std::pair<unsigned char const ,tagTGROUP *> >,0> >::const_iterator::const_iterator, COMDAT
; _this$ = ecx

; 193  : 			{	// construct with null node pointer

  00000	8b c1		 mov	 eax, ecx
  00002	c7 00 00 00 00
	00		 mov	 DWORD PTR [eax], 0

; 194  : 			}

  00008	c3		 ret	 0
??0const_iterator@?$_Tree@V?$_Tmap_traits@EPAUtagTGROUP@@U?$less@E@std@@V?$allocator@U?$pair@$$CBEPAUtagTGROUP@@@std@@@3@$0A@@std@@@std@@QAE@XZ ENDP ; std::_Tree<std::_Tmap_traits<unsigned char,tagTGROUP *,std::less<unsigned char>,std::allocator<std::pair<unsigned char const ,tagTGROUP *> >,0> >::const_iterator::const_iterator
_TEXT	ENDS
PUBLIC	??8const_iterator@?$_Tree@V?$_Tmap_traits@EPAUtagTGROUP@@U?$less@E@std@@V?$allocator@U?$pair@$$CBEPAUtagTGROUP@@@std@@@3@$0A@@std@@@std@@QBE_NABV012@@Z ; std::_Tree<std::_Tmap_traits<unsigned char,tagTGROUP *,std::less<unsigned char>,std::allocator<std::pair<unsigned char const ,tagTGROUP *> >,0> >::const_iterator::operator==
; Function compile flags: /Ogty
;	COMDAT ??8const_iterator@?$_Tree@V?$_Tmap_traits@EPAUtagTGROUP@@U?$less@E@std@@V?$allocator@U?$pair@$$CBEPAUtagTGROUP@@@std@@@3@$0A@@std@@@std@@QBE_NABV012@@Z
_TEXT	SEGMENT
__Right$ = 8						; size = 4
??8const_iterator@?$_Tree@V?$_Tmap_traits@EPAUtagTGROUP@@U?$less@E@std@@V?$allocator@U?$pair@$$CBEPAUtagTGROUP@@@std@@@3@$0A@@std@@@std@@QBE_NABV012@@Z PROC NEAR ; std::_Tree<std::_Tmap_traits<unsigned char,tagTGROUP *,std::less<unsigned char>,std::allocator<std::pair<unsigned char const ,tagTGROUP *> >,0> >::const_iterator::operator==, COMDAT
; _this$ = ecx

; 241  : 			return (_Ptr == _Right._Ptr);

  00000	8b 01		 mov	 eax, DWORD PTR [ecx]
  00002	8b 4c 24 04	 mov	 ecx, DWORD PTR __Right$[esp-4]
  00006	2b 01		 sub	 eax, DWORD PTR [ecx]
  00008	f7 d8		 neg	 eax
  0000a	1b c0		 sbb	 eax, eax
  0000c	40		 inc	 eax

; 242  : 			}

  0000d	c2 04 00	 ret	 4
??8const_iterator@?$_Tree@V?$_Tmap_traits@EPAUtagTGROUP@@U?$less@E@std@@V?$allocator@U?$pair@$$CBEPAUtagTGROUP@@@std@@@3@$0A@@std@@@std@@QBE_NABV012@@Z ENDP ; std::_Tree<std::_Tmap_traits<unsigned char,tagTGROUP *,std::less<unsigned char>,std::allocator<std::pair<unsigned char const ,tagTGROUP *> >,0> >::const_iterator::operator==
_TEXT	ENDS
PUBLIC	??0const_iterator@?$_Tree@V?$_Tmap_traits@KPAUtagTSVRTEMP@@U?$less@K@std@@V?$allocator@U?$pair@$$CBKPAUtagTSVRTEMP@@@std@@@3@$0A@@std@@@std@@QAE@XZ ; std::_Tree<std::_Tmap_traits<unsigned long,tagTSVRTEMP *,std::less<unsigned long>,std::allocator<std::pair<unsigned long const ,tagTSVRTEMP *> >,0> >::const_iterator::const_iterator
; Function compile flags: /Ogty
;	COMDAT ??0const_iterator@?$_Tree@V?$_Tmap_traits@KPAUtagTSVRTEMP@@U?$less@K@std@@V?$allocator@U?$pair@$$CBKPAUtagTSVRTEMP@@@std@@@3@$0A@@std@@@std@@QAE@XZ
_TEXT	SEGMENT
??0const_iterator@?$_Tree@V?$_Tmap_traits@KPAUtagTSVRTEMP@@U?$less@K@std@@V?$allocator@U?$pair@$$CBKPAUtagTSVRTEMP@@@std@@@3@$0A@@std@@@std@@QAE@XZ PROC NEAR ; std::_Tree<std::_Tmap_traits<unsigned long,tagTSVRTEMP *,std::less<unsigned long>,std::allocator<std::pair<unsigned long const ,tagTSVRTEMP *> >,0> >::const_iterator::const_iterator, COMDAT
; _this$ = ecx

; 193  : 			{	// construct with null node pointer

  00000	8b c1		 mov	 eax, ecx
  00002	c7 00 00 00 00
	00		 mov	 DWORD PTR [eax], 0

; 194  : 			}

  00008	c3		 ret	 0
??0const_iterator@?$_Tree@V?$_Tmap_traits@KPAUtagTSVRTEMP@@U?$less@K@std@@V?$allocator@U?$pair@$$CBKPAUtagTSVRTEMP@@@std@@@3@$0A@@std@@@std@@QAE@XZ ENDP ; std::_Tree<std::_Tmap_traits<unsigned long,tagTSVRTEMP *,std::less<unsigned long>,std::allocator<std::pair<unsigned long const ,tagTSVRTEMP *> >,0> >::const_iterator::const_iterator
_TEXT	ENDS
PUBLIC	??8const_iterator@?$_Tree@V?$_Tmap_traits@KPAUtagTSVRTEMP@@U?$less@K@std@@V?$allocator@U?$pair@$$CBKPAUtagTSVRTEMP@@@std@@@3@$0A@@std@@@std@@QBE_NABV012@@Z ; std::_Tree<std::_Tmap_traits<unsigned long,tagTSVRTEMP *,std::less<unsigned long>,std::allocator<std::pair<unsigned long const ,tagTSVRTEMP *> >,0> >::const_iterator::operator==
; Function compile flags: /Ogty
;	COMDAT ??8const_iterator@?$_Tree@V?$_Tmap_traits@KPAUtagTSVRTEMP@@U?$less@K@std@@V?$allocator@U?$pair@$$CBKPAUtagTSVRTEMP@@@std@@@3@$0A@@std@@@std@@QBE_NABV012@@Z
_TEXT	SEGMENT
__Right$ = 8						; size = 4
??8const_iterator@?$_Tree@V?$_Tmap_traits@KPAUtagTSVRTEMP@@U?$less@K@std@@V?$allocator@U?$pair@$$CBKPAUtagTSVRTEMP@@@std@@@3@$0A@@std@@@std@@QBE_NABV012@@Z PROC NEAR ; std::_Tree<std::_Tmap_traits<unsigned long,tagTSVRTEMP *,std::less<unsigned long>,std::allocator<std::pair<unsigned long const ,tagTSVRTEMP *> >,0> >::const_iterator::operator==, COMDAT
; _this$ = ecx

; 241  : 			return (_Ptr == _Right._Ptr);

  00000	8b 01		 mov	 eax, DWORD PTR [ecx]
  00002	8b 4c 24 04	 mov	 ecx, DWORD PTR __Right$[esp-4]
  00006	2b 01		 sub	 eax, DWORD PTR [ecx]
  00008	f7 d8		 neg	 eax
  0000a	1b c0		 sbb	 eax, eax
  0000c	40		 inc	 eax

; 242  : 			}

  0000d	c2 04 00	 ret	 4
??8const_iterator@?$_Tree@V?$_Tmap_traits@KPAUtagTSVRTEMP@@U?$less@K@std@@V?$allocator@U?$pair@$$CBKPAUtagTSVRTEMP@@@std@@@3@$0A@@std@@@std@@QBE_NABV012@@Z ENDP ; std::_Tree<std::_Tmap_traits<unsigned long,tagTSVRTEMP *,std::less<unsigned long>,std::allocator<std::pair<unsigned long const ,tagTSVRTEMP *> >,0> >::const_iterator::operator==
_TEXT	ENDS
PUBLIC	??0const_iterator@?$_Tree@V?$_Tmap_traits@KPAUtagBANINFO@@U?$less@K@std@@V?$allocator@U?$pair@$$CBKPAUtagBANINFO@@@std@@@3@$0A@@std@@@std@@QAE@XZ ; std::_Tree<std::_Tmap_traits<unsigned long,tagBANINFO *,std::less<unsigned long>,std::allocator<std::pair<unsigned long const ,tagBANINFO *> >,0> >::const_iterator::const_iterator
; Function compile flags: /Ogty
;	COMDAT ??0const_iterator@?$_Tree@V?$_Tmap_traits@KPAUtagBANINFO@@U?$less@K@std@@V?$allocator@U?$pair@$$CBKPAUtagBANINFO@@@std@@@3@$0A@@std@@@std@@QAE@XZ
_TEXT	SEGMENT
??0const_iterator@?$_Tree@V?$_Tmap_traits@KPAUtagBANINFO@@U?$less@K@std@@V?$allocator@U?$pair@$$CBKPAUtagBANINFO@@@std@@@3@$0A@@std@@@std@@QAE@XZ PROC NEAR ; std::_Tree<std::_Tmap_traits<unsigned long,tagBANINFO *,std::less<unsigned long>,std::allocator<std::pair<unsigned long const ,tagBANINFO *> >,0> >::const_iterator::const_iterator, COMDAT
; _this$ = ecx

; 193  : 			{	// construct with null node pointer

  00000	8b c1		 mov	 eax, ecx
  00002	c7 00 00 00 00
	00		 mov	 DWORD PTR [eax], 0

; 194  : 			}

  00008	c3		 ret	 0
??0const_iterator@?$_Tree@V?$_Tmap_traits@KPAUtagBANINFO@@U?$less@K@std@@V?$allocator@U?$pair@$$CBKPAUtagBANINFO@@@std@@@3@$0A@@std@@@std@@QAE@XZ ENDP ; std::_Tree<std::_Tmap_traits<unsigned long,tagBANINFO *,std::less<unsigned long>,std::allocator<std::pair<unsigned long const ,tagBANINFO *> >,0> >::const_iterator::const_iterator
_TEXT	ENDS
PUBLIC	??8const_iterator@?$_Tree@V?$_Tmap_traits@KPAUtagBANINFO@@U?$less@K@std@@V?$allocator@U?$pair@$$CBKPAUtagBANINFO@@@std@@@3@$0A@@std@@@std@@QBE_NABV012@@Z ; std::_Tree<std::_Tmap_traits<unsigned long,tagBANINFO *,std::less<unsigned long>,std::allocator<std::pair<unsigned long const ,tagBANINFO *> >,0> >::const_iterator::operator==
; Function compile flags: /Ogty
;	COMDAT ??8const_iterator@?$_Tree@V?$_Tmap_traits@KPAUtagBANINFO@@U?$less@K@std@@V?$allocator@U?$pair@$$CBKPAUtagBANINFO@@@std@@@3@$0A@@std@@@std@@QBE_NABV012@@Z
_TEXT	SEGMENT
__Right$ = 8						; size = 4
??8const_iterator@?$_Tree@V?$_Tmap_traits@KPAUtagBANINFO@@U?$less@K@std@@V?$allocator@U?$pair@$$CBKPAUtagBANINFO@@@std@@@3@$0A@@std@@@std@@QBE_NABV012@@Z PROC NEAR ; std::_Tree<std::_Tmap_traits<unsigned long,tagBANINFO *,std::less<unsigned long>,std::allocator<std::pair<unsigned long const ,tagBANINFO *> >,0> >::const_iterator::operator==, COMDAT
; _this$ = ecx

; 241  : 			return (_Ptr == _Right._Ptr);

  00000	8b 01		 mov	 eax, DWORD PTR [ecx]
  00002	8b 4c 24 04	 mov	 ecx, DWORD PTR __Right$[esp-4]
  00006	2b 01		 sub	 eax, DWORD PTR [ecx]
  00008	f7 d8		 neg	 eax
  0000a	1b c0		 sbb	 eax, eax
  0000c	40		 inc	 eax

; 242  : 			}

  0000d	c2 04 00	 ret	 4
??8const_iterator@?$_Tree@V?$_Tmap_traits@KPAUtagBANINFO@@U?$less@K@std@@V?$allocator@U?$pair@$$CBKPAUtagBANINFO@@@std@@@3@$0A@@std@@@std@@QBE_NABV012@@Z ENDP ; std::_Tree<std::_Tmap_traits<unsigned long,tagBANINFO *,std::less<unsigned long>,std::allocator<std::pair<unsigned long const ,tagBANINFO *> >,0> >::const_iterator::operator==
_TEXT	ENDS
PUBLIC	??0const_iterator@?$_Tree@V?$_Tmap_traits@KUtagEVENTINFO@@U?$less@K@std@@V?$allocator@U?$pair@$$CBKUtagEVENTINFO@@@std@@@3@$0A@@std@@@std@@QAE@XZ ; std::_Tree<std::_Tmap_traits<unsigned long,tagEVENTINFO,std::less<unsigned long>,std::allocator<std::pair<unsigned long const ,tagEVENTINFO> >,0> >::const_iterator::const_iterator
; Function compile flags: /Ogty
;	COMDAT ??0const_iterator@?$_Tree@V?$_Tmap_traits@KUtagEVENTINFO@@U?$less@K@std@@V?$allocator@U?$pair@$$CBKUtagEVENTINFO@@@std@@@3@$0A@@std@@@std@@QAE@XZ
_TEXT	SEGMENT
??0const_iterator@?$_Tree@V?$_Tmap_traits@KUtagEVENTINFO@@U?$less@K@std@@V?$allocator@U?$pair@$$CBKUtagEVENTINFO@@@std@@@3@$0A@@std@@@std@@QAE@XZ PROC NEAR ; std::_Tree<std::_Tmap_traits<unsigned long,tagEVENTINFO,std::less<unsigned long>,std::allocator<std::pair<unsigned long const ,tagEVENTINFO> >,0> >::const_iterator::const_iterator, COMDAT
; _this$ = ecx

; 193  : 			{	// construct with null node pointer

  00000	8b c1		 mov	 eax, ecx
  00002	c7 00 00 00 00
	00		 mov	 DWORD PTR [eax], 0

; 194  : 			}

  00008	c3		 ret	 0
??0const_iterator@?$_Tree@V?$_Tmap_traits@KUtagEVENTINFO@@U?$less@K@std@@V?$allocator@U?$pair@$$CBKUtagEVENTINFO@@@std@@@3@$0A@@std@@@std@@QAE@XZ ENDP ; std::_Tree<std::_Tmap_traits<unsigned long,tagEVENTINFO,std::less<unsigned long>,std::allocator<std::pair<unsigned long const ,tagEVENTINFO> >,0> >::const_iterator::const_iterator
_TEXT	ENDS
PUBLIC	??8const_iterator@?$_Tree@V?$_Tmap_traits@KUtagEVENTINFO@@U?$less@K@std@@V?$allocator@U?$pair@$$CBKUtagEVENTINFO@@@std@@@3@$0A@@std@@@std@@QBE_NABV012@@Z ; std::_Tree<std::_Tmap_traits<unsigned long,tagEVENTINFO,std::less<unsigned long>,std::allocator<std::pair<unsigned long const ,tagEVENTINFO> >,0> >::const_iterator::operator==
; Function compile flags: /Ogty
;	COMDAT ??8const_iterator@?$_Tree@V?$_Tmap_traits@KUtagEVENTINFO@@U?$less@K@std@@V?$allocator@U?$pair@$$CBKUtagEVENTINFO@@@std@@@3@$0A@@std@@@std@@QBE_NABV012@@Z
_TEXT	SEGMENT
__Right$ = 8						; size = 4
??8const_iterator@?$_Tree@V?$_Tmap_traits@KUtagEVENTINFO@@U?$less@K@std@@V?$allocator@U?$pair@$$CBKUtagEVENTINFO@@@std@@@3@$0A@@std@@@std@@QBE_NABV012@@Z PROC NEAR ; std::_Tree<std::_Tmap_traits<unsigned long,tagEVENTINFO,std::less<unsigned long>,std::allocator<std::pair<unsigned long const ,tagEVENTINFO> >,0> >::const_iterator::operator==, COMDAT
; _this$ = ecx

; 241  : 			return (_Ptr == _Right._Ptr);

  00000	8b 01		 mov	 eax, DWORD PTR [ecx]
  00002	8b 4c 24 04	 mov	 ecx, DWORD PTR __Right$[esp-4]
  00006	2b 01		 sub	 eax, DWORD PTR [ecx]
  00008	f7 d8		 neg	 eax
  0000a	1b c0		 sbb	 eax, eax
  0000c	40		 inc	 eax

; 242  : 			}

  0000d	c2 04 00	 ret	 4
??8const_iterator@?$_Tree@V?$_Tmap_traits@KUtagEVENTINFO@@U?$less@K@std@@V?$allocator@U?$pair@$$CBKUtagEVENTINFO@@@std@@@3@$0A@@std@@@std@@QBE_NABV012@@Z ENDP ; std::_Tree<std::_Tmap_traits<unsigned long,tagEVENTINFO,std::less<unsigned long>,std::allocator<std::pair<unsigned long const ,tagEVENTINFO> >,0> >::const_iterator::operator==
_TEXT	ENDS
PUBLIC	?_Left@?$_Tree@V?$_Tmap_traits@EPAUtagTSVRTYPE@@U?$less@E@std@@V?$allocator@U?$pair@$$CBEPAUtagTSVRTYPE@@@std@@@3@$0A@@std@@@std@@KAAAPAU_Node@?$_Tree_nod@V?$_Tmap_traits@EPAUtagTSVRTYPE@@U?$less@E@std@@V?$allocator@U?$pair@$$CBEPAUtagTSVRTYPE@@@std@@@3@$0A@@std@@@2@PAU342@@Z ; std::_Tree<std::_Tmap_traits<unsigned char,tagTSVRTYPE *,std::less<unsigned char>,std::allocator<std::pair<unsigned char const ,tagTSVRTYPE *> >,0> >::_Left
; Function compile flags: /Ogty
;	COMDAT ?_Left@?$_Tree@V?$_Tmap_traits@EPAUtagTSVRTYPE@@U?$less@E@std@@V?$allocator@U?$pair@$$CBEPAUtagTSVRTYPE@@@std@@@3@$0A@@std@@@std@@KAAAPAU_Node@?$_Tree_nod@V?$_Tmap_traits@EPAUtagTSVRTYPE@@U?$less@E@std@@V?$allocator@U?$pair@$$CBEPAUtagTSVRTYPE@@@std@@@3@$0A@@std@@@2@PAU342@@Z
_TEXT	SEGMENT
__Pnode$ = 8						; size = 4
?_Left@?$_Tree@V?$_Tmap_traits@EPAUtagTSVRTYPE@@U?$less@E@std@@V?$allocator@U?$pair@$$CBEPAUtagTSVRTYPE@@@std@@@3@$0A@@std@@@std@@KAAAPAU_Node@?$_Tree_nod@V?$_Tmap_traits@EPAUtagTSVRTYPE@@U?$less@E@std@@V?$allocator@U?$pair@$$CBEPAUtagTSVRTYPE@@@std@@@3@$0A@@std@@@2@PAU342@@Z PROC NEAR ; std::_Tree<std::_Tmap_traits<unsigned char,tagTSVRTYPE *,std::less<unsigned char>,std::allocator<std::pair<unsigned char const ,tagTSVRTYPE *> >,0> >::_Left, COMDAT

; 147  : 		return ((_Nodepref)(*_Pnode)._Left);

  00000	8b 44 24 04	 mov	 eax, DWORD PTR __Pnode$[esp-4]

; 148  : 		}

  00004	c3		 ret	 0
?_Left@?$_Tree@V?$_Tmap_traits@EPAUtagTSVRTYPE@@U?$less@E@std@@V?$allocator@U?$pair@$$CBEPAUtagTSVRTYPE@@@std@@@3@$0A@@std@@@std@@KAAAPAU_Node@?$_Tree_nod@V?$_Tmap_traits@EPAUtagTSVRTYPE@@U?$less@E@std@@V?$allocator@U?$pair@$$CBEPAUtagTSVRTYPE@@@std@@@3@$0A@@std@@@2@PAU342@@Z ENDP ; std::_Tree<std::_Tmap_traits<unsigned char,tagTSVRTYPE *,std::less<unsigned char>,std::allocator<std::pair<unsigned char const ,tagTSVRTYPE *> >,0> >::_Left
_TEXT	ENDS
PUBLIC	?_Myval@?$_Tree@V?$_Tmap_traits@EPAUtagTSVRTYPE@@U?$less@E@std@@V?$allocator@U?$pair@$$CBEPAUtagTSVRTYPE@@@std@@@3@$0A@@std@@@std@@KAAAU?$pair@$$CBEPAUtagTSVRTYPE@@@2@PAU_Node@?$_Tree_nod@V?$_Tmap_traits@EPAUtagTSVRTYPE@@U?$less@E@std@@V?$allocator@U?$pair@$$CBEPAUtagTSVRTYPE@@@std@@@3@$0A@@std@@@2@@Z ; std::_Tree<std::_Tmap_traits<unsigned char,tagTSVRTYPE *,std::less<unsigned char>,std::allocator<std::pair<unsigned char const ,tagTSVRTYPE *> >,0> >::_Myval
; Function compile flags: /Ogty
;	COMDAT ?_Myval@?$_Tree@V?$_Tmap_traits@EPAUtagTSVRTYPE@@U?$less@E@std@@V?$allocator@U?$pair@$$CBEPAUtagTSVRTYPE@@@std@@@3@$0A@@std@@@std@@KAAAU?$pair@$$CBEPAUtagTSVRTYPE@@@2@PAU_Node@?$_Tree_nod@V?$_Tmap_traits@EPAUtagTSVRTYPE@@U?$less@E@std@@V?$allocator@U?$pair@$$CBEPAUtagTSVRTYPE@@@std@@@3@$0A@@std@@@2@@Z
_TEXT	SEGMENT
__Pnode$ = 8						; size = 4
?_Myval@?$_Tree@V?$_Tmap_traits@EPAUtagTSVRTYPE@@U?$less@E@std@@V?$allocator@U?$pair@$$CBEPAUtagTSVRTYPE@@@std@@@3@$0A@@std@@@std@@KAAAU?$pair@$$CBEPAUtagTSVRTYPE@@@2@PAU_Node@?$_Tree_nod@V?$_Tmap_traits@EPAUtagTSVRTYPE@@U?$less@E@std@@V?$allocator@U?$pair@$$CBEPAUtagTSVRTYPE@@@std@@@3@$0A@@std@@@2@@Z PROC NEAR ; std::_Tree<std::_Tmap_traits<unsigned char,tagTSVRTYPE *,std::less<unsigned char>,std::allocator<std::pair<unsigned char const ,tagTSVRTYPE *> >,0> >::_Myval, COMDAT

; 162  : 		return ((_Vref)(*_Pnode)._Myval);

  00000	8b 44 24 04	 mov	 eax, DWORD PTR __Pnode$[esp-4]
  00004	83 c0 0c	 add	 eax, 12			; 0000000cH

; 163  : 		}

  00007	c3		 ret	 0
?_Myval@?$_Tree@V?$_Tmap_traits@EPAUtagTSVRTYPE@@U?$less@E@std@@V?$allocator@U?$pair@$$CBEPAUtagTSVRTYPE@@@std@@@3@$0A@@std@@@std@@KAAAU?$pair@$$CBEPAUtagTSVRTYPE@@@2@PAU_Node@?$_Tree_nod@V?$_Tmap_traits@EPAUtagTSVRTYPE@@U?$less@E@std@@V?$allocator@U?$pair@$$CBEPAUtagTSVRTYPE@@@std@@@3@$0A@@std@@@2@@Z ENDP ; std::_Tree<std::_Tmap_traits<unsigned char,tagTSVRTYPE *,std::less<unsigned char>,std::allocator<std::pair<unsigned char const ,tagTSVRTYPE *> >,0> >::_Myval
_TEXT	ENDS
PUBLIC	??0const_iterator@?$_Tree@V?$_Tmap_traits@EPAUtagTSVRTYPE@@U?$less@E@std@@V?$allocator@U?$pair@$$CBEPAUtagTSVRTYPE@@@std@@@3@$0A@@std@@@std@@QAE@PAU_Node@?$_Tree_nod@V?$_Tmap_traits@EPAUtagTSVRTYPE@@U?$less@E@std@@V?$allocator@U?$pair@$$CBEPAUtagTSVRTYPE@@@std@@@3@$0A@@std@@@2@@Z ; std::_Tree<std::_Tmap_traits<unsigned char,tagTSVRTYPE *,std::less<unsigned char>,std::allocator<std::pair<unsigned char const ,tagTSVRTYPE *> >,0> >::const_iterator::const_iterator
; Function compile flags: /Ogty
;	COMDAT ??0const_iterator@?$_Tree@V?$_Tmap_traits@EPAUtagTSVRTYPE@@U?$less@E@std@@V?$allocator@U?$pair@$$CBEPAUtagTSVRTYPE@@@std@@@3@$0A@@std@@@std@@QAE@PAU_Node@?$_Tree_nod@V?$_Tmap_traits@EPAUtagTSVRTYPE@@U?$less@E@std@@V?$allocator@U?$pair@$$CBEPAUtagTSVRTYPE@@@std@@@3@$0A@@std@@@2@@Z
_TEXT	SEGMENT
__Pnode$ = 8						; size = 4
??0const_iterator@?$_Tree@V?$_Tmap_traits@EPAUtagTSVRTYPE@@U?$less@E@std@@V?$allocator@U?$pair@$$CBEPAUtagTSVRTYPE@@@std@@@3@$0A@@std@@@std@@QAE@PAU_Node@?$_Tree_nod@V?$_Tmap_traits@EPAUtagTSVRTYPE@@U?$less@E@std@@V?$allocator@U?$pair@$$CBEPAUtagTSVRTYPE@@@std@@@3@$0A@@std@@@2@@Z PROC NEAR ; std::_Tree<std::_Tmap_traits<unsigned char,tagTSVRTYPE *,std::less<unsigned char>,std::allocator<std::pair<unsigned char const ,tagTSVRTYPE *> >,0> >::const_iterator::const_iterator, COMDAT
; _this$ = ecx

; 200  : 			{	// construct with node pointer _Pnode

  00000	8b c1		 mov	 eax, ecx
  00002	8b 4c 24 04	 mov	 ecx, DWORD PTR __Pnode$[esp-4]
  00006	89 08		 mov	 DWORD PTR [eax], ecx

; 201  : 			}

  00008	c2 04 00	 ret	 4
??0const_iterator@?$_Tree@V?$_Tmap_traits@EPAUtagTSVRTYPE@@U?$less@E@std@@V?$allocator@U?$pair@$$CBEPAUtagTSVRTYPE@@@std@@@3@$0A@@std@@@std@@QAE@PAU_Node@?$_Tree_nod@V?$_Tmap_traits@EPAUtagTSVRTYPE@@U?$less@E@std@@V?$allocator@U?$pair@$$CBEPAUtagTSVRTYPE@@@std@@@3@$0A@@std@@@2@@Z ENDP ; std::_Tree<std::_Tmap_traits<unsigned char,tagTSVRTYPE *,std::less<unsigned char>,std::allocator<std::pair<unsigned char const ,tagTSVRTYPE *> >,0> >::const_iterator::const_iterator
_TEXT	ENDS
PUBLIC	?_Left@?$_Tree@V?$_Tmap_traits@EPAUtagTMACHINE@@U?$less@E@std@@V?$allocator@U?$pair@$$CBEPAUtagTMACHINE@@@std@@@3@$0A@@std@@@std@@KAAAPAU_Node@?$_Tree_nod@V?$_Tmap_traits@EPAUtagTMACHINE@@U?$less@E@std@@V?$allocator@U?$pair@$$CBEPAUtagTMACHINE@@@std@@@3@$0A@@std@@@2@PAU342@@Z ; std::_Tree<std::_Tmap_traits<unsigned char,tagTMACHINE *,std::less<unsigned char>,std::allocator<std::pair<unsigned char const ,tagTMACHINE *> >,0> >::_Left
; Function compile flags: /Ogty
;	COMDAT ?_Left@?$_Tree@V?$_Tmap_traits@EPAUtagTMACHINE@@U?$less@E@std@@V?$allocator@U?$pair@$$CBEPAUtagTMACHINE@@@std@@@3@$0A@@std@@@std@@KAAAPAU_Node@?$_Tree_nod@V?$_Tmap_traits@EPAUtagTMACHINE@@U?$less@E@std@@V?$allocator@U?$pair@$$CBEPAUtagTMACHINE@@@std@@@3@$0A@@std@@@2@PAU342@@Z
_TEXT	SEGMENT
__Pnode$ = 8						; size = 4
?_Left@?$_Tree@V?$_Tmap_traits@EPAUtagTMACHINE@@U?$less@E@std@@V?$allocator@U?$pair@$$CBEPAUtagTMACHINE@@@std@@@3@$0A@@std@@@std@@KAAAPAU_Node@?$_Tree_nod@V?$_Tmap_traits@EPAUtagTMACHINE@@U?$less@E@std@@V?$allocator@U?$pair@$$CBEPAUtagTMACHINE@@@std@@@3@$0A@@std@@@2@PAU342@@Z PROC NEAR ; std::_Tree<std::_Tmap_traits<unsigned char,tagTMACHINE *,std::less<unsigned char>,std::allocator<std::pair<unsigned char const ,tagTMACHINE *> >,0> >::_Left, COMDAT

; 147  : 		return ((_Nodepref)(*_Pnode)._Left);

  00000	8b 44 24 04	 mov	 eax, DWORD PTR __Pnode$[esp-4]

; 148  : 		}

  00004	c3		 ret	 0
?_Left@?$_Tree@V?$_Tmap_traits@EPAUtagTMACHINE@@U?$less@E@std@@V?$allocator@U?$pair@$$CBEPAUtagTMACHINE@@@std@@@3@$0A@@std@@@std@@KAAAPAU_Node@?$_Tree_nod@V?$_Tmap_traits@EPAUtagTMACHINE@@U?$less@E@std@@V?$allocator@U?$pair@$$CBEPAUtagTMACHINE@@@std@@@3@$0A@@std@@@2@PAU342@@Z ENDP ; std::_Tree<std::_Tmap_traits<unsigned char,tagTMACHINE *,std::less<unsigned char>,std::allocator<std::pair<unsigned char const ,tagTMACHINE *> >,0> >::_Left
_TEXT	ENDS
PUBLIC	?_Myval@?$_Tree@V?$_Tmap_traits@EPAUtagTMACHINE@@U?$less@E@std@@V?$allocator@U?$pair@$$CBEPAUtagTMACHINE@@@std@@@3@$0A@@std@@@std@@KAAAU?$pair@$$CBEPAUtagTMACHINE@@@2@PAU_Node@?$_Tree_nod@V?$_Tmap_traits@EPAUtagTMACHINE@@U?$less@E@std@@V?$allocator@U?$pair@$$CBEPAUtagTMACHINE@@@std@@@3@$0A@@std@@@2@@Z ; std::_Tree<std::_Tmap_traits<unsigned char,tagTMACHINE *,std::less<unsigned char>,std::allocator<std::pair<unsigned char const ,tagTMACHINE *> >,0> >::_Myval
; Function compile flags: /Ogty
;	COMDAT ?_Myval@?$_Tree@V?$_Tmap_traits@EPAUtagTMACHINE@@U?$less@E@std@@V?$allocator@U?$pair@$$CBEPAUtagTMACHINE@@@std@@@3@$0A@@std@@@std@@KAAAU?$pair@$$CBEPAUtagTMACHINE@@@2@PAU_Node@?$_Tree_nod@V?$_Tmap_traits@EPAUtagTMACHINE@@U?$less@E@std@@V?$allocator@U?$pair@$$CBEPAUtagTMACHINE@@@std@@@3@$0A@@std@@@2@@Z
_TEXT	SEGMENT
__Pnode$ = 8						; size = 4
?_Myval@?$_Tree@V?$_Tmap_traits@EPAUtagTMACHINE@@U?$less@E@std@@V?$allocator@U?$pair@$$CBEPAUtagTMACHINE@@@std@@@3@$0A@@std@@@std@@KAAAU?$pair@$$CBEPAUtagTMACHINE@@@2@PAU_Node@?$_Tree_nod@V?$_Tmap_traits@EPAUtagTMACHINE@@U?$less@E@std@@V?$allocator@U?$pair@$$CBEPAUtagTMACHINE@@@std@@@3@$0A@@std@@@2@@Z PROC NEAR ; std::_Tree<std::_Tmap_traits<unsigned char,tagTMACHINE *,std::less<unsigned char>,std::allocator<std::pair<unsigned char const ,tagTMACHINE *> >,0> >::_Myval, COMDAT

; 162  : 		return ((_Vref)(*_Pnode)._Myval);

  00000	8b 44 24 04	 mov	 eax, DWORD PTR __Pnode$[esp-4]
  00004	83 c0 0c	 add	 eax, 12			; 0000000cH

; 163  : 		}

  00007	c3		 ret	 0
?_Myval@?$_Tree@V?$_Tmap_traits@EPAUtagTMACHINE@@U?$less@E@std@@V?$allocator@U?$pair@$$CBEPAUtagTMACHINE@@@std@@@3@$0A@@std@@@std@@KAAAU?$pair@$$CBEPAUtagTMACHINE@@@2@PAU_Node@?$_Tree_nod@V?$_Tmap_traits@EPAUtagTMACHINE@@U?$less@E@std@@V?$allocator@U?$pair@$$CBEPAUtagTMACHINE@@@std@@@3@$0A@@std@@@2@@Z ENDP ; std::_Tree<std::_Tmap_traits<unsigned char,tagTMACHINE *,std::less<unsigned char>,std::allocator<std::pair<unsigned char const ,tagTMACHINE *> >,0> >::_Myval
_TEXT	ENDS
PUBLIC	??0const_iterator@?$_Tree@V?$_Tmap_traits@EPAUtagTMACHINE@@U?$less@E@std@@V?$allocator@U?$pair@$$CBEPAUtagTMACHINE@@@std@@@3@$0A@@std@@@std@@QAE@PAU_Node@?$_Tree_nod@V?$_Tmap_traits@EPAUtagTMACHINE@@U?$less@E@std@@V?$allocator@U?$pair@$$CBEPAUtagTMACHINE@@@std@@@3@$0A@@std@@@2@@Z ; std::_Tree<std::_Tmap_traits<unsigned char,tagTMACHINE *,std::less<unsigned char>,std::allocator<std::pair<unsigned char const ,tagTMACHINE *> >,0> >::const_iterator::const_iterator
; Function compile flags: /Ogty
;	COMDAT ??0const_iterator@?$_Tree@V?$_Tmap_traits@EPAUtagTMACHINE@@U?$less@E@std@@V?$allocator@U?$pair@$$CBEPAUtagTMACHINE@@@std@@@3@$0A@@std@@@std@@QAE@PAU_Node@?$_Tree_nod@V?$_Tmap_traits@EPAUtagTMACHINE@@U?$less@E@std@@V?$allocator@U?$pair@$$CBEPAUtagTMACHINE@@@std@@@3@$0A@@std@@@2@@Z
_TEXT	SEGMENT
__Pnode$ = 8						; size = 4
??0const_iterator@?$_Tree@V?$_Tmap_traits@EPAUtagTMACHINE@@U?$less@E@std@@V?$allocator@U?$pair@$$CBEPAUtagTMACHINE@@@std@@@3@$0A@@std@@@std@@QAE@PAU_Node@?$_Tree_nod@V?$_Tmap_traits@EPAUtagTMACHINE@@U?$less@E@std@@V?$allocator@U?$pair@$$CBEPAUtagTMACHINE@@@std@@@3@$0A@@std@@@2@@Z PROC NEAR ; std::_Tree<std::_Tmap_traits<unsigned char,tagTMACHINE *,std::less<unsigned char>,std::allocator<std::pair<unsigned char const ,tagTMACHINE *> >,0> >::const_iterator::const_iterator, COMDAT
; _this$ = ecx

; 200  : 			{	// construct with node pointer _Pnode

  00000	8b c1		 mov	 eax, ecx
  00002	8b 4c 24 04	 mov	 ecx, DWORD PTR __Pnode$[esp-4]
  00006	89 08		 mov	 DWORD PTR [eax], ecx

; 201  : 			}

  00008	c2 04 00	 ret	 4
??0const_iterator@?$_Tree@V?$_Tmap_traits@EPAUtagTMACHINE@@U?$less@E@std@@V?$allocator@U?$pair@$$CBEPAUtagTMACHINE@@@std@@@3@$0A@@std@@@std@@QAE@PAU_Node@?$_Tree_nod@V?$_Tmap_traits@EPAUtagTMACHINE@@U?$less@E@std@@V?$allocator@U?$pair@$$CBEPAUtagTMACHINE@@@std@@@3@$0A@@std@@@2@@Z ENDP ; std::_Tree<std::_Tmap_traits<unsigned char,tagTMACHINE *,std::less<unsigned char>,std::allocator<std::pair<unsigned char const ,tagTMACHINE *> >,0> >::const_iterator::const_iterator
_TEXT	ENDS
PUBLIC	?_Left@?$_Tree@V?$_Tmap_traits@EPAUtagTGROUP@@U?$less@E@std@@V?$allocator@U?$pair@$$CBEPAUtagTGROUP@@@std@@@3@$0A@@std@@@std@@KAAAPAU_Node@?$_Tree_nod@V?$_Tmap_traits@EPAUtagTGROUP@@U?$less@E@std@@V?$allocator@U?$pair@$$CBEPAUtagTGROUP@@@std@@@3@$0A@@std@@@2@PAU342@@Z ; std::_Tree<std::_Tmap_traits<unsigned char,tagTGROUP *,std::less<unsigned char>,std::allocator<std::pair<unsigned char const ,tagTGROUP *> >,0> >::_Left
; Function compile flags: /Ogty
;	COMDAT ?_Left@?$_Tree@V?$_Tmap_traits@EPAUtagTGROUP@@U?$less@E@std@@V?$allocator@U?$pair@$$CBEPAUtagTGROUP@@@std@@@3@$0A@@std@@@std@@KAAAPAU_Node@?$_Tree_nod@V?$_Tmap_traits@EPAUtagTGROUP@@U?$less@E@std@@V?$allocator@U?$pair@$$CBEPAUtagTGROUP@@@std@@@3@$0A@@std@@@2@PAU342@@Z
_TEXT	SEGMENT
__Pnode$ = 8						; size = 4
?_Left@?$_Tree@V?$_Tmap_traits@EPAUtagTGROUP@@U?$less@E@std@@V?$allocator@U?$pair@$$CBEPAUtagTGROUP@@@std@@@3@$0A@@std@@@std@@KAAAPAU_Node@?$_Tree_nod@V?$_Tmap_traits@EPAUtagTGROUP@@U?$less@E@std@@V?$allocator@U?$pair@$$CBEPAUtagTGROUP@@@std@@@3@$0A@@std@@@2@PAU342@@Z PROC NEAR ; std::_Tree<std::_Tmap_traits<unsigned char,tagTGROUP *,std::less<unsigned char>,std::allocator<std::pair<unsigned char const ,tagTGROUP *> >,0> >::_Left, COMDAT

; 147  : 		return ((_Nodepref)(*_Pnode)._Left);

  00000	8b 44 24 04	 mov	 eax, DWORD PTR __Pnode$[esp-4]

; 148  : 		}

  00004	c3		 ret	 0
?_Left@?$_Tree@V?$_Tmap_traits@EPAUtagTGROUP@@U?$less@E@std@@V?$allocator@U?$pair@$$CBEPAUtagTGROUP@@@std@@@3@$0A@@std@@@std@@KAAAPAU_Node@?$_Tree_nod@V?$_Tmap_traits@EPAUtagTGROUP@@U?$less@E@std@@V?$allocator@U?$pair@$$CBEPAUtagTGROUP@@@std@@@3@$0A@@std@@@2@PAU342@@Z ENDP ; std::_Tree<std::_Tmap_traits<unsigned char,tagTGROUP *,std::less<unsigned char>,std::allocator<std::pair<unsigned char const ,tagTGROUP *> >,0> >::_Left
_TEXT	ENDS
PUBLIC	?_Myval@?$_Tree@V?$_Tmap_traits@EPAUtagTGROUP@@U?$less@E@std@@V?$allocator@U?$pair@$$CBEPAUtagTGROUP@@@std@@@3@$0A@@std@@@std@@KAAAU?$pair@$$CBEPAUtagTGROUP@@@2@PAU_Node@?$_Tree_nod@V?$_Tmap_traits@EPAUtagTGROUP@@U?$less@E@std@@V?$allocator@U?$pair@$$CBEPAUtagTGROUP@@@std@@@3@$0A@@std@@@2@@Z ; std::_Tree<std::_Tmap_traits<unsigned char,tagTGROUP *,std::less<unsigned char>,std::allocator<std::pair<unsigned char const ,tagTGROUP *> >,0> >::_Myval
; Function compile flags: /Ogty
;	COMDAT ?_Myval@?$_Tree@V?$_Tmap_traits@EPAUtagTGROUP@@U?$less@E@std@@V?$allocator@U?$pair@$$CBEPAUtagTGROUP@@@std@@@3@$0A@@std@@@std@@KAAAU?$pair@$$CBEPAUtagTGROUP@@@2@PAU_Node@?$_Tree_nod@V?$_Tmap_traits@EPAUtagTGROUP@@U?$less@E@std@@V?$allocator@U?$pair@$$CBEPAUtagTGROUP@@@std@@@3@$0A@@std@@@2@@Z
_TEXT	SEGMENT
__Pnode$ = 8						; size = 4
?_Myval@?$_Tree@V?$_Tmap_traits@EPAUtagTGROUP@@U?$less@E@std@@V?$allocator@U?$pair@$$CBEPAUtagTGROUP@@@std@@@3@$0A@@std@@@std@@KAAAU?$pair@$$CBEPAUtagTGROUP@@@2@PAU_Node@?$_Tree_nod@V?$_Tmap_traits@EPAUtagTGROUP@@U?$less@E@std@@V?$allocator@U?$pair@$$CBEPAUtagTGROUP@@@std@@@3@$0A@@std@@@2@@Z PROC NEAR ; std::_Tree<std::_Tmap_traits<unsigned char,tagTGROUP *,std::less<unsigned char>,std::allocator<std::pair<unsigned char const ,tagTGROUP *> >,0> >::_Myval, COMDAT

; 162  : 		return ((_Vref)(*_Pnode)._Myval);

  00000	8b 44 24 04	 mov	 eax, DWORD PTR __Pnode$[esp-4]
  00004	83 c0 0c	 add	 eax, 12			; 0000000cH

; 163  : 		}

  00007	c3		 ret	 0
?_Myval@?$_Tree@V?$_Tmap_traits@EPAUtagTGROUP@@U?$less@E@std@@V?$allocator@U?$pair@$$CBEPAUtagTGROUP@@@std@@@3@$0A@@std@@@std@@KAAAU?$pair@$$CBEPAUtagTGROUP@@@2@PAU_Node@?$_Tree_nod@V?$_Tmap_traits@EPAUtagTGROUP@@U?$less@E@std@@V?$allocator@U?$pair@$$CBEPAUtagTGROUP@@@std@@@3@$0A@@std@@@2@@Z ENDP ; std::_Tree<std::_Tmap_traits<unsigned char,tagTGROUP *,std::less<unsigned char>,std::allocator<std::pair<unsigned char const ,tagTGROUP *> >,0> >::_Myval
_TEXT	ENDS
PUBLIC	??0const_iterator@?$_Tree@V?$_Tmap_traits@EPAUtagTGROUP@@U?$less@E@std@@V?$allocator@U?$pair@$$CBEPAUtagTGROUP@@@std@@@3@$0A@@std@@@std@@QAE@PAU_Node@?$_Tree_nod@V?$_Tmap_traits@EPAUtagTGROUP@@U?$less@E@std@@V?$allocator@U?$pair@$$CBEPAUtagTGROUP@@@std@@@3@$0A@@std@@@2@@Z ; std::_Tree<std::_Tmap_traits<unsigned char,tagTGROUP *,std::less<unsigned char>,std::allocator<std::pair<unsigned char const ,tagTGROUP *> >,0> >::const_iterator::const_iterator
; Function compile flags: /Ogty
;	COMDAT ??0const_iterator@?$_Tree@V?$_Tmap_traits@EPAUtagTGROUP@@U?$less@E@std@@V?$allocator@U?$pair@$$CBEPAUtagTGROUP@@@std@@@3@$0A@@std@@@std@@QAE@PAU_Node@?$_Tree_nod@V?$_Tmap_traits@EPAUtagTGROUP@@U?$less@E@std@@V?$allocator@U?$pair@$$CBEPAUtagTGROUP@@@std@@@3@$0A@@std@@@2@@Z
_TEXT	SEGMENT
__Pnode$ = 8						; size = 4
??0const_iterator@?$_Tree@V?$_Tmap_traits@EPAUtagTGROUP@@U?$less@E@std@@V?$allocator@U?$pair@$$CBEPAUtagTGROUP@@@std@@@3@$0A@@std@@@std@@QAE@PAU_Node@?$_Tree_nod@V?$_Tmap_traits@EPAUtagTGROUP@@U?$less@E@std@@V?$allocator@U?$pair@$$CBEPAUtagTGROUP@@@std@@@3@$0A@@std@@@2@@Z PROC NEAR ; std::_Tree<std::_Tmap_traits<unsigned char,tagTGROUP *,std::less<unsigned char>,std::allocator<std::pair<unsigned char const ,tagTGROUP *> >,0> >::const_iterator::const_iterator, COMDAT
; _this$ = ecx

; 200  : 			{	// construct with node pointer _Pnode

  00000	8b c1		 mov	 eax, ecx
  00002	8b 4c 24 04	 mov	 ecx, DWORD PTR __Pnode$[esp-4]
  00006	89 08		 mov	 DWORD PTR [eax], ecx

; 201  : 			}

  00008	c2 04 00	 ret	 4
??0const_iterator@?$_Tree@V?$_Tmap_traits@EPAUtagTGROUP@@U?$less@E@std@@V?$allocator@U?$pair@$$CBEPAUtagTGROUP@@@std@@@3@$0A@@std@@@std@@QAE@PAU_Node@?$_Tree_nod@V?$_Tmap_traits@EPAUtagTGROUP@@U?$less@E@std@@V?$allocator@U?$pair@$$CBEPAUtagTGROUP@@@std@@@3@$0A@@std@@@2@@Z ENDP ; std::_Tree<std::_Tmap_traits<unsigned char,tagTGROUP *,std::less<unsigned char>,std::allocator<std::pair<unsigned char const ,tagTGROUP *> >,0> >::const_iterator::const_iterator
_TEXT	ENDS
PUBLIC	?_Left@?$_Tree@V?$_Tmap_traits@KPAUtagTSVRTEMP@@U?$less@K@std@@V?$allocator@U?$pair@$$CBKPAUtagTSVRTEMP@@@std@@@3@$0A@@std@@@std@@KAAAPAU_Node@?$_Tree_nod@V?$_Tmap_traits@KPAUtagTSVRTEMP@@U?$less@K@std@@V?$allocator@U?$pair@$$CBKPAUtagTSVRTEMP@@@std@@@3@$0A@@std@@@2@PAU342@@Z ; std::_Tree<std::_Tmap_traits<unsigned long,tagTSVRTEMP *,std::less<unsigned long>,std::allocator<std::pair<unsigned long const ,tagTSVRTEMP *> >,0> >::_Left
; Function compile flags: /Ogty
;	COMDAT ?_Left@?$_Tree@V?$_Tmap_traits@KPAUtagTSVRTEMP@@U?$less@K@std@@V?$allocator@U?$pair@$$CBKPAUtagTSVRTEMP@@@std@@@3@$0A@@std@@@std@@KAAAPAU_Node@?$_Tree_nod@V?$_Tmap_traits@KPAUtagTSVRTEMP@@U?$less@K@std@@V?$allocator@U?$pair@$$CBKPAUtagTSVRTEMP@@@std@@@3@$0A@@std@@@2@PAU342@@Z
_TEXT	SEGMENT
__Pnode$ = 8						; size = 4
?_Left@?$_Tree@V?$_Tmap_traits@KPAUtagTSVRTEMP@@U?$less@K@std@@V?$allocator@U?$pair@$$CBKPAUtagTSVRTEMP@@@std@@@3@$0A@@std@@@std@@KAAAPAU_Node@?$_Tree_nod@V?$_Tmap_traits@KPAUtagTSVRTEMP@@U?$less@K@std@@V?$allocator@U?$pair@$$CBKPAUtagTSVRTEMP@@@std@@@3@$0A@@std@@@2@PAU342@@Z PROC NEAR ; std::_Tree<std::_Tmap_traits<unsigned long,tagTSVRTEMP *,std::less<unsigned long>,std::allocator<std::pair<unsigned long const ,tagTSVRTEMP *> >,0> >::_Left, COMDAT

; 147  : 		return ((_Nodepref)(*_Pnode)._Left);

  00000	8b 44 24 04	 mov	 eax, DWORD PTR __Pnode$[esp-4]

; 148  : 		}

  00004	c3		 ret	 0
?_Left@?$_Tree@V?$_Tmap_traits@KPAUtagTSVRTEMP@@U?$less@K@std@@V?$allocator@U?$pair@$$CBKPAUtagTSVRTEMP@@@std@@@3@$0A@@std@@@std@@KAAAPAU_Node@?$_Tree_nod@V?$_Tmap_traits@KPAUtagTSVRTEMP@@U?$less@K@std@@V?$allocator@U?$pair@$$CBKPAUtagTSVRTEMP@@@std@@@3@$0A@@std@@@2@PAU342@@Z ENDP ; std::_Tree<std::_Tmap_traits<unsigned long,tagTSVRTEMP *,std::less<unsigned long>,std::allocator<std::pair<unsigned long const ,tagTSVRTEMP *> >,0> >::_Left
_TEXT	ENDS
PUBLIC	?_Myval@?$_Tree@V?$_Tmap_traits@KPAUtagTSVRTEMP@@U?$less@K@std@@V?$allocator@U?$pair@$$CBKPAUtagTSVRTEMP@@@std@@@3@$0A@@std@@@std@@KAAAU?$pair@$$CBKPAUtagTSVRTEMP@@@2@PAU_Node@?$_Tree_nod@V?$_Tmap_traits@KPAUtagTSVRTEMP@@U?$less@K@std@@V?$allocator@U?$pair@$$CBKPAUtagTSVRTEMP@@@std@@@3@$0A@@std@@@2@@Z ; std::_Tree<std::_Tmap_traits<unsigned long,tagTSVRTEMP *,std::less<unsigned long>,std::allocator<std::pair<unsigned long const ,tagTSVRTEMP *> >,0> >::_Myval
; Function compile flags: /Ogty
;	COMDAT ?_Myval@?$_Tree@V?$_Tmap_traits@KPAUtagTSVRTEMP@@U?$less@K@std@@V?$allocator@U?$pair@$$CBKPAUtagTSVRTEMP@@@std@@@3@$0A@@std@@@std@@KAAAU?$pair@$$CBKPAUtagTSVRTEMP@@@2@PAU_Node@?$_Tree_nod@V?$_Tmap_traits@KPAUtagTSVRTEMP@@U?$less@K@std@@V?$allocator@U?$pair@$$CBKPAUtagTSVRTEMP@@@std@@@3@$0A@@std@@@2@@Z
_TEXT	SEGMENT
__Pnode$ = 8						; size = 4
?_Myval@?$_Tree@V?$_Tmap_traits@KPAUtagTSVRTEMP@@U?$less@K@std@@V?$allocator@U?$pair@$$CBKPAUtagTSVRTEMP@@@std@@@3@$0A@@std@@@std@@KAAAU?$pair@$$CBKPAUtagTSVRTEMP@@@2@PAU_Node@?$_Tree_nod@V?$_Tmap_traits@KPAUtagTSVRTEMP@@U?$less@K@std@@V?$allocator@U?$pair@$$CBKPAUtagTSVRTEMP@@@std@@@3@$0A@@std@@@2@@Z PROC NEAR ; std::_Tree<std::_Tmap_traits<unsigned long,tagTSVRTEMP *,std::less<unsigned long>,std::allocator<std::pair<unsigned long const ,tagTSVRTEMP *> >,0> >::_Myval, COMDAT

; 162  : 		return ((_Vref)(*_Pnode)._Myval);

  00000	8b 44 24 04	 mov	 eax, DWORD PTR __Pnode$[esp-4]
  00004	83 c0 0c	 add	 eax, 12			; 0000000cH

; 163  : 		}

  00007	c3		 ret	 0
?_Myval@?$_Tree@V?$_Tmap_traits@KPAUtagTSVRTEMP@@U?$less@K@std@@V?$allocator@U?$pair@$$CBKPAUtagTSVRTEMP@@@std@@@3@$0A@@std@@@std@@KAAAU?$pair@$$CBKPAUtagTSVRTEMP@@@2@PAU_Node@?$_Tree_nod@V?$_Tmap_traits@KPAUtagTSVRTEMP@@U?$less@K@std@@V?$allocator@U?$pair@$$CBKPAUtagTSVRTEMP@@@std@@@3@$0A@@std@@@2@@Z ENDP ; std::_Tree<std::_Tmap_traits<unsigned long,tagTSVRTEMP *,std::less<unsigned long>,std::allocator<std::pair<unsigned long const ,tagTSVRTEMP *> >,0> >::_Myval
_TEXT	ENDS
PUBLIC	??0const_iterator@?$_Tree@V?$_Tmap_traits@KPAUtagTSVRTEMP@@U?$less@K@std@@V?$allocator@U?$pair@$$CBKPAUtagTSVRTEMP@@@std@@@3@$0A@@std@@@std@@QAE@PAU_Node@?$_Tree_nod@V?$_Tmap_traits@KPAUtagTSVRTEMP@@U?$less@K@std@@V?$allocator@U?$pair@$$CBKPAUtagTSVRTEMP@@@std@@@3@$0A@@std@@@2@@Z ; std::_Tree<std::_Tmap_traits<unsigned long,tagTSVRTEMP *,std::less<unsigned long>,std::allocator<std::pair<unsigned long const ,tagTSVRTEMP *> >,0> >::const_iterator::const_iterator
; Function compile flags: /Ogty
;	COMDAT ??0const_iterator@?$_Tree@V?$_Tmap_traits@KPAUtagTSVRTEMP@@U?$less@K@std@@V?$allocator@U?$pair@$$CBKPAUtagTSVRTEMP@@@std@@@3@$0A@@std@@@std@@QAE@PAU_Node@?$_Tree_nod@V?$_Tmap_traits@KPAUtagTSVRTEMP@@U?$less@K@std@@V?$allocator@U?$pair@$$CBKPAUtagTSVRTEMP@@@std@@@3@$0A@@std@@@2@@Z
_TEXT	SEGMENT
__Pnode$ = 8						; size = 4
??0const_iterator@?$_Tree@V?$_Tmap_traits@KPAUtagTSVRTEMP@@U?$less@K@std@@V?$allocator@U?$pair@$$CBKPAUtagTSVRTEMP@@@std@@@3@$0A@@std@@@std@@QAE@PAU_Node@?$_Tree_nod@V?$_Tmap_traits@KPAUtagTSVRTEMP@@U?$less@K@std@@V?$allocator@U?$pair@$$CBKPAUtagTSVRTEMP@@@std@@@3@$0A@@std@@@2@@Z PROC NEAR ; std::_Tree<std::_Tmap_traits<unsigned long,tagTSVRTEMP *,std::less<unsigned long>,std::allocator<std::pair<unsigned long const ,tagTSVRTEMP *> >,0> >::const_iterator::const_iterator, COMDAT
; _this$ = ecx

; 200  : 			{	// construct with node pointer _Pnode

  00000	8b c1		 mov	 eax, ecx
  00002	8b 4c 24 04	 mov	 ecx, DWORD PTR __Pnode$[esp-4]
  00006	89 08		 mov	 DWORD PTR [eax], ecx

; 201  : 			}

  00008	c2 04 00	 ret	 4
??0const_iterator@?$_Tree@V?$_Tmap_traits@KPAUtagTSVRTEMP@@U?$less@K@std@@V?$allocator@U?$pair@$$CBKPAUtagTSVRTEMP@@@std@@@3@$0A@@std@@@std@@QAE@PAU_Node@?$_Tree_nod@V?$_Tmap_traits@KPAUtagTSVRTEMP@@U?$less@K@std@@V?$allocator@U?$pair@$$CBKPAUtagTSVRTEMP@@@std@@@3@$0A@@std@@@2@@Z ENDP ; std::_Tree<std::_Tmap_traits<unsigned long,tagTSVRTEMP *,std::less<unsigned long>,std::allocator<std::pair<unsigned long const ,tagTSVRTEMP *> >,0> >::const_iterator::const_iterator
_TEXT	ENDS
PUBLIC	?_Left@?$_Tree@V?$_Tmap_traits@KPAUtagBANINFO@@U?$less@K@std@@V?$allocator@U?$pair@$$CBKPAUtagBANINFO@@@std@@@3@$0A@@std@@@std@@KAAAPAU_Node@?$_Tree_nod@V?$_Tmap_traits@KPAUtagBANINFO@@U?$less@K@std@@V?$allocator@U?$pair@$$CBKPAUtagBANINFO@@@std@@@3@$0A@@std@@@2@PAU342@@Z ; std::_Tree<std::_Tmap_traits<unsigned long,tagBANINFO *,std::less<unsigned long>,std::allocator<std::pair<unsigned long const ,tagBANINFO *> >,0> >::_Left
; Function compile flags: /Ogty
;	COMDAT ?_Left@?$_Tree@V?$_Tmap_traits@KPAUtagBANINFO@@U?$less@K@std@@V?$allocator@U?$pair@$$CBKPAUtagBANINFO@@@std@@@3@$0A@@std@@@std@@KAAAPAU_Node@?$_Tree_nod@V?$_Tmap_traits@KPAUtagBANINFO@@U?$less@K@std@@V?$allocator@U?$pair@$$CBKPAUtagBANINFO@@@std@@@3@$0A@@std@@@2@PAU342@@Z
_TEXT	SEGMENT
__Pnode$ = 8						; size = 4
?_Left@?$_Tree@V?$_Tmap_traits@KPAUtagBANINFO@@U?$less@K@std@@V?$allocator@U?$pair@$$CBKPAUtagBANINFO@@@std@@@3@$0A@@std@@@std@@KAAAPAU_Node@?$_Tree_nod@V?$_Tmap_traits@KPAUtagBANINFO@@U?$less@K@std@@V?$allocator@U?$pair@$$CBKPAUtagBANINFO@@@std@@@3@$0A@@std@@@2@PAU342@@Z PROC NEAR ; std::_Tree<std::_Tmap_traits<unsigned long,tagBANINFO *,std::less<unsigned long>,std::allocator<std::pair<unsigned long const ,tagBANINFO *> >,0> >::_Left, COMDAT

; 147  : 		return ((_Nodepref)(*_Pnode)._Left);

  00000	8b 44 24 04	 mov	 eax, DWORD PTR __Pnode$[esp-4]

; 148  : 		}

  00004	c3		 ret	 0
?_Left@?$_Tree@V?$_Tmap_traits@KPAUtagBANINFO@@U?$less@K@std@@V?$allocator@U?$pair@$$CBKPAUtagBANINFO@@@std@@@3@$0A@@std@@@std@@KAAAPAU_Node@?$_Tree_nod@V?$_Tmap_traits@KPAUtagBANINFO@@U?$less@K@std@@V?$allocator@U?$pair@$$CBKPAUtagBANINFO@@@std@@@3@$0A@@std@@@2@PAU342@@Z ENDP ; std::_Tree<std::_Tmap_traits<unsigned long,tagBANINFO *,std::less<unsigned long>,std::allocator<std::pair<unsigned long const ,tagBANINFO *> >,0> >::_Left
_TEXT	ENDS
PUBLIC	?_Myval@?$_Tree@V?$_Tmap_traits@KPAUtagBANINFO@@U?$less@K@std@@V?$allocator@U?$pair@$$CBKPAUtagBANINFO@@@std@@@3@$0A@@std@@@std@@KAAAU?$pair@$$CBKPAUtagBANINFO@@@2@PAU_Node@?$_Tree_nod@V?$_Tmap_traits@KPAUtagBANINFO@@U?$less@K@std@@V?$allocator@U?$pair@$$CBKPAUtagBANINFO@@@std@@@3@$0A@@std@@@2@@Z ; std::_Tree<std::_Tmap_traits<unsigned long,tagBANINFO *,std::less<unsigned long>,std::allocator<std::pair<unsigned long const ,tagBANINFO *> >,0> >::_Myval
; Function compile flags: /Ogty
;	COMDAT ?_Myval@?$_Tree@V?$_Tmap_traits@KPAUtagBANINFO@@U?$less@K@std@@V?$allocator@U?$pair@$$CBKPAUtagBANINFO@@@std@@@3@$0A@@std@@@std@@KAAAU?$pair@$$CBKPAUtagBANINFO@@@2@PAU_Node@?$_Tree_nod@V?$_Tmap_traits@KPAUtagBANINFO@@U?$less@K@std@@V?$allocator@U?$pair@$$CBKPAUtagBANINFO@@@std@@@3@$0A@@std@@@2@@Z
_TEXT	SEGMENT
__Pnode$ = 8						; size = 4
?_Myval@?$_Tree@V?$_Tmap_traits@KPAUtagBANINFO@@U?$less@K@std@@V?$allocator@U?$pair@$$CBKPAUtagBANINFO@@@std@@@3@$0A@@std@@@std@@KAAAU?$pair@$$CBKPAUtagBANINFO@@@2@PAU_Node@?$_Tree_nod@V?$_Tmap_traits@KPAUtagBANINFO@@U?$less@K@std@@V?$allocator@U?$pair@$$CBKPAUtagBANINFO@@@std@@@3@$0A@@std@@@2@@Z PROC NEAR ; std::_Tree<std::_Tmap_traits<unsigned long,tagBANINFO *,std::less<unsigned long>,std::allocator<std::pair<unsigned long const ,tagBANINFO *> >,0> >::_Myval, COMDAT

; 162  : 		return ((_Vref)(*_Pnode)._Myval);

  00000	8b 44 24 04	 mov	 eax, DWORD PTR __Pnode$[esp-4]
  00004	83 c0 0c	 add	 eax, 12			; 0000000cH

; 163  : 		}

  00007	c3		 ret	 0
?_Myval@?$_Tree@V?$_Tmap_traits@KPAUtagBANINFO@@U?$less@K@std@@V?$allocator@U?$pair@$$CBKPAUtagBANINFO@@@std@@@3@$0A@@std@@@std@@KAAAU?$pair@$$CBKPAUtagBANINFO@@@2@PAU_Node@?$_Tree_nod@V?$_Tmap_traits@KPAUtagBANINFO@@U?$less@K@std@@V?$allocator@U?$pair@$$CBKPAUtagBANINFO@@@std@@@3@$0A@@std@@@2@@Z ENDP ; std::_Tree<std::_Tmap_traits<unsigned long,tagBANINFO *,std::less<unsigned long>,std::allocator<std::pair<unsigned long const ,tagBANINFO *> >,0> >::_Myval
_TEXT	ENDS
PUBLIC	??0const_iterator@?$_Tree@V?$_Tmap_traits@KPAUtagBANINFO@@U?$less@K@std@@V?$allocator@U?$pair@$$CBKPAUtagBANINFO@@@std@@@3@$0A@@std@@@std@@QAE@PAU_Node@?$_Tree_nod@V?$_Tmap_traits@KPAUtagBANINFO@@U?$less@K@std@@V?$allocator@U?$pair@$$CBKPAUtagBANINFO@@@std@@@3@$0A@@std@@@2@@Z ; std::_Tree<std::_Tmap_traits<unsigned long,tagBANINFO *,std::less<unsigned long>,std::allocator<std::pair<unsigned long const ,tagBANINFO *> >,0> >::const_iterator::const_iterator
; Function compile flags: /Ogty
;	COMDAT ??0const_iterator@?$_Tree@V?$_Tmap_traits@KPAUtagBANINFO@@U?$less@K@std@@V?$allocator@U?$pair@$$CBKPAUtagBANINFO@@@std@@@3@$0A@@std@@@std@@QAE@PAU_Node@?$_Tree_nod@V?$_Tmap_traits@KPAUtagBANINFO@@U?$less@K@std@@V?$allocator@U?$pair@$$CBKPAUtagBANINFO@@@std@@@3@$0A@@std@@@2@@Z
_TEXT	SEGMENT
__Pnode$ = 8						; size = 4
??0const_iterator@?$_Tree@V?$_Tmap_traits@KPAUtagBANINFO@@U?$less@K@std@@V?$allocator@U?$pair@$$CBKPAUtagBANINFO@@@std@@@3@$0A@@std@@@std@@QAE@PAU_Node@?$_Tree_nod@V?$_Tmap_traits@KPAUtagBANINFO@@U?$less@K@std@@V?$allocator@U?$pair@$$CBKPAUtagBANINFO@@@std@@@3@$0A@@std@@@2@@Z PROC NEAR ; std::_Tree<std::_Tmap_traits<unsigned long,tagBANINFO *,std::less<unsigned long>,std::allocator<std::pair<unsigned long const ,tagBANINFO *> >,0> >::const_iterator::const_iterator, COMDAT
; _this$ = ecx

; 200  : 			{	// construct with node pointer _Pnode

  00000	8b c1		 mov	 eax, ecx
  00002	8b 4c 24 04	 mov	 ecx, DWORD PTR __Pnode$[esp-4]
  00006	89 08		 mov	 DWORD PTR [eax], ecx

; 201  : 			}

  00008	c2 04 00	 ret	 4
??0const_iterator@?$_Tree@V?$_Tmap_traits@KPAUtagBANINFO@@U?$less@K@std@@V?$allocator@U?$pair@$$CBKPAUtagBANINFO@@@std@@@3@$0A@@std@@@std@@QAE@PAU_Node@?$_Tree_nod@V?$_Tmap_traits@KPAUtagBANINFO@@U?$less@K@std@@V?$allocator@U?$pair@$$CBKPAUtagBANINFO@@@std@@@3@$0A@@std@@@2@@Z ENDP ; std::_Tree<std::_Tmap_traits<unsigned long,tagBANINFO *,std::less<unsigned long>,std::allocator<std::pair<unsigned long const ,tagBANINFO *> >,0> >::const_iterator::const_iterator
_TEXT	ENDS
PUBLIC	?_Left@?$_Tree@V?$_Tmap_traits@KUtagEVENTINFO@@U?$less@K@std@@V?$allocator@U?$pair@$$CBKUtagEVENTINFO@@@std@@@3@$0A@@std@@@std@@KAAAPAU_Node@?$_Tree_nod@V?$_Tmap_traits@KUtagEVENTINFO@@U?$less@K@std@@V?$allocator@U?$pair@$$CBKUtagEVENTINFO@@@std@@@3@$0A@@std@@@2@PAU342@@Z ; std::_Tree<std::_Tmap_traits<unsigned long,tagEVENTINFO,std::less<unsigned long>,std::allocator<std::pair<unsigned long const ,tagEVENTINFO> >,0> >::_Left
; Function compile flags: /Ogty
;	COMDAT ?_Left@?$_Tree@V?$_Tmap_traits@KUtagEVENTINFO@@U?$less@K@std@@V?$allocator@U?$pair@$$CBKUtagEVENTINFO@@@std@@@3@$0A@@std@@@std@@KAAAPAU_Node@?$_Tree_nod@V?$_Tmap_traits@KUtagEVENTINFO@@U?$less@K@std@@V?$allocator@U?$pair@$$CBKUtagEVENTINFO@@@std@@@3@$0A@@std@@@2@PAU342@@Z
_TEXT	SEGMENT
__Pnode$ = 8						; size = 4
?_Left@?$_Tree@V?$_Tmap_traits@KUtagEVENTINFO@@U?$less@K@std@@V?$allocator@U?$pair@$$CBKUtagEVENTINFO@@@std@@@3@$0A@@std@@@std@@KAAAPAU_Node@?$_Tree_nod@V?$_Tmap_traits@KUtagEVENTINFO@@U?$less@K@std@@V?$allocator@U?$pair@$$CBKUtagEVENTINFO@@@std@@@3@$0A@@std@@@2@PAU342@@Z PROC NEAR ; std::_Tree<std::_Tmap_traits<unsigned long,tagEVENTINFO,std::less<unsigned long>,std::allocator<std::pair<unsigned long const ,tagEVENTINFO> >,0> >::_Left, COMDAT

; 147  : 		return ((_Nodepref)(*_Pnode)._Left);

  00000	8b 44 24 04	 mov	 eax, DWORD PTR __Pnode$[esp-4]

; 148  : 		}

  00004	c3		 ret	 0
?_Left@?$_Tree@V?$_Tmap_traits@KUtagEVENTINFO@@U?$less@K@std@@V?$allocator@U?$pair@$$CBKUtagEVENTINFO@@@std@@@3@$0A@@std@@@std@@KAAAPAU_Node@?$_Tree_nod@V?$_Tmap_traits@KUtagEVENTINFO@@U?$less@K@std@@V?$allocator@U?$pair@$$CBKUtagEVENTINFO@@@std@@@3@$0A@@std@@@2@PAU342@@Z ENDP ; std::_Tree<std::_Tmap_traits<unsigned long,tagEVENTINFO,std::less<unsigned long>,std::allocator<std::pair<unsigned long const ,tagEVENTINFO> >,0> >::_Left
_TEXT	ENDS
PUBLIC	?_Myval@?$_Tree@V?$_Tmap_traits@KUtagEVENTINFO@@U?$less@K@std@@V?$allocator@U?$pair@$$CBKUtagEVENTINFO@@@std@@@3@$0A@@std@@@std@@KAAAU?$pair@$$CBKUtagEVENTINFO@@@2@PAU_Node@?$_Tree_nod@V?$_Tmap_traits@KUtagEVENTINFO@@U?$less@K@std@@V?$allocator@U?$pair@$$CBKUtagEVENTINFO@@@std@@@3@$0A@@std@@@2@@Z ; std::_Tree<std::_Tmap_traits<unsigned long,tagEVENTINFO,std::less<unsigned long>,std::allocator<std::pair<unsigned long const ,tagEVENTINFO> >,0> >::_Myval
; Function compile flags: /Ogty
;	COMDAT ?_Myval@?$_Tree@V?$_Tmap_traits@KUtagEVENTINFO@@U?$less@K@std@@V?$allocator@U?$pair@$$CBKUtagEVENTINFO@@@std@@@3@$0A@@std@@@std@@KAAAU?$pair@$$CBKUtagEVENTINFO@@@2@PAU_Node@?$_Tree_nod@V?$_Tmap_traits@KUtagEVENTINFO@@U?$less@K@std@@V?$allocator@U?$pair@$$CBKUtagEVENTINFO@@@std@@@3@$0A@@std@@@2@@Z
_TEXT	SEGMENT
__Pnode$ = 8						; size = 4
?_Myval@?$_Tree@V?$_Tmap_traits@KUtagEVENTINFO@@U?$less@K@std@@V?$allocator@U?$pair@$$CBKUtagEVENTINFO@@@std@@@3@$0A@@std@@@std@@KAAAU?$pair@$$CBKUtagEVENTINFO@@@2@PAU_Node@?$_Tree_nod@V?$_Tmap_traits@KUtagEVENTINFO@@U?$less@K@std@@V?$allocator@U?$pair@$$CBKUtagEVENTINFO@@@std@@@3@$0A@@std@@@2@@Z PROC NEAR ; std::_Tree<std::_Tmap_traits<unsigned long,tagEVENTINFO,std::less<unsigned long>,std::allocator<std::pair<unsigned long const ,tagEVENTINFO> >,0> >::_Myval, COMDAT

; 162  : 		return ((_Vref)(*_Pnode)._Myval);

  00000	8b 44 24 04	 mov	 eax, DWORD PTR __Pnode$[esp-4]
  00004	83 c0 10	 add	 eax, 16			; 00000010H

; 163  : 		}

  00007	c3		 ret	 0
?_Myval@?$_Tree@V?$_Tmap_traits@KUtagEVENTINFO@@U?$less@K@std@@V?$allocator@U?$pair@$$CBKUtagEVENTINFO@@@std@@@3@$0A@@std@@@std@@KAAAU?$pair@$$CBKUtagEVENTINFO@@@2@PAU_Node@?$_Tree_nod@V?$_Tmap_traits@KUtagEVENTINFO@@U?$less@K@std@@V?$allocator@U?$pair@$$CBKUtagEVENTINFO@@@std@@@3@$0A@@std@@@2@@Z ENDP ; std::_Tree<std::_Tmap_traits<unsigned long,tagEVENTINFO,std::less<unsigned long>,std::allocator<std::pair<unsigned long const ,tagEVENTINFO> >,0> >::_Myval
_TEXT	ENDS
PUBLIC	??0const_iterator@?$_Tree@V?$_Tmap_traits@KUtagEVENTINFO@@U?$less@K@std@@V?$allocator@U?$pair@$$CBKUtagEVENTINFO@@@std@@@3@$0A@@std@@@std@@QAE@PAU_Node@?$_Tree_nod@V?$_Tmap_traits@KUtagEVENTINFO@@U?$less@K@std@@V?$allocator@U?$pair@$$CBKUtagEVENTINFO@@@std@@@3@$0A@@std@@@2@@Z ; std::_Tree<std::_Tmap_traits<unsigned long,tagEVENTINFO,std::less<unsigned long>,std::allocator<std::pair<unsigned long const ,tagEVENTINFO> >,0> >::const_iterator::const_iterator
; Function compile flags: /Ogty
;	COMDAT ??0const_iterator@?$_Tree@V?$_Tmap_traits@KUtagEVENTINFO@@U?$less@K@std@@V?$allocator@U?$pair@$$CBKUtagEVENTINFO@@@std@@@3@$0A@@std@@@std@@QAE@PAU_Node@?$_Tree_nod@V?$_Tmap_traits@KUtagEVENTINFO@@U?$less@K@std@@V?$allocator@U?$pair@$$CBKUtagEVENTINFO@@@std@@@3@$0A@@std@@@2@@Z
_TEXT	SEGMENT
__Pnode$ = 8						; size = 4
??0const_iterator@?$_Tree@V?$_Tmap_traits@KUtagEVENTINFO@@U?$less@K@std@@V?$allocator@U?$pair@$$CBKUtagEVENTINFO@@@std@@@3@$0A@@std@@@std@@QAE@PAU_Node@?$_Tree_nod@V?$_Tmap_traits@KUtagEVENTINFO@@U?$less@K@std@@V?$allocator@U?$pair@$$CBKUtagEVENTINFO@@@std@@@3@$0A@@std@@@2@@Z PROC NEAR ; std::_Tree<std::_Tmap_traits<unsigned long,tagEVENTINFO,std::less<unsigned long>,std::allocator<std::pair<unsigned long const ,tagEVENTINFO> >,0> >::const_iterator::const_iterator, COMDAT
; _this$ = ecx

; 200  : 			{	// construct with node pointer _Pnode

  00000	8b c1		 mov	 eax, ecx
  00002	8b 4c 24 04	 mov	 ecx, DWORD PTR __Pnode$[esp-4]
  00006	89 08		 mov	 DWORD PTR [eax], ecx

; 201  : 			}

  00008	c2 04 00	 ret	 4
??0const_iterator@?$_Tree@V?$_Tmap_traits@KUtagEVENTINFO@@U?$less@K@std@@V?$allocator@U?$pair@$$CBKUtagEVENTINFO@@@std@@@3@$0A@@std@@@std@@QAE@PAU_Node@?$_Tree_nod@V?$_Tmap_traits@KUtagEVENTINFO@@U?$less@K@std@@V?$allocator@U?$pair@$$CBKUtagEVENTINFO@@@std@@@3@$0A@@std@@@2@@Z ENDP ; std::_Tree<std::_Tmap_traits<unsigned long,tagEVENTINFO,std::less<unsigned long>,std::allocator<std::pair<unsigned long const ,tagEVENTINFO> >,0> >::const_iterator::const_iterator
_TEXT	ENDS
PUBLIC	??Yiterator@?$vector@UtagTCASHITEM@@V?$allocator@UtagTCASHITEM@@@std@@@std@@QAEAAV012@H@Z ; std::vector<tagTCASHITEM,std::allocator<tagTCASHITEM> >::iterator::operator+=
; Function compile flags: /Ogty
; File c:\program files (x86)\microsoft visual studio .net 2003\vc7\include\vector
;	COMDAT ??Yiterator@?$vector@UtagTCASHITEM@@V?$allocator@UtagTCASHITEM@@@std@@@std@@QAEAAV012@H@Z
_TEXT	SEGMENT
__Off$ = 8						; size = 4
??Yiterator@?$vector@UtagTCASHITEM@@V?$allocator@UtagTCASHITEM@@@std@@@std@@QAEAAV012@H@Z PROC NEAR ; std::vector<tagTCASHITEM,std::allocator<tagTCASHITEM> >::iterator::operator+=, COMDAT
; _this$ = ecx

; 255  : 			{	// increment by integer

  00000	8b c1		 mov	 eax, ecx

; 256  : 			this->_Myptr += _Off;

  00002	8b 4c 24 04	 mov	 ecx, DWORD PTR __Off$[esp-4]
  00006	8d 14 cd 00 00
	00 00		 lea	 edx, DWORD PTR [ecx*8]
  0000d	01 10		 add	 DWORD PTR [eax], edx

; 257  : 			return (*this);
; 258  : 			}

  0000f	c2 04 00	 ret	 4
??Yiterator@?$vector@UtagTCASHITEM@@V?$allocator@UtagTCASHITEM@@@std@@@std@@QAEAAV012@H@Z ENDP ; std::vector<tagTCASHITEM,std::allocator<tagTCASHITEM> >::iterator::operator+=
_TEXT	ENDS
PUBLIC	??Dconst_iterator@?$vector@UtagTCASHITEM@@V?$allocator@UtagTCASHITEM@@@std@@@std@@QBEABUtagTCASHITEM@@XZ ; std::vector<tagTCASHITEM,std::allocator<tagTCASHITEM> >::const_iterator::operator*
; Function compile flags: /Ogty
;	COMDAT ??Dconst_iterator@?$vector@UtagTCASHITEM@@V?$allocator@UtagTCASHITEM@@@std@@@std@@QBEABUtagTCASHITEM@@XZ
_TEXT	SEGMENT
??Dconst_iterator@?$vector@UtagTCASHITEM@@V?$allocator@UtagTCASHITEM@@@std@@@std@@QBEABUtagTCASHITEM@@XZ PROC NEAR ; std::vector<tagTCASHITEM,std::allocator<tagTCASHITEM> >::const_iterator::operator*, COMDAT
; _this$ = ecx

; 80   : 
; 81   : 
; 82   : 			return (*_Myptr);

  00000	8b 01		 mov	 eax, DWORD PTR [ecx]

; 83   : 			}

  00002	c3		 ret	 0
??Dconst_iterator@?$vector@UtagTCASHITEM@@V?$allocator@UtagTCASHITEM@@@std@@@std@@QBEABUtagTCASHITEM@@XZ ENDP ; std::vector<tagTCASHITEM,std::allocator<tagTCASHITEM> >::const_iterator::operator*
_TEXT	ENDS
PUBLIC	??Yiterator@?$vector@UtagPATCHFILE@@V?$allocator@UtagPATCHFILE@@@std@@@std@@QAEAAV012@H@Z ; std::vector<tagPATCHFILE,std::allocator<tagPATCHFILE> >::iterator::operator+=
; Function compile flags: /Ogty
;	COMDAT ??Yiterator@?$vector@UtagPATCHFILE@@V?$allocator@UtagPATCHFILE@@@std@@@std@@QAEAAV012@H@Z
_TEXT	SEGMENT
__Off$ = 8						; size = 4
??Yiterator@?$vector@UtagPATCHFILE@@V?$allocator@UtagPATCHFILE@@@std@@@std@@QAEAAV012@H@Z PROC NEAR ; std::vector<tagPATCHFILE,std::allocator<tagPATCHFILE> >::iterator::operator+=, COMDAT
; _this$ = ecx

; 255  : 			{	// increment by integer

  00000	8b c1		 mov	 eax, ecx

; 256  : 			this->_Myptr += _Off;

  00002	8b 4c 24 04	 mov	 ecx, DWORD PTR __Off$[esp-4]
  00006	8b 10		 mov	 edx, DWORD PTR [eax]
  00008	c1 e1 04	 shl	 ecx, 4
  0000b	03 d1		 add	 edx, ecx
  0000d	89 10		 mov	 DWORD PTR [eax], edx

; 257  : 			return (*this);
; 258  : 			}

  0000f	c2 04 00	 ret	 4
??Yiterator@?$vector@UtagPATCHFILE@@V?$allocator@UtagPATCHFILE@@@std@@@std@@QAEAAV012@H@Z ENDP ; std::vector<tagPATCHFILE,std::allocator<tagPATCHFILE> >::iterator::operator+=
_TEXT	ENDS
PUBLIC	??Dconst_iterator@?$vector@UtagPATCHFILE@@V?$allocator@UtagPATCHFILE@@@std@@@std@@QBEABUtagPATCHFILE@@XZ ; std::vector<tagPATCHFILE,std::allocator<tagPATCHFILE> >::const_iterator::operator*
; Function compile flags: /Ogty
;	COMDAT ??Dconst_iterator@?$vector@UtagPATCHFILE@@V?$allocator@UtagPATCHFILE@@@std@@@std@@QBEABUtagPATCHFILE@@XZ
_TEXT	SEGMENT
??Dconst_iterator@?$vector@UtagPATCHFILE@@V?$allocator@UtagPATCHFILE@@@std@@@std@@QBEABUtagPATCHFILE@@XZ PROC NEAR ; std::vector<tagPATCHFILE,std::allocator<tagPATCHFILE> >::const_iterator::operator*, COMDAT
; _this$ = ecx

; 80   : 
; 81   : 
; 82   : 			return (*_Myptr);

  00000	8b 01		 mov	 eax, DWORD PTR [ecx]

; 83   : 			}

  00002	c3		 ret	 0
??Dconst_iterator@?$vector@UtagPATCHFILE@@V?$allocator@UtagPATCHFILE@@@std@@@std@@QBEABUtagPATCHFILE@@XZ ENDP ; std::vector<tagPATCHFILE,std::allocator<tagPATCHFILE> >::const_iterator::operator*
_TEXT	ENDS
PUBLIC	??0const_iterator@?$vector@UtagTCASHITEM@@V?$allocator@UtagTCASHITEM@@@std@@@std@@QAE@PAUtagTCASHITEM@@@Z ; std::vector<tagTCASHITEM,std::allocator<tagTCASHITEM> >::const_iterator::const_iterator
; Function compile flags: /Ogty
;	COMDAT ??0const_iterator@?$vector@UtagTCASHITEM@@V?$allocator@UtagTCASHITEM@@@std@@@std@@QAE@PAUtagTCASHITEM@@@Z
_TEXT	SEGMENT
__Ptr$ = 8						; size = 4
??0const_iterator@?$vector@UtagTCASHITEM@@V?$allocator@UtagTCASHITEM@@@std@@@std@@QAE@PAUtagTCASHITEM@@@Z PROC NEAR ; std::vector<tagTCASHITEM,std::allocator<tagTCASHITEM> >::const_iterator::const_iterator, COMDAT
; _this$ = ecx

; 73   : 		const_iterator(_Tptr _Ptr)

  00000	8b c1		 mov	 eax, ecx

; 74   : 			{	// construct with pointer _Ptr
; 75   : 			_Myptr = _Ptr;

  00002	8b 4c 24 04	 mov	 ecx, DWORD PTR __Ptr$[esp-4]
  00006	89 08		 mov	 DWORD PTR [eax], ecx

; 76   : 			}

  00008	c2 04 00	 ret	 4
??0const_iterator@?$vector@UtagTCASHITEM@@V?$allocator@UtagTCASHITEM@@@std@@@std@@QAE@PAUtagTCASHITEM@@@Z ENDP ; std::vector<tagTCASHITEM,std::allocator<tagTCASHITEM> >::const_iterator::const_iterator
_TEXT	ENDS
PUBLIC	??0const_iterator@?$vector@UtagPATCHFILE@@V?$allocator@UtagPATCHFILE@@@std@@@std@@QAE@PAUtagPATCHFILE@@@Z ; std::vector<tagPATCHFILE,std::allocator<tagPATCHFILE> >::const_iterator::const_iterator
; Function compile flags: /Ogty
;	COMDAT ??0const_iterator@?$vector@UtagPATCHFILE@@V?$allocator@UtagPATCHFILE@@@std@@@std@@QAE@PAUtagPATCHFILE@@@Z
_TEXT	SEGMENT
__Ptr$ = 8						; size = 4
??0const_iterator@?$vector@UtagPATCHFILE@@V?$allocator@UtagPATCHFILE@@@std@@@std@@QAE@PAUtagPATCHFILE@@@Z PROC NEAR ; std::vector<tagPATCHFILE,std::allocator<tagPATCHFILE> >::const_iterator::const_iterator, COMDAT
; _this$ = ecx

; 73   : 		const_iterator(_Tptr _Ptr)

  00000	8b c1		 mov	 eax, ecx

; 74   : 			{	// construct with pointer _Ptr
; 75   : 			_Myptr = _Ptr;

  00002	8b 4c 24 04	 mov	 ecx, DWORD PTR __Ptr$[esp-4]
  00006	89 08		 mov	 DWORD PTR [eax], ecx

; 76   : 			}

  00008	c2 04 00	 ret	 4
??0const_iterator@?$vector@UtagPATCHFILE@@V?$allocator@UtagPATCHFILE@@@std@@@std@@QAE@PAUtagPATCHFILE@@@Z ENDP ; std::vector<tagPATCHFILE,std::allocator<tagPATCHFILE> >::const_iterator::const_iterator
_TEXT	ENDS
PUBLIC	?_Isnil@?$_Tree@V?$_Tmap_traits@EPAUtagTSVRTYPE@@U?$less@E@std@@V?$allocator@U?$pair@$$CBEPAUtagTSVRTYPE@@@std@@@3@$0A@@std@@@std@@KAAADPAU_Node@?$_Tree_nod@V?$_Tmap_traits@EPAUtagTSVRTYPE@@U?$less@E@std@@V?$allocator@U?$pair@$$CBEPAUtagTSVRTYPE@@@std@@@3@$0A@@std@@@2@@Z ; std::_Tree<std::_Tmap_traits<unsigned char,tagTSVRTYPE *,std::less<unsigned char>,std::allocator<std::pair<unsigned char const ,tagTSVRTYPE *> >,0> >::_Isnil
; Function compile flags: /Ogty
; File c:\program files (x86)\microsoft visual studio .net 2003\vc7\include\xtree
;	COMDAT ?_Isnil@?$_Tree@V?$_Tmap_traits@EPAUtagTSVRTYPE@@U?$less@E@std@@V?$allocator@U?$pair@$$CBEPAUtagTSVRTYPE@@@std@@@3@$0A@@std@@@std@@KAAADPAU_Node@?$_Tree_nod@V?$_Tmap_traits@EPAUtagTSVRTYPE@@U?$less@E@std@@V?$allocator@U?$pair@$$CBEPAUtagTSVRTYPE@@@std@@@3@$0A@@std@@@2@@Z
_TEXT	SEGMENT
__Pnode$ = 8						; size = 4
?_Isnil@?$_Tree@V?$_Tmap_traits@EPAUtagTSVRTYPE@@U?$less@E@std@@V?$allocator@U?$pair@$$CBEPAUtagTSVRTYPE@@@std@@@3@$0A@@std@@@std@@KAAADPAU_Node@?$_Tree_nod@V?$_Tmap_traits@EPAUtagTSVRTYPE@@U?$less@E@std@@V?$allocator@U?$pair@$$CBEPAUtagTSVRTYPE@@@std@@@3@$0A@@std@@@2@@Z PROC NEAR ; std::_Tree<std::_Tmap_traits<unsigned char,tagTSVRTYPE *,std::less<unsigned char>,std::allocator<std::pair<unsigned char const ,tagTSVRTYPE *> >,0> >::_Isnil, COMDAT

; 137  : 		return ((_Charref)(*_Pnode)._Isnil);

  00000	8b 44 24 04	 mov	 eax, DWORD PTR __Pnode$[esp-4]
  00004	83 c0 15	 add	 eax, 21			; 00000015H

; 138  : 		}

  00007	c3		 ret	 0
?_Isnil@?$_Tree@V?$_Tmap_traits@EPAUtagTSVRTYPE@@U?$less@E@std@@V?$allocator@U?$pair@$$CBEPAUtagTSVRTYPE@@@std@@@3@$0A@@std@@@std@@KAAADPAU_Node@?$_Tree_nod@V?$_Tmap_traits@EPAUtagTSVRTYPE@@U?$less@E@std@@V?$allocator@U?$pair@$$CBEPAUtagTSVRTYPE@@@std@@@3@$0A@@std@@@2@@Z ENDP ; std::_Tree<std::_Tmap_traits<unsigned char,tagTSVRTYPE *,std::less<unsigned char>,std::allocator<std::pair<unsigned char const ,tagTSVRTYPE *> >,0> >::_Isnil
_TEXT	ENDS
PUBLIC	?_Parent@?$_Tree@V?$_Tmap_traits@EPAUtagTSVRTYPE@@U?$less@E@std@@V?$allocator@U?$pair@$$CBEPAUtagTSVRTYPE@@@std@@@3@$0A@@std@@@std@@KAAAPAU_Node@?$_Tree_nod@V?$_Tmap_traits@EPAUtagTSVRTYPE@@U?$less@E@std@@V?$allocator@U?$pair@$$CBEPAUtagTSVRTYPE@@@std@@@3@$0A@@std@@@2@PAU342@@Z ; std::_Tree<std::_Tmap_traits<unsigned char,tagTSVRTYPE *,std::less<unsigned char>,std::allocator<std::pair<unsigned char const ,tagTSVRTYPE *> >,0> >::_Parent
; Function compile flags: /Ogty
;	COMDAT ?_Parent@?$_Tree@V?$_Tmap_traits@EPAUtagTSVRTYPE@@U?$less@E@std@@V?$allocator@U?$pair@$$CBEPAUtagTSVRTYPE@@@std@@@3@$0A@@std@@@std@@KAAAPAU_Node@?$_Tree_nod@V?$_Tmap_traits@EPAUtagTSVRTYPE@@U?$less@E@std@@V?$allocator@U?$pair@$$CBEPAUtagTSVRTYPE@@@std@@@3@$0A@@std@@@2@PAU342@@Z
_TEXT	SEGMENT
__Pnode$ = 8						; size = 4
?_Parent@?$_Tree@V?$_Tmap_traits@EPAUtagTSVRTYPE@@U?$less@E@std@@V?$allocator@U?$pair@$$CBEPAUtagTSVRTYPE@@@std@@@3@$0A@@std@@@std@@KAAAPAU_Node@?$_Tree_nod@V?$_Tmap_traits@EPAUtagTSVRTYPE@@U?$less@E@std@@V?$allocator@U?$pair@$$CBEPAUtagTSVRTYPE@@@std@@@3@$0A@@std@@@2@PAU342@@Z PROC NEAR ; std::_Tree<std::_Tmap_traits<unsigned char,tagTSVRTYPE *,std::less<unsigned char>,std::allocator<std::pair<unsigned char const ,tagTSVRTYPE *> >,0> >::_Parent, COMDAT

; 152  : 		return ((_Nodepref)(*_Pnode)._Parent);

  00000	8b 44 24 04	 mov	 eax, DWORD PTR __Pnode$[esp-4]
  00004	83 c0 04	 add	 eax, 4

; 153  : 		}

  00007	c3		 ret	 0
?_Parent@?$_Tree@V?$_Tmap_traits@EPAUtagTSVRTYPE@@U?$less@E@std@@V?$allocator@U?$pair@$$CBEPAUtagTSVRTYPE@@@std@@@3@$0A@@std@@@std@@KAAAPAU_Node@?$_Tree_nod@V?$_Tmap_traits@EPAUtagTSVRTYPE@@U?$less@E@std@@V?$allocator@U?$pair@$$CBEPAUtagTSVRTYPE@@@std@@@3@$0A@@std@@@2@PAU342@@Z ENDP ; std::_Tree<std::_Tmap_traits<unsigned char,tagTSVRTYPE *,std::less<unsigned char>,std::allocator<std::pair<unsigned char const ,tagTSVRTYPE *> >,0> >::_Parent
_TEXT	ENDS
PUBLIC	?_Right@?$_Tree@V?$_Tmap_traits@EPAUtagTSVRTYPE@@U?$less@E@std@@V?$allocator@U?$pair@$$CBEPAUtagTSVRTYPE@@@std@@@3@$0A@@std@@@std@@KAAAPAU_Node@?$_Tree_nod@V?$_Tmap_traits@EPAUtagTSVRTYPE@@U?$less@E@std@@V?$allocator@U?$pair@$$CBEPAUtagTSVRTYPE@@@std@@@3@$0A@@std@@@2@PAU342@@Z ; std::_Tree<std::_Tmap_traits<unsigned char,tagTSVRTYPE *,std::less<unsigned char>,std::allocator<std::pair<unsigned char const ,tagTSVRTYPE *> >,0> >::_Right
; Function compile flags: /Ogty
;	COMDAT ?_Right@?$_Tree@V?$_Tmap_traits@EPAUtagTSVRTYPE@@U?$less@E@std@@V?$allocator@U?$pair@$$CBEPAUtagTSVRTYPE@@@std@@@3@$0A@@std@@@std@@KAAAPAU_Node@?$_Tree_nod@V?$_Tmap_traits@EPAUtagTSVRTYPE@@U?$less@E@std@@V?$allocator@U?$pair@$$CBEPAUtagTSVRTYPE@@@std@@@3@$0A@@std@@@2@PAU342@@Z
_TEXT	SEGMENT
__Pnode$ = 8						; size = 4
?_Right@?$_Tree@V?$_Tmap_traits@EPAUtagTSVRTYPE@@U?$less@E@std@@V?$allocator@U?$pair@$$CBEPAUtagTSVRTYPE@@@std@@@3@$0A@@std@@@std@@KAAAPAU_Node@?$_Tree_nod@V?$_Tmap_traits@EPAUtagTSVRTYPE@@U?$less@E@std@@V?$allocator@U?$pair@$$CBEPAUtagTSVRTYPE@@@std@@@3@$0A@@std@@@2@PAU342@@Z PROC NEAR ; std::_Tree<std::_Tmap_traits<unsigned char,tagTSVRTYPE *,std::less<unsigned char>,std::allocator<std::pair<unsigned char const ,tagTSVRTYPE *> >,0> >::_Right, COMDAT

; 157  : 		return ((_Nodepref)(*_Pnode)._Right);

  00000	8b 44 24 04	 mov	 eax, DWORD PTR __Pnode$[esp-4]
  00004	83 c0 08	 add	 eax, 8

; 158  : 		}

  00007	c3		 ret	 0
?_Right@?$_Tree@V?$_Tmap_traits@EPAUtagTSVRTYPE@@U?$less@E@std@@V?$allocator@U?$pair@$$CBEPAUtagTSVRTYPE@@@std@@@3@$0A@@std@@@std@@KAAAPAU_Node@?$_Tree_nod@V?$_Tmap_traits@EPAUtagTSVRTYPE@@U?$less@E@std@@V?$allocator@U?$pair@$$CBEPAUtagTSVRTYPE@@@std@@@3@$0A@@std@@@2@PAU342@@Z ENDP ; std::_Tree<std::_Tmap_traits<unsigned char,tagTSVRTYPE *,std::less<unsigned char>,std::allocator<std::pair<unsigned char const ,tagTSVRTYPE *> >,0> >::_Right
_TEXT	ENDS
PUBLIC	?_Min@?$_Tree@V?$_Tmap_traits@EPAUtagTSVRTYPE@@U?$less@E@std@@V?$allocator@U?$pair@$$CBEPAUtagTSVRTYPE@@@std@@@3@$0A@@std@@@std@@KAPAU_Node@?$_Tree_nod@V?$_Tmap_traits@EPAUtagTSVRTYPE@@U?$less@E@std@@V?$allocator@U?$pair@$$CBEPAUtagTSVRTYPE@@@std@@@3@$0A@@std@@@2@PAU342@@Z ; std::_Tree<std::_Tmap_traits<unsigned char,tagTSVRTYPE *,std::less<unsigned char>,std::allocator<std::pair<unsigned char const ,tagTSVRTYPE *> >,0> >::_Min
; Function compile flags: /Ogty
;	COMDAT ?_Min@?$_Tree@V?$_Tmap_traits@EPAUtagTSVRTYPE@@U?$less@E@std@@V?$allocator@U?$pair@$$CBEPAUtagTSVRTYPE@@@std@@@3@$0A@@std@@@std@@KAPAU_Node@?$_Tree_nod@V?$_Tmap_traits@EPAUtagTSVRTYPE@@U?$less@E@std@@V?$allocator@U?$pair@$$CBEPAUtagTSVRTYPE@@@std@@@3@$0A@@std@@@2@PAU342@@Z
_TEXT	SEGMENT
__Pnode$ = 8						; size = 4
?_Min@?$_Tree@V?$_Tmap_traits@EPAUtagTSVRTYPE@@U?$less@E@std@@V?$allocator@U?$pair@$$CBEPAUtagTSVRTYPE@@@std@@@3@$0A@@std@@@std@@KAPAU_Node@?$_Tree_nod@V?$_Tmap_traits@EPAUtagTSVRTYPE@@U?$less@E@std@@V?$allocator@U?$pair@$$CBEPAUtagTSVRTYPE@@@std@@@3@$0A@@std@@@2@PAU342@@Z PROC NEAR ; std::_Tree<std::_Tmap_traits<unsigned char,tagTSVRTYPE *,std::less<unsigned char>,std::allocator<std::pair<unsigned char const ,tagTSVRTYPE *> >,0> >::_Min, COMDAT

; 1042 : 		while (!_Isnil(_Left(_Pnode)))

  00000	8b 44 24 04	 mov	 eax, DWORD PTR __Pnode$[esp-4]
  00004	8b 08		 mov	 ecx, DWORD PTR [eax]
  00006	8a 51 15	 mov	 dl, BYTE PTR [ecx+21]
  00009	84 d2		 test	 dl, dl
  0000b	75 0e		 jne	 SHORT $L92499
  0000d	8d 49 00	 npad	 3
$L92498:

; 1043 : 			_Pnode = _Left(_Pnode);

  00010	8b c1		 mov	 eax, ecx
  00012	8b 08		 mov	 ecx, DWORD PTR [eax]
  00014	8a 51 15	 mov	 dl, BYTE PTR [ecx+21]
  00017	84 d2		 test	 dl, dl
  00019	74 f5		 je	 SHORT $L92498
$L92499:

; 1044 : 		return (_Pnode);
; 1045 : 		}

  0001b	c3		 ret	 0
?_Min@?$_Tree@V?$_Tmap_traits@EPAUtagTSVRTYPE@@U?$less@E@std@@V?$allocator@U?$pair@$$CBEPAUtagTSVRTYPE@@@std@@@3@$0A@@std@@@std@@KAPAU_Node@?$_Tree_nod@V?$_Tmap_traits@EPAUtagTSVRTYPE@@U?$less@E@std@@V?$allocator@U?$pair@$$CBEPAUtagTSVRTYPE@@@std@@@3@$0A@@std@@@2@PAU342@@Z ENDP ; std::_Tree<std::_Tmap_traits<unsigned char,tagTSVRTYPE *,std::less<unsigned char>,std::allocator<std::pair<unsigned char const ,tagTSVRTYPE *> >,0> >::_Min
_TEXT	ENDS
PUBLIC	?_Isnil@?$_Tree@V?$_Tmap_traits@EPAUtagTMACHINE@@U?$less@E@std@@V?$allocator@U?$pair@$$CBEPAUtagTMACHINE@@@std@@@3@$0A@@std@@@std@@KAAADPAU_Node@?$_Tree_nod@V?$_Tmap_traits@EPAUtagTMACHINE@@U?$less@E@std@@V?$allocator@U?$pair@$$CBEPAUtagTMACHINE@@@std@@@3@$0A@@std@@@2@@Z ; std::_Tree<std::_Tmap_traits<unsigned char,tagTMACHINE *,std::less<unsigned char>,std::allocator<std::pair<unsigned char const ,tagTMACHINE *> >,0> >::_Isnil
; Function compile flags: /Ogty
;	COMDAT ?_Isnil@?$_Tree@V?$_Tmap_traits@EPAUtagTMACHINE@@U?$less@E@std@@V?$allocator@U?$pair@$$CBEPAUtagTMACHINE@@@std@@@3@$0A@@std@@@std@@KAAADPAU_Node@?$_Tree_nod@V?$_Tmap_traits@EPAUtagTMACHINE@@U?$less@E@std@@V?$allocator@U?$pair@$$CBEPAUtagTMACHINE@@@std@@@3@$0A@@std@@@2@@Z
_TEXT	SEGMENT
__Pnode$ = 8						; size = 4
?_Isnil@?$_Tree@V?$_Tmap_traits@EPAUtagTMACHINE@@U?$less@E@std@@V?$allocator@U?$pair@$$CBEPAUtagTMACHINE@@@std@@@3@$0A@@std@@@std@@KAAADPAU_Node@?$_Tree_nod@V?$_Tmap_traits@EPAUtagTMACHINE@@U?$less@E@std@@V?$allocator@U?$pair@$$CBEPAUtagTMACHINE@@@std@@@3@$0A@@std@@@2@@Z PROC NEAR ; std::_Tree<std::_Tmap_traits<unsigned char,tagTMACHINE *,std::less<unsigned char>,std::allocator<std::pair<unsigned char const ,tagTMACHINE *> >,0> >::_Isnil, COMDAT

; 137  : 		return ((_Charref)(*_Pnode)._Isnil);

  00000	8b 44 24 04	 mov	 eax, DWORD PTR __Pnode$[esp-4]
  00004	83 c0 15	 add	 eax, 21			; 00000015H

; 138  : 		}

  00007	c3		 ret	 0
?_Isnil@?$_Tree@V?$_Tmap_traits@EPAUtagTMACHINE@@U?$less@E@std@@V?$allocator@U?$pair@$$CBEPAUtagTMACHINE@@@std@@@3@$0A@@std@@@std@@KAAADPAU_Node@?$_Tree_nod@V?$_Tmap_traits@EPAUtagTMACHINE@@U?$less@E@std@@V?$allocator@U?$pair@$$CBEPAUtagTMACHINE@@@std@@@3@$0A@@std@@@2@@Z ENDP ; std::_Tree<std::_Tmap_traits<unsigned char,tagTMACHINE *,std::less<unsigned char>,std::allocator<std::pair<unsigned char const ,tagTMACHINE *> >,0> >::_Isnil
_TEXT	ENDS
PUBLIC	?_Parent@?$_Tree@V?$_Tmap_traits@EPAUtagTMACHINE@@U?$less@E@std@@V?$allocator@U?$pair@$$CBEPAUtagTMACHINE@@@std@@@3@$0A@@std@@@std@@KAAAPAU_Node@?$_Tree_nod@V?$_Tmap_traits@EPAUtagTMACHINE@@U?$less@E@std@@V?$allocator@U?$pair@$$CBEPAUtagTMACHINE@@@std@@@3@$0A@@std@@@2@PAU342@@Z ; std::_Tree<std::_Tmap_traits<unsigned char,tagTMACHINE *,std::less<unsigned char>,std::allocator<std::pair<unsigned char const ,tagTMACHINE *> >,0> >::_Parent
; Function compile flags: /Ogty
;	COMDAT ?_Parent@?$_Tree@V?$_Tmap_traits@EPAUtagTMACHINE@@U?$less@E@std@@V?$allocator@U?$pair@$$CBEPAUtagTMACHINE@@@std@@@3@$0A@@std@@@std@@KAAAPAU_Node@?$_Tree_nod@V?$_Tmap_traits@EPAUtagTMACHINE@@U?$less@E@std@@V?$allocator@U?$pair@$$CBEPAUtagTMACHINE@@@std@@@3@$0A@@std@@@2@PAU342@@Z
_TEXT	SEGMENT
__Pnode$ = 8						; size = 4
?_Parent@?$_Tree@V?$_Tmap_traits@EPAUtagTMACHINE@@U?$less@E@std@@V?$allocator@U?$pair@$$CBEPAUtagTMACHINE@@@std@@@3@$0A@@std@@@std@@KAAAPAU_Node@?$_Tree_nod@V?$_Tmap_traits@EPAUtagTMACHINE@@U?$less@E@std@@V?$allocator@U?$pair@$$CBEPAUtagTMACHINE@@@std@@@3@$0A@@std@@@2@PAU342@@Z PROC NEAR ; std::_Tree<std::_Tmap_traits<unsigned char,tagTMACHINE *,std::less<unsigned char>,std::allocator<std::pair<unsigned char const ,tagTMACHINE *> >,0> >::_Parent, COMDAT

; 152  : 		return ((_Nodepref)(*_Pnode)._Parent);

  00000	8b 44 24 04	 mov	 eax, DWORD PTR __Pnode$[esp-4]
  00004	83 c0 04	 add	 eax, 4

; 153  : 		}

  00007	c3		 ret	 0
?_Parent@?$_Tree@V?$_Tmap_traits@EPAUtagTMACHINE@@U?$less@E@std@@V?$allocator@U?$pair@$$CBEPAUtagTMACHINE@@@std@@@3@$0A@@std@@@std@@KAAAPAU_Node@?$_Tree_nod@V?$_Tmap_traits@EPAUtagTMACHINE@@U?$less@E@std@@V?$allocator@U?$pair@$$CBEPAUtagTMACHINE@@@std@@@3@$0A@@std@@@2@PAU342@@Z ENDP ; std::_Tree<std::_Tmap_traits<unsigned char,tagTMACHINE *,std::less<unsigned char>,std::allocator<std::pair<unsigned char const ,tagTMACHINE *> >,0> >::_Parent
_TEXT	ENDS
PUBLIC	?_Right@?$_Tree@V?$_Tmap_traits@EPAUtagTMACHINE@@U?$less@E@std@@V?$allocator@U?$pair@$$CBEPAUtagTMACHINE@@@std@@@3@$0A@@std@@@std@@KAAAPAU_Node@?$_Tree_nod@V?$_Tmap_traits@EPAUtagTMACHINE@@U?$less@E@std@@V?$allocator@U?$pair@$$CBEPAUtagTMACHINE@@@std@@@3@$0A@@std@@@2@PAU342@@Z ; std::_Tree<std::_Tmap_traits<unsigned char,tagTMACHINE *,std::less<unsigned char>,std::allocator<std::pair<unsigned char const ,tagTMACHINE *> >,0> >::_Right
; Function compile flags: /Ogty
;	COMDAT ?_Right@?$_Tree@V?$_Tmap_traits@EPAUtagTMACHINE@@U?$less@E@std@@V?$allocator@U?$pair@$$CBEPAUtagTMACHINE@@@std@@@3@$0A@@std@@@std@@KAAAPAU_Node@?$_Tree_nod@V?$_Tmap_traits@EPAUtagTMACHINE@@U?$less@E@std@@V?$allocator@U?$pair@$$CBEPAUtagTMACHINE@@@std@@@3@$0A@@std@@@2@PAU342@@Z
_TEXT	SEGMENT
__Pnode$ = 8						; size = 4
?_Right@?$_Tree@V?$_Tmap_traits@EPAUtagTMACHINE@@U?$less@E@std@@V?$allocator@U?$pair@$$CBEPAUtagTMACHINE@@@std@@@3@$0A@@std@@@std@@KAAAPAU_Node@?$_Tree_nod@V?$_Tmap_traits@EPAUtagTMACHINE@@U?$less@E@std@@V?$allocator@U?$pair@$$CBEPAUtagTMACHINE@@@std@@@3@$0A@@std@@@2@PAU342@@Z PROC NEAR ; std::_Tree<std::_Tmap_traits<unsigned char,tagTMACHINE *,std::less<unsigned char>,std::allocator<std::pair<unsigned char const ,tagTMACHINE *> >,0> >::_Right, COMDAT

; 157  : 		return ((_Nodepref)(*_Pnode)._Right);

  00000	8b 44 24 04	 mov	 eax, DWORD PTR __Pnode$[esp-4]
  00004	83 c0 08	 add	 eax, 8

; 158  : 		}

  00007	c3		 ret	 0
?_Right@?$_Tree@V?$_Tmap_traits@EPAUtagTMACHINE@@U?$less@E@std@@V?$allocator@U?$pair@$$CBEPAUtagTMACHINE@@@std@@@3@$0A@@std@@@std@@KAAAPAU_Node@?$_Tree_nod@V?$_Tmap_traits@EPAUtagTMACHINE@@U?$less@E@std@@V?$allocator@U?$pair@$$CBEPAUtagTMACHINE@@@std@@@3@$0A@@std@@@2@PAU342@@Z ENDP ; std::_Tree<std::_Tmap_traits<unsigned char,tagTMACHINE *,std::less<unsigned char>,std::allocator<std::pair<unsigned char const ,tagTMACHINE *> >,0> >::_Right
_TEXT	ENDS
PUBLIC	?_Min@?$_Tree@V?$_Tmap_traits@EPAUtagTMACHINE@@U?$less@E@std@@V?$allocator@U?$pair@$$CBEPAUtagTMACHINE@@@std@@@3@$0A@@std@@@std@@KAPAU_Node@?$_Tree_nod@V?$_Tmap_traits@EPAUtagTMACHINE@@U?$less@E@std@@V?$allocator@U?$pair@$$CBEPAUtagTMACHINE@@@std@@@3@$0A@@std@@@2@PAU342@@Z ; std::_Tree<std::_Tmap_traits<unsigned char,tagTMACHINE *,std::less<unsigned char>,std::allocator<std::pair<unsigned char const ,tagTMACHINE *> >,0> >::_Min
; Function compile flags: /Ogty
;	COMDAT ?_Min@?$_Tree@V?$_Tmap_traits@EPAUtagTMACHINE@@U?$less@E@std@@V?$allocator@U?$pair@$$CBEPAUtagTMACHINE@@@std@@@3@$0A@@std@@@std@@KAPAU_Node@?$_Tree_nod@V?$_Tmap_traits@EPAUtagTMACHINE@@U?$less@E@std@@V?$allocator@U?$pair@$$CBEPAUtagTMACHINE@@@std@@@3@$0A@@std@@@2@PAU342@@Z
_TEXT	SEGMENT
__Pnode$ = 8						; size = 4
?_Min@?$_Tree@V?$_Tmap_traits@EPAUtagTMACHINE@@U?$less@E@std@@V?$allocator@U?$pair@$$CBEPAUtagTMACHINE@@@std@@@3@$0A@@std@@@std@@KAPAU_Node@?$_Tree_nod@V?$_Tmap_traits@EPAUtagTMACHINE@@U?$less@E@std@@V?$allocator@U?$pair@$$CBEPAUtagTMACHINE@@@std@@@3@$0A@@std@@@2@PAU342@@Z PROC NEAR ; std::_Tree<std::_Tmap_traits<unsigned char,tagTMACHINE *,std::less<unsigned char>,std::allocator<std::pair<unsigned char const ,tagTMACHINE *> >,0> >::_Min, COMDAT

; 1042 : 		while (!_Isnil(_Left(_Pnode)))

  00000	8b 44 24 04	 mov	 eax, DWORD PTR __Pnode$[esp-4]
  00004	8b 08		 mov	 ecx, DWORD PTR [eax]
  00006	8a 51 15	 mov	 dl, BYTE PTR [ecx+21]
  00009	84 d2		 test	 dl, dl
  0000b	75 0e		 jne	 SHORT $L92509
  0000d	8d 49 00	 npad	 3
$L92508:

; 1043 : 			_Pnode = _Left(_Pnode);

  00010	8b c1		 mov	 eax, ecx
  00012	8b 08		 mov	 ecx, DWORD PTR [eax]
  00014	8a 51 15	 mov	 dl, BYTE PTR [ecx+21]
  00017	84 d2		 test	 dl, dl
  00019	74 f5		 je	 SHORT $L92508
$L92509:

; 1044 : 		return (_Pnode);
; 1045 : 		}

  0001b	c3		 ret	 0
?_Min@?$_Tree@V?$_Tmap_traits@EPAUtagTMACHINE@@U?$less@E@std@@V?$allocator@U?$pair@$$CBEPAUtagTMACHINE@@@std@@@3@$0A@@std@@@std@@KAPAU_Node@?$_Tree_nod@V?$_Tmap_traits@EPAUtagTMACHINE@@U?$less@E@std@@V?$allocator@U?$pair@$$CBEPAUtagTMACHINE@@@std@@@3@$0A@@std@@@2@PAU342@@Z ENDP ; std::_Tree<std::_Tmap_traits<unsigned char,tagTMACHINE *,std::less<unsigned char>,std::allocator<std::pair<unsigned char const ,tagTMACHINE *> >,0> >::_Min
_TEXT	ENDS
PUBLIC	?_Isnil@?$_Tree@V?$_Tmap_traits@EPAUtagTGROUP@@U?$less@E@std@@V?$allocator@U?$pair@$$CBEPAUtagTGROUP@@@std@@@3@$0A@@std@@@std@@KAAADPAU_Node@?$_Tree_nod@V?$_Tmap_traits@EPAUtagTGROUP@@U?$less@E@std@@V?$allocator@U?$pair@$$CBEPAUtagTGROUP@@@std@@@3@$0A@@std@@@2@@Z ; std::_Tree<std::_Tmap_traits<unsigned char,tagTGROUP *,std::less<unsigned char>,std::allocator<std::pair<unsigned char const ,tagTGROUP *> >,0> >::_Isnil
; Function compile flags: /Ogty
;	COMDAT ?_Isnil@?$_Tree@V?$_Tmap_traits@EPAUtagTGROUP@@U?$less@E@std@@V?$allocator@U?$pair@$$CBEPAUtagTGROUP@@@std@@@3@$0A@@std@@@std@@KAAADPAU_Node@?$_Tree_nod@V?$_Tmap_traits@EPAUtagTGROUP@@U?$less@E@std@@V?$allocator@U?$pair@$$CBEPAUtagTGROUP@@@std@@@3@$0A@@std@@@2@@Z
_TEXT	SEGMENT
__Pnode$ = 8						; size = 4
?_Isnil@?$_Tree@V?$_Tmap_traits@EPAUtagTGROUP@@U?$less@E@std@@V?$allocator@U?$pair@$$CBEPAUtagTGROUP@@@std@@@3@$0A@@std@@@std@@KAAADPAU_Node@?$_Tree_nod@V?$_Tmap_traits@EPAUtagTGROUP@@U?$less@E@std@@V?$allocator@U?$pair@$$CBEPAUtagTGROUP@@@std@@@3@$0A@@std@@@2@@Z PROC NEAR ; std::_Tree<std::_Tmap_traits<unsigned char,tagTGROUP *,std::less<unsigned char>,std::allocator<std::pair<unsigned char const ,tagTGROUP *> >,0> >::_Isnil, COMDAT

; 137  : 		return ((_Charref)(*_Pnode)._Isnil);

  00000	8b 44 24 04	 mov	 eax, DWORD PTR __Pnode$[esp-4]
  00004	83 c0 15	 add	 eax, 21			; 00000015H

; 138  : 		}

  00007	c3		 ret	 0
?_Isnil@?$_Tree@V?$_Tmap_traits@EPAUtagTGROUP@@U?$less@E@std@@V?$allocator@U?$pair@$$CBEPAUtagTGROUP@@@std@@@3@$0A@@std@@@std@@KAAADPAU_Node@?$_Tree_nod@V?$_Tmap_traits@EPAUtagTGROUP@@U?$less@E@std@@V?$allocator@U?$pair@$$CBEPAUtagTGROUP@@@std@@@3@$0A@@std@@@2@@Z ENDP ; std::_Tree<std::_Tmap_traits<unsigned char,tagTGROUP *,std::less<unsigned char>,std::allocator<std::pair<unsigned char const ,tagTGROUP *> >,0> >::_Isnil
_TEXT	ENDS
PUBLIC	?_Parent@?$_Tree@V?$_Tmap_traits@EPAUtagTGROUP@@U?$less@E@std@@V?$allocator@U?$pair@$$CBEPAUtagTGROUP@@@std@@@3@$0A@@std@@@std@@KAAAPAU_Node@?$_Tree_nod@V?$_Tmap_traits@EPAUtagTGROUP@@U?$less@E@std@@V?$allocator@U?$pair@$$CBEPAUtagTGROUP@@@std@@@3@$0A@@std@@@2@PAU342@@Z ; std::_Tree<std::_Tmap_traits<unsigned char,tagTGROUP *,std::less<unsigned char>,std::allocator<std::pair<unsigned char const ,tagTGROUP *> >,0> >::_Parent
; Function compile flags: /Ogty
;	COMDAT ?_Parent@?$_Tree@V?$_Tmap_traits@EPAUtagTGROUP@@U?$less@E@std@@V?$allocator@U?$pair@$$CBEPAUtagTGROUP@@@std@@@3@$0A@@std@@@std@@KAAAPAU_Node@?$_Tree_nod@V?$_Tmap_traits@EPAUtagTGROUP@@U?$less@E@std@@V?$allocator@U?$pair@$$CBEPAUtagTGROUP@@@std@@@3@$0A@@std@@@2@PAU342@@Z
_TEXT	SEGMENT
__Pnode$ = 8						; size = 4
?_Parent@?$_Tree@V?$_Tmap_traits@EPAUtagTGROUP@@U?$less@E@std@@V?$allocator@U?$pair@$$CBEPAUtagTGROUP@@@std@@@3@$0A@@std@@@std@@KAAAPAU_Node@?$_Tree_nod@V?$_Tmap_traits@EPAUtagTGROUP@@U?$less@E@std@@V?$allocator@U?$pair@$$CBEPAUtagTGROUP@@@std@@@3@$0A@@std@@@2@PAU342@@Z PROC NEAR ; std::_Tree<std::_Tmap_traits<unsigned char,tagTGROUP *,std::less<unsigned char>,std::allocator<std::pair<unsigned char const ,tagTGROUP *> >,0> >::_Parent, COMDAT

; 152  : 		return ((_Nodepref)(*_Pnode)._Parent);

  00000	8b 44 24 04	 mov	 eax, DWORD PTR __Pnode$[esp-4]
  00004	83 c0 04	 add	 eax, 4

; 153  : 		}

  00007	c3		 ret	 0
?_Parent@?$_Tree@V?$_Tmap_traits@EPAUtagTGROUP@@U?$less@E@std@@V?$allocator@U?$pair@$$CBEPAUtagTGROUP@@@std@@@3@$0A@@std@@@std@@KAAAPAU_Node@?$_Tree_nod@V?$_Tmap_traits@EPAUtagTGROUP@@U?$less@E@std@@V?$allocator@U?$pair@$$CBEPAUtagTGROUP@@@std@@@3@$0A@@std@@@2@PAU342@@Z ENDP ; std::_Tree<std::_Tmap_traits<unsigned char,tagTGROUP *,std::less<unsigned char>,std::allocator<std::pair<unsigned char const ,tagTGROUP *> >,0> >::_Parent
_TEXT	ENDS
PUBLIC	?_Right@?$_Tree@V?$_Tmap_traits@EPAUtagTGROUP@@U?$less@E@std@@V?$allocator@U?$pair@$$CBEPAUtagTGROUP@@@std@@@3@$0A@@std@@@std@@KAAAPAU_Node@?$_Tree_nod@V?$_Tmap_traits@EPAUtagTGROUP@@U?$less@E@std@@V?$allocator@U?$pair@$$CBEPAUtagTGROUP@@@std@@@3@$0A@@std@@@2@PAU342@@Z ; std::_Tree<std::_Tmap_traits<unsigned char,tagTGROUP *,std::less<unsigned char>,std::allocator<std::pair<unsigned char const ,tagTGROUP *> >,0> >::_Right
; Function compile flags: /Ogty
;	COMDAT ?_Right@?$_Tree@V?$_Tmap_traits@EPAUtagTGROUP@@U?$less@E@std@@V?$allocator@U?$pair@$$CBEPAUtagTGROUP@@@std@@@3@$0A@@std@@@std@@KAAAPAU_Node@?$_Tree_nod@V?$_Tmap_traits@EPAUtagTGROUP@@U?$less@E@std@@V?$allocator@U?$pair@$$CBEPAUtagTGROUP@@@std@@@3@$0A@@std@@@2@PAU342@@Z
_TEXT	SEGMENT
__Pnode$ = 8						; size = 4
?_Right@?$_Tree@V?$_Tmap_traits@EPAUtagTGROUP@@U?$less@E@std@@V?$allocator@U?$pair@$$CBEPAUtagTGROUP@@@std@@@3@$0A@@std@@@std@@KAAAPAU_Node@?$_Tree_nod@V?$_Tmap_traits@EPAUtagTGROUP@@U?$less@E@std@@V?$allocator@U?$pair@$$CBEPAUtagTGROUP@@@std@@@3@$0A@@std@@@2@PAU342@@Z PROC NEAR ; std::_Tree<std::_Tmap_traits<unsigned char,tagTGROUP *,std::less<unsigned char>,std::allocator<std::pair<unsigned char const ,tagTGROUP *> >,0> >::_Right, COMDAT

; 157  : 		return ((_Nodepref)(*_Pnode)._Right);

  00000	8b 44 24 04	 mov	 eax, DWORD PTR __Pnode$[esp-4]
  00004	83 c0 08	 add	 eax, 8

; 158  : 		}

  00007	c3		 ret	 0
?_Right@?$_Tree@V?$_Tmap_traits@EPAUtagTGROUP@@U?$less@E@std@@V?$allocator@U?$pair@$$CBEPAUtagTGROUP@@@std@@@3@$0A@@std@@@std@@KAAAPAU_Node@?$_Tree_nod@V?$_Tmap_traits@EPAUtagTGROUP@@U?$less@E@std@@V?$allocator@U?$pair@$$CBEPAUtagTGROUP@@@std@@@3@$0A@@std@@@2@PAU342@@Z ENDP ; std::_Tree<std::_Tmap_traits<unsigned char,tagTGROUP *,std::less<unsigned char>,std::allocator<std::pair<unsigned char const ,tagTGROUP *> >,0> >::_Right
_TEXT	ENDS
PUBLIC	?_Min@?$_Tree@V?$_Tmap_traits@EPAUtagTGROUP@@U?$less@E@std@@V?$allocator@U?$pair@$$CBEPAUtagTGROUP@@@std@@@3@$0A@@std@@@std@@KAPAU_Node@?$_Tree_nod@V?$_Tmap_traits@EPAUtagTGROUP@@U?$less@E@std@@V?$allocator@U?$pair@$$CBEPAUtagTGROUP@@@std@@@3@$0A@@std@@@2@PAU342@@Z ; std::_Tree<std::_Tmap_traits<unsigned char,tagTGROUP *,std::less<unsigned char>,std::allocator<std::pair<unsigned char const ,tagTGROUP *> >,0> >::_Min
; Function compile flags: /Ogty
;	COMDAT ?_Min@?$_Tree@V?$_Tmap_traits@EPAUtagTGROUP@@U?$less@E@std@@V?$allocator@U?$pair@$$CBEPAUtagTGROUP@@@std@@@3@$0A@@std@@@std@@KAPAU_Node@?$_Tree_nod@V?$_Tmap_traits@EPAUtagTGROUP@@U?$less@E@std@@V?$allocator@U?$pair@$$CBEPAUtagTGROUP@@@std@@@3@$0A@@std@@@2@PAU342@@Z
_TEXT	SEGMENT
__Pnode$ = 8						; size = 4
?_Min@?$_Tree@V?$_Tmap_traits@EPAUtagTGROUP@@U?$less@E@std@@V?$allocator@U?$pair@$$CBEPAUtagTGROUP@@@std@@@3@$0A@@std@@@std@@KAPAU_Node@?$_Tree_nod@V?$_Tmap_traits@EPAUtagTGROUP@@U?$less@E@std@@V?$allocator@U?$pair@$$CBEPAUtagTGROUP@@@std@@@3@$0A@@std@@@2@PAU342@@Z PROC NEAR ; std::_Tree<std::_Tmap_traits<unsigned char,tagTGROUP *,std::less<unsigned char>,std::allocator<std::pair<unsigned char const ,tagTGROUP *> >,0> >::_Min, COMDAT

; 1042 : 		while (!_Isnil(_Left(_Pnode)))

  00000	8b 44 24 04	 mov	 eax, DWORD PTR __Pnode$[esp-4]
  00004	8b 08		 mov	 ecx, DWORD PTR [eax]
  00006	8a 51 15	 mov	 dl, BYTE PTR [ecx+21]
  00009	84 d2		 test	 dl, dl
  0000b	75 0e		 jne	 SHORT $L92519
  0000d	8d 49 00	 npad	 3
$L92518:

; 1043 : 			_Pnode = _Left(_Pnode);

  00010	8b c1		 mov	 eax, ecx
  00012	8b 08		 mov	 ecx, DWORD PTR [eax]
  00014	8a 51 15	 mov	 dl, BYTE PTR [ecx+21]
  00017	84 d2		 test	 dl, dl
  00019	74 f5		 je	 SHORT $L92518
$L92519:

; 1044 : 		return (_Pnode);
; 1045 : 		}

  0001b	c3		 ret	 0
?_Min@?$_Tree@V?$_Tmap_traits@EPAUtagTGROUP@@U?$less@E@std@@V?$allocator@U?$pair@$$CBEPAUtagTGROUP@@@std@@@3@$0A@@std@@@std@@KAPAU_Node@?$_Tree_nod@V?$_Tmap_traits@EPAUtagTGROUP@@U?$less@E@std@@V?$allocator@U?$pair@$$CBEPAUtagTGROUP@@@std@@@3@$0A@@std@@@2@PAU342@@Z ENDP ; std::_Tree<std::_Tmap_traits<unsigned char,tagTGROUP *,std::less<unsigned char>,std::allocator<std::pair<unsigned char const ,tagTGROUP *> >,0> >::_Min
_TEXT	ENDS
PUBLIC	?_Isnil@?$_Tree@V?$_Tmap_traits@KPAUtagTSVRTEMP@@U?$less@K@std@@V?$allocator@U?$pair@$$CBKPAUtagTSVRTEMP@@@std@@@3@$0A@@std@@@std@@KAAADPAU_Node@?$_Tree_nod@V?$_Tmap_traits@KPAUtagTSVRTEMP@@U?$less@K@std@@V?$allocator@U?$pair@$$CBKPAUtagTSVRTEMP@@@std@@@3@$0A@@std@@@2@@Z ; std::_Tree<std::_Tmap_traits<unsigned long,tagTSVRTEMP *,std::less<unsigned long>,std::allocator<std::pair<unsigned long const ,tagTSVRTEMP *> >,0> >::_Isnil
; Function compile flags: /Ogty
;	COMDAT ?_Isnil@?$_Tree@V?$_Tmap_traits@KPAUtagTSVRTEMP@@U?$less@K@std@@V?$allocator@U?$pair@$$CBKPAUtagTSVRTEMP@@@std@@@3@$0A@@std@@@std@@KAAADPAU_Node@?$_Tree_nod@V?$_Tmap_traits@KPAUtagTSVRTEMP@@U?$less@K@std@@V?$allocator@U?$pair@$$CBKPAUtagTSVRTEMP@@@std@@@3@$0A@@std@@@2@@Z
_TEXT	SEGMENT
__Pnode$ = 8						; size = 4
?_Isnil@?$_Tree@V?$_Tmap_traits@KPAUtagTSVRTEMP@@U?$less@K@std@@V?$allocator@U?$pair@$$CBKPAUtagTSVRTEMP@@@std@@@3@$0A@@std@@@std@@KAAADPAU_Node@?$_Tree_nod@V?$_Tmap_traits@KPAUtagTSVRTEMP@@U?$less@K@std@@V?$allocator@U?$pair@$$CBKPAUtagTSVRTEMP@@@std@@@3@$0A@@std@@@2@@Z PROC NEAR ; std::_Tree<std::_Tmap_traits<unsigned long,tagTSVRTEMP *,std::less<unsigned long>,std::allocator<std::pair<unsigned long const ,tagTSVRTEMP *> >,0> >::_Isnil, COMDAT

; 137  : 		return ((_Charref)(*_Pnode)._Isnil);

  00000	8b 44 24 04	 mov	 eax, DWORD PTR __Pnode$[esp-4]
  00004	83 c0 15	 add	 eax, 21			; 00000015H

; 138  : 		}

  00007	c3		 ret	 0
?_Isnil@?$_Tree@V?$_Tmap_traits@KPAUtagTSVRTEMP@@U?$less@K@std@@V?$allocator@U?$pair@$$CBKPAUtagTSVRTEMP@@@std@@@3@$0A@@std@@@std@@KAAADPAU_Node@?$_Tree_nod@V?$_Tmap_traits@KPAUtagTSVRTEMP@@U?$less@K@std@@V?$allocator@U?$pair@$$CBKPAUtagTSVRTEMP@@@std@@@3@$0A@@std@@@2@@Z ENDP ; std::_Tree<std::_Tmap_traits<unsigned long,tagTSVRTEMP *,std::less<unsigned long>,std::allocator<std::pair<unsigned long const ,tagTSVRTEMP *> >,0> >::_Isnil
_TEXT	ENDS
PUBLIC	?_Parent@?$_Tree@V?$_Tmap_traits@KPAUtagTSVRTEMP@@U?$less@K@std@@V?$allocator@U?$pair@$$CBKPAUtagTSVRTEMP@@@std@@@3@$0A@@std@@@std@@KAAAPAU_Node@?$_Tree_nod@V?$_Tmap_traits@KPAUtagTSVRTEMP@@U?$less@K@std@@V?$allocator@U?$pair@$$CBKPAUtagTSVRTEMP@@@std@@@3@$0A@@std@@@2@PAU342@@Z ; std::_Tree<std::_Tmap_traits<unsigned long,tagTSVRTEMP *,std::less<unsigned long>,std::allocator<std::pair<unsigned long const ,tagTSVRTEMP *> >,0> >::_Parent
; Function compile flags: /Ogty
;	COMDAT ?_Parent@?$_Tree@V?$_Tmap_traits@KPAUtagTSVRTEMP@@U?$less@K@std@@V?$allocator@U?$pair@$$CBKPAUtagTSVRTEMP@@@std@@@3@$0A@@std@@@std@@KAAAPAU_Node@?$_Tree_nod@V?$_Tmap_traits@KPAUtagTSVRTEMP@@U?$less@K@std@@V?$allocator@U?$pair@$$CBKPAUtagTSVRTEMP@@@std@@@3@$0A@@std@@@2@PAU342@@Z
_TEXT	SEGMENT
__Pnode$ = 8						; size = 4
?_Parent@?$_Tree@V?$_Tmap_traits@KPAUtagTSVRTEMP@@U?$less@K@std@@V?$allocator@U?$pair@$$CBKPAUtagTSVRTEMP@@@std@@@3@$0A@@std@@@std@@KAAAPAU_Node@?$_Tree_nod@V?$_Tmap_traits@KPAUtagTSVRTEMP@@U?$less@K@std@@V?$allocator@U?$pair@$$CBKPAUtagTSVRTEMP@@@std@@@3@$0A@@std@@@2@PAU342@@Z PROC NEAR ; std::_Tree<std::_Tmap_traits<unsigned long,tagTSVRTEMP *,std::less<unsigned long>,std::allocator<std::pair<unsigned long const ,tagTSVRTEMP *> >,0> >::_Parent, COMDAT

; 152  : 		return ((_Nodepref)(*_Pnode)._Parent);

  00000	8b 44 24 04	 mov	 eax, DWORD PTR __Pnode$[esp-4]
  00004	83 c0 04	 add	 eax, 4

; 153  : 		}

  00007	c3		 ret	 0
?_Parent@?$_Tree@V?$_Tmap_traits@KPAUtagTSVRTEMP@@U?$less@K@std@@V?$allocator@U?$pair@$$CBKPAUtagTSVRTEMP@@@std@@@3@$0A@@std@@@std@@KAAAPAU_Node@?$_Tree_nod@V?$_Tmap_traits@KPAUtagTSVRTEMP@@U?$less@K@std@@V?$allocator@U?$pair@$$CBKPAUtagTSVRTEMP@@@std@@@3@$0A@@std@@@2@PAU342@@Z ENDP ; std::_Tree<std::_Tmap_traits<unsigned long,tagTSVRTEMP *,std::less<unsigned long>,std::allocator<std::pair<unsigned long const ,tagTSVRTEMP *> >,0> >::_Parent
_TEXT	ENDS
PUBLIC	?_Right@?$_Tree@V?$_Tmap_traits@KPAUtagTSVRTEMP@@U?$less@K@std@@V?$allocator@U?$pair@$$CBKPAUtagTSVRTEMP@@@std@@@3@$0A@@std@@@std@@KAAAPAU_Node@?$_Tree_nod@V?$_Tmap_traits@KPAUtagTSVRTEMP@@U?$less@K@std@@V?$allocator@U?$pair@$$CBKPAUtagTSVRTEMP@@@std@@@3@$0A@@std@@@2@PAU342@@Z ; std::_Tree<std::_Tmap_traits<unsigned long,tagTSVRTEMP *,std::less<unsigned long>,std::allocator<std::pair<unsigned long const ,tagTSVRTEMP *> >,0> >::_Right
; Function compile flags: /Ogty
;	COMDAT ?_Right@?$_Tree@V?$_Tmap_traits@KPAUtagTSVRTEMP@@U?$less@K@std@@V?$allocator@U?$pair@$$CBKPAUtagTSVRTEMP@@@std@@@3@$0A@@std@@@std@@KAAAPAU_Node@?$_Tree_nod@V?$_Tmap_traits@KPAUtagTSVRTEMP@@U?$less@K@std@@V?$allocator@U?$pair@$$CBKPAUtagTSVRTEMP@@@std@@@3@$0A@@std@@@2@PAU342@@Z
_TEXT	SEGMENT
__Pnode$ = 8						; size = 4
?_Right@?$_Tree@V?$_Tmap_traits@KPAUtagTSVRTEMP@@U?$less@K@std@@V?$allocator@U?$pair@$$CBKPAUtagTSVRTEMP@@@std@@@3@$0A@@std@@@std@@KAAAPAU_Node@?$_Tree_nod@V?$_Tmap_traits@KPAUtagTSVRTEMP@@U?$less@K@std@@V?$allocator@U?$pair@$$CBKPAUtagTSVRTEMP@@@std@@@3@$0A@@std@@@2@PAU342@@Z PROC NEAR ; std::_Tree<std::_Tmap_traits<unsigned long,tagTSVRTEMP *,std::less<unsigned long>,std::allocator<std::pair<unsigned long const ,tagTSVRTEMP *> >,0> >::_Right, COMDAT

; 157  : 		return ((_Nodepref)(*_Pnode)._Right);

  00000	8b 44 24 04	 mov	 eax, DWORD PTR __Pnode$[esp-4]
  00004	83 c0 08	 add	 eax, 8

; 158  : 		}

  00007	c3		 ret	 0
?_Right@?$_Tree@V?$_Tmap_traits@KPAUtagTSVRTEMP@@U?$less@K@std@@V?$allocator@U?$pair@$$CBKPAUtagTSVRTEMP@@@std@@@3@$0A@@std@@@std@@KAAAPAU_Node@?$_Tree_nod@V?$_Tmap_traits@KPAUtagTSVRTEMP@@U?$less@K@std@@V?$allocator@U?$pair@$$CBKPAUtagTSVRTEMP@@@std@@@3@$0A@@std@@@2@PAU342@@Z ENDP ; std::_Tree<std::_Tmap_traits<unsigned long,tagTSVRTEMP *,std::less<unsigned long>,std::allocator<std::pair<unsigned long const ,tagTSVRTEMP *> >,0> >::_Right
_TEXT	ENDS
PUBLIC	?_Min@?$_Tree@V?$_Tmap_traits@KPAUtagTSVRTEMP@@U?$less@K@std@@V?$allocator@U?$pair@$$CBKPAUtagTSVRTEMP@@@std@@@3@$0A@@std@@@std@@KAPAU_Node@?$_Tree_nod@V?$_Tmap_traits@KPAUtagTSVRTEMP@@U?$less@K@std@@V?$allocator@U?$pair@$$CBKPAUtagTSVRTEMP@@@std@@@3@$0A@@std@@@2@PAU342@@Z ; std::_Tree<std::_Tmap_traits<unsigned long,tagTSVRTEMP *,std::less<unsigned long>,std::allocator<std::pair<unsigned long const ,tagTSVRTEMP *> >,0> >::_Min
; Function compile flags: /Ogty
;	COMDAT ?_Min@?$_Tree@V?$_Tmap_traits@KPAUtagTSVRTEMP@@U?$less@K@std@@V?$allocator@U?$pair@$$CBKPAUtagTSVRTEMP@@@std@@@3@$0A@@std@@@std@@KAPAU_Node@?$_Tree_nod@V?$_Tmap_traits@KPAUtagTSVRTEMP@@U?$less@K@std@@V?$allocator@U?$pair@$$CBKPAUtagTSVRTEMP@@@std@@@3@$0A@@std@@@2@PAU342@@Z
_TEXT	SEGMENT
__Pnode$ = 8						; size = 4
?_Min@?$_Tree@V?$_Tmap_traits@KPAUtagTSVRTEMP@@U?$less@K@std@@V?$allocator@U?$pair@$$CBKPAUtagTSVRTEMP@@@std@@@3@$0A@@std@@@std@@KAPAU_Node@?$_Tree_nod@V?$_Tmap_traits@KPAUtagTSVRTEMP@@U?$less@K@std@@V?$allocator@U?$pair@$$CBKPAUtagTSVRTEMP@@@std@@@3@$0A@@std@@@2@PAU342@@Z PROC NEAR ; std::_Tree<std::_Tmap_traits<unsigned long,tagTSVRTEMP *,std::less<unsigned long>,std::allocator<std::pair<unsigned long const ,tagTSVRTEMP *> >,0> >::_Min, COMDAT

; 1042 : 		while (!_Isnil(_Left(_Pnode)))

  00000	8b 44 24 04	 mov	 eax, DWORD PTR __Pnode$[esp-4]
  00004	8b 08		 mov	 ecx, DWORD PTR [eax]
  00006	8a 51 15	 mov	 dl, BYTE PTR [ecx+21]
  00009	84 d2		 test	 dl, dl
  0000b	75 0e		 jne	 SHORT $L92529
  0000d	8d 49 00	 npad	 3
$L92528:

; 1043 : 			_Pnode = _Left(_Pnode);

  00010	8b c1		 mov	 eax, ecx
  00012	8b 08		 mov	 ecx, DWORD PTR [eax]
  00014	8a 51 15	 mov	 dl, BYTE PTR [ecx+21]
  00017	84 d2		 test	 dl, dl
  00019	74 f5		 je	 SHORT $L92528
$L92529:

; 1044 : 		return (_Pnode);
; 1045 : 		}

  0001b	c3		 ret	 0
?_Min@?$_Tree@V?$_Tmap_traits@KPAUtagTSVRTEMP@@U?$less@K@std@@V?$allocator@U?$pair@$$CBKPAUtagTSVRTEMP@@@std@@@3@$0A@@std@@@std@@KAPAU_Node@?$_Tree_nod@V?$_Tmap_traits@KPAUtagTSVRTEMP@@U?$less@K@std@@V?$allocator@U?$pair@$$CBKPAUtagTSVRTEMP@@@std@@@3@$0A@@std@@@2@PAU342@@Z ENDP ; std::_Tree<std::_Tmap_traits<unsigned long,tagTSVRTEMP *,std::less<unsigned long>,std::allocator<std::pair<unsigned long const ,tagTSVRTEMP *> >,0> >::_Min
_TEXT	ENDS
PUBLIC	?_Isnil@?$_Tree@V?$_Tmap_traits@KPAUtagBANINFO@@U?$less@K@std@@V?$allocator@U?$pair@$$CBKPAUtagBANINFO@@@std@@@3@$0A@@std@@@std@@KAAADPAU_Node@?$_Tree_nod@V?$_Tmap_traits@KPAUtagBANINFO@@U?$less@K@std@@V?$allocator@U?$pair@$$CBKPAUtagBANINFO@@@std@@@3@$0A@@std@@@2@@Z ; std::_Tree<std::_Tmap_traits<unsigned long,tagBANINFO *,std::less<unsigned long>,std::allocator<std::pair<unsigned long const ,tagBANINFO *> >,0> >::_Isnil
; Function compile flags: /Ogty
;	COMDAT ?_Isnil@?$_Tree@V?$_Tmap_traits@KPAUtagBANINFO@@U?$less@K@std@@V?$allocator@U?$pair@$$CBKPAUtagBANINFO@@@std@@@3@$0A@@std@@@std@@KAAADPAU_Node@?$_Tree_nod@V?$_Tmap_traits@KPAUtagBANINFO@@U?$less@K@std@@V?$allocator@U?$pair@$$CBKPAUtagBANINFO@@@std@@@3@$0A@@std@@@2@@Z
_TEXT	SEGMENT
__Pnode$ = 8						; size = 4
?_Isnil@?$_Tree@V?$_Tmap_traits@KPAUtagBANINFO@@U?$less@K@std@@V?$allocator@U?$pair@$$CBKPAUtagBANINFO@@@std@@@3@$0A@@std@@@std@@KAAADPAU_Node@?$_Tree_nod@V?$_Tmap_traits@KPAUtagBANINFO@@U?$less@K@std@@V?$allocator@U?$pair@$$CBKPAUtagBANINFO@@@std@@@3@$0A@@std@@@2@@Z PROC NEAR ; std::_Tree<std::_Tmap_traits<unsigned long,tagBANINFO *,std::less<unsigned long>,std::allocator<std::pair<unsigned long const ,tagBANINFO *> >,0> >::_Isnil, COMDAT

; 137  : 		return ((_Charref)(*_Pnode)._Isnil);

  00000	8b 44 24 04	 mov	 eax, DWORD PTR __Pnode$[esp-4]
  00004	83 c0 15	 add	 eax, 21			; 00000015H

; 138  : 		}

  00007	c3		 ret	 0
?_Isnil@?$_Tree@V?$_Tmap_traits@KPAUtagBANINFO@@U?$less@K@std@@V?$allocator@U?$pair@$$CBKPAUtagBANINFO@@@std@@@3@$0A@@std@@@std@@KAAADPAU_Node@?$_Tree_nod@V?$_Tmap_traits@KPAUtagBANINFO@@U?$less@K@std@@V?$allocator@U?$pair@$$CBKPAUtagBANINFO@@@std@@@3@$0A@@std@@@2@@Z ENDP ; std::_Tree<std::_Tmap_traits<unsigned long,tagBANINFO *,std::less<unsigned long>,std::allocator<std::pair<unsigned long const ,tagBANINFO *> >,0> >::_Isnil
_TEXT	ENDS
PUBLIC	?_Parent@?$_Tree@V?$_Tmap_traits@KPAUtagBANINFO@@U?$less@K@std@@V?$allocator@U?$pair@$$CBKPAUtagBANINFO@@@std@@@3@$0A@@std@@@std@@KAAAPAU_Node@?$_Tree_nod@V?$_Tmap_traits@KPAUtagBANINFO@@U?$less@K@std@@V?$allocator@U?$pair@$$CBKPAUtagBANINFO@@@std@@@3@$0A@@std@@@2@PAU342@@Z ; std::_Tree<std::_Tmap_traits<unsigned long,tagBANINFO *,std::less<unsigned long>,std::allocator<std::pair<unsigned long const ,tagBANINFO *> >,0> >::_Parent
; Function compile flags: /Ogty
;	COMDAT ?_Parent@?$_Tree@V?$_Tmap_traits@KPAUtagBANINFO@@U?$less@K@std@@V?$allocator@U?$pair@$$CBKPAUtagBANINFO@@@std@@@3@$0A@@std@@@std@@KAAAPAU_Node@?$_Tree_nod@V?$_Tmap_traits@KPAUtagBANINFO@@U?$less@K@std@@V?$allocator@U?$pair@$$CBKPAUtagBANINFO@@@std@@@3@$0A@@std@@@2@PAU342@@Z
_TEXT	SEGMENT
__Pnode$ = 8						; size = 4
?_Parent@?$_Tree@V?$_Tmap_traits@KPAUtagBANINFO@@U?$less@K@std@@V?$allocator@U?$pair@$$CBKPAUtagBANINFO@@@std@@@3@$0A@@std@@@std@@KAAAPAU_Node@?$_Tree_nod@V?$_Tmap_traits@KPAUtagBANINFO@@U?$less@K@std@@V?$allocator@U?$pair@$$CBKPAUtagBANINFO@@@std@@@3@$0A@@std@@@2@PAU342@@Z PROC NEAR ; std::_Tree<std::_Tmap_traits<unsigned long,tagBANINFO *,std::less<unsigned long>,std::allocator<std::pair<unsigned long const ,tagBANINFO *> >,0> >::_Parent, COMDAT

; 152  : 		return ((_Nodepref)(*_Pnode)._Parent);

  00000	8b 44 24 04	 mov	 eax, DWORD PTR __Pnode$[esp-4]
  00004	83 c0 04	 add	 eax, 4

; 153  : 		}

  00007	c3		 ret	 0
?_Parent@?$_Tree@V?$_Tmap_traits@KPAUtagBANINFO@@U?$less@K@std@@V?$allocator@U?$pair@$$CBKPAUtagBANINFO@@@std@@@3@$0A@@std@@@std@@KAAAPAU_Node@?$_Tree_nod@V?$_Tmap_traits@KPAUtagBANINFO@@U?$less@K@std@@V?$allocator@U?$pair@$$CBKPAUtagBANINFO@@@std@@@3@$0A@@std@@@2@PAU342@@Z ENDP ; std::_Tree<std::_Tmap_traits<unsigned long,tagBANINFO *,std::less<unsigned long>,std::allocator<std::pair<unsigned long const ,tagBANINFO *> >,0> >::_Parent
_TEXT	ENDS
PUBLIC	?_Right@?$_Tree@V?$_Tmap_traits@KPAUtagBANINFO@@U?$less@K@std@@V?$allocator@U?$pair@$$CBKPAUtagBANINFO@@@std@@@3@$0A@@std@@@std@@KAAAPAU_Node@?$_Tree_nod@V?$_Tmap_traits@KPAUtagBANINFO@@U?$less@K@std@@V?$allocator@U?$pair@$$CBKPAUtagBANINFO@@@std@@@3@$0A@@std@@@2@PAU342@@Z ; std::_Tree<std::_Tmap_traits<unsigned long,tagBANINFO *,std::less<unsigned long>,std::allocator<std::pair<unsigned long const ,tagBANINFO *> >,0> >::_Right
; Function compile flags: /Ogty
;	COMDAT ?_Right@?$_Tree@V?$_Tmap_traits@KPAUtagBANINFO@@U?$less@K@std@@V?$allocator@U?$pair@$$CBKPAUtagBANINFO@@@std@@@3@$0A@@std@@@std@@KAAAPAU_Node@?$_Tree_nod@V?$_Tmap_traits@KPAUtagBANINFO@@U?$less@K@std@@V?$allocator@U?$pair@$$CBKPAUtagBANINFO@@@std@@@3@$0A@@std@@@2@PAU342@@Z
_TEXT	SEGMENT
__Pnode$ = 8						; size = 4
?_Right@?$_Tree@V?$_Tmap_traits@KPAUtagBANINFO@@U?$less@K@std@@V?$allocator@U?$pair@$$CBKPAUtagBANINFO@@@std@@@3@$0A@@std@@@std@@KAAAPAU_Node@?$_Tree_nod@V?$_Tmap_traits@KPAUtagBANINFO@@U?$less@K@std@@V?$allocator@U?$pair@$$CBKPAUtagBANINFO@@@std@@@3@$0A@@std@@@2@PAU342@@Z PROC NEAR ; std::_Tree<std::_Tmap_traits<unsigned long,tagBANINFO *,std::less<unsigned long>,std::allocator<std::pair<unsigned long const ,tagBANINFO *> >,0> >::_Right, COMDAT

; 157  : 		return ((_Nodepref)(*_Pnode)._Right);

  00000	8b 44 24 04	 mov	 eax, DWORD PTR __Pnode$[esp-4]
  00004	83 c0 08	 add	 eax, 8

; 158  : 		}

  00007	c3		 ret	 0
?_Right@?$_Tree@V?$_Tmap_traits@KPAUtagBANINFO@@U?$less@K@std@@V?$allocator@U?$pair@$$CBKPAUtagBANINFO@@@std@@@3@$0A@@std@@@std@@KAAAPAU_Node@?$_Tree_nod@V?$_Tmap_traits@KPAUtagBANINFO@@U?$less@K@std@@V?$allocator@U?$pair@$$CBKPAUtagBANINFO@@@std@@@3@$0A@@std@@@2@PAU342@@Z ENDP ; std::_Tree<std::_Tmap_traits<unsigned long,tagBANINFO *,std::less<unsigned long>,std::allocator<std::pair<unsigned long const ,tagBANINFO *> >,0> >::_Right
_TEXT	ENDS
PUBLIC	?_Min@?$_Tree@V?$_Tmap_traits@KPAUtagBANINFO@@U?$less@K@std@@V?$allocator@U?$pair@$$CBKPAUtagBANINFO@@@std@@@3@$0A@@std@@@std@@KAPAU_Node@?$_Tree_nod@V?$_Tmap_traits@KPAUtagBANINFO@@U?$less@K@std@@V?$allocator@U?$pair@$$CBKPAUtagBANINFO@@@std@@@3@$0A@@std@@@2@PAU342@@Z ; std::_Tree<std::_Tmap_traits<unsigned long,tagBANINFO *,std::less<unsigned long>,std::allocator<std::pair<unsigned long const ,tagBANINFO *> >,0> >::_Min
; Function compile flags: /Ogty
;	COMDAT ?_Min@?$_Tree@V?$_Tmap_traits@KPAUtagBANINFO@@U?$less@K@std@@V?$allocator@U?$pair@$$CBKPAUtagBANINFO@@@std@@@3@$0A@@std@@@std@@KAPAU_Node@?$_Tree_nod@V?$_Tmap_traits@KPAUtagBANINFO@@U?$less@K@std@@V?$allocator@U?$pair@$$CBKPAUtagBANINFO@@@std@@@3@$0A@@std@@@2@PAU342@@Z
_TEXT	SEGMENT
__Pnode$ = 8						; size = 4
?_Min@?$_Tree@V?$_Tmap_traits@KPAUtagBANINFO@@U?$less@K@std@@V?$allocator@U?$pair@$$CBKPAUtagBANINFO@@@std@@@3@$0A@@std@@@std@@KAPAU_Node@?$_Tree_nod@V?$_Tmap_traits@KPAUtagBANINFO@@U?$less@K@std@@V?$allocator@U?$pair@$$CBKPAUtagBANINFO@@@std@@@3@$0A@@std@@@2@PAU342@@Z PROC NEAR ; std::_Tree<std::_Tmap_traits<unsigned long,tagBANINFO *,std::less<unsigned long>,std::allocator<std::pair<unsigned long const ,tagBANINFO *> >,0> >::_Min, COMDAT

; 1042 : 		while (!_Isnil(_Left(_Pnode)))

  00000	8b 44 24 04	 mov	 eax, DWORD PTR __Pnode$[esp-4]
  00004	8b 08		 mov	 ecx, DWORD PTR [eax]
  00006	8a 51 15	 mov	 dl, BYTE PTR [ecx+21]
  00009	84 d2		 test	 dl, dl
  0000b	75 0e		 jne	 SHORT $L92539
  0000d	8d 49 00	 npad	 3
$L92538:

; 1043 : 			_Pnode = _Left(_Pnode);

  00010	8b c1		 mov	 eax, ecx
  00012	8b 08		 mov	 ecx, DWORD PTR [eax]
  00014	8a 51 15	 mov	 dl, BYTE PTR [ecx+21]
  00017	84 d2		 test	 dl, dl
  00019	74 f5		 je	 SHORT $L92538
$L92539:

; 1044 : 		return (_Pnode);
; 1045 : 		}

  0001b	c3		 ret	 0
?_Min@?$_Tree@V?$_Tmap_traits@KPAUtagBANINFO@@U?$less@K@std@@V?$allocator@U?$pair@$$CBKPAUtagBANINFO@@@std@@@3@$0A@@std@@@std@@KAPAU_Node@?$_Tree_nod@V?$_Tmap_traits@KPAUtagBANINFO@@U?$less@K@std@@V?$allocator@U?$pair@$$CBKPAUtagBANINFO@@@std@@@3@$0A@@std@@@2@PAU342@@Z ENDP ; std::_Tree<std::_Tmap_traits<unsigned long,tagBANINFO *,std::less<unsigned long>,std::allocator<std::pair<unsigned long const ,tagBANINFO *> >,0> >::_Min
_TEXT	ENDS
PUBLIC	?_Isnil@?$_Tree@V?$_Tmap_traits@KUtagEVENTINFO@@U?$less@K@std@@V?$allocator@U?$pair@$$CBKUtagEVENTINFO@@@std@@@3@$0A@@std@@@std@@KAAADPAU_Node@?$_Tree_nod@V?$_Tmap_traits@KUtagEVENTINFO@@U?$less@K@std@@V?$allocator@U?$pair@$$CBKUtagEVENTINFO@@@std@@@3@$0A@@std@@@2@@Z ; std::_Tree<std::_Tmap_traits<unsigned long,tagEVENTINFO,std::less<unsigned long>,std::allocator<std::pair<unsigned long const ,tagEVENTINFO> >,0> >::_Isnil
; Function compile flags: /Ogty
;	COMDAT ?_Isnil@?$_Tree@V?$_Tmap_traits@KUtagEVENTINFO@@U?$less@K@std@@V?$allocator@U?$pair@$$CBKUtagEVENTINFO@@@std@@@3@$0A@@std@@@std@@KAAADPAU_Node@?$_Tree_nod@V?$_Tmap_traits@KUtagEVENTINFO@@U?$less@K@std@@V?$allocator@U?$pair@$$CBKUtagEVENTINFO@@@std@@@3@$0A@@std@@@2@@Z
_TEXT	SEGMENT
__Pnode$ = 8						; size = 4
?_Isnil@?$_Tree@V?$_Tmap_traits@KUtagEVENTINFO@@U?$less@K@std@@V?$allocator@U?$pair@$$CBKUtagEVENTINFO@@@std@@@3@$0A@@std@@@std@@KAAADPAU_Node@?$_Tree_nod@V?$_Tmap_traits@KUtagEVENTINFO@@U?$less@K@std@@V?$allocator@U?$pair@$$CBKUtagEVENTINFO@@@std@@@3@$0A@@std@@@2@@Z PROC NEAR ; std::_Tree<std::_Tmap_traits<unsigned long,tagEVENTINFO,std::less<unsigned long>,std::allocator<std::pair<unsigned long const ,tagEVENTINFO> >,0> >::_Isnil, COMDAT

; 137  : 		return ((_Charref)(*_Pnode)._Isnil);

  00000	8b 44 24 04	 mov	 eax, DWORD PTR __Pnode$[esp-4]
  00004	05 a1 00 00 00	 add	 eax, 161		; 000000a1H

; 138  : 		}

  00009	c3		 ret	 0
?_Isnil@?$_Tree@V?$_Tmap_traits@KUtagEVENTINFO@@U?$less@K@std@@V?$allocator@U?$pair@$$CBKUtagEVENTINFO@@@std@@@3@$0A@@std@@@std@@KAAADPAU_Node@?$_Tree_nod@V?$_Tmap_traits@KUtagEVENTINFO@@U?$less@K@std@@V?$allocator@U?$pair@$$CBKUtagEVENTINFO@@@std@@@3@$0A@@std@@@2@@Z ENDP ; std::_Tree<std::_Tmap_traits<unsigned long,tagEVENTINFO,std::less<unsigned long>,std::allocator<std::pair<unsigned long const ,tagEVENTINFO> >,0> >::_Isnil
_TEXT	ENDS
PUBLIC	?_Parent@?$_Tree@V?$_Tmap_traits@KUtagEVENTINFO@@U?$less@K@std@@V?$allocator@U?$pair@$$CBKUtagEVENTINFO@@@std@@@3@$0A@@std@@@std@@KAAAPAU_Node@?$_Tree_nod@V?$_Tmap_traits@KUtagEVENTINFO@@U?$less@K@std@@V?$allocator@U?$pair@$$CBKUtagEVENTINFO@@@std@@@3@$0A@@std@@@2@PAU342@@Z ; std::_Tree<std::_Tmap_traits<unsigned long,tagEVENTINFO,std::less<unsigned long>,std::allocator<std::pair<unsigned long const ,tagEVENTINFO> >,0> >::_Parent
; Function compile flags: /Ogty
;	COMDAT ?_Parent@?$_Tree@V?$_Tmap_traits@KUtagEVENTINFO@@U?$less@K@std@@V?$allocator@U?$pair@$$CBKUtagEVENTINFO@@@std@@@3@$0A@@std@@@std@@KAAAPAU_Node@?$_Tree_nod@V?$_Tmap_traits@KUtagEVENTINFO@@U?$less@K@std@@V?$allocator@U?$pair@$$CBKUtagEVENTINFO@@@std@@@3@$0A@@std@@@2@PAU342@@Z
_TEXT	SEGMENT
__Pnode$ = 8						; size = 4
?_Parent@?$_Tree@V?$_Tmap_traits@KUtagEVENTINFO@@U?$less@K@std@@V?$allocator@U?$pair@$$CBKUtagEVENTINFO@@@std@@@3@$0A@@std@@@std@@KAAAPAU_Node@?$_Tree_nod@V?$_Tmap_traits@KUtagEVENTINFO@@U?$less@K@std@@V?$allocator@U?$pair@$$CBKUtagEVENTINFO@@@std@@@3@$0A@@std@@@2@PAU342@@Z PROC NEAR ; std::_Tree<std::_Tmap_traits<unsigned long,tagEVENTINFO,std::less<unsigned long>,std::allocator<std::pair<unsigned long const ,tagEVENTINFO> >,0> >::_Parent, COMDAT

; 152  : 		return ((_Nodepref)(*_Pnode)._Parent);

  00000	8b 44 24 04	 mov	 eax, DWORD PTR __Pnode$[esp-4]
  00004	83 c0 04	 add	 eax, 4

; 153  : 		}

  00007	c3		 ret	 0
?_Parent@?$_Tree@V?$_Tmap_traits@KUtagEVENTINFO@@U?$less@K@std@@V?$allocator@U?$pair@$$CBKUtagEVENTINFO@@@std@@@3@$0A@@std@@@std@@KAAAPAU_Node@?$_Tree_nod@V?$_Tmap_traits@KUtagEVENTINFO@@U?$less@K@std@@V?$allocator@U?$pair@$$CBKUtagEVENTINFO@@@std@@@3@$0A@@std@@@2@PAU342@@Z ENDP ; std::_Tree<std::_Tmap_traits<unsigned long,tagEVENTINFO,std::less<unsigned long>,std::allocator<std::pair<unsigned long const ,tagEVENTINFO> >,0> >::_Parent
_TEXT	ENDS
PUBLIC	?_Right@?$_Tree@V?$_Tmap_traits@KUtagEVENTINFO@@U?$less@K@std@@V?$allocator@U?$pair@$$CBKUtagEVENTINFO@@@std@@@3@$0A@@std@@@std@@KAAAPAU_Node@?$_Tree_nod@V?$_Tmap_traits@KUtagEVENTINFO@@U?$less@K@std@@V?$allocator@U?$pair@$$CBKUtagEVENTINFO@@@std@@@3@$0A@@std@@@2@PAU342@@Z ; std::_Tree<std::_Tmap_traits<unsigned long,tagEVENTINFO,std::less<unsigned long>,std::allocator<std::pair<unsigned long const ,tagEVENTINFO> >,0> >::_Right
; Function compile flags: /Ogty
;	COMDAT ?_Right@?$_Tree@V?$_Tmap_traits@KUtagEVENTINFO@@U?$less@K@std@@V?$allocator@U?$pair@$$CBKUtagEVENTINFO@@@std@@@3@$0A@@std@@@std@@KAAAPAU_Node@?$_Tree_nod@V?$_Tmap_traits@KUtagEVENTINFO@@U?$less@K@std@@V?$allocator@U?$pair@$$CBKUtagEVENTINFO@@@std@@@3@$0A@@std@@@2@PAU342@@Z
_TEXT	SEGMENT
__Pnode$ = 8						; size = 4
?_Right@?$_Tree@V?$_Tmap_traits@KUtagEVENTINFO@@U?$less@K@std@@V?$allocator@U?$pair@$$CBKUtagEVENTINFO@@@std@@@3@$0A@@std@@@std@@KAAAPAU_Node@?$_Tree_nod@V?$_Tmap_traits@KUtagEVENTINFO@@U?$less@K@std@@V?$allocator@U?$pair@$$CBKUtagEVENTINFO@@@std@@@3@$0A@@std@@@2@PAU342@@Z PROC NEAR ; std::_Tree<std::_Tmap_traits<unsigned long,tagEVENTINFO,std::less<unsigned long>,std::allocator<std::pair<unsigned long const ,tagEVENTINFO> >,0> >::_Right, COMDAT

; 157  : 		return ((_Nodepref)(*_Pnode)._Right);

  00000	8b 44 24 04	 mov	 eax, DWORD PTR __Pnode$[esp-4]
  00004	83 c0 08	 add	 eax, 8

; 158  : 		}

  00007	c3		 ret	 0
?_Right@?$_Tree@V?$_Tmap_traits@KUtagEVENTINFO@@U?$less@K@std@@V?$allocator@U?$pair@$$CBKUtagEVENTINFO@@@std@@@3@$0A@@std@@@std@@KAAAPAU_Node@?$_Tree_nod@V?$_Tmap_traits@KUtagEVENTINFO@@U?$less@K@std@@V?$allocator@U?$pair@$$CBKUtagEVENTINFO@@@std@@@3@$0A@@std@@@2@PAU342@@Z ENDP ; std::_Tree<std::_Tmap_traits<unsigned long,tagEVENTINFO,std::less<unsigned long>,std::allocator<std::pair<unsigned long const ,tagEVENTINFO> >,0> >::_Right
_TEXT	ENDS
PUBLIC	?_Min@?$_Tree@V?$_Tmap_traits@KUtagEVENTINFO@@U?$less@K@std@@V?$allocator@U?$pair@$$CBKUtagEVENTINFO@@@std@@@3@$0A@@std@@@std@@KAPAU_Node@?$_Tree_nod@V?$_Tmap_traits@KUtagEVENTINFO@@U?$less@K@std@@V?$allocator@U?$pair@$$CBKUtagEVENTINFO@@@std@@@3@$0A@@std@@@2@PAU342@@Z ; std::_Tree<std::_Tmap_traits<unsigned long,tagEVENTINFO,std::less<unsigned long>,std::allocator<std::pair<unsigned long const ,tagEVENTINFO> >,0> >::_Min
; Function compile flags: /Ogty
;	COMDAT ?_Min@?$_Tree@V?$_Tmap_traits@KUtagEVENTINFO@@U?$less@K@std@@V?$allocator@U?$pair@$$CBKUtagEVENTINFO@@@std@@@3@$0A@@std@@@std@@KAPAU_Node@?$_Tree_nod@V?$_Tmap_traits@KUtagEVENTINFO@@U?$less@K@std@@V?$allocator@U?$pair@$$CBKUtagEVENTINFO@@@std@@@3@$0A@@std@@@2@PAU342@@Z
_TEXT	SEGMENT
__Pnode$ = 8						; size = 4
?_Min@?$_Tree@V?$_Tmap_traits@KUtagEVENTINFO@@U?$less@K@std@@V?$allocator@U?$pair@$$CBKUtagEVENTINFO@@@std@@@3@$0A@@std@@@std@@KAPAU_Node@?$_Tree_nod@V?$_Tmap_traits@KUtagEVENTINFO@@U?$less@K@std@@V?$allocator@U?$pair@$$CBKUtagEVENTINFO@@@std@@@3@$0A@@std@@@2@PAU342@@Z PROC NEAR ; std::_Tree<std::_Tmap_traits<unsigned long,tagEVENTINFO,std::less<unsigned long>,std::allocator<std::pair<unsigned long const ,tagEVENTINFO> >,0> >::_Min, COMDAT

; 1042 : 		while (!_Isnil(_Left(_Pnode)))

  00000	8b 44 24 04	 mov	 eax, DWORD PTR __Pnode$[esp-4]
  00004	8b 08		 mov	 ecx, DWORD PTR [eax]
  00006	8a 91 a1 00 00
	00		 mov	 dl, BYTE PTR [ecx+161]
  0000c	84 d2		 test	 dl, dl
  0000e	75 0e		 jne	 SHORT $L92549
$L92548:

; 1043 : 			_Pnode = _Left(_Pnode);

  00010	8b c1		 mov	 eax, ecx
  00012	8b 08		 mov	 ecx, DWORD PTR [eax]
  00014	8a 91 a1 00 00
	00		 mov	 dl, BYTE PTR [ecx+161]
  0001a	84 d2		 test	 dl, dl
  0001c	74 f2		 je	 SHORT $L92548
$L92549:

; 1044 : 		return (_Pnode);
; 1045 : 		}

  0001e	c3		 ret	 0
?_Min@?$_Tree@V?$_Tmap_traits@KUtagEVENTINFO@@U?$less@K@std@@V?$allocator@U?$pair@$$CBKUtagEVENTINFO@@@std@@@3@$0A@@std@@@std@@KAPAU_Node@?$_Tree_nod@V?$_Tmap_traits@KUtagEVENTINFO@@U?$less@K@std@@V?$allocator@U?$pair@$$CBKUtagEVENTINFO@@@std@@@3@$0A@@std@@@2@PAU342@@Z ENDP ; std::_Tree<std::_Tmap_traits<unsigned long,tagEVENTINFO,std::less<unsigned long>,std::allocator<std::pair<unsigned long const ,tagEVENTINFO> >,0> >::_Min
_TEXT	ENDS
PUBLIC	?data@CStringData@ATL@@QAEPAXXZ			; ATL::CStringData::data
; Function compile flags: /Ogty
; File c:\program files (x86)\microsoft visual studio .net 2003\vc7\atlmfc\include\atlsimpstr.h
;	COMDAT ?data@CStringData@ATL@@QAEPAXXZ
_TEXT	SEGMENT
?data@CStringData@ATL@@QAEPAXXZ PROC NEAR		; ATL::CStringData::data, COMDAT
; _this$ = ecx

; 66   : 		return (this+1);

  00000	8d 41 10	 lea	 eax, DWORD PTR [ecx+16]

; 67   : 	}

  00003	c3		 ret	 0
?data@CStringData@ATL@@QAEPAXXZ ENDP			; ATL::CStringData::data
_TEXT	ENDS
PUBLIC	?AddRef@CStringData@ATL@@QAEXXZ			; ATL::CStringData::AddRef
; Function compile flags: /Ogty
;	COMDAT ?AddRef@CStringData@ATL@@QAEXXZ
_TEXT	SEGMENT
?AddRef@CStringData@ATL@@QAEXXZ PROC NEAR		; ATL::CStringData::AddRef, COMDAT
; _this$ = ecx

; 71   : 		ATLASSERT(nRefs > 0);
; 72   : 		_InterlockedIncrement(&nRefs);

  00000	83 c1 0c	 add	 ecx, 12			; 0000000cH
  00003	b8 01 00 00 00	 mov	 eax, 1
  00008	f0 0f c1 01	 lock	  xadd	 DWORD PTR [ecx], eax

; 73   : 	}

  0000c	c3		 ret	 0
?AddRef@CStringData@ATL@@QAEXXZ ENDP			; ATL::CStringData::AddRef
_TEXT	ENDS
PUBLIC	?IsLocked@CStringData@ATL@@QBE_NXZ		; ATL::CStringData::IsLocked
; Function compile flags: /Ogty
;	COMDAT ?IsLocked@CStringData@ATL@@QBE_NXZ
_TEXT	SEGMENT
?IsLocked@CStringData@ATL@@QBE_NXZ PROC NEAR		; ATL::CStringData::IsLocked, COMDAT
; _this$ = ecx

; 76   : 		return nRefs < 0;

  00000	8b 51 0c	 mov	 edx, DWORD PTR [ecx+12]
  00003	33 c0		 xor	 eax, eax
  00005	85 d2		 test	 edx, edx
  00007	0f 9c c0	 setl	 al

; 77   : 	}

  0000a	c3		 ret	 0
?IsLocked@CStringData@ATL@@QBE_NXZ ENDP			; ATL::CStringData::IsLocked
_TEXT	ENDS
PUBLIC	?Release@CStringData@ATL@@QAEXXZ		; ATL::CStringData::Release
; Function compile flags: /Ogty
;	COMDAT ?Release@CStringData@ATL@@QAEXXZ
_TEXT	SEGMENT
?Release@CStringData@ATL@@QAEXXZ PROC NEAR		; ATL::CStringData::Release, COMDAT
; _this$ = ecx

; 93   : 		ATLASSERT( nRefs != 0 );
; 94   : 
; 95   : 		if( _InterlockedDecrement( &nRefs ) <= 0 )

  00000	8d 41 0c	 lea	 eax, DWORD PTR [ecx+12]
  00003	83 ca ff	 or	 edx, -1
  00006	f0 0f c1 10	 lock	  xadd	 DWORD PTR [eax], edx
  0000a	4a		 dec	 edx
  0000b	85 d2		 test	 edx, edx
  0000d	7f 0a		 jg	 SHORT $L59419

; 96   : 		{
; 97   : 			pStringMgr->Free( this );

  0000f	8b 01		 mov	 eax, DWORD PTR [ecx]
  00011	8b 10		 mov	 edx, DWORD PTR [eax]
  00013	51		 push	 ecx
  00014	8b c8		 mov	 ecx, eax
  00016	ff 52 04	 call	 DWORD PTR [edx+4]
$L59419:

; 98   : 		}
; 99   : 	}

  00019	c3		 ret	 0
?Release@CStringData@ATL@@QAEXXZ ENDP			; ATL::CStringData::Release
_TEXT	ENDS
PUBLIC	?assign@?$char_traits@D@std@@SAXAADABD@Z	; std::char_traits<char>::assign
; Function compile flags: /Ogty
; File c:\program files (x86)\microsoft visual studio .net 2003\vc7\include\iosfwd
;	COMDAT ?assign@?$char_traits@D@std@@SAXAADABD@Z
_TEXT	SEGMENT
__Left$ = 8						; size = 4
__Right$ = 12						; size = 4
?assign@?$char_traits@D@std@@SAXAADABD@Z PROC NEAR	; std::char_traits<char>::assign, COMDAT

; 331  : 		_Left = _Right;

  00000	8b 44 24 08	 mov	 eax, DWORD PTR __Right$[esp-4]
  00004	8a 08		 mov	 cl, BYTE PTR [eax]
  00006	8b 54 24 04	 mov	 edx, DWORD PTR __Left$[esp-4]
  0000a	88 0a		 mov	 BYTE PTR [edx], cl

; 332  : 		}

  0000c	c3		 ret	 0
?assign@?$char_traits@D@std@@SAXAADABD@Z ENDP		; std::char_traits<char>::assign
_TEXT	ENDS
PUBLIC	?length@?$char_traits@D@std@@SAIPBD@Z		; std::char_traits<char>::length
; Function compile flags: /Ogty
;	COMDAT ?length@?$char_traits@D@std@@SAIPBD@Z
_TEXT	SEGMENT
__First$ = 8						; size = 4
?length@?$char_traits@D@std@@SAIPBD@Z PROC NEAR		; std::char_traits<char>::length, COMDAT

; 352  : 		return (::strlen(_First));

  00000	8b 44 24 04	 mov	 eax, DWORD PTR __First$[esp-4]
  00004	8d 50 01	 lea	 edx, DWORD PTR [eax+1]
$L93837:
  00007	8a 08		 mov	 cl, BYTE PTR [eax]
  00009	40		 inc	 eax
  0000a	84 c9		 test	 cl, cl
  0000c	75 f9		 jne	 SHORT $L93837
  0000e	2b c2		 sub	 eax, edx

; 353  : 		}

  00010	c3		 ret	 0
?length@?$char_traits@D@std@@SAIPBD@Z ENDP		; std::char_traits<char>::length
_TEXT	ENDS
PUBLIC	?copy@?$char_traits@D@std@@SAPADPADPBDI@Z	; std::char_traits<char>::copy
; Function compile flags: /Ogty
;	COMDAT ?copy@?$char_traits@D@std@@SAPADPADPBDI@Z
_TEXT	SEGMENT
__First1$ = 8						; size = 4
__First2$ = 12						; size = 4
__Count$ = 16						; size = 4
?copy@?$char_traits@D@std@@SAPADPADPBDI@Z PROC NEAR	; std::char_traits<char>::copy, COMDAT

; 358  : 		return ((_Elem *)::memcpy(_First1, _First2, _Count));

  00000	8b 4c 24 0c	 mov	 ecx, DWORD PTR __Count$[esp-4]
  00004	56		 push	 esi
  00005	8b 74 24 0c	 mov	 esi, DWORD PTR __First2$[esp]
  00009	57		 push	 edi
  0000a	8b 7c 24 0c	 mov	 edi, DWORD PTR __First1$[esp+4]
  0000e	8b c1		 mov	 eax, ecx
  00010	8b d7		 mov	 edx, edi
  00012	c1 e9 02	 shr	 ecx, 2
  00015	f3 a5		 rep movsd
  00017	8b c8		 mov	 ecx, eax
  00019	83 e1 03	 and	 ecx, 3
  0001c	f3 a4		 rep movsb
  0001e	5f		 pop	 edi
  0001f	8b c2		 mov	 eax, edx
  00021	5e		 pop	 esi

; 359  : 		}

  00022	c3		 ret	 0
?copy@?$char_traits@D@std@@SAPADPADPBDI@Z ENDP		; std::char_traits<char>::copy
_TEXT	ENDS
PUBLIC	?move@?$char_traits@D@std@@SAPADPADPBDI@Z	; std::char_traits<char>::move
EXTRN	_memmove:NEAR
; Function compile flags: /Ogty
;	COMDAT ?move@?$char_traits@D@std@@SAPADPADPBDI@Z
_TEXT	SEGMENT
__First1$ = 8						; size = 4
__First2$ = 12						; size = 4
__Count$ = 16						; size = 4
?move@?$char_traits@D@std@@SAPADPADPBDI@Z PROC NEAR	; std::char_traits<char>::move, COMDAT

; 370  : 		return ((_Elem *)::memmove(_First1, _First2, _Count));

  00000	e9 00 00 00 00	 jmp	 _memmove
?move@?$char_traits@D@std@@SAPADPADPBDI@Z ENDP		; std::char_traits<char>::move
_TEXT	ENDS
PUBLIC	??B?$CSimpleStringT@D$0A@@ATL@@QBEPBDXZ		; ATL::CSimpleStringT<char,0>::operator char const *
; Function compile flags: /Ogty
; File c:\program files (x86)\microsoft visual studio .net 2003\vc7\atlmfc\include\atlsimpstr.h
;	COMDAT ??B?$CSimpleStringT@D$0A@@ATL@@QBEPBDXZ
_TEXT	SEGMENT
??B?$CSimpleStringT@D$0A@@ATL@@QBEPBDXZ PROC NEAR	; ATL::CSimpleStringT<char,0>::operator char const *, COMDAT
; _this$ = ecx

; 379  : 		return( m_pszData );

  00000	8b 01		 mov	 eax, DWORD PTR [ecx]

; 380  : 	}

  00002	c3		 ret	 0
??B?$CSimpleStringT@D$0A@@ATL@@QBEPBDXZ ENDP		; ATL::CSimpleStringT<char,0>::operator char const *
_TEXT	ENDS
PUBLIC	?size@?$basic_string@DU?$char_traits@D@std@@V?$allocator@D@2@@std@@QBEIXZ ; std::basic_string<char,std::char_traits<char>,std::allocator<char> >::size
; Function compile flags: /Ogty
; File c:\program files (x86)\microsoft visual studio .net 2003\vc7\include\xstring
;	COMDAT ?size@?$basic_string@DU?$char_traits@D@std@@V?$allocator@D@2@@std@@QBEIXZ
_TEXT	SEGMENT
?size@?$basic_string@DU?$char_traits@D@std@@V?$allocator@D@2@@std@@QBEIXZ PROC NEAR ; std::basic_string<char,std::char_traits<char>,std::allocator<char> >::size, COMDAT
; _this$ = ecx

; 1109 : 		return (_Mysize);

  00000	8b 41 14	 mov	 eax, DWORD PTR [ecx+20]

; 1110 : 		}

  00003	c3		 ret	 0
?size@?$basic_string@DU?$char_traits@D@std@@V?$allocator@D@2@@std@@QBEIXZ ENDP ; std::basic_string<char,std::char_traits<char>,std::allocator<char> >::size
_TEXT	ENDS
PUBLIC	?size@?$vector@GV?$allocator@G@std@@@std@@QBEIXZ ; std::vector<unsigned short,std::allocator<unsigned short> >::size
; Function compile flags: /Ogty
; File c:\program files (x86)\microsoft visual studio .net 2003\vc7\include\vector
;	COMDAT ?size@?$vector@GV?$allocator@G@std@@@std@@QBEIXZ
_TEXT	SEGMENT
?size@?$vector@GV?$allocator@G@std@@@std@@QBEIXZ PROC NEAR ; std::vector<unsigned short,std::allocator<unsigned short> >::size, COMDAT
; _this$ = ecx

; 516  : 		return (_Myfirst == 0 ? 0 : _Mylast - _Myfirst);

  00000	8b 51 04	 mov	 edx, DWORD PTR [ecx+4]
  00003	85 d2		 test	 edx, edx
  00005	75 03		 jne	 SHORT $L93854
  00007	33 c0		 xor	 eax, eax

; 517  : 		}

  00009	c3		 ret	 0
$L93854:

; 516  : 		return (_Myfirst == 0 ? 0 : _Mylast - _Myfirst);

  0000a	8b 41 08	 mov	 eax, DWORD PTR [ecx+8]
  0000d	2b c2		 sub	 eax, edx
  0000f	d1 f8		 sar	 eax, 1

; 517  : 		}

  00011	c3		 ret	 0
?size@?$vector@GV?$allocator@G@std@@@std@@QBEIXZ ENDP	; std::vector<unsigned short,std::allocator<unsigned short> >::size
_TEXT	ENDS
PUBLIC	?size@?$vector@UtagTCASHITEMSALE@@V?$allocator@UtagTCASHITEMSALE@@@std@@@std@@QBEIXZ ; std::vector<tagTCASHITEMSALE,std::allocator<tagTCASHITEMSALE> >::size
; Function compile flags: /Ogty
;	COMDAT ?size@?$vector@UtagTCASHITEMSALE@@V?$allocator@UtagTCASHITEMSALE@@@std@@@std@@QBEIXZ
_TEXT	SEGMENT
?size@?$vector@UtagTCASHITEMSALE@@V?$allocator@UtagTCASHITEMSALE@@@std@@@std@@QBEIXZ PROC NEAR ; std::vector<tagTCASHITEMSALE,std::allocator<tagTCASHITEMSALE> >::size, COMDAT
; _this$ = ecx

; 516  : 		return (_Myfirst == 0 ? 0 : _Mylast - _Myfirst);

  00000	8b 51 04	 mov	 edx, DWORD PTR [ecx+4]
  00003	85 d2		 test	 edx, edx
  00005	75 03		 jne	 SHORT $L93859
  00007	33 c0		 xor	 eax, eax

; 517  : 		}

  00009	c3		 ret	 0
$L93859:

; 516  : 		return (_Myfirst == 0 ? 0 : _Mylast - _Myfirst);

  0000a	8b 41 08	 mov	 eax, DWORD PTR [ecx+8]
  0000d	2b c2		 sub	 eax, edx
  0000f	c1 f8 02	 sar	 eax, 2

; 517  : 		}

  00012	c3		 ret	 0
?size@?$vector@UtagTCASHITEMSALE@@V?$allocator@UtagTCASHITEMSALE@@@std@@@std@@QBEIXZ ENDP ; std::vector<tagTCASHITEMSALE,std::allocator<tagTCASHITEMSALE> >::size
_TEXT	ENDS
PUBLIC	?size@?$vector@UtagMONREGEN@@V?$allocator@UtagMONREGEN@@@std@@@std@@QBEIXZ ; std::vector<tagMONREGEN,std::allocator<tagMONREGEN> >::size
; Function compile flags: /Ogty
;	COMDAT ?size@?$vector@UtagMONREGEN@@V?$allocator@UtagMONREGEN@@@std@@@std@@QBEIXZ
_TEXT	SEGMENT
?size@?$vector@UtagMONREGEN@@V?$allocator@UtagMONREGEN@@@std@@@std@@QBEIXZ PROC NEAR ; std::vector<tagMONREGEN,std::allocator<tagMONREGEN> >::size, COMDAT
; _this$ = ecx

; 516  : 		return (_Myfirst == 0 ? 0 : _Mylast - _Myfirst);

  00000	8b 41 04	 mov	 eax, DWORD PTR [ecx+4]
  00003	85 c0		 test	 eax, eax
  00005	75 01		 jne	 SHORT $L93864

; 517  : 		}

  00007	c3		 ret	 0
$L93864:

; 516  : 		return (_Myfirst == 0 ? 0 : _Mylast - _Myfirst);

  00008	8b 49 08	 mov	 ecx, DWORD PTR [ecx+8]
  0000b	2b c8		 sub	 ecx, eax
  0000d	b8 ab aa aa 2a	 mov	 eax, 715827883		; 2aaaaaabH
  00012	f7 e9		 imul	 ecx
  00014	c1 fa 02	 sar	 edx, 2
  00017	8b c2		 mov	 eax, edx
  00019	c1 e8 1f	 shr	 eax, 31			; 0000001fH
  0001c	03 c2		 add	 eax, edx

; 517  : 		}

  0001e	c3		 ret	 0
?size@?$vector@UtagMONREGEN@@V?$allocator@UtagMONREGEN@@@std@@@std@@QBEIXZ ENDP ; std::vector<tagMONREGEN,std::allocator<tagMONREGEN> >::size
_TEXT	ENDS
PUBLIC	?size@?$vector@UtagLOTTERY@@V?$allocator@UtagLOTTERY@@@std@@@std@@QBEIXZ ; std::vector<tagLOTTERY,std::allocator<tagLOTTERY> >::size
; Function compile flags: /Ogty
;	COMDAT ?size@?$vector@UtagLOTTERY@@V?$allocator@UtagLOTTERY@@@std@@@std@@QBEIXZ
_TEXT	SEGMENT
?size@?$vector@UtagLOTTERY@@V?$allocator@UtagLOTTERY@@@std@@@std@@QBEIXZ PROC NEAR ; std::vector<tagLOTTERY,std::allocator<tagLOTTERY> >::size, COMDAT
; _this$ = ecx

; 516  : 		return (_Myfirst == 0 ? 0 : _Mylast - _Myfirst);

  00000	8b 41 04	 mov	 eax, DWORD PTR [ecx+4]
  00003	85 c0		 test	 eax, eax
  00005	75 01		 jne	 SHORT $L93869

; 517  : 		}

  00007	c3		 ret	 0
$L93869:

; 516  : 		return (_Myfirst == 0 ? 0 : _Mylast - _Myfirst);

  00008	8b 49 08	 mov	 ecx, DWORD PTR [ecx+8]
  0000b	2b c8		 sub	 ecx, eax
  0000d	b8 ab aa aa 2a	 mov	 eax, 715827883		; 2aaaaaabH
  00012	f7 e9		 imul	 ecx
  00014	8b c2		 mov	 eax, edx
  00016	c1 e8 1f	 shr	 eax, 31			; 0000001fH
  00019	03 c2		 add	 eax, edx

; 517  : 		}

  0001b	c3		 ret	 0
?size@?$vector@UtagLOTTERY@@V?$allocator@UtagLOTTERY@@@std@@@std@@QBEIXZ ENDP ; std::vector<tagLOTTERY,std::allocator<tagLOTTERY> >::size
_TEXT	ENDS
PUBLIC	?_Myptr@?$basic_string@DU?$char_traits@D@std@@V?$allocator@D@2@@std@@QBEPBDXZ ; std::basic_string<char,std::char_traits<char>,std::allocator<char> >::_Myptr
; Function compile flags: /Ogty
; File c:\program files (x86)\microsoft visual studio .net 2003\vc7\include\xstring
;	COMDAT ?_Myptr@?$basic_string@DU?$char_traits@D@std@@V?$allocator@D@2@@std@@QBEPBDXZ
_TEXT	SEGMENT
?_Myptr@?$basic_string@DU?$char_traits@D@std@@V?$allocator@D@2@@std@@QBEPBDXZ PROC NEAR ; std::basic_string<char,std::char_traits<char>,std::allocator<char> >::_Myptr, COMDAT
; _this$ = ecx

; 1537 : 		return (_BUF_SIZE <= _Myres ? _Bx._Ptr : _Bx._Buf);

  00000	83 79 18 10	 cmp	 DWORD PTR [ecx+24], 16	; 00000010H
  00004	72 04		 jb	 SHORT $L93874
  00006	8b 41 04	 mov	 eax, DWORD PTR [ecx+4]

; 1538 : 		}

  00009	c3		 ret	 0
$L93874:

; 1537 : 		return (_BUF_SIZE <= _Myres ? _Bx._Ptr : _Bx._Buf);

  0000a	8d 41 04	 lea	 eax, DWORD PTR [ecx+4]

; 1538 : 		}

  0000d	c3		 ret	 0
?_Myptr@?$basic_string@DU?$char_traits@D@std@@V?$allocator@D@2@@std@@QBEPBDXZ ENDP ; std::basic_string<char,std::char_traits<char>,std::allocator<char> >::_Myptr
_TEXT	ENDS
PUBLIC	??0?$allocator@D@std@@QAE@ABV01@@Z		; std::allocator<char>::allocator<char>
; Function compile flags: /Ogty
; File c:\program files (x86)\microsoft visual studio .net 2003\vc7\include\xmemory
;	COMDAT ??0?$allocator@D@std@@QAE@ABV01@@Z
_TEXT	SEGMENT
___formal$ = 8						; size = 4
??0?$allocator@D@std@@QAE@ABV01@@Z PROC NEAR		; std::allocator<char>::allocator<char>, COMDAT
; _this$ = ecx

; 115  : 	allocator(const allocator<_Ty>&)

  00000	8b c1		 mov	 eax, ecx

; 116  : 		{	// construct by copying (do nothing)
; 117  : 		}

  00002	c2 04 00	 ret	 4
??0?$allocator@D@std@@QAE@ABV01@@Z ENDP			; std::allocator<char>::allocator<char>
_TEXT	ENDS
PUBLIC	?Attach@?$CSimpleStringT@D$0A@@ATL@@AAEXPAUCStringData@2@@Z ; ATL::CSimpleStringT<char,0>::Attach
; Function compile flags: /Ogty
; File c:\program files (x86)\microsoft visual studio .net 2003\vc7\atlmfc\include\atlsimpstr.h
;	COMDAT ?Attach@?$CSimpleStringT@D$0A@@ATL@@AAEXPAUCStringData@2@@Z
_TEXT	SEGMENT
_pData$ = 8						; size = 4
?Attach@?$CSimpleStringT@D$0A@@ATL@@AAEXPAUCStringData@2@@Z PROC NEAR ; ATL::CSimpleStringT<char,0>::Attach, COMDAT
; _this$ = ecx

; 712  : 		m_pszData = static_cast< PXSTR >( pData->data() );

  00000	8b 44 24 04	 mov	 eax, DWORD PTR _pData$[esp-4]
  00004	83 c0 10	 add	 eax, 16			; 00000010H
  00007	89 01		 mov	 DWORD PTR [ecx], eax

; 713  : 	}

  00009	c2 04 00	 ret	 4
?Attach@?$CSimpleStringT@D$0A@@ATL@@AAEXPAUCStringData@2@@Z ENDP ; ATL::CSimpleStringT<char,0>::Attach
_TEXT	ENDS
PUBLIC	?GetData@?$CSimpleStringT@D$0A@@ATL@@ABEPAUCStringData@2@XZ ; ATL::CSimpleStringT<char,0>::GetData
; Function compile flags: /Ogty
;	COMDAT ?GetData@?$CSimpleStringT@D$0A@@ATL@@ABEPAUCStringData@2@XZ
_TEXT	SEGMENT
?GetData@?$CSimpleStringT@D$0A@@ATL@@ABEPAUCStringData@2@XZ PROC NEAR ; ATL::CSimpleStringT<char,0>::GetData, COMDAT
; _this$ = ecx

; 731  : 		return( reinterpret_cast< CStringData* >( m_pszData )-1 );

  00000	8b 01		 mov	 eax, DWORD PTR [ecx]
  00002	83 e8 10	 sub	 eax, 16			; 00000010H

; 732  : 	}

  00005	c3		 ret	 0
?GetData@?$CSimpleStringT@D$0A@@ATL@@ABEPAUCStringData@2@XZ ENDP ; ATL::CSimpleStringT<char,0>::GetData
_TEXT	ENDS
PUBLIC	?_Myptr@?$basic_string@DU?$char_traits@D@std@@V?$allocator@D@2@@std@@QAEPADXZ ; std::basic_string<char,std::char_traits<char>,std::allocator<char> >::_Myptr
; Function compile flags: /Ogty
; File c:\program files (x86)\microsoft visual studio .net 2003\vc7\include\xstring
;	COMDAT ?_Myptr@?$basic_string@DU?$char_traits@D@std@@V?$allocator@D@2@@std@@QAEPADXZ
_TEXT	SEGMENT
?_Myptr@?$basic_string@DU?$char_traits@D@std@@V?$allocator@D@2@@std@@QAEPADXZ PROC NEAR ; std::basic_string<char,std::char_traits<char>,std::allocator<char> >::_Myptr, COMDAT
; _this$ = ecx

; 1532 : 		return (_BUF_SIZE <= _Myres ? _Bx._Ptr : _Bx._Buf);

  00000	83 79 18 10	 cmp	 DWORD PTR [ecx+24], 16	; 00000010H
  00004	72 04		 jb	 SHORT $L93891
  00006	8b 41 04	 mov	 eax, DWORD PTR [ecx+4]

; 1533 : 		}

  00009	c3		 ret	 0
$L93891:

; 1532 : 		return (_BUF_SIZE <= _Myres ? _Bx._Ptr : _Bx._Buf);

  0000a	8d 41 04	 lea	 eax, DWORD PTR [ecx+4]

; 1533 : 		}

  0000d	c3		 ret	 0
?_Myptr@?$basic_string@DU?$char_traits@D@std@@V?$allocator@D@2@@std@@QAEPADXZ ENDP ; std::basic_string<char,std::char_traits<char>,std::allocator<char> >::_Myptr
_TEXT	ENDS
PUBLIC	?deallocate@?$allocator@D@std@@QAEXPADI@Z	; std::allocator<char>::deallocate
; Function compile flags: /Ogty
; File c:\program files (x86)\microsoft visual studio .net 2003\vc7\include\xmemory
;	COMDAT ?deallocate@?$allocator@D@std@@QAEXPADI@Z
_TEXT	SEGMENT
__Ptr$ = 8						; size = 4
___formal$ = 12						; size = 4
?deallocate@?$allocator@D@std@@QAEXPADI@Z PROC NEAR	; std::allocator<char>::deallocate, COMDAT
; _this$ = ecx

; 132  : 		operator delete(_Ptr);

  00000	8b 44 24 04	 mov	 eax, DWORD PTR __Ptr$[esp-4]
  00004	50		 push	 eax
  00005	e8 00 00 00 00	 call	 ??3@YAXPAX@Z		; operator delete
  0000a	59		 pop	 ecx

; 133  : 		}

  0000b	c2 08 00	 ret	 8
?deallocate@?$allocator@D@std@@QAEXPADI@Z ENDP		; std::allocator<char>::deallocate
_TEXT	ENDS
PUBLIC	??Yiterator@?$vector@GV?$allocator@G@std@@@std@@QAEAAV012@H@Z ; std::vector<unsigned short,std::allocator<unsigned short> >::iterator::operator+=
; Function compile flags: /Ogty
; File c:\program files (x86)\microsoft visual studio .net 2003\vc7\include\vector
;	COMDAT ??Yiterator@?$vector@GV?$allocator@G@std@@@std@@QAEAAV012@H@Z
_TEXT	SEGMENT
__Off$ = 8						; size = 4
??Yiterator@?$vector@GV?$allocator@G@std@@@std@@QAEAAV012@H@Z PROC NEAR ; std::vector<unsigned short,std::allocator<unsigned short> >::iterator::operator+=, COMDAT
; _this$ = ecx

; 255  : 			{	// increment by integer

  00000	8b c1		 mov	 eax, ecx

; 256  : 			this->_Myptr += _Off;

  00002	8b 4c 24 04	 mov	 ecx, DWORD PTR __Off$[esp-4]
  00006	8d 14 09	 lea	 edx, DWORD PTR [ecx+ecx]
  00009	01 10		 add	 DWORD PTR [eax], edx

; 257  : 			return (*this);
; 258  : 			}

  0000b	c2 04 00	 ret	 4
??Yiterator@?$vector@GV?$allocator@G@std@@@std@@QAEAAV012@H@Z ENDP ; std::vector<unsigned short,std::allocator<unsigned short> >::iterator::operator+=
_TEXT	ENDS
PUBLIC	??Dconst_iterator@?$vector@GV?$allocator@G@std@@@std@@QBEABGXZ ; std::vector<unsigned short,std::allocator<unsigned short> >::const_iterator::operator*
; Function compile flags: /Ogty
;	COMDAT ??Dconst_iterator@?$vector@GV?$allocator@G@std@@@std@@QBEABGXZ
_TEXT	SEGMENT
??Dconst_iterator@?$vector@GV?$allocator@G@std@@@std@@QBEABGXZ PROC NEAR ; std::vector<unsigned short,std::allocator<unsigned short> >::const_iterator::operator*, COMDAT
; _this$ = ecx

; 80   : 
; 81   : 
; 82   : 			return (*_Myptr);

  00000	8b 01		 mov	 eax, DWORD PTR [ecx]

; 83   : 			}

  00002	c3		 ret	 0
??Dconst_iterator@?$vector@GV?$allocator@G@std@@@std@@QBEABGXZ ENDP ; std::vector<unsigned short,std::allocator<unsigned short> >::const_iterator::operator*
_TEXT	ENDS
PUBLIC	??Yiterator@?$vector@UtagTCASHITEMSALE@@V?$allocator@UtagTCASHITEMSALE@@@std@@@std@@QAEAAV012@H@Z ; std::vector<tagTCASHITEMSALE,std::allocator<tagTCASHITEMSALE> >::iterator::operator+=
; Function compile flags: /Ogty
;	COMDAT ??Yiterator@?$vector@UtagTCASHITEMSALE@@V?$allocator@UtagTCASHITEMSALE@@@std@@@std@@QAEAAV012@H@Z
_TEXT	SEGMENT
__Off$ = 8						; size = 4
??Yiterator@?$vector@UtagTCASHITEMSALE@@V?$allocator@UtagTCASHITEMSALE@@@std@@@std@@QAEAAV012@H@Z PROC NEAR ; std::vector<tagTCASHITEMSALE,std::allocator<tagTCASHITEMSALE> >::iterator::operator+=, COMDAT
; _this$ = ecx

; 255  : 			{	// increment by integer

  00000	8b c1		 mov	 eax, ecx

; 256  : 			this->_Myptr += _Off;

  00002	8b 4c 24 04	 mov	 ecx, DWORD PTR __Off$[esp-4]
  00006	8d 14 8d 00 00
	00 00		 lea	 edx, DWORD PTR [ecx*4]
  0000d	01 10		 add	 DWORD PTR [eax], edx

; 257  : 			return (*this);
; 258  : 			}

  0000f	c2 04 00	 ret	 4
??Yiterator@?$vector@UtagTCASHITEMSALE@@V?$allocator@UtagTCASHITEMSALE@@@std@@@std@@QAEAAV012@H@Z ENDP ; std::vector<tagTCASHITEMSALE,std::allocator<tagTCASHITEMSALE> >::iterator::operator+=
_TEXT	ENDS
PUBLIC	??Dconst_iterator@?$vector@UtagTCASHITEMSALE@@V?$allocator@UtagTCASHITEMSALE@@@std@@@std@@QBEABUtagTCASHITEMSALE@@XZ ; std::vector<tagTCASHITEMSALE,std::allocator<tagTCASHITEMSALE> >::const_iterator::operator*
; Function compile flags: /Ogty
;	COMDAT ??Dconst_iterator@?$vector@UtagTCASHITEMSALE@@V?$allocator@UtagTCASHITEMSALE@@@std@@@std@@QBEABUtagTCASHITEMSALE@@XZ
_TEXT	SEGMENT
??Dconst_iterator@?$vector@UtagTCASHITEMSALE@@V?$allocator@UtagTCASHITEMSALE@@@std@@@std@@QBEABUtagTCASHITEMSALE@@XZ PROC NEAR ; std::vector<tagTCASHITEMSALE,std::allocator<tagTCASHITEMSALE> >::const_iterator::operator*, COMDAT
; _this$ = ecx

; 80   : 
; 81   : 
; 82   : 			return (*_Myptr);

  00000	8b 01		 mov	 eax, DWORD PTR [ecx]

; 83   : 			}

  00002	c3		 ret	 0
??Dconst_iterator@?$vector@UtagTCASHITEMSALE@@V?$allocator@UtagTCASHITEMSALE@@@std@@@std@@QBEABUtagTCASHITEMSALE@@XZ ENDP ; std::vector<tagTCASHITEMSALE,std::allocator<tagTCASHITEMSALE> >::const_iterator::operator*
_TEXT	ENDS
PUBLIC	??Yiterator@?$vector@UtagMONREGEN@@V?$allocator@UtagMONREGEN@@@std@@@std@@QAEAAV012@H@Z ; std::vector<tagMONREGEN,std::allocator<tagMONREGEN> >::iterator::operator+=
; Function compile flags: /Ogty
;	COMDAT ??Yiterator@?$vector@UtagMONREGEN@@V?$allocator@UtagMONREGEN@@@std@@@std@@QAEAAV012@H@Z
_TEXT	SEGMENT
__Off$ = 8						; size = 4
??Yiterator@?$vector@UtagMONREGEN@@V?$allocator@UtagMONREGEN@@@std@@@std@@QAEAAV012@H@Z PROC NEAR ; std::vector<tagMONREGEN,std::allocator<tagMONREGEN> >::iterator::operator+=, COMDAT
; _this$ = ecx

; 255  : 			{	// increment by integer

  00000	8b c1		 mov	 eax, ecx

; 256  : 			this->_Myptr += _Off;

  00002	8b 4c 24 04	 mov	 ecx, DWORD PTR __Off$[esp-4]
  00006	8b 10		 mov	 edx, DWORD PTR [eax]
  00008	8d 0c 49	 lea	 ecx, DWORD PTR [ecx+ecx*2]
  0000b	c1 e1 03	 shl	 ecx, 3
  0000e	03 d1		 add	 edx, ecx
  00010	89 10		 mov	 DWORD PTR [eax], edx

; 257  : 			return (*this);
; 258  : 			}

  00012	c2 04 00	 ret	 4
??Yiterator@?$vector@UtagMONREGEN@@V?$allocator@UtagMONREGEN@@@std@@@std@@QAEAAV012@H@Z ENDP ; std::vector<tagMONREGEN,std::allocator<tagMONREGEN> >::iterator::operator+=
_TEXT	ENDS
PUBLIC	??Dconst_iterator@?$vector@UtagMONREGEN@@V?$allocator@UtagMONREGEN@@@std@@@std@@QBEABUtagMONREGEN@@XZ ; std::vector<tagMONREGEN,std::allocator<tagMONREGEN> >::const_iterator::operator*
; Function compile flags: /Ogty
;	COMDAT ??Dconst_iterator@?$vector@UtagMONREGEN@@V?$allocator@UtagMONREGEN@@@std@@@std@@QBEABUtagMONREGEN@@XZ
_TEXT	SEGMENT
??Dconst_iterator@?$vector@UtagMONREGEN@@V?$allocator@UtagMONREGEN@@@std@@@std@@QBEABUtagMONREGEN@@XZ PROC NEAR ; std::vector<tagMONREGEN,std::allocator<tagMONREGEN> >::const_iterator::operator*, COMDAT
; _this$ = ecx

; 80   : 
; 81   : 
; 82   : 			return (*_Myptr);

  00000	8b 01		 mov	 eax, DWORD PTR [ecx]

; 83   : 			}

  00002	c3		 ret	 0
??Dconst_iterator@?$vector@UtagMONREGEN@@V?$allocator@UtagMONREGEN@@@std@@@std@@QBEABUtagMONREGEN@@XZ ENDP ; std::vector<tagMONREGEN,std::allocator<tagMONREGEN> >::const_iterator::operator*
_TEXT	ENDS
PUBLIC	??Yiterator@?$vector@UtagLOTTERY@@V?$allocator@UtagLOTTERY@@@std@@@std@@QAEAAV012@H@Z ; std::vector<tagLOTTERY,std::allocator<tagLOTTERY> >::iterator::operator+=
; Function compile flags: /Ogty
;	COMDAT ??Yiterator@?$vector@UtagLOTTERY@@V?$allocator@UtagLOTTERY@@@std@@@std@@QAEAAV012@H@Z
_TEXT	SEGMENT
__Off$ = 8						; size = 4
??Yiterator@?$vector@UtagLOTTERY@@V?$allocator@UtagLOTTERY@@@std@@@std@@QAEAAV012@H@Z PROC NEAR ; std::vector<tagLOTTERY,std::allocator<tagLOTTERY> >::iterator::operator+=, COMDAT
; _this$ = ecx

; 255  : 			{	// increment by integer

  00000	8b c1		 mov	 eax, ecx

; 256  : 			this->_Myptr += _Off;

  00002	8b 4c 24 04	 mov	 ecx, DWORD PTR __Off$[esp-4]
  00006	8b 10		 mov	 edx, DWORD PTR [eax]
  00008	8d 0c 49	 lea	 ecx, DWORD PTR [ecx+ecx*2]
  0000b	d1 e1		 shl	 ecx, 1
  0000d	03 d1		 add	 edx, ecx
  0000f	89 10		 mov	 DWORD PTR [eax], edx

; 257  : 			return (*this);
; 258  : 			}

  00011	c2 04 00	 ret	 4
??Yiterator@?$vector@UtagLOTTERY@@V?$allocator@UtagLOTTERY@@@std@@@std@@QAEAAV012@H@Z ENDP ; std::vector<tagLOTTERY,std::allocator<tagLOTTERY> >::iterator::operator+=
_TEXT	ENDS
PUBLIC	??Dconst_iterator@?$vector@UtagLOTTERY@@V?$allocator@UtagLOTTERY@@@std@@@std@@QBEABUtagLOTTERY@@XZ ; std::vector<tagLOTTERY,std::allocator<tagLOTTERY> >::const_iterator::operator*
; Function compile flags: /Ogty
;	COMDAT ??Dconst_iterator@?$vector@UtagLOTTERY@@V?$allocator@UtagLOTTERY@@@std@@@std@@QBEABUtagLOTTERY@@XZ
_TEXT	SEGMENT
??Dconst_iterator@?$vector@UtagLOTTERY@@V?$allocator@UtagLOTTERY@@@std@@@std@@QBEABUtagLOTTERY@@XZ PROC NEAR ; std::vector<tagLOTTERY,std::allocator<tagLOTTERY> >::const_iterator::operator*, COMDAT
; _this$ = ecx

; 80   : 
; 81   : 
; 82   : 			return (*_Myptr);

  00000	8b 01		 mov	 eax, DWORD PTR [ecx]

; 83   : 			}

  00002	c3		 ret	 0
??Dconst_iterator@?$vector@UtagLOTTERY@@V?$allocator@UtagLOTTERY@@@std@@@std@@QBEABUtagLOTTERY@@XZ ENDP ; std::vector<tagLOTTERY,std::allocator<tagLOTTERY> >::const_iterator::operator*
_TEXT	ENDS
PUBLIC	?CopyChars@?$CSimpleStringT@D$0A@@ATL@@SAXPADPBDH@Z ; ATL::CSimpleStringT<char,0>::CopyChars
; Function compile flags: /Ogty
; File c:\program files (x86)\microsoft visual studio .net 2003\vc7\atlmfc\include\atlsimpstr.h
;	COMDAT ?CopyChars@?$CSimpleStringT@D$0A@@ATL@@SAXPADPBDH@Z
_TEXT	SEGMENT
_pchDest$ = 8						; size = 4
_pchSrc$ = 12						; size = 4
_nChars$ = 16						; size = 4
?CopyChars@?$CSimpleStringT@D$0A@@ATL@@SAXPADPBDH@Z PROC NEAR ; ATL::CSimpleStringT<char,0>::CopyChars, COMDAT

; 653  : 		memcpy( pchDest, pchSrc, nChars*sizeof( XCHAR ) );

  00000	8b 4c 24 0c	 mov	 ecx, DWORD PTR _nChars$[esp-4]
  00004	56		 push	 esi
  00005	8b 74 24 0c	 mov	 esi, DWORD PTR _pchSrc$[esp]
  00009	8b c1		 mov	 eax, ecx
  0000b	57		 push	 edi
  0000c	8b 7c 24 0c	 mov	 edi, DWORD PTR _pchDest$[esp+4]
  00010	c1 e9 02	 shr	 ecx, 2
  00013	f3 a5		 rep movsd
  00015	8b c8		 mov	 ecx, eax
  00017	83 e1 03	 and	 ecx, 3
  0001a	f3 a4		 rep movsb
  0001c	5f		 pop	 edi
  0001d	5e		 pop	 esi

; 654  : 	}

  0001e	c3		 ret	 0
?CopyChars@?$CSimpleStringT@D$0A@@ATL@@SAXPADPBDH@Z ENDP ; ATL::CSimpleStringT<char,0>::CopyChars
_TEXT	ENDS
PUBLIC	?ThrowMemoryException@?$CSimpleStringT@D$0A@@ATL@@KAXXZ ; ATL::CSimpleStringT<char,0>::ThrowMemoryException
; Function compile flags: /Ogty
;	COMDAT ?ThrowMemoryException@?$CSimpleStringT@D$0A@@ATL@@KAXXZ
_TEXT	SEGMENT
?ThrowMemoryException@?$CSimpleStringT@D$0A@@ATL@@KAXXZ PROC NEAR ; ATL::CSimpleStringT<char,0>::ThrowMemoryException, COMDAT

; 705  : 		AtlThrow( E_OUTOFMEMORY );

  00000	68 0e 00 07 80	 push	 -2147024882		; 8007000eH
  00005	e8 00 00 00 00	 call	 ?AtlThrow@ATL@@YGXJ@Z	; ATL::AtlThrow
$L93927:
$L93926:
  0000a	cc		 int	 3
?ThrowMemoryException@?$CSimpleStringT@D$0A@@ATL@@KAXXZ ENDP ; ATL::CSimpleStringT<char,0>::ThrowMemoryException
_TEXT	ENDS
PUBLIC	?_Inside@?$basic_string@DU?$char_traits@D@std@@V?$allocator@D@2@@std@@IAE_NPBD@Z ; std::basic_string<char,std::char_traits<char>,std::allocator<char> >::_Inside
; Function compile flags: /Ogty
; File c:\program files (x86)\microsoft visual studio .net 2003\vc7\include\xstring
;	COMDAT ?_Inside@?$basic_string@DU?$char_traits@D@std@@V?$allocator@D@2@@std@@IAE_NPBD@Z
_TEXT	SEGMENT
__Ptr$ = 8						; size = 4
?_Inside@?$basic_string@DU?$char_traits@D@std@@V?$allocator@D@2@@std@@IAE_NPBD@Z PROC NEAR ; std::basic_string<char,std::char_traits<char>,std::allocator<char> >::_Inside, COMDAT
; _this$ = ecx

; 1494 : 		{	// test if _Ptr points inside string

  00000	56		 push	 esi

; 1495 : 		if (_Ptr < _Myptr() || _Myptr() + _Mysize <= _Ptr)

  00001	8b 71 18	 mov	 esi, DWORD PTR [ecx+24]
  00004	83 fe 10	 cmp	 esi, 16			; 00000010H
  00007	57		 push	 edi
  00008	8d 41 04	 lea	 eax, DWORD PTR [ecx+4]
  0000b	72 04		 jb	 SHORT $L93936
  0000d	8b 10		 mov	 edx, DWORD PTR [eax]
  0000f	eb 02		 jmp	 SHORT $L93937
$L93936:
  00011	8b d0		 mov	 edx, eax
$L93937:
  00013	8b 7c 24 0c	 mov	 edi, DWORD PTR __Ptr$[esp+4]
  00017	3b fa		 cmp	 edi, edx
  00019	72 17		 jb	 SHORT $L86488
  0001b	83 fe 10	 cmp	 esi, 16			; 00000010H
  0001e	72 02		 jb	 SHORT $L93944
  00020	8b 00		 mov	 eax, DWORD PTR [eax]
$L93944:
  00022	8b 49 14	 mov	 ecx, DWORD PTR [ecx+20]
  00025	03 c8		 add	 ecx, eax
  00027	3b cf		 cmp	 ecx, edi
  00029	76 07		 jbe	 SHORT $L86488
  0002b	5f		 pop	 edi

; 1497 : 		else
; 1498 : 			return (true);

  0002c	b0 01		 mov	 al, 1
  0002e	5e		 pop	 esi

; 1499 : 		}

  0002f	c2 04 00	 ret	 4
$L86488:
  00032	5f		 pop	 edi

; 1496 : 			return (false);	// don't ask

  00033	32 c0		 xor	 al, al
  00035	5e		 pop	 esi

; 1499 : 		}

  00036	c2 04 00	 ret	 4
?_Inside@?$basic_string@DU?$char_traits@D@std@@V?$allocator@D@2@@std@@IAE_NPBD@Z ENDP ; std::basic_string<char,std::char_traits<char>,std::allocator<char> >::_Inside
_TEXT	ENDS
PUBLIC	??0const_iterator@?$vector@GV?$allocator@G@std@@@std@@QAE@PAG@Z ; std::vector<unsigned short,std::allocator<unsigned short> >::const_iterator::const_iterator
; Function compile flags: /Ogty
; File c:\program files (x86)\microsoft visual studio .net 2003\vc7\include\vector
;	COMDAT ??0const_iterator@?$vector@GV?$allocator@G@std@@@std@@QAE@PAG@Z
_TEXT	SEGMENT
__Ptr$ = 8						; size = 4
??0const_iterator@?$vector@GV?$allocator@G@std@@@std@@QAE@PAG@Z PROC NEAR ; std::vector<unsigned short,std::allocator<unsigned short> >::const_iterator::const_iterator, COMDAT
; _this$ = ecx

; 73   : 		const_iterator(_Tptr _Ptr)

  00000	8b c1		 mov	 eax, ecx

; 74   : 			{	// construct with pointer _Ptr
; 75   : 			_Myptr = _Ptr;

  00002	8b 4c 24 04	 mov	 ecx, DWORD PTR __Ptr$[esp-4]
  00006	89 08		 mov	 DWORD PTR [eax], ecx

; 76   : 			}

  00008	c2 04 00	 ret	 4
??0const_iterator@?$vector@GV?$allocator@G@std@@@std@@QAE@PAG@Z ENDP ; std::vector<unsigned short,std::allocator<unsigned short> >::const_iterator::const_iterator
_TEXT	ENDS
PUBLIC	??0const_iterator@?$vector@UtagTCASHITEMSALE@@V?$allocator@UtagTCASHITEMSALE@@@std@@@std@@QAE@PAUtagTCASHITEMSALE@@@Z ; std::vector<tagTCASHITEMSALE,std::allocator<tagTCASHITEMSALE> >::const_iterator::const_iterator
; Function compile flags: /Ogty
;	COMDAT ??0const_iterator@?$vector@UtagTCASHITEMSALE@@V?$allocator@UtagTCASHITEMSALE@@@std@@@std@@QAE@PAUtagTCASHITEMSALE@@@Z
_TEXT	SEGMENT
__Ptr$ = 8						; size = 4
??0const_iterator@?$vector@UtagTCASHITEMSALE@@V?$allocator@UtagTCASHITEMSALE@@@std@@@std@@QAE@PAUtagTCASHITEMSALE@@@Z PROC NEAR ; std::vector<tagTCASHITEMSALE,std::allocator<tagTCASHITEMSALE> >::const_iterator::const_iterator, COMDAT
; _this$ = ecx

; 73   : 		const_iterator(_Tptr _Ptr)

  00000	8b c1		 mov	 eax, ecx

; 74   : 			{	// construct with pointer _Ptr
; 75   : 			_Myptr = _Ptr;

  00002	8b 4c 24 04	 mov	 ecx, DWORD PTR __Ptr$[esp-4]
  00006	89 08		 mov	 DWORD PTR [eax], ecx

; 76   : 			}

  00008	c2 04 00	 ret	 4
??0const_iterator@?$vector@UtagTCASHITEMSALE@@V?$allocator@UtagTCASHITEMSALE@@@std@@@std@@QAE@PAUtagTCASHITEMSALE@@@Z ENDP ; std::vector<tagTCASHITEMSALE,std::allocator<tagTCASHITEMSALE> >::const_iterator::const_iterator
_TEXT	ENDS
PUBLIC	??0const_iterator@?$vector@UtagMONREGEN@@V?$allocator@UtagMONREGEN@@@std@@@std@@QAE@PAUtagMONREGEN@@@Z ; std::vector<tagMONREGEN,std::allocator<tagMONREGEN> >::const_iterator::const_iterator
; Function compile flags: /Ogty
;	COMDAT ??0const_iterator@?$vector@UtagMONREGEN@@V?$allocator@UtagMONREGEN@@@std@@@std@@QAE@PAUtagMONREGEN@@@Z
_TEXT	SEGMENT
__Ptr$ = 8						; size = 4
??0const_iterator@?$vector@UtagMONREGEN@@V?$allocator@UtagMONREGEN@@@std@@@std@@QAE@PAUtagMONREGEN@@@Z PROC NEAR ; std::vector<tagMONREGEN,std::allocator<tagMONREGEN> >::const_iterator::const_iterator, COMDAT
; _this$ = ecx

; 73   : 		const_iterator(_Tptr _Ptr)

  00000	8b c1		 mov	 eax, ecx

; 74   : 			{	// construct with pointer _Ptr
; 75   : 			_Myptr = _Ptr;

  00002	8b 4c 24 04	 mov	 ecx, DWORD PTR __Ptr$[esp-4]
  00006	89 08		 mov	 DWORD PTR [eax], ecx

; 76   : 			}

  00008	c2 04 00	 ret	 4
??0const_iterator@?$vector@UtagMONREGEN@@V?$allocator@UtagMONREGEN@@@std@@@std@@QAE@PAUtagMONREGEN@@@Z ENDP ; std::vector<tagMONREGEN,std::allocator<tagMONREGEN> >::const_iterator::const_iterator
_TEXT	ENDS
PUBLIC	??0const_iterator@?$vector@UtagLOTTERY@@V?$allocator@UtagLOTTERY@@@std@@@std@@QAE@PAUtagLOTTERY@@@Z ; std::vector<tagLOTTERY,std::allocator<tagLOTTERY> >::const_iterator::const_iterator
; Function compile flags: /Ogty
;	COMDAT ??0const_iterator@?$vector@UtagLOTTERY@@V?$allocator@UtagLOTTERY@@@std@@@std@@QAE@PAUtagLOTTERY@@@Z
_TEXT	SEGMENT
__Ptr$ = 8						; size = 4
??0const_iterator@?$vector@UtagLOTTERY@@V?$allocator@UtagLOTTERY@@@std@@@std@@QAE@PAUtagLOTTERY@@@Z PROC NEAR ; std::vector<tagLOTTERY,std::allocator<tagLOTTERY> >::const_iterator::const_iterator, COMDAT
; _this$ = ecx

; 73   : 		const_iterator(_Tptr _Ptr)

  00000	8b c1		 mov	 eax, ecx

; 74   : 			{	// construct with pointer _Ptr
; 75   : 			_Myptr = _Ptr;

  00002	8b 4c 24 04	 mov	 ecx, DWORD PTR __Ptr$[esp-4]
  00006	89 08		 mov	 DWORD PTR [eax], ecx

; 76   : 			}

  00008	c2 04 00	 ret	 4
??0const_iterator@?$vector@UtagLOTTERY@@V?$allocator@UtagLOTTERY@@@std@@@std@@QAE@PAUtagLOTTERY@@@Z ENDP ; std::vector<tagLOTTERY,std::allocator<tagLOTTERY> >::const_iterator::const_iterator
_TEXT	ENDS
PUBLIC	?max_size@?$allocator@D@std@@QBEIXZ		; std::allocator<char>::max_size
; Function compile flags: /Ogty
; File c:\program files (x86)\microsoft visual studio .net 2003\vc7\include\xmemory
;	COMDAT ?max_size@?$allocator@D@std@@QBEIXZ
_TEXT	SEGMENT
?max_size@?$allocator@D@std@@QBEIXZ PROC NEAR		; std::allocator<char>::max_size, COMDAT
; _this$ = ecx

; 157  : 		_SIZT _Count = (_SIZT)(-1) / sizeof (_Ty);
; 158  : 		return (0 < _Count ? _Count : 1);

  00000	83 c8 ff	 or	 eax, -1

; 159  : 		}

  00003	c3		 ret	 0
?max_size@?$allocator@D@std@@QBEIXZ ENDP		; std::allocator<char>::max_size
_TEXT	ENDS
PUBLIC	??0?$allocator@D@std@@QAE@XZ			; std::allocator<char>::allocator<char>
; Function compile flags: /Ogty
;	COMDAT ??0?$allocator@D@std@@QAE@XZ
_TEXT	SEGMENT
??0?$allocator@D@std@@QAE@XZ PROC NEAR			; std::allocator<char>::allocator<char>, COMDAT
; _this$ = ecx

; 111  : 	allocator()

  00000	8b c1		 mov	 eax, ecx

; 112  : 		{	// construct default allocator (do nothing)
; 113  : 		}

  00002	c3		 ret	 0
??0?$allocator@D@std@@QAE@XZ ENDP			; std::allocator<char>::allocator<char>
_TEXT	ENDS
PUBLIC	??$_Allocate@D@std@@YAPADIPAD@Z			; std::_Allocate<char>
; Function compile flags: /Ogty
;	COMDAT ??$_Allocate@D@std@@YAPADIPAD@Z
_TEXT	SEGMENT
__Count$ = 8						; size = 4
___formal$ = 12						; size = 4
??$_Allocate@D@std@@YAPADIPAD@Z PROC NEAR		; std::_Allocate<char>, COMDAT

; 34   : 	return ((_Ty _FARQ *)operator new(_Count * sizeof (_Ty)));

  00000	8b 44 24 04	 mov	 eax, DWORD PTR __Count$[esp-4]
  00004	50		 push	 eax
  00005	e8 00 00 00 00	 call	 ??2@YAPAXI@Z		; operator new
  0000a	83 c4 04	 add	 esp, 4

; 35   : 	}

  0000d	c3		 ret	 0
??$_Allocate@D@std@@YAPADIPAD@Z ENDP			; std::_Allocate<char>
_TEXT	ENDS
PUBLIC	??0iterator@?$_Tree@V?$_Tmap_traits@EPAUtagTSVRTYPE@@U?$less@E@std@@V?$allocator@U?$pair@$$CBEPAUtagTSVRTYPE@@@std@@@3@$0A@@std@@@std@@QAE@XZ ; std::_Tree<std::_Tmap_traits<unsigned char,tagTSVRTYPE *,std::less<unsigned char>,std::allocator<std::pair<unsigned char const ,tagTSVRTYPE *> >,0> >::iterator::iterator
; Function compile flags: /Ogty
; File c:\program files (x86)\microsoft visual studio .net 2003\vc7\include\xtree
;	COMDAT ??0iterator@?$_Tree@V?$_Tmap_traits@EPAUtagTSVRTYPE@@U?$less@E@std@@V?$allocator@U?$pair@$$CBEPAUtagTSVRTYPE@@@std@@@3@$0A@@std@@@std@@QAE@XZ
_TEXT	SEGMENT
??0iterator@?$_Tree@V?$_Tmap_traits@EPAUtagTSVRTYPE@@U?$less@E@std@@V?$allocator@U?$pair@$$CBEPAUtagTSVRTYPE@@@std@@@3@$0A@@std@@@std@@QAE@XZ PROC NEAR ; std::_Tree<std::_Tmap_traits<unsigned char,tagTSVRTYPE *,std::less<unsigned char>,std::allocator<std::pair<unsigned char const ,tagTSVRTYPE *> >,0> >::iterator::iterator, COMDAT
; _this$ = ecx

; 304  : 		iterator()

  00000	8b c1		 mov	 eax, ecx
  00002	c7 00 00 00 00
	00		 mov	 DWORD PTR [eax], 0

; 305  : 			{	// construct with null node pointer
; 306  : 			}

  00008	c3		 ret	 0
??0iterator@?$_Tree@V?$_Tmap_traits@EPAUtagTSVRTYPE@@U?$less@E@std@@V?$allocator@U?$pair@$$CBEPAUtagTSVRTYPE@@@std@@@3@$0A@@std@@@std@@QAE@XZ ENDP ; std::_Tree<std::_Tmap_traits<unsigned char,tagTSVRTYPE *,std::less<unsigned char>,std::allocator<std::pair<unsigned char const ,tagTSVRTYPE *> >,0> >::iterator::iterator
_TEXT	ENDS
PUBLIC	??9const_iterator@?$_Tree@V?$_Tmap_traits@EPAUtagTSVRTYPE@@U?$less@E@std@@V?$allocator@U?$pair@$$CBEPAUtagTSVRTYPE@@@std@@@3@$0A@@std@@@std@@QBE_NABV012@@Z ; std::_Tree<std::_Tmap_traits<unsigned char,tagTSVRTYPE *,std::less<unsigned char>,std::allocator<std::pair<unsigned char const ,tagTSVRTYPE *> >,0> >::const_iterator::operator!=
; Function compile flags: /Ogty
;	COMDAT ??9const_iterator@?$_Tree@V?$_Tmap_traits@EPAUtagTSVRTYPE@@U?$less@E@std@@V?$allocator@U?$pair@$$CBEPAUtagTSVRTYPE@@@std@@@3@$0A@@std@@@std@@QBE_NABV012@@Z
_TEXT	SEGMENT
__Right$ = 8						; size = 4
??9const_iterator@?$_Tree@V?$_Tmap_traits@EPAUtagTSVRTYPE@@U?$less@E@std@@V?$allocator@U?$pair@$$CBEPAUtagTSVRTYPE@@@std@@@3@$0A@@std@@@std@@QBE_NABV012@@Z PROC NEAR ; std::_Tree<std::_Tmap_traits<unsigned char,tagTSVRTYPE *,std::less<unsigned char>,std::allocator<std::pair<unsigned char const ,tagTSVRTYPE *> >,0> >::const_iterator::operator!=, COMDAT
; _this$ = ecx

; 246  : 			return (!(*this == _Right));

  00000	8b 01		 mov	 eax, DWORD PTR [ecx]
  00002	8b 54 24 04	 mov	 edx, DWORD PTR __Right$[esp-4]
  00006	56		 push	 esi
  00007	8b 32		 mov	 esi, DWORD PTR [edx]
  00009	33 c9		 xor	 ecx, ecx
  0000b	3b c6		 cmp	 eax, esi
  0000d	0f 95 c1	 setne	 cl
  00010	8a c1		 mov	 al, cl
  00012	5e		 pop	 esi

; 247  : 			}

  00013	c2 04 00	 ret	 4
??9const_iterator@?$_Tree@V?$_Tmap_traits@EPAUtagTSVRTYPE@@U?$less@E@std@@V?$allocator@U?$pair@$$CBEPAUtagTSVRTYPE@@@std@@@3@$0A@@std@@@std@@QBE_NABV012@@Z ENDP ; std::_Tree<std::_Tmap_traits<unsigned char,tagTSVRTYPE *,std::less<unsigned char>,std::allocator<std::pair<unsigned char const ,tagTSVRTYPE *> >,0> >::const_iterator::operator!=
_TEXT	ENDS
PUBLIC	??0iterator@?$_Tree@V?$_Tmap_traits@EPAUtagTMACHINE@@U?$less@E@std@@V?$allocator@U?$pair@$$CBEPAUtagTMACHINE@@@std@@@3@$0A@@std@@@std@@QAE@XZ ; std::_Tree<std::_Tmap_traits<unsigned char,tagTMACHINE *,std::less<unsigned char>,std::allocator<std::pair<unsigned char const ,tagTMACHINE *> >,0> >::iterator::iterator
; Function compile flags: /Ogty
;	COMDAT ??0iterator@?$_Tree@V?$_Tmap_traits@EPAUtagTMACHINE@@U?$less@E@std@@V?$allocator@U?$pair@$$CBEPAUtagTMACHINE@@@std@@@3@$0A@@std@@@std@@QAE@XZ
_TEXT	SEGMENT
??0iterator@?$_Tree@V?$_Tmap_traits@EPAUtagTMACHINE@@U?$less@E@std@@V?$allocator@U?$pair@$$CBEPAUtagTMACHINE@@@std@@@3@$0A@@std@@@std@@QAE@XZ PROC NEAR ; std::_Tree<std::_Tmap_traits<unsigned char,tagTMACHINE *,std::less<unsigned char>,std::allocator<std::pair<unsigned char const ,tagTMACHINE *> >,0> >::iterator::iterator, COMDAT
; _this$ = ecx

; 304  : 		iterator()

  00000	8b c1		 mov	 eax, ecx
  00002	c7 00 00 00 00
	00		 mov	 DWORD PTR [eax], 0

; 305  : 			{	// construct with null node pointer
; 306  : 			}

  00008	c3		 ret	 0
??0iterator@?$_Tree@V?$_Tmap_traits@EPAUtagTMACHINE@@U?$less@E@std@@V?$allocator@U?$pair@$$CBEPAUtagTMACHINE@@@std@@@3@$0A@@std@@@std@@QAE@XZ ENDP ; std::_Tree<std::_Tmap_traits<unsigned char,tagTMACHINE *,std::less<unsigned char>,std::allocator<std::pair<unsigned char const ,tagTMACHINE *> >,0> >::iterator::iterator
_TEXT	ENDS
PUBLIC	??9const_iterator@?$_Tree@V?$_Tmap_traits@EPAUtagTMACHINE@@U?$less@E@std@@V?$allocator@U?$pair@$$CBEPAUtagTMACHINE@@@std@@@3@$0A@@std@@@std@@QBE_NABV012@@Z ; std::_Tree<std::_Tmap_traits<unsigned char,tagTMACHINE *,std::less<unsigned char>,std::allocator<std::pair<unsigned char const ,tagTMACHINE *> >,0> >::const_iterator::operator!=
; Function compile flags: /Ogty
;	COMDAT ??9const_iterator@?$_Tree@V?$_Tmap_traits@EPAUtagTMACHINE@@U?$less@E@std@@V?$allocator@U?$pair@$$CBEPAUtagTMACHINE@@@std@@@3@$0A@@std@@@std@@QBE_NABV012@@Z
_TEXT	SEGMENT
__Right$ = 8						; size = 4
??9const_iterator@?$_Tree@V?$_Tmap_traits@EPAUtagTMACHINE@@U?$less@E@std@@V?$allocator@U?$pair@$$CBEPAUtagTMACHINE@@@std@@@3@$0A@@std@@@std@@QBE_NABV012@@Z PROC NEAR ; std::_Tree<std::_Tmap_traits<unsigned char,tagTMACHINE *,std::less<unsigned char>,std::allocator<std::pair<unsigned char const ,tagTMACHINE *> >,0> >::const_iterator::operator!=, COMDAT
; _this$ = ecx

; 246  : 			return (!(*this == _Right));

  00000	8b 01		 mov	 eax, DWORD PTR [ecx]
  00002	8b 54 24 04	 mov	 edx, DWORD PTR __Right$[esp-4]
  00006	56		 push	 esi
  00007	8b 32		 mov	 esi, DWORD PTR [edx]
  00009	33 c9		 xor	 ecx, ecx
  0000b	3b c6		 cmp	 eax, esi
  0000d	0f 95 c1	 setne	 cl
  00010	8a c1		 mov	 al, cl
  00012	5e		 pop	 esi

; 247  : 			}

  00013	c2 04 00	 ret	 4
??9const_iterator@?$_Tree@V?$_Tmap_traits@EPAUtagTMACHINE@@U?$less@E@std@@V?$allocator@U?$pair@$$CBEPAUtagTMACHINE@@@std@@@3@$0A@@std@@@std@@QBE_NABV012@@Z ENDP ; std::_Tree<std::_Tmap_traits<unsigned char,tagTMACHINE *,std::less<unsigned char>,std::allocator<std::pair<unsigned char const ,tagTMACHINE *> >,0> >::const_iterator::operator!=
_TEXT	ENDS
PUBLIC	??0iterator@?$_Tree@V?$_Tmap_traits@EPAUtagTGROUP@@U?$less@E@std@@V?$allocator@U?$pair@$$CBEPAUtagTGROUP@@@std@@@3@$0A@@std@@@std@@QAE@XZ ; std::_Tree<std::_Tmap_traits<unsigned char,tagTGROUP *,std::less<unsigned char>,std::allocator<std::pair<unsigned char const ,tagTGROUP *> >,0> >::iterator::iterator
; Function compile flags: /Ogty
;	COMDAT ??0iterator@?$_Tree@V?$_Tmap_traits@EPAUtagTGROUP@@U?$less@E@std@@V?$allocator@U?$pair@$$CBEPAUtagTGROUP@@@std@@@3@$0A@@std@@@std@@QAE@XZ
_TEXT	SEGMENT
??0iterator@?$_Tree@V?$_Tmap_traits@EPAUtagTGROUP@@U?$less@E@std@@V?$allocator@U?$pair@$$CBEPAUtagTGROUP@@@std@@@3@$0A@@std@@@std@@QAE@XZ PROC NEAR ; std::_Tree<std::_Tmap_traits<unsigned char,tagTGROUP *,std::less<unsigned char>,std::allocator<std::pair<unsigned char const ,tagTGROUP *> >,0> >::iterator::iterator, COMDAT
; _this$ = ecx

; 304  : 		iterator()

  00000	8b c1		 mov	 eax, ecx
  00002	c7 00 00 00 00
	00		 mov	 DWORD PTR [eax], 0

; 305  : 			{	// construct with null node pointer
; 306  : 			}

  00008	c3		 ret	 0
??0iterator@?$_Tree@V?$_Tmap_traits@EPAUtagTGROUP@@U?$less@E@std@@V?$allocator@U?$pair@$$CBEPAUtagTGROUP@@@std@@@3@$0A@@std@@@std@@QAE@XZ ENDP ; std::_Tree<std::_Tmap_traits<unsigned char,tagTGROUP *,std::less<unsigned char>,std::allocator<std::pair<unsigned char const ,tagTGROUP *> >,0> >::iterator::iterator
_TEXT	ENDS
PUBLIC	??9const_iterator@?$_Tree@V?$_Tmap_traits@EPAUtagTGROUP@@U?$less@E@std@@V?$allocator@U?$pair@$$CBEPAUtagTGROUP@@@std@@@3@$0A@@std@@@std@@QBE_NABV012@@Z ; std::_Tree<std::_Tmap_traits<unsigned char,tagTGROUP *,std::less<unsigned char>,std::allocator<std::pair<unsigned char const ,tagTGROUP *> >,0> >::const_iterator::operator!=
; Function compile flags: /Ogty
;	COMDAT ??9const_iterator@?$_Tree@V?$_Tmap_traits@EPAUtagTGROUP@@U?$less@E@std@@V?$allocator@U?$pair@$$CBEPAUtagTGROUP@@@std@@@3@$0A@@std@@@std@@QBE_NABV012@@Z
_TEXT	SEGMENT
__Right$ = 8						; size = 4
??9const_iterator@?$_Tree@V?$_Tmap_traits@EPAUtagTGROUP@@U?$less@E@std@@V?$allocator@U?$pair@$$CBEPAUtagTGROUP@@@std@@@3@$0A@@std@@@std@@QBE_NABV012@@Z PROC NEAR ; std::_Tree<std::_Tmap_traits<unsigned char,tagTGROUP *,std::less<unsigned char>,std::allocator<std::pair<unsigned char const ,tagTGROUP *> >,0> >::const_iterator::operator!=, COMDAT
; _this$ = ecx

; 246  : 			return (!(*this == _Right));

  00000	8b 01		 mov	 eax, DWORD PTR [ecx]
  00002	8b 54 24 04	 mov	 edx, DWORD PTR __Right$[esp-4]
  00006	56		 push	 esi
  00007	8b 32		 mov	 esi, DWORD PTR [edx]
  00009	33 c9		 xor	 ecx, ecx
  0000b	3b c6		 cmp	 eax, esi
  0000d	0f 95 c1	 setne	 cl
  00010	8a c1		 mov	 al, cl
  00012	5e		 pop	 esi

; 247  : 			}

  00013	c2 04 00	 ret	 4
??9const_iterator@?$_Tree@V?$_Tmap_traits@EPAUtagTGROUP@@U?$less@E@std@@V?$allocator@U?$pair@$$CBEPAUtagTGROUP@@@std@@@3@$0A@@std@@@std@@QBE_NABV012@@Z ENDP ; std::_Tree<std::_Tmap_traits<unsigned char,tagTGROUP *,std::less<unsigned char>,std::allocator<std::pair<unsigned char const ,tagTGROUP *> >,0> >::const_iterator::operator!=
_TEXT	ENDS
PUBLIC	??0iterator@?$_Tree@V?$_Tmap_traits@KPAUtagTSVRTEMP@@U?$less@K@std@@V?$allocator@U?$pair@$$CBKPAUtagTSVRTEMP@@@std@@@3@$0A@@std@@@std@@QAE@XZ ; std::_Tree<std::_Tmap_traits<unsigned long,tagTSVRTEMP *,std::less<unsigned long>,std::allocator<std::pair<unsigned long const ,tagTSVRTEMP *> >,0> >::iterator::iterator
; Function compile flags: /Ogty
;	COMDAT ??0iterator@?$_Tree@V?$_Tmap_traits@KPAUtagTSVRTEMP@@U?$less@K@std@@V?$allocator@U?$pair@$$CBKPAUtagTSVRTEMP@@@std@@@3@$0A@@std@@@std@@QAE@XZ
_TEXT	SEGMENT
??0iterator@?$_Tree@V?$_Tmap_traits@KPAUtagTSVRTEMP@@U?$less@K@std@@V?$allocator@U?$pair@$$CBKPAUtagTSVRTEMP@@@std@@@3@$0A@@std@@@std@@QAE@XZ PROC NEAR ; std::_Tree<std::_Tmap_traits<unsigned long,tagTSVRTEMP *,std::less<unsigned long>,std::allocator<std::pair<unsigned long const ,tagTSVRTEMP *> >,0> >::iterator::iterator, COMDAT
; _this$ = ecx

; 304  : 		iterator()

  00000	8b c1		 mov	 eax, ecx
  00002	c7 00 00 00 00
	00		 mov	 DWORD PTR [eax], 0

; 305  : 			{	// construct with null node pointer
; 306  : 			}

  00008	c3		 ret	 0
??0iterator@?$_Tree@V?$_Tmap_traits@KPAUtagTSVRTEMP@@U?$less@K@std@@V?$allocator@U?$pair@$$CBKPAUtagTSVRTEMP@@@std@@@3@$0A@@std@@@std@@QAE@XZ ENDP ; std::_Tree<std::_Tmap_traits<unsigned long,tagTSVRTEMP *,std::less<unsigned long>,std::allocator<std::pair<unsigned long const ,tagTSVRTEMP *> >,0> >::iterator::iterator
_TEXT	ENDS
PUBLIC	??9const_iterator@?$_Tree@V?$_Tmap_traits@KPAUtagTSVRTEMP@@U?$less@K@std@@V?$allocator@U?$pair@$$CBKPAUtagTSVRTEMP@@@std@@@3@$0A@@std@@@std@@QBE_NABV012@@Z ; std::_Tree<std::_Tmap_traits<unsigned long,tagTSVRTEMP *,std::less<unsigned long>,std::allocator<std::pair<unsigned long const ,tagTSVRTEMP *> >,0> >::const_iterator::operator!=
; Function compile flags: /Ogty
;	COMDAT ??9const_iterator@?$_Tree@V?$_Tmap_traits@KPAUtagTSVRTEMP@@U?$less@K@std@@V?$allocator@U?$pair@$$CBKPAUtagTSVRTEMP@@@std@@@3@$0A@@std@@@std@@QBE_NABV012@@Z
_TEXT	SEGMENT
__Right$ = 8						; size = 4
??9const_iterator@?$_Tree@V?$_Tmap_traits@KPAUtagTSVRTEMP@@U?$less@K@std@@V?$allocator@U?$pair@$$CBKPAUtagTSVRTEMP@@@std@@@3@$0A@@std@@@std@@QBE_NABV012@@Z PROC NEAR ; std::_Tree<std::_Tmap_traits<unsigned long,tagTSVRTEMP *,std::less<unsigned long>,std::allocator<std::pair<unsigned long const ,tagTSVRTEMP *> >,0> >::const_iterator::operator!=, COMDAT
; _this$ = ecx

; 246  : 			return (!(*this == _Right));

  00000	8b 01		 mov	 eax, DWORD PTR [ecx]
  00002	8b 54 24 04	 mov	 edx, DWORD PTR __Right$[esp-4]
  00006	56		 push	 esi
  00007	8b 32		 mov	 esi, DWORD PTR [edx]
  00009	33 c9		 xor	 ecx, ecx
  0000b	3b c6		 cmp	 eax, esi
  0000d	0f 95 c1	 setne	 cl
  00010	8a c1		 mov	 al, cl
  00012	5e		 pop	 esi

; 247  : 			}

  00013	c2 04 00	 ret	 4
??9const_iterator@?$_Tree@V?$_Tmap_traits@KPAUtagTSVRTEMP@@U?$less@K@std@@V?$allocator@U?$pair@$$CBKPAUtagTSVRTEMP@@@std@@@3@$0A@@std@@@std@@QBE_NABV012@@Z ENDP ; std::_Tree<std::_Tmap_traits<unsigned long,tagTSVRTEMP *,std::less<unsigned long>,std::allocator<std::pair<unsigned long const ,tagTSVRTEMP *> >,0> >::const_iterator::operator!=
_TEXT	ENDS
PUBLIC	??0iterator@?$_Tree@V?$_Tmap_traits@KPAUtagBANINFO@@U?$less@K@std@@V?$allocator@U?$pair@$$CBKPAUtagBANINFO@@@std@@@3@$0A@@std@@@std@@QAE@XZ ; std::_Tree<std::_Tmap_traits<unsigned long,tagBANINFO *,std::less<unsigned long>,std::allocator<std::pair<unsigned long const ,tagBANINFO *> >,0> >::iterator::iterator
; Function compile flags: /Ogty
;	COMDAT ??0iterator@?$_Tree@V?$_Tmap_traits@KPAUtagBANINFO@@U?$less@K@std@@V?$allocator@U?$pair@$$CBKPAUtagBANINFO@@@std@@@3@$0A@@std@@@std@@QAE@XZ
_TEXT	SEGMENT
??0iterator@?$_Tree@V?$_Tmap_traits@KPAUtagBANINFO@@U?$less@K@std@@V?$allocator@U?$pair@$$CBKPAUtagBANINFO@@@std@@@3@$0A@@std@@@std@@QAE@XZ PROC NEAR ; std::_Tree<std::_Tmap_traits<unsigned long,tagBANINFO *,std::less<unsigned long>,std::allocator<std::pair<unsigned long const ,tagBANINFO *> >,0> >::iterator::iterator, COMDAT
; _this$ = ecx

; 304  : 		iterator()

  00000	8b c1		 mov	 eax, ecx
  00002	c7 00 00 00 00
	00		 mov	 DWORD PTR [eax], 0

; 305  : 			{	// construct with null node pointer
; 306  : 			}

  00008	c3		 ret	 0
??0iterator@?$_Tree@V?$_Tmap_traits@KPAUtagBANINFO@@U?$less@K@std@@V?$allocator@U?$pair@$$CBKPAUtagBANINFO@@@std@@@3@$0A@@std@@@std@@QAE@XZ ENDP ; std::_Tree<std::_Tmap_traits<unsigned long,tagBANINFO *,std::less<unsigned long>,std::allocator<std::pair<unsigned long const ,tagBANINFO *> >,0> >::iterator::iterator
_TEXT	ENDS
PUBLIC	??9const_iterator@?$_Tree@V?$_Tmap_traits@KPAUtagBANINFO@@U?$less@K@std@@V?$allocator@U?$pair@$$CBKPAUtagBANINFO@@@std@@@3@$0A@@std@@@std@@QBE_NABV012@@Z ; std::_Tree<std::_Tmap_traits<unsigned long,tagBANINFO *,std::less<unsigned long>,std::allocator<std::pair<unsigned long const ,tagBANINFO *> >,0> >::const_iterator::operator!=
; Function compile flags: /Ogty
;	COMDAT ??9const_iterator@?$_Tree@V?$_Tmap_traits@KPAUtagBANINFO@@U?$less@K@std@@V?$allocator@U?$pair@$$CBKPAUtagBANINFO@@@std@@@3@$0A@@std@@@std@@QBE_NABV012@@Z
_TEXT	SEGMENT
__Right$ = 8						; size = 4
??9const_iterator@?$_Tree@V?$_Tmap_traits@KPAUtagBANINFO@@U?$less@K@std@@V?$allocator@U?$pair@$$CBKPAUtagBANINFO@@@std@@@3@$0A@@std@@@std@@QBE_NABV012@@Z PROC NEAR ; std::_Tree<std::_Tmap_traits<unsigned long,tagBANINFO *,std::less<unsigned long>,std::allocator<std::pair<unsigned long const ,tagBANINFO *> >,0> >::const_iterator::operator!=, COMDAT
; _this$ = ecx

; 246  : 			return (!(*this == _Right));

  00000	8b 01		 mov	 eax, DWORD PTR [ecx]
  00002	8b 54 24 04	 mov	 edx, DWORD PTR __Right$[esp-4]
  00006	56		 push	 esi
  00007	8b 32		 mov	 esi, DWORD PTR [edx]
  00009	33 c9		 xor	 ecx, ecx
  0000b	3b c6		 cmp	 eax, esi
  0000d	0f 95 c1	 setne	 cl
  00010	8a c1		 mov	 al, cl
  00012	5e		 pop	 esi

; 247  : 			}

  00013	c2 04 00	 ret	 4
??9const_iterator@?$_Tree@V?$_Tmap_traits@KPAUtagBANINFO@@U?$less@K@std@@V?$allocator@U?$pair@$$CBKPAUtagBANINFO@@@std@@@3@$0A@@std@@@std@@QBE_NABV012@@Z ENDP ; std::_Tree<std::_Tmap_traits<unsigned long,tagBANINFO *,std::less<unsigned long>,std::allocator<std::pair<unsigned long const ,tagBANINFO *> >,0> >::const_iterator::operator!=
_TEXT	ENDS
PUBLIC	??0iterator@?$_Tree@V?$_Tmap_traits@KUtagEVENTINFO@@U?$less@K@std@@V?$allocator@U?$pair@$$CBKUtagEVENTINFO@@@std@@@3@$0A@@std@@@std@@QAE@XZ ; std::_Tree<std::_Tmap_traits<unsigned long,tagEVENTINFO,std::less<unsigned long>,std::allocator<std::pair<unsigned long const ,tagEVENTINFO> >,0> >::iterator::iterator
; Function compile flags: /Ogty
;	COMDAT ??0iterator@?$_Tree@V?$_Tmap_traits@KUtagEVENTINFO@@U?$less@K@std@@V?$allocator@U?$pair@$$CBKUtagEVENTINFO@@@std@@@3@$0A@@std@@@std@@QAE@XZ
_TEXT	SEGMENT
??0iterator@?$_Tree@V?$_Tmap_traits@KUtagEVENTINFO@@U?$less@K@std@@V?$allocator@U?$pair@$$CBKUtagEVENTINFO@@@std@@@3@$0A@@std@@@std@@QAE@XZ PROC NEAR ; std::_Tree<std::_Tmap_traits<unsigned long,tagEVENTINFO,std::less<unsigned long>,std::allocator<std::pair<unsigned long const ,tagEVENTINFO> >,0> >::iterator::iterator, COMDAT
; _this$ = ecx

; 304  : 		iterator()

  00000	8b c1		 mov	 eax, ecx
  00002	c7 00 00 00 00
	00		 mov	 DWORD PTR [eax], 0

; 305  : 			{	// construct with null node pointer
; 306  : 			}

  00008	c3		 ret	 0
??0iterator@?$_Tree@V?$_Tmap_traits@KUtagEVENTINFO@@U?$less@K@std@@V?$allocator@U?$pair@$$CBKUtagEVENTINFO@@@std@@@3@$0A@@std@@@std@@QAE@XZ ENDP ; std::_Tree<std::_Tmap_traits<unsigned long,tagEVENTINFO,std::less<unsigned long>,std::allocator<std::pair<unsigned long const ,tagEVENTINFO> >,0> >::iterator::iterator
_TEXT	ENDS
PUBLIC	??9const_iterator@?$_Tree@V?$_Tmap_traits@KUtagEVENTINFO@@U?$less@K@std@@V?$allocator@U?$pair@$$CBKUtagEVENTINFO@@@std@@@3@$0A@@std@@@std@@QBE_NABV012@@Z ; std::_Tree<std::_Tmap_traits<unsigned long,tagEVENTINFO,std::less<unsigned long>,std::allocator<std::pair<unsigned long const ,tagEVENTINFO> >,0> >::const_iterator::operator!=
; Function compile flags: /Ogty
;	COMDAT ??9const_iterator@?$_Tree@V?$_Tmap_traits@KUtagEVENTINFO@@U?$less@K@std@@V?$allocator@U?$pair@$$CBKUtagEVENTINFO@@@std@@@3@$0A@@std@@@std@@QBE_NABV012@@Z
_TEXT	SEGMENT
__Right$ = 8						; size = 4
??9const_iterator@?$_Tree@V?$_Tmap_traits@KUtagEVENTINFO@@U?$less@K@std@@V?$allocator@U?$pair@$$CBKUtagEVENTINFO@@@std@@@3@$0A@@std@@@std@@QBE_NABV012@@Z PROC NEAR ; std::_Tree<std::_Tmap_traits<unsigned long,tagEVENTINFO,std::less<unsigned long>,std::allocator<std::pair<unsigned long const ,tagEVENTINFO> >,0> >::const_iterator::operator!=, COMDAT
; _this$ = ecx

; 246  : 			return (!(*this == _Right));

  00000	8b 01		 mov	 eax, DWORD PTR [ecx]
  00002	8b 54 24 04	 mov	 edx, DWORD PTR __Right$[esp-4]
  00006	56		 push	 esi
  00007	8b 32		 mov	 esi, DWORD PTR [edx]
  00009	33 c9		 xor	 ecx, ecx
  0000b	3b c6		 cmp	 eax, esi
  0000d	0f 95 c1	 setne	 cl
  00010	8a c1		 mov	 al, cl
  00012	5e		 pop	 esi

; 247  : 			}

  00013	c2 04 00	 ret	 4
??9const_iterator@?$_Tree@V?$_Tmap_traits@KUtagEVENTINFO@@U?$less@K@std@@V?$allocator@U?$pair@$$CBKUtagEVENTINFO@@@std@@@3@$0A@@std@@@std@@QBE_NABV012@@Z ENDP ; std::_Tree<std::_Tmap_traits<unsigned long,tagEVENTINFO,std::less<unsigned long>,std::allocator<std::pair<unsigned long const ,tagEVENTINFO> >,0> >::const_iterator::operator!=
_TEXT	ENDS
PUBLIC	?_Lmost@?$_Tree@V?$_Tmap_traits@EPAUtagTSVRTYPE@@U?$less@E@std@@V?$allocator@U?$pair@$$CBEPAUtagTSVRTYPE@@@std@@@3@$0A@@std@@@std@@IAEAAPAU_Node@?$_Tree_nod@V?$_Tmap_traits@EPAUtagTSVRTYPE@@U?$less@E@std@@V?$allocator@U?$pair@$$CBEPAUtagTSVRTYPE@@@std@@@3@$0A@@std@@@2@XZ ; std::_Tree<std::_Tmap_traits<unsigned char,tagTSVRTYPE *,std::less<unsigned char>,std::allocator<std::pair<unsigned char const ,tagTSVRTYPE *> >,0> >::_Lmost
; Function compile flags: /Ogty
;	COMDAT ?_Lmost@?$_Tree@V?$_Tmap_traits@EPAUtagTSVRTYPE@@U?$less@E@std@@V?$allocator@U?$pair@$$CBEPAUtagTSVRTYPE@@@std@@@3@$0A@@std@@@std@@IAEAAPAU_Node@?$_Tree_nod@V?$_Tmap_traits@EPAUtagTSVRTYPE@@U?$less@E@std@@V?$allocator@U?$pair@$$CBEPAUtagTSVRTYPE@@@std@@@3@$0A@@std@@@2@XZ
_TEXT	SEGMENT
?_Lmost@?$_Tree@V?$_Tmap_traits@EPAUtagTSVRTYPE@@U?$less@E@std@@V?$allocator@U?$pair@$$CBEPAUtagTSVRTYPE@@@std@@@3@$0A@@std@@@std@@IAEAAPAU_Node@?$_Tree_nod@V?$_Tmap_traits@EPAUtagTSVRTYPE@@U?$less@E@std@@V?$allocator@U?$pair@$$CBEPAUtagTSVRTYPE@@@std@@@3@$0A@@std@@@2@XZ PROC NEAR ; std::_Tree<std::_Tmap_traits<unsigned char,tagTSVRTYPE *,std::less<unsigned char>,std::allocator<std::pair<unsigned char const ,tagTSVRTYPE *> >,0> >::_Lmost, COMDAT
; _this$ = ecx

; 1005 : 		return (_Left(_Myhead));

  00000	8b 41 04	 mov	 eax, DWORD PTR [ecx+4]

; 1006 : 		}

  00003	c3		 ret	 0
?_Lmost@?$_Tree@V?$_Tmap_traits@EPAUtagTSVRTYPE@@U?$less@E@std@@V?$allocator@U?$pair@$$CBEPAUtagTSVRTYPE@@@std@@@3@$0A@@std@@@std@@IAEAAPAU_Node@?$_Tree_nod@V?$_Tmap_traits@EPAUtagTSVRTYPE@@U?$less@E@std@@V?$allocator@U?$pair@$$CBEPAUtagTSVRTYPE@@@std@@@3@$0A@@std@@@2@XZ ENDP ; std::_Tree<std::_Tmap_traits<unsigned char,tagTSVRTYPE *,std::less<unsigned char>,std::allocator<std::pair<unsigned char const ,tagTSVRTYPE *> >,0> >::_Lmost
_TEXT	ENDS
PUBLIC	??0iterator@?$_Tree@V?$_Tmap_traits@EPAUtagTSVRTYPE@@U?$less@E@std@@V?$allocator@U?$pair@$$CBEPAUtagTSVRTYPE@@@std@@@3@$0A@@std@@@std@@QAE@PAU_Node@?$_Tree_nod@V?$_Tmap_traits@EPAUtagTSVRTYPE@@U?$less@E@std@@V?$allocator@U?$pair@$$CBEPAUtagTSVRTYPE@@@std@@@3@$0A@@std@@@2@@Z ; std::_Tree<std::_Tmap_traits<unsigned char,tagTSVRTYPE *,std::less<unsigned char>,std::allocator<std::pair<unsigned char const ,tagTSVRTYPE *> >,0> >::iterator::iterator
; Function compile flags: /Ogty
;	COMDAT ??0iterator@?$_Tree@V?$_Tmap_traits@EPAUtagTSVRTYPE@@U?$less@E@std@@V?$allocator@U?$pair@$$CBEPAUtagTSVRTYPE@@@std@@@3@$0A@@std@@@std@@QAE@PAU_Node@?$_Tree_nod@V?$_Tmap_traits@EPAUtagTSVRTYPE@@U?$less@E@std@@V?$allocator@U?$pair@$$CBEPAUtagTSVRTYPE@@@std@@@3@$0A@@std@@@2@@Z
_TEXT	SEGMENT
__Pnode$ = 8						; size = 4
??0iterator@?$_Tree@V?$_Tmap_traits@EPAUtagTSVRTYPE@@U?$less@E@std@@V?$allocator@U?$pair@$$CBEPAUtagTSVRTYPE@@@std@@@3@$0A@@std@@@std@@QAE@PAU_Node@?$_Tree_nod@V?$_Tmap_traits@EPAUtagTSVRTYPE@@U?$less@E@std@@V?$allocator@U?$pair@$$CBEPAUtagTSVRTYPE@@@std@@@3@$0A@@std@@@2@@Z PROC NEAR ; std::_Tree<std::_Tmap_traits<unsigned char,tagTSVRTYPE *,std::less<unsigned char>,std::allocator<std::pair<unsigned char const ,tagTSVRTYPE *> >,0> >::iterator::iterator, COMDAT
; _this$ = ecx

; 312  : 			{	// construct with node pointer _Pnode

  00000	8b c1		 mov	 eax, ecx
  00002	8b 4c 24 04	 mov	 ecx, DWORD PTR __Pnode$[esp-4]
  00006	89 08		 mov	 DWORD PTR [eax], ecx

; 313  : 			}

  00008	c2 04 00	 ret	 4
??0iterator@?$_Tree@V?$_Tmap_traits@EPAUtagTSVRTYPE@@U?$less@E@std@@V?$allocator@U?$pair@$$CBEPAUtagTSVRTYPE@@@std@@@3@$0A@@std@@@std@@QAE@PAU_Node@?$_Tree_nod@V?$_Tmap_traits@EPAUtagTSVRTYPE@@U?$less@E@std@@V?$allocator@U?$pair@$$CBEPAUtagTSVRTYPE@@@std@@@3@$0A@@std@@@2@@Z ENDP ; std::_Tree<std::_Tmap_traits<unsigned char,tagTSVRTYPE *,std::less<unsigned char>,std::allocator<std::pair<unsigned char const ,tagTSVRTYPE *> >,0> >::iterator::iterator
_TEXT	ENDS
PUBLIC	??Dconst_iterator@?$_Tree@V?$_Tmap_traits@EPAUtagTSVRTYPE@@U?$less@E@std@@V?$allocator@U?$pair@$$CBEPAUtagTSVRTYPE@@@std@@@3@$0A@@std@@@std@@QBEABU?$pair@$$CBEPAUtagTSVRTYPE@@@2@XZ ; std::_Tree<std::_Tmap_traits<unsigned char,tagTSVRTYPE *,std::less<unsigned char>,std::allocator<std::pair<unsigned char const ,tagTSVRTYPE *> >,0> >::const_iterator::operator*
; Function compile flags: /Ogty
;	COMDAT ??Dconst_iterator@?$_Tree@V?$_Tmap_traits@EPAUtagTSVRTYPE@@U?$less@E@std@@V?$allocator@U?$pair@$$CBEPAUtagTSVRTYPE@@@std@@@3@$0A@@std@@@std@@QBEABU?$pair@$$CBEPAUtagTSVRTYPE@@@2@XZ
_TEXT	SEGMENT
??Dconst_iterator@?$_Tree@V?$_Tmap_traits@EPAUtagTSVRTYPE@@U?$less@E@std@@V?$allocator@U?$pair@$$CBEPAUtagTSVRTYPE@@@std@@@3@$0A@@std@@@std@@QBEABU?$pair@$$CBEPAUtagTSVRTYPE@@@2@XZ PROC NEAR ; std::_Tree<std::_Tmap_traits<unsigned char,tagTSVRTYPE *,std::less<unsigned char>,std::allocator<std::pair<unsigned char const ,tagTSVRTYPE *> >,0> >::const_iterator::operator*, COMDAT
; _this$ = ecx

; 205  : 			return (_Myval(_Ptr));

  00000	8b 01		 mov	 eax, DWORD PTR [ecx]
  00002	83 c0 0c	 add	 eax, 12			; 0000000cH

; 206  : 			}

  00005	c3		 ret	 0
??Dconst_iterator@?$_Tree@V?$_Tmap_traits@EPAUtagTSVRTYPE@@U?$less@E@std@@V?$allocator@U?$pair@$$CBEPAUtagTSVRTYPE@@@std@@@3@$0A@@std@@@std@@QBEABU?$pair@$$CBEPAUtagTSVRTYPE@@@2@XZ ENDP ; std::_Tree<std::_Tmap_traits<unsigned char,tagTSVRTYPE *,std::less<unsigned char>,std::allocator<std::pair<unsigned char const ,tagTSVRTYPE *> >,0> >::const_iterator::operator*
_TEXT	ENDS
PUBLIC	?_Lmost@?$_Tree@V?$_Tmap_traits@EPAUtagTMACHINE@@U?$less@E@std@@V?$allocator@U?$pair@$$CBEPAUtagTMACHINE@@@std@@@3@$0A@@std@@@std@@IAEAAPAU_Node@?$_Tree_nod@V?$_Tmap_traits@EPAUtagTMACHINE@@U?$less@E@std@@V?$allocator@U?$pair@$$CBEPAUtagTMACHINE@@@std@@@3@$0A@@std@@@2@XZ ; std::_Tree<std::_Tmap_traits<unsigned char,tagTMACHINE *,std::less<unsigned char>,std::allocator<std::pair<unsigned char const ,tagTMACHINE *> >,0> >::_Lmost
; Function compile flags: /Ogty
;	COMDAT ?_Lmost@?$_Tree@V?$_Tmap_traits@EPAUtagTMACHINE@@U?$less@E@std@@V?$allocator@U?$pair@$$CBEPAUtagTMACHINE@@@std@@@3@$0A@@std@@@std@@IAEAAPAU_Node@?$_Tree_nod@V?$_Tmap_traits@EPAUtagTMACHINE@@U?$less@E@std@@V?$allocator@U?$pair@$$CBEPAUtagTMACHINE@@@std@@@3@$0A@@std@@@2@XZ
_TEXT	SEGMENT
?_Lmost@?$_Tree@V?$_Tmap_traits@EPAUtagTMACHINE@@U?$less@E@std@@V?$allocator@U?$pair@$$CBEPAUtagTMACHINE@@@std@@@3@$0A@@std@@@std@@IAEAAPAU_Node@?$_Tree_nod@V?$_Tmap_traits@EPAUtagTMACHINE@@U?$less@E@std@@V?$allocator@U?$pair@$$CBEPAUtagTMACHINE@@@std@@@3@$0A@@std@@@2@XZ PROC NEAR ; std::_Tree<std::_Tmap_traits<unsigned char,tagTMACHINE *,std::less<unsigned char>,std::allocator<std::pair<unsigned char const ,tagTMACHINE *> >,0> >::_Lmost, COMDAT
; _this$ = ecx

; 1005 : 		return (_Left(_Myhead));

  00000	8b 41 04	 mov	 eax, DWORD PTR [ecx+4]

; 1006 : 		}

  00003	c3		 ret	 0
?_Lmost@?$_Tree@V?$_Tmap_traits@EPAUtagTMACHINE@@U?$less@E@std@@V?$allocator@U?$pair@$$CBEPAUtagTMACHINE@@@std@@@3@$0A@@std@@@std@@IAEAAPAU_Node@?$_Tree_nod@V?$_Tmap_traits@EPAUtagTMACHINE@@U?$less@E@std@@V?$allocator@U?$pair@$$CBEPAUtagTMACHINE@@@std@@@3@$0A@@std@@@2@XZ ENDP ; std::_Tree<std::_Tmap_traits<unsigned char,tagTMACHINE *,std::less<unsigned char>,std::allocator<std::pair<unsigned char const ,tagTMACHINE *> >,0> >::_Lmost
_TEXT	ENDS
PUBLIC	??0iterator@?$_Tree@V?$_Tmap_traits@EPAUtagTMACHINE@@U?$less@E@std@@V?$allocator@U?$pair@$$CBEPAUtagTMACHINE@@@std@@@3@$0A@@std@@@std@@QAE@PAU_Node@?$_Tree_nod@V?$_Tmap_traits@EPAUtagTMACHINE@@U?$less@E@std@@V?$allocator@U?$pair@$$CBEPAUtagTMACHINE@@@std@@@3@$0A@@std@@@2@@Z ; std::_Tree<std::_Tmap_traits<unsigned char,tagTMACHINE *,std::less<unsigned char>,std::allocator<std::pair<unsigned char const ,tagTMACHINE *> >,0> >::iterator::iterator
; Function compile flags: /Ogty
;	COMDAT ??0iterator@?$_Tree@V?$_Tmap_traits@EPAUtagTMACHINE@@U?$less@E@std@@V?$allocator@U?$pair@$$CBEPAUtagTMACHINE@@@std@@@3@$0A@@std@@@std@@QAE@PAU_Node@?$_Tree_nod@V?$_Tmap_traits@EPAUtagTMACHINE@@U?$less@E@std@@V?$allocator@U?$pair@$$CBEPAUtagTMACHINE@@@std@@@3@$0A@@std@@@2@@Z
_TEXT	SEGMENT
__Pnode$ = 8						; size = 4
??0iterator@?$_Tree@V?$_Tmap_traits@EPAUtagTMACHINE@@U?$less@E@std@@V?$allocator@U?$pair@$$CBEPAUtagTMACHINE@@@std@@@3@$0A@@std@@@std@@QAE@PAU_Node@?$_Tree_nod@V?$_Tmap_traits@EPAUtagTMACHINE@@U?$less@E@std@@V?$allocator@U?$pair@$$CBEPAUtagTMACHINE@@@std@@@3@$0A@@std@@@2@@Z PROC NEAR ; std::_Tree<std::_Tmap_traits<unsigned char,tagTMACHINE *,std::less<unsigned char>,std::allocator<std::pair<unsigned char const ,tagTMACHINE *> >,0> >::iterator::iterator, COMDAT
; _this$ = ecx

; 312  : 			{	// construct with node pointer _Pnode

  00000	8b c1		 mov	 eax, ecx
  00002	8b 4c 24 04	 mov	 ecx, DWORD PTR __Pnode$[esp-4]
  00006	89 08		 mov	 DWORD PTR [eax], ecx

; 313  : 			}

  00008	c2 04 00	 ret	 4
??0iterator@?$_Tree@V?$_Tmap_traits@EPAUtagTMACHINE@@U?$less@E@std@@V?$allocator@U?$pair@$$CBEPAUtagTMACHINE@@@std@@@3@$0A@@std@@@std@@QAE@PAU_Node@?$_Tree_nod@V?$_Tmap_traits@EPAUtagTMACHINE@@U?$less@E@std@@V?$allocator@U?$pair@$$CBEPAUtagTMACHINE@@@std@@@3@$0A@@std@@@2@@Z ENDP ; std::_Tree<std::_Tmap_traits<unsigned char,tagTMACHINE *,std::less<unsigned char>,std::allocator<std::pair<unsigned char const ,tagTMACHINE *> >,0> >::iterator::iterator
_TEXT	ENDS
PUBLIC	??Dconst_iterator@?$_Tree@V?$_Tmap_traits@EPAUtagTMACHINE@@U?$less@E@std@@V?$allocator@U?$pair@$$CBEPAUtagTMACHINE@@@std@@@3@$0A@@std@@@std@@QBEABU?$pair@$$CBEPAUtagTMACHINE@@@2@XZ ; std::_Tree<std::_Tmap_traits<unsigned char,tagTMACHINE *,std::less<unsigned char>,std::allocator<std::pair<unsigned char const ,tagTMACHINE *> >,0> >::const_iterator::operator*
; Function compile flags: /Ogty
;	COMDAT ??Dconst_iterator@?$_Tree@V?$_Tmap_traits@EPAUtagTMACHINE@@U?$less@E@std@@V?$allocator@U?$pair@$$CBEPAUtagTMACHINE@@@std@@@3@$0A@@std@@@std@@QBEABU?$pair@$$CBEPAUtagTMACHINE@@@2@XZ
_TEXT	SEGMENT
??Dconst_iterator@?$_Tree@V?$_Tmap_traits@EPAUtagTMACHINE@@U?$less@E@std@@V?$allocator@U?$pair@$$CBEPAUtagTMACHINE@@@std@@@3@$0A@@std@@@std@@QBEABU?$pair@$$CBEPAUtagTMACHINE@@@2@XZ PROC NEAR ; std::_Tree<std::_Tmap_traits<unsigned char,tagTMACHINE *,std::less<unsigned char>,std::allocator<std::pair<unsigned char const ,tagTMACHINE *> >,0> >::const_iterator::operator*, COMDAT
; _this$ = ecx

; 205  : 			return (_Myval(_Ptr));

  00000	8b 01		 mov	 eax, DWORD PTR [ecx]
  00002	83 c0 0c	 add	 eax, 12			; 0000000cH

; 206  : 			}

  00005	c3		 ret	 0
??Dconst_iterator@?$_Tree@V?$_Tmap_traits@EPAUtagTMACHINE@@U?$less@E@std@@V?$allocator@U?$pair@$$CBEPAUtagTMACHINE@@@std@@@3@$0A@@std@@@std@@QBEABU?$pair@$$CBEPAUtagTMACHINE@@@2@XZ ENDP ; std::_Tree<std::_Tmap_traits<unsigned char,tagTMACHINE *,std::less<unsigned char>,std::allocator<std::pair<unsigned char const ,tagTMACHINE *> >,0> >::const_iterator::operator*
_TEXT	ENDS
PUBLIC	?_Lmost@?$_Tree@V?$_Tmap_traits@EPAUtagTGROUP@@U?$less@E@std@@V?$allocator@U?$pair@$$CBEPAUtagTGROUP@@@std@@@3@$0A@@std@@@std@@IAEAAPAU_Node@?$_Tree_nod@V?$_Tmap_traits@EPAUtagTGROUP@@U?$less@E@std@@V?$allocator@U?$pair@$$CBEPAUtagTGROUP@@@std@@@3@$0A@@std@@@2@XZ ; std::_Tree<std::_Tmap_traits<unsigned char,tagTGROUP *,std::less<unsigned char>,std::allocator<std::pair<unsigned char const ,tagTGROUP *> >,0> >::_Lmost
; Function compile flags: /Ogty
;	COMDAT ?_Lmost@?$_Tree@V?$_Tmap_traits@EPAUtagTGROUP@@U?$less@E@std@@V?$allocator@U?$pair@$$CBEPAUtagTGROUP@@@std@@@3@$0A@@std@@@std@@IAEAAPAU_Node@?$_Tree_nod@V?$_Tmap_traits@EPAUtagTGROUP@@U?$less@E@std@@V?$allocator@U?$pair@$$CBEPAUtagTGROUP@@@std@@@3@$0A@@std@@@2@XZ
_TEXT	SEGMENT
?_Lmost@?$_Tree@V?$_Tmap_traits@EPAUtagTGROUP@@U?$less@E@std@@V?$allocator@U?$pair@$$CBEPAUtagTGROUP@@@std@@@3@$0A@@std@@@std@@IAEAAPAU_Node@?$_Tree_nod@V?$_Tmap_traits@EPAUtagTGROUP@@U?$less@E@std@@V?$allocator@U?$pair@$$CBEPAUtagTGROUP@@@std@@@3@$0A@@std@@@2@XZ PROC NEAR ; std::_Tree<std::_Tmap_traits<unsigned char,tagTGROUP *,std::less<unsigned char>,std::allocator<std::pair<unsigned char const ,tagTGROUP *> >,0> >::_Lmost, COMDAT
; _this$ = ecx

; 1005 : 		return (_Left(_Myhead));

  00000	8b 41 04	 mov	 eax, DWORD PTR [ecx+4]

; 1006 : 		}

  00003	c3		 ret	 0
?_Lmost@?$_Tree@V?$_Tmap_traits@EPAUtagTGROUP@@U?$less@E@std@@V?$allocator@U?$pair@$$CBEPAUtagTGROUP@@@std@@@3@$0A@@std@@@std@@IAEAAPAU_Node@?$_Tree_nod@V?$_Tmap_traits@EPAUtagTGROUP@@U?$less@E@std@@V?$allocator@U?$pair@$$CBEPAUtagTGROUP@@@std@@@3@$0A@@std@@@2@XZ ENDP ; std::_Tree<std::_Tmap_traits<unsigned char,tagTGROUP *,std::less<unsigned char>,std::allocator<std::pair<unsigned char const ,tagTGROUP *> >,0> >::_Lmost
_TEXT	ENDS
PUBLIC	??0iterator@?$_Tree@V?$_Tmap_traits@EPAUtagTGROUP@@U?$less@E@std@@V?$allocator@U?$pair@$$CBEPAUtagTGROUP@@@std@@@3@$0A@@std@@@std@@QAE@PAU_Node@?$_Tree_nod@V?$_Tmap_traits@EPAUtagTGROUP@@U?$less@E@std@@V?$allocator@U?$pair@$$CBEPAUtagTGROUP@@@std@@@3@$0A@@std@@@2@@Z ; std::_Tree<std::_Tmap_traits<unsigned char,tagTGROUP *,std::less<unsigned char>,std::allocator<std::pair<unsigned char const ,tagTGROUP *> >,0> >::iterator::iterator
; Function compile flags: /Ogty
;	COMDAT ??0iterator@?$_Tree@V?$_Tmap_traits@EPAUtagTGROUP@@U?$less@E@std@@V?$allocator@U?$pair@$$CBEPAUtagTGROUP@@@std@@@3@$0A@@std@@@std@@QAE@PAU_Node@?$_Tree_nod@V?$_Tmap_traits@EPAUtagTGROUP@@U?$less@E@std@@V?$allocator@U?$pair@$$CBEPAUtagTGROUP@@@std@@@3@$0A@@std@@@2@@Z
_TEXT	SEGMENT
__Pnode$ = 8						; size = 4
??0iterator@?$_Tree@V?$_Tmap_traits@EPAUtagTGROUP@@U?$less@E@std@@V?$allocator@U?$pair@$$CBEPAUtagTGROUP@@@std@@@3@$0A@@std@@@std@@QAE@PAU_Node@?$_Tree_nod@V?$_Tmap_traits@EPAUtagTGROUP@@U?$less@E@std@@V?$allocator@U?$pair@$$CBEPAUtagTGROUP@@@std@@@3@$0A@@std@@@2@@Z PROC NEAR ; std::_Tree<std::_Tmap_traits<unsigned char,tagTGROUP *,std::less<unsigned char>,std::allocator<std::pair<unsigned char const ,tagTGROUP *> >,0> >::iterator::iterator, COMDAT
; _this$ = ecx

; 312  : 			{	// construct with node pointer _Pnode

  00000	8b c1		 mov	 eax, ecx
  00002	8b 4c 24 04	 mov	 ecx, DWORD PTR __Pnode$[esp-4]
  00006	89 08		 mov	 DWORD PTR [eax], ecx

; 313  : 			}

  00008	c2 04 00	 ret	 4
??0iterator@?$_Tree@V?$_Tmap_traits@EPAUtagTGROUP@@U?$less@E@std@@V?$allocator@U?$pair@$$CBEPAUtagTGROUP@@@std@@@3@$0A@@std@@@std@@QAE@PAU_Node@?$_Tree_nod@V?$_Tmap_traits@EPAUtagTGROUP@@U?$less@E@std@@V?$allocator@U?$pair@$$CBEPAUtagTGROUP@@@std@@@3@$0A@@std@@@2@@Z ENDP ; std::_Tree<std::_Tmap_traits<unsigned char,tagTGROUP *,std::less<unsigned char>,std::allocator<std::pair<unsigned char const ,tagTGROUP *> >,0> >::iterator::iterator
_TEXT	ENDS
PUBLIC	??Dconst_iterator@?$_Tree@V?$_Tmap_traits@EPAUtagTGROUP@@U?$less@E@std@@V?$allocator@U?$pair@$$CBEPAUtagTGROUP@@@std@@@3@$0A@@std@@@std@@QBEABU?$pair@$$CBEPAUtagTGROUP@@@2@XZ ; std::_Tree<std::_Tmap_traits<unsigned char,tagTGROUP *,std::less<unsigned char>,std::allocator<std::pair<unsigned char const ,tagTGROUP *> >,0> >::const_iterator::operator*
; Function compile flags: /Ogty
;	COMDAT ??Dconst_iterator@?$_Tree@V?$_Tmap_traits@EPAUtagTGROUP@@U?$less@E@std@@V?$allocator@U?$pair@$$CBEPAUtagTGROUP@@@std@@@3@$0A@@std@@@std@@QBEABU?$pair@$$CBEPAUtagTGROUP@@@2@XZ
_TEXT	SEGMENT
??Dconst_iterator@?$_Tree@V?$_Tmap_traits@EPAUtagTGROUP@@U?$less@E@std@@V?$allocator@U?$pair@$$CBEPAUtagTGROUP@@@std@@@3@$0A@@std@@@std@@QBEABU?$pair@$$CBEPAUtagTGROUP@@@2@XZ PROC NEAR ; std::_Tree<std::_Tmap_traits<unsigned char,tagTGROUP *,std::less<unsigned char>,std::allocator<std::pair<unsigned char const ,tagTGROUP *> >,0> >::const_iterator::operator*, COMDAT
; _this$ = ecx

; 205  : 			return (_Myval(_Ptr));

  00000	8b 01		 mov	 eax, DWORD PTR [ecx]
  00002	83 c0 0c	 add	 eax, 12			; 0000000cH

; 206  : 			}

  00005	c3		 ret	 0
??Dconst_iterator@?$_Tree@V?$_Tmap_traits@EPAUtagTGROUP@@U?$less@E@std@@V?$allocator@U?$pair@$$CBEPAUtagTGROUP@@@std@@@3@$0A@@std@@@std@@QBEABU?$pair@$$CBEPAUtagTGROUP@@@2@XZ ENDP ; std::_Tree<std::_Tmap_traits<unsigned char,tagTGROUP *,std::less<unsigned char>,std::allocator<std::pair<unsigned char const ,tagTGROUP *> >,0> >::const_iterator::operator*
_TEXT	ENDS
PUBLIC	?_Lmost@?$_Tree@V?$_Tmap_traits@KPAUtagTSVRTEMP@@U?$less@K@std@@V?$allocator@U?$pair@$$CBKPAUtagTSVRTEMP@@@std@@@3@$0A@@std@@@std@@IAEAAPAU_Node@?$_Tree_nod@V?$_Tmap_traits@KPAUtagTSVRTEMP@@U?$less@K@std@@V?$allocator@U?$pair@$$CBKPAUtagTSVRTEMP@@@std@@@3@$0A@@std@@@2@XZ ; std::_Tree<std::_Tmap_traits<unsigned long,tagTSVRTEMP *,std::less<unsigned long>,std::allocator<std::pair<unsigned long const ,tagTSVRTEMP *> >,0> >::_Lmost
; Function compile flags: /Ogty
;	COMDAT ?_Lmost@?$_Tree@V?$_Tmap_traits@KPAUtagTSVRTEMP@@U?$less@K@std@@V?$allocator@U?$pair@$$CBKPAUtagTSVRTEMP@@@std@@@3@$0A@@std@@@std@@IAEAAPAU_Node@?$_Tree_nod@V?$_Tmap_traits@KPAUtagTSVRTEMP@@U?$less@K@std@@V?$allocator@U?$pair@$$CBKPAUtagTSVRTEMP@@@std@@@3@$0A@@std@@@2@XZ
_TEXT	SEGMENT
?_Lmost@?$_Tree@V?$_Tmap_traits@KPAUtagTSVRTEMP@@U?$less@K@std@@V?$allocator@U?$pair@$$CBKPAUtagTSVRTEMP@@@std@@@3@$0A@@std@@@std@@IAEAAPAU_Node@?$_Tree_nod@V?$_Tmap_traits@KPAUtagTSVRTEMP@@U?$less@K@std@@V?$allocator@U?$pair@$$CBKPAUtagTSVRTEMP@@@std@@@3@$0A@@std@@@2@XZ PROC NEAR ; std::_Tree<std::_Tmap_traits<unsigned long,tagTSVRTEMP *,std::less<unsigned long>,std::allocator<std::pair<unsigned long const ,tagTSVRTEMP *> >,0> >::_Lmost, COMDAT
; _this$ = ecx

; 1005 : 		return (_Left(_Myhead));

  00000	8b 41 04	 mov	 eax, DWORD PTR [ecx+4]

; 1006 : 		}

  00003	c3		 ret	 0
?_Lmost@?$_Tree@V?$_Tmap_traits@KPAUtagTSVRTEMP@@U?$less@K@std@@V?$allocator@U?$pair@$$CBKPAUtagTSVRTEMP@@@std@@@3@$0A@@std@@@std@@IAEAAPAU_Node@?$_Tree_nod@V?$_Tmap_traits@KPAUtagTSVRTEMP@@U?$less@K@std@@V?$allocator@U?$pair@$$CBKPAUtagTSVRTEMP@@@std@@@3@$0A@@std@@@2@XZ ENDP ; std::_Tree<std::_Tmap_traits<unsigned long,tagTSVRTEMP *,std::less<unsigned long>,std::allocator<std::pair<unsigned long const ,tagTSVRTEMP *> >,0> >::_Lmost
_TEXT	ENDS
PUBLIC	??0iterator@?$_Tree@V?$_Tmap_traits@KPAUtagTSVRTEMP@@U?$less@K@std@@V?$allocator@U?$pair@$$CBKPAUtagTSVRTEMP@@@std@@@3@$0A@@std@@@std@@QAE@PAU_Node@?$_Tree_nod@V?$_Tmap_traits@KPAUtagTSVRTEMP@@U?$less@K@std@@V?$allocator@U?$pair@$$CBKPAUtagTSVRTEMP@@@std@@@3@$0A@@std@@@2@@Z ; std::_Tree<std::_Tmap_traits<unsigned long,tagTSVRTEMP *,std::less<unsigned long>,std::allocator<std::pair<unsigned long const ,tagTSVRTEMP *> >,0> >::iterator::iterator
; Function compile flags: /Ogty
;	COMDAT ??0iterator@?$_Tree@V?$_Tmap_traits@KPAUtagTSVRTEMP@@U?$less@K@std@@V?$allocator@U?$pair@$$CBKPAUtagTSVRTEMP@@@std@@@3@$0A@@std@@@std@@QAE@PAU_Node@?$_Tree_nod@V?$_Tmap_traits@KPAUtagTSVRTEMP@@U?$less@K@std@@V?$allocator@U?$pair@$$CBKPAUtagTSVRTEMP@@@std@@@3@$0A@@std@@@2@@Z
_TEXT	SEGMENT
__Pnode$ = 8						; size = 4
??0iterator@?$_Tree@V?$_Tmap_traits@KPAUtagTSVRTEMP@@U?$less@K@std@@V?$allocator@U?$pair@$$CBKPAUtagTSVRTEMP@@@std@@@3@$0A@@std@@@std@@QAE@PAU_Node@?$_Tree_nod@V?$_Tmap_traits@KPAUtagTSVRTEMP@@U?$less@K@std@@V?$allocator@U?$pair@$$CBKPAUtagTSVRTEMP@@@std@@@3@$0A@@std@@@2@@Z PROC NEAR ; std::_Tree<std::_Tmap_traits<unsigned long,tagTSVRTEMP *,std::less<unsigned long>,std::allocator<std::pair<unsigned long const ,tagTSVRTEMP *> >,0> >::iterator::iterator, COMDAT
; _this$ = ecx

; 312  : 			{	// construct with node pointer _Pnode

  00000	8b c1		 mov	 eax, ecx
  00002	8b 4c 24 04	 mov	 ecx, DWORD PTR __Pnode$[esp-4]
  00006	89 08		 mov	 DWORD PTR [eax], ecx

; 313  : 			}

  00008	c2 04 00	 ret	 4
??0iterator@?$_Tree@V?$_Tmap_traits@KPAUtagTSVRTEMP@@U?$less@K@std@@V?$allocator@U?$pair@$$CBKPAUtagTSVRTEMP@@@std@@@3@$0A@@std@@@std@@QAE@PAU_Node@?$_Tree_nod@V?$_Tmap_traits@KPAUtagTSVRTEMP@@U?$less@K@std@@V?$allocator@U?$pair@$$CBKPAUtagTSVRTEMP@@@std@@@3@$0A@@std@@@2@@Z ENDP ; std::_Tree<std::_Tmap_traits<unsigned long,tagTSVRTEMP *,std::less<unsigned long>,std::allocator<std::pair<unsigned long const ,tagTSVRTEMP *> >,0> >::iterator::iterator
_TEXT	ENDS
PUBLIC	??Dconst_iterator@?$_Tree@V?$_Tmap_traits@KPAUtagTSVRTEMP@@U?$less@K@std@@V?$allocator@U?$pair@$$CBKPAUtagTSVRTEMP@@@std@@@3@$0A@@std@@@std@@QBEABU?$pair@$$CBKPAUtagTSVRTEMP@@@2@XZ ; std::_Tree<std::_Tmap_traits<unsigned long,tagTSVRTEMP *,std::less<unsigned long>,std::allocator<std::pair<unsigned long const ,tagTSVRTEMP *> >,0> >::const_iterator::operator*
; Function compile flags: /Ogty
;	COMDAT ??Dconst_iterator@?$_Tree@V?$_Tmap_traits@KPAUtagTSVRTEMP@@U?$less@K@std@@V?$allocator@U?$pair@$$CBKPAUtagTSVRTEMP@@@std@@@3@$0A@@std@@@std@@QBEABU?$pair@$$CBKPAUtagTSVRTEMP@@@2@XZ
_TEXT	SEGMENT
??Dconst_iterator@?$_Tree@V?$_Tmap_traits@KPAUtagTSVRTEMP@@U?$less@K@std@@V?$allocator@U?$pair@$$CBKPAUtagTSVRTEMP@@@std@@@3@$0A@@std@@@std@@QBEABU?$pair@$$CBKPAUtagTSVRTEMP@@@2@XZ PROC NEAR ; std::_Tree<std::_Tmap_traits<unsigned long,tagTSVRTEMP *,std::less<unsigned long>,std::allocator<std::pair<unsigned long const ,tagTSVRTEMP *> >,0> >::const_iterator::operator*, COMDAT
; _this$ = ecx

; 205  : 			return (_Myval(_Ptr));

  00000	8b 01		 mov	 eax, DWORD PTR [ecx]
  00002	83 c0 0c	 add	 eax, 12			; 0000000cH

; 206  : 			}

  00005	c3		 ret	 0
??Dconst_iterator@?$_Tree@V?$_Tmap_traits@KPAUtagTSVRTEMP@@U?$less@K@std@@V?$allocator@U?$pair@$$CBKPAUtagTSVRTEMP@@@std@@@3@$0A@@std@@@std@@QBEABU?$pair@$$CBKPAUtagTSVRTEMP@@@2@XZ ENDP ; std::_Tree<std::_Tmap_traits<unsigned long,tagTSVRTEMP *,std::less<unsigned long>,std::allocator<std::pair<unsigned long const ,tagTSVRTEMP *> >,0> >::const_iterator::operator*
_TEXT	ENDS
PUBLIC	?_Lmost@?$_Tree@V?$_Tmap_traits@KPAUtagBANINFO@@U?$less@K@std@@V?$allocator@U?$pair@$$CBKPAUtagBANINFO@@@std@@@3@$0A@@std@@@std@@IAEAAPAU_Node@?$_Tree_nod@V?$_Tmap_traits@KPAUtagBANINFO@@U?$less@K@std@@V?$allocator@U?$pair@$$CBKPAUtagBANINFO@@@std@@@3@$0A@@std@@@2@XZ ; std::_Tree<std::_Tmap_traits<unsigned long,tagBANINFO *,std::less<unsigned long>,std::allocator<std::pair<unsigned long const ,tagBANINFO *> >,0> >::_Lmost
; Function compile flags: /Ogty
;	COMDAT ?_Lmost@?$_Tree@V?$_Tmap_traits@KPAUtagBANINFO@@U?$less@K@std@@V?$allocator@U?$pair@$$CBKPAUtagBANINFO@@@std@@@3@$0A@@std@@@std@@IAEAAPAU_Node@?$_Tree_nod@V?$_Tmap_traits@KPAUtagBANINFO@@U?$less@K@std@@V?$allocator@U?$pair@$$CBKPAUtagBANINFO@@@std@@@3@$0A@@std@@@2@XZ
_TEXT	SEGMENT
?_Lmost@?$_Tree@V?$_Tmap_traits@KPAUtagBANINFO@@U?$less@K@std@@V?$allocator@U?$pair@$$CBKPAUtagBANINFO@@@std@@@3@$0A@@std@@@std@@IAEAAPAU_Node@?$_Tree_nod@V?$_Tmap_traits@KPAUtagBANINFO@@U?$less@K@std@@V?$allocator@U?$pair@$$CBKPAUtagBANINFO@@@std@@@3@$0A@@std@@@2@XZ PROC NEAR ; std::_Tree<std::_Tmap_traits<unsigned long,tagBANINFO *,std::less<unsigned long>,std::allocator<std::pair<unsigned long const ,tagBANINFO *> >,0> >::_Lmost, COMDAT
; _this$ = ecx

; 1005 : 		return (_Left(_Myhead));

  00000	8b 41 04	 mov	 eax, DWORD PTR [ecx+4]

; 1006 : 		}

  00003	c3		 ret	 0
?_Lmost@?$_Tree@V?$_Tmap_traits@KPAUtagBANINFO@@U?$less@K@std@@V?$allocator@U?$pair@$$CBKPAUtagBANINFO@@@std@@@3@$0A@@std@@@std@@IAEAAPAU_Node@?$_Tree_nod@V?$_Tmap_traits@KPAUtagBANINFO@@U?$less@K@std@@V?$allocator@U?$pair@$$CBKPAUtagBANINFO@@@std@@@3@$0A@@std@@@2@XZ ENDP ; std::_Tree<std::_Tmap_traits<unsigned long,tagBANINFO *,std::less<unsigned long>,std::allocator<std::pair<unsigned long const ,tagBANINFO *> >,0> >::_Lmost
_TEXT	ENDS
PUBLIC	??0iterator@?$_Tree@V?$_Tmap_traits@KPAUtagBANINFO@@U?$less@K@std@@V?$allocator@U?$pair@$$CBKPAUtagBANINFO@@@std@@@3@$0A@@std@@@std@@QAE@PAU_Node@?$_Tree_nod@V?$_Tmap_traits@KPAUtagBANINFO@@U?$less@K@std@@V?$allocator@U?$pair@$$CBKPAUtagBANINFO@@@std@@@3@$0A@@std@@@2@@Z ; std::_Tree<std::_Tmap_traits<unsigned long,tagBANINFO *,std::less<unsigned long>,std::allocator<std::pair<unsigned long const ,tagBANINFO *> >,0> >::iterator::iterator
; Function compile flags: /Ogty
;	COMDAT ??0iterator@?$_Tree@V?$_Tmap_traits@KPAUtagBANINFO@@U?$less@K@std@@V?$allocator@U?$pair@$$CBKPAUtagBANINFO@@@std@@@3@$0A@@std@@@std@@QAE@PAU_Node@?$_Tree_nod@V?$_Tmap_traits@KPAUtagBANINFO@@U?$less@K@std@@V?$allocator@U?$pair@$$CBKPAUtagBANINFO@@@std@@@3@$0A@@std@@@2@@Z
_TEXT	SEGMENT
__Pnode$ = 8						; size = 4
??0iterator@?$_Tree@V?$_Tmap_traits@KPAUtagBANINFO@@U?$less@K@std@@V?$allocator@U?$pair@$$CBKPAUtagBANINFO@@@std@@@3@$0A@@std@@@std@@QAE@PAU_Node@?$_Tree_nod@V?$_Tmap_traits@KPAUtagBANINFO@@U?$less@K@std@@V?$allocator@U?$pair@$$CBKPAUtagBANINFO@@@std@@@3@$0A@@std@@@2@@Z PROC NEAR ; std::_Tree<std::_Tmap_traits<unsigned long,tagBANINFO *,std::less<unsigned long>,std::allocator<std::pair<unsigned long const ,tagBANINFO *> >,0> >::iterator::iterator, COMDAT
; _this$ = ecx

; 312  : 			{	// construct with node pointer _Pnode

  00000	8b c1		 mov	 eax, ecx
  00002	8b 4c 24 04	 mov	 ecx, DWORD PTR __Pnode$[esp-4]
  00006	89 08		 mov	 DWORD PTR [eax], ecx

; 313  : 			}

  00008	c2 04 00	 ret	 4
??0iterator@?$_Tree@V?$_Tmap_traits@KPAUtagBANINFO@@U?$less@K@std@@V?$allocator@U?$pair@$$CBKPAUtagBANINFO@@@std@@@3@$0A@@std@@@std@@QAE@PAU_Node@?$_Tree_nod@V?$_Tmap_traits@KPAUtagBANINFO@@U?$less@K@std@@V?$allocator@U?$pair@$$CBKPAUtagBANINFO@@@std@@@3@$0A@@std@@@2@@Z ENDP ; std::_Tree<std::_Tmap_traits<unsigned long,tagBANINFO *,std::less<unsigned long>,std::allocator<std::pair<unsigned long const ,tagBANINFO *> >,0> >::iterator::iterator
_TEXT	ENDS
PUBLIC	??Dconst_iterator@?$_Tree@V?$_Tmap_traits@KPAUtagBANINFO@@U?$less@K@std@@V?$allocator@U?$pair@$$CBKPAUtagBANINFO@@@std@@@3@$0A@@std@@@std@@QBEABU?$pair@$$CBKPAUtagBANINFO@@@2@XZ ; std::_Tree<std::_Tmap_traits<unsigned long,tagBANINFO *,std::less<unsigned long>,std::allocator<std::pair<unsigned long const ,tagBANINFO *> >,0> >::const_iterator::operator*
; Function compile flags: /Ogty
;	COMDAT ??Dconst_iterator@?$_Tree@V?$_Tmap_traits@KPAUtagBANINFO@@U?$less@K@std@@V?$allocator@U?$pair@$$CBKPAUtagBANINFO@@@std@@@3@$0A@@std@@@std@@QBEABU?$pair@$$CBKPAUtagBANINFO@@@2@XZ
_TEXT	SEGMENT
??Dconst_iterator@?$_Tree@V?$_Tmap_traits@KPAUtagBANINFO@@U?$less@K@std@@V?$allocator@U?$pair@$$CBKPAUtagBANINFO@@@std@@@3@$0A@@std@@@std@@QBEABU?$pair@$$CBKPAUtagBANINFO@@@2@XZ PROC NEAR ; std::_Tree<std::_Tmap_traits<unsigned long,tagBANINFO *,std::less<unsigned long>,std::allocator<std::pair<unsigned long const ,tagBANINFO *> >,0> >::const_iterator::operator*, COMDAT
; _this$ = ecx

; 205  : 			return (_Myval(_Ptr));

  00000	8b 01		 mov	 eax, DWORD PTR [ecx]
  00002	83 c0 0c	 add	 eax, 12			; 0000000cH

; 206  : 			}

  00005	c3		 ret	 0
??Dconst_iterator@?$_Tree@V?$_Tmap_traits@KPAUtagBANINFO@@U?$less@K@std@@V?$allocator@U?$pair@$$CBKPAUtagBANINFO@@@std@@@3@$0A@@std@@@std@@QBEABU?$pair@$$CBKPAUtagBANINFO@@@2@XZ ENDP ; std::_Tree<std::_Tmap_traits<unsigned long,tagBANINFO *,std::less<unsigned long>,std::allocator<std::pair<unsigned long const ,tagBANINFO *> >,0> >::const_iterator::operator*
_TEXT	ENDS
PUBLIC	?_Lmost@?$_Tree@V?$_Tmap_traits@KUtagEVENTINFO@@U?$less@K@std@@V?$allocator@U?$pair@$$CBKUtagEVENTINFO@@@std@@@3@$0A@@std@@@std@@IAEAAPAU_Node@?$_Tree_nod@V?$_Tmap_traits@KUtagEVENTINFO@@U?$less@K@std@@V?$allocator@U?$pair@$$CBKUtagEVENTINFO@@@std@@@3@$0A@@std@@@2@XZ ; std::_Tree<std::_Tmap_traits<unsigned long,tagEVENTINFO,std::less<unsigned long>,std::allocator<std::pair<unsigned long const ,tagEVENTINFO> >,0> >::_Lmost
; Function compile flags: /Ogty
;	COMDAT ?_Lmost@?$_Tree@V?$_Tmap_traits@KUtagEVENTINFO@@U?$less@K@std@@V?$allocator@U?$pair@$$CBKUtagEVENTINFO@@@std@@@3@$0A@@std@@@std@@IAEAAPAU_Node@?$_Tree_nod@V?$_Tmap_traits@KUtagEVENTINFO@@U?$less@K@std@@V?$allocator@U?$pair@$$CBKUtagEVENTINFO@@@std@@@3@$0A@@std@@@2@XZ
_TEXT	SEGMENT
?_Lmost@?$_Tree@V?$_Tmap_traits@KUtagEVENTINFO@@U?$less@K@std@@V?$allocator@U?$pair@$$CBKUtagEVENTINFO@@@std@@@3@$0A@@std@@@std@@IAEAAPAU_Node@?$_Tree_nod@V?$_Tmap_traits@KUtagEVENTINFO@@U?$less@K@std@@V?$allocator@U?$pair@$$CBKUtagEVENTINFO@@@std@@@3@$0A@@std@@@2@XZ PROC NEAR ; std::_Tree<std::_Tmap_traits<unsigned long,tagEVENTINFO,std::less<unsigned long>,std::allocator<std::pair<unsigned long const ,tagEVENTINFO> >,0> >::_Lmost, COMDAT
; _this$ = ecx

; 1005 : 		return (_Left(_Myhead));

  00000	8b 41 04	 mov	 eax, DWORD PTR [ecx+4]

; 1006 : 		}

  00003	c3		 ret	 0
?_Lmost@?$_Tree@V?$_Tmap_traits@KUtagEVENTINFO@@U?$less@K@std@@V?$allocator@U?$pair@$$CBKUtagEVENTINFO@@@std@@@3@$0A@@std@@@std@@IAEAAPAU_Node@?$_Tree_nod@V?$_Tmap_traits@KUtagEVENTINFO@@U?$less@K@std@@V?$allocator@U?$pair@$$CBKUtagEVENTINFO@@@std@@@3@$0A@@std@@@2@XZ ENDP ; std::_Tree<std::_Tmap_traits<unsigned long,tagEVENTINFO,std::less<unsigned long>,std::allocator<std::pair<unsigned long const ,tagEVENTINFO> >,0> >::_Lmost
_TEXT	ENDS
PUBLIC	??0iterator@?$_Tree@V?$_Tmap_traits@KUtagEVENTINFO@@U?$less@K@std@@V?$allocator@U?$pair@$$CBKUtagEVENTINFO@@@std@@@3@$0A@@std@@@std@@QAE@PAU_Node@?$_Tree_nod@V?$_Tmap_traits@KUtagEVENTINFO@@U?$less@K@std@@V?$allocator@U?$pair@$$CBKUtagEVENTINFO@@@std@@@3@$0A@@std@@@2@@Z ; std::_Tree<std::_Tmap_traits<unsigned long,tagEVENTINFO,std::less<unsigned long>,std::allocator<std::pair<unsigned long const ,tagEVENTINFO> >,0> >::iterator::iterator
; Function compile flags: /Ogty
;	COMDAT ??0iterator@?$_Tree@V?$_Tmap_traits@KUtagEVENTINFO@@U?$less@K@std@@V?$allocator@U?$pair@$$CBKUtagEVENTINFO@@@std@@@3@$0A@@std@@@std@@QAE@PAU_Node@?$_Tree_nod@V?$_Tmap_traits@KUtagEVENTINFO@@U?$less@K@std@@V?$allocator@U?$pair@$$CBKUtagEVENTINFO@@@std@@@3@$0A@@std@@@2@@Z
_TEXT	SEGMENT
__Pnode$ = 8						; size = 4
??0iterator@?$_Tree@V?$_Tmap_traits@KUtagEVENTINFO@@U?$less@K@std@@V?$allocator@U?$pair@$$CBKUtagEVENTINFO@@@std@@@3@$0A@@std@@@std@@QAE@PAU_Node@?$_Tree_nod@V?$_Tmap_traits@KUtagEVENTINFO@@U?$less@K@std@@V?$allocator@U?$pair@$$CBKUtagEVENTINFO@@@std@@@3@$0A@@std@@@2@@Z PROC NEAR ; std::_Tree<std::_Tmap_traits<unsigned long,tagEVENTINFO,std::less<unsigned long>,std::allocator<std::pair<unsigned long const ,tagEVENTINFO> >,0> >::iterator::iterator, COMDAT
; _this$ = ecx

; 312  : 			{	// construct with node pointer _Pnode

  00000	8b c1		 mov	 eax, ecx
  00002	8b 4c 24 04	 mov	 ecx, DWORD PTR __Pnode$[esp-4]
  00006	89 08		 mov	 DWORD PTR [eax], ecx

; 313  : 			}

  00008	c2 04 00	 ret	 4
??0iterator@?$_Tree@V?$_Tmap_traits@KUtagEVENTINFO@@U?$less@K@std@@V?$allocator@U?$pair@$$CBKUtagEVENTINFO@@@std@@@3@$0A@@std@@@std@@QAE@PAU_Node@?$_Tree_nod@V?$_Tmap_traits@KUtagEVENTINFO@@U?$less@K@std@@V?$allocator@U?$pair@$$CBKUtagEVENTINFO@@@std@@@3@$0A@@std@@@2@@Z ENDP ; std::_Tree<std::_Tmap_traits<unsigned long,tagEVENTINFO,std::less<unsigned long>,std::allocator<std::pair<unsigned long const ,tagEVENTINFO> >,0> >::iterator::iterator
_TEXT	ENDS
PUBLIC	??Dconst_iterator@?$_Tree@V?$_Tmap_traits@KUtagEVENTINFO@@U?$less@K@std@@V?$allocator@U?$pair@$$CBKUtagEVENTINFO@@@std@@@3@$0A@@std@@@std@@QBEABU?$pair@$$CBKUtagEVENTINFO@@@2@XZ ; std::_Tree<std::_Tmap_traits<unsigned long,tagEVENTINFO,std::less<unsigned long>,std::allocator<std::pair<unsigned long const ,tagEVENTINFO> >,0> >::const_iterator::operator*
; Function compile flags: /Ogty
;	COMDAT ??Dconst_iterator@?$_Tree@V?$_Tmap_traits@KUtagEVENTINFO@@U?$less@K@std@@V?$allocator@U?$pair@$$CBKUtagEVENTINFO@@@std@@@3@$0A@@std@@@std@@QBEABU?$pair@$$CBKUtagEVENTINFO@@@2@XZ
_TEXT	SEGMENT
??Dconst_iterator@?$_Tree@V?$_Tmap_traits@KUtagEVENTINFO@@U?$less@K@std@@V?$allocator@U?$pair@$$CBKUtagEVENTINFO@@@std@@@3@$0A@@std@@@std@@QBEABU?$pair@$$CBKUtagEVENTINFO@@@2@XZ PROC NEAR ; std::_Tree<std::_Tmap_traits<unsigned long,tagEVENTINFO,std::less<unsigned long>,std::allocator<std::pair<unsigned long const ,tagEVENTINFO> >,0> >::const_iterator::operator*, COMDAT
; _this$ = ecx

; 205  : 			return (_Myval(_Ptr));

  00000	8b 01		 mov	 eax, DWORD PTR [ecx]
  00002	83 c0 10	 add	 eax, 16			; 00000010H

; 206  : 			}

  00005	c3		 ret	 0
??Dconst_iterator@?$_Tree@V?$_Tmap_traits@KUtagEVENTINFO@@U?$less@K@std@@V?$allocator@U?$pair@$$CBKUtagEVENTINFO@@@std@@@3@$0A@@std@@@std@@QBEABU?$pair@$$CBKUtagEVENTINFO@@@2@XZ ENDP ; std::_Tree<std::_Tmap_traits<unsigned long,tagEVENTINFO,std::less<unsigned long>,std::allocator<std::pair<unsigned long const ,tagEVENTINFO> >,0> >::const_iterator::operator*
_TEXT	ENDS
PUBLIC	??Diterator@?$vector@UtagTCASHITEM@@V?$allocator@UtagTCASHITEM@@@std@@@std@@QBEAAUtagTCASHITEM@@XZ ; std::vector<tagTCASHITEM,std::allocator<tagTCASHITEM> >::iterator::operator*
; Function compile flags: /Ogty
; File c:\program files (x86)\microsoft visual studio .net 2003\vc7\include\vector
;	COMDAT ??Diterator@?$vector@UtagTCASHITEM@@V?$allocator@UtagTCASHITEM@@@std@@@std@@QBEAAUtagTCASHITEM@@XZ
_TEXT	SEGMENT
??Diterator@?$vector@UtagTCASHITEM@@V?$allocator@UtagTCASHITEM@@@std@@@std@@QBEAAUtagTCASHITEM@@XZ PROC NEAR ; std::vector<tagTCASHITEM,std::allocator<tagTCASHITEM> >::iterator::operator*, COMDAT
; _this$ = ecx

; 220  : 			return ((reference)**(const_iterator *)this);

  00000	8b 01		 mov	 eax, DWORD PTR [ecx]

; 221  : 			}

  00002	c3		 ret	 0
??Diterator@?$vector@UtagTCASHITEM@@V?$allocator@UtagTCASHITEM@@@std@@@std@@QBEAAUtagTCASHITEM@@XZ ENDP ; std::vector<tagTCASHITEM,std::allocator<tagTCASHITEM> >::iterator::operator*
_TEXT	ENDS
PUBLIC	??Hiterator@?$vector@UtagTCASHITEM@@V?$allocator@UtagTCASHITEM@@@std@@@std@@QBE?AV012@H@Z ; std::vector<tagTCASHITEM,std::allocator<tagTCASHITEM> >::iterator::operator+
; Function compile flags: /Ogty
;	COMDAT ??Hiterator@?$vector@UtagTCASHITEM@@V?$allocator@UtagTCASHITEM@@@std@@@std@@QBE?AV012@H@Z
_TEXT	SEGMENT
___$ReturnUdt$ = 8					; size = 4
__Off$ = 12						; size = 4
??Hiterator@?$vector@UtagTCASHITEM@@V?$allocator@UtagTCASHITEM@@@std@@@std@@QBE?AV012@H@Z PROC NEAR ; std::vector<tagTCASHITEM,std::allocator<tagTCASHITEM> >::iterator::operator+, COMDAT
; _this$ = ecx

; 262  : 			iterator _Tmp = *this;
; 263  : 			return (_Tmp += _Off);

  00000	8b 01		 mov	 eax, DWORD PTR [ecx]
  00002	8b 4c 24 08	 mov	 ecx, DWORD PTR __Off$[esp-4]
  00006	8d 14 c8	 lea	 edx, DWORD PTR [eax+ecx*8]
  00009	8b 44 24 04	 mov	 eax, DWORD PTR ___$ReturnUdt$[esp-4]
  0000d	89 10		 mov	 DWORD PTR [eax], edx

; 264  : 			}

  0000f	c2 08 00	 ret	 8
??Hiterator@?$vector@UtagTCASHITEM@@V?$allocator@UtagTCASHITEM@@@std@@@std@@QBE?AV012@H@Z ENDP ; std::vector<tagTCASHITEM,std::allocator<tagTCASHITEM> >::iterator::operator+
_TEXT	ENDS
PUBLIC	??Diterator@?$vector@UtagPATCHFILE@@V?$allocator@UtagPATCHFILE@@@std@@@std@@QBEAAUtagPATCHFILE@@XZ ; std::vector<tagPATCHFILE,std::allocator<tagPATCHFILE> >::iterator::operator*
; Function compile flags: /Ogty
;	COMDAT ??Diterator@?$vector@UtagPATCHFILE@@V?$allocator@UtagPATCHFILE@@@std@@@std@@QBEAAUtagPATCHFILE@@XZ
_TEXT	SEGMENT
??Diterator@?$vector@UtagPATCHFILE@@V?$allocator@UtagPATCHFILE@@@std@@@std@@QBEAAUtagPATCHFILE@@XZ PROC NEAR ; std::vector<tagPATCHFILE,std::allocator<tagPATCHFILE> >::iterator::operator*, COMDAT
; _this$ = ecx

; 220  : 			return ((reference)**(const_iterator *)this);

  00000	8b 01		 mov	 eax, DWORD PTR [ecx]

; 221  : 			}

  00002	c3		 ret	 0
??Diterator@?$vector@UtagPATCHFILE@@V?$allocator@UtagPATCHFILE@@@std@@@std@@QBEAAUtagPATCHFILE@@XZ ENDP ; std::vector<tagPATCHFILE,std::allocator<tagPATCHFILE> >::iterator::operator*
_TEXT	ENDS
PUBLIC	??Hiterator@?$vector@UtagPATCHFILE@@V?$allocator@UtagPATCHFILE@@@std@@@std@@QBE?AV012@H@Z ; std::vector<tagPATCHFILE,std::allocator<tagPATCHFILE> >::iterator::operator+
; Function compile flags: /Ogty
;	COMDAT ??Hiterator@?$vector@UtagPATCHFILE@@V?$allocator@UtagPATCHFILE@@@std@@@std@@QBE?AV012@H@Z
_TEXT	SEGMENT
___$ReturnUdt$ = 8					; size = 4
__Off$ = 12						; size = 4
??Hiterator@?$vector@UtagPATCHFILE@@V?$allocator@UtagPATCHFILE@@@std@@@std@@QBE?AV012@H@Z PROC NEAR ; std::vector<tagPATCHFILE,std::allocator<tagPATCHFILE> >::iterator::operator+, COMDAT
; _this$ = ecx

; 262  : 			iterator _Tmp = *this;
; 263  : 			return (_Tmp += _Off);

  00000	8b 54 24 08	 mov	 edx, DWORD PTR __Off$[esp-4]
  00004	8b 01		 mov	 eax, DWORD PTR [ecx]
  00006	c1 e2 04	 shl	 edx, 4
  00009	03 d0		 add	 edx, eax
  0000b	8b 44 24 04	 mov	 eax, DWORD PTR ___$ReturnUdt$[esp-4]
  0000f	89 10		 mov	 DWORD PTR [eax], edx

; 264  : 			}

  00011	c2 08 00	 ret	 8
??Hiterator@?$vector@UtagPATCHFILE@@V?$allocator@UtagPATCHFILE@@@std@@@std@@QBE?AV012@H@Z ENDP ; std::vector<tagPATCHFILE,std::allocator<tagPATCHFILE> >::iterator::operator+
_TEXT	ENDS
PUBLIC	??0iterator@?$vector@UtagTCASHITEM@@V?$allocator@UtagTCASHITEM@@@std@@@std@@QAE@PAUtagTCASHITEM@@@Z ; std::vector<tagTCASHITEM,std::allocator<tagTCASHITEM> >::iterator::iterator
; Function compile flags: /Ogty
;	COMDAT ??0iterator@?$vector@UtagTCASHITEM@@V?$allocator@UtagTCASHITEM@@@std@@@std@@QAE@PAUtagTCASHITEM@@@Z
_TEXT	SEGMENT
__Ptr$ = 8						; size = 4
??0iterator@?$vector@UtagTCASHITEM@@V?$allocator@UtagTCASHITEM@@@std@@@std@@QAE@PAUtagTCASHITEM@@@Z PROC NEAR ; std::vector<tagTCASHITEM,std::allocator<tagTCASHITEM> >::iterator::iterator, COMDAT
; _this$ = ecx

; 215  : 			{	// construct with pointer _Ptr

  00000	8b c1		 mov	 eax, ecx
  00002	8b 4c 24 04	 mov	 ecx, DWORD PTR __Ptr$[esp-4]
  00006	89 08		 mov	 DWORD PTR [eax], ecx

; 216  : 			}

  00008	c2 04 00	 ret	 4
??0iterator@?$vector@UtagTCASHITEM@@V?$allocator@UtagTCASHITEM@@@std@@@std@@QAE@PAUtagTCASHITEM@@@Z ENDP ; std::vector<tagTCASHITEM,std::allocator<tagTCASHITEM> >::iterator::iterator
_TEXT	ENDS
PUBLIC	??0iterator@?$vector@UtagPATCHFILE@@V?$allocator@UtagPATCHFILE@@@std@@@std@@QAE@PAUtagPATCHFILE@@@Z ; std::vector<tagPATCHFILE,std::allocator<tagPATCHFILE> >::iterator::iterator
; Function compile flags: /Ogty
;	COMDAT ??0iterator@?$vector@UtagPATCHFILE@@V?$allocator@UtagPATCHFILE@@@std@@@std@@QAE@PAUtagPATCHFILE@@@Z
_TEXT	SEGMENT
__Ptr$ = 8						; size = 4
??0iterator@?$vector@UtagPATCHFILE@@V?$allocator@UtagPATCHFILE@@@std@@@std@@QAE@PAUtagPATCHFILE@@@Z PROC NEAR ; std::vector<tagPATCHFILE,std::allocator<tagPATCHFILE> >::iterator::iterator, COMDAT
; _this$ = ecx

; 215  : 			{	// construct with pointer _Ptr

  00000	8b c1		 mov	 eax, ecx
  00002	8b 4c 24 04	 mov	 ecx, DWORD PTR __Ptr$[esp-4]
  00006	89 08		 mov	 DWORD PTR [eax], ecx

; 216  : 			}

  00008	c2 04 00	 ret	 4
??0iterator@?$vector@UtagPATCHFILE@@V?$allocator@UtagPATCHFILE@@@std@@@std@@QAE@PAUtagPATCHFILE@@@Z ENDP ; std::vector<tagPATCHFILE,std::allocator<tagPATCHFILE> >::iterator::iterator
_TEXT	ENDS
PUBLIC	?_Inc@const_iterator@?$_Tree@V?$_Tmap_traits@EPAUtagTSVRTYPE@@U?$less@E@std@@V?$allocator@U?$pair@$$CBEPAUtagTSVRTYPE@@@std@@@3@$0A@@std@@@std@@QAEXXZ ; std::_Tree<std::_Tmap_traits<unsigned char,tagTSVRTYPE *,std::less<unsigned char>,std::allocator<std::pair<unsigned char const ,tagTSVRTYPE *> >,0> >::const_iterator::_Inc
; Function compile flags: /Ogty
; File c:\program files (x86)\microsoft visual studio .net 2003\vc7\include\xtree
;	COMDAT ?_Inc@const_iterator@?$_Tree@V?$_Tmap_traits@EPAUtagTSVRTYPE@@U?$less@E@std@@V?$allocator@U?$pair@$$CBEPAUtagTSVRTYPE@@@std@@@3@$0A@@std@@@std@@QAEXXZ
_TEXT	SEGMENT
?_Inc@const_iterator@?$_Tree@V?$_Tmap_traits@EPAUtagTSVRTYPE@@U?$less@E@std@@V?$allocator@U?$pair@$$CBEPAUtagTSVRTYPE@@@std@@@3@$0A@@std@@@std@@QAEXXZ PROC NEAR ; std::_Tree<std::_Tmap_traits<unsigned char,tagTSVRTYPE *,std::less<unsigned char>,std::allocator<std::pair<unsigned char const ,tagTSVRTYPE *> >,0> >::const_iterator::_Inc, COMDAT
; _this$ = ecx

; 268  : 			if (_Isnil(_Ptr))

  00000	8b 01		 mov	 eax, DWORD PTR [ecx]
  00002	8a 50 15	 mov	 dl, BYTE PTR [eax+21]
  00005	84 d2		 test	 dl, dl
  00007	75 4d		 jne	 SHORT $L92431

; 269  : 				;	// end() shouldn't be incremented, don't move
; 270  : 			else if (!_Isnil(_Right(_Ptr)))

  00009	8b 50 08	 mov	 edx, DWORD PTR [eax+8]
  0000c	53		 push	 ebx
  0000d	8a 5a 15	 mov	 bl, BYTE PTR [edx+21]
  00010	84 db		 test	 bl, bl
  00012	75 1b		 jne	 SHORT $L94238

; 271  : 				_Ptr = _Min(_Right(_Ptr));	// ==> smallest of right subtree

  00014	8b 02		 mov	 eax, DWORD PTR [edx]
  00016	8a 58 15	 mov	 bl, BYTE PTR [eax+21]
  00019	84 db		 test	 bl, bl
  0001b	75 0e		 jne	 SHORT $L94225
  0001d	8d 49 00	 npad	 3
$L94224:
  00020	8b d0		 mov	 edx, eax
  00022	8b 02		 mov	 eax, DWORD PTR [edx]
  00024	8a 58 15	 mov	 bl, BYTE PTR [eax+21]
  00027	84 db		 test	 bl, bl
  00029	74 f5		 je	 SHORT $L94224
$L94225:
  0002b	89 11		 mov	 DWORD PTR [ecx], edx
  0002d	5b		 pop	 ebx

; 279  : 				}
; 280  : 			}

  0002e	c3		 ret	 0
$L94238:

; 272  : 			else
; 273  : 				{	// climb looking for right subtree
; 274  : 				_Nodeptr _Pnode;
; 275  : 				while (!_Isnil(_Pnode = _Parent(_Ptr))
; 276  : 					&& _Ptr == _Right(_Pnode))

  0002f	8b 40 04	 mov	 eax, DWORD PTR [eax+4]
  00032	8a 50 15	 mov	 dl, BYTE PTR [eax+21]
  00035	84 d2		 test	 dl, dl
  00037	75 1a		 jne	 SHORT $L92435
  00039	8d a4 24 00 00
	00 00		 npad	 7
$L92434:
  00040	8b 11		 mov	 edx, DWORD PTR [ecx]
  00042	3b 50 08	 cmp	 edx, DWORD PTR [eax+8]
  00045	75 0c		 jne	 SHORT $L92435

; 277  : 					_Ptr = _Pnode;	// ==> parent while right subtree

  00047	89 01		 mov	 DWORD PTR [ecx], eax
  00049	8b 40 04	 mov	 eax, DWORD PTR [eax+4]
  0004c	8a 50 15	 mov	 dl, BYTE PTR [eax+21]
  0004f	84 d2		 test	 dl, dl
  00051	74 ed		 je	 SHORT $L92434
$L92435:

; 278  : 				_Ptr = _Pnode;	// ==> parent (head if end())

  00053	89 01		 mov	 DWORD PTR [ecx], eax
  00055	5b		 pop	 ebx
$L92431:

; 279  : 				}
; 280  : 			}

  00056	c3		 ret	 0
?_Inc@const_iterator@?$_Tree@V?$_Tmap_traits@EPAUtagTSVRTYPE@@U?$less@E@std@@V?$allocator@U?$pair@$$CBEPAUtagTSVRTYPE@@@std@@@3@$0A@@std@@@std@@QAEXXZ ENDP ; std::_Tree<std::_Tmap_traits<unsigned char,tagTSVRTYPE *,std::less<unsigned char>,std::allocator<std::pair<unsigned char const ,tagTSVRTYPE *> >,0> >::const_iterator::_Inc
_TEXT	ENDS
PUBLIC	?_Inc@const_iterator@?$_Tree@V?$_Tmap_traits@EPAUtagTMACHINE@@U?$less@E@std@@V?$allocator@U?$pair@$$CBEPAUtagTMACHINE@@@std@@@3@$0A@@std@@@std@@QAEXXZ ; std::_Tree<std::_Tmap_traits<unsigned char,tagTMACHINE *,std::less<unsigned char>,std::allocator<std::pair<unsigned char const ,tagTMACHINE *> >,0> >::const_iterator::_Inc
; Function compile flags: /Ogty
;	COMDAT ?_Inc@const_iterator@?$_Tree@V?$_Tmap_traits@EPAUtagTMACHINE@@U?$less@E@std@@V?$allocator@U?$pair@$$CBEPAUtagTMACHINE@@@std@@@3@$0A@@std@@@std@@QAEXXZ
_TEXT	SEGMENT
?_Inc@const_iterator@?$_Tree@V?$_Tmap_traits@EPAUtagTMACHINE@@U?$less@E@std@@V?$allocator@U?$pair@$$CBEPAUtagTMACHINE@@@std@@@3@$0A@@std@@@std@@QAEXXZ PROC NEAR ; std::_Tree<std::_Tmap_traits<unsigned char,tagTMACHINE *,std::less<unsigned char>,std::allocator<std::pair<unsigned char const ,tagTMACHINE *> >,0> >::const_iterator::_Inc, COMDAT
; _this$ = ecx

; 268  : 			if (_Isnil(_Ptr))

  00000	8b 01		 mov	 eax, DWORD PTR [ecx]
  00002	8a 50 15	 mov	 dl, BYTE PTR [eax+21]
  00005	84 d2		 test	 dl, dl
  00007	75 4d		 jne	 SHORT $L92441

; 269  : 				;	// end() shouldn't be incremented, don't move
; 270  : 			else if (!_Isnil(_Right(_Ptr)))

  00009	8b 50 08	 mov	 edx, DWORD PTR [eax+8]
  0000c	53		 push	 ebx
  0000d	8a 5a 15	 mov	 bl, BYTE PTR [edx+21]
  00010	84 db		 test	 bl, bl
  00012	75 1b		 jne	 SHORT $L94288

; 271  : 				_Ptr = _Min(_Right(_Ptr));	// ==> smallest of right subtree

  00014	8b 02		 mov	 eax, DWORD PTR [edx]
  00016	8a 58 15	 mov	 bl, BYTE PTR [eax+21]
  00019	84 db		 test	 bl, bl
  0001b	75 0e		 jne	 SHORT $L94276
  0001d	8d 49 00	 npad	 3
$L94275:
  00020	8b d0		 mov	 edx, eax
  00022	8b 02		 mov	 eax, DWORD PTR [edx]
  00024	8a 58 15	 mov	 bl, BYTE PTR [eax+21]
  00027	84 db		 test	 bl, bl
  00029	74 f5		 je	 SHORT $L94275
$L94276:
  0002b	89 11		 mov	 DWORD PTR [ecx], edx
  0002d	5b		 pop	 ebx

; 279  : 				}
; 280  : 			}

  0002e	c3		 ret	 0
$L94288:

; 272  : 			else
; 273  : 				{	// climb looking for right subtree
; 274  : 				_Nodeptr _Pnode;
; 275  : 				while (!_Isnil(_Pnode = _Parent(_Ptr))
; 276  : 					&& _Ptr == _Right(_Pnode))

  0002f	8b 40 04	 mov	 eax, DWORD PTR [eax+4]
  00032	8a 50 15	 mov	 dl, BYTE PTR [eax+21]
  00035	84 d2		 test	 dl, dl
  00037	75 1a		 jne	 SHORT $L92445
  00039	8d a4 24 00 00
	00 00		 npad	 7
$L92444:
  00040	8b 11		 mov	 edx, DWORD PTR [ecx]
  00042	3b 50 08	 cmp	 edx, DWORD PTR [eax+8]
  00045	75 0c		 jne	 SHORT $L92445

; 277  : 					_Ptr = _Pnode;	// ==> parent while right subtree

  00047	89 01		 mov	 DWORD PTR [ecx], eax
  00049	8b 40 04	 mov	 eax, DWORD PTR [eax+4]
  0004c	8a 50 15	 mov	 dl, BYTE PTR [eax+21]
  0004f	84 d2		 test	 dl, dl
  00051	74 ed		 je	 SHORT $L92444
$L92445:

; 278  : 				_Ptr = _Pnode;	// ==> parent (head if end())

  00053	89 01		 mov	 DWORD PTR [ecx], eax
  00055	5b		 pop	 ebx
$L92441:

; 279  : 				}
; 280  : 			}

  00056	c3		 ret	 0
?_Inc@const_iterator@?$_Tree@V?$_Tmap_traits@EPAUtagTMACHINE@@U?$less@E@std@@V?$allocator@U?$pair@$$CBEPAUtagTMACHINE@@@std@@@3@$0A@@std@@@std@@QAEXXZ ENDP ; std::_Tree<std::_Tmap_traits<unsigned char,tagTMACHINE *,std::less<unsigned char>,std::allocator<std::pair<unsigned char const ,tagTMACHINE *> >,0> >::const_iterator::_Inc
_TEXT	ENDS
PUBLIC	?_Inc@const_iterator@?$_Tree@V?$_Tmap_traits@EPAUtagTGROUP@@U?$less@E@std@@V?$allocator@U?$pair@$$CBEPAUtagTGROUP@@@std@@@3@$0A@@std@@@std@@QAEXXZ ; std::_Tree<std::_Tmap_traits<unsigned char,tagTGROUP *,std::less<unsigned char>,std::allocator<std::pair<unsigned char const ,tagTGROUP *> >,0> >::const_iterator::_Inc
; Function compile flags: /Ogty
;	COMDAT ?_Inc@const_iterator@?$_Tree@V?$_Tmap_traits@EPAUtagTGROUP@@U?$less@E@std@@V?$allocator@U?$pair@$$CBEPAUtagTGROUP@@@std@@@3@$0A@@std@@@std@@QAEXXZ
_TEXT	SEGMENT
?_Inc@const_iterator@?$_Tree@V?$_Tmap_traits@EPAUtagTGROUP@@U?$less@E@std@@V?$allocator@U?$pair@$$CBEPAUtagTGROUP@@@std@@@3@$0A@@std@@@std@@QAEXXZ PROC NEAR ; std::_Tree<std::_Tmap_traits<unsigned char,tagTGROUP *,std::less<unsigned char>,std::allocator<std::pair<unsigned char const ,tagTGROUP *> >,0> >::const_iterator::_Inc, COMDAT
; _this$ = ecx

; 268  : 			if (_Isnil(_Ptr))

  00000	8b 01		 mov	 eax, DWORD PTR [ecx]
  00002	8a 50 15	 mov	 dl, BYTE PTR [eax+21]
  00005	84 d2		 test	 dl, dl
  00007	75 4d		 jne	 SHORT $L92451

; 269  : 				;	// end() shouldn't be incremented, don't move
; 270  : 			else if (!_Isnil(_Right(_Ptr)))

  00009	8b 50 08	 mov	 edx, DWORD PTR [eax+8]
  0000c	53		 push	 ebx
  0000d	8a 5a 15	 mov	 bl, BYTE PTR [edx+21]
  00010	84 db		 test	 bl, bl
  00012	75 1b		 jne	 SHORT $L94338

; 271  : 				_Ptr = _Min(_Right(_Ptr));	// ==> smallest of right subtree

  00014	8b 02		 mov	 eax, DWORD PTR [edx]
  00016	8a 58 15	 mov	 bl, BYTE PTR [eax+21]
  00019	84 db		 test	 bl, bl
  0001b	75 0e		 jne	 SHORT $L94326
  0001d	8d 49 00	 npad	 3
$L94325:
  00020	8b d0		 mov	 edx, eax
  00022	8b 02		 mov	 eax, DWORD PTR [edx]
  00024	8a 58 15	 mov	 bl, BYTE PTR [eax+21]
  00027	84 db		 test	 bl, bl
  00029	74 f5		 je	 SHORT $L94325
$L94326:
  0002b	89 11		 mov	 DWORD PTR [ecx], edx
  0002d	5b		 pop	 ebx

; 279  : 				}
; 280  : 			}

  0002e	c3		 ret	 0
$L94338:

; 272  : 			else
; 273  : 				{	// climb looking for right subtree
; 274  : 				_Nodeptr _Pnode;
; 275  : 				while (!_Isnil(_Pnode = _Parent(_Ptr))
; 276  : 					&& _Ptr == _Right(_Pnode))

  0002f	8b 40 04	 mov	 eax, DWORD PTR [eax+4]
  00032	8a 50 15	 mov	 dl, BYTE PTR [eax+21]
  00035	84 d2		 test	 dl, dl
  00037	75 1a		 jne	 SHORT $L92455
  00039	8d a4 24 00 00
	00 00		 npad	 7
$L92454:
  00040	8b 11		 mov	 edx, DWORD PTR [ecx]
  00042	3b 50 08	 cmp	 edx, DWORD PTR [eax+8]
  00045	75 0c		 jne	 SHORT $L92455

; 277  : 					_Ptr = _Pnode;	// ==> parent while right subtree

  00047	89 01		 mov	 DWORD PTR [ecx], eax
  00049	8b 40 04	 mov	 eax, DWORD PTR [eax+4]
  0004c	8a 50 15	 mov	 dl, BYTE PTR [eax+21]
  0004f	84 d2		 test	 dl, dl
  00051	74 ed		 je	 SHORT $L92454
$L92455:

; 278  : 				_Ptr = _Pnode;	// ==> parent (head if end())

  00053	89 01		 mov	 DWORD PTR [ecx], eax
  00055	5b		 pop	 ebx
$L92451:

; 279  : 				}
; 280  : 			}

  00056	c3		 ret	 0
?_Inc@const_iterator@?$_Tree@V?$_Tmap_traits@EPAUtagTGROUP@@U?$less@E@std@@V?$allocator@U?$pair@$$CBEPAUtagTGROUP@@@std@@@3@$0A@@std@@@std@@QAEXXZ ENDP ; std::_Tree<std::_Tmap_traits<unsigned char,tagTGROUP *,std::less<unsigned char>,std::allocator<std::pair<unsigned char const ,tagTGROUP *> >,0> >::const_iterator::_Inc
_TEXT	ENDS
PUBLIC	?_Inc@const_iterator@?$_Tree@V?$_Tmap_traits@KPAUtagTSVRTEMP@@U?$less@K@std@@V?$allocator@U?$pair@$$CBKPAUtagTSVRTEMP@@@std@@@3@$0A@@std@@@std@@QAEXXZ ; std::_Tree<std::_Tmap_traits<unsigned long,tagTSVRTEMP *,std::less<unsigned long>,std::allocator<std::pair<unsigned long const ,tagTSVRTEMP *> >,0> >::const_iterator::_Inc
; Function compile flags: /Ogty
;	COMDAT ?_Inc@const_iterator@?$_Tree@V?$_Tmap_traits@KPAUtagTSVRTEMP@@U?$less@K@std@@V?$allocator@U?$pair@$$CBKPAUtagTSVRTEMP@@@std@@@3@$0A@@std@@@std@@QAEXXZ
_TEXT	SEGMENT
?_Inc@const_iterator@?$_Tree@V?$_Tmap_traits@KPAUtagTSVRTEMP@@U?$less@K@std@@V?$allocator@U?$pair@$$CBKPAUtagTSVRTEMP@@@std@@@3@$0A@@std@@@std@@QAEXXZ PROC NEAR ; std::_Tree<std::_Tmap_traits<unsigned long,tagTSVRTEMP *,std::less<unsigned long>,std::allocator<std::pair<unsigned long const ,tagTSVRTEMP *> >,0> >::const_iterator::_Inc, COMDAT
; _this$ = ecx

; 268  : 			if (_Isnil(_Ptr))

  00000	8b 01		 mov	 eax, DWORD PTR [ecx]
  00002	8a 50 15	 mov	 dl, BYTE PTR [eax+21]
  00005	84 d2		 test	 dl, dl
  00007	75 4d		 jne	 SHORT $L92461

; 269  : 				;	// end() shouldn't be incremented, don't move
; 270  : 			else if (!_Isnil(_Right(_Ptr)))

  00009	8b 50 08	 mov	 edx, DWORD PTR [eax+8]
  0000c	53		 push	 ebx
  0000d	8a 5a 15	 mov	 bl, BYTE PTR [edx+21]
  00010	84 db		 test	 bl, bl
  00012	75 1b		 jne	 SHORT $L94388

; 271  : 				_Ptr = _Min(_Right(_Ptr));	// ==> smallest of right subtree

  00014	8b 02		 mov	 eax, DWORD PTR [edx]
  00016	8a 58 15	 mov	 bl, BYTE PTR [eax+21]
  00019	84 db		 test	 bl, bl
  0001b	75 0e		 jne	 SHORT $L94376
  0001d	8d 49 00	 npad	 3
$L94375:
  00020	8b d0		 mov	 edx, eax
  00022	8b 02		 mov	 eax, DWORD PTR [edx]
  00024	8a 58 15	 mov	 bl, BYTE PTR [eax+21]
  00027	84 db		 test	 bl, bl
  00029	74 f5		 je	 SHORT $L94375
$L94376:
  0002b	89 11		 mov	 DWORD PTR [ecx], edx
  0002d	5b		 pop	 ebx

; 279  : 				}
; 280  : 			}

  0002e	c3		 ret	 0
$L94388:

; 272  : 			else
; 273  : 				{	// climb looking for right subtree
; 274  : 				_Nodeptr _Pnode;
; 275  : 				while (!_Isnil(_Pnode = _Parent(_Ptr))
; 276  : 					&& _Ptr == _Right(_Pnode))

  0002f	8b 40 04	 mov	 eax, DWORD PTR [eax+4]
  00032	8a 50 15	 mov	 dl, BYTE PTR [eax+21]
  00035	84 d2		 test	 dl, dl
  00037	75 1a		 jne	 SHORT $L92465
  00039	8d a4 24 00 00
	00 00		 npad	 7
$L92464:
  00040	8b 11		 mov	 edx, DWORD PTR [ecx]
  00042	3b 50 08	 cmp	 edx, DWORD PTR [eax+8]
  00045	75 0c		 jne	 SHORT $L92465

; 277  : 					_Ptr = _Pnode;	// ==> parent while right subtree

  00047	89 01		 mov	 DWORD PTR [ecx], eax
  00049	8b 40 04	 mov	 eax, DWORD PTR [eax+4]
  0004c	8a 50 15	 mov	 dl, BYTE PTR [eax+21]
  0004f	84 d2		 test	 dl, dl
  00051	74 ed		 je	 SHORT $L92464
$L92465:

; 278  : 				_Ptr = _Pnode;	// ==> parent (head if end())

  00053	89 01		 mov	 DWORD PTR [ecx], eax
  00055	5b		 pop	 ebx
$L92461:

; 279  : 				}
; 280  : 			}

  00056	c3		 ret	 0
?_Inc@const_iterator@?$_Tree@V?$_Tmap_traits@KPAUtagTSVRTEMP@@U?$less@K@std@@V?$allocator@U?$pair@$$CBKPAUtagTSVRTEMP@@@std@@@3@$0A@@std@@@std@@QAEXXZ ENDP ; std::_Tree<std::_Tmap_traits<unsigned long,tagTSVRTEMP *,std::less<unsigned long>,std::allocator<std::pair<unsigned long const ,tagTSVRTEMP *> >,0> >::const_iterator::_Inc
_TEXT	ENDS
PUBLIC	?_Inc@const_iterator@?$_Tree@V?$_Tmap_traits@KPAUtagBANINFO@@U?$less@K@std@@V?$allocator@U?$pair@$$CBKPAUtagBANINFO@@@std@@@3@$0A@@std@@@std@@QAEXXZ ; std::_Tree<std::_Tmap_traits<unsigned long,tagBANINFO *,std::less<unsigned long>,std::allocator<std::pair<unsigned long const ,tagBANINFO *> >,0> >::const_iterator::_Inc
; Function compile flags: /Ogty
;	COMDAT ?_Inc@const_iterator@?$_Tree@V?$_Tmap_traits@KPAUtagBANINFO@@U?$less@K@std@@V?$allocator@U?$pair@$$CBKPAUtagBANINFO@@@std@@@3@$0A@@std@@@std@@QAEXXZ
_TEXT	SEGMENT
?_Inc@const_iterator@?$_Tree@V?$_Tmap_traits@KPAUtagBANINFO@@U?$less@K@std@@V?$allocator@U?$pair@$$CBKPAUtagBANINFO@@@std@@@3@$0A@@std@@@std@@QAEXXZ PROC NEAR ; std::_Tree<std::_Tmap_traits<unsigned long,tagBANINFO *,std::less<unsigned long>,std::allocator<std::pair<unsigned long const ,tagBANINFO *> >,0> >::const_iterator::_Inc, COMDAT
; _this$ = ecx

; 268  : 			if (_Isnil(_Ptr))

  00000	8b 01		 mov	 eax, DWORD PTR [ecx]
  00002	8a 50 15	 mov	 dl, BYTE PTR [eax+21]
  00005	84 d2		 test	 dl, dl
  00007	75 4d		 jne	 SHORT $L92471

; 269  : 				;	// end() shouldn't be incremented, don't move
; 270  : 			else if (!_Isnil(_Right(_Ptr)))

  00009	8b 50 08	 mov	 edx, DWORD PTR [eax+8]
  0000c	53		 push	 ebx
  0000d	8a 5a 15	 mov	 bl, BYTE PTR [edx+21]
  00010	84 db		 test	 bl, bl
  00012	75 1b		 jne	 SHORT $L94438

; 271  : 				_Ptr = _Min(_Right(_Ptr));	// ==> smallest of right subtree

  00014	8b 02		 mov	 eax, DWORD PTR [edx]
  00016	8a 58 15	 mov	 bl, BYTE PTR [eax+21]
  00019	84 db		 test	 bl, bl
  0001b	75 0e		 jne	 SHORT $L94426
  0001d	8d 49 00	 npad	 3
$L94425:
  00020	8b d0		 mov	 edx, eax
  00022	8b 02		 mov	 eax, DWORD PTR [edx]
  00024	8a 58 15	 mov	 bl, BYTE PTR [eax+21]
  00027	84 db		 test	 bl, bl
  00029	74 f5		 je	 SHORT $L94425
$L94426:
  0002b	89 11		 mov	 DWORD PTR [ecx], edx
  0002d	5b		 pop	 ebx

; 279  : 				}
; 280  : 			}

  0002e	c3		 ret	 0
$L94438:

; 272  : 			else
; 273  : 				{	// climb looking for right subtree
; 274  : 				_Nodeptr _Pnode;
; 275  : 				while (!_Isnil(_Pnode = _Parent(_Ptr))
; 276  : 					&& _Ptr == _Right(_Pnode))

  0002f	8b 40 04	 mov	 eax, DWORD PTR [eax+4]
  00032	8a 50 15	 mov	 dl, BYTE PTR [eax+21]
  00035	84 d2		 test	 dl, dl
  00037	75 1a		 jne	 SHORT $L92475
  00039	8d a4 24 00 00
	00 00		 npad	 7
$L92474:
  00040	8b 11		 mov	 edx, DWORD PTR [ecx]
  00042	3b 50 08	 cmp	 edx, DWORD PTR [eax+8]
  00045	75 0c		 jne	 SHORT $L92475

; 277  : 					_Ptr = _Pnode;	// ==> parent while right subtree

  00047	89 01		 mov	 DWORD PTR [ecx], eax
  00049	8b 40 04	 mov	 eax, DWORD PTR [eax+4]
  0004c	8a 50 15	 mov	 dl, BYTE PTR [eax+21]
  0004f	84 d2		 test	 dl, dl
  00051	74 ed		 je	 SHORT $L92474
$L92475:

; 278  : 				_Ptr = _Pnode;	// ==> parent (head if end())

  00053	89 01		 mov	 DWORD PTR [ecx], eax
  00055	5b		 pop	 ebx
$L92471:

; 279  : 				}
; 280  : 			}

  00056	c3		 ret	 0
?_Inc@const_iterator@?$_Tree@V?$_Tmap_traits@KPAUtagBANINFO@@U?$less@K@std@@V?$allocator@U?$pair@$$CBKPAUtagBANINFO@@@std@@@3@$0A@@std@@@std@@QAEXXZ ENDP ; std::_Tree<std::_Tmap_traits<unsigned long,tagBANINFO *,std::less<unsigned long>,std::allocator<std::pair<unsigned long const ,tagBANINFO *> >,0> >::const_iterator::_Inc
_TEXT	ENDS
PUBLIC	?_Inc@const_iterator@?$_Tree@V?$_Tmap_traits@KUtagEVENTINFO@@U?$less@K@std@@V?$allocator@U?$pair@$$CBKUtagEVENTINFO@@@std@@@3@$0A@@std@@@std@@QAEXXZ ; std::_Tree<std::_Tmap_traits<unsigned long,tagEVENTINFO,std::less<unsigned long>,std::allocator<std::pair<unsigned long const ,tagEVENTINFO> >,0> >::const_iterator::_Inc
; Function compile flags: /Ogty
;	COMDAT ?_Inc@const_iterator@?$_Tree@V?$_Tmap_traits@KUtagEVENTINFO@@U?$less@K@std@@V?$allocator@U?$pair@$$CBKUtagEVENTINFO@@@std@@@3@$0A@@std@@@std@@QAEXXZ
_TEXT	SEGMENT
?_Inc@const_iterator@?$_Tree@V?$_Tmap_traits@KUtagEVENTINFO@@U?$less@K@std@@V?$allocator@U?$pair@$$CBKUtagEVENTINFO@@@std@@@3@$0A@@std@@@std@@QAEXXZ PROC NEAR ; std::_Tree<std::_Tmap_traits<unsigned long,tagEVENTINFO,std::less<unsigned long>,std::allocator<std::pair<unsigned long const ,tagEVENTINFO> >,0> >::const_iterator::_Inc, COMDAT
; _this$ = ecx

; 268  : 			if (_Isnil(_Ptr))

  00000	8b 01		 mov	 eax, DWORD PTR [ecx]
  00002	8a 90 a1 00 00
	00		 mov	 dl, BYTE PTR [eax+161]
  00008	84 d2		 test	 dl, dl
  0000a	75 52		 jne	 SHORT $L92481

; 269  : 				;	// end() shouldn't be incremented, don't move
; 270  : 			else if (!_Isnil(_Right(_Ptr)))

  0000c	8b 50 08	 mov	 edx, DWORD PTR [eax+8]
  0000f	53		 push	 ebx
  00010	8a 9a a1 00 00
	00		 mov	 bl, BYTE PTR [edx+161]
  00016	84 db		 test	 bl, bl
  00018	75 1e		 jne	 SHORT $L94488

; 271  : 				_Ptr = _Min(_Right(_Ptr));	// ==> smallest of right subtree

  0001a	8b 02		 mov	 eax, DWORD PTR [edx]
  0001c	8a 98 a1 00 00
	00		 mov	 bl, BYTE PTR [eax+161]
  00022	84 db		 test	 bl, bl
  00024	75 0e		 jne	 SHORT $L94476
$L94475:
  00026	8b d0		 mov	 edx, eax
  00028	8b 02		 mov	 eax, DWORD PTR [edx]
  0002a	8a 98 a1 00 00
	00		 mov	 bl, BYTE PTR [eax+161]
  00030	84 db		 test	 bl, bl
  00032	74 f2		 je	 SHORT $L94475
$L94476:
  00034	89 11		 mov	 DWORD PTR [ecx], edx
  00036	5b		 pop	 ebx

; 279  : 				}
; 280  : 			}

  00037	c3		 ret	 0
$L94488:

; 272  : 			else
; 273  : 				{	// climb looking for right subtree
; 274  : 				_Nodeptr _Pnode;
; 275  : 				while (!_Isnil(_Pnode = _Parent(_Ptr))
; 276  : 					&& _Ptr == _Right(_Pnode))

  00038	8b 40 04	 mov	 eax, DWORD PTR [eax+4]
  0003b	8a 90 a1 00 00
	00		 mov	 dl, BYTE PTR [eax+161]
  00041	84 d2		 test	 dl, dl
  00043	75 16		 jne	 SHORT $L92485
$L92484:
  00045	8b 11		 mov	 edx, DWORD PTR [ecx]
  00047	3b 50 08	 cmp	 edx, DWORD PTR [eax+8]
  0004a	75 0f		 jne	 SHORT $L92485

; 277  : 					_Ptr = _Pnode;	// ==> parent while right subtree

  0004c	89 01		 mov	 DWORD PTR [ecx], eax
  0004e	8b 40 04	 mov	 eax, DWORD PTR [eax+4]
  00051	8a 90 a1 00 00
	00		 mov	 dl, BYTE PTR [eax+161]
  00057	84 d2		 test	 dl, dl
  00059	74 ea		 je	 SHORT $L92484
$L92485:

; 278  : 				_Ptr = _Pnode;	// ==> parent (head if end())

  0005b	89 01		 mov	 DWORD PTR [ecx], eax
  0005d	5b		 pop	 ebx
$L92481:

; 279  : 				}
; 280  : 			}

  0005e	c3		 ret	 0
?_Inc@const_iterator@?$_Tree@V?$_Tmap_traits@KUtagEVENTINFO@@U?$less@K@std@@V?$allocator@U?$pair@$$CBKUtagEVENTINFO@@@std@@@3@$0A@@std@@@std@@QAEXXZ ENDP ; std::_Tree<std::_Tmap_traits<unsigned long,tagEVENTINFO,std::less<unsigned long>,std::allocator<std::pair<unsigned long const ,tagEVENTINFO> >,0> >::const_iterator::_Inc
_TEXT	ENDS
PUBLIC	??1?$CSimpleStringT@D$0A@@ATL@@QAE@XZ		; ATL::CSimpleStringT<char,0>::~CSimpleStringT<char,0>
; Function compile flags: /Ogty
; File c:\program files (x86)\microsoft visual studio .net 2003\vc7\atlmfc\include\atlsimpstr.h
;	COMDAT ??1?$CSimpleStringT@D$0A@@ATL@@QAE@XZ
_TEXT	SEGMENT
??1?$CSimpleStringT@D$0A@@ATL@@QAE@XZ PROC NEAR		; ATL::CSimpleStringT<char,0>::~CSimpleStringT<char,0>, COMDAT
; _this$ = ecx

; 263  : 		CStringData* pData = GetData();

  00000	8b 01		 mov	 eax, DWORD PTR [ecx]
  00002	83 e8 10	 sub	 eax, 16			; 00000010H

; 264  : 		pData->Release();

  00005	8d 48 0c	 lea	 ecx, DWORD PTR [eax+12]
  00008	83 ca ff	 or	 edx, -1
  0000b	f0 0f c1 11	 lock	  xadd	 DWORD PTR [ecx], edx
  0000f	4a		 dec	 edx
  00010	85 d2		 test	 edx, edx
  00012	7f 08		 jg	 SHORT $L94500
  00014	8b 08		 mov	 ecx, DWORD PTR [eax]
  00016	8b 11		 mov	 edx, DWORD PTR [ecx]
  00018	50		 push	 eax
  00019	ff 52 04	 call	 DWORD PTR [edx+4]
$L94500:

; 265  : 	}

  0001c	c3		 ret	 0
??1?$CSimpleStringT@D$0A@@ATL@@QAE@XZ ENDP		; ATL::CSimpleStringT<char,0>::~CSimpleStringT<char,0>
_TEXT	ENDS
PUBLIC	??0?$_String_val@DV?$allocator@D@std@@@std@@IAE@V?$allocator@D@1@@Z ; std::_String_val<char,std::allocator<char> >::_String_val<char,std::allocator<char> >
; Function compile flags: /Ogty
; File c:\program files (x86)\microsoft visual studio .net 2003\vc7\include\xstring
;	COMDAT ??0?$_String_val@DV?$allocator@D@std@@@std@@IAE@V?$allocator@D@1@@Z
_TEXT	SEGMENT
__Al$ = 8						; size = 1
??0?$_String_val@DV?$allocator@D@std@@@std@@IAE@V?$allocator@D@1@@Z PROC NEAR ; std::_String_val<char,std::allocator<char> >::_String_val<char,std::allocator<char> >, COMDAT
; _this$ = ecx

; 34   : 		{	// construct allocator from _Al

  00000	8b c1		 mov	 eax, ecx

; 35   : 		}

  00002	c2 04 00	 ret	 4
??0?$_String_val@DV?$allocator@D@std@@@std@@IAE@V?$allocator@D@1@@Z ENDP ; std::_String_val<char,std::allocator<char> >::_String_val<char,std::allocator<char> >
_TEXT	ENDS
PUBLIC	??Diterator@?$vector@GV?$allocator@G@std@@@std@@QBEAAGXZ ; std::vector<unsigned short,std::allocator<unsigned short> >::iterator::operator*
; Function compile flags: /Ogty
; File c:\program files (x86)\microsoft visual studio .net 2003\vc7\include\vector
;	COMDAT ??Diterator@?$vector@GV?$allocator@G@std@@@std@@QBEAAGXZ
_TEXT	SEGMENT
??Diterator@?$vector@GV?$allocator@G@std@@@std@@QBEAAGXZ PROC NEAR ; std::vector<unsigned short,std::allocator<unsigned short> >::iterator::operator*, COMDAT
; _this$ = ecx

; 220  : 			return ((reference)**(const_iterator *)this);

  00000	8b 01		 mov	 eax, DWORD PTR [ecx]

; 221  : 			}

  00002	c3		 ret	 0
??Diterator@?$vector@GV?$allocator@G@std@@@std@@QBEAAGXZ ENDP ; std::vector<unsigned short,std::allocator<unsigned short> >::iterator::operator*
_TEXT	ENDS
PUBLIC	??Hiterator@?$vector@GV?$allocator@G@std@@@std@@QBE?AV012@H@Z ; std::vector<unsigned short,std::allocator<unsigned short> >::iterator::operator+
; Function compile flags: /Ogty
;	COMDAT ??Hiterator@?$vector@GV?$allocator@G@std@@@std@@QBE?AV012@H@Z
_TEXT	SEGMENT
___$ReturnUdt$ = 8					; size = 4
__Off$ = 12						; size = 4
??Hiterator@?$vector@GV?$allocator@G@std@@@std@@QBE?AV012@H@Z PROC NEAR ; std::vector<unsigned short,std::allocator<unsigned short> >::iterator::operator+, COMDAT
; _this$ = ecx

; 262  : 			iterator _Tmp = *this;
; 263  : 			return (_Tmp += _Off);

  00000	8b 01		 mov	 eax, DWORD PTR [ecx]
  00002	8b 4c 24 08	 mov	 ecx, DWORD PTR __Off$[esp-4]
  00006	8d 14 48	 lea	 edx, DWORD PTR [eax+ecx*2]
  00009	8b 44 24 04	 mov	 eax, DWORD PTR ___$ReturnUdt$[esp-4]
  0000d	89 10		 mov	 DWORD PTR [eax], edx

; 264  : 			}

  0000f	c2 08 00	 ret	 8
??Hiterator@?$vector@GV?$allocator@G@std@@@std@@QBE?AV012@H@Z ENDP ; std::vector<unsigned short,std::allocator<unsigned short> >::iterator::operator+
_TEXT	ENDS
PUBLIC	??Diterator@?$vector@UtagTCASHITEMSALE@@V?$allocator@UtagTCASHITEMSALE@@@std@@@std@@QBEAAUtagTCASHITEMSALE@@XZ ; std::vector<tagTCASHITEMSALE,std::allocator<tagTCASHITEMSALE> >::iterator::operator*
; Function compile flags: /Ogty
;	COMDAT ??Diterator@?$vector@UtagTCASHITEMSALE@@V?$allocator@UtagTCASHITEMSALE@@@std@@@std@@QBEAAUtagTCASHITEMSALE@@XZ
_TEXT	SEGMENT
??Diterator@?$vector@UtagTCASHITEMSALE@@V?$allocator@UtagTCASHITEMSALE@@@std@@@std@@QBEAAUtagTCASHITEMSALE@@XZ PROC NEAR ; std::vector<tagTCASHITEMSALE,std::allocator<tagTCASHITEMSALE> >::iterator::operator*, COMDAT
; _this$ = ecx

; 220  : 			return ((reference)**(const_iterator *)this);

  00000	8b 01		 mov	 eax, DWORD PTR [ecx]

; 221  : 			}

  00002	c3		 ret	 0
??Diterator@?$vector@UtagTCASHITEMSALE@@V?$allocator@UtagTCASHITEMSALE@@@std@@@std@@QBEAAUtagTCASHITEMSALE@@XZ ENDP ; std::vector<tagTCASHITEMSALE,std::allocator<tagTCASHITEMSALE> >::iterator::operator*
_TEXT	ENDS
PUBLIC	??Hiterator@?$vector@UtagTCASHITEMSALE@@V?$allocator@UtagTCASHITEMSALE@@@std@@@std@@QBE?AV012@H@Z ; std::vector<tagTCASHITEMSALE,std::allocator<tagTCASHITEMSALE> >::iterator::operator+
; Function compile flags: /Ogty
;	COMDAT ??Hiterator@?$vector@UtagTCASHITEMSALE@@V?$allocator@UtagTCASHITEMSALE@@@std@@@std@@QBE?AV012@H@Z
_TEXT	SEGMENT
___$ReturnUdt$ = 8					; size = 4
__Off$ = 12						; size = 4
??Hiterator@?$vector@UtagTCASHITEMSALE@@V?$allocator@UtagTCASHITEMSALE@@@std@@@std@@QBE?AV012@H@Z PROC NEAR ; std::vector<tagTCASHITEMSALE,std::allocator<tagTCASHITEMSALE> >::iterator::operator+, COMDAT
; _this$ = ecx

; 262  : 			iterator _Tmp = *this;
; 263  : 			return (_Tmp += _Off);

  00000	8b 01		 mov	 eax, DWORD PTR [ecx]
  00002	8b 4c 24 08	 mov	 ecx, DWORD PTR __Off$[esp-4]
  00006	8d 14 88	 lea	 edx, DWORD PTR [eax+ecx*4]
  00009	8b 44 24 04	 mov	 eax, DWORD PTR ___$ReturnUdt$[esp-4]
  0000d	89 10		 mov	 DWORD PTR [eax], edx

; 264  : 			}

  0000f	c2 08 00	 ret	 8
??Hiterator@?$vector@UtagTCASHITEMSALE@@V?$allocator@UtagTCASHITEMSALE@@@std@@@std@@QBE?AV012@H@Z ENDP ; std::vector<tagTCASHITEMSALE,std::allocator<tagTCASHITEMSALE> >::iterator::operator+
_TEXT	ENDS
PUBLIC	??Diterator@?$vector@UtagMONREGEN@@V?$allocator@UtagMONREGEN@@@std@@@std@@QBEAAUtagMONREGEN@@XZ ; std::vector<tagMONREGEN,std::allocator<tagMONREGEN> >::iterator::operator*
; Function compile flags: /Ogty
;	COMDAT ??Diterator@?$vector@UtagMONREGEN@@V?$allocator@UtagMONREGEN@@@std@@@std@@QBEAAUtagMONREGEN@@XZ
_TEXT	SEGMENT
??Diterator@?$vector@UtagMONREGEN@@V?$allocator@UtagMONREGEN@@@std@@@std@@QBEAAUtagMONREGEN@@XZ PROC NEAR ; std::vector<tagMONREGEN,std::allocator<tagMONREGEN> >::iterator::operator*, COMDAT
; _this$ = ecx

; 220  : 			return ((reference)**(const_iterator *)this);

  00000	8b 01		 mov	 eax, DWORD PTR [ecx]

; 221  : 			}

  00002	c3		 ret	 0
??Diterator@?$vector@UtagMONREGEN@@V?$allocator@UtagMONREGEN@@@std@@@std@@QBEAAUtagMONREGEN@@XZ ENDP ; std::vector<tagMONREGEN,std::allocator<tagMONREGEN> >::iterator::operator*
_TEXT	ENDS
PUBLIC	??Hiterator@?$vector@UtagMONREGEN@@V?$allocator@UtagMONREGEN@@@std@@@std@@QBE?AV012@H@Z ; std::vector<tagMONREGEN,std::allocator<tagMONREGEN> >::iterator::operator+
; Function compile flags: /Ogty
;	COMDAT ??Hiterator@?$vector@UtagMONREGEN@@V?$allocator@UtagMONREGEN@@@std@@@std@@QBE?AV012@H@Z
_TEXT	SEGMENT
___$ReturnUdt$ = 8					; size = 4
__Off$ = 12						; size = 4
??Hiterator@?$vector@UtagMONREGEN@@V?$allocator@UtagMONREGEN@@@std@@@std@@QBE?AV012@H@Z PROC NEAR ; std::vector<tagMONREGEN,std::allocator<tagMONREGEN> >::iterator::operator+, COMDAT
; _this$ = ecx

; 262  : 			iterator _Tmp = *this;
; 263  : 			return (_Tmp += _Off);

  00000	8b 44 24 08	 mov	 eax, DWORD PTR __Off$[esp-4]
  00004	8b 09		 mov	 ecx, DWORD PTR [ecx]
  00006	8d 04 40	 lea	 eax, DWORD PTR [eax+eax*2]
  00009	8d 14 c1	 lea	 edx, DWORD PTR [ecx+eax*8]
  0000c	8b 44 24 04	 mov	 eax, DWORD PTR ___$ReturnUdt$[esp-4]
  00010	89 10		 mov	 DWORD PTR [eax], edx

; 264  : 			}

  00012	c2 08 00	 ret	 8
??Hiterator@?$vector@UtagMONREGEN@@V?$allocator@UtagMONREGEN@@@std@@@std@@QBE?AV012@H@Z ENDP ; std::vector<tagMONREGEN,std::allocator<tagMONREGEN> >::iterator::operator+
_TEXT	ENDS
PUBLIC	??Diterator@?$vector@UtagLOTTERY@@V?$allocator@UtagLOTTERY@@@std@@@std@@QBEAAUtagLOTTERY@@XZ ; std::vector<tagLOTTERY,std::allocator<tagLOTTERY> >::iterator::operator*
; Function compile flags: /Ogty
;	COMDAT ??Diterator@?$vector@UtagLOTTERY@@V?$allocator@UtagLOTTERY@@@std@@@std@@QBEAAUtagLOTTERY@@XZ
_TEXT	SEGMENT
??Diterator@?$vector@UtagLOTTERY@@V?$allocator@UtagLOTTERY@@@std@@@std@@QBEAAUtagLOTTERY@@XZ PROC NEAR ; std::vector<tagLOTTERY,std::allocator<tagLOTTERY> >::iterator::operator*, COMDAT
; _this$ = ecx

; 220  : 			return ((reference)**(const_iterator *)this);

  00000	8b 01		 mov	 eax, DWORD PTR [ecx]

; 221  : 			}

  00002	c3		 ret	 0
??Diterator@?$vector@UtagLOTTERY@@V?$allocator@UtagLOTTERY@@@std@@@std@@QBEAAUtagLOTTERY@@XZ ENDP ; std::vector<tagLOTTERY,std::allocator<tagLOTTERY> >::iterator::operator*
_TEXT	ENDS
PUBLIC	??Hiterator@?$vector@UtagLOTTERY@@V?$allocator@UtagLOTTERY@@@std@@@std@@QBE?AV012@H@Z ; std::vector<tagLOTTERY,std::allocator<tagLOTTERY> >::iterator::operator+
; Function compile flags: /Ogty
;	COMDAT ??Hiterator@?$vector@UtagLOTTERY@@V?$allocator@UtagLOTTERY@@@std@@@std@@QBE?AV012@H@Z
_TEXT	SEGMENT
___$ReturnUdt$ = 8					; size = 4
__Off$ = 12						; size = 4
??Hiterator@?$vector@UtagLOTTERY@@V?$allocator@UtagLOTTERY@@@std@@@std@@QBE?AV012@H@Z PROC NEAR ; std::vector<tagLOTTERY,std::allocator<tagLOTTERY> >::iterator::operator+, COMDAT
; _this$ = ecx

; 262  : 			iterator _Tmp = *this;
; 263  : 			return (_Tmp += _Off);

  00000	8b 44 24 08	 mov	 eax, DWORD PTR __Off$[esp-4]
  00004	8b 09		 mov	 ecx, DWORD PTR [ecx]
  00006	8d 04 40	 lea	 eax, DWORD PTR [eax+eax*2]
  00009	8d 14 41	 lea	 edx, DWORD PTR [ecx+eax*2]
  0000c	8b 44 24 04	 mov	 eax, DWORD PTR ___$ReturnUdt$[esp-4]
  00010	89 10		 mov	 DWORD PTR [eax], edx

; 264  : 			}

  00012	c2 08 00	 ret	 8
??Hiterator@?$vector@UtagLOTTERY@@V?$allocator@UtagLOTTERY@@@std@@@std@@QBE?AV012@H@Z ENDP ; std::vector<tagLOTTERY,std::allocator<tagLOTTERY> >::iterator::operator+
_TEXT	ENDS
PUBLIC	?CloneData@?$CSimpleStringT@D$0A@@ATL@@CAPAUCStringData@2@PAU32@@Z ; ATL::CSimpleStringT<char,0>::CloneData
; Function compile flags: /Ogty
; File c:\program files (x86)\microsoft visual studio .net 2003\vc7\atlmfc\include\atlsimpstr.h
;	COMDAT ?CloneData@?$CSimpleStringT@D$0A@@ATL@@CAPAUCStringData@2@PAU32@@Z
_TEXT	SEGMENT
_pData$ = 8						; size = 4
?CloneData@?$CSimpleStringT@D$0A@@ATL@@CAPAUCStringData@2@PAU32@@Z PROC NEAR ; ATL::CSimpleStringT<char,0>::CloneData, COMDAT

; 801  : 	{

  00000	56		 push	 esi

; 802  : 		CStringData* pNewData = NULL;
; 803  : 
; 804  : 		IAtlStringMgr* pNewStringMgr = pData->pStringMgr->Clone();

  00001	8b 74 24 08	 mov	 esi, DWORD PTR _pData$[esp]
  00005	8b 0e		 mov	 ecx, DWORD PTR [esi]
  00007	8b 01		 mov	 eax, DWORD PTR [ecx]
  00009	ff 50 10	 call	 DWORD PTR [eax+16]

; 805  : 		if( !pData->IsLocked() && (pNewStringMgr == pData->pStringMgr) )

  0000c	8b 56 0c	 mov	 edx, DWORD PTR [esi+12]
  0000f	85 d2		 test	 edx, edx
  00011	8d 4e 0c	 lea	 ecx, DWORD PTR [esi+12]
  00014	7c 11		 jl	 SHORT $L86138
  00016	3b 06		 cmp	 eax, DWORD PTR [esi]
  00018	75 0d		 jne	 SHORT $L86138

; 806  : 		{
; 807  : 			pNewData = pData;

  0001a	8b c6		 mov	 eax, esi

; 808  : 			pNewData->AddRef();

  0001c	ba 01 00 00 00	 mov	 edx, 1
  00021	f0 0f c1 11	 lock	  xadd	 DWORD PTR [ecx], edx
  00025	5e		 pop	 esi

; 819  : 		}
; 820  : 
; 821  : 		return( pNewData );
; 822  : 	}

  00026	c3		 ret	 0
$L86138:

; 809  : 		}
; 810  : 		else
; 811  : 		{
; 812  : 			pNewData = pNewStringMgr->Allocate( pData->nDataLength, sizeof( XCHAR ) );

  00027	8b 4e 04	 mov	 ecx, DWORD PTR [esi+4]
  0002a	8b 10		 mov	 edx, DWORD PTR [eax]
  0002c	6a 01		 push	 1
  0002e	51		 push	 ecx
  0002f	8b c8		 mov	 ecx, eax
  00031	ff 12		 call	 DWORD PTR [edx]

; 813  : 			if( pNewData == NULL )

  00033	85 c0		 test	 eax, eax
  00035	75 05		 jne	 SHORT $L86141

; 814  : 			{
; 815  : 				ThrowMemoryException();

  00037	e9 00 00 00 00	 jmp	 ?ThrowMemoryException@?$CSimpleStringT@D$0A@@ATL@@KAXXZ ; ATL::CSimpleStringT<char,0>::ThrowMemoryException
$L86141:

; 816  : 			}
; 817  : 			pNewData->nDataLength = pData->nDataLength;

  0003c	8b 56 04	 mov	 edx, DWORD PTR [esi+4]
  0003f	89 50 04	 mov	 DWORD PTR [eax+4], edx

; 818  : 			CopyChars( PXSTR( pNewData->data() ), PCXSTR( pData->data() ), pData->nDataLength+1 );  // Copy '\0'

  00042	8b 4e 04	 mov	 ecx, DWORD PTR [esi+4]
  00045	41		 inc	 ecx
  00046	8b d1		 mov	 edx, ecx
  00048	57		 push	 edi
  00049	c1 e9 02	 shr	 ecx, 2
  0004c	83 c6 10	 add	 esi, 16			; 00000010H
  0004f	8d 78 10	 lea	 edi, DWORD PTR [eax+16]
  00052	f3 a5		 rep movsd
  00054	8b ca		 mov	 ecx, edx
  00056	83 e1 03	 and	 ecx, 3
  00059	f3 a4		 rep movsb
  0005b	5f		 pop	 edi
  0005c	5e		 pop	 esi

; 819  : 		}
; 820  : 
; 821  : 		return( pNewData );
; 822  : 	}

  0005d	c3		 ret	 0
?CloneData@?$CSimpleStringT@D$0A@@ATL@@CAPAUCStringData@2@PAU32@@Z ENDP ; ATL::CSimpleStringT<char,0>::CloneData
_TEXT	ENDS
PUBLIC	?_Eos@?$basic_string@DU?$char_traits@D@std@@V?$allocator@D@2@@std@@IAEXI@Z ; std::basic_string<char,std::char_traits<char>,std::allocator<char> >::_Eos
; Function compile flags: /Ogty
; File c:\program files (x86)\microsoft visual studio .net 2003\vc7\include\xstring
;	COMDAT ?_Eos@?$basic_string@DU?$char_traits@D@std@@V?$allocator@D@2@@std@@IAEXI@Z
_TEXT	SEGMENT
__Newsize$ = 8						; size = 4
?_Eos@?$basic_string@DU?$char_traits@D@std@@V?$allocator@D@2@@std@@IAEXI@Z PROC NEAR ; std::basic_string<char,std::char_traits<char>,std::allocator<char> >::_Eos, COMDAT
; _this$ = ecx

; 1475 : 		_Traits::assign(_Myptr()[_Mysize = _Newsize], _Elem());

  00000	83 79 18 10	 cmp	 DWORD PTR [ecx+24], 16	; 00000010H
  00004	8b 44 24 04	 mov	 eax, DWORD PTR __Newsize$[esp-4]
  00008	89 41 14	 mov	 DWORD PTR [ecx+20], eax
  0000b	72 0a		 jb	 SHORT $L94589
  0000d	8b 49 04	 mov	 ecx, DWORD PTR [ecx+4]
  00010	c6 04 01 00	 mov	 BYTE PTR [ecx+eax], 0

; 1476 : 		}

  00014	c2 04 00	 ret	 4

; 1475 : 		_Traits::assign(_Myptr()[_Mysize = _Newsize], _Elem());

$L94589:
  00017	c6 44 01 04 00	 mov	 BYTE PTR [ecx+eax+4], 0

; 1476 : 		}

  0001c	c2 04 00	 ret	 4
?_Eos@?$basic_string@DU?$char_traits@D@std@@V?$allocator@D@2@@std@@IAEXI@Z ENDP ; std::basic_string<char,std::char_traits<char>,std::allocator<char> >::_Eos
_TEXT	ENDS
PUBLIC	??0iterator@?$vector@GV?$allocator@G@std@@@std@@QAE@PAG@Z ; std::vector<unsigned short,std::allocator<unsigned short> >::iterator::iterator
; Function compile flags: /Ogty
; File c:\program files (x86)\microsoft visual studio .net 2003\vc7\include\vector
;	COMDAT ??0iterator@?$vector@GV?$allocator@G@std@@@std@@QAE@PAG@Z
_TEXT	SEGMENT
__Ptr$ = 8						; size = 4
??0iterator@?$vector@GV?$allocator@G@std@@@std@@QAE@PAG@Z PROC NEAR ; std::vector<unsigned short,std::allocator<unsigned short> >::iterator::iterator, COMDAT
; _this$ = ecx

; 215  : 			{	// construct with pointer _Ptr

  00000	8b c1		 mov	 eax, ecx
  00002	8b 4c 24 04	 mov	 ecx, DWORD PTR __Ptr$[esp-4]
  00006	89 08		 mov	 DWORD PTR [eax], ecx

; 216  : 			}

  00008	c2 04 00	 ret	 4
??0iterator@?$vector@GV?$allocator@G@std@@@std@@QAE@PAG@Z ENDP ; std::vector<unsigned short,std::allocator<unsigned short> >::iterator::iterator
_TEXT	ENDS
PUBLIC	??0iterator@?$vector@UtagTCASHITEMSALE@@V?$allocator@UtagTCASHITEMSALE@@@std@@@std@@QAE@PAUtagTCASHITEMSALE@@@Z ; std::vector<tagTCASHITEMSALE,std::allocator<tagTCASHITEMSALE> >::iterator::iterator
; Function compile flags: /Ogty
;	COMDAT ??0iterator@?$vector@UtagTCASHITEMSALE@@V?$allocator@UtagTCASHITEMSALE@@@std@@@std@@QAE@PAUtagTCASHITEMSALE@@@Z
_TEXT	SEGMENT
__Ptr$ = 8						; size = 4
??0iterator@?$vector@UtagTCASHITEMSALE@@V?$allocator@UtagTCASHITEMSALE@@@std@@@std@@QAE@PAUtagTCASHITEMSALE@@@Z PROC NEAR ; std::vector<tagTCASHITEMSALE,std::allocator<tagTCASHITEMSALE> >::iterator::iterator, COMDAT
; _this$ = ecx

; 215  : 			{	// construct with pointer _Ptr

  00000	8b c1		 mov	 eax, ecx
  00002	8b 4c 24 04	 mov	 ecx, DWORD PTR __Ptr$[esp-4]
  00006	89 08		 mov	 DWORD PTR [eax], ecx

; 216  : 			}

  00008	c2 04 00	 ret	 4
??0iterator@?$vector@UtagTCASHITEMSALE@@V?$allocator@UtagTCASHITEMSALE@@@std@@@std@@QAE@PAUtagTCASHITEMSALE@@@Z ENDP ; std::vector<tagTCASHITEMSALE,std::allocator<tagTCASHITEMSALE> >::iterator::iterator
_TEXT	ENDS
PUBLIC	??0iterator@?$vector@UtagMONREGEN@@V?$allocator@UtagMONREGEN@@@std@@@std@@QAE@PAUtagMONREGEN@@@Z ; std::vector<tagMONREGEN,std::allocator<tagMONREGEN> >::iterator::iterator
; Function compile flags: /Ogty
;	COMDAT ??0iterator@?$vector@UtagMONREGEN@@V?$allocator@UtagMONREGEN@@@std@@@std@@QAE@PAUtagMONREGEN@@@Z
_TEXT	SEGMENT
__Ptr$ = 8						; size = 4
??0iterator@?$vector@UtagMONREGEN@@V?$allocator@UtagMONREGEN@@@std@@@std@@QAE@PAUtagMONREGEN@@@Z PROC NEAR ; std::vector<tagMONREGEN,std::allocator<tagMONREGEN> >::iterator::iterator, COMDAT
; _this$ = ecx

; 215  : 			{	// construct with pointer _Ptr

  00000	8b c1		 mov	 eax, ecx
  00002	8b 4c 24 04	 mov	 ecx, DWORD PTR __Ptr$[esp-4]
  00006	89 08		 mov	 DWORD PTR [eax], ecx

; 216  : 			}

  00008	c2 04 00	 ret	 4
??0iterator@?$vector@UtagMONREGEN@@V?$allocator@UtagMONREGEN@@@std@@@std@@QAE@PAUtagMONREGEN@@@Z ENDP ; std::vector<tagMONREGEN,std::allocator<tagMONREGEN> >::iterator::iterator
_TEXT	ENDS
PUBLIC	??0iterator@?$vector@UtagLOTTERY@@V?$allocator@UtagLOTTERY@@@std@@@std@@QAE@PAUtagLOTTERY@@@Z ; std::vector<tagLOTTERY,std::allocator<tagLOTTERY> >::iterator::iterator
; Function compile flags: /Ogty
;	COMDAT ??0iterator@?$vector@UtagLOTTERY@@V?$allocator@UtagLOTTERY@@@std@@@std@@QAE@PAUtagLOTTERY@@@Z
_TEXT	SEGMENT
__Ptr$ = 8						; size = 4
??0iterator@?$vector@UtagLOTTERY@@V?$allocator@UtagLOTTERY@@@std@@@std@@QAE@PAUtagLOTTERY@@@Z PROC NEAR ; std::vector<tagLOTTERY,std::allocator<tagLOTTERY> >::iterator::iterator, COMDAT
; _this$ = ecx

; 215  : 			{	// construct with pointer _Ptr

  00000	8b c1		 mov	 eax, ecx
  00002	8b 4c 24 04	 mov	 ecx, DWORD PTR __Ptr$[esp-4]
  00006	89 08		 mov	 DWORD PTR [eax], ecx

; 216  : 			}

  00008	c2 04 00	 ret	 4
??0iterator@?$vector@UtagLOTTERY@@V?$allocator@UtagLOTTERY@@@std@@@std@@QAE@PAUtagLOTTERY@@@Z ENDP ; std::vector<tagLOTTERY,std::allocator<tagLOTTERY> >::iterator::iterator
_TEXT	ENDS
PUBLIC	?max_size@?$basic_string@DU?$char_traits@D@std@@V?$allocator@D@2@@std@@QBEIXZ ; std::basic_string<char,std::char_traits<char>,std::allocator<char> >::max_size
; Function compile flags: /Ogty
; File c:\program files (x86)\microsoft visual studio .net 2003\vc7\include\xstring
;	COMDAT ?max_size@?$basic_string@DU?$char_traits@D@std@@V?$allocator@D@2@@std@@QBEIXZ
_TEXT	SEGMENT
?max_size@?$basic_string@DU?$char_traits@D@std@@V?$allocator@D@2@@std@@QBEIXZ PROC NEAR ; std::basic_string<char,std::char_traits<char>,std::allocator<char> >::max_size, COMDAT
; _this$ = ecx

; 1114 : 		size_type _Num = _Mybase::_Alval.max_size();
; 1115 : 		return (_Num <= 1 ? 1 : _Num - 1);

  00000	b8 fe ff ff ff	 mov	 eax, -2			; fffffffeH

; 1116 : 		}

  00005	c3		 ret	 0
?max_size@?$basic_string@DU?$char_traits@D@std@@V?$allocator@D@2@@std@@QBEIXZ ENDP ; std::basic_string<char,std::char_traits<char>,std::allocator<char> >::max_size
_TEXT	ENDS
PUBLIC	?allocate@?$allocator@D@std@@QAEPADI@Z		; std::allocator<char>::allocate
; Function compile flags: /Ogty
; File c:\program files (x86)\microsoft visual studio .net 2003\vc7\include\xmemory
;	COMDAT ?allocate@?$allocator@D@std@@QAEPADI@Z
_TEXT	SEGMENT
__Count$ = 8						; size = 4
?allocate@?$allocator@D@std@@QAEPADI@Z PROC NEAR	; std::allocator<char>::allocate, COMDAT
; _this$ = ecx

; 137  : 		return (_Allocate(_Count, (pointer)0));

  00000	8b 44 24 04	 mov	 eax, DWORD PTR __Count$[esp-4]
  00004	50		 push	 eax
  00005	e8 00 00 00 00	 call	 ??2@YAPAXI@Z		; operator new
  0000a	83 c4 04	 add	 esp, 4

; 138  : 		}

  0000d	c2 04 00	 ret	 4
?allocate@?$allocator@D@std@@QAEPADI@Z ENDP		; std::allocator<char>::allocate
_TEXT	ENDS
PUBLIC	?begin@?$_Tree@V?$_Tmap_traits@EPAUtagTSVRTYPE@@U?$less@E@std@@V?$allocator@U?$pair@$$CBEPAUtagTSVRTYPE@@@std@@@3@$0A@@std@@@std@@QAE?AViterator@12@XZ ; std::_Tree<std::_Tmap_traits<unsigned char,tagTSVRTYPE *,std::less<unsigned char>,std::allocator<std::pair<unsigned char const ,tagTSVRTYPE *> >,0> >::begin
; Function compile flags: /Ogty
; File c:\program files (x86)\microsoft visual studio .net 2003\vc7\include\xtree
;	COMDAT ?begin@?$_Tree@V?$_Tmap_traits@EPAUtagTSVRTYPE@@U?$less@E@std@@V?$allocator@U?$pair@$$CBEPAUtagTSVRTYPE@@@std@@@3@$0A@@std@@@std@@QAE?AViterator@12@XZ
_TEXT	SEGMENT
___$ReturnUdt$ = 8					; size = 4
?begin@?$_Tree@V?$_Tmap_traits@EPAUtagTSVRTYPE@@U?$less@E@std@@V?$allocator@U?$pair@$$CBEPAUtagTSVRTYPE@@@std@@@3@$0A@@std@@@std@@QAE?AViterator@12@XZ PROC NEAR ; std::_Tree<std::_Tmap_traits<unsigned char,tagTSVRTYPE *,std::less<unsigned char>,std::allocator<std::pair<unsigned char const ,tagTSVRTYPE *> >,0> >::begin, COMDAT
; _this$ = ecx

; 408  : 		return (_TREE_ITERATOR(_Lmost()));

  00000	8b 41 04	 mov	 eax, DWORD PTR [ecx+4]
  00003	8b 08		 mov	 ecx, DWORD PTR [eax]
  00005	8b 44 24 04	 mov	 eax, DWORD PTR ___$ReturnUdt$[esp-4]
  00009	89 08		 mov	 DWORD PTR [eax], ecx

; 409  : 		}

  0000b	c2 04 00	 ret	 4
?begin@?$_Tree@V?$_Tmap_traits@EPAUtagTSVRTYPE@@U?$less@E@std@@V?$allocator@U?$pair@$$CBEPAUtagTSVRTYPE@@@std@@@3@$0A@@std@@@std@@QAE?AViterator@12@XZ ENDP ; std::_Tree<std::_Tmap_traits<unsigned char,tagTSVRTYPE *,std::less<unsigned char>,std::allocator<std::pair<unsigned char const ,tagTSVRTYPE *> >,0> >::begin
_TEXT	ENDS
PUBLIC	?end@?$_Tree@V?$_Tmap_traits@EPAUtagTSVRTYPE@@U?$less@E@std@@V?$allocator@U?$pair@$$CBEPAUtagTSVRTYPE@@@std@@@3@$0A@@std@@@std@@QAE?AViterator@12@XZ ; std::_Tree<std::_Tmap_traits<unsigned char,tagTSVRTYPE *,std::less<unsigned char>,std::allocator<std::pair<unsigned char const ,tagTSVRTYPE *> >,0> >::end
; Function compile flags: /Ogty
;	COMDAT ?end@?$_Tree@V?$_Tmap_traits@EPAUtagTSVRTYPE@@U?$less@E@std@@V?$allocator@U?$pair@$$CBEPAUtagTSVRTYPE@@@std@@@3@$0A@@std@@@std@@QAE?AViterator@12@XZ
_TEXT	SEGMENT
___$ReturnUdt$ = 8					; size = 4
?end@?$_Tree@V?$_Tmap_traits@EPAUtagTSVRTYPE@@U?$less@E@std@@V?$allocator@U?$pair@$$CBEPAUtagTSVRTYPE@@@std@@@3@$0A@@std@@@std@@QAE?AViterator@12@XZ PROC NEAR ; std::_Tree<std::_Tmap_traits<unsigned char,tagTSVRTYPE *,std::less<unsigned char>,std::allocator<std::pair<unsigned char const ,tagTSVRTYPE *> >,0> >::end, COMDAT
; _this$ = ecx

; 418  : 		return (_TREE_ITERATOR(_Myhead));

  00000	8b 49 04	 mov	 ecx, DWORD PTR [ecx+4]
  00003	8b 44 24 04	 mov	 eax, DWORD PTR ___$ReturnUdt$[esp-4]
  00007	89 08		 mov	 DWORD PTR [eax], ecx

; 419  : 		}

  00009	c2 04 00	 ret	 4
?end@?$_Tree@V?$_Tmap_traits@EPAUtagTSVRTYPE@@U?$less@E@std@@V?$allocator@U?$pair@$$CBEPAUtagTSVRTYPE@@@std@@@3@$0A@@std@@@std@@QAE?AViterator@12@XZ ENDP ; std::_Tree<std::_Tmap_traits<unsigned char,tagTSVRTYPE *,std::less<unsigned char>,std::allocator<std::pair<unsigned char const ,tagTSVRTYPE *> >,0> >::end
_TEXT	ENDS
PUBLIC	??Diterator@?$_Tree@V?$_Tmap_traits@EPAUtagTSVRTYPE@@U?$less@E@std@@V?$allocator@U?$pair@$$CBEPAUtagTSVRTYPE@@@std@@@3@$0A@@std@@@std@@QBEAAU?$pair@$$CBEPAUtagTSVRTYPE@@@2@XZ ; std::_Tree<std::_Tmap_traits<unsigned char,tagTSVRTYPE *,std::less<unsigned char>,std::allocator<std::pair<unsigned char const ,tagTSVRTYPE *> >,0> >::iterator::operator*
; Function compile flags: /Ogty
;	COMDAT ??Diterator@?$_Tree@V?$_Tmap_traits@EPAUtagTSVRTYPE@@U?$less@E@std@@V?$allocator@U?$pair@$$CBEPAUtagTSVRTYPE@@@std@@@3@$0A@@std@@@std@@QBEAAU?$pair@$$CBEPAUtagTSVRTYPE@@@2@XZ
_TEXT	SEGMENT
??Diterator@?$_Tree@V?$_Tmap_traits@EPAUtagTSVRTYPE@@U?$less@E@std@@V?$allocator@U?$pair@$$CBEPAUtagTSVRTYPE@@@std@@@3@$0A@@std@@@std@@QBEAAU?$pair@$$CBEPAUtagTSVRTYPE@@@2@XZ PROC NEAR ; std::_Tree<std::_Tmap_traits<unsigned char,tagTSVRTYPE *,std::less<unsigned char>,std::allocator<std::pair<unsigned char const ,tagTSVRTYPE *> >,0> >::iterator::operator*, COMDAT
; _this$ = ecx

; 317  : 			return ((reference)**(const_iterator *)this);

  00000	8b 01		 mov	 eax, DWORD PTR [ecx]
  00002	83 c0 0c	 add	 eax, 12			; 0000000cH

; 318  : 			}

  00005	c3		 ret	 0
??Diterator@?$_Tree@V?$_Tmap_traits@EPAUtagTSVRTYPE@@U?$less@E@std@@V?$allocator@U?$pair@$$CBEPAUtagTSVRTYPE@@@std@@@3@$0A@@std@@@std@@QBEAAU?$pair@$$CBEPAUtagTSVRTYPE@@@2@XZ ENDP ; std::_Tree<std::_Tmap_traits<unsigned char,tagTSVRTYPE *,std::less<unsigned char>,std::allocator<std::pair<unsigned char const ,tagTSVRTYPE *> >,0> >::iterator::operator*
_TEXT	ENDS
PUBLIC	?begin@?$_Tree@V?$_Tmap_traits@EPAUtagTMACHINE@@U?$less@E@std@@V?$allocator@U?$pair@$$CBEPAUtagTMACHINE@@@std@@@3@$0A@@std@@@std@@QAE?AViterator@12@XZ ; std::_Tree<std::_Tmap_traits<unsigned char,tagTMACHINE *,std::less<unsigned char>,std::allocator<std::pair<unsigned char const ,tagTMACHINE *> >,0> >::begin
; Function compile flags: /Ogty
;	COMDAT ?begin@?$_Tree@V?$_Tmap_traits@EPAUtagTMACHINE@@U?$less@E@std@@V?$allocator@U?$pair@$$CBEPAUtagTMACHINE@@@std@@@3@$0A@@std@@@std@@QAE?AViterator@12@XZ
_TEXT	SEGMENT
___$ReturnUdt$ = 8					; size = 4
?begin@?$_Tree@V?$_Tmap_traits@EPAUtagTMACHINE@@U?$less@E@std@@V?$allocator@U?$pair@$$CBEPAUtagTMACHINE@@@std@@@3@$0A@@std@@@std@@QAE?AViterator@12@XZ PROC NEAR ; std::_Tree<std::_Tmap_traits<unsigned char,tagTMACHINE *,std::less<unsigned char>,std::allocator<std::pair<unsigned char const ,tagTMACHINE *> >,0> >::begin, COMDAT
; _this$ = ecx

; 408  : 		return (_TREE_ITERATOR(_Lmost()));

  00000	8b 41 04	 mov	 eax, DWORD PTR [ecx+4]
  00003	8b 08		 mov	 ecx, DWORD PTR [eax]
  00005	8b 44 24 04	 mov	 eax, DWORD PTR ___$ReturnUdt$[esp-4]
  00009	89 08		 mov	 DWORD PTR [eax], ecx

; 409  : 		}

  0000b	c2 04 00	 ret	 4
?begin@?$_Tree@V?$_Tmap_traits@EPAUtagTMACHINE@@U?$less@E@std@@V?$allocator@U?$pair@$$CBEPAUtagTMACHINE@@@std@@@3@$0A@@std@@@std@@QAE?AViterator@12@XZ ENDP ; std::_Tree<std::_Tmap_traits<unsigned char,tagTMACHINE *,std::less<unsigned char>,std::allocator<std::pair<unsigned char const ,tagTMACHINE *> >,0> >::begin
_TEXT	ENDS
PUBLIC	?end@?$_Tree@V?$_Tmap_traits@EPAUtagTMACHINE@@U?$less@E@std@@V?$allocator@U?$pair@$$CBEPAUtagTMACHINE@@@std@@@3@$0A@@std@@@std@@QAE?AViterator@12@XZ ; std::_Tree<std::_Tmap_traits<unsigned char,tagTMACHINE *,std::less<unsigned char>,std::allocator<std::pair<unsigned char const ,tagTMACHINE *> >,0> >::end
; Function compile flags: /Ogty
;	COMDAT ?end@?$_Tree@V?$_Tmap_traits@EPAUtagTMACHINE@@U?$less@E@std@@V?$allocator@U?$pair@$$CBEPAUtagTMACHINE@@@std@@@3@$0A@@std@@@std@@QAE?AViterator@12@XZ
_TEXT	SEGMENT
___$ReturnUdt$ = 8					; size = 4
?end@?$_Tree@V?$_Tmap_traits@EPAUtagTMACHINE@@U?$less@E@std@@V?$allocator@U?$pair@$$CBEPAUtagTMACHINE@@@std@@@3@$0A@@std@@@std@@QAE?AViterator@12@XZ PROC NEAR ; std::_Tree<std::_Tmap_traits<unsigned char,tagTMACHINE *,std::less<unsigned char>,std::allocator<std::pair<unsigned char const ,tagTMACHINE *> >,0> >::end, COMDAT
; _this$ = ecx

; 418  : 		return (_TREE_ITERATOR(_Myhead));

  00000	8b 49 04	 mov	 ecx, DWORD PTR [ecx+4]
  00003	8b 44 24 04	 mov	 eax, DWORD PTR ___$ReturnUdt$[esp-4]
  00007	89 08		 mov	 DWORD PTR [eax], ecx

; 419  : 		}

  00009	c2 04 00	 ret	 4
?end@?$_Tree@V?$_Tmap_traits@EPAUtagTMACHINE@@U?$less@E@std@@V?$allocator@U?$pair@$$CBEPAUtagTMACHINE@@@std@@@3@$0A@@std@@@std@@QAE?AViterator@12@XZ ENDP ; std::_Tree<std::_Tmap_traits<unsigned char,tagTMACHINE *,std::less<unsigned char>,std::allocator<std::pair<unsigned char const ,tagTMACHINE *> >,0> >::end
_TEXT	ENDS
PUBLIC	??Diterator@?$_Tree@V?$_Tmap_traits@EPAUtagTMACHINE@@U?$less@E@std@@V?$allocator@U?$pair@$$CBEPAUtagTMACHINE@@@std@@@3@$0A@@std@@@std@@QBEAAU?$pair@$$CBEPAUtagTMACHINE@@@2@XZ ; std::_Tree<std::_Tmap_traits<unsigned char,tagTMACHINE *,std::less<unsigned char>,std::allocator<std::pair<unsigned char const ,tagTMACHINE *> >,0> >::iterator::operator*
; Function compile flags: /Ogty
;	COMDAT ??Diterator@?$_Tree@V?$_Tmap_traits@EPAUtagTMACHINE@@U?$less@E@std@@V?$allocator@U?$pair@$$CBEPAUtagTMACHINE@@@std@@@3@$0A@@std@@@std@@QBEAAU?$pair@$$CBEPAUtagTMACHINE@@@2@XZ
_TEXT	SEGMENT
??Diterator@?$_Tree@V?$_Tmap_traits@EPAUtagTMACHINE@@U?$less@E@std@@V?$allocator@U?$pair@$$CBEPAUtagTMACHINE@@@std@@@3@$0A@@std@@@std@@QBEAAU?$pair@$$CBEPAUtagTMACHINE@@@2@XZ PROC NEAR ; std::_Tree<std::_Tmap_traits<unsigned char,tagTMACHINE *,std::less<unsigned char>,std::allocator<std::pair<unsigned char const ,tagTMACHINE *> >,0> >::iterator::operator*, COMDAT
; _this$ = ecx

; 317  : 			return ((reference)**(const_iterator *)this);

  00000	8b 01		 mov	 eax, DWORD PTR [ecx]
  00002	83 c0 0c	 add	 eax, 12			; 0000000cH

; 318  : 			}

  00005	c3		 ret	 0
??Diterator@?$_Tree@V?$_Tmap_traits@EPAUtagTMACHINE@@U?$less@E@std@@V?$allocator@U?$pair@$$CBEPAUtagTMACHINE@@@std@@@3@$0A@@std@@@std@@QBEAAU?$pair@$$CBEPAUtagTMACHINE@@@2@XZ ENDP ; std::_Tree<std::_Tmap_traits<unsigned char,tagTMACHINE *,std::less<unsigned char>,std::allocator<std::pair<unsigned char const ,tagTMACHINE *> >,0> >::iterator::operator*
_TEXT	ENDS
PUBLIC	?begin@?$_Tree@V?$_Tmap_traits@EPAUtagTGROUP@@U?$less@E@std@@V?$allocator@U?$pair@$$CBEPAUtagTGROUP@@@std@@@3@$0A@@std@@@std@@QAE?AViterator@12@XZ ; std::_Tree<std::_Tmap_traits<unsigned char,tagTGROUP *,std::less<unsigned char>,std::allocator<std::pair<unsigned char const ,tagTGROUP *> >,0> >::begin
; Function compile flags: /Ogty
;	COMDAT ?begin@?$_Tree@V?$_Tmap_traits@EPAUtagTGROUP@@U?$less@E@std@@V?$allocator@U?$pair@$$CBEPAUtagTGROUP@@@std@@@3@$0A@@std@@@std@@QAE?AViterator@12@XZ
_TEXT	SEGMENT
___$ReturnUdt$ = 8					; size = 4
?begin@?$_Tree@V?$_Tmap_traits@EPAUtagTGROUP@@U?$less@E@std@@V?$allocator@U?$pair@$$CBEPAUtagTGROUP@@@std@@@3@$0A@@std@@@std@@QAE?AViterator@12@XZ PROC NEAR ; std::_Tree<std::_Tmap_traits<unsigned char,tagTGROUP *,std::less<unsigned char>,std::allocator<std::pair<unsigned char const ,tagTGROUP *> >,0> >::begin, COMDAT
; _this$ = ecx

; 408  : 		return (_TREE_ITERATOR(_Lmost()));

  00000	8b 41 04	 mov	 eax, DWORD PTR [ecx+4]
  00003	8b 08		 mov	 ecx, DWORD PTR [eax]
  00005	8b 44 24 04	 mov	 eax, DWORD PTR ___$ReturnUdt$[esp-4]
  00009	89 08		 mov	 DWORD PTR [eax], ecx

; 409  : 		}

  0000b	c2 04 00	 ret	 4
?begin@?$_Tree@V?$_Tmap_traits@EPAUtagTGROUP@@U?$less@E@std@@V?$allocator@U?$pair@$$CBEPAUtagTGROUP@@@std@@@3@$0A@@std@@@std@@QAE?AViterator@12@XZ ENDP ; std::_Tree<std::_Tmap_traits<unsigned char,tagTGROUP *,std::less<unsigned char>,std::allocator<std::pair<unsigned char const ,tagTGROUP *> >,0> >::begin
_TEXT	ENDS
PUBLIC	?end@?$_Tree@V?$_Tmap_traits@EPAUtagTGROUP@@U?$less@E@std@@V?$allocator@U?$pair@$$CBEPAUtagTGROUP@@@std@@@3@$0A@@std@@@std@@QAE?AViterator@12@XZ ; std::_Tree<std::_Tmap_traits<unsigned char,tagTGROUP *,std::less<unsigned char>,std::allocator<std::pair<unsigned char const ,tagTGROUP *> >,0> >::end
; Function compile flags: /Ogty
;	COMDAT ?end@?$_Tree@V?$_Tmap_traits@EPAUtagTGROUP@@U?$less@E@std@@V?$allocator@U?$pair@$$CBEPAUtagTGROUP@@@std@@@3@$0A@@std@@@std@@QAE?AViterator@12@XZ
_TEXT	SEGMENT
___$ReturnUdt$ = 8					; size = 4
?end@?$_Tree@V?$_Tmap_traits@EPAUtagTGROUP@@U?$less@E@std@@V?$allocator@U?$pair@$$CBEPAUtagTGROUP@@@std@@@3@$0A@@std@@@std@@QAE?AViterator@12@XZ PROC NEAR ; std::_Tree<std::_Tmap_traits<unsigned char,tagTGROUP *,std::less<unsigned char>,std::allocator<std::pair<unsigned char const ,tagTGROUP *> >,0> >::end, COMDAT
; _this$ = ecx

; 418  : 		return (_TREE_ITERATOR(_Myhead));

  00000	8b 49 04	 mov	 ecx, DWORD PTR [ecx+4]
  00003	8b 44 24 04	 mov	 eax, DWORD PTR ___$ReturnUdt$[esp-4]
  00007	89 08		 mov	 DWORD PTR [eax], ecx

; 419  : 		}

  00009	c2 04 00	 ret	 4
?end@?$_Tree@V?$_Tmap_traits@EPAUtagTGROUP@@U?$less@E@std@@V?$allocator@U?$pair@$$CBEPAUtagTGROUP@@@std@@@3@$0A@@std@@@std@@QAE?AViterator@12@XZ ENDP ; std::_Tree<std::_Tmap_traits<unsigned char,tagTGROUP *,std::less<unsigned char>,std::allocator<std::pair<unsigned char const ,tagTGROUP *> >,0> >::end
_TEXT	ENDS
PUBLIC	??Diterator@?$_Tree@V?$_Tmap_traits@EPAUtagTGROUP@@U?$less@E@std@@V?$allocator@U?$pair@$$CBEPAUtagTGROUP@@@std@@@3@$0A@@std@@@std@@QBEAAU?$pair@$$CBEPAUtagTGROUP@@@2@XZ ; std::_Tree<std::_Tmap_traits<unsigned char,tagTGROUP *,std::less<unsigned char>,std::allocator<std::pair<unsigned char const ,tagTGROUP *> >,0> >::iterator::operator*
; Function compile flags: /Ogty
;	COMDAT ??Diterator@?$_Tree@V?$_Tmap_traits@EPAUtagTGROUP@@U?$less@E@std@@V?$allocator@U?$pair@$$CBEPAUtagTGROUP@@@std@@@3@$0A@@std@@@std@@QBEAAU?$pair@$$CBEPAUtagTGROUP@@@2@XZ
_TEXT	SEGMENT
??Diterator@?$_Tree@V?$_Tmap_traits@EPAUtagTGROUP@@U?$less@E@std@@V?$allocator@U?$pair@$$CBEPAUtagTGROUP@@@std@@@3@$0A@@std@@@std@@QBEAAU?$pair@$$CBEPAUtagTGROUP@@@2@XZ PROC NEAR ; std::_Tree<std::_Tmap_traits<unsigned char,tagTGROUP *,std::less<unsigned char>,std::allocator<std::pair<unsigned char const ,tagTGROUP *> >,0> >::iterator::operator*, COMDAT
; _this$ = ecx

; 317  : 			return ((reference)**(const_iterator *)this);

  00000	8b 01		 mov	 eax, DWORD PTR [ecx]
  00002	83 c0 0c	 add	 eax, 12			; 0000000cH

; 318  : 			}

  00005	c3		 ret	 0
??Diterator@?$_Tree@V?$_Tmap_traits@EPAUtagTGROUP@@U?$less@E@std@@V?$allocator@U?$pair@$$CBEPAUtagTGROUP@@@std@@@3@$0A@@std@@@std@@QBEAAU?$pair@$$CBEPAUtagTGROUP@@@2@XZ ENDP ; std::_Tree<std::_Tmap_traits<unsigned char,tagTGROUP *,std::less<unsigned char>,std::allocator<std::pair<unsigned char const ,tagTGROUP *> >,0> >::iterator::operator*
_TEXT	ENDS
PUBLIC	?begin@?$_Tree@V?$_Tmap_traits@KPAUtagTSVRTEMP@@U?$less@K@std@@V?$allocator@U?$pair@$$CBKPAUtagTSVRTEMP@@@std@@@3@$0A@@std@@@std@@QAE?AViterator@12@XZ ; std::_Tree<std::_Tmap_traits<unsigned long,tagTSVRTEMP *,std::less<unsigned long>,std::allocator<std::pair<unsigned long const ,tagTSVRTEMP *> >,0> >::begin
; Function compile flags: /Ogty
;	COMDAT ?begin@?$_Tree@V?$_Tmap_traits@KPAUtagTSVRTEMP@@U?$less@K@std@@V?$allocator@U?$pair@$$CBKPAUtagTSVRTEMP@@@std@@@3@$0A@@std@@@std@@QAE?AViterator@12@XZ
_TEXT	SEGMENT
___$ReturnUdt$ = 8					; size = 4
?begin@?$_Tree@V?$_Tmap_traits@KPAUtagTSVRTEMP@@U?$less@K@std@@V?$allocator@U?$pair@$$CBKPAUtagTSVRTEMP@@@std@@@3@$0A@@std@@@std@@QAE?AViterator@12@XZ PROC NEAR ; std::_Tree<std::_Tmap_traits<unsigned long,tagTSVRTEMP *,std::less<unsigned long>,std::allocator<std::pair<unsigned long const ,tagTSVRTEMP *> >,0> >::begin, COMDAT
; _this$ = ecx

; 408  : 		return (_TREE_ITERATOR(_Lmost()));

  00000	8b 41 04	 mov	 eax, DWORD PTR [ecx+4]
  00003	8b 08		 mov	 ecx, DWORD PTR [eax]
  00005	8b 44 24 04	 mov	 eax, DWORD PTR ___$ReturnUdt$[esp-4]
  00009	89 08		 mov	 DWORD PTR [eax], ecx

; 409  : 		}

  0000b	c2 04 00	 ret	 4
?begin@?$_Tree@V?$_Tmap_traits@KPAUtagTSVRTEMP@@U?$less@K@std@@V?$allocator@U?$pair@$$CBKPAUtagTSVRTEMP@@@std@@@3@$0A@@std@@@std@@QAE?AViterator@12@XZ ENDP ; std::_Tree<std::_Tmap_traits<unsigned long,tagTSVRTEMP *,std::less<unsigned long>,std::allocator<std::pair<unsigned long const ,tagTSVRTEMP *> >,0> >::begin
_TEXT	ENDS
PUBLIC	?end@?$_Tree@V?$_Tmap_traits@KPAUtagTSVRTEMP@@U?$less@K@std@@V?$allocator@U?$pair@$$CBKPAUtagTSVRTEMP@@@std@@@3@$0A@@std@@@std@@QAE?AViterator@12@XZ ; std::_Tree<std::_Tmap_traits<unsigned long,tagTSVRTEMP *,std::less<unsigned long>,std::allocator<std::pair<unsigned long const ,tagTSVRTEMP *> >,0> >::end
; Function compile flags: /Ogty
;	COMDAT ?end@?$_Tree@V?$_Tmap_traits@KPAUtagTSVRTEMP@@U?$less@K@std@@V?$allocator@U?$pair@$$CBKPAUtagTSVRTEMP@@@std@@@3@$0A@@std@@@std@@QAE?AViterator@12@XZ
_TEXT	SEGMENT
___$ReturnUdt$ = 8					; size = 4
?end@?$_Tree@V?$_Tmap_traits@KPAUtagTSVRTEMP@@U?$less@K@std@@V?$allocator@U?$pair@$$CBKPAUtagTSVRTEMP@@@std@@@3@$0A@@std@@@std@@QAE?AViterator@12@XZ PROC NEAR ; std::_Tree<std::_Tmap_traits<unsigned long,tagTSVRTEMP *,std::less<unsigned long>,std::allocator<std::pair<unsigned long const ,tagTSVRTEMP *> >,0> >::end, COMDAT
; _this$ = ecx

; 418  : 		return (_TREE_ITERATOR(_Myhead));

  00000	8b 49 04	 mov	 ecx, DWORD PTR [ecx+4]
  00003	8b 44 24 04	 mov	 eax, DWORD PTR ___$ReturnUdt$[esp-4]
  00007	89 08		 mov	 DWORD PTR [eax], ecx

; 419  : 		}

  00009	c2 04 00	 ret	 4
?end@?$_Tree@V?$_Tmap_traits@KPAUtagTSVRTEMP@@U?$less@K@std@@V?$allocator@U?$pair@$$CBKPAUtagTSVRTEMP@@@std@@@3@$0A@@std@@@std@@QAE?AViterator@12@XZ ENDP ; std::_Tree<std::_Tmap_traits<unsigned long,tagTSVRTEMP *,std::less<unsigned long>,std::allocator<std::pair<unsigned long const ,tagTSVRTEMP *> >,0> >::end
_TEXT	ENDS
PUBLIC	??Diterator@?$_Tree@V?$_Tmap_traits@KPAUtagTSVRTEMP@@U?$less@K@std@@V?$allocator@U?$pair@$$CBKPAUtagTSVRTEMP@@@std@@@3@$0A@@std@@@std@@QBEAAU?$pair@$$CBKPAUtagTSVRTEMP@@@2@XZ ; std::_Tree<std::_Tmap_traits<unsigned long,tagTSVRTEMP *,std::less<unsigned long>,std::allocator<std::pair<unsigned long const ,tagTSVRTEMP *> >,0> >::iterator::operator*
; Function compile flags: /Ogty
;	COMDAT ??Diterator@?$_Tree@V?$_Tmap_traits@KPAUtagTSVRTEMP@@U?$less@K@std@@V?$allocator@U?$pair@$$CBKPAUtagTSVRTEMP@@@std@@@3@$0A@@std@@@std@@QBEAAU?$pair@$$CBKPAUtagTSVRTEMP@@@2@XZ
_TEXT	SEGMENT
??Diterator@?$_Tree@V?$_Tmap_traits@KPAUtagTSVRTEMP@@U?$less@K@std@@V?$allocator@U?$pair@$$CBKPAUtagTSVRTEMP@@@std@@@3@$0A@@std@@@std@@QBEAAU?$pair@$$CBKPAUtagTSVRTEMP@@@2@XZ PROC NEAR ; std::_Tree<std::_Tmap_traits<unsigned long,tagTSVRTEMP *,std::less<unsigned long>,std::allocator<std::pair<unsigned long const ,tagTSVRTEMP *> >,0> >::iterator::operator*, COMDAT
; _this$ = ecx

; 317  : 			return ((reference)**(const_iterator *)this);

  00000	8b 01		 mov	 eax, DWORD PTR [ecx]
  00002	83 c0 0c	 add	 eax, 12			; 0000000cH

; 318  : 			}

  00005	c3		 ret	 0
??Diterator@?$_Tree@V?$_Tmap_traits@KPAUtagTSVRTEMP@@U?$less@K@std@@V?$allocator@U?$pair@$$CBKPAUtagTSVRTEMP@@@std@@@3@$0A@@std@@@std@@QBEAAU?$pair@$$CBKPAUtagTSVRTEMP@@@2@XZ ENDP ; std::_Tree<std::_Tmap_traits<unsigned long,tagTSVRTEMP *,std::less<unsigned long>,std::allocator<std::pair<unsigned long const ,tagTSVRTEMP *> >,0> >::iterator::operator*
_TEXT	ENDS
PUBLIC	?begin@?$_Tree@V?$_Tmap_traits@KPAUtagBANINFO@@U?$less@K@std@@V?$allocator@U?$pair@$$CBKPAUtagBANINFO@@@std@@@3@$0A@@std@@@std@@QAE?AViterator@12@XZ ; std::_Tree<std::_Tmap_traits<unsigned long,tagBANINFO *,std::less<unsigned long>,std::allocator<std::pair<unsigned long const ,tagBANINFO *> >,0> >::begin
; Function compile flags: /Ogty
;	COMDAT ?begin@?$_Tree@V?$_Tmap_traits@KPAUtagBANINFO@@U?$less@K@std@@V?$allocator@U?$pair@$$CBKPAUtagBANINFO@@@std@@@3@$0A@@std@@@std@@QAE?AViterator@12@XZ
_TEXT	SEGMENT
___$ReturnUdt$ = 8					; size = 4
?begin@?$_Tree@V?$_Tmap_traits@KPAUtagBANINFO@@U?$less@K@std@@V?$allocator@U?$pair@$$CBKPAUtagBANINFO@@@std@@@3@$0A@@std@@@std@@QAE?AViterator@12@XZ PROC NEAR ; std::_Tree<std::_Tmap_traits<unsigned long,tagBANINFO *,std::less<unsigned long>,std::allocator<std::pair<unsigned long const ,tagBANINFO *> >,0> >::begin, COMDAT
; _this$ = ecx

; 408  : 		return (_TREE_ITERATOR(_Lmost()));

  00000	8b 41 04	 mov	 eax, DWORD PTR [ecx+4]
  00003	8b 08		 mov	 ecx, DWORD PTR [eax]
  00005	8b 44 24 04	 mov	 eax, DWORD PTR ___$ReturnUdt$[esp-4]
  00009	89 08		 mov	 DWORD PTR [eax], ecx

; 409  : 		}

  0000b	c2 04 00	 ret	 4
?begin@?$_Tree@V?$_Tmap_traits@KPAUtagBANINFO@@U?$less@K@std@@V?$allocator@U?$pair@$$CBKPAUtagBANINFO@@@std@@@3@$0A@@std@@@std@@QAE?AViterator@12@XZ ENDP ; std::_Tree<std::_Tmap_traits<unsigned long,tagBANINFO *,std::less<unsigned long>,std::allocator<std::pair<unsigned long const ,tagBANINFO *> >,0> >::begin
_TEXT	ENDS
PUBLIC	?end@?$_Tree@V?$_Tmap_traits@KPAUtagBANINFO@@U?$less@K@std@@V?$allocator@U?$pair@$$CBKPAUtagBANINFO@@@std@@@3@$0A@@std@@@std@@QAE?AViterator@12@XZ ; std::_Tree<std::_Tmap_traits<unsigned long,tagBANINFO *,std::less<unsigned long>,std::allocator<std::pair<unsigned long const ,tagBANINFO *> >,0> >::end
; Function compile flags: /Ogty
;	COMDAT ?end@?$_Tree@V?$_Tmap_traits@KPAUtagBANINFO@@U?$less@K@std@@V?$allocator@U?$pair@$$CBKPAUtagBANINFO@@@std@@@3@$0A@@std@@@std@@QAE?AViterator@12@XZ
_TEXT	SEGMENT
___$ReturnUdt$ = 8					; size = 4
?end@?$_Tree@V?$_Tmap_traits@KPAUtagBANINFO@@U?$less@K@std@@V?$allocator@U?$pair@$$CBKPAUtagBANINFO@@@std@@@3@$0A@@std@@@std@@QAE?AViterator@12@XZ PROC NEAR ; std::_Tree<std::_Tmap_traits<unsigned long,tagBANINFO *,std::less<unsigned long>,std::allocator<std::pair<unsigned long const ,tagBANINFO *> >,0> >::end, COMDAT
; _this$ = ecx

; 418  : 		return (_TREE_ITERATOR(_Myhead));

  00000	8b 49 04	 mov	 ecx, DWORD PTR [ecx+4]
  00003	8b 44 24 04	 mov	 eax, DWORD PTR ___$ReturnUdt$[esp-4]
  00007	89 08		 mov	 DWORD PTR [eax], ecx

; 419  : 		}

  00009	c2 04 00	 ret	 4
?end@?$_Tree@V?$_Tmap_traits@KPAUtagBANINFO@@U?$less@K@std@@V?$allocator@U?$pair@$$CBKPAUtagBANINFO@@@std@@@3@$0A@@std@@@std@@QAE?AViterator@12@XZ ENDP ; std::_Tree<std::_Tmap_traits<unsigned long,tagBANINFO *,std::less<unsigned long>,std::allocator<std::pair<unsigned long const ,tagBANINFO *> >,0> >::end
_TEXT	ENDS
PUBLIC	??Diterator@?$_Tree@V?$_Tmap_traits@KPAUtagBANINFO@@U?$less@K@std@@V?$allocator@U?$pair@$$CBKPAUtagBANINFO@@@std@@@3@$0A@@std@@@std@@QBEAAU?$pair@$$CBKPAUtagBANINFO@@@2@XZ ; std::_Tree<std::_Tmap_traits<unsigned long,tagBANINFO *,std::less<unsigned long>,std::allocator<std::pair<unsigned long const ,tagBANINFO *> >,0> >::iterator::operator*
; Function compile flags: /Ogty
;	COMDAT ??Diterator@?$_Tree@V?$_Tmap_traits@KPAUtagBANINFO@@U?$less@K@std@@V?$allocator@U?$pair@$$CBKPAUtagBANINFO@@@std@@@3@$0A@@std@@@std@@QBEAAU?$pair@$$CBKPAUtagBANINFO@@@2@XZ
_TEXT	SEGMENT
??Diterator@?$_Tree@V?$_Tmap_traits@KPAUtagBANINFO@@U?$less@K@std@@V?$allocator@U?$pair@$$CBKPAUtagBANINFO@@@std@@@3@$0A@@std@@@std@@QBEAAU?$pair@$$CBKPAUtagBANINFO@@@2@XZ PROC NEAR ; std::_Tree<std::_Tmap_traits<unsigned long,tagBANINFO *,std::less<unsigned long>,std::allocator<std::pair<unsigned long const ,tagBANINFO *> >,0> >::iterator::operator*, COMDAT
; _this$ = ecx

; 317  : 			return ((reference)**(const_iterator *)this);

  00000	8b 01		 mov	 eax, DWORD PTR [ecx]
  00002	83 c0 0c	 add	 eax, 12			; 0000000cH

; 318  : 			}

  00005	c3		 ret	 0
??Diterator@?$_Tree@V?$_Tmap_traits@KPAUtagBANINFO@@U?$less@K@std@@V?$allocator@U?$pair@$$CBKPAUtagBANINFO@@@std@@@3@$0A@@std@@@std@@QBEAAU?$pair@$$CBKPAUtagBANINFO@@@2@XZ ENDP ; std::_Tree<std::_Tmap_traits<unsigned long,tagBANINFO *,std::less<unsigned long>,std::allocator<std::pair<unsigned long const ,tagBANINFO *> >,0> >::iterator::operator*
_TEXT	ENDS
PUBLIC	?begin@?$_Tree@V?$_Tmap_traits@KUtagEVENTINFO@@U?$less@K@std@@V?$allocator@U?$pair@$$CBKUtagEVENTINFO@@@std@@@3@$0A@@std@@@std@@QAE?AViterator@12@XZ ; std::_Tree<std::_Tmap_traits<unsigned long,tagEVENTINFO,std::less<unsigned long>,std::allocator<std::pair<unsigned long const ,tagEVENTINFO> >,0> >::begin
; Function compile flags: /Ogty
;	COMDAT ?begin@?$_Tree@V?$_Tmap_traits@KUtagEVENTINFO@@U?$less@K@std@@V?$allocator@U?$pair@$$CBKUtagEVENTINFO@@@std@@@3@$0A@@std@@@std@@QAE?AViterator@12@XZ
_TEXT	SEGMENT
___$ReturnUdt$ = 8					; size = 4
?begin@?$_Tree@V?$_Tmap_traits@KUtagEVENTINFO@@U?$less@K@std@@V?$allocator@U?$pair@$$CBKUtagEVENTINFO@@@std@@@3@$0A@@std@@@std@@QAE?AViterator@12@XZ PROC NEAR ; std::_Tree<std::_Tmap_traits<unsigned long,tagEVENTINFO,std::less<unsigned long>,std::allocator<std::pair<unsigned long const ,tagEVENTINFO> >,0> >::begin, COMDAT
; _this$ = ecx

; 408  : 		return (_TREE_ITERATOR(_Lmost()));

  00000	8b 41 04	 mov	 eax, DWORD PTR [ecx+4]
  00003	8b 08		 mov	 ecx, DWORD PTR [eax]
  00005	8b 44 24 04	 mov	 eax, DWORD PTR ___$ReturnUdt$[esp-4]
  00009	89 08		 mov	 DWORD PTR [eax], ecx

; 409  : 		}

  0000b	c2 04 00	 ret	 4
?begin@?$_Tree@V?$_Tmap_traits@KUtagEVENTINFO@@U?$less@K@std@@V?$allocator@U?$pair@$$CBKUtagEVENTINFO@@@std@@@3@$0A@@std@@@std@@QAE?AViterator@12@XZ ENDP ; std::_Tree<std::_Tmap_traits<unsigned long,tagEVENTINFO,std::less<unsigned long>,std::allocator<std::pair<unsigned long const ,tagEVENTINFO> >,0> >::begin
_TEXT	ENDS
PUBLIC	?end@?$_Tree@V?$_Tmap_traits@KUtagEVENTINFO@@U?$less@K@std@@V?$allocator@U?$pair@$$CBKUtagEVENTINFO@@@std@@@3@$0A@@std@@@std@@QAE?AViterator@12@XZ ; std::_Tree<std::_Tmap_traits<unsigned long,tagEVENTINFO,std::less<unsigned long>,std::allocator<std::pair<unsigned long const ,tagEVENTINFO> >,0> >::end
; Function compile flags: /Ogty
;	COMDAT ?end@?$_Tree@V?$_Tmap_traits@KUtagEVENTINFO@@U?$less@K@std@@V?$allocator@U?$pair@$$CBKUtagEVENTINFO@@@std@@@3@$0A@@std@@@std@@QAE?AViterator@12@XZ
_TEXT	SEGMENT
___$ReturnUdt$ = 8					; size = 4
?end@?$_Tree@V?$_Tmap_traits@KUtagEVENTINFO@@U?$less@K@std@@V?$allocator@U?$pair@$$CBKUtagEVENTINFO@@@std@@@3@$0A@@std@@@std@@QAE?AViterator@12@XZ PROC NEAR ; std::_Tree<std::_Tmap_traits<unsigned long,tagEVENTINFO,std::less<unsigned long>,std::allocator<std::pair<unsigned long const ,tagEVENTINFO> >,0> >::end, COMDAT
; _this$ = ecx

; 418  : 		return (_TREE_ITERATOR(_Myhead));

  00000	8b 49 04	 mov	 ecx, DWORD PTR [ecx+4]
  00003	8b 44 24 04	 mov	 eax, DWORD PTR ___$ReturnUdt$[esp-4]
  00007	89 08		 mov	 DWORD PTR [eax], ecx

; 419  : 		}

  00009	c2 04 00	 ret	 4
?end@?$_Tree@V?$_Tmap_traits@KUtagEVENTINFO@@U?$less@K@std@@V?$allocator@U?$pair@$$CBKUtagEVENTINFO@@@std@@@3@$0A@@std@@@std@@QAE?AViterator@12@XZ ENDP ; std::_Tree<std::_Tmap_traits<unsigned long,tagEVENTINFO,std::less<unsigned long>,std::allocator<std::pair<unsigned long const ,tagEVENTINFO> >,0> >::end
_TEXT	ENDS
PUBLIC	??Diterator@?$_Tree@V?$_Tmap_traits@KUtagEVENTINFO@@U?$less@K@std@@V?$allocator@U?$pair@$$CBKUtagEVENTINFO@@@std@@@3@$0A@@std@@@std@@QBEAAU?$pair@$$CBKUtagEVENTINFO@@@2@XZ ; std::_Tree<std::_Tmap_traits<unsigned long,tagEVENTINFO,std::less<unsigned long>,std::allocator<std::pair<unsigned long const ,tagEVENTINFO> >,0> >::iterator::operator*
; Function compile flags: /Ogty
;	COMDAT ??Diterator@?$_Tree@V?$_Tmap_traits@KUtagEVENTINFO@@U?$less@K@std@@V?$allocator@U?$pair@$$CBKUtagEVENTINFO@@@std@@@3@$0A@@std@@@std@@QBEAAU?$pair@$$CBKUtagEVENTINFO@@@2@XZ
_TEXT	SEGMENT
??Diterator@?$_Tree@V?$_Tmap_traits@KUtagEVENTINFO@@U?$less@K@std@@V?$allocator@U?$pair@$$CBKUtagEVENTINFO@@@std@@@3@$0A@@std@@@std@@QBEAAU?$pair@$$CBKUtagEVENTINFO@@@2@XZ PROC NEAR ; std::_Tree<std::_Tmap_traits<unsigned long,tagEVENTINFO,std::less<unsigned long>,std::allocator<std::pair<unsigned long const ,tagEVENTINFO> >,0> >::iterator::operator*, COMDAT
; _this$ = ecx

; 317  : 			return ((reference)**(const_iterator *)this);

  00000	8b 01		 mov	 eax, DWORD PTR [ecx]
  00002	83 c0 10	 add	 eax, 16			; 00000010H

; 318  : 			}

  00005	c3		 ret	 0
??Diterator@?$_Tree@V?$_Tmap_traits@KUtagEVENTINFO@@U?$less@K@std@@V?$allocator@U?$pair@$$CBKUtagEVENTINFO@@@std@@@3@$0A@@std@@@std@@QBEAAU?$pair@$$CBKUtagEVENTINFO@@@2@XZ ENDP ; std::_Tree<std::_Tmap_traits<unsigned long,tagEVENTINFO,std::less<unsigned long>,std::allocator<std::pair<unsigned long const ,tagEVENTINFO> >,0> >::iterator::operator*
_TEXT	ENDS
PUBLIC	?begin@?$vector@UtagTCASHITEM@@V?$allocator@UtagTCASHITEM@@@std@@@std@@QAE?AViterator@12@XZ ; std::vector<tagTCASHITEM,std::allocator<tagTCASHITEM> >::begin
; Function compile flags: /Ogty
; File c:\program files (x86)\microsoft visual studio .net 2003\vc7\include\vector
;	COMDAT ?begin@?$vector@UtagTCASHITEM@@V?$allocator@UtagTCASHITEM@@@std@@@std@@QAE?AViterator@12@XZ
_TEXT	SEGMENT
___$ReturnUdt$ = 8					; size = 4
?begin@?$vector@UtagTCASHITEM@@V?$allocator@UtagTCASHITEM@@@std@@@std@@QAE?AViterator@12@XZ PROC NEAR ; std::vector<tagTCASHITEM,std::allocator<tagTCASHITEM> >::begin, COMDAT
; _this$ = ecx

; 463  : 		return (iterator(_Myfirst));

  00000	8b 49 04	 mov	 ecx, DWORD PTR [ecx+4]
  00003	8b 44 24 04	 mov	 eax, DWORD PTR ___$ReturnUdt$[esp-4]
  00007	89 08		 mov	 DWORD PTR [eax], ecx

; 464  : 		}

  00009	c2 04 00	 ret	 4
?begin@?$vector@UtagTCASHITEM@@V?$allocator@UtagTCASHITEM@@@std@@@std@@QAE?AViterator@12@XZ ENDP ; std::vector<tagTCASHITEM,std::allocator<tagTCASHITEM> >::begin
_TEXT	ENDS
PUBLIC	?begin@?$vector@UtagPATCHFILE@@V?$allocator@UtagPATCHFILE@@@std@@@std@@QAE?AViterator@12@XZ ; std::vector<tagPATCHFILE,std::allocator<tagPATCHFILE> >::begin
; Function compile flags: /Ogty
;	COMDAT ?begin@?$vector@UtagPATCHFILE@@V?$allocator@UtagPATCHFILE@@@std@@@std@@QAE?AViterator@12@XZ
_TEXT	SEGMENT
___$ReturnUdt$ = 8					; size = 4
?begin@?$vector@UtagPATCHFILE@@V?$allocator@UtagPATCHFILE@@@std@@@std@@QAE?AViterator@12@XZ PROC NEAR ; std::vector<tagPATCHFILE,std::allocator<tagPATCHFILE> >::begin, COMDAT
; _this$ = ecx

; 463  : 		return (iterator(_Myfirst));

  00000	8b 49 04	 mov	 ecx, DWORD PTR [ecx+4]
  00003	8b 44 24 04	 mov	 eax, DWORD PTR ___$ReturnUdt$[esp-4]
  00007	89 08		 mov	 DWORD PTR [eax], ecx

; 464  : 		}

  00009	c2 04 00	 ret	 4
?begin@?$vector@UtagPATCHFILE@@V?$allocator@UtagPATCHFILE@@@std@@@std@@QAE?AViterator@12@XZ ENDP ; std::vector<tagPATCHFILE,std::allocator<tagPATCHFILE> >::begin
_TEXT	ENDS
PUBLIC	??Econst_iterator@?$_Tree@V?$_Tmap_traits@EPAUtagTSVRTYPE@@U?$less@E@std@@V?$allocator@U?$pair@$$CBEPAUtagTSVRTYPE@@@std@@@3@$0A@@std@@@std@@QAEAAV012@XZ ; std::_Tree<std::_Tmap_traits<unsigned char,tagTSVRTYPE *,std::less<unsigned char>,std::allocator<std::pair<unsigned char const ,tagTSVRTYPE *> >,0> >::const_iterator::operator++
; Function compile flags: /Ogty
; File c:\program files (x86)\microsoft visual studio .net 2003\vc7\include\xtree
;	COMDAT ??Econst_iterator@?$_Tree@V?$_Tmap_traits@EPAUtagTSVRTYPE@@U?$less@E@std@@V?$allocator@U?$pair@$$CBEPAUtagTSVRTYPE@@@std@@@3@$0A@@std@@@std@@QAEAAV012@XZ
_TEXT	SEGMENT
??Econst_iterator@?$_Tree@V?$_Tmap_traits@EPAUtagTSVRTYPE@@U?$less@E@std@@V?$allocator@U?$pair@$$CBEPAUtagTSVRTYPE@@@std@@@3@$0A@@std@@@std@@QAEAAV012@XZ PROC NEAR ; std::_Tree<std::_Tmap_traits<unsigned char,tagTSVRTYPE *,std::less<unsigned char>,std::allocator<std::pair<unsigned char const ,tagTSVRTYPE *> >,0> >::const_iterator::operator++, COMDAT
; _this$ = ecx

; 214  : 			{	// preincrement

  00000	56		 push	 esi
  00001	8b f1		 mov	 esi, ecx

; 215  : 			_Inc();

  00003	e8 00 00 00 00	 call	 ?_Inc@const_iterator@?$_Tree@V?$_Tmap_traits@EPAUtagTSVRTYPE@@U?$less@E@std@@V?$allocator@U?$pair@$$CBEPAUtagTSVRTYPE@@@std@@@3@$0A@@std@@@std@@QAEXXZ ; std::_Tree<std::_Tmap_traits<unsigned char,tagTSVRTYPE *,std::less<unsigned char>,std::allocator<std::pair<unsigned char const ,tagTSVRTYPE *> >,0> >::const_iterator::_Inc

; 216  : 			return (*this);

  00008	8b c6		 mov	 eax, esi
  0000a	5e		 pop	 esi

; 217  : 			}

  0000b	c3		 ret	 0
??Econst_iterator@?$_Tree@V?$_Tmap_traits@EPAUtagTSVRTYPE@@U?$less@E@std@@V?$allocator@U?$pair@$$CBEPAUtagTSVRTYPE@@@std@@@3@$0A@@std@@@std@@QAEAAV012@XZ ENDP ; std::_Tree<std::_Tmap_traits<unsigned char,tagTSVRTYPE *,std::less<unsigned char>,std::allocator<std::pair<unsigned char const ,tagTSVRTYPE *> >,0> >::const_iterator::operator++
_TEXT	ENDS
PUBLIC	??Econst_iterator@?$_Tree@V?$_Tmap_traits@EPAUtagTMACHINE@@U?$less@E@std@@V?$allocator@U?$pair@$$CBEPAUtagTMACHINE@@@std@@@3@$0A@@std@@@std@@QAEAAV012@XZ ; std::_Tree<std::_Tmap_traits<unsigned char,tagTMACHINE *,std::less<unsigned char>,std::allocator<std::pair<unsigned char const ,tagTMACHINE *> >,0> >::const_iterator::operator++
; Function compile flags: /Ogty
;	COMDAT ??Econst_iterator@?$_Tree@V?$_Tmap_traits@EPAUtagTMACHINE@@U?$less@E@std@@V?$allocator@U?$pair@$$CBEPAUtagTMACHINE@@@std@@@3@$0A@@std@@@std@@QAEAAV012@XZ
_TEXT	SEGMENT
??Econst_iterator@?$_Tree@V?$_Tmap_traits@EPAUtagTMACHINE@@U?$less@E@std@@V?$allocator@U?$pair@$$CBEPAUtagTMACHINE@@@std@@@3@$0A@@std@@@std@@QAEAAV012@XZ PROC NEAR ; std::_Tree<std::_Tmap_traits<unsigned char,tagTMACHINE *,std::less<unsigned char>,std::allocator<std::pair<unsigned char const ,tagTMACHINE *> >,0> >::const_iterator::operator++, COMDAT
; _this$ = ecx

; 214  : 			{	// preincrement

  00000	56		 push	 esi
  00001	8b f1		 mov	 esi, ecx

; 215  : 			_Inc();

  00003	e8 00 00 00 00	 call	 ?_Inc@const_iterator@?$_Tree@V?$_Tmap_traits@EPAUtagTMACHINE@@U?$less@E@std@@V?$allocator@U?$pair@$$CBEPAUtagTMACHINE@@@std@@@3@$0A@@std@@@std@@QAEXXZ ; std::_Tree<std::_Tmap_traits<unsigned char,tagTMACHINE *,std::less<unsigned char>,std::allocator<std::pair<unsigned char const ,tagTMACHINE *> >,0> >::const_iterator::_Inc

; 216  : 			return (*this);

  00008	8b c6		 mov	 eax, esi
  0000a	5e		 pop	 esi

; 217  : 			}

  0000b	c3		 ret	 0
??Econst_iterator@?$_Tree@V?$_Tmap_traits@EPAUtagTMACHINE@@U?$less@E@std@@V?$allocator@U?$pair@$$CBEPAUtagTMACHINE@@@std@@@3@$0A@@std@@@std@@QAEAAV012@XZ ENDP ; std::_Tree<std::_Tmap_traits<unsigned char,tagTMACHINE *,std::less<unsigned char>,std::allocator<std::pair<unsigned char const ,tagTMACHINE *> >,0> >::const_iterator::operator++
_TEXT	ENDS
PUBLIC	??Econst_iterator@?$_Tree@V?$_Tmap_traits@EPAUtagTGROUP@@U?$less@E@std@@V?$allocator@U?$pair@$$CBEPAUtagTGROUP@@@std@@@3@$0A@@std@@@std@@QAEAAV012@XZ ; std::_Tree<std::_Tmap_traits<unsigned char,tagTGROUP *,std::less<unsigned char>,std::allocator<std::pair<unsigned char const ,tagTGROUP *> >,0> >::const_iterator::operator++
; Function compile flags: /Ogty
;	COMDAT ??Econst_iterator@?$_Tree@V?$_Tmap_traits@EPAUtagTGROUP@@U?$less@E@std@@V?$allocator@U?$pair@$$CBEPAUtagTGROUP@@@std@@@3@$0A@@std@@@std@@QAEAAV012@XZ
_TEXT	SEGMENT
??Econst_iterator@?$_Tree@V?$_Tmap_traits@EPAUtagTGROUP@@U?$less@E@std@@V?$allocator@U?$pair@$$CBEPAUtagTGROUP@@@std@@@3@$0A@@std@@@std@@QAEAAV012@XZ PROC NEAR ; std::_Tree<std::_Tmap_traits<unsigned char,tagTGROUP *,std::less<unsigned char>,std::allocator<std::pair<unsigned char const ,tagTGROUP *> >,0> >::const_iterator::operator++, COMDAT
; _this$ = ecx

; 214  : 			{	// preincrement

  00000	56		 push	 esi
  00001	8b f1		 mov	 esi, ecx

; 215  : 			_Inc();

  00003	e8 00 00 00 00	 call	 ?_Inc@const_iterator@?$_Tree@V?$_Tmap_traits@EPAUtagTGROUP@@U?$less@E@std@@V?$allocator@U?$pair@$$CBEPAUtagTGROUP@@@std@@@3@$0A@@std@@@std@@QAEXXZ ; std::_Tree<std::_Tmap_traits<unsigned char,tagTGROUP *,std::less<unsigned char>,std::allocator<std::pair<unsigned char const ,tagTGROUP *> >,0> >::const_iterator::_Inc

; 216  : 			return (*this);

  00008	8b c6		 mov	 eax, esi
  0000a	5e		 pop	 esi

; 217  : 			}

  0000b	c3		 ret	 0
??Econst_iterator@?$_Tree@V?$_Tmap_traits@EPAUtagTGROUP@@U?$less@E@std@@V?$allocator@U?$pair@$$CBEPAUtagTGROUP@@@std@@@3@$0A@@std@@@std@@QAEAAV012@XZ ENDP ; std::_Tree<std::_Tmap_traits<unsigned char,tagTGROUP *,std::less<unsigned char>,std::allocator<std::pair<unsigned char const ,tagTGROUP *> >,0> >::const_iterator::operator++
_TEXT	ENDS
PUBLIC	??Econst_iterator@?$_Tree@V?$_Tmap_traits@KPAUtagTSVRTEMP@@U?$less@K@std@@V?$allocator@U?$pair@$$CBKPAUtagTSVRTEMP@@@std@@@3@$0A@@std@@@std@@QAEAAV012@XZ ; std::_Tree<std::_Tmap_traits<unsigned long,tagTSVRTEMP *,std::less<unsigned long>,std::allocator<std::pair<unsigned long const ,tagTSVRTEMP *> >,0> >::const_iterator::operator++
; Function compile flags: /Ogty
;	COMDAT ??Econst_iterator@?$_Tree@V?$_Tmap_traits@KPAUtagTSVRTEMP@@U?$less@K@std@@V?$allocator@U?$pair@$$CBKPAUtagTSVRTEMP@@@std@@@3@$0A@@std@@@std@@QAEAAV012@XZ
_TEXT	SEGMENT
??Econst_iterator@?$_Tree@V?$_Tmap_traits@KPAUtagTSVRTEMP@@U?$less@K@std@@V?$allocator@U?$pair@$$CBKPAUtagTSVRTEMP@@@std@@@3@$0A@@std@@@std@@QAEAAV012@XZ PROC NEAR ; std::_Tree<std::_Tmap_traits<unsigned long,tagTSVRTEMP *,std::less<unsigned long>,std::allocator<std::pair<unsigned long const ,tagTSVRTEMP *> >,0> >::const_iterator::operator++, COMDAT
; _this$ = ecx

; 214  : 			{	// preincrement

  00000	56		 push	 esi
  00001	8b f1		 mov	 esi, ecx

; 215  : 			_Inc();

  00003	e8 00 00 00 00	 call	 ?_Inc@const_iterator@?$_Tree@V?$_Tmap_traits@KPAUtagTSVRTEMP@@U?$less@K@std@@V?$allocator@U?$pair@$$CBKPAUtagTSVRTEMP@@@std@@@3@$0A@@std@@@std@@QAEXXZ ; std::_Tree<std::_Tmap_traits<unsigned long,tagTSVRTEMP *,std::less<unsigned long>,std::allocator<std::pair<unsigned long const ,tagTSVRTEMP *> >,0> >::const_iterator::_Inc

; 216  : 			return (*this);

  00008	8b c6		 mov	 eax, esi
  0000a	5e		 pop	 esi

; 217  : 			}

  0000b	c3		 ret	 0
??Econst_iterator@?$_Tree@V?$_Tmap_traits@KPAUtagTSVRTEMP@@U?$less@K@std@@V?$allocator@U?$pair@$$CBKPAUtagTSVRTEMP@@@std@@@3@$0A@@std@@@std@@QAEAAV012@XZ ENDP ; std::_Tree<std::_Tmap_traits<unsigned long,tagTSVRTEMP *,std::less<unsigned long>,std::allocator<std::pair<unsigned long const ,tagTSVRTEMP *> >,0> >::const_iterator::operator++
_TEXT	ENDS
PUBLIC	??Econst_iterator@?$_Tree@V?$_Tmap_traits@KPAUtagBANINFO@@U?$less@K@std@@V?$allocator@U?$pair@$$CBKPAUtagBANINFO@@@std@@@3@$0A@@std@@@std@@QAEAAV012@XZ ; std::_Tree<std::_Tmap_traits<unsigned long,tagBANINFO *,std::less<unsigned long>,std::allocator<std::pair<unsigned long const ,tagBANINFO *> >,0> >::const_iterator::operator++
; Function compile flags: /Ogty
;	COMDAT ??Econst_iterator@?$_Tree@V?$_Tmap_traits@KPAUtagBANINFO@@U?$less@K@std@@V?$allocator@U?$pair@$$CBKPAUtagBANINFO@@@std@@@3@$0A@@std@@@std@@QAEAAV012@XZ
_TEXT	SEGMENT
??Econst_iterator@?$_Tree@V?$_Tmap_traits@KPAUtagBANINFO@@U?$less@K@std@@V?$allocator@U?$pair@$$CBKPAUtagBANINFO@@@std@@@3@$0A@@std@@@std@@QAEAAV012@XZ PROC NEAR ; std::_Tree<std::_Tmap_traits<unsigned long,tagBANINFO *,std::less<unsigned long>,std::allocator<std::pair<unsigned long const ,tagBANINFO *> >,0> >::const_iterator::operator++, COMDAT
; _this$ = ecx

; 214  : 			{	// preincrement

  00000	56		 push	 esi
  00001	8b f1		 mov	 esi, ecx

; 215  : 			_Inc();

  00003	e8 00 00 00 00	 call	 ?_Inc@const_iterator@?$_Tree@V?$_Tmap_traits@KPAUtagBANINFO@@U?$less@K@std@@V?$allocator@U?$pair@$$CBKPAUtagBANINFO@@@std@@@3@$0A@@std@@@std@@QAEXXZ ; std::_Tree<std::_Tmap_traits<unsigned long,tagBANINFO *,std::less<unsigned long>,std::allocator<std::pair<unsigned long const ,tagBANINFO *> >,0> >::const_iterator::_Inc

; 216  : 			return (*this);

  00008	8b c6		 mov	 eax, esi
  0000a	5e		 pop	 esi

; 217  : 			}

  0000b	c3		 ret	 0
??Econst_iterator@?$_Tree@V?$_Tmap_traits@KPAUtagBANINFO@@U?$less@K@std@@V?$allocator@U?$pair@$$CBKPAUtagBANINFO@@@std@@@3@$0A@@std@@@std@@QAEAAV012@XZ ENDP ; std::_Tree<std::_Tmap_traits<unsigned long,tagBANINFO *,std::less<unsigned long>,std::allocator<std::pair<unsigned long const ,tagBANINFO *> >,0> >::const_iterator::operator++
_TEXT	ENDS
PUBLIC	??Econst_iterator@?$_Tree@V?$_Tmap_traits@KUtagEVENTINFO@@U?$less@K@std@@V?$allocator@U?$pair@$$CBKUtagEVENTINFO@@@std@@@3@$0A@@std@@@std@@QAEAAV012@XZ ; std::_Tree<std::_Tmap_traits<unsigned long,tagEVENTINFO,std::less<unsigned long>,std::allocator<std::pair<unsigned long const ,tagEVENTINFO> >,0> >::const_iterator::operator++
; Function compile flags: /Ogty
;	COMDAT ??Econst_iterator@?$_Tree@V?$_Tmap_traits@KUtagEVENTINFO@@U?$less@K@std@@V?$allocator@U?$pair@$$CBKUtagEVENTINFO@@@std@@@3@$0A@@std@@@std@@QAEAAV012@XZ
_TEXT	SEGMENT
??Econst_iterator@?$_Tree@V?$_Tmap_traits@KUtagEVENTINFO@@U?$less@K@std@@V?$allocator@U?$pair@$$CBKUtagEVENTINFO@@@std@@@3@$0A@@std@@@std@@QAEAAV012@XZ PROC NEAR ; std::_Tree<std::_Tmap_traits<unsigned long,tagEVENTINFO,std::less<unsigned long>,std::allocator<std::pair<unsigned long const ,tagEVENTINFO> >,0> >::const_iterator::operator++, COMDAT
; _this$ = ecx

; 214  : 			{	// preincrement

  00000	56		 push	 esi
  00001	8b f1		 mov	 esi, ecx

; 215  : 			_Inc();

  00003	e8 00 00 00 00	 call	 ?_Inc@const_iterator@?$_Tree@V?$_Tmap_traits@KUtagEVENTINFO@@U?$less@K@std@@V?$allocator@U?$pair@$$CBKUtagEVENTINFO@@@std@@@3@$0A@@std@@@std@@QAEXXZ ; std::_Tree<std::_Tmap_traits<unsigned long,tagEVENTINFO,std::less<unsigned long>,std::allocator<std::pair<unsigned long const ,tagEVENTINFO> >,0> >::const_iterator::_Inc

; 216  : 			return (*this);

  00008	8b c6		 mov	 eax, esi
  0000a	5e		 pop	 esi

; 217  : 			}

  0000b	c3		 ret	 0
??Econst_iterator@?$_Tree@V?$_Tmap_traits@KUtagEVENTINFO@@U?$less@K@std@@V?$allocator@U?$pair@$$CBKUtagEVENTINFO@@@std@@@3@$0A@@std@@@std@@QAEAAV012@XZ ENDP ; std::_Tree<std::_Tmap_traits<unsigned long,tagEVENTINFO,std::less<unsigned long>,std::allocator<std::pair<unsigned long const ,tagEVENTINFO> >,0> >::const_iterator::operator++
_TEXT	ENDS
PUBLIC	??1?$CStringT@DV?$StrTraitATL@DV?$ChTraitsCRT@D@ATL@@@ATL@@@ATL@@QAE@XZ ; ATL::CStringT<char,ATL::StrTraitATL<char,ATL::ChTraitsCRT<char> > >::~CStringT<char,ATL::StrTraitATL<char,ATL::ChTraitsCRT<char> > >
; Function compile flags: /Ogty
; File c:\program files (x86)\microsoft visual studio .net 2003\vc7\atlmfc\include\cstringt.h
;	COMDAT ??1?$CStringT@DV?$StrTraitATL@DV?$ChTraitsCRT@D@ATL@@@ATL@@@ATL@@QAE@XZ
_TEXT	SEGMENT
??1?$CStringT@DV?$StrTraitATL@DV?$ChTraitsCRT@D@ATL@@@ATL@@@ATL@@QAE@XZ PROC NEAR ; ATL::CStringT<char,ATL::StrTraitATL<char,ATL::ChTraitsCRT<char> > >::~CStringT<char,ATL::StrTraitATL<char,ATL::ChTraitsCRT<char> > >, COMDAT
; _this$ = ecx

; 963  : 	}

  00000	8b 01		 mov	 eax, DWORD PTR [ecx]
  00002	83 e8 10	 sub	 eax, 16			; 00000010H
  00005	8d 48 0c	 lea	 ecx, DWORD PTR [eax+12]
  00008	83 ca ff	 or	 edx, -1
  0000b	f0 0f c1 11	 lock	  xadd	 DWORD PTR [ecx], edx
  0000f	4a		 dec	 edx
  00010	85 d2		 test	 edx, edx
  00012	7f 08		 jg	 SHORT $L94960
  00014	8b 08		 mov	 ecx, DWORD PTR [eax]
  00016	8b 11		 mov	 edx, DWORD PTR [ecx]
  00018	50		 push	 eax
  00019	ff 52 04	 call	 DWORD PTR [edx+4]
$L94960:
  0001c	c3		 ret	 0
??1?$CStringT@DV?$StrTraitATL@DV?$ChTraitsCRT@D@ATL@@@ATL@@@ATL@@QAE@XZ ENDP ; ATL::CStringT<char,ATL::StrTraitATL<char,ATL::ChTraitsCRT<char> > >::~CStringT<char,ATL::StrTraitATL<char,ATL::ChTraitsCRT<char> > >
_TEXT	ENDS
PUBLIC	??0?$CSimpleStringT@D$0A@@ATL@@QAE@ABV01@@Z	; ATL::CSimpleStringT<char,0>::CSimpleStringT<char,0>
; Function compile flags: /Ogty
; File c:\program files (x86)\microsoft visual studio .net 2003\vc7\atlmfc\include\atlsimpstr.h
;	COMDAT ??0?$CSimpleStringT@D$0A@@ATL@@QAE@ABV01@@Z
_TEXT	SEGMENT
_strSrc$ = 8						; size = 4
??0?$CSimpleStringT@D$0A@@ATL@@QAE@ABV01@@Z PROC NEAR	; ATL::CSimpleStringT<char,0>::CSimpleStringT<char,0>, COMDAT
; _this$ = ecx

; 218  : 	{
; 219  : 		CStringData* pSrcData = strSrc.GetData();

  00000	8b 44 24 04	 mov	 eax, DWORD PTR _strSrc$[esp-4]
  00004	8b 00		 mov	 eax, DWORD PTR [eax]
  00006	56		 push	 esi
  00007	83 e8 10	 sub	 eax, 16			; 00000010H

; 220  : 		CStringData* pNewData = CloneData( pSrcData );

  0000a	50		 push	 eax
  0000b	8b f1		 mov	 esi, ecx
  0000d	e8 00 00 00 00	 call	 ?CloneData@?$CSimpleStringT@D$0A@@ATL@@CAPAUCStringData@2@PAU32@@Z ; ATL::CSimpleStringT<char,0>::CloneData

; 221  : 		Attach( pNewData );

  00012	83 c0 10	 add	 eax, 16			; 00000010H
  00015	89 06		 mov	 DWORD PTR [esi], eax
  00017	83 c4 04	 add	 esp, 4

; 222  : 	}

  0001a	8b c6		 mov	 eax, esi
  0001c	5e		 pop	 esi
  0001d	c2 04 00	 ret	 4
??0?$CSimpleStringT@D$0A@@ATL@@QAE@ABV01@@Z ENDP	; ATL::CSimpleStringT<char,0>::CSimpleStringT<char,0>
_TEXT	ENDS
PUBLIC	?_Tidy@?$basic_string@DU?$char_traits@D@std@@V?$allocator@D@2@@std@@IAEX_NI@Z ; std::basic_string<char,std::char_traits<char>,std::allocator<char> >::_Tidy
; Function compile flags: /Ogty
; File c:\program files (x86)\microsoft visual studio .net 2003\vc7\include\xstring
;	COMDAT ?_Tidy@?$basic_string@DU?$char_traits@D@std@@V?$allocator@D@2@@std@@IAEX_NI@Z
_TEXT	SEGMENT
__Built$ = 8						; size = 1
__Newsize$ = 12						; size = 4
?_Tidy@?$basic_string@DU?$char_traits@D@std@@V?$allocator@D@2@@std@@IAEX_NI@Z PROC NEAR ; std::basic_string<char,std::char_traits<char>,std::allocator<char> >::_Tidy, COMDAT
; _this$ = ecx

; 1510 : 		if (!_Built)

  00000	8a 44 24 04	 mov	 al, BYTE PTR __Built$[esp-4]
  00004	84 c0		 test	 al, al
  00006	53		 push	 ebx
  00007	55		 push	 ebp
  00008	8b 6c 24 10	 mov	 ebp, DWORD PTR __Newsize$[esp+4]
  0000c	8b d9		 mov	 ebx, ecx
  0000e	74 2f		 je	 SHORT $L94983

; 1511 : 			;
; 1512 : 		else if (_BUF_SIZE <= _Myres)

  00010	83 7b 18 10	 cmp	 DWORD PTR [ebx+24], 16	; 00000010H
  00014	72 29		 jb	 SHORT $L94983

; 1513 : 			{	// copy any leftovers to small buffer and deallocate
; 1514 : 			_Elem *_Ptr = _Bx._Ptr;
; 1515 : 			if (0 < _Newsize)

  00016	85 ed		 test	 ebp, ebp
  00018	8b 43 04	 mov	 eax, DWORD PTR [ebx+4]
  0001b	57		 push	 edi
  0001c	8d 7b 04	 lea	 edi, DWORD PTR [ebx+4]
  0001f	76 14		 jbe	 SHORT $L94981
  00021	56		 push	 esi

; 1516 : 				_Traits::copy(_Bx._Buf, _Ptr, _Newsize);

  00022	8b cd		 mov	 ecx, ebp
  00024	8b d1		 mov	 edx, ecx
  00026	c1 e9 02	 shr	 ecx, 2
  00029	8b f0		 mov	 esi, eax
  0002b	f3 a5		 rep movsd
  0002d	8b ca		 mov	 ecx, edx
  0002f	83 e1 03	 and	 ecx, 3
  00032	f3 a4		 rep movsb
  00034	5e		 pop	 esi
$L94981:

; 1517 : 			_Mybase::_Alval.deallocate(_Ptr, _Myres + 1);

  00035	50		 push	 eax
  00036	e8 00 00 00 00	 call	 ??3@YAXPAX@Z		; operator delete
  0003b	83 c4 04	 add	 esp, 4
  0003e	5f		 pop	 edi
$L94983:

; 1518 : 			}
; 1519 : 		_Myres = _BUF_SIZE - 1;
; 1520 : 		_Eos(_Newsize);

  0003f	89 6b 14	 mov	 DWORD PTR [ebx+20], ebp
  00042	c7 43 18 0f 00
	00 00		 mov	 DWORD PTR [ebx+24], 15	; 0000000fH
  00049	c6 44 2b 04 00	 mov	 BYTE PTR [ebx+ebp+4], 0
  0004e	5d		 pop	 ebp
  0004f	5b		 pop	 ebx

; 1521 : 		}

  00050	c2 08 00	 ret	 8
?_Tidy@?$basic_string@DU?$char_traits@D@std@@V?$allocator@D@2@@std@@IAEX_NI@Z ENDP ; std::basic_string<char,std::char_traits<char>,std::allocator<char> >::_Tidy
_TEXT	ENDS
PUBLIC	?begin@?$vector@GV?$allocator@G@std@@@std@@QAE?AViterator@12@XZ ; std::vector<unsigned short,std::allocator<unsigned short> >::begin
; Function compile flags: /Ogty
; File c:\program files (x86)\microsoft visual studio .net 2003\vc7\include\vector
;	COMDAT ?begin@?$vector@GV?$allocator@G@std@@@std@@QAE?AViterator@12@XZ
_TEXT	SEGMENT
___$ReturnUdt$ = 8					; size = 4
?begin@?$vector@GV?$allocator@G@std@@@std@@QAE?AViterator@12@XZ PROC NEAR ; std::vector<unsigned short,std::allocator<unsigned short> >::begin, COMDAT
; _this$ = ecx

; 463  : 		return (iterator(_Myfirst));

  00000	8b 49 04	 mov	 ecx, DWORD PTR [ecx+4]
  00003	8b 44 24 04	 mov	 eax, DWORD PTR ___$ReturnUdt$[esp-4]
  00007	89 08		 mov	 DWORD PTR [eax], ecx

; 464  : 		}

  00009	c2 04 00	 ret	 4
?begin@?$vector@GV?$allocator@G@std@@@std@@QAE?AViterator@12@XZ ENDP ; std::vector<unsigned short,std::allocator<unsigned short> >::begin
_TEXT	ENDS
PUBLIC	?begin@?$vector@UtagTCASHITEMSALE@@V?$allocator@UtagTCASHITEMSALE@@@std@@@std@@QAE?AViterator@12@XZ ; std::vector<tagTCASHITEMSALE,std::allocator<tagTCASHITEMSALE> >::begin
; Function compile flags: /Ogty
;	COMDAT ?begin@?$vector@UtagTCASHITEMSALE@@V?$allocator@UtagTCASHITEMSALE@@@std@@@std@@QAE?AViterator@12@XZ
_TEXT	SEGMENT
___$ReturnUdt$ = 8					; size = 4
?begin@?$vector@UtagTCASHITEMSALE@@V?$allocator@UtagTCASHITEMSALE@@@std@@@std@@QAE?AViterator@12@XZ PROC NEAR ; std::vector<tagTCASHITEMSALE,std::allocator<tagTCASHITEMSALE> >::begin, COMDAT
; _this$ = ecx

; 463  : 		return (iterator(_Myfirst));

  00000	8b 49 04	 mov	 ecx, DWORD PTR [ecx+4]
  00003	8b 44 24 04	 mov	 eax, DWORD PTR ___$ReturnUdt$[esp-4]
  00007	89 08		 mov	 DWORD PTR [eax], ecx

; 464  : 		}

  00009	c2 04 00	 ret	 4
?begin@?$vector@UtagTCASHITEMSALE@@V?$allocator@UtagTCASHITEMSALE@@@std@@@std@@QAE?AViterator@12@XZ ENDP ; std::vector<tagTCASHITEMSALE,std::allocator<tagTCASHITEMSALE> >::begin
_TEXT	ENDS
PUBLIC	?begin@?$vector@UtagMONREGEN@@V?$allocator@UtagMONREGEN@@@std@@@std@@QAE?AViterator@12@XZ ; std::vector<tagMONREGEN,std::allocator<tagMONREGEN> >::begin
; Function compile flags: /Ogty
;	COMDAT ?begin@?$vector@UtagMONREGEN@@V?$allocator@UtagMONREGEN@@@std@@@std@@QAE?AViterator@12@XZ
_TEXT	SEGMENT
___$ReturnUdt$ = 8					; size = 4
?begin@?$vector@UtagMONREGEN@@V?$allocator@UtagMONREGEN@@@std@@@std@@QAE?AViterator@12@XZ PROC NEAR ; std::vector<tagMONREGEN,std::allocator<tagMONREGEN> >::begin, COMDAT
; _this$ = ecx

; 463  : 		return (iterator(_Myfirst));

  00000	8b 49 04	 mov	 ecx, DWORD PTR [ecx+4]
  00003	8b 44 24 04	 mov	 eax, DWORD PTR ___$ReturnUdt$[esp-4]
  00007	89 08		 mov	 DWORD PTR [eax], ecx

; 464  : 		}

  00009	c2 04 00	 ret	 4
?begin@?$vector@UtagMONREGEN@@V?$allocator@UtagMONREGEN@@@std@@@std@@QAE?AViterator@12@XZ ENDP ; std::vector<tagMONREGEN,std::allocator<tagMONREGEN> >::begin
_TEXT	ENDS
PUBLIC	?begin@?$vector@UtagLOTTERY@@V?$allocator@UtagLOTTERY@@@std@@@std@@QAE?AViterator@12@XZ ; std::vector<tagLOTTERY,std::allocator<tagLOTTERY> >::begin
; Function compile flags: /Ogty
;	COMDAT ?begin@?$vector@UtagLOTTERY@@V?$allocator@UtagLOTTERY@@@std@@@std@@QAE?AViterator@12@XZ
_TEXT	SEGMENT
___$ReturnUdt$ = 8					; size = 4
?begin@?$vector@UtagLOTTERY@@V?$allocator@UtagLOTTERY@@@std@@@std@@QAE?AViterator@12@XZ PROC NEAR ; std::vector<tagLOTTERY,std::allocator<tagLOTTERY> >::begin, COMDAT
; _this$ = ecx

; 463  : 		return (iterator(_Myfirst));

  00000	8b 49 04	 mov	 ecx, DWORD PTR [ecx+4]
  00003	8b 44 24 04	 mov	 eax, DWORD PTR ___$ReturnUdt$[esp-4]
  00007	89 08		 mov	 DWORD PTR [eax], ecx

; 464  : 		}

  00009	c2 04 00	 ret	 4
?begin@?$vector@UtagLOTTERY@@V?$allocator@UtagLOTTERY@@@std@@@std@@QAE?AViterator@12@XZ ENDP ; std::vector<tagLOTTERY,std::allocator<tagLOTTERY> >::begin
_TEXT	ENDS
PUBLIC	?erase@?$basic_string@DU?$char_traits@D@std@@V?$allocator@D@2@@std@@QAEAAV12@II@Z ; std::basic_string<char,std::char_traits<char>,std::allocator<char> >::erase
EXTRN	?_Xran@_String_base@std@@QBEXXZ:NEAR		; std::_String_base::_Xran
; Function compile flags: /Ogty
; File c:\program files (x86)\microsoft visual studio .net 2003\vc7\include\xstring
;	COMDAT ?erase@?$basic_string@DU?$char_traits@D@std@@V?$allocator@D@2@@std@@QAEAAV12@II@Z
_TEXT	SEGMENT
__Off$ = 8						; size = 4
__Count$ = 12						; size = 4
?erase@?$basic_string@DU?$char_traits@D@std@@V?$allocator@D@2@@std@@QAEAAV12@II@Z PROC NEAR ; std::basic_string<char,std::char_traits<char>,std::allocator<char> >::erase, COMDAT
; _this$ = ecx

; 792  : 		{	// erase elements [_Off, _Off + _Count)

  00000	55		 push	 ebp

; 793  : 		if (_Mysize < _Off)

  00001	8b 6c 24 08	 mov	 ebp, DWORD PTR __Off$[esp]
  00005	56		 push	 esi
  00006	8b f1		 mov	 esi, ecx
  00008	39 6e 14	 cmp	 DWORD PTR [esi+20], ebp
  0000b	57		 push	 edi
  0000c	73 05		 jae	 SHORT $L86152

; 794  : 			_String_base::_Xran();	// _Off off end

  0000e	e8 00 00 00 00	 call	 ?_Xran@_String_base@std@@QBEXXZ ; std::_String_base::_Xran
$L86152:

; 795  : 		if (_Mysize - _Off < _Count)

  00013	8b 46 14	 mov	 eax, DWORD PTR [esi+20]
  00016	8b 7c 24 14	 mov	 edi, DWORD PTR __Count$[esp+8]
  0001a	2b c5		 sub	 eax, ebp
  0001c	3b c7		 cmp	 eax, edi
  0001e	73 02		 jae	 SHORT $L86153

; 796  : 			_Count = _Mysize - _Off;	// trim _Count

  00020	8b f8		 mov	 edi, eax
$L86153:

; 797  : 		if (0 < _Count)

  00022	85 ff		 test	 edi, edi
  00024	76 47		 jbe	 SHORT $L95097

; 798  : 			{	// move elements down
; 799  : 			_Traits::move(_Myptr() + _Off, _Myptr() + _Off + _Count,
; 800  : 				_Mysize - _Off - _Count);

  00026	8b 4e 18	 mov	 ecx, DWORD PTR [esi+24]
  00029	83 f9 10	 cmp	 ecx, 16			; 00000010H
  0002c	53		 push	 ebx
  0002d	8d 5e 04	 lea	 ebx, DWORD PTR [esi+4]
  00030	72 04		 jb	 SHORT $L95063
  00032	8b 13		 mov	 edx, DWORD PTR [ebx]
  00034	eb 02		 jmp	 SHORT $L95064
$L95063:
  00036	8b d3		 mov	 edx, ebx
$L95064:
  00038	83 f9 10	 cmp	 ecx, 16			; 00000010H
  0003b	72 04		 jb	 SHORT $L95070
  0003d	8b 0b		 mov	 ecx, DWORD PTR [ebx]
  0003f	eb 02		 jmp	 SHORT $L95071
$L95070:
  00041	8b cb		 mov	 ecx, ebx
$L95071:
  00043	2b c7		 sub	 eax, edi

; 803  : 			}
; 804  : 		return (*this);

  00045	03 d5		 add	 edx, ebp
  00047	50		 push	 eax
  00048	03 d7		 add	 edx, edi
  0004a	52		 push	 edx
  0004b	03 cd		 add	 ecx, ebp
  0004d	51		 push	 ecx
  0004e	e8 00 00 00 00	 call	 _memmove
  00053	8b 46 14	 mov	 eax, DWORD PTR [esi+20]
  00056	8b 4e 18	 mov	 ecx, DWORD PTR [esi+24]
  00059	2b c7		 sub	 eax, edi
  0005b	83 c4 0c	 add	 esp, 12			; 0000000cH
  0005e	83 f9 10	 cmp	 ecx, 16			; 00000010H
  00061	89 46 14	 mov	 DWORD PTR [esi+20], eax
  00064	72 02		 jb	 SHORT $L95094

; 801  : 			size_type _Newsize = _Mysize - _Count;
; 802  : 			_Eos(_Newsize);

  00066	8b 1b		 mov	 ebx, DWORD PTR [ebx]
$L95094:
  00068	c6 04 03 00	 mov	 BYTE PTR [ebx+eax], 0
  0006c	5b		 pop	 ebx
$L95097:
  0006d	5f		 pop	 edi

; 803  : 			}
; 804  : 		return (*this);

  0006e	8b c6		 mov	 eax, esi
  00070	5e		 pop	 esi
  00071	5d		 pop	 ebp

; 805  : 		}

  00072	c2 08 00	 ret	 8
?erase@?$basic_string@DU?$char_traits@D@std@@V?$allocator@D@2@@std@@QAEAAV12@II@Z ENDP ; std::basic_string<char,std::char_traits<char>,std::allocator<char> >::erase
_TEXT	ENDS
PUBLIC	?_Copy@?$basic_string@DU?$char_traits@D@std@@V?$allocator@D@2@@std@@IAEXII@Z ; std::basic_string<char,std::char_traits<char>,std::allocator<char> >::_Copy
;	COMDAT xdata$x
; File c:\program files (x86)\microsoft visual studio .net 2003\vc7\include\iosfwd
xdata$x	SEGMENT
$T95301	DD	0ffffffffH
	DD	00H
	DD	0ffffffffH
	DD	00H
	DD	01H
	DD	00H
	DD	01H
	DD	00H
$T95303	DD	00H
	DD	00H
	DD	00H
	DD	FLAT:$L95104
$T95304	DD	00H
	DD	00H
	DD	00H
	DD	FLAT:$L95102
$T95302	DD	02H
	DD	02H
	DD	03H
	DD	01H
	DD	FLAT:$T95303
	DD	00H
	DD	00H
	DD	03H
	DD	01H
	DD	FLAT:$T95304
$T95296	DD	019930520H
	DD	04H
	DD	FLAT:$T95301
	DD	02H
	DD	FLAT:$T95302
	DD	2 DUP(00H)
; Function compile flags: /Ogty
; File c:\program files (x86)\microsoft visual studio .net 2003\vc7\include\xstring
xdata$x	ENDS
;	COMDAT ?_Copy@?$basic_string@DU?$char_traits@D@std@@V?$allocator@D@2@@std@@IAEXII@Z
_TEXT	SEGMENT
__Newres$ = -24						; size = 4
_this$ = -20						; size = 4
__$EHRec$ = -16						; size = 16
__Ptr$ = 8						; size = 4
__Newsize$ = 8						; size = 4
__Oldlen$ = 12						; size = 4
?_Copy@?$basic_string@DU?$char_traits@D@std@@V?$allocator@D@2@@std@@IAEXII@Z PROC NEAR ; std::basic_string<char,std::char_traits<char>,std::allocator<char> >::_Copy, COMDAT
; _this$ = ecx

; 1444 : 		{	// copy _Oldlen elements to newly allocated buffer

  00000	55		 push	 ebp
  00001	8b ec		 mov	 ebp, esp
  00003	6a ff		 push	 -1
  00005	68 00 00 00 00	 push	 __ehhandler$?_Copy@?$basic_string@DU?$char_traits@D@std@@V?$allocator@D@2@@std@@IAEXII@Z
  0000a	64 a1 00 00 00
	00		 mov	 eax, DWORD PTR fs:__except_list
  00010	50		 push	 eax
  00011	64 89 25 00 00
	00 00		 mov	 DWORD PTR fs:__except_list, esp
  00018	83 ec 0c	 sub	 esp, 12			; 0000000cH

; 1445 : 		size_type _Newres = _Newsize | _ALLOC_MASK;

  0001b	8b 45 08	 mov	 eax, DWORD PTR __Newsize$[ebp]
  0001e	53		 push	 ebx
  0001f	56		 push	 esi
  00020	8b d8		 mov	 ebx, eax
  00022	83 cb 0f	 or	 ebx, 15			; 0000000fH

; 1446 : 		if (max_size() < _Newres)

  00025	83 fb fe	 cmp	 ebx, -2			; fffffffeH
  00028	57		 push	 edi
  00029	8b f1		 mov	 esi, ecx
  0002b	89 65 f0	 mov	 DWORD PTR __$EHRec$[ebp], esp
  0002e	89 75 ec	 mov	 DWORD PTR _this$[ebp], esi
  00031	76 04		 jbe	 SHORT $L86478

; 1447 : 			_Newres = _Newsize;	// undo roundup if too big

  00033	8b d8		 mov	 ebx, eax

; 1448 : 		else if (_Newres / 3 < _Myres / 2

  00035	eb 22		 jmp	 SHORT $L86480
$L86478:

; 1449 : 			&& _Myres <= max_size() - _Myres / 2)

  00037	8b 7e 18	 mov	 edi, DWORD PTR [esi+24]
  0003a	b8 ab aa aa aa	 mov	 eax, -1431655765	; aaaaaaabH
  0003f	f7 e3		 mul	 ebx
  00041	8b cf		 mov	 ecx, edi
  00043	d1 e9		 shr	 ecx, 1
  00045	d1 ea		 shr	 edx, 1
  00047	3b d1		 cmp	 edx, ecx
  00049	73 0e		 jae	 SHORT $L86480
  0004b	b8 fe ff ff ff	 mov	 eax, -2			; fffffffeH
  00050	2b c1		 sub	 eax, ecx
  00052	3b f8		 cmp	 edi, eax
  00054	77 03		 ja	 SHORT $L86480

; 1450 : 			_Newres = _Myres + _Myres / 2;	// grow exponentially if possible

  00056	8d 1c 39	 lea	 ebx, DWORD PTR [ecx+edi]
$L86480:

; 1451 : 		_Elem *_Ptr;
; 1452 : 
; 1453 : 		_TRY_BEGIN
; 1454 : 			_Ptr = _Mybase::_Alval.allocate(_Newres + 1);

  00059	8d 4b 01	 lea	 ecx, DWORD PTR [ebx+1]
  0005c	51		 push	 ecx
  0005d	c7 45 fc 00 00
	00 00		 mov	 DWORD PTR __$EHRec$[ebp+12], 0
  00064	e8 00 00 00 00	 call	 ??2@YAPAXI@Z		; operator new
  00069	8b d0		 mov	 edx, eax
  0006b	83 c4 04	 add	 esp, 4
  0006e	89 55 08	 mov	 DWORD PTR __Ptr$[ebp], edx
  00071	eb 29		 jmp	 SHORT $L86482
$L95102:

; 1455 : 		_CATCH_ALL
; 1456 : 			_Newres = _Newsize;	// allocation failed, undo roundup and retry

  00073	8b 45 08	 mov	 eax, DWORD PTR __Newsize$[ebp]
  00076	89 45 e8	 mov	 DWORD PTR __Newres$[ebp], eax

; 1457 : 			_TRY_BEGIN
; 1458 : 				_Ptr = _Mybase::_Alval.allocate(_Newres + 1);

  00079	40		 inc	 eax
  0007a	89 65 f0	 mov	 DWORD PTR __$EHRec$[ebp], esp
  0007d	50		 push	 eax
  0007e	c6 45 fc 02	 mov	 BYTE PTR __$EHRec$[ebp+12], 2
  00082	e8 00 00 00 00	 call	 ??2@YAPAXI@Z		; operator new
  00087	89 45 08	 mov	 DWORD PTR __Ptr$[ebp], eax
  0008a	83 c4 04	 add	 esp, 4

; 1462 : 			_CATCH_END
; 1463 : 		_CATCH_END

  0008d	b8 00 00 00 00	 mov	 eax, $L95297
  00092	c3		 ret	 0
$L95297:
  00093	8b 5d e8	 mov	 ebx, DWORD PTR __Newres$[ebp]
  00096	8b 75 ec	 mov	 esi, DWORD PTR _this$[ebp]
  00099	8b 55 08	 mov	 edx, DWORD PTR __Ptr$[ebp]
$L86482:

; 1464 : 
; 1465 : 		if (0 < _Oldlen)

  0009c	8b 4d 0c	 mov	 ecx, DWORD PTR __Oldlen$[ebp]
  0009f	85 c9		 test	 ecx, ecx
  000a1	76 24		 jbe	 SHORT $L95221

; 1466 : 			_Traits::copy(_Ptr, _Myptr(), _Oldlen);	// copy existing elements

  000a3	83 7e 18 10	 cmp	 DWORD PTR [esi+24], 16	; 00000010H
  000a7	72 05		 jb	 SHORT $L95218
  000a9	8b 76 04	 mov	 esi, DWORD PTR [esi+4]
  000ac	eb 03		 jmp	 SHORT $L95219
$L95218:
  000ae	83 c6 04	 add	 esi, 4
$L95219:
  000b1	8b c1		 mov	 eax, ecx
  000b3	c1 e9 02	 shr	 ecx, 2
  000b6	8b fa		 mov	 edi, edx
  000b8	f3 a5		 rep movsd
  000ba	8b c8		 mov	 ecx, eax
  000bc	83 e1 03	 and	 ecx, 3
  000bf	f3 a4		 rep movsb
  000c1	8b 75 ec	 mov	 esi, DWORD PTR _this$[ebp]
  000c4	8b 4d 0c	 mov	 ecx, DWORD PTR __Oldlen$[ebp]
$L95221:

; 1467 : 		_Tidy(true);

  000c7	83 7e 18 10	 cmp	 DWORD PTR [esi+24], 16	; 00000010H
  000cb	72 12		 jb	 SHORT $L95272
  000cd	8b 4e 04	 mov	 ecx, DWORD PTR [esi+4]
  000d0	51		 push	 ecx
  000d1	e8 00 00 00 00	 call	 ??3@YAXPAX@Z		; operator delete
  000d6	8b 55 08	 mov	 edx, DWORD PTR __Ptr$[ebp]
  000d9	8b 4d 0c	 mov	 ecx, DWORD PTR __Oldlen$[ebp]
  000dc	83 c4 04	 add	 esp, 4
$L95272:

; 1468 : 		_Bx._Ptr = _Ptr;
; 1469 : 		_Myres = _Newres;
; 1470 : 		_Eos(_Oldlen);

  000df	83 fb 10	 cmp	 ebx, 16			; 00000010H
  000e2	8d 46 04	 lea	 eax, DWORD PTR [esi+4]
  000e5	c6 00 00	 mov	 BYTE PTR [eax], 0
  000e8	89 10		 mov	 DWORD PTR [eax], edx
  000ea	89 5e 18	 mov	 DWORD PTR [esi+24], ebx
  000ed	89 4e 14	 mov	 DWORD PTR [esi+20], ecx
  000f0	72 02		 jb	 SHORT $L95290
  000f2	8b c2		 mov	 eax, edx
$L95290:

; 1471 : 		}

  000f4	5f		 pop	 edi
  000f5	c6 04 08 00	 mov	 BYTE PTR [eax+ecx], 0
  000f9	8b 4d f4	 mov	 ecx, DWORD PTR __$EHRec$[ebp+4]
  000fc	5e		 pop	 esi
  000fd	64 89 0d 00 00
	00 00		 mov	 DWORD PTR fs:__except_list, ecx
  00104	5b		 pop	 ebx
  00105	8b e5		 mov	 esp, ebp
  00107	5d		 pop	 ebp
  00108	c2 08 00	 ret	 8
$L95104:

; 1459 : 			_CATCH_ALL
; 1460 : 			_Tidy(true);	// failed again, discard storage and reraise

  0010b	8b 75 ec	 mov	 esi, DWORD PTR _this$[ebp]
  0010e	83 7e 18 10	 cmp	 DWORD PTR [esi+24], 16	; 00000010H
  00112	72 0c		 jb	 SHORT $L95202
  00114	8b 56 04	 mov	 edx, DWORD PTR [esi+4]
  00117	52		 push	 edx
  00118	e8 00 00 00 00	 call	 ??3@YAXPAX@Z		; operator delete
  0011d	83 c4 04	 add	 esp, 4
$L95202:

; 1461 : 			_RERAISE;

  00120	6a 00		 push	 0
  00122	c7 46 18 0f 00
	00 00		 mov	 DWORD PTR [esi+24], 15	; 0000000fH
  00129	c7 46 14 00 00
	00 00		 mov	 DWORD PTR [esi+20], 0
  00130	6a 00		 push	 0
  00132	c6 46 04 00	 mov	 BYTE PTR [esi+4], 0
  00136	e8 00 00 00 00	 call	 __CxxThrowException@8
$L95305:
$L95300:
  0013b	cc		 int	 3
_TEXT	ENDS
;	COMDAT text$x
text$x	SEGMENT
__ehhandler$?_Copy@?$basic_string@DU?$char_traits@D@std@@V?$allocator@D@2@@std@@IAEXII@Z:
  00000	b8 00 00 00 00	 mov	 eax, OFFSET FLAT:$T95296
  00005	e9 00 00 00 00	 jmp	 ___CxxFrameHandler
text$x	ENDS
?_Copy@?$basic_string@DU?$char_traits@D@std@@V?$allocator@D@2@@std@@IAEXII@Z ENDP ; std::basic_string<char,std::char_traits<char>,std::allocator<char> >::_Copy
PUBLIC	??1tagPATCHFILE@@QAE@XZ				; tagPATCHFILE::~tagPATCHFILE
; Function compile flags: /Ogty
;	COMDAT ??1tagPATCHFILE@@QAE@XZ
_TEXT	SEGMENT
??1tagPATCHFILE@@QAE@XZ PROC NEAR			; tagPATCHFILE::~tagPATCHFILE, COMDAT
; _this$ = ecx
  00000	56		 push	 esi
  00001	8b f1		 mov	 esi, ecx
  00003	8d 4e 04	 lea	 ecx, DWORD PTR [esi+4]
  00006	e8 00 00 00 00	 call	 ??1?$CStringT@DV?$StrTraitATL@DV?$ChTraitsCRT@D@ATL@@@ATL@@@ATL@@QAE@XZ ; ATL::CStringT<char,ATL::StrTraitATL<char,ATL::ChTraitsCRT<char> > >::~CStringT<char,ATL::StrTraitATL<char,ATL::ChTraitsCRT<char> > >
  0000b	8b ce		 mov	 ecx, esi
  0000d	5e		 pop	 esi
  0000e	e9 00 00 00 00	 jmp	 ??1?$CStringT@DV?$StrTraitATL@DV?$ChTraitsCRT@D@ATL@@@ATL@@@ATL@@QAE@XZ ; ATL::CStringT<char,ATL::StrTraitATL<char,ATL::ChTraitsCRT<char> > >::~CStringT<char,ATL::StrTraitATL<char,ATL::ChTraitsCRT<char> > >
??1tagPATCHFILE@@QAE@XZ ENDP				; tagPATCHFILE::~tagPATCHFILE
_TEXT	ENDS
PUBLIC	??Eiterator@?$_Tree@V?$_Tmap_traits@EPAUtagTSVRTYPE@@U?$less@E@std@@V?$allocator@U?$pair@$$CBEPAUtagTSVRTYPE@@@std@@@3@$0A@@std@@@std@@QAEAAV012@XZ ; std::_Tree<std::_Tmap_traits<unsigned char,tagTSVRTYPE *,std::less<unsigned char>,std::allocator<std::pair<unsigned char const ,tagTSVRTYPE *> >,0> >::iterator::operator++
; Function compile flags: /Ogty
; File c:\program files (x86)\microsoft visual studio .net 2003\vc7\include\xtree
;	COMDAT ??Eiterator@?$_Tree@V?$_Tmap_traits@EPAUtagTSVRTYPE@@U?$less@E@std@@V?$allocator@U?$pair@$$CBEPAUtagTSVRTYPE@@@std@@@3@$0A@@std@@@std@@QAEAAV012@XZ
_TEXT	SEGMENT
??Eiterator@?$_Tree@V?$_Tmap_traits@EPAUtagTSVRTYPE@@U?$less@E@std@@V?$allocator@U?$pair@$$CBEPAUtagTSVRTYPE@@@std@@@3@$0A@@std@@@std@@QAEAAV012@XZ PROC NEAR ; std::_Tree<std::_Tmap_traits<unsigned char,tagTSVRTYPE *,std::less<unsigned char>,std::allocator<std::pair<unsigned char const ,tagTSVRTYPE *> >,0> >::iterator::operator++, COMDAT
; _this$ = ecx

; 326  : 			{	// preincrement

  00000	56		 push	 esi
  00001	8b f1		 mov	 esi, ecx

; 327  : 			++(*(const_iterator *)this);

  00003	e8 00 00 00 00	 call	 ?_Inc@const_iterator@?$_Tree@V?$_Tmap_traits@EPAUtagTSVRTYPE@@U?$less@E@std@@V?$allocator@U?$pair@$$CBEPAUtagTSVRTYPE@@@std@@@3@$0A@@std@@@std@@QAEXXZ ; std::_Tree<std::_Tmap_traits<unsigned char,tagTSVRTYPE *,std::less<unsigned char>,std::allocator<std::pair<unsigned char const ,tagTSVRTYPE *> >,0> >::const_iterator::_Inc

; 328  : 			return (*this);

  00008	8b c6		 mov	 eax, esi
  0000a	5e		 pop	 esi

; 329  : 			}

  0000b	c3		 ret	 0
??Eiterator@?$_Tree@V?$_Tmap_traits@EPAUtagTSVRTYPE@@U?$less@E@std@@V?$allocator@U?$pair@$$CBEPAUtagTSVRTYPE@@@std@@@3@$0A@@std@@@std@@QAEAAV012@XZ ENDP ; std::_Tree<std::_Tmap_traits<unsigned char,tagTSVRTYPE *,std::less<unsigned char>,std::allocator<std::pair<unsigned char const ,tagTSVRTYPE *> >,0> >::iterator::operator++
_TEXT	ENDS
PUBLIC	??Eiterator@?$_Tree@V?$_Tmap_traits@EPAUtagTMACHINE@@U?$less@E@std@@V?$allocator@U?$pair@$$CBEPAUtagTMACHINE@@@std@@@3@$0A@@std@@@std@@QAEAAV012@XZ ; std::_Tree<std::_Tmap_traits<unsigned char,tagTMACHINE *,std::less<unsigned char>,std::allocator<std::pair<unsigned char const ,tagTMACHINE *> >,0> >::iterator::operator++
; Function compile flags: /Ogty
;	COMDAT ??Eiterator@?$_Tree@V?$_Tmap_traits@EPAUtagTMACHINE@@U?$less@E@std@@V?$allocator@U?$pair@$$CBEPAUtagTMACHINE@@@std@@@3@$0A@@std@@@std@@QAEAAV012@XZ
_TEXT	SEGMENT
??Eiterator@?$_Tree@V?$_Tmap_traits@EPAUtagTMACHINE@@U?$less@E@std@@V?$allocator@U?$pair@$$CBEPAUtagTMACHINE@@@std@@@3@$0A@@std@@@std@@QAEAAV012@XZ PROC NEAR ; std::_Tree<std::_Tmap_traits<unsigned char,tagTMACHINE *,std::less<unsigned char>,std::allocator<std::pair<unsigned char const ,tagTMACHINE *> >,0> >::iterator::operator++, COMDAT
; _this$ = ecx

; 326  : 			{	// preincrement

  00000	56		 push	 esi
  00001	8b f1		 mov	 esi, ecx

; 327  : 			++(*(const_iterator *)this);

  00003	e8 00 00 00 00	 call	 ?_Inc@const_iterator@?$_Tree@V?$_Tmap_traits@EPAUtagTMACHINE@@U?$less@E@std@@V?$allocator@U?$pair@$$CBEPAUtagTMACHINE@@@std@@@3@$0A@@std@@@std@@QAEXXZ ; std::_Tree<std::_Tmap_traits<unsigned char,tagTMACHINE *,std::less<unsigned char>,std::allocator<std::pair<unsigned char const ,tagTMACHINE *> >,0> >::const_iterator::_Inc

; 328  : 			return (*this);

  00008	8b c6		 mov	 eax, esi
  0000a	5e		 pop	 esi

; 329  : 			}

  0000b	c3		 ret	 0
??Eiterator@?$_Tree@V?$_Tmap_traits@EPAUtagTMACHINE@@U?$less@E@std@@V?$allocator@U?$pair@$$CBEPAUtagTMACHINE@@@std@@@3@$0A@@std@@@std@@QAEAAV012@XZ ENDP ; std::_Tree<std::_Tmap_traits<unsigned char,tagTMACHINE *,std::less<unsigned char>,std::allocator<std::pair<unsigned char const ,tagTMACHINE *> >,0> >::iterator::operator++
_TEXT	ENDS
PUBLIC	??Eiterator@?$_Tree@V?$_Tmap_traits@EPAUtagTGROUP@@U?$less@E@std@@V?$allocator@U?$pair@$$CBEPAUtagTGROUP@@@std@@@3@$0A@@std@@@std@@QAEAAV012@XZ ; std::_Tree<std::_Tmap_traits<unsigned char,tagTGROUP *,std::less<unsigned char>,std::allocator<std::pair<unsigned char const ,tagTGROUP *> >,0> >::iterator::operator++
; Function compile flags: /Ogty
;	COMDAT ??Eiterator@?$_Tree@V?$_Tmap_traits@EPAUtagTGROUP@@U?$less@E@std@@V?$allocator@U?$pair@$$CBEPAUtagTGROUP@@@std@@@3@$0A@@std@@@std@@QAEAAV012@XZ
_TEXT	SEGMENT
??Eiterator@?$_Tree@V?$_Tmap_traits@EPAUtagTGROUP@@U?$less@E@std@@V?$allocator@U?$pair@$$CBEPAUtagTGROUP@@@std@@@3@$0A@@std@@@std@@QAEAAV012@XZ PROC NEAR ; std::_Tree<std::_Tmap_traits<unsigned char,tagTGROUP *,std::less<unsigned char>,std::allocator<std::pair<unsigned char const ,tagTGROUP *> >,0> >::iterator::operator++, COMDAT
; _this$ = ecx

; 326  : 			{	// preincrement

  00000	56		 push	 esi
  00001	8b f1		 mov	 esi, ecx

; 327  : 			++(*(const_iterator *)this);

  00003	e8 00 00 00 00	 call	 ?_Inc@const_iterator@?$_Tree@V?$_Tmap_traits@EPAUtagTGROUP@@U?$less@E@std@@V?$allocator@U?$pair@$$CBEPAUtagTGROUP@@@std@@@3@$0A@@std@@@std@@QAEXXZ ; std::_Tree<std::_Tmap_traits<unsigned char,tagTGROUP *,std::less<unsigned char>,std::allocator<std::pair<unsigned char const ,tagTGROUP *> >,0> >::const_iterator::_Inc

; 328  : 			return (*this);

  00008	8b c6		 mov	 eax, esi
  0000a	5e		 pop	 esi

; 329  : 			}

  0000b	c3		 ret	 0
??Eiterator@?$_Tree@V?$_Tmap_traits@EPAUtagTGROUP@@U?$less@E@std@@V?$allocator@U?$pair@$$CBEPAUtagTGROUP@@@std@@@3@$0A@@std@@@std@@QAEAAV012@XZ ENDP ; std::_Tree<std::_Tmap_traits<unsigned char,tagTGROUP *,std::less<unsigned char>,std::allocator<std::pair<unsigned char const ,tagTGROUP *> >,0> >::iterator::operator++
_TEXT	ENDS
PUBLIC	??Eiterator@?$_Tree@V?$_Tmap_traits@KPAUtagTSVRTEMP@@U?$less@K@std@@V?$allocator@U?$pair@$$CBKPAUtagTSVRTEMP@@@std@@@3@$0A@@std@@@std@@QAEAAV012@XZ ; std::_Tree<std::_Tmap_traits<unsigned long,tagTSVRTEMP *,std::less<unsigned long>,std::allocator<std::pair<unsigned long const ,tagTSVRTEMP *> >,0> >::iterator::operator++
; Function compile flags: /Ogty
;	COMDAT ??Eiterator@?$_Tree@V?$_Tmap_traits@KPAUtagTSVRTEMP@@U?$less@K@std@@V?$allocator@U?$pair@$$CBKPAUtagTSVRTEMP@@@std@@@3@$0A@@std@@@std@@QAEAAV012@XZ
_TEXT	SEGMENT
??Eiterator@?$_Tree@V?$_Tmap_traits@KPAUtagTSVRTEMP@@U?$less@K@std@@V?$allocator@U?$pair@$$CBKPAUtagTSVRTEMP@@@std@@@3@$0A@@std@@@std@@QAEAAV012@XZ PROC NEAR ; std::_Tree<std::_Tmap_traits<unsigned long,tagTSVRTEMP *,std::less<unsigned long>,std::allocator<std::pair<unsigned long const ,tagTSVRTEMP *> >,0> >::iterator::operator++, COMDAT
; _this$ = ecx

; 326  : 			{	// preincrement

  00000	56		 push	 esi
  00001	8b f1		 mov	 esi, ecx

; 327  : 			++(*(const_iterator *)this);

  00003	e8 00 00 00 00	 call	 ?_Inc@const_iterator@?$_Tree@V?$_Tmap_traits@KPAUtagTSVRTEMP@@U?$less@K@std@@V?$allocator@U?$pair@$$CBKPAUtagTSVRTEMP@@@std@@@3@$0A@@std@@@std@@QAEXXZ ; std::_Tree<std::_Tmap_traits<unsigned long,tagTSVRTEMP *,std::less<unsigned long>,std::allocator<std::pair<unsigned long const ,tagTSVRTEMP *> >,0> >::const_iterator::_Inc

; 328  : 			return (*this);

  00008	8b c6		 mov	 eax, esi
  0000a	5e		 pop	 esi

; 329  : 			}

  0000b	c3		 ret	 0
??Eiterator@?$_Tree@V?$_Tmap_traits@KPAUtagTSVRTEMP@@U?$less@K@std@@V?$allocator@U?$pair@$$CBKPAUtagTSVRTEMP@@@std@@@3@$0A@@std@@@std@@QAEAAV012@XZ ENDP ; std::_Tree<std::_Tmap_traits<unsigned long,tagTSVRTEMP *,std::less<unsigned long>,std::allocator<std::pair<unsigned long const ,tagTSVRTEMP *> >,0> >::iterator::operator++
_TEXT	ENDS
PUBLIC	??Eiterator@?$_Tree@V?$_Tmap_traits@KPAUtagBANINFO@@U?$less@K@std@@V?$allocator@U?$pair@$$CBKPAUtagBANINFO@@@std@@@3@$0A@@std@@@std@@QAEAAV012@XZ ; std::_Tree<std::_Tmap_traits<unsigned long,tagBANINFO *,std::less<unsigned long>,std::allocator<std::pair<unsigned long const ,tagBANINFO *> >,0> >::iterator::operator++
; Function compile flags: /Ogty
;	COMDAT ??Eiterator@?$_Tree@V?$_Tmap_traits@KPAUtagBANINFO@@U?$less@K@std@@V?$allocator@U?$pair@$$CBKPAUtagBANINFO@@@std@@@3@$0A@@std@@@std@@QAEAAV012@XZ
_TEXT	SEGMENT
??Eiterator@?$_Tree@V?$_Tmap_traits@KPAUtagBANINFO@@U?$less@K@std@@V?$allocator@U?$pair@$$CBKPAUtagBANINFO@@@std@@@3@$0A@@std@@@std@@QAEAAV012@XZ PROC NEAR ; std::_Tree<std::_Tmap_traits<unsigned long,tagBANINFO *,std::less<unsigned long>,std::allocator<std::pair<unsigned long const ,tagBANINFO *> >,0> >::iterator::operator++, COMDAT
; _this$ = ecx

; 326  : 			{	// preincrement

  00000	56		 push	 esi
  00001	8b f1		 mov	 esi, ecx

; 327  : 			++(*(const_iterator *)this);

  00003	e8 00 00 00 00	 call	 ?_Inc@const_iterator@?$_Tree@V?$_Tmap_traits@KPAUtagBANINFO@@U?$less@K@std@@V?$allocator@U?$pair@$$CBKPAUtagBANINFO@@@std@@@3@$0A@@std@@@std@@QAEXXZ ; std::_Tree<std::_Tmap_traits<unsigned long,tagBANINFO *,std::less<unsigned long>,std::allocator<std::pair<unsigned long const ,tagBANINFO *> >,0> >::const_iterator::_Inc

; 328  : 			return (*this);

  00008	8b c6		 mov	 eax, esi
  0000a	5e		 pop	 esi

; 329  : 			}

  0000b	c3		 ret	 0
??Eiterator@?$_Tree@V?$_Tmap_traits@KPAUtagBANINFO@@U?$less@K@std@@V?$allocator@U?$pair@$$CBKPAUtagBANINFO@@@std@@@3@$0A@@std@@@std@@QAEAAV012@XZ ENDP ; std::_Tree<std::_Tmap_traits<unsigned long,tagBANINFO *,std::less<unsigned long>,std::allocator<std::pair<unsigned long const ,tagBANINFO *> >,0> >::iterator::operator++
_TEXT	ENDS
PUBLIC	??Eiterator@?$_Tree@V?$_Tmap_traits@KUtagEVENTINFO@@U?$less@K@std@@V?$allocator@U?$pair@$$CBKUtagEVENTINFO@@@std@@@3@$0A@@std@@@std@@QAEAAV012@XZ ; std::_Tree<std::_Tmap_traits<unsigned long,tagEVENTINFO,std::less<unsigned long>,std::allocator<std::pair<unsigned long const ,tagEVENTINFO> >,0> >::iterator::operator++
; Function compile flags: /Ogty
;	COMDAT ??Eiterator@?$_Tree@V?$_Tmap_traits@KUtagEVENTINFO@@U?$less@K@std@@V?$allocator@U?$pair@$$CBKUtagEVENTINFO@@@std@@@3@$0A@@std@@@std@@QAEAAV012@XZ
_TEXT	SEGMENT
??Eiterator@?$_Tree@V?$_Tmap_traits@KUtagEVENTINFO@@U?$less@K@std@@V?$allocator@U?$pair@$$CBKUtagEVENTINFO@@@std@@@3@$0A@@std@@@std@@QAEAAV012@XZ PROC NEAR ; std::_Tree<std::_Tmap_traits<unsigned long,tagEVENTINFO,std::less<unsigned long>,std::allocator<std::pair<unsigned long const ,tagEVENTINFO> >,0> >::iterator::operator++, COMDAT
; _this$ = ecx

; 326  : 			{	// preincrement

  00000	56		 push	 esi
  00001	8b f1		 mov	 esi, ecx

; 327  : 			++(*(const_iterator *)this);

  00003	e8 00 00 00 00	 call	 ?_Inc@const_iterator@?$_Tree@V?$_Tmap_traits@KUtagEVENTINFO@@U?$less@K@std@@V?$allocator@U?$pair@$$CBKUtagEVENTINFO@@@std@@@3@$0A@@std@@@std@@QAEXXZ ; std::_Tree<std::_Tmap_traits<unsigned long,tagEVENTINFO,std::less<unsigned long>,std::allocator<std::pair<unsigned long const ,tagEVENTINFO> >,0> >::const_iterator::_Inc

; 328  : 			return (*this);

  00008	8b c6		 mov	 eax, esi
  0000a	5e		 pop	 esi

; 329  : 			}

  0000b	c3		 ret	 0
??Eiterator@?$_Tree@V?$_Tmap_traits@KUtagEVENTINFO@@U?$less@K@std@@V?$allocator@U?$pair@$$CBKUtagEVENTINFO@@@std@@@3@$0A@@std@@@std@@QAEAAV012@XZ ENDP ; std::_Tree<std::_Tmap_traits<unsigned long,tagEVENTINFO,std::less<unsigned long>,std::allocator<std::pair<unsigned long const ,tagEVENTINFO> >,0> >::iterator::operator++
_TEXT	ENDS
PUBLIC	??0?$CStringT@DV?$StrTraitATL@DV?$ChTraitsCRT@D@ATL@@@ATL@@@ATL@@QAE@ABV01@@Z ; ATL::CStringT<char,ATL::StrTraitATL<char,ATL::ChTraitsCRT<char> > >::CStringT<char,ATL::StrTraitATL<char,ATL::ChTraitsCRT<char> > >
; Function compile flags: /Ogty
; File c:\program files (x86)\microsoft visual studio .net 2003\vc7\atlmfc\include\cstringt.h
;	COMDAT ??0?$CStringT@DV?$StrTraitATL@DV?$ChTraitsCRT@D@ATL@@@ATL@@@ATL@@QAE@ABV01@@Z
_TEXT	SEGMENT
_strSrc$ = 8						; size = 4
??0?$CStringT@DV?$StrTraitATL@DV?$ChTraitsCRT@D@ATL@@@ATL@@@ATL@@QAE@ABV01@@Z PROC NEAR ; ATL::CStringT<char,ATL::StrTraitATL<char,ATL::ChTraitsCRT<char> > >::CStringT<char,ATL::StrTraitATL<char,ATL::ChTraitsCRT<char> > >, COMDAT
; _this$ = ecx

; 814  : 	{

  00000	8b 44 24 04	 mov	 eax, DWORD PTR _strSrc$[esp-4]
  00004	8b 00		 mov	 eax, DWORD PTR [eax]
  00006	56		 push	 esi
  00007	83 e8 10	 sub	 eax, 16			; 00000010H
  0000a	50		 push	 eax
  0000b	8b f1		 mov	 esi, ecx
  0000d	e8 00 00 00 00	 call	 ?CloneData@?$CSimpleStringT@D$0A@@ATL@@CAPAUCStringData@2@PAU32@@Z ; ATL::CSimpleStringT<char,0>::CloneData
  00012	83 c0 10	 add	 eax, 16			; 00000010H
  00015	89 06		 mov	 DWORD PTR [esi], eax
  00017	83 c4 04	 add	 esp, 4

; 815  : 	}

  0001a	8b c6		 mov	 eax, esi
  0001c	5e		 pop	 esi
  0001d	c2 04 00	 ret	 4
??0?$CStringT@DV?$StrTraitATL@DV?$ChTraitsCRT@D@ATL@@@ATL@@@ATL@@QAE@ABV01@@Z ENDP ; ATL::CStringT<char,ATL::StrTraitATL<char,ATL::ChTraitsCRT<char> > >::CStringT<char,ATL::StrTraitATL<char,ATL::ChTraitsCRT<char> > >
_TEXT	ENDS
PUBLIC	??1?$basic_string@DU?$char_traits@D@std@@V?$allocator@D@2@@std@@QAE@XZ ; std::basic_string<char,std::char_traits<char>,std::allocator<char> >::~basic_string<char,std::char_traits<char>,std::allocator<char> >
; Function compile flags: /Ogty
; File c:\program files (x86)\microsoft visual studio .net 2003\vc7\include\xstring
;	COMDAT ??1?$basic_string@DU?$char_traits@D@std@@V?$allocator@D@2@@std@@QAE@XZ
_TEXT	SEGMENT
??1?$basic_string@DU?$char_traits@D@std@@V?$allocator@D@2@@std@@QAE@XZ PROC NEAR ; std::basic_string<char,std::char_traits<char>,std::allocator<char> >::~basic_string<char,std::char_traits<char>,std::allocator<char> >, COMDAT
; _this$ = ecx

; 456  : 		{	// destroy the string

  00000	56		 push	 esi
  00001	8b f1		 mov	 esi, ecx

; 457  : 		_Tidy(true);

  00003	83 7e 18 10	 cmp	 DWORD PTR [esi+24], 16	; 00000010H
  00007	72 0c		 jb	 SHORT $L95410
  00009	8b 46 04	 mov	 eax, DWORD PTR [esi+4]
  0000c	50		 push	 eax
  0000d	e8 00 00 00 00	 call	 ??3@YAXPAX@Z		; operator delete
  00012	83 c4 04	 add	 esp, 4
$L95410:
  00015	33 c0		 xor	 eax, eax
  00017	c7 46 18 0f 00
	00 00		 mov	 DWORD PTR [esi+24], 15	; 0000000fH
  0001e	89 46 14	 mov	 DWORD PTR [esi+20], eax
  00021	88 46 04	 mov	 BYTE PTR [esi+4], al
  00024	5e		 pop	 esi

; 458  : 		}

  00025	c3		 ret	 0
??1?$basic_string@DU?$char_traits@D@std@@V?$allocator@D@2@@std@@QAE@XZ ENDP ; std::basic_string<char,std::char_traits<char>,std::allocator<char> >::~basic_string<char,std::char_traits<char>,std::allocator<char> >
_TEXT	ENDS
PUBLIC	??A?$vector@GV?$allocator@G@std@@@std@@QAEAAGI@Z ; std::vector<unsigned short,std::allocator<unsigned short> >::operator[]
; Function compile flags: /Ogty
; File c:\program files (x86)\microsoft visual studio .net 2003\vc7\include\vector
;	COMDAT ??A?$vector@GV?$allocator@G@std@@@std@@QAEAAGI@Z
_TEXT	SEGMENT
__Pos$ = 8						; size = 4
??A?$vector@GV?$allocator@G@std@@@std@@QAEAAGI@Z PROC NEAR ; std::vector<unsigned short,std::allocator<unsigned short> >::operator[], COMDAT
; _this$ = ecx

; 555  : 		return (*(begin() + _Pos));

  00000	8b 41 04	 mov	 eax, DWORD PTR [ecx+4]
  00003	8b 4c 24 04	 mov	 ecx, DWORD PTR __Pos$[esp-4]
  00007	8d 04 48	 lea	 eax, DWORD PTR [eax+ecx*2]

; 556  : 		}

  0000a	c2 04 00	 ret	 4
??A?$vector@GV?$allocator@G@std@@@std@@QAEAAGI@Z ENDP	; std::vector<unsigned short,std::allocator<unsigned short> >::operator[]
_TEXT	ENDS
PUBLIC	??A?$vector@UtagTCASHITEMSALE@@V?$allocator@UtagTCASHITEMSALE@@@std@@@std@@QAEAAUtagTCASHITEMSALE@@I@Z ; std::vector<tagTCASHITEMSALE,std::allocator<tagTCASHITEMSALE> >::operator[]
; Function compile flags: /Ogty
;	COMDAT ??A?$vector@UtagTCASHITEMSALE@@V?$allocator@UtagTCASHITEMSALE@@@std@@@std@@QAEAAUtagTCASHITEMSALE@@I@Z
_TEXT	SEGMENT
__Pos$ = 8						; size = 4
??A?$vector@UtagTCASHITEMSALE@@V?$allocator@UtagTCASHITEMSALE@@@std@@@std@@QAEAAUtagTCASHITEMSALE@@I@Z PROC NEAR ; std::vector<tagTCASHITEMSALE,std::allocator<tagTCASHITEMSALE> >::operator[], COMDAT
; _this$ = ecx

; 555  : 		return (*(begin() + _Pos));

  00000	8b 41 04	 mov	 eax, DWORD PTR [ecx+4]
  00003	8b 4c 24 04	 mov	 ecx, DWORD PTR __Pos$[esp-4]
  00007	8d 04 88	 lea	 eax, DWORD PTR [eax+ecx*4]

; 556  : 		}

  0000a	c2 04 00	 ret	 4
??A?$vector@UtagTCASHITEMSALE@@V?$allocator@UtagTCASHITEMSALE@@@std@@@std@@QAEAAUtagTCASHITEMSALE@@I@Z ENDP ; std::vector<tagTCASHITEMSALE,std::allocator<tagTCASHITEMSALE> >::operator[]
_TEXT	ENDS
PUBLIC	??A?$vector@UtagMONREGEN@@V?$allocator@UtagMONREGEN@@@std@@@std@@QAEAAUtagMONREGEN@@I@Z ; std::vector<tagMONREGEN,std::allocator<tagMONREGEN> >::operator[]
; Function compile flags: /Ogty
;	COMDAT ??A?$vector@UtagMONREGEN@@V?$allocator@UtagMONREGEN@@@std@@@std@@QAEAAUtagMONREGEN@@I@Z
_TEXT	SEGMENT
__Pos$ = 8						; size = 4
??A?$vector@UtagMONREGEN@@V?$allocator@UtagMONREGEN@@@std@@@std@@QAEAAUtagMONREGEN@@I@Z PROC NEAR ; std::vector<tagMONREGEN,std::allocator<tagMONREGEN> >::operator[], COMDAT
; _this$ = ecx

; 555  : 		return (*(begin() + _Pos));

  00000	8b 44 24 04	 mov	 eax, DWORD PTR __Pos$[esp-4]
  00004	8b 49 04	 mov	 ecx, DWORD PTR [ecx+4]
  00007	8d 04 40	 lea	 eax, DWORD PTR [eax+eax*2]
  0000a	8d 04 c1	 lea	 eax, DWORD PTR [ecx+eax*8]

; 556  : 		}

  0000d	c2 04 00	 ret	 4
??A?$vector@UtagMONREGEN@@V?$allocator@UtagMONREGEN@@@std@@@std@@QAEAAUtagMONREGEN@@I@Z ENDP ; std::vector<tagMONREGEN,std::allocator<tagMONREGEN> >::operator[]
_TEXT	ENDS
PUBLIC	??A?$vector@UtagLOTTERY@@V?$allocator@UtagLOTTERY@@@std@@@std@@QAEAAUtagLOTTERY@@I@Z ; std::vector<tagLOTTERY,std::allocator<tagLOTTERY> >::operator[]
; Function compile flags: /Ogty
;	COMDAT ??A?$vector@UtagLOTTERY@@V?$allocator@UtagLOTTERY@@@std@@@std@@QAEAAUtagLOTTERY@@I@Z
_TEXT	SEGMENT
__Pos$ = 8						; size = 4
??A?$vector@UtagLOTTERY@@V?$allocator@UtagLOTTERY@@@std@@@std@@QAEAAUtagLOTTERY@@I@Z PROC NEAR ; std::vector<tagLOTTERY,std::allocator<tagLOTTERY> >::operator[], COMDAT
; _this$ = ecx

; 555  : 		return (*(begin() + _Pos));

  00000	8b 44 24 04	 mov	 eax, DWORD PTR __Pos$[esp-4]
  00004	8b 49 04	 mov	 ecx, DWORD PTR [ecx+4]
  00007	8d 04 40	 lea	 eax, DWORD PTR [eax+eax*2]
  0000a	8d 04 41	 lea	 eax, DWORD PTR [ecx+eax*2]

; 556  : 		}

  0000d	c2 04 00	 ret	 4
??A?$vector@UtagLOTTERY@@V?$allocator@UtagLOTTERY@@@std@@@std@@QAEAAUtagLOTTERY@@I@Z ENDP ; std::vector<tagLOTTERY,std::allocator<tagLOTTERY> >::operator[]
_TEXT	ENDS
PUBLIC	?_Grow@?$basic_string@DU?$char_traits@D@std@@V?$allocator@D@2@@std@@IAE_NI_N@Z ; std::basic_string<char,std::char_traits<char>,std::allocator<char> >::_Grow
EXTRN	?_Xlen@_String_base@std@@QBEXXZ:NEAR		; std::_String_base::_Xlen
; Function compile flags: /Ogty
; File c:\program files (x86)\microsoft visual studio .net 2003\vc7\include\xstring
;	COMDAT ?_Grow@?$basic_string@DU?$char_traits@D@std@@V?$allocator@D@2@@std@@IAE_NI_N@Z
_TEXT	SEGMENT
__Newsize$ = 8						; size = 4
__Trim$ = 12						; size = 1
?_Grow@?$basic_string@DU?$char_traits@D@std@@V?$allocator@D@2@@std@@IAE_NI_N@Z PROC NEAR ; std::basic_string<char,std::char_traits<char>,std::allocator<char> >::_Grow, COMDAT
; _this$ = ecx

; 1480 : 		{	// ensure buffer is big enough, trim to size if _Trim is true

  00000	55		 push	 ebp
  00001	56		 push	 esi

; 1481 : 		if (max_size() < _Newsize)

  00002	8b 74 24 0c	 mov	 esi, DWORD PTR __Newsize$[esp+4]
  00006	83 fe fe	 cmp	 esi, -2			; fffffffeH
  00009	8b e9		 mov	 ebp, ecx
  0000b	76 05		 jbe	 SHORT $L86161

; 1482 : 			_String_base::_Xlen();	// result too long

  0000d	e8 00 00 00 00	 call	 ?_Xlen@_String_base@std@@QBEXXZ ; std::_String_base::_Xlen
$L86161:

; 1483 : 		if (_Myres < _Newsize)

  00012	8b 45 18	 mov	 eax, DWORD PTR [ebp+24]
  00015	3b c6		 cmp	 eax, esi
  00017	73 19		 jae	 SHORT $L86162

; 1484 : 			_Copy(_Newsize, _Mysize);	// reallocate to grow

  00019	8b 45 14	 mov	 eax, DWORD PTR [ebp+20]
  0001c	50		 push	 eax
  0001d	56		 push	 esi
  0001e	8b cd		 mov	 ecx, ebp
  00020	e8 00 00 00 00	 call	 ?_Copy@?$basic_string@DU?$char_traits@D@std@@V?$allocator@D@2@@std@@IAEXII@Z ; std::basic_string<char,std::char_traits<char>,std::allocator<char> >::_Copy

; 1490 : 		return (0 < _Newsize);	// return true only if more work to do

  00025	33 c0		 xor	 eax, eax
  00027	3b c6		 cmp	 eax, esi
  00029	1b c0		 sbb	 eax, eax
  0002b	5e		 pop	 esi
  0002c	f7 d8		 neg	 eax
  0002e	5d		 pop	 ebp

; 1491 : 		}

  0002f	c2 08 00	 ret	 8
$L86162:

; 1485 : 		else if (_Trim && _Newsize < _BUF_SIZE)

  00032	8a 4c 24 10	 mov	 cl, BYTE PTR __Trim$[esp+4]
  00036	84 c9		 test	 cl, cl
  00038	74 5c		 je	 SHORT $L86164
  0003a	83 fe 10	 cmp	 esi, 16			; 00000010H
  0003d	73 57		 jae	 SHORT $L86164
  0003f	53		 push	 ebx

; 1486 : 			_Tidy(true,	// copy and deallocate if trimming to small string
; 1487 : 				_Newsize < _Mysize ? _Newsize : _Mysize);

  00040	8b 5d 14	 mov	 ebx, DWORD PTR [ebp+20]
  00043	3b f3		 cmp	 esi, ebx
  00045	73 02		 jae	 SHORT $L95582
  00047	8b de		 mov	 ebx, esi
$L95582:
  00049	83 f8 10	 cmp	 eax, 16			; 00000010H
  0004c	72 2b		 jb	 SHORT $L95636
  0004e	85 db		 test	 ebx, ebx
  00050	8b 45 04	 mov	 eax, DWORD PTR [ebp+4]
  00053	57		 push	 edi
  00054	8d 7d 04	 lea	 edi, DWORD PTR [ebp+4]
  00057	76 16		 jbe	 SHORT $L95635
  00059	8b cb		 mov	 ecx, ebx
  0005b	8b d1		 mov	 edx, ecx
  0005d	c1 e9 02	 shr	 ecx, 2
  00060	8b f0		 mov	 esi, eax
  00062	f3 a5		 rep movsd
  00064	8b ca		 mov	 ecx, edx
  00066	83 e1 03	 and	 ecx, 3
  00069	f3 a4		 rep movsb
  0006b	8b 74 24 14	 mov	 esi, DWORD PTR __Newsize$[esp+12]
$L95635:
  0006f	50		 push	 eax
  00070	e8 00 00 00 00	 call	 ??3@YAXPAX@Z		; operator delete
  00075	83 c4 04	 add	 esp, 4
  00078	5f		 pop	 edi
$L95636:
  00079	89 5d 14	 mov	 DWORD PTR [ebp+20], ebx

; 1490 : 		return (0 < _Newsize);	// return true only if more work to do

  0007c	33 c0		 xor	 eax, eax
  0007e	c7 45 18 0f 00
	00 00		 mov	 DWORD PTR [ebp+24], 15	; 0000000fH
  00085	c6 44 2b 04 00	 mov	 BYTE PTR [ebx+ebp+4], 0
  0008a	3b c6		 cmp	 eax, esi
  0008c	5b		 pop	 ebx
  0008d	1b c0		 sbb	 eax, eax
  0008f	5e		 pop	 esi
  00090	f7 d8		 neg	 eax
  00092	5d		 pop	 ebp

; 1491 : 		}

  00093	c2 08 00	 ret	 8
$L86164:

; 1488 : 		else if (_Newsize == 0)

  00096	85 f6		 test	 esi, esi
  00098	75 23		 jne	 SHORT $L95674

; 1489 : 			_Eos(0);	// new size is zero, just null terminate

  0009a	83 f8 10	 cmp	 eax, 16			; 00000010H
  0009d	89 75 14	 mov	 DWORD PTR [ebp+20], esi
  000a0	72 14		 jb	 SHORT $L95671
  000a2	8b 6d 04	 mov	 ebp, DWORD PTR [ebp+4]

; 1490 : 		return (0 < _Newsize);	// return true only if more work to do

  000a5	33 c0		 xor	 eax, eax
  000a7	3b c6		 cmp	 eax, esi
  000a9	1b c0		 sbb	 eax, eax
  000ab	5e		 pop	 esi
  000ac	c6 45 00 00	 mov	 BYTE PTR [ebp], 0
  000b0	f7 d8		 neg	 eax
  000b2	5d		 pop	 ebp

; 1491 : 		}

  000b3	c2 08 00	 ret	 8

; 1489 : 			_Eos(0);	// new size is zero, just null terminate

$L95671:
  000b6	83 c5 04	 add	 ebp, 4
  000b9	c6 45 00 00	 mov	 BYTE PTR [ebp], 0
$L95674:

; 1490 : 		return (0 < _Newsize);	// return true only if more work to do

  000bd	33 c0		 xor	 eax, eax
  000bf	3b c6		 cmp	 eax, esi
  000c1	1b c0		 sbb	 eax, eax
  000c3	5e		 pop	 esi
  000c4	f7 d8		 neg	 eax
  000c6	5d		 pop	 ebp

; 1491 : 		}

  000c7	c2 08 00	 ret	 8
?_Grow@?$basic_string@DU?$char_traits@D@std@@V?$allocator@D@2@@std@@IAE_NI_N@Z ENDP ; std::basic_string<char,std::char_traits<char>,std::allocator<char> >::_Grow
_TEXT	ENDS
PUBLIC	??0tagPATCHFILE@@QAE@ABU0@@Z			; tagPATCHFILE::tagPATCHFILE
;	COMDAT xdata$x
xdata$x	SEGMENT
$T95757	DD	0ffffffffH
	DD	FLAT:$L95679
$T95755	DD	019930520H
	DD	01H
	DD	FLAT:$T95757
	DD	2 DUP(00H)
	DD	2 DUP(00H)
; Function compile flags: /Ogty
xdata$x	ENDS
;	COMDAT ??0tagPATCHFILE@@QAE@ABU0@@Z
_TEXT	SEGMENT
_this$ = -16						; size = 4
__$EHRec$ = -12						; size = 12
___that$ = 8						; size = 4
??0tagPATCHFILE@@QAE@ABU0@@Z PROC NEAR			; tagPATCHFILE::tagPATCHFILE, COMDAT
; _this$ = ecx
  00000	6a ff		 push	 -1
  00002	68 00 00 00 00	 push	 __ehhandler$??0tagPATCHFILE@@QAE@ABU0@@Z
  00007	64 a1 00 00 00
	00		 mov	 eax, DWORD PTR fs:__except_list
  0000d	50		 push	 eax
  0000e	64 89 25 00 00
	00 00		 mov	 DWORD PTR fs:__except_list, esp
  00015	51		 push	 ecx
  00016	56		 push	 esi
  00017	57		 push	 edi
  00018	8b 7c 24 1c	 mov	 edi, DWORD PTR ___that$[esp+20]
  0001c	8b 07		 mov	 eax, DWORD PTR [edi]
  0001e	83 e8 10	 sub	 eax, 16			; 00000010H
  00021	8b f1		 mov	 esi, ecx
  00023	50		 push	 eax
  00024	89 74 24 0c	 mov	 DWORD PTR _this$[esp+28], esi
  00028	e8 00 00 00 00	 call	 ?CloneData@?$CSimpleStringT@D$0A@@ATL@@CAPAUCStringData@2@PAU32@@Z ; ATL::CSimpleStringT<char,0>::CloneData
  0002d	83 c0 10	 add	 eax, 16			; 00000010H
  00030	89 06		 mov	 DWORD PTR [esi], eax
  00032	8b 47 04	 mov	 eax, DWORD PTR [edi+4]
  00035	83 e8 10	 sub	 eax, 16			; 00000010H
  00038	50		 push	 eax
  00039	c7 44 24 1c 00
	00 00 00	 mov	 DWORD PTR __$EHRec$[esp+40], 0
  00041	e8 00 00 00 00	 call	 ?CloneData@?$CSimpleStringT@D$0A@@ATL@@CAPAUCStringData@2@PAU32@@Z ; ATL::CSimpleStringT<char,0>::CloneData
  00046	83 c4 08	 add	 esp, 8
  00049	83 c0 10	 add	 eax, 16			; 00000010H
  0004c	89 46 04	 mov	 DWORD PTR [esi+4], eax
  0004f	8b 47 08	 mov	 eax, DWORD PTR [edi+8]
  00052	89 46 08	 mov	 DWORD PTR [esi+8], eax
  00055	8b 4f 0c	 mov	 ecx, DWORD PTR [edi+12]
  00058	89 4e 0c	 mov	 DWORD PTR [esi+12], ecx
  0005b	8b 4c 24 0c	 mov	 ecx, DWORD PTR __$EHRec$[esp+24]
  0005f	5f		 pop	 edi
  00060	8b c6		 mov	 eax, esi
  00062	5e		 pop	 esi
  00063	64 89 0d 00 00
	00 00		 mov	 DWORD PTR fs:__except_list, ecx
  0006a	83 c4 10	 add	 esp, 16			; 00000010H
  0006d	c2 04 00	 ret	 4
_TEXT	ENDS
;	COMDAT text$x
text$x	SEGMENT
$L95679:
  00000	8b 4d f0	 mov	 ecx, DWORD PTR _this$[ebp]
  00003	e9 00 00 00 00	 jmp	 ??1?$CStringT@DV?$StrTraitATL@DV?$ChTraitsCRT@D@ATL@@@ATL@@@ATL@@QAE@XZ ; ATL::CStringT<char,ATL::StrTraitATL<char,ATL::ChTraitsCRT<char> > >::~CStringT<char,ATL::StrTraitATL<char,ATL::ChTraitsCRT<char> > >
__ehhandler$??0tagPATCHFILE@@QAE@ABU0@@Z:
  00008	b8 00 00 00 00	 mov	 eax, OFFSET FLAT:$T95755
  0000d	e9 00 00 00 00	 jmp	 ___CxxFrameHandler
text$x	ENDS
??0tagPATCHFILE@@QAE@ABU0@@Z ENDP			; tagPATCHFILE::tagPATCHFILE
PUBLIC	??Eiterator@?$_Tree@V?$_Tmap_traits@EPAUtagTSVRTYPE@@U?$less@E@std@@V?$allocator@U?$pair@$$CBEPAUtagTSVRTYPE@@@std@@@3@$0A@@std@@@std@@QAE?AV012@H@Z ; std::_Tree<std::_Tmap_traits<unsigned char,tagTSVRTYPE *,std::less<unsigned char>,std::allocator<std::pair<unsigned char const ,tagTSVRTYPE *> >,0> >::iterator::operator++
; Function compile flags: /Ogty
; File c:\program files (x86)\microsoft visual studio .net 2003\vc7\include\xtree
;	COMDAT ??Eiterator@?$_Tree@V?$_Tmap_traits@EPAUtagTSVRTYPE@@U?$less@E@std@@V?$allocator@U?$pair@$$CBEPAUtagTSVRTYPE@@@std@@@3@$0A@@std@@@std@@QAE?AV012@H@Z
_TEXT	SEGMENT
___$ReturnUdt$ = 8					; size = 4
___formal$ = 12						; size = 4
??Eiterator@?$_Tree@V?$_Tmap_traits@EPAUtagTSVRTYPE@@U?$less@E@std@@V?$allocator@U?$pair@$$CBEPAUtagTSVRTYPE@@@std@@@3@$0A@@std@@@std@@QAE?AV012@H@Z PROC NEAR ; std::_Tree<std::_Tmap_traits<unsigned char,tagTSVRTYPE *,std::less<unsigned char>,std::allocator<std::pair<unsigned char const ,tagTSVRTYPE *> >,0> >::iterator::operator++, COMDAT
; _this$ = ecx

; 332  : 			{	// postincrement

  00000	56		 push	 esi

; 333  : 			iterator _Tmp = *this;

  00001	8b 31		 mov	 esi, DWORD PTR [ecx]

; 334  : 			++*this;

  00003	e8 00 00 00 00	 call	 ?_Inc@const_iterator@?$_Tree@V?$_Tmap_traits@EPAUtagTSVRTYPE@@U?$less@E@std@@V?$allocator@U?$pair@$$CBEPAUtagTSVRTYPE@@@std@@@3@$0A@@std@@@std@@QAEXXZ ; std::_Tree<std::_Tmap_traits<unsigned char,tagTSVRTYPE *,std::less<unsigned char>,std::allocator<std::pair<unsigned char const ,tagTSVRTYPE *> >,0> >::const_iterator::_Inc

; 335  : 			return (_Tmp);

  00008	8b 44 24 08	 mov	 eax, DWORD PTR ___$ReturnUdt$[esp]
  0000c	89 30		 mov	 DWORD PTR [eax], esi
  0000e	5e		 pop	 esi

; 336  : 			}

  0000f	c2 08 00	 ret	 8
??Eiterator@?$_Tree@V?$_Tmap_traits@EPAUtagTSVRTYPE@@U?$less@E@std@@V?$allocator@U?$pair@$$CBEPAUtagTSVRTYPE@@@std@@@3@$0A@@std@@@std@@QAE?AV012@H@Z ENDP ; std::_Tree<std::_Tmap_traits<unsigned char,tagTSVRTYPE *,std::less<unsigned char>,std::allocator<std::pair<unsigned char const ,tagTSVRTYPE *> >,0> >::iterator::operator++
_TEXT	ENDS
PUBLIC	??Eiterator@?$_Tree@V?$_Tmap_traits@EPAUtagTMACHINE@@U?$less@E@std@@V?$allocator@U?$pair@$$CBEPAUtagTMACHINE@@@std@@@3@$0A@@std@@@std@@QAE?AV012@H@Z ; std::_Tree<std::_Tmap_traits<unsigned char,tagTMACHINE *,std::less<unsigned char>,std::allocator<std::pair<unsigned char const ,tagTMACHINE *> >,0> >::iterator::operator++
; Function compile flags: /Ogty
;	COMDAT ??Eiterator@?$_Tree@V?$_Tmap_traits@EPAUtagTMACHINE@@U?$less@E@std@@V?$allocator@U?$pair@$$CBEPAUtagTMACHINE@@@std@@@3@$0A@@std@@@std@@QAE?AV012@H@Z
_TEXT	SEGMENT
___$ReturnUdt$ = 8					; size = 4
___formal$ = 12						; size = 4
??Eiterator@?$_Tree@V?$_Tmap_traits@EPAUtagTMACHINE@@U?$less@E@std@@V?$allocator@U?$pair@$$CBEPAUtagTMACHINE@@@std@@@3@$0A@@std@@@std@@QAE?AV012@H@Z PROC NEAR ; std::_Tree<std::_Tmap_traits<unsigned char,tagTMACHINE *,std::less<unsigned char>,std::allocator<std::pair<unsigned char const ,tagTMACHINE *> >,0> >::iterator::operator++, COMDAT
; _this$ = ecx

; 332  : 			{	// postincrement

  00000	56		 push	 esi

; 333  : 			iterator _Tmp = *this;

  00001	8b 31		 mov	 esi, DWORD PTR [ecx]

; 334  : 			++*this;

  00003	e8 00 00 00 00	 call	 ?_Inc@const_iterator@?$_Tree@V?$_Tmap_traits@EPAUtagTMACHINE@@U?$less@E@std@@V?$allocator@U?$pair@$$CBEPAUtagTMACHINE@@@std@@@3@$0A@@std@@@std@@QAEXXZ ; std::_Tree<std::_Tmap_traits<unsigned char,tagTMACHINE *,std::less<unsigned char>,std::allocator<std::pair<unsigned char const ,tagTMACHINE *> >,0> >::const_iterator::_Inc

; 335  : 			return (_Tmp);

  00008	8b 44 24 08	 mov	 eax, DWORD PTR ___$ReturnUdt$[esp]
  0000c	89 30		 mov	 DWORD PTR [eax], esi
  0000e	5e		 pop	 esi

; 336  : 			}

  0000f	c2 08 00	 ret	 8
??Eiterator@?$_Tree@V?$_Tmap_traits@EPAUtagTMACHINE@@U?$less@E@std@@V?$allocator@U?$pair@$$CBEPAUtagTMACHINE@@@std@@@3@$0A@@std@@@std@@QAE?AV012@H@Z ENDP ; std::_Tree<std::_Tmap_traits<unsigned char,tagTMACHINE *,std::less<unsigned char>,std::allocator<std::pair<unsigned char const ,tagTMACHINE *> >,0> >::iterator::operator++
_TEXT	ENDS
PUBLIC	??Eiterator@?$_Tree@V?$_Tmap_traits@EPAUtagTGROUP@@U?$less@E@std@@V?$allocator@U?$pair@$$CBEPAUtagTGROUP@@@std@@@3@$0A@@std@@@std@@QAE?AV012@H@Z ; std::_Tree<std::_Tmap_traits<unsigned char,tagTGROUP *,std::less<unsigned char>,std::allocator<std::pair<unsigned char const ,tagTGROUP *> >,0> >::iterator::operator++
; Function compile flags: /Ogty
;	COMDAT ??Eiterator@?$_Tree@V?$_Tmap_traits@EPAUtagTGROUP@@U?$less@E@std@@V?$allocator@U?$pair@$$CBEPAUtagTGROUP@@@std@@@3@$0A@@std@@@std@@QAE?AV012@H@Z
_TEXT	SEGMENT
___$ReturnUdt$ = 8					; size = 4
___formal$ = 12						; size = 4
??Eiterator@?$_Tree@V?$_Tmap_traits@EPAUtagTGROUP@@U?$less@E@std@@V?$allocator@U?$pair@$$CBEPAUtagTGROUP@@@std@@@3@$0A@@std@@@std@@QAE?AV012@H@Z PROC NEAR ; std::_Tree<std::_Tmap_traits<unsigned char,tagTGROUP *,std::less<unsigned char>,std::allocator<std::pair<unsigned char const ,tagTGROUP *> >,0> >::iterator::operator++, COMDAT
; _this$ = ecx

; 332  : 			{	// postincrement

  00000	56		 push	 esi

; 333  : 			iterator _Tmp = *this;

  00001	8b 31		 mov	 esi, DWORD PTR [ecx]

; 334  : 			++*this;

  00003	e8 00 00 00 00	 call	 ?_Inc@const_iterator@?$_Tree@V?$_Tmap_traits@EPAUtagTGROUP@@U?$less@E@std@@V?$allocator@U?$pair@$$CBEPAUtagTGROUP@@@std@@@3@$0A@@std@@@std@@QAEXXZ ; std::_Tree<std::_Tmap_traits<unsigned char,tagTGROUP *,std::less<unsigned char>,std::allocator<std::pair<unsigned char const ,tagTGROUP *> >,0> >::const_iterator::_Inc

; 335  : 			return (_Tmp);

  00008	8b 44 24 08	 mov	 eax, DWORD PTR ___$ReturnUdt$[esp]
  0000c	89 30		 mov	 DWORD PTR [eax], esi
  0000e	5e		 pop	 esi

; 336  : 			}

  0000f	c2 08 00	 ret	 8
??Eiterator@?$_Tree@V?$_Tmap_traits@EPAUtagTGROUP@@U?$less@E@std@@V?$allocator@U?$pair@$$CBEPAUtagTGROUP@@@std@@@3@$0A@@std@@@std@@QAE?AV012@H@Z ENDP ; std::_Tree<std::_Tmap_traits<unsigned char,tagTGROUP *,std::less<unsigned char>,std::allocator<std::pair<unsigned char const ,tagTGROUP *> >,0> >::iterator::operator++
_TEXT	ENDS
PUBLIC	??Eiterator@?$_Tree@V?$_Tmap_traits@KPAUtagTSVRTEMP@@U?$less@K@std@@V?$allocator@U?$pair@$$CBKPAUtagTSVRTEMP@@@std@@@3@$0A@@std@@@std@@QAE?AV012@H@Z ; std::_Tree<std::_Tmap_traits<unsigned long,tagTSVRTEMP *,std::less<unsigned long>,std::allocator<std::pair<unsigned long const ,tagTSVRTEMP *> >,0> >::iterator::operator++
; Function compile flags: /Ogty
;	COMDAT ??Eiterator@?$_Tree@V?$_Tmap_traits@KPAUtagTSVRTEMP@@U?$less@K@std@@V?$allocator@U?$pair@$$CBKPAUtagTSVRTEMP@@@std@@@3@$0A@@std@@@std@@QAE?AV012@H@Z
_TEXT	SEGMENT
___$ReturnUdt$ = 8					; size = 4
___formal$ = 12						; size = 4
??Eiterator@?$_Tree@V?$_Tmap_traits@KPAUtagTSVRTEMP@@U?$less@K@std@@V?$allocator@U?$pair@$$CBKPAUtagTSVRTEMP@@@std@@@3@$0A@@std@@@std@@QAE?AV012@H@Z PROC NEAR ; std::_Tree<std::_Tmap_traits<unsigned long,tagTSVRTEMP *,std::less<unsigned long>,std::allocator<std::pair<unsigned long const ,tagTSVRTEMP *> >,0> >::iterator::operator++, COMDAT
; _this$ = ecx

; 332  : 			{	// postincrement

  00000	56		 push	 esi

; 333  : 			iterator _Tmp = *this;

  00001	8b 31		 mov	 esi, DWORD PTR [ecx]

; 334  : 			++*this;

  00003	e8 00 00 00 00	 call	 ?_Inc@const_iterator@?$_Tree@V?$_Tmap_traits@KPAUtagTSVRTEMP@@U?$less@K@std@@V?$allocator@U?$pair@$$CBKPAUtagTSVRTEMP@@@std@@@3@$0A@@std@@@std@@QAEXXZ ; std::_Tree<std::_Tmap_traits<unsigned long,tagTSVRTEMP *,std::less<unsigned long>,std::allocator<std::pair<unsigned long const ,tagTSVRTEMP *> >,0> >::const_iterator::_Inc

; 335  : 			return (_Tmp);

  00008	8b 44 24 08	 mov	 eax, DWORD PTR ___$ReturnUdt$[esp]
  0000c	89 30		 mov	 DWORD PTR [eax], esi
  0000e	5e		 pop	 esi

; 336  : 			}

  0000f	c2 08 00	 ret	 8
??Eiterator@?$_Tree@V?$_Tmap_traits@KPAUtagTSVRTEMP@@U?$less@K@std@@V?$allocator@U?$pair@$$CBKPAUtagTSVRTEMP@@@std@@@3@$0A@@std@@@std@@QAE?AV012@H@Z ENDP ; std::_Tree<std::_Tmap_traits<unsigned long,tagTSVRTEMP *,std::less<unsigned long>,std::allocator<std::pair<unsigned long const ,tagTSVRTEMP *> >,0> >::iterator::operator++
_TEXT	ENDS
PUBLIC	??Eiterator@?$_Tree@V?$_Tmap_traits@KPAUtagBANINFO@@U?$less@K@std@@V?$allocator@U?$pair@$$CBKPAUtagBANINFO@@@std@@@3@$0A@@std@@@std@@QAE?AV012@H@Z ; std::_Tree<std::_Tmap_traits<unsigned long,tagBANINFO *,std::less<unsigned long>,std::allocator<std::pair<unsigned long const ,tagBANINFO *> >,0> >::iterator::operator++
; Function compile flags: /Ogty
;	COMDAT ??Eiterator@?$_Tree@V?$_Tmap_traits@KPAUtagBANINFO@@U?$less@K@std@@V?$allocator@U?$pair@$$CBKPAUtagBANINFO@@@std@@@3@$0A@@std@@@std@@QAE?AV012@H@Z
_TEXT	SEGMENT
___$ReturnUdt$ = 8					; size = 4
___formal$ = 12						; size = 4
??Eiterator@?$_Tree@V?$_Tmap_traits@KPAUtagBANINFO@@U?$less@K@std@@V?$allocator@U?$pair@$$CBKPAUtagBANINFO@@@std@@@3@$0A@@std@@@std@@QAE?AV012@H@Z PROC NEAR ; std::_Tree<std::_Tmap_traits<unsigned long,tagBANINFO *,std::less<unsigned long>,std::allocator<std::pair<unsigned long const ,tagBANINFO *> >,0> >::iterator::operator++, COMDAT
; _this$ = ecx

; 332  : 			{	// postincrement

  00000	56		 push	 esi

; 333  : 			iterator _Tmp = *this;

  00001	8b 31		 mov	 esi, DWORD PTR [ecx]

; 334  : 			++*this;

  00003	e8 00 00 00 00	 call	 ?_Inc@const_iterator@?$_Tree@V?$_Tmap_traits@KPAUtagBANINFO@@U?$less@K@std@@V?$allocator@U?$pair@$$CBKPAUtagBANINFO@@@std@@@3@$0A@@std@@@std@@QAEXXZ ; std::_Tree<std::_Tmap_traits<unsigned long,tagBANINFO *,std::less<unsigned long>,std::allocator<std::pair<unsigned long const ,tagBANINFO *> >,0> >::const_iterator::_Inc

; 335  : 			return (_Tmp);

  00008	8b 44 24 08	 mov	 eax, DWORD PTR ___$ReturnUdt$[esp]
  0000c	89 30		 mov	 DWORD PTR [eax], esi
  0000e	5e		 pop	 esi

; 336  : 			}

  0000f	c2 08 00	 ret	 8
??Eiterator@?$_Tree@V?$_Tmap_traits@KPAUtagBANINFO@@U?$less@K@std@@V?$allocator@U?$pair@$$CBKPAUtagBANINFO@@@std@@@3@$0A@@std@@@std@@QAE?AV012@H@Z ENDP ; std::_Tree<std::_Tmap_traits<unsigned long,tagBANINFO *,std::less<unsigned long>,std::allocator<std::pair<unsigned long const ,tagBANINFO *> >,0> >::iterator::operator++
_TEXT	ENDS
PUBLIC	??Eiterator@?$_Tree@V?$_Tmap_traits@KUtagEVENTINFO@@U?$less@K@std@@V?$allocator@U?$pair@$$CBKUtagEVENTINFO@@@std@@@3@$0A@@std@@@std@@QAE?AV012@H@Z ; std::_Tree<std::_Tmap_traits<unsigned long,tagEVENTINFO,std::less<unsigned long>,std::allocator<std::pair<unsigned long const ,tagEVENTINFO> >,0> >::iterator::operator++
; Function compile flags: /Ogty
;	COMDAT ??Eiterator@?$_Tree@V?$_Tmap_traits@KUtagEVENTINFO@@U?$less@K@std@@V?$allocator@U?$pair@$$CBKUtagEVENTINFO@@@std@@@3@$0A@@std@@@std@@QAE?AV012@H@Z
_TEXT	SEGMENT
___$ReturnUdt$ = 8					; size = 4
___formal$ = 12						; size = 4
??Eiterator@?$_Tree@V?$_Tmap_traits@KUtagEVENTINFO@@U?$less@K@std@@V?$allocator@U?$pair@$$CBKUtagEVENTINFO@@@std@@@3@$0A@@std@@@std@@QAE?AV012@H@Z PROC NEAR ; std::_Tree<std::_Tmap_traits<unsigned long,tagEVENTINFO,std::less<unsigned long>,std::allocator<std::pair<unsigned long const ,tagEVENTINFO> >,0> >::iterator::operator++, COMDAT
; _this$ = ecx

; 332  : 			{	// postincrement

  00000	56		 push	 esi

; 333  : 			iterator _Tmp = *this;

  00001	8b 31		 mov	 esi, DWORD PTR [ecx]

; 334  : 			++*this;

  00003	e8 00 00 00 00	 call	 ?_Inc@const_iterator@?$_Tree@V?$_Tmap_traits@KUtagEVENTINFO@@U?$less@K@std@@V?$allocator@U?$pair@$$CBKUtagEVENTINFO@@@std@@@3@$0A@@std@@@std@@QAEXXZ ; std::_Tree<std::_Tmap_traits<unsigned long,tagEVENTINFO,std::less<unsigned long>,std::allocator<std::pair<unsigned long const ,tagEVENTINFO> >,0> >::const_iterator::_Inc

; 335  : 			return (_Tmp);

  00008	8b 44 24 08	 mov	 eax, DWORD PTR ___$ReturnUdt$[esp]
  0000c	89 30		 mov	 DWORD PTR [eax], esi
  0000e	5e		 pop	 esi

; 336  : 			}

  0000f	c2 08 00	 ret	 8
??Eiterator@?$_Tree@V?$_Tmap_traits@KUtagEVENTINFO@@U?$less@K@std@@V?$allocator@U?$pair@$$CBKUtagEVENTINFO@@@std@@@3@$0A@@std@@@std@@QAE?AV012@H@Z ENDP ; std::_Tree<std::_Tmap_traits<unsigned long,tagEVENTINFO,std::less<unsigned long>,std::allocator<std::pair<unsigned long const ,tagEVENTINFO> >,0> >::iterator::operator++
_TEXT	ENDS
PUBLIC	??_7logic_error@std@@6B@			; std::logic_error::`vftable'
PUBLIC	??_Glogic_error@std@@UAEPAXI@Z			; std::logic_error::`scalar deleting destructor'
PUBLIC	??1logic_error@std@@UAE@XZ			; std::logic_error::~logic_error
PUBLIC	?what@logic_error@std@@UBEPBDXZ			; std::logic_error::what
EXTRN	??_Elogic_error@std@@UAEPAXI@Z:NEAR		; std::logic_error::`vector deleting destructor'
EXTRN	??1exception@@UAE@XZ:NEAR			; exception::~exception
;	COMDAT ??_7logic_error@std@@6B@
; File c:\program files (x86)\microsoft visual studio .net 2003\vc7\include\iosfwd
CONST	SEGMENT
??_7logic_error@std@@6B@ DD FLAT:??_Elogic_error@std@@UAEPAXI@Z ; std::logic_error::`vftable'
	DD	FLAT:?what@logic_error@std@@UBEPBDXZ
; Function compile flags: /Ogty
; File c:\program files (x86)\microsoft visual studio .net 2003\vc7\include\stdexcept
CONST	ENDS
;	COMDAT ??1logic_error@std@@UAE@XZ
_TEXT	SEGMENT
??1logic_error@std@@UAE@XZ PROC NEAR			; std::logic_error::~logic_error, COMDAT
; _this$ = ecx

; 23   : 		{}	// destroy the object

  00000	56		 push	 esi
  00001	8b f1		 mov	 esi, ecx
  00003	c7 06 00 00 00
	00		 mov	 DWORD PTR [esi], OFFSET FLAT:??_7logic_error@std@@6B@
  00009	83 7e 24 10	 cmp	 DWORD PTR [esi+36], 16	; 00000010H
  0000d	72 0c		 jb	 SHORT $L95886
  0000f	8b 46 10	 mov	 eax, DWORD PTR [esi+16]
  00012	50		 push	 eax
  00013	e8 00 00 00 00	 call	 ??3@YAXPAX@Z		; operator delete
  00018	83 c4 04	 add	 esp, 4
$L95886:
  0001b	33 c0		 xor	 eax, eax
  0001d	c7 46 24 0f 00
	00 00		 mov	 DWORD PTR [esi+36], 15	; 0000000fH
  00024	89 46 20	 mov	 DWORD PTR [esi+32], eax
  00027	88 46 10	 mov	 BYTE PTR [esi+16], al
  0002a	8b ce		 mov	 ecx, esi
  0002c	5e		 pop	 esi
  0002d	e9 00 00 00 00	 jmp	 ??1exception@@UAE@XZ	; exception::~exception
??1logic_error@std@@UAE@XZ ENDP				; std::logic_error::~logic_error
; Function compile flags: /Ogty
_TEXT	ENDS
;	COMDAT ?what@logic_error@std@@UBEPBDXZ
_TEXT	SEGMENT
?what@logic_error@std@@UBEPBDXZ PROC NEAR		; std::logic_error::what, COMDAT
; _this$ = ecx

; 27   : 		return (_Str.c_str());

  00000	83 79 24 10	 cmp	 DWORD PTR [ecx+36], 16	; 00000010H
  00004	72 04		 jb	 SHORT $L95920
  00006	8b 41 10	 mov	 eax, DWORD PTR [ecx+16]

; 28   : 		}

  00009	c3		 ret	 0

; 27   : 		return (_Str.c_str());

$L95920:
  0000a	8d 41 10	 lea	 eax, DWORD PTR [ecx+16]

; 28   : 		}

  0000d	c3		 ret	 0
?what@logic_error@std@@UBEPBDXZ ENDP			; std::logic_error::what
; Function compile flags: /Ogty
_TEXT	ENDS
;	COMDAT ??_Glogic_error@std@@UAEPAXI@Z
_TEXT	SEGMENT
___flags$ = 8						; size = 4
??_Glogic_error@std@@UAEPAXI@Z PROC NEAR		; std::logic_error::`scalar deleting destructor', COMDAT
; _this$ = ecx
  00000	56		 push	 esi
  00001	8b f1		 mov	 esi, ecx
  00003	e8 00 00 00 00	 call	 ??1logic_error@std@@UAE@XZ ; std::logic_error::~logic_error
  00008	f6 44 24 08 01	 test	 BYTE PTR ___flags$[esp], 1
  0000d	74 09		 je	 SHORT $L95927
  0000f	56		 push	 esi
  00010	e8 00 00 00 00	 call	 ??3@YAXPAX@Z		; operator delete
  00015	83 c4 04	 add	 esp, 4
$L95927:
  00018	8b c6		 mov	 eax, esi
  0001a	5e		 pop	 esi
  0001b	c2 04 00	 ret	 4
??_Glogic_error@std@@UAEPAXI@Z ENDP			; std::logic_error::`scalar deleting destructor'
_TEXT	ENDS
PUBLIC	?WrapPacketIn@tagEVENTINFO@@QAEXPAVCPacket@@@Z	; tagEVENTINFO::WrapPacketIn
EXTRN	??6CPacket@@QAEAAV0@PBD@Z:NEAR			; CPacket::operator<<
EXTRN	??6CPacket@@QAEAAV0@G@Z:NEAR			; CPacket::operator<<
; Function compile flags: /Ogty
; File c:\users\pierr\desktop\4story - oldschool\sources\tserver\tcontrolsvr\tcontroltype.h
;	COMDAT ?WrapPacketIn@tagEVENTINFO@@QAEXPAVCPacket@@@Z
_TEXT	SEGMENT
_pMsg$ = 8						; size = 4
?WrapPacketIn@tagEVENTINFO@@QAEXPAVCPacket@@@Z PROC NEAR ; tagEVENTINFO::WrapPacketIn, COMDAT
; _this$ = ecx

; 332  : 	{

  00000	53		 push	 ebx
  00001	56		 push	 esi
  00002	8b f1		 mov	 esi, ecx

; 333  : 		(*pMsg)
; 334  : 			<< m_dwIndex
; 335  : 			<< m_bID
; 336  : 			<< m_bState
; 337  : 			<< m_bGroupID
; 338  : 			<< m_bSvrType
; 339  : 			<< m_bSvrID
; 340  : 			<< m_dStartDate
; 341  : 			<< m_dEndDate	
; 342  : 			<< m_wValue
; 343  : 			<< m_wMapID
; 344  : 			<< m_dwStartAlarm
; 345  : 			<< m_dwEndAlarm
; 346  : 			<< m_strStartMsg
; 347  : 			<< m_strEndMsg
; 348  : 			<< m_strTitle
; 349  : 			<< m_bPartTime
; 350  : 			<< m_strLotMsg
; 351  : 			<< (WORD)m_vCashItem.size();

  00004	8b 4e 40	 mov	 ecx, DWORD PTR [esi+64]
  00007	85 c9		 test	 ecx, ecx
  00009	57		 push	 edi
  0000a	75 04		 jne	 SHORT $L95936
  0000c	33 c0		 xor	 eax, eax
  0000e	eb 08		 jmp	 SHORT $L95937
$L95936:
  00010	8b 46 44	 mov	 eax, DWORD PTR [esi+68]
  00013	2b c1		 sub	 eax, ecx
  00015	c1 f8 02	 sar	 eax, 2
$L95937:
  00018	8b 8e 80 00 00
	00		 mov	 ecx, DWORD PTR [esi+128]
  0001e	50		 push	 eax
  0001f	8b 56 08	 mov	 edx, DWORD PTR [esi+8]
  00022	8b 7e 34	 mov	 edi, DWORD PTR [esi+52]
  00025	8b 5e 30	 mov	 ebx, DWORD PTR [esi+48]
  00028	51		 push	 ecx
  00029	8b 4e 28	 mov	 ecx, DWORD PTR [esi+40]
  0002c	33 c0		 xor	 eax, eax
  0002e	8a 46 39	 mov	 al, BYTE PTR [esi+57]
  00031	50		 push	 eax
  00032	52		 push	 edx
  00033	8b 56 24	 mov	 edx, DWORD PTR [esi+36]
  00036	57		 push	 edi
  00037	53		 push	 ebx
  00038	51		 push	 ecx
  00039	52		 push	 edx
  0003a	8b 56 1c	 mov	 edx, DWORD PTR [esi+28]
  0003d	33 c0		 xor	 eax, eax
  0003f	66 8b 46 22	 mov	 ax, WORD PTR [esi+34]
  00043	33 c9		 xor	 ecx, ecx
  00045	66 8b 4e 20	 mov	 cx, WORD PTR [esi+32]
  00049	8b 5c 24 30	 mov	 ebx, DWORD PTR _pMsg$[esp+40]
  0004d	50		 push	 eax
  0004e	8b 46 18	 mov	 eax, DWORD PTR [esi+24]
  00051	51		 push	 ecx
  00052	8b 4e 14	 mov	 ecx, DWORD PTR [esi+20]
  00055	52		 push	 edx
  00056	8b 56 10	 mov	 edx, DWORD PTR [esi+16]
  00059	50		 push	 eax
  0005a	51		 push	 ecx
  0005b	33 c0		 xor	 eax, eax
  0005d	8a 46 0e	 mov	 al, BYTE PTR [esi+14]
  00060	33 c9		 xor	 ecx, ecx
  00062	8a 4e 0d	 mov	 cl, BYTE PTR [esi+13]
  00065	52		 push	 edx
  00066	33 d2		 xor	 edx, edx
  00068	8a 56 0c	 mov	 dl, BYTE PTR [esi+12]
  0006b	50		 push	 eax
  0006c	33 c0		 xor	 eax, eax
  0006e	8a 46 38	 mov	 al, BYTE PTR [esi+56]
  00071	51		 push	 ecx
  00072	33 c9		 xor	 ecx, ecx
  00074	8a 4e 04	 mov	 cl, BYTE PTR [esi+4]
  00077	52		 push	 edx
  00078	8b 16		 mov	 edx, DWORD PTR [esi]
  0007a	50		 push	 eax
  0007b	51		 push	 ecx
  0007c	52		 push	 edx
  0007d	8b cb		 mov	 ecx, ebx
  0007f	e8 00 00 00 00	 call	 ??6CPacket@@QAEAAV0@K@Z	; CPacket::operator<<
  00084	8b c8		 mov	 ecx, eax
  00086	e8 00 00 00 00	 call	 ??6CPacket@@QAEAAV0@E@Z	; CPacket::operator<<
  0008b	8b c8		 mov	 ecx, eax
  0008d	e8 00 00 00 00	 call	 ??6CPacket@@QAEAAV0@E@Z	; CPacket::operator<<
  00092	8b c8		 mov	 ecx, eax
  00094	e8 00 00 00 00	 call	 ??6CPacket@@QAEAAV0@E@Z	; CPacket::operator<<
  00099	8b c8		 mov	 ecx, eax
  0009b	e8 00 00 00 00	 call	 ??6CPacket@@QAEAAV0@E@Z	; CPacket::operator<<
  000a0	8b c8		 mov	 ecx, eax
  000a2	e8 00 00 00 00	 call	 ??6CPacket@@QAEAAV0@E@Z	; CPacket::operator<<
  000a7	8b c8		 mov	 ecx, eax
  000a9	e8 00 00 00 00	 call	 ??6CPacket@@QAEAAV0@_J@Z ; CPacket::operator<<
  000ae	8b c8		 mov	 ecx, eax
  000b0	e8 00 00 00 00	 call	 ??6CPacket@@QAEAAV0@_J@Z ; CPacket::operator<<
  000b5	8b c8		 mov	 ecx, eax
  000b7	e8 00 00 00 00	 call	 ??6CPacket@@QAEAAV0@G@Z	; CPacket::operator<<
  000bc	8b c8		 mov	 ecx, eax
  000be	e8 00 00 00 00	 call	 ??6CPacket@@QAEAAV0@G@Z	; CPacket::operator<<
  000c3	8b c8		 mov	 ecx, eax
  000c5	e8 00 00 00 00	 call	 ??6CPacket@@QAEAAV0@K@Z	; CPacket::operator<<
  000ca	8b c8		 mov	 ecx, eax
  000cc	e8 00 00 00 00	 call	 ??6CPacket@@QAEAAV0@K@Z	; CPacket::operator<<
  000d1	8b c8		 mov	 ecx, eax
  000d3	e8 00 00 00 00	 call	 ??6CPacket@@QAEAAV0@PBD@Z ; CPacket::operator<<
  000d8	8b c8		 mov	 ecx, eax
  000da	e8 00 00 00 00	 call	 ??6CPacket@@QAEAAV0@PBD@Z ; CPacket::operator<<
  000df	8b c8		 mov	 ecx, eax
  000e1	e8 00 00 00 00	 call	 ??6CPacket@@QAEAAV0@PBD@Z ; CPacket::operator<<
  000e6	8b c8		 mov	 ecx, eax
  000e8	e8 00 00 00 00	 call	 ??6CPacket@@QAEAAV0@E@Z	; CPacket::operator<<
  000ed	8b c8		 mov	 ecx, eax
  000ef	e8 00 00 00 00	 call	 ??6CPacket@@QAEAAV0@PBD@Z ; CPacket::operator<<
  000f4	8b c8		 mov	 ecx, eax
  000f6	e8 00 00 00 00	 call	 ??6CPacket@@QAEAAV0@G@Z	; CPacket::operator<<

; 352  : 
; 353  : 		WORD i;
; 354  : 		for(i = 0; i < (WORD)m_vCashItem.size(); i++)

  000fb	33 ff		 xor	 edi, edi
  000fd	8d 49 00	 npad	 3
$L78192:
  00100	8b 4e 40	 mov	 ecx, DWORD PTR [esi+64]
  00103	85 c9		 test	 ecx, ecx
  00105	74 2e		 je	 SHORT $L96675
  00107	8b 46 44	 mov	 eax, DWORD PTR [esi+68]
  0010a	2b c1		 sub	 eax, ecx
  0010c	c1 f8 02	 sar	 eax, 2
  0010f	66 3b f8	 cmp	 di, ax
  00112	73 21		 jae	 SHORT $L96675

; 355  : 		{
; 356  : 			(*pMsg)
; 357  : 				<< m_vCashItem[i].m_wID
; 358  : 				<< m_vCashItem[i].m_bSaleValue;

  00114	0f b7 c7	 movzx	 eax, di
  00117	8d 04 81	 lea	 eax, DWORD PTR [ecx+eax*4]
  0011a	33 d2		 xor	 edx, edx
  0011c	8a 50 02	 mov	 dl, BYTE PTR [eax+2]
  0011f	0f b7 00	 movzx	 eax, WORD PTR [eax]
  00122	8b cb		 mov	 ecx, ebx
  00124	52		 push	 edx
  00125	50		 push	 eax
  00126	e8 00 00 00 00	 call	 ??6CPacket@@QAEAAV0@G@Z	; CPacket::operator<<
  0012b	8b c8		 mov	 ecx, eax
  0012d	e8 00 00 00 00	 call	 ??6CPacket@@QAEAAV0@E@Z	; CPacket::operator<<
  00132	47		 inc	 edi
  00133	eb cb		 jmp	 SHORT $L78192
$L96675:

; 359  : 		}
; 360  : 
; 361  : 		(*pMsg)
; 362  : 			<< m_stMONEVENT.m_bStartAction
; 363  : 			<< m_stMONEVENT.m_bEndAction
; 364  : 			<< (WORD)m_stMONEVENT.m_vSpawnID.size();

  00135	8b 4e 54	 mov	 ecx, DWORD PTR [esi+84]
  00138	85 c9		 test	 ecx, ecx
  0013a	75 04		 jne	 SHORT $L96077
  0013c	33 c0		 xor	 eax, eax
  0013e	eb 07		 jmp	 SHORT $L96078
$L96077:
  00140	8b 46 58	 mov	 eax, DWORD PTR [esi+88]
  00143	2b c1		 sub	 eax, ecx
  00145	d1 f8		 sar	 eax, 1
$L96078:
  00147	33 c9		 xor	 ecx, ecx
  00149	8a 4e 4d	 mov	 cl, BYTE PTR [esi+77]
  0014c	33 d2		 xor	 edx, edx
  0014e	8a 56 4c	 mov	 dl, BYTE PTR [esi+76]
  00151	50		 push	 eax
  00152	51		 push	 ecx
  00153	8b cb		 mov	 ecx, ebx
  00155	52		 push	 edx
  00156	e8 00 00 00 00	 call	 ??6CPacket@@QAEAAV0@E@Z	; CPacket::operator<<
  0015b	8b c8		 mov	 ecx, eax
  0015d	e8 00 00 00 00	 call	 ??6CPacket@@QAEAAV0@E@Z	; CPacket::operator<<
  00162	8b c8		 mov	 ecx, eax
  00164	e8 00 00 00 00	 call	 ??6CPacket@@QAEAAV0@G@Z	; CPacket::operator<<

; 365  : 
; 366  : 		for(i = 0; i < (WORD)m_stMONEVENT.m_vSpawnID.size(); i++)

  00169	33 ff		 xor	 edi, edi
  0016b	eb 03 8d 49 00	 npad	 5
$L78197:
  00170	8b 4e 54	 mov	 ecx, DWORD PTR [esi+84]
  00173	85 c9		 test	 ecx, ecx
  00175	74 22		 je	 SHORT $L96676
  00177	8b 46 58	 mov	 eax, DWORD PTR [esi+88]
  0017a	2b c1		 sub	 eax, ecx
  0017c	d1 f8		 sar	 eax, 1
  0017e	66 3b f8	 cmp	 di, ax
  00181	73 16		 jae	 SHORT $L96676

; 367  : 		{
; 368  : 			(*pMsg)
; 369  : 				<< m_stMONEVENT.m_vSpawnID[i];

  00183	0f b7 c7	 movzx	 eax, di
  00186	8d 04 41	 lea	 eax, DWORD PTR [ecx+eax*2]
  00189	33 d2		 xor	 edx, edx
  0018b	66 8b 10	 mov	 dx, WORD PTR [eax]
  0018e	8b cb		 mov	 ecx, ebx
  00190	52		 push	 edx
  00191	e8 00 00 00 00	 call	 ??6CPacket@@QAEAAV0@G@Z	; CPacket::operator<<
  00196	47		 inc	 edi
  00197	eb d7		 jmp	 SHORT $L78197
$L96676:

; 370  : 		}
; 371  : 
; 372  : 		(*pMsg)
; 373  : 			<< (WORD)m_vMONREGEN.size();

  00199	8b 46 64	 mov	 eax, DWORD PTR [esi+100]
  0019c	85 c0		 test	 eax, eax
  0019e	74 16		 je	 SHORT $L96150
$L96149:
  001a0	8b 4e 68	 mov	 ecx, DWORD PTR [esi+104]
  001a3	2b c8		 sub	 ecx, eax
  001a5	b8 ab aa aa 2a	 mov	 eax, 715827883		; 2aaaaaabH
  001aa	f7 e9		 imul	 ecx
  001ac	c1 fa 02	 sar	 edx, 2
  001af	8b c2		 mov	 eax, edx
  001b1	c1 e8 1f	 shr	 eax, 31			; 0000001fH
  001b4	03 c2		 add	 eax, edx
$L96150:
  001b6	50		 push	 eax
  001b7	8b cb		 mov	 ecx, ebx
  001b9	e8 00 00 00 00	 call	 ??6CPacket@@QAEAAV0@G@Z	; CPacket::operator<<

; 374  : 		for(i = 0; i < (WORD)m_vMONREGEN.size(); i++)

  001be	33 ff		 xor	 edi, edi
$L78202:
  001c0	8b 46 64	 mov	 eax, DWORD PTR [esi+100]
  001c3	85 c0		 test	 eax, eax
  001c5	74 70		 je	 SHORT $L96677
  001c7	8b 4e 68	 mov	 ecx, DWORD PTR [esi+104]
  001ca	2b c8		 sub	 ecx, eax
  001cc	b8 ab aa aa 2a	 mov	 eax, 715827883		; 2aaaaaabH
  001d1	f7 e9		 imul	 ecx
  001d3	c1 fa 02	 sar	 edx, 2
  001d6	8b c2		 mov	 eax, edx
  001d8	c1 e8 1f	 shr	 eax, 31			; 0000001fH
  001db	03 c2		 add	 eax, edx
  001dd	66 3b f8	 cmp	 di, ax
  001e0	73 55		 jae	 SHORT $L96677

; 375  : 		{
; 376  : 			(*pMsg)
; 377  : 				<< m_vMONREGEN[i].m_wMonID
; 378  : 				<< m_vMONREGEN[i].m_dwDelay
; 379  : 				<< m_vMONREGEN[i].m_wMapID
; 380  : 				<< m_vMONREGEN[i].m_fPosX
; 381  : 				<< m_vMONREGEN[i].m_fPosY
; 382  : 				<< m_vMONREGEN[i].m_fPosZ;

  001e2	8b 4e 64	 mov	 ecx, DWORD PTR [esi+100]
  001e5	0f b7 c7	 movzx	 eax, di
  001e8	8d 04 40	 lea	 eax, DWORD PTR [eax+eax*2]
  001eb	8b 54 c1 14	 mov	 edx, DWORD PTR [ecx+eax*8+20]
  001ef	8d 04 c1	 lea	 eax, DWORD PTR [ecx+eax*8]
  001f2	8b 48 10	 mov	 ecx, DWORD PTR [eax+16]
  001f5	52		 push	 edx
  001f6	8b 50 0c	 mov	 edx, DWORD PTR [eax+12]
  001f9	51		 push	 ecx
  001fa	33 c9		 xor	 ecx, ecx
  001fc	66 8b 48 08	 mov	 cx, WORD PTR [eax+8]
  00200	52		 push	 edx
  00201	8b 50 04	 mov	 edx, DWORD PTR [eax+4]
  00204	0f b7 00	 movzx	 eax, WORD PTR [eax]
  00207	51		 push	 ecx
  00208	52		 push	 edx
  00209	50		 push	 eax
  0020a	8b cb		 mov	 ecx, ebx
  0020c	e8 00 00 00 00	 call	 ??6CPacket@@QAEAAV0@G@Z	; CPacket::operator<<
  00211	8b c8		 mov	 ecx, eax
  00213	e8 00 00 00 00	 call	 ??6CPacket@@QAEAAV0@K@Z	; CPacket::operator<<
  00218	8b c8		 mov	 ecx, eax
  0021a	e8 00 00 00 00	 call	 ??6CPacket@@QAEAAV0@G@Z	; CPacket::operator<<
  0021f	8b c8		 mov	 ecx, eax
  00221	e8 00 00 00 00	 call	 ??6CPacket@@QAEAAV0@M@Z	; CPacket::operator<<
  00226	8b c8		 mov	 ecx, eax
  00228	e8 00 00 00 00	 call	 ??6CPacket@@QAEAAV0@M@Z	; CPacket::operator<<
  0022d	8b c8		 mov	 ecx, eax
  0022f	e8 00 00 00 00	 call	 ??6CPacket@@QAEAAV0@M@Z	; CPacket::operator<<
  00234	47		 inc	 edi
  00235	eb 89		 jmp	 SHORT $L78202
$L96677:

; 383  : 		}
; 384  : 
; 385  : 		(*pMsg)
; 386  : 			<< (WORD)m_vLOTTERY.size();

  00237	8b 46 74	 mov	 eax, DWORD PTR [esi+116]
  0023a	85 c0		 test	 eax, eax
  0023c	74 13		 je	 SHORT $L96495
$L96494:
  0023e	8b 4e 78	 mov	 ecx, DWORD PTR [esi+120]
  00241	2b c8		 sub	 ecx, eax
  00243	b8 ab aa aa 2a	 mov	 eax, 715827883		; 2aaaaaabH
  00248	f7 e9		 imul	 ecx
  0024a	8b c2		 mov	 eax, edx
  0024c	c1 e8 1f	 shr	 eax, 31			; 0000001fH
  0024f	03 c2		 add	 eax, edx
$L96495:
  00251	50		 push	 eax
  00252	8b cb		 mov	 ecx, ebx
  00254	e8 00 00 00 00	 call	 ??6CPacket@@QAEAAV0@G@Z	; CPacket::operator<<

; 387  : 		for(i = 0; i < (WORD)m_vLOTTERY.size(); i++)

  00259	33 ff		 xor	 edi, edi
  0025b	eb 03 8d 49 00	 npad	 5
$L78207:
  00260	8b 46 74	 mov	 eax, DWORD PTR [esi+116]
  00263	85 c0		 test	 eax, eax
  00265	74 4d		 je	 SHORT $L96678
  00267	8b 4e 78	 mov	 ecx, DWORD PTR [esi+120]
  0026a	2b c8		 sub	 ecx, eax
  0026c	b8 ab aa aa 2a	 mov	 eax, 715827883		; 2aaaaaabH
  00271	f7 e9		 imul	 ecx
  00273	8b c2		 mov	 eax, edx
  00275	c1 e8 1f	 shr	 eax, 31			; 0000001fH
  00278	03 c2		 add	 eax, edx
  0027a	66 3b f8	 cmp	 di, ax
  0027d	73 35		 jae	 SHORT $L96678

; 388  : 		{
; 389  : 			(*pMsg)
; 390  : 				<< m_vLOTTERY[i].m_wItemID
; 391  : 				<< m_vLOTTERY[i].m_bNum
; 392  : 				<< m_vLOTTERY[i].m_wWinner;

  0027f	8b 56 74	 mov	 edx, DWORD PTR [esi+116]
  00282	0f b7 c7	 movzx	 eax, di
  00285	8d 0c 40	 lea	 ecx, DWORD PTR [eax+eax*2]
  00288	8d 04 4a	 lea	 eax, DWORD PTR [edx+ecx*2]
  0028b	33 c9		 xor	 ecx, ecx
  0028d	66 8b 48 04	 mov	 cx, WORD PTR [eax+4]
  00291	33 d2		 xor	 edx, edx
  00293	8a 50 02	 mov	 dl, BYTE PTR [eax+2]
  00296	0f b7 00	 movzx	 eax, WORD PTR [eax]
  00299	51		 push	 ecx
  0029a	8b cb		 mov	 ecx, ebx
  0029c	52		 push	 edx
  0029d	50		 push	 eax
  0029e	e8 00 00 00 00	 call	 ??6CPacket@@QAEAAV0@G@Z	; CPacket::operator<<
  002a3	8b c8		 mov	 ecx, eax
  002a5	e8 00 00 00 00	 call	 ??6CPacket@@QAEAAV0@E@Z	; CPacket::operator<<
  002aa	8b c8		 mov	 ecx, eax
  002ac	e8 00 00 00 00	 call	 ??6CPacket@@QAEAAV0@G@Z	; CPacket::operator<<
  002b1	47		 inc	 edi
  002b2	eb ac		 jmp	 SHORT $L78207
$L96678:
  002b4	5f		 pop	 edi
  002b5	5e		 pop	 esi
  002b6	5b		 pop	 ebx

; 393  : 		}
; 394  : 	}

  002b7	c2 04 00	 ret	 4
?WrapPacketIn@tagEVENTINFO@@QAEXPAVCPacket@@@Z ENDP	; tagEVENTINFO::WrapPacketIn
_TEXT	ENDS
PUBLIC	?assign@?$basic_string@DU?$char_traits@D@std@@V?$allocator@D@2@@std@@QAEAAV12@ABV12@II@Z ; std::basic_string<char,std::char_traits<char>,std::allocator<char> >::assign
; Function compile flags: /Ogty
; File c:\program files (x86)\microsoft visual studio .net 2003\vc7\include\xstring
;	COMDAT ?assign@?$basic_string@DU?$char_traits@D@std@@V?$allocator@D@2@@std@@QAEAAV12@ABV12@II@Z
_TEXT	SEGMENT
__Right$ = 8						; size = 4
__Roff$ = 12						; size = 4
__Count$ = 16						; size = 4
?assign@?$basic_string@DU?$char_traits@D@std@@V?$allocator@D@2@@std@@QAEAAV12@ABV12@II@Z PROC NEAR ; std::basic_string<char,std::char_traits<char>,std::allocator<char> >::assign, COMDAT
; _this$ = ecx

; 590  : 		{	// assign _Right [_Roff, _Roff + _Count)

  00000	53		 push	 ebx
  00001	55		 push	 ebp
  00002	56		 push	 esi

; 591  : 		if (_Right.size() < _Roff)

  00003	8b 74 24 14	 mov	 esi, DWORD PTR __Roff$[esp+8]
  00007	57		 push	 edi
  00008	8b 7c 24 14	 mov	 edi, DWORD PTR __Right$[esp+12]
  0000c	39 77 14	 cmp	 DWORD PTR [edi+20], esi
  0000f	8b d9		 mov	 ebx, ecx
  00011	73 05		 jae	 SHORT $L85653

; 592  : 			_String_base::_Xran();	// _Roff off end

  00013	e8 00 00 00 00	 call	 ?_Xran@_String_base@std@@QBEXXZ ; std::_String_base::_Xran
$L85653:

; 593  : 		size_type _Num = _Right.size() - _Roff;

  00018	8b 6f 14	 mov	 ebp, DWORD PTR [edi+20]

; 594  : 		if (_Count < _Num)

  0001b	8b 44 24 1c	 mov	 eax, DWORD PTR __Count$[esp+12]
  0001f	2b ee		 sub	 ebp, esi
  00021	3b c5		 cmp	 eax, ebp
  00023	73 02		 jae	 SHORT $L85655

; 595  : 			_Num = _Count;	// trim _Num to size

  00025	8b e8		 mov	 ebp, eax
$L85655:

; 596  : 
; 597  : 		if (this == &_Right)

  00027	3b df		 cmp	 ebx, edi
  00029	75 1f		 jne	 SHORT $L85656

; 598  : 			erase((size_type)(_Roff + _Num)), erase(0, _Roff);	// substring

  0002b	6a ff		 push	 -1
  0002d	03 ee		 add	 ebp, esi
  0002f	55		 push	 ebp
  00030	8b cb		 mov	 ecx, ebx
  00032	e8 00 00 00 00	 call	 ?erase@?$basic_string@DU?$char_traits@D@std@@V?$allocator@D@2@@std@@QAEAAV12@II@Z ; std::basic_string<char,std::char_traits<char>,std::allocator<char> >::erase
  00037	56		 push	 esi
  00038	6a 00		 push	 0
  0003a	8b cb		 mov	 ecx, ebx
  0003c	e8 00 00 00 00	 call	 ?erase@?$basic_string@DU?$char_traits@D@std@@V?$allocator@D@2@@std@@QAEAAV12@II@Z ; std::basic_string<char,std::char_traits<char>,std::allocator<char> >::erase
  00041	5f		 pop	 edi
  00042	5e		 pop	 esi
  00043	5d		 pop	 ebp

; 603  : 			}
; 604  : 		return (*this);

  00044	8b c3		 mov	 eax, ebx
  00046	5b		 pop	 ebx

; 605  : 		}

  00047	c2 0c 00	 ret	 12			; 0000000cH
$L85656:

; 599  : 		else if (_Grow(_Num))

  0004a	83 fd fe	 cmp	 ebp, -2			; fffffffeH
  0004d	76 07		 jbe	 SHORT $L96787
  0004f	8b cb		 mov	 ecx, ebx
  00051	e8 00 00 00 00	 call	 ?_Xlen@_String_base@std@@QBEXXZ ; std::_String_base::_Xlen
$L96787:
  00056	8b 43 18	 mov	 eax, DWORD PTR [ebx+24]
  00059	3b c5		 cmp	 eax, ebp
  0005b	73 21		 jae	 SHORT $L96788
  0005d	8b 43 14	 mov	 eax, DWORD PTR [ebx+20]
  00060	50		 push	 eax
  00061	55		 push	 ebp
  00062	8b cb		 mov	 ecx, ebx
  00064	e8 00 00 00 00	 call	 ?_Copy@?$basic_string@DU?$char_traits@D@std@@V?$allocator@D@2@@std@@IAEXII@Z ; std::basic_string<char,std::char_traits<char>,std::allocator<char> >::_Copy
  00069	85 ed		 test	 ebp, ebp
$L96875:
  0006b	76 6d		 jbe	 SHORT $L96874

; 600  : 			{	// make room and assign new stuff
; 601  : 			_Traits::copy(_Myptr(), _Right._Myptr() + _Roff, _Num);

  0006d	8b 4f 18	 mov	 ecx, DWORD PTR [edi+24]
  00070	b8 10 00 00 00	 mov	 eax, 16			; 00000010H
  00075	3b c8		 cmp	 ecx, eax
  00077	72 2f		 jb	 SHORT $L96839
  00079	8b 57 04	 mov	 edx, DWORD PTR [edi+4]
  0007c	eb 2d		 jmp	 SHORT $L96840

; 599  : 		else if (_Grow(_Num))

$L96788:
  0007e	85 ed		 test	 ebp, ebp
  00080	75 e9		 jne	 SHORT $L96875
  00082	83 f8 10	 cmp	 eax, 16			; 00000010H
  00085	89 6b 14	 mov	 DWORD PTR [ebx+20], ebp
  00088	72 0f		 jb	 SHORT $L96831
  0008a	8b 43 04	 mov	 eax, DWORD PTR [ebx+4]
  0008d	5f		 pop	 edi
  0008e	5e		 pop	 esi
  0008f	c6 00 00	 mov	 BYTE PTR [eax], 0
  00092	5d		 pop	 ebp

; 603  : 			}
; 604  : 		return (*this);

  00093	8b c3		 mov	 eax, ebx
  00095	5b		 pop	 ebx

; 605  : 		}

  00096	c2 0c 00	 ret	 12			; 0000000cH

; 599  : 		else if (_Grow(_Num))

$L96831:
  00099	5f		 pop	 edi
  0009a	8d 43 04	 lea	 eax, DWORD PTR [ebx+4]
  0009d	5e		 pop	 esi
  0009e	c6 00 00	 mov	 BYTE PTR [eax], 0
  000a1	5d		 pop	 ebp

; 603  : 			}
; 604  : 		return (*this);

  000a2	8b c3		 mov	 eax, ebx
  000a4	5b		 pop	 ebx

; 605  : 		}

  000a5	c2 0c 00	 ret	 12			; 0000000cH

; 600  : 			{	// make room and assign new stuff
; 601  : 			_Traits::copy(_Myptr(), _Right._Myptr() + _Roff, _Num);

$L96839:
  000a8	8d 57 04	 lea	 edx, DWORD PTR [edi+4]
$L96840:
  000ab	39 43 18	 cmp	 DWORD PTR [ebx+24], eax
  000ae	8d 43 04	 lea	 eax, DWORD PTR [ebx+4]
  000b1	72 04		 jb	 SHORT $L96847
  000b3	8b 38		 mov	 edi, DWORD PTR [eax]
  000b5	eb 02		 jmp	 SHORT $L96848
$L96847:
  000b7	8b f8		 mov	 edi, eax
$L96848:
  000b9	03 f2		 add	 esi, edx
  000bb	8b cd		 mov	 ecx, ebp
  000bd	8b d1		 mov	 edx, ecx
  000bf	c1 e9 02	 shr	 ecx, 2
  000c2	f3 a5		 rep movsd
  000c4	8b ca		 mov	 ecx, edx
  000c6	83 e1 03	 and	 ecx, 3
  000c9	f3 a4		 rep movsb

; 602  : 			_Eos(_Num);

  000cb	83 7b 18 10	 cmp	 DWORD PTR [ebx+24], 16	; 00000010H
  000cf	89 6b 14	 mov	 DWORD PTR [ebx+20], ebp
  000d2	72 02		 jb	 SHORT $L96871
  000d4	8b 00		 mov	 eax, DWORD PTR [eax]
$L96871:
  000d6	c6 04 28 00	 mov	 BYTE PTR [eax+ebp], 0
$L96874:
  000da	5f		 pop	 edi
  000db	5e		 pop	 esi
  000dc	5d		 pop	 ebp

; 603  : 			}
; 604  : 		return (*this);

  000dd	8b c3		 mov	 eax, ebx
  000df	5b		 pop	 ebx

; 605  : 		}

  000e0	c2 0c 00	 ret	 12			; 0000000cH
?assign@?$basic_string@DU?$char_traits@D@std@@V?$allocator@D@2@@std@@QAEAAV12@ABV12@II@Z ENDP ; std::basic_string<char,std::char_traits<char>,std::allocator<char> >::assign
_TEXT	ENDS
PUBLIC	?assign@?$basic_string@DU?$char_traits@D@std@@V?$allocator@D@2@@std@@QAEAAV12@PBDI@Z ; std::basic_string<char,std::char_traits<char>,std::allocator<char> >::assign
; Function compile flags: /Ogty
;	COMDAT ?assign@?$basic_string@DU?$char_traits@D@std@@V?$allocator@D@2@@std@@QAEAAV12@PBDI@Z
_TEXT	SEGMENT
__Ptr$ = 8						; size = 4
__Num$ = 12						; size = 4
?assign@?$basic_string@DU?$char_traits@D@std@@V?$allocator@D@2@@std@@QAEAAV12@PBDI@Z PROC NEAR ; std::basic_string<char,std::char_traits<char>,std::allocator<char> >::assign, COMDAT
; _this$ = ecx

; 608  : 		{	// assign [_Ptr, _Ptr + _Num)

  00000	53		 push	 ebx
  00001	8b d9		 mov	 ebx, ecx

; 609  : 		if (_Inside(_Ptr))

  00003	8b 53 18	 mov	 edx, DWORD PTR [ebx+24]
  00006	83 fa 10	 cmp	 edx, 16			; 00000010H
  00009	56		 push	 esi
  0000a	57		 push	 edi
  0000b	72 05		 jb	 SHORT $L96901
  0000d	8b 43 04	 mov	 eax, DWORD PTR [ebx+4]
  00010	eb 03		 jmp	 SHORT $L96902
$L96901:
  00012	8d 43 04	 lea	 eax, DWORD PTR [ebx+4]
$L96902:
  00015	8b 74 24 10	 mov	 esi, DWORD PTR __Ptr$[esp+8]
  00019	3b f0		 cmp	 esi, eax
  0001b	72 34		 jb	 SHORT $L86148
  0001d	83 fa 10	 cmp	 edx, 16			; 00000010H
  00020	8d 43 04	 lea	 eax, DWORD PTR [ebx+4]
  00023	72 04		 jb	 SHORT $L96905
  00025	8b 08		 mov	 ecx, DWORD PTR [eax]
  00027	eb 02		 jmp	 SHORT $L96906
$L96905:
  00029	8b c8		 mov	 ecx, eax
$L96906:
  0002b	8b 7b 14	 mov	 edi, DWORD PTR [ebx+20]
  0002e	03 f9		 add	 edi, ecx
  00030	3b fe		 cmp	 edi, esi
  00032	76 1d		 jbe	 SHORT $L86148

; 610  : 			return (assign(*this, _Ptr - _Myptr(), _Num));	// substring

  00034	83 fa 10	 cmp	 edx, 16			; 00000010H
  00037	72 02		 jb	 SHORT $L96914
  00039	8b 00		 mov	 eax, DWORD PTR [eax]
$L96914:
  0003b	8b 4c 24 14	 mov	 ecx, DWORD PTR __Num$[esp+8]
  0003f	51		 push	 ecx
  00040	2b f0		 sub	 esi, eax
  00042	56		 push	 esi
  00043	53		 push	 ebx
  00044	8b cb		 mov	 ecx, ebx
  00046	e8 00 00 00 00	 call	 ?assign@?$basic_string@DU?$char_traits@D@std@@V?$allocator@D@2@@std@@QAEAAV12@ABV12@II@Z ; std::basic_string<char,std::char_traits<char>,std::allocator<char> >::assign
  0004b	5f		 pop	 edi
  0004c	5e		 pop	 esi
  0004d	5b		 pop	 ebx

; 618  : 		}

  0004e	c2 08 00	 ret	 8
$L86148:
  00051	55		 push	 ebp

; 611  : 
; 612  : 		if (_Grow(_Num))

  00052	8b 6c 24 18	 mov	 ebp, DWORD PTR __Num$[esp+12]
  00056	83 fd fe	 cmp	 ebp, -2			; fffffffeH
  00059	76 07		 jbe	 SHORT $L97012
  0005b	8b cb		 mov	 ecx, ebx
  0005d	e8 00 00 00 00	 call	 ?_Xlen@_String_base@std@@QBEXXZ ; std::_String_base::_Xlen
$L97012:
  00062	8b 43 18	 mov	 eax, DWORD PTR [ebx+24]
  00065	3b c5		 cmp	 eax, ebp
  00067	73 1b		 jae	 SHORT $L97013
  00069	8b 53 14	 mov	 edx, DWORD PTR [ebx+20]
  0006c	52		 push	 edx
  0006d	55		 push	 ebp
  0006e	8b cb		 mov	 ecx, ebx
  00070	e8 00 00 00 00	 call	 ?_Copy@?$basic_string@DU?$char_traits@D@std@@V?$allocator@D@2@@std@@IAEXII@Z ; std::basic_string<char,std::char_traits<char>,std::allocator<char> >::_Copy
  00075	85 ed		 test	 ebp, ebp
$L97093:
  00077	76 68		 jbe	 SHORT $L97091

; 613  : 			{	// make room and assign new stuff
; 614  : 			_Traits::copy(_Myptr(), _Ptr, _Num);

  00079	83 7b 18 10	 cmp	 DWORD PTR [ebx+24], 16	; 00000010H
  0007d	72 2f		 jb	 SHORT $L97065
  0007f	8b 7b 04	 mov	 edi, DWORD PTR [ebx+4]
  00082	eb 2d		 jmp	 SHORT $L97066

; 611  : 
; 612  : 		if (_Grow(_Num))

$L97013:
  00084	85 ed		 test	 ebp, ebp
  00086	75 ef		 jne	 SHORT $L97093
  00088	83 f8 10	 cmp	 eax, 16			; 00000010H
  0008b	89 6b 14	 mov	 DWORD PTR [ebx+20], ebp
  0008e	72 0f		 jb	 SHORT $L97056
  00090	8b 43 04	 mov	 eax, DWORD PTR [ebx+4]
  00093	5d		 pop	 ebp
  00094	5f		 pop	 edi
  00095	c6 00 00	 mov	 BYTE PTR [eax], 0
  00098	5e		 pop	 esi

; 616  : 			}
; 617  : 		return (*this);

  00099	8b c3		 mov	 eax, ebx
  0009b	5b		 pop	 ebx

; 618  : 		}

  0009c	c2 08 00	 ret	 8

; 611  : 
; 612  : 		if (_Grow(_Num))

$L97056:
  0009f	5d		 pop	 ebp
  000a0	8d 43 04	 lea	 eax, DWORD PTR [ebx+4]
  000a3	5f		 pop	 edi
  000a4	c6 00 00	 mov	 BYTE PTR [eax], 0
  000a7	5e		 pop	 esi

; 616  : 			}
; 617  : 		return (*this);

  000a8	8b c3		 mov	 eax, ebx
  000aa	5b		 pop	 ebx

; 618  : 		}

  000ab	c2 08 00	 ret	 8

; 613  : 			{	// make room and assign new stuff
; 614  : 			_Traits::copy(_Myptr(), _Ptr, _Num);

$L97065:
  000ae	8d 7b 04	 lea	 edi, DWORD PTR [ebx+4]
$L97066:
  000b1	8b cd		 mov	 ecx, ebp
  000b3	8b c1		 mov	 eax, ecx
  000b5	c1 e9 02	 shr	 ecx, 2
  000b8	f3 a5		 rep movsd
  000ba	8b c8		 mov	 ecx, eax
  000bc	83 e1 03	 and	 ecx, 3
  000bf	f3 a4		 rep movsb

; 615  : 			_Eos(_Num);

  000c1	83 7b 18 10	 cmp	 DWORD PTR [ebx+24], 16	; 00000010H
  000c5	89 6b 14	 mov	 DWORD PTR [ebx+20], ebp
  000c8	72 10		 jb	 SHORT $L97088
  000ca	8b 43 04	 mov	 eax, DWORD PTR [ebx+4]
  000cd	c6 04 28 00	 mov	 BYTE PTR [eax+ebp], 0
  000d1	5d		 pop	 ebp
  000d2	5f		 pop	 edi
  000d3	5e		 pop	 esi

; 616  : 			}
; 617  : 		return (*this);

  000d4	8b c3		 mov	 eax, ebx
  000d6	5b		 pop	 ebx

; 618  : 		}

  000d7	c2 08 00	 ret	 8

; 615  : 			_Eos(_Num);

$L97088:
  000da	8d 43 04	 lea	 eax, DWORD PTR [ebx+4]
  000dd	c6 04 28 00	 mov	 BYTE PTR [eax+ebp], 0
$L97091:
  000e1	5d		 pop	 ebp
  000e2	5f		 pop	 edi
  000e3	5e		 pop	 esi

; 616  : 			}
; 617  : 		return (*this);

  000e4	8b c3		 mov	 eax, ebx
  000e6	5b		 pop	 ebx

; 618  : 		}

  000e7	c2 08 00	 ret	 8
?assign@?$basic_string@DU?$char_traits@D@std@@V?$allocator@D@2@@std@@QAEAAV12@PBDI@Z ENDP ; std::basic_string<char,std::char_traits<char>,std::allocator<char> >::assign
_TEXT	ENDS
PUBLIC	?SendCT_SVRTYPELIST_ACK@CTManager@@QAEXPAV?$map@EPAUtagTSVRTYPE@@U?$less@E@std@@V?$allocator@U?$pair@$$CBEPAUtagTSVRTYPE@@@std@@@3@@std@@@Z ; CTManager::SendCT_SVRTYPELIST_ACK
;	COMDAT xdata$x
; File c:\program files (x86)\microsoft visual studio .net 2003\vc7\include\xtree
xdata$x	SEGMENT
$T97225	DD	0ffffffffH
	DD	FLAT:$L97104
$T97221	DD	019930520H
	DD	01H
	DD	FLAT:$T97225
	DD	2 DUP(00H)
	DD	2 DUP(00H)
; Function compile flags: /Ogty
; File c:\users\pierr\desktop\4story - oldschool\sources\tserver\tcontrolsvr\sender.cpp
xdata$x	ENDS
;	COMDAT ?SendCT_SVRTYPELIST_ACK@CTManager@@QAEXPAV?$map@EPAUtagTSVRTYPE@@U?$less@E@std@@V?$allocator@U?$pair@$$CBEPAUtagTSVRTYPE@@@std@@@3@@std@@@Z
_TEXT	SEGMENT
$T97098 = -16						; size = 4
__$EHRec$ = -12						; size = 12
_it$ = 8						; size = 4
_pType$ = 8						; size = 4
?SendCT_SVRTYPELIST_ACK@CTManager@@QAEXPAV?$map@EPAUtagTSVRTYPE@@U?$less@E@std@@V?$allocator@U?$pair@$$CBEPAUtagTSVRTYPE@@@std@@@3@@std@@@Z PROC NEAR ; CTManager::SendCT_SVRTYPELIST_ACK, COMDAT
; _this$ = ecx

; 24   : {

  00000	6a ff		 push	 -1
  00002	68 00 00 00 00	 push	 __ehhandler$?SendCT_SVRTYPELIST_ACK@CTManager@@QAEXPAV?$map@EPAUtagTSVRTYPE@@U?$less@E@std@@V?$allocator@U?$pair@$$CBEPAUtagTSVRTYPE@@@std@@@3@@std@@@Z
  00007	64 a1 00 00 00
	00		 mov	 eax, DWORD PTR fs:__except_list
  0000d	50		 push	 eax
  0000e	64 89 25 00 00
	00 00		 mov	 DWORD PTR fs:__except_list, esp
  00015	51		 push	 ecx
  00016	53		 push	 ebx
  00017	56		 push	 esi
  00018	57		 push	 edi

; 25   : 	CPacket * pMsg = new CPacket();

  00019	6a 1c		 push	 28			; 0000001cH
  0001b	8b d9		 mov	 ebx, ecx
  0001d	e8 00 00 00 00	 call	 ??2@YAPAXI@Z		; operator new
  00022	83 c4 04	 add	 esp, 4
  00025	89 44 24 0c	 mov	 DWORD PTR $T97098[esp+28], eax
  00029	33 f6		 xor	 esi, esi
  0002b	3b c6		 cmp	 eax, esi
  0002d	89 74 24 18	 mov	 DWORD PTR __$EHRec$[esp+36], esi
  00031	74 09		 je	 SHORT $L97100
  00033	8b c8		 mov	 ecx, eax
  00035	e8 00 00 00 00	 call	 ??0CPacket@@QAE@XZ	; CPacket::CPacket
  0003a	8b f0		 mov	 esi, eax
$L97100:

; 26   : 	pMsg->SetID(CT_SVRTYPELIST_ACK)
; 27   : 		<< DWORD(pType->size());

  0003c	8b 7c 24 20	 mov	 edi, DWORD PTR _pType$[esp+24]
  00040	8b 47 08	 mov	 eax, DWORD PTR [edi+8]
  00043	50		 push	 eax
  00044	68 03 60 00 00	 push	 24579			; 00006003H
  00049	8b ce		 mov	 ecx, esi
  0004b	c7 44 24 20 ff
	ff ff ff	 mov	 DWORD PTR __$EHRec$[esp+44], -1
  00053	e8 00 00 00 00	 call	 ?SetID@CPacket@@QAEAAV1@G@Z ; CPacket::SetID
  00058	8b c8		 mov	 ecx, eax
  0005a	e8 00 00 00 00	 call	 ??6CPacket@@QAEAAV0@K@Z	; CPacket::operator<<

; 28   : 
; 29   : 	MAPTSVRTYPE::iterator it;
; 30   : 	for(it=pType->begin(); it!=pType->end(); it++)

  0005f	8b 4f 04	 mov	 ecx, DWORD PTR [edi+4]
  00062	8b 01		 mov	 eax, DWORD PTR [ecx]
  00064	3b c1		 cmp	 eax, ecx
  00066	89 44 24 20	 mov	 DWORD PTR _it$[esp+24], eax
  0006a	74 2f		 je	 SHORT $L88009
  0006c	8d 64 24 00	 npad	 4
$L97155:

; 31   : 	{
; 32   : 		(*pMsg)
; 33   : 			<< (*it).second->m_bType
; 34   : 			<< (*it).second->m_strName;

  00070	8b 40 10	 mov	 eax, DWORD PTR [eax+16]
  00073	8b 48 04	 mov	 ecx, DWORD PTR [eax+4]
  00076	0f b6 00	 movzx	 eax, BYTE PTR [eax]
  00079	51		 push	 ecx
  0007a	50		 push	 eax
  0007b	8b ce		 mov	 ecx, esi
  0007d	e8 00 00 00 00	 call	 ??6CPacket@@QAEAAV0@E@Z	; CPacket::operator<<
  00082	8b c8		 mov	 ecx, eax
  00084	e8 00 00 00 00	 call	 ??6CPacket@@QAEAAV0@PBD@Z ; CPacket::operator<<
  00089	8d 4c 24 20	 lea	 ecx, DWORD PTR _it$[esp+24]
  0008d	e8 00 00 00 00	 call	 ?_Inc@const_iterator@?$_Tree@V?$_Tmap_traits@EPAUtagTSVRTYPE@@U?$less@E@std@@V?$allocator@U?$pair@$$CBEPAUtagTSVRTYPE@@@std@@@3@$0A@@std@@@std@@QAEXXZ ; std::_Tree<std::_Tmap_traits<unsigned char,tagTSVRTYPE *,std::less<unsigned char>,std::allocator<std::pair<unsigned char const ,tagTSVRTYPE *> >,0> >::const_iterator::_Inc
  00092	8b 44 24 20	 mov	 eax, DWORD PTR _it$[esp+24]
  00096	3b 47 04	 cmp	 eax, DWORD PTR [edi+4]
  00099	75 d5		 jne	 SHORT $L97155
$L88009:

; 35   : 	}
; 36   : 
; 37   : 	Say(pMsg);

  0009b	8b 13		 mov	 edx, DWORD PTR [ebx]
  0009d	56		 push	 esi
  0009e	8b cb		 mov	 ecx, ebx
  000a0	ff 12		 call	 DWORD PTR [edx]

; 38   : }

  000a2	8b 4c 24 10	 mov	 ecx, DWORD PTR __$EHRec$[esp+28]
  000a6	5f		 pop	 edi
  000a7	5e		 pop	 esi
  000a8	5b		 pop	 ebx
  000a9	64 89 0d 00 00
	00 00		 mov	 DWORD PTR fs:__except_list, ecx
  000b0	83 c4 10	 add	 esp, 16			; 00000010H
  000b3	c2 04 00	 ret	 4
_TEXT	ENDS
;	COMDAT text$x
text$x	SEGMENT
$L97104:
  00000	8b 45 f0	 mov	 eax, DWORD PTR $T97098[ebp]
  00003	50		 push	 eax
  00004	e8 00 00 00 00	 call	 ??3@YAXPAX@Z		; operator delete
  00009	59		 pop	 ecx
  0000a	c3		 ret	 0
__ehhandler$?SendCT_SVRTYPELIST_ACK@CTManager@@QAEXPAV?$map@EPAUtagTSVRTYPE@@U?$less@E@std@@V?$allocator@U?$pair@$$CBEPAUtagTSVRTYPE@@@std@@@3@@std@@@Z:
  0000b	b8 00 00 00 00	 mov	 eax, OFFSET FLAT:$T97221
  00010	e9 00 00 00 00	 jmp	 ___CxxFrameHandler
text$x	ENDS
?SendCT_SVRTYPELIST_ACK@CTManager@@QAEXPAV?$map@EPAUtagTSVRTYPE@@U?$less@E@std@@V?$allocator@U?$pair@$$CBEPAUtagTSVRTYPE@@@std@@@3@@std@@@Z ENDP ; CTManager::SendCT_SVRTYPELIST_ACK
PUBLIC	?SendCT_MACHINELIST_ACK@CTManager@@QAEXPAV?$map@EPAUtagTMACHINE@@U?$less@E@std@@V?$allocator@U?$pair@$$CBEPAUtagTMACHINE@@@std@@@3@@std@@@Z ; CTManager::SendCT_MACHINELIST_ACK
;	COMDAT xdata$x
; File c:\program files (x86)\microsoft visual studio .net 2003\vc7\include\xtree
xdata$x	SEGMENT
$T97359	DD	0ffffffffH
	DD	FLAT:$L97238
$T97355	DD	019930520H
	DD	01H
	DD	FLAT:$T97359
	DD	2 DUP(00H)
	DD	2 DUP(00H)
; Function compile flags: /Ogty
; File c:\users\pierr\desktop\4story - oldschool\sources\tserver\tcontrolsvr\sender.cpp
xdata$x	ENDS
;	COMDAT ?SendCT_MACHINELIST_ACK@CTManager@@QAEXPAV?$map@EPAUtagTMACHINE@@U?$less@E@std@@V?$allocator@U?$pair@$$CBEPAUtagTMACHINE@@@std@@@3@@std@@@Z
_TEXT	SEGMENT
$T97232 = -16						; size = 4
__$EHRec$ = -12						; size = 12
_it$ = 8						; size = 4
_pMachines$ = 8						; size = 4
?SendCT_MACHINELIST_ACK@CTManager@@QAEXPAV?$map@EPAUtagTMACHINE@@U?$less@E@std@@V?$allocator@U?$pair@$$CBEPAUtagTMACHINE@@@std@@@3@@std@@@Z PROC NEAR ; CTManager::SendCT_MACHINELIST_ACK, COMDAT
; _this$ = ecx

; 40   : {

  00000	6a ff		 push	 -1
  00002	68 00 00 00 00	 push	 __ehhandler$?SendCT_MACHINELIST_ACK@CTManager@@QAEXPAV?$map@EPAUtagTMACHINE@@U?$less@E@std@@V?$allocator@U?$pair@$$CBEPAUtagTMACHINE@@@std@@@3@@std@@@Z
  00007	64 a1 00 00 00
	00		 mov	 eax, DWORD PTR fs:__except_list
  0000d	50		 push	 eax
  0000e	64 89 25 00 00
	00 00		 mov	 DWORD PTR fs:__except_list, esp
  00015	51		 push	 ecx
  00016	53		 push	 ebx
  00017	56		 push	 esi
  00018	57		 push	 edi

; 41   : 	CPacket * pMsg = new CPacket();

  00019	6a 1c		 push	 28			; 0000001cH
  0001b	8b d9		 mov	 ebx, ecx
  0001d	e8 00 00 00 00	 call	 ??2@YAPAXI@Z		; operator new
  00022	83 c4 04	 add	 esp, 4
  00025	89 44 24 0c	 mov	 DWORD PTR $T97232[esp+28], eax
  00029	33 f6		 xor	 esi, esi
  0002b	3b c6		 cmp	 eax, esi
  0002d	89 74 24 18	 mov	 DWORD PTR __$EHRec$[esp+36], esi
  00031	74 09		 je	 SHORT $L97234
  00033	8b c8		 mov	 ecx, eax
  00035	e8 00 00 00 00	 call	 ??0CPacket@@QAE@XZ	; CPacket::CPacket
  0003a	8b f0		 mov	 esi, eax
$L97234:

; 42   : 	pMsg->SetID(CT_MACHINELIST_ACK)
; 43   : 		<< DWORD(pMachines->size());

  0003c	8b 7c 24 20	 mov	 edi, DWORD PTR _pMachines$[esp+24]
  00040	8b 47 08	 mov	 eax, DWORD PTR [edi+8]
  00043	50		 push	 eax
  00044	68 04 60 00 00	 push	 24580			; 00006004H
  00049	8b ce		 mov	 ecx, esi
  0004b	c7 44 24 20 ff
	ff ff ff	 mov	 DWORD PTR __$EHRec$[esp+44], -1
  00053	e8 00 00 00 00	 call	 ?SetID@CPacket@@QAEAAV1@G@Z ; CPacket::SetID
  00058	8b c8		 mov	 ecx, eax
  0005a	e8 00 00 00 00	 call	 ??6CPacket@@QAEAAV0@K@Z	; CPacket::operator<<

; 44   : 
; 45   : 	MAPTMACHINE::iterator it;
; 46   : 	for(it=pMachines->begin(); it!=pMachines->end(); it++)

  0005f	8b 4f 04	 mov	 ecx, DWORD PTR [edi+4]
  00062	8b 01		 mov	 eax, DWORD PTR [ecx]
  00064	3b c1		 cmp	 eax, ecx
  00066	89 44 24 20	 mov	 DWORD PTR _it$[esp+24], eax
  0006a	74 2f		 je	 SHORT $L88600
  0006c	8d 64 24 00	 npad	 4
$L97294:

; 47   : 	{
; 48   : 		(*pMsg)
; 49   : 			<< (*it).second->m_bMachineID
; 50   : 			<< (*it).second->m_strName;

  00070	8b 40 10	 mov	 eax, DWORD PTR [eax+16]
  00073	8b 48 04	 mov	 ecx, DWORD PTR [eax+4]
  00076	0f b6 00	 movzx	 eax, BYTE PTR [eax]
  00079	51		 push	 ecx
  0007a	50		 push	 eax
  0007b	8b ce		 mov	 ecx, esi
  0007d	e8 00 00 00 00	 call	 ??6CPacket@@QAEAAV0@E@Z	; CPacket::operator<<
  00082	8b c8		 mov	 ecx, eax
  00084	e8 00 00 00 00	 call	 ??6CPacket@@QAEAAV0@PBD@Z ; CPacket::operator<<
  00089	8d 4c 24 20	 lea	 ecx, DWORD PTR _it$[esp+24]
  0008d	e8 00 00 00 00	 call	 ?_Inc@const_iterator@?$_Tree@V?$_Tmap_traits@EPAUtagTMACHINE@@U?$less@E@std@@V?$allocator@U?$pair@$$CBEPAUtagTMACHINE@@@std@@@3@$0A@@std@@@std@@QAEXXZ ; std::_Tree<std::_Tmap_traits<unsigned char,tagTMACHINE *,std::less<unsigned char>,std::allocator<std::pair<unsigned char const ,tagTMACHINE *> >,0> >::const_iterator::_Inc
  00092	8b 44 24 20	 mov	 eax, DWORD PTR _it$[esp+24]
  00096	3b 47 04	 cmp	 eax, DWORD PTR [edi+4]
  00099	75 d5		 jne	 SHORT $L97294
$L88600:

; 51   : 	}
; 52   : 
; 53   : 	Say(pMsg);

  0009b	8b 13		 mov	 edx, DWORD PTR [ebx]
  0009d	56		 push	 esi
  0009e	8b cb		 mov	 ecx, ebx
  000a0	ff 12		 call	 DWORD PTR [edx]

; 54   : }

  000a2	8b 4c 24 10	 mov	 ecx, DWORD PTR __$EHRec$[esp+28]
  000a6	5f		 pop	 edi
  000a7	5e		 pop	 esi
  000a8	5b		 pop	 ebx
  000a9	64 89 0d 00 00
	00 00		 mov	 DWORD PTR fs:__except_list, ecx
  000b0	83 c4 10	 add	 esp, 16			; 00000010H
  000b3	c2 04 00	 ret	 4
_TEXT	ENDS
;	COMDAT text$x
text$x	SEGMENT
$L97238:
  00000	8b 45 f0	 mov	 eax, DWORD PTR $T97232[ebp]
  00003	50		 push	 eax
  00004	e8 00 00 00 00	 call	 ??3@YAXPAX@Z		; operator delete
  00009	59		 pop	 ecx
  0000a	c3		 ret	 0
__ehhandler$?SendCT_MACHINELIST_ACK@CTManager@@QAEXPAV?$map@EPAUtagTMACHINE@@U?$less@E@std@@V?$allocator@U?$pair@$$CBEPAUtagTMACHINE@@@std@@@3@@std@@@Z:
  0000b	b8 00 00 00 00	 mov	 eax, OFFSET FLAT:$T97355
  00010	e9 00 00 00 00	 jmp	 ___CxxFrameHandler
text$x	ENDS
?SendCT_MACHINELIST_ACK@CTManager@@QAEXPAV?$map@EPAUtagTMACHINE@@U?$less@E@std@@V?$allocator@U?$pair@$$CBEPAUtagTMACHINE@@@std@@@3@@std@@@Z ENDP ; CTManager::SendCT_MACHINELIST_ACK
PUBLIC	?SendCT_GROUPLIST_ACK@CTManager@@QAEXPAV?$map@EPAUtagTGROUP@@U?$less@E@std@@V?$allocator@U?$pair@$$CBEPAUtagTGROUP@@@std@@@3@@std@@@Z ; CTManager::SendCT_GROUPLIST_ACK
;	COMDAT xdata$x
; File c:\program files (x86)\microsoft visual studio .net 2003\vc7\include\xtree
xdata$x	SEGMENT
$T97493	DD	0ffffffffH
	DD	FLAT:$L97372
$T97489	DD	019930520H
	DD	01H
	DD	FLAT:$T97493
	DD	2 DUP(00H)
	DD	2 DUP(00H)
; Function compile flags: /Ogty
; File c:\users\pierr\desktop\4story - oldschool\sources\tserver\tcontrolsvr\sender.cpp
xdata$x	ENDS
;	COMDAT ?SendCT_GROUPLIST_ACK@CTManager@@QAEXPAV?$map@EPAUtagTGROUP@@U?$less@E@std@@V?$allocator@U?$pair@$$CBEPAUtagTGROUP@@@std@@@3@@std@@@Z
_TEXT	SEGMENT
$T97366 = -16						; size = 4
__$EHRec$ = -12						; size = 12
_it$ = 8						; size = 4
_pGroups$ = 8						; size = 4
?SendCT_GROUPLIST_ACK@CTManager@@QAEXPAV?$map@EPAUtagTGROUP@@U?$less@E@std@@V?$allocator@U?$pair@$$CBEPAUtagTGROUP@@@std@@@3@@std@@@Z PROC NEAR ; CTManager::SendCT_GROUPLIST_ACK, COMDAT
; _this$ = ecx

; 56   : {

  00000	6a ff		 push	 -1
  00002	68 00 00 00 00	 push	 __ehhandler$?SendCT_GROUPLIST_ACK@CTManager@@QAEXPAV?$map@EPAUtagTGROUP@@U?$less@E@std@@V?$allocator@U?$pair@$$CBEPAUtagTGROUP@@@std@@@3@@std@@@Z
  00007	64 a1 00 00 00
	00		 mov	 eax, DWORD PTR fs:__except_list
  0000d	50		 push	 eax
  0000e	64 89 25 00 00
	00 00		 mov	 DWORD PTR fs:__except_list, esp
  00015	51		 push	 ecx
  00016	53		 push	 ebx
  00017	56		 push	 esi
  00018	57		 push	 edi

; 57   : 	CPacket * pMsg = new CPacket();

  00019	6a 1c		 push	 28			; 0000001cH
  0001b	8b d9		 mov	 ebx, ecx
  0001d	e8 00 00 00 00	 call	 ??2@YAPAXI@Z		; operator new
  00022	83 c4 04	 add	 esp, 4
  00025	89 44 24 0c	 mov	 DWORD PTR $T97366[esp+28], eax
  00029	33 f6		 xor	 esi, esi
  0002b	3b c6		 cmp	 eax, esi
  0002d	89 74 24 18	 mov	 DWORD PTR __$EHRec$[esp+36], esi
  00031	74 09		 je	 SHORT $L97368
  00033	8b c8		 mov	 ecx, eax
  00035	e8 00 00 00 00	 call	 ??0CPacket@@QAE@XZ	; CPacket::CPacket
  0003a	8b f0		 mov	 esi, eax
$L97368:

; 58   : 	pMsg->SetID(CT_GROUPLIST_ACK)
; 59   : 		<< DWORD(pGroups->size());

  0003c	8b 7c 24 20	 mov	 edi, DWORD PTR _pGroups$[esp+24]
  00040	8b 47 08	 mov	 eax, DWORD PTR [edi+8]
  00043	50		 push	 eax
  00044	68 05 60 00 00	 push	 24581			; 00006005H
  00049	8b ce		 mov	 ecx, esi
  0004b	c7 44 24 20 ff
	ff ff ff	 mov	 DWORD PTR __$EHRec$[esp+44], -1
  00053	e8 00 00 00 00	 call	 ?SetID@CPacket@@QAEAAV1@G@Z ; CPacket::SetID
  00058	8b c8		 mov	 ecx, eax
  0005a	e8 00 00 00 00	 call	 ??6CPacket@@QAEAAV0@K@Z	; CPacket::operator<<

; 60   : 
; 61   : 	MAPTGROUP::iterator it;
; 62   : 	for(it=pGroups->begin(); it!=pGroups->end(); it++)

  0005f	8b 4f 04	 mov	 ecx, DWORD PTR [edi+4]
  00062	8b 01		 mov	 eax, DWORD PTR [ecx]
  00064	3b c1		 cmp	 eax, ecx
  00066	89 44 24 20	 mov	 DWORD PTR _it$[esp+24], eax
  0006a	74 2f		 je	 SHORT $L89191
  0006c	8d 64 24 00	 npad	 4
$L97428:

; 63   : 	{
; 64   : 		(*pMsg)
; 65   : 			<< (*it).second->m_bGroupID
; 66   : 			<< (*it).second->m_strName;

  00070	8b 40 10	 mov	 eax, DWORD PTR [eax+16]
  00073	8b 48 04	 mov	 ecx, DWORD PTR [eax+4]
  00076	0f b6 00	 movzx	 eax, BYTE PTR [eax]
  00079	51		 push	 ecx
  0007a	50		 push	 eax
  0007b	8b ce		 mov	 ecx, esi
  0007d	e8 00 00 00 00	 call	 ??6CPacket@@QAEAAV0@E@Z	; CPacket::operator<<
  00082	8b c8		 mov	 ecx, eax
  00084	e8 00 00 00 00	 call	 ??6CPacket@@QAEAAV0@PBD@Z ; CPacket::operator<<
  00089	8d 4c 24 20	 lea	 ecx, DWORD PTR _it$[esp+24]
  0008d	e8 00 00 00 00	 call	 ?_Inc@const_iterator@?$_Tree@V?$_Tmap_traits@EPAUtagTGROUP@@U?$less@E@std@@V?$allocator@U?$pair@$$CBEPAUtagTGROUP@@@std@@@3@$0A@@std@@@std@@QAEXXZ ; std::_Tree<std::_Tmap_traits<unsigned char,tagTGROUP *,std::less<unsigned char>,std::allocator<std::pair<unsigned char const ,tagTGROUP *> >,0> >::const_iterator::_Inc
  00092	8b 44 24 20	 mov	 eax, DWORD PTR _it$[esp+24]
  00096	3b 47 04	 cmp	 eax, DWORD PTR [edi+4]
  00099	75 d5		 jne	 SHORT $L97428
$L89191:

; 67   : 	}
; 68   : 
; 69   : 	Say(pMsg);

  0009b	8b 13		 mov	 edx, DWORD PTR [ebx]
  0009d	56		 push	 esi
  0009e	8b cb		 mov	 ecx, ebx
  000a0	ff 12		 call	 DWORD PTR [edx]

; 70   : }

  000a2	8b 4c 24 10	 mov	 ecx, DWORD PTR __$EHRec$[esp+28]
  000a6	5f		 pop	 edi
  000a7	5e		 pop	 esi
  000a8	5b		 pop	 ebx
  000a9	64 89 0d 00 00
	00 00		 mov	 DWORD PTR fs:__except_list, ecx
  000b0	83 c4 10	 add	 esp, 16			; 00000010H
  000b3	c2 04 00	 ret	 4
_TEXT	ENDS
;	COMDAT text$x
text$x	SEGMENT
$L97372:
  00000	8b 45 f0	 mov	 eax, DWORD PTR $T97366[ebp]
  00003	50		 push	 eax
  00004	e8 00 00 00 00	 call	 ??3@YAXPAX@Z		; operator delete
  00009	59		 pop	 ecx
  0000a	c3		 ret	 0
__ehhandler$?SendCT_GROUPLIST_ACK@CTManager@@QAEXPAV?$map@EPAUtagTGROUP@@U?$less@E@std@@V?$allocator@U?$pair@$$CBEPAUtagTGROUP@@@std@@@3@@std@@@Z:
  0000b	b8 00 00 00 00	 mov	 eax, OFFSET FLAT:$T97489
  00010	e9 00 00 00 00	 jmp	 ___CxxFrameHandler
text$x	ENDS
?SendCT_GROUPLIST_ACK@CTManager@@QAEXPAV?$map@EPAUtagTGROUP@@U?$less@E@std@@V?$allocator@U?$pair@$$CBEPAUtagTGROUP@@@std@@@3@@std@@@Z ENDP ; CTManager::SendCT_GROUPLIST_ACK
PUBLIC	?SendCT_SERVICESTAT_ACK@CTManager@@QAEXPAV?$map@KPAUtagTSVRTEMP@@U?$less@K@std@@V?$allocator@U?$pair@$$CBKPAUtagTSVRTEMP@@@std@@@3@@std@@@Z ; CTManager::SendCT_SERVICESTAT_ACK
;	COMDAT xdata$x
; File c:\program files (x86)\microsoft visual studio .net 2003\vc7\include\xtree
xdata$x	SEGMENT
$T97687	DD	0ffffffffH
	DD	FLAT:$L97506
$T97683	DD	019930520H
	DD	01H
	DD	FLAT:$T97687
	DD	2 DUP(00H)
	DD	2 DUP(00H)
; Function compile flags: /Ogty
; File c:\users\pierr\desktop\4story - oldschool\sources\tserver\tcontrolsvr\sender.cpp
xdata$x	ENDS
;	COMDAT ?SendCT_SERVICESTAT_ACK@CTManager@@QAEXPAV?$map@KPAUtagTSVRTEMP@@U?$less@K@std@@V?$allocator@U?$pair@$$CBKPAUtagTSVRTEMP@@@std@@@3@@std@@@Z
_TEXT	SEGMENT
$T97500 = -16						; size = 4
__$EHRec$ = -12						; size = 12
_it$ = 8						; size = 4
_pServices$ = 8						; size = 4
?SendCT_SERVICESTAT_ACK@CTManager@@QAEXPAV?$map@KPAUtagTSVRTEMP@@U?$less@K@std@@V?$allocator@U?$pair@$$CBKPAUtagTSVRTEMP@@@std@@@3@@std@@@Z PROC NEAR ; CTManager::SendCT_SERVICESTAT_ACK, COMDAT
; _this$ = ecx

; 72   : {

  00000	6a ff		 push	 -1
  00002	68 00 00 00 00	 push	 __ehhandler$?SendCT_SERVICESTAT_ACK@CTManager@@QAEXPAV?$map@KPAUtagTSVRTEMP@@U?$less@K@std@@V?$allocator@U?$pair@$$CBKPAUtagTSVRTEMP@@@std@@@3@@std@@@Z
  00007	64 a1 00 00 00
	00		 mov	 eax, DWORD PTR fs:__except_list
  0000d	50		 push	 eax
  0000e	64 89 25 00 00
	00 00		 mov	 DWORD PTR fs:__except_list, esp
  00015	51		 push	 ecx
  00016	55		 push	 ebp
  00017	56		 push	 esi
  00018	57		 push	 edi

; 73   : 	CPacket * pMsg = new CPacket();

  00019	6a 1c		 push	 28			; 0000001cH
  0001b	8b e9		 mov	 ebp, ecx
  0001d	e8 00 00 00 00	 call	 ??2@YAPAXI@Z		; operator new
  00022	83 c4 04	 add	 esp, 4
  00025	89 44 24 0c	 mov	 DWORD PTR $T97500[esp+28], eax
  00029	33 f6		 xor	 esi, esi
  0002b	3b c6		 cmp	 eax, esi
  0002d	89 74 24 18	 mov	 DWORD PTR __$EHRec$[esp+36], esi
  00031	74 09		 je	 SHORT $L97502
  00033	8b c8		 mov	 ecx, eax
  00035	e8 00 00 00 00	 call	 ??0CPacket@@QAE@XZ	; CPacket::CPacket
  0003a	8b f0		 mov	 esi, eax
$L97502:

; 74   : 	pMsg->SetID(CT_SERVICESTAT_ACK)
; 75   : 		<< DWORD(pServices->size());

  0003c	8b 7c 24 20	 mov	 edi, DWORD PTR _pServices$[esp+24]
  00040	8b 47 08	 mov	 eax, DWORD PTR [edi+8]
  00043	50		 push	 eax
  00044	68 07 60 00 00	 push	 24583			; 00006007H
  00049	8b ce		 mov	 ecx, esi
  0004b	c7 44 24 20 ff
	ff ff ff	 mov	 DWORD PTR __$EHRec$[esp+44], -1
  00053	e8 00 00 00 00	 call	 ?SetID@CPacket@@QAEAAV1@G@Z ; CPacket::SetID
  00058	8b c8		 mov	 ecx, eax
  0005a	e8 00 00 00 00	 call	 ??6CPacket@@QAEAAV0@K@Z	; CPacket::operator<<

; 76   : 
; 77   : 	MAPTSVRTEMP::iterator it;
; 78   : 	for(it=pServices->begin(); it!=pServices->end(); it++)

  0005f	8b 4f 04	 mov	 ecx, DWORD PTR [edi+4]
  00062	8b 01		 mov	 eax, DWORD PTR [ecx]
  00064	3b c1		 cmp	 eax, ecx
  00066	89 44 24 20	 mov	 DWORD PTR _it$[esp+24], eax
  0006a	74 68		 je	 SHORT $L89854
  0006c	8d 64 24 00	 npad	 4
$L97562:

; 79   : 	{
; 80   : 		(*pMsg)
; 81   : 			<< (*it).second->m_pGroup->m_bGroupID
; 82   : 			<< (*it).second->m_pSvrType->m_bType
; 83   : 			<< (*it).second->m_bServerID
; 84   : 			<< (*it).second->m_strName
; 85   : 			<< (*it).second->m_pMachine->m_bMachineID
; 86   : 			<< (*it).second->m_dwStatus;

  00070	8b 40 10	 mov	 eax, DWORD PTR [eax+16]
  00073	8b 50 28	 mov	 edx, DWORD PTR [eax+40]
  00076	8b 48 0c	 mov	 ecx, DWORD PTR [eax+12]
  00079	52		 push	 edx
  0007a	8b 50 24	 mov	 edx, DWORD PTR [eax+36]
  0007d	0f b6 12	 movzx	 edx, BYTE PTR [edx]
  00080	52		 push	 edx
  00081	8b 50 20	 mov	 edx, DWORD PTR [eax+32]
  00084	51		 push	 ecx
  00085	33 c9		 xor	 ecx, ecx
  00087	8a 48 1a	 mov	 cl, BYTE PTR [eax+26]
  0008a	51		 push	 ecx
  0008b	33 c9		 xor	 ecx, ecx
  0008d	8a 0a		 mov	 cl, BYTE PTR [edx]
  0008f	8b 50 1c	 mov	 edx, DWORD PTR [eax+28]
  00092	33 c0		 xor	 eax, eax
  00094	8a 02		 mov	 al, BYTE PTR [edx]
  00096	51		 push	 ecx
  00097	8b ce		 mov	 ecx, esi
  00099	50		 push	 eax
  0009a	e8 00 00 00 00	 call	 ??6CPacket@@QAEAAV0@E@Z	; CPacket::operator<<
  0009f	8b c8		 mov	 ecx, eax
  000a1	e8 00 00 00 00	 call	 ??6CPacket@@QAEAAV0@E@Z	; CPacket::operator<<
  000a6	8b c8		 mov	 ecx, eax
  000a8	e8 00 00 00 00	 call	 ??6CPacket@@QAEAAV0@E@Z	; CPacket::operator<<
  000ad	8b c8		 mov	 ecx, eax
  000af	e8 00 00 00 00	 call	 ??6CPacket@@QAEAAV0@PBD@Z ; CPacket::operator<<
  000b4	8b c8		 mov	 ecx, eax
  000b6	e8 00 00 00 00	 call	 ??6CPacket@@QAEAAV0@E@Z	; CPacket::operator<<
  000bb	8b c8		 mov	 ecx, eax
  000bd	e8 00 00 00 00	 call	 ??6CPacket@@QAEAAV0@K@Z	; CPacket::operator<<
  000c2	8d 4c 24 20	 lea	 ecx, DWORD PTR _it$[esp+24]
  000c6	e8 00 00 00 00	 call	 ?_Inc@const_iterator@?$_Tree@V?$_Tmap_traits@KPAUtagTSVRTEMP@@U?$less@K@std@@V?$allocator@U?$pair@$$CBKPAUtagTSVRTEMP@@@std@@@3@$0A@@std@@@std@@QAEXXZ ; std::_Tree<std::_Tmap_traits<unsigned long,tagTSVRTEMP *,std::less<unsigned long>,std::allocator<std::pair<unsigned long const ,tagTSVRTEMP *> >,0> >::const_iterator::_Inc
  000cb	8b 44 24 20	 mov	 eax, DWORD PTR _it$[esp+24]
  000cf	3b 47 04	 cmp	 eax, DWORD PTR [edi+4]
  000d2	75 9c		 jne	 SHORT $L97562
$L89854:

; 87   : 	}
; 88   : 
; 89   : 	Say(pMsg);

  000d4	8b 55 00	 mov	 edx, DWORD PTR [ebp]
  000d7	56		 push	 esi
  000d8	8b cd		 mov	 ecx, ebp
  000da	ff 12		 call	 DWORD PTR [edx]

; 90   : }

  000dc	8b 4c 24 10	 mov	 ecx, DWORD PTR __$EHRec$[esp+28]
  000e0	5f		 pop	 edi
  000e1	5e		 pop	 esi
  000e2	5d		 pop	 ebp
  000e3	64 89 0d 00 00
	00 00		 mov	 DWORD PTR fs:__except_list, ecx
  000ea	83 c4 10	 add	 esp, 16			; 00000010H
  000ed	c2 04 00	 ret	 4
_TEXT	ENDS
;	COMDAT text$x
text$x	SEGMENT
$L97506:
  00000	8b 45 f0	 mov	 eax, DWORD PTR $T97500[ebp]
  00003	50		 push	 eax
  00004	e8 00 00 00 00	 call	 ??3@YAXPAX@Z		; operator delete
  00009	59		 pop	 ecx
  0000a	c3		 ret	 0
__ehhandler$?SendCT_SERVICESTAT_ACK@CTManager@@QAEXPAV?$map@KPAUtagTSVRTEMP@@U?$less@K@std@@V?$allocator@U?$pair@$$CBKPAUtagTSVRTEMP@@@std@@@3@@std@@@Z:
  0000b	b8 00 00 00 00	 mov	 eax, OFFSET FLAT:$T97683
  00010	e9 00 00 00 00	 jmp	 ___CxxFrameHandler
text$x	ENDS
?SendCT_SERVICESTAT_ACK@CTManager@@QAEXPAV?$map@KPAUtagTSVRTEMP@@U?$less@K@std@@V?$allocator@U?$pair@$$CBKPAUtagTSVRTEMP@@@std@@@3@@std@@@Z ENDP ; CTManager::SendCT_SERVICESTAT_ACK
PUBLIC	?SendCT_CHATBANLIST_ACK@CTManager@@QAEXPAV?$map@KPAUtagBANINFO@@U?$less@K@std@@V?$allocator@U?$pair@$$CBKPAUtagBANINFO@@@std@@@3@@std@@@Z ; CTManager::SendCT_CHATBANLIST_ACK
;	COMDAT xdata$x
; File c:\program files (x86)\microsoft visual studio .net 2003\vc7\include\xtree
xdata$x	SEGMENT
$T97889	DD	0ffffffffH
	DD	FLAT:$L97700
$T97885	DD	019930520H
	DD	01H
	DD	FLAT:$T97889
	DD	2 DUP(00H)
	DD	2 DUP(00H)
; Function compile flags: /Ogty
; File c:\users\pierr\desktop\4story - oldschool\sources\tserver\tcontrolsvr\sender.cpp
xdata$x	ENDS
;	COMDAT ?SendCT_CHATBANLIST_ACK@CTManager@@QAEXPAV?$map@KPAUtagBANINFO@@U?$less@K@std@@V?$allocator@U?$pair@$$CBKPAUtagBANINFO@@@std@@@3@@std@@@Z
_TEXT	SEGMENT
$T97694 = -16						; size = 4
__$EHRec$ = -12						; size = 12
_it$ = 8						; size = 4
_mapBanInfo$ = 8					; size = 4
?SendCT_CHATBANLIST_ACK@CTManager@@QAEXPAV?$map@KPAUtagBANINFO@@U?$less@K@std@@V?$allocator@U?$pair@$$CBKPAUtagBANINFO@@@std@@@3@@std@@@Z PROC NEAR ; CTManager::SendCT_CHATBANLIST_ACK, COMDAT
; _this$ = ecx

; 234  : {

  00000	6a ff		 push	 -1
  00002	68 00 00 00 00	 push	 __ehhandler$?SendCT_CHATBANLIST_ACK@CTManager@@QAEXPAV?$map@KPAUtagBANINFO@@U?$less@K@std@@V?$allocator@U?$pair@$$CBKPAUtagBANINFO@@@std@@@3@@std@@@Z
  00007	64 a1 00 00 00
	00		 mov	 eax, DWORD PTR fs:__except_list
  0000d	50		 push	 eax
  0000e	64 89 25 00 00
	00 00		 mov	 DWORD PTR fs:__except_list, esp
  00015	51		 push	 ecx
  00016	53		 push	 ebx
  00017	55		 push	 ebp
  00018	57		 push	 edi

; 235  : 	CPacket* pMsg = new CPacket();

  00019	6a 1c		 push	 28			; 0000001cH
  0001b	8b e9		 mov	 ebp, ecx
  0001d	e8 00 00 00 00	 call	 ??2@YAPAXI@Z		; operator new
  00022	83 c4 04	 add	 esp, 4
  00025	89 44 24 0c	 mov	 DWORD PTR $T97694[esp+28], eax
  00029	33 ff		 xor	 edi, edi
  0002b	3b c7		 cmp	 eax, edi
  0002d	89 7c 24 18	 mov	 DWORD PTR __$EHRec$[esp+36], edi
  00031	74 09		 je	 SHORT $L97696
  00033	8b c8		 mov	 ecx, eax
  00035	e8 00 00 00 00	 call	 ??0CPacket@@QAE@XZ	; CPacket::CPacket
  0003a	8b f8		 mov	 edi, eax
$L97696:

; 236  : 	pMsg->SetID(CT_CHATBANLIST_ACK)
; 237  : 		<< WORD(mapBanInfo->size());

  0003c	8b 5c 24 20	 mov	 ebx, DWORD PTR _mapBanInfo$[esp+24]
  00040	8b 43 08	 mov	 eax, DWORD PTR [ebx+8]
  00043	50		 push	 eax
  00044	68 55 60 00 00	 push	 24661			; 00006055H
  00049	8b cf		 mov	 ecx, edi
  0004b	c7 44 24 20 ff
	ff ff ff	 mov	 DWORD PTR __$EHRec$[esp+44], -1
  00053	e8 00 00 00 00	 call	 ?SetID@CPacket@@QAEAAV1@G@Z ; CPacket::SetID
  00058	8b c8		 mov	 ecx, eax
  0005a	e8 00 00 00 00	 call	 ??6CPacket@@QAEAAV0@G@Z	; CPacket::operator<<

; 238  : 
; 239  : 	MAPBANINFO::iterator it;
; 240  : 	for(it = mapBanInfo->begin(); it != mapBanInfo->end(); it++)

  0005f	8b 4b 04	 mov	 ecx, DWORD PTR [ebx+4]
  00062	8b 01		 mov	 eax, DWORD PTR [ecx]
  00064	3b c1		 cmp	 eax, ecx
  00066	89 44 24 20	 mov	 DWORD PTR _it$[esp+24], eax
  0006a	74 62		 je	 SHORT $L90576
  0006c	56		 push	 esi
  0006d	8d 49 00	 npad	 3
$L97756:

; 241  : 	{
; 242  : 		(*pMsg)			
; 243  : 			<< (*it).second->m_dwID
; 244  : 			<< (*it).second->m_strBanName
; 245  : 			<< (*it).second->m_Time
; 246  : 			<< (*it).second->m_wMin
; 247  : 			<< (*it).second->m_strReason
; 248  : 			<< (*it).second->m_strOPName;

  00070	8b 40 10	 mov	 eax, DWORD PTR [eax+16]
  00073	8b 08		 mov	 ecx, DWORD PTR [eax]
  00075	8b 50 08	 mov	 edx, DWORD PTR [eax+8]
  00078	8b 70 04	 mov	 esi, DWORD PTR [eax+4]
  0007b	51		 push	 ecx
  0007c	33 c9		 xor	 ecx, ecx
  0007e	66 8b 48 10	 mov	 cx, WORD PTR [eax+16]
  00082	52		 push	 edx
  00083	8b 50 1c	 mov	 edx, DWORD PTR [eax+28]
  00086	51		 push	 ecx
  00087	8b 48 18	 mov	 ecx, DWORD PTR [eax+24]
  0008a	52		 push	 edx
  0008b	8b 50 0c	 mov	 edx, DWORD PTR [eax+12]
  0008e	51		 push	 ecx
  0008f	56		 push	 esi
  00090	52		 push	 edx
  00091	8b cf		 mov	 ecx, edi
  00093	e8 00 00 00 00	 call	 ??6CPacket@@QAEAAV0@K@Z	; CPacket::operator<<
  00098	8b c8		 mov	 ecx, eax
  0009a	e8 00 00 00 00	 call	 ??6CPacket@@QAEAAV0@PBD@Z ; CPacket::operator<<
  0009f	8b c8		 mov	 ecx, eax
  000a1	e8 00 00 00 00	 call	 ??6CPacket@@QAEAAV0@_J@Z ; CPacket::operator<<
  000a6	8b c8		 mov	 ecx, eax
  000a8	e8 00 00 00 00	 call	 ??6CPacket@@QAEAAV0@G@Z	; CPacket::operator<<
  000ad	8b c8		 mov	 ecx, eax
  000af	e8 00 00 00 00	 call	 ??6CPacket@@QAEAAV0@PBD@Z ; CPacket::operator<<
  000b4	8b c8		 mov	 ecx, eax
  000b6	e8 00 00 00 00	 call	 ??6CPacket@@QAEAAV0@PBD@Z ; CPacket::operator<<
  000bb	8d 4c 24 24	 lea	 ecx, DWORD PTR _it$[esp+28]
  000bf	e8 00 00 00 00	 call	 ?_Inc@const_iterator@?$_Tree@V?$_Tmap_traits@KPAUtagBANINFO@@U?$less@K@std@@V?$allocator@U?$pair@$$CBKPAUtagBANINFO@@@std@@@3@$0A@@std@@@std@@QAEXXZ ; std::_Tree<std::_Tmap_traits<unsigned long,tagBANINFO *,std::less<unsigned long>,std::allocator<std::pair<unsigned long const ,tagBANINFO *> >,0> >::const_iterator::_Inc
  000c4	8b 44 24 24	 mov	 eax, DWORD PTR _it$[esp+28]
  000c8	3b 43 04	 cmp	 eax, DWORD PTR [ebx+4]
  000cb	75 a3		 jne	 SHORT $L97756
  000cd	5e		 pop	 esi
$L90576:

; 249  : 	}
; 250  : 	
; 251  : 	Say(pMsg);

  000ce	8b 45 00	 mov	 eax, DWORD PTR [ebp]
  000d1	57		 push	 edi
  000d2	8b cd		 mov	 ecx, ebp
  000d4	ff 10		 call	 DWORD PTR [eax]

; 252  : }

  000d6	8b 4c 24 10	 mov	 ecx, DWORD PTR __$EHRec$[esp+28]
  000da	5f		 pop	 edi
  000db	5d		 pop	 ebp
  000dc	5b		 pop	 ebx
  000dd	64 89 0d 00 00
	00 00		 mov	 DWORD PTR fs:__except_list, ecx
  000e4	83 c4 10	 add	 esp, 16			; 00000010H
  000e7	c2 04 00	 ret	 4
_TEXT	ENDS
;	COMDAT text$x
text$x	SEGMENT
$L97700:
  00000	8b 45 f0	 mov	 eax, DWORD PTR $T97694[ebp]
  00003	50		 push	 eax
  00004	e8 00 00 00 00	 call	 ??3@YAXPAX@Z		; operator delete
  00009	59		 pop	 ecx
  0000a	c3		 ret	 0
__ehhandler$?SendCT_CHATBANLIST_ACK@CTManager@@QAEXPAV?$map@KPAUtagBANINFO@@U?$less@K@std@@V?$allocator@U?$pair@$$CBKPAUtagBANINFO@@@std@@@3@@std@@@Z:
  0000b	b8 00 00 00 00	 mov	 eax, OFFSET FLAT:$T97885
  00010	e9 00 00 00 00	 jmp	 ___CxxFrameHandler
text$x	ENDS
?SendCT_CHATBANLIST_ACK@CTManager@@QAEXPAV?$map@KPAUtagBANINFO@@U?$less@K@std@@V?$allocator@U?$pair@$$CBKPAUtagBANINFO@@@std@@@3@@std@@@Z ENDP ; CTManager::SendCT_CHATBANLIST_ACK
PUBLIC	?SendCT_EVENTCHANGE_ACK@CTManager@@QAEXEEPAUtagEVENTINFO@@@Z ; CTManager::SendCT_EVENTCHANGE_ACK
;	COMDAT xdata$x
xdata$x	SEGMENT
$T97903	DD	0ffffffffH
	DD	FLAT:$L97899
$T97901	DD	019930520H
	DD	01H
	DD	FLAT:$T97903
	DD	2 DUP(00H)
	DD	2 DUP(00H)
; Function compile flags: /Ogty
xdata$x	ENDS
;	COMDAT ?SendCT_EVENTCHANGE_ACK@CTManager@@QAEXEEPAUtagEVENTINFO@@@Z
_TEXT	SEGMENT
$T97896 = -16						; size = 4
__$EHRec$ = -12						; size = 12
_bRet$ = 8						; size = 1
_bType$ = 12						; size = 1
_pEvent$ = 16						; size = 4
?SendCT_EVENTCHANGE_ACK@CTManager@@QAEXEEPAUtagEVENTINFO@@@Z PROC NEAR ; CTManager::SendCT_EVENTCHANGE_ACK, COMDAT
; _this$ = ecx

; 273  : {

  00000	6a ff		 push	 -1
  00002	68 00 00 00 00	 push	 __ehhandler$?SendCT_EVENTCHANGE_ACK@CTManager@@QAEXEEPAUtagEVENTINFO@@@Z
  00007	64 a1 00 00 00
	00		 mov	 eax, DWORD PTR fs:__except_list
  0000d	50		 push	 eax
  0000e	64 89 25 00 00
	00 00		 mov	 DWORD PTR fs:__except_list, esp
  00015	51		 push	 ecx
  00016	56		 push	 esi
  00017	57		 push	 edi

; 274  : 	CPacket* pMsg = new CPacket();	

  00018	6a 1c		 push	 28			; 0000001cH
  0001a	8b f9		 mov	 edi, ecx
  0001c	e8 00 00 00 00	 call	 ??2@YAPAXI@Z		; operator new
  00021	83 c4 04	 add	 esp, 4
  00024	89 44 24 08	 mov	 DWORD PTR $T97896[esp+24], eax
  00028	33 f6		 xor	 esi, esi
  0002a	3b c6		 cmp	 eax, esi
  0002c	89 74 24 14	 mov	 DWORD PTR __$EHRec$[esp+32], esi
  00030	74 09		 je	 SHORT $L97898
  00032	8b c8		 mov	 ecx, eax
  00034	e8 00 00 00 00	 call	 ??0CPacket@@QAE@XZ	; CPacket::CPacket
  00039	8b f0		 mov	 esi, eax
$L97898:

; 275  : 	pMsg->SetID(CT_EVENTCHANGE_ACK)
; 276  : 		<< bRet
; 277  : 		<< bType;

  0003b	8b 44 24 20	 mov	 eax, DWORD PTR _bType$[esp+20]
  0003f	8b 4c 24 1c	 mov	 ecx, DWORD PTR _bRet$[esp+20]
  00043	50		 push	 eax
  00044	51		 push	 ecx
  00045	68 62 60 00 00	 push	 24674			; 00006062H
  0004a	8b ce		 mov	 ecx, esi
  0004c	c7 44 24 20 ff
	ff ff ff	 mov	 DWORD PTR __$EHRec$[esp+44], -1
  00054	e8 00 00 00 00	 call	 ?SetID@CPacket@@QAEAAV1@G@Z ; CPacket::SetID
  00059	8b c8		 mov	 ecx, eax
  0005b	e8 00 00 00 00	 call	 ??6CPacket@@QAEAAV0@E@Z	; CPacket::operator<<
  00060	8b c8		 mov	 ecx, eax
  00062	e8 00 00 00 00	 call	 ??6CPacket@@QAEAAV0@E@Z	; CPacket::operator<<

; 278  : 
; 279  : 	pEvent->WrapPacketIn(pMsg);

  00067	8b 4c 24 24	 mov	 ecx, DWORD PTR _pEvent$[esp+20]
  0006b	56		 push	 esi
  0006c	e8 00 00 00 00	 call	 ?WrapPacketIn@tagEVENTINFO@@QAEXPAVCPacket@@@Z ; tagEVENTINFO::WrapPacketIn

; 280  : 
; 281  : 	Say(pMsg);

  00071	8b 17		 mov	 edx, DWORD PTR [edi]
  00073	56		 push	 esi
  00074	8b cf		 mov	 ecx, edi
  00076	ff 12		 call	 DWORD PTR [edx]

; 282  : }

  00078	8b 4c 24 0c	 mov	 ecx, DWORD PTR __$EHRec$[esp+24]
  0007c	5f		 pop	 edi
  0007d	5e		 pop	 esi
  0007e	64 89 0d 00 00
	00 00		 mov	 DWORD PTR fs:__except_list, ecx
  00085	83 c4 10	 add	 esp, 16			; 00000010H
  00088	c2 0c 00	 ret	 12			; 0000000cH
_TEXT	ENDS
;	COMDAT text$x
text$x	SEGMENT
$L97899:
  00000	8b 45 f0	 mov	 eax, DWORD PTR $T97896[ebp]
  00003	50		 push	 eax
  00004	e8 00 00 00 00	 call	 ??3@YAXPAX@Z		; operator delete
  00009	59		 pop	 ecx
  0000a	c3		 ret	 0
__ehhandler$?SendCT_EVENTCHANGE_ACK@CTManager@@QAEXEEPAUtagEVENTINFO@@@Z:
  0000b	b8 00 00 00 00	 mov	 eax, OFFSET FLAT:$T97901
  00010	e9 00 00 00 00	 jmp	 ___CxxFrameHandler
text$x	ENDS
?SendCT_EVENTCHANGE_ACK@CTManager@@QAEXEEPAUtagEVENTINFO@@@Z ENDP ; CTManager::SendCT_EVENTCHANGE_ACK
PUBLIC	?SendCT_EVENTLIST_ACK@CTManager@@QAEXPAV?$map@KUtagEVENTINFO@@U?$less@K@std@@V?$allocator@U?$pair@$$CBKUtagEVENTINFO@@@std@@@3@@std@@@Z ; CTManager::SendCT_EVENTLIST_ACK
;	COMDAT xdata$x
; File c:\program files (x86)\microsoft visual studio .net 2003\vc7\include\xtree
xdata$x	SEGMENT
$T98018	DD	0ffffffffH
	DD	FLAT:$L97916
$T98014	DD	019930520H
	DD	01H
	DD	FLAT:$T98018
	DD	2 DUP(00H)
	DD	2 DUP(00H)
; Function compile flags: /Ogty
; File c:\users\pierr\desktop\4story - oldschool\sources\tserver\tcontrolsvr\sender.cpp
xdata$x	ENDS
;	COMDAT ?SendCT_EVENTLIST_ACK@CTManager@@QAEXPAV?$map@KUtagEVENTINFO@@U?$less@K@std@@V?$allocator@U?$pair@$$CBKUtagEVENTINFO@@@std@@@3@@std@@@Z
_TEXT	SEGMENT
$T97910 = -16						; size = 4
__$EHRec$ = -12						; size = 12
_it$ = 8						; size = 4
_pMapEvent$ = 8						; size = 4
?SendCT_EVENTLIST_ACK@CTManager@@QAEXPAV?$map@KUtagEVENTINFO@@U?$less@K@std@@V?$allocator@U?$pair@$$CBKUtagEVENTINFO@@@std@@@3@@std@@@Z PROC NEAR ; CTManager::SendCT_EVENTLIST_ACK, COMDAT
; _this$ = ecx

; 285  : {

  00000	6a ff		 push	 -1
  00002	68 00 00 00 00	 push	 __ehhandler$?SendCT_EVENTLIST_ACK@CTManager@@QAEXPAV?$map@KUtagEVENTINFO@@U?$less@K@std@@V?$allocator@U?$pair@$$CBKUtagEVENTINFO@@@std@@@3@@std@@@Z
  00007	64 a1 00 00 00
	00		 mov	 eax, DWORD PTR fs:__except_list
  0000d	50		 push	 eax
  0000e	64 89 25 00 00
	00 00		 mov	 DWORD PTR fs:__except_list, esp
  00015	51		 push	 ecx
  00016	53		 push	 ebx
  00017	56		 push	 esi
  00018	57		 push	 edi

; 286  : 	CPacket* pMsg = new CPacket();	

  00019	6a 1c		 push	 28			; 0000001cH
  0001b	8b d9		 mov	 ebx, ecx
  0001d	e8 00 00 00 00	 call	 ??2@YAPAXI@Z		; operator new
  00022	83 c4 04	 add	 esp, 4
  00025	89 44 24 0c	 mov	 DWORD PTR $T97910[esp+28], eax
  00029	33 f6		 xor	 esi, esi
  0002b	3b c6		 cmp	 eax, esi
  0002d	89 74 24 18	 mov	 DWORD PTR __$EHRec$[esp+36], esi
  00031	74 09		 je	 SHORT $L97912
  00033	8b c8		 mov	 ecx, eax
  00035	e8 00 00 00 00	 call	 ??0CPacket@@QAE@XZ	; CPacket::CPacket
  0003a	8b f0		 mov	 esi, eax
$L97912:

; 287  : 	pMsg->SetID(CT_EVENTLIST_ACK)
; 288  : 		<< (WORD)pMapEvent->size();

  0003c	8b 7c 24 20	 mov	 edi, DWORD PTR _pMapEvent$[esp+24]
  00040	8b 47 08	 mov	 eax, DWORD PTR [edi+8]
  00043	50		 push	 eax
  00044	68 64 60 00 00	 push	 24676			; 00006064H
  00049	8b ce		 mov	 ecx, esi
  0004b	c7 44 24 20 ff
	ff ff ff	 mov	 DWORD PTR __$EHRec$[esp+44], -1
  00053	e8 00 00 00 00	 call	 ?SetID@CPacket@@QAEAAV1@G@Z ; CPacket::SetID
  00058	8b c8		 mov	 ecx, eax
  0005a	e8 00 00 00 00	 call	 ??6CPacket@@QAEAAV0@G@Z	; CPacket::operator<<

; 289  : 
; 290  : 	MAPEVENTINFO::iterator it;
; 291  : 	for(it = pMapEvent->begin(); it != pMapEvent->end(); it++)	

  0005f	8b 4f 04	 mov	 ecx, DWORD PTR [edi+4]
  00062	8b 01		 mov	 eax, DWORD PTR [ecx]
  00064	3b c1		 cmp	 eax, ecx
  00066	89 44 24 20	 mov	 DWORD PTR _it$[esp+24], eax
  0006a	74 1f		 je	 SHORT $L91197
  0006c	8d 64 24 00	 npad	 4
$L97972:

; 292  : 		(*it).second.WrapPacketIn(pMsg);	

  00070	56		 push	 esi
  00071	8d 48 18	 lea	 ecx, DWORD PTR [eax+24]
  00074	e8 00 00 00 00	 call	 ?WrapPacketIn@tagEVENTINFO@@QAEXPAVCPacket@@@Z ; tagEVENTINFO::WrapPacketIn
  00079	8d 4c 24 20	 lea	 ecx, DWORD PTR _it$[esp+24]
  0007d	e8 00 00 00 00	 call	 ?_Inc@const_iterator@?$_Tree@V?$_Tmap_traits@KUtagEVENTINFO@@U?$less@K@std@@V?$allocator@U?$pair@$$CBKUtagEVENTINFO@@@std@@@3@$0A@@std@@@std@@QAEXXZ ; std::_Tree<std::_Tmap_traits<unsigned long,tagEVENTINFO,std::less<unsigned long>,std::allocator<std::pair<unsigned long const ,tagEVENTINFO> >,0> >::const_iterator::_Inc
  00082	8b 44 24 20	 mov	 eax, DWORD PTR _it$[esp+24]
  00086	3b 47 04	 cmp	 eax, DWORD PTR [edi+4]
  00089	75 e5		 jne	 SHORT $L97972
$L91197:

; 293  : 
; 294  : 	Say(pMsg);

  0008b	8b 03		 mov	 eax, DWORD PTR [ebx]
  0008d	56		 push	 esi
  0008e	8b cb		 mov	 ecx, ebx
  00090	ff 10		 call	 DWORD PTR [eax]

; 295  : }

  00092	8b 4c 24 10	 mov	 ecx, DWORD PTR __$EHRec$[esp+28]
  00096	5f		 pop	 edi
  00097	5e		 pop	 esi
  00098	5b		 pop	 ebx
  00099	64 89 0d 00 00
	00 00		 mov	 DWORD PTR fs:__except_list, ecx
  000a0	83 c4 10	 add	 esp, 16			; 00000010H
  000a3	c2 04 00	 ret	 4
_TEXT	ENDS
;	COMDAT text$x
text$x	SEGMENT
$L97916:
  00000	8b 45 f0	 mov	 eax, DWORD PTR $T97910[ebp]
  00003	50		 push	 eax
  00004	e8 00 00 00 00	 call	 ??3@YAXPAX@Z		; operator delete
  00009	59		 pop	 ecx
  0000a	c3		 ret	 0
__ehhandler$?SendCT_EVENTLIST_ACK@CTManager@@QAEXPAV?$map@KUtagEVENTINFO@@U?$less@K@std@@V?$allocator@U?$pair@$$CBKUtagEVENTINFO@@@std@@@3@@std@@@Z:
  0000b	b8 00 00 00 00	 mov	 eax, OFFSET FLAT:$T98014
  00010	e9 00 00 00 00	 jmp	 ___CxxFrameHandler
text$x	ENDS
?SendCT_EVENTLIST_ACK@CTManager@@QAEXPAV?$map@KUtagEVENTINFO@@U?$less@K@std@@V?$allocator@U?$pair@$$CBKUtagEVENTINFO@@@std@@@3@@std@@@Z ENDP ; CTManager::SendCT_EVENTLIST_ACK
PUBLIC	??0?$basic_string@DU?$char_traits@D@std@@V?$allocator@D@2@@std@@QAE@ABV01@@Z ; std::basic_string<char,std::char_traits<char>,std::allocator<char> >::basic_string<char,std::char_traits<char>,std::allocator<char> >
; Function compile flags: /Ogty
; File c:\program files (x86)\microsoft visual studio .net 2003\vc7\include\xstring
;	COMDAT ??0?$basic_string@DU?$char_traits@D@std@@V?$allocator@D@2@@std@@QAE@ABV01@@Z
_TEXT	SEGMENT
__Right$ = 8						; size = 4
??0?$basic_string@DU?$char_traits@D@std@@V?$allocator@D@2@@std@@QAE@ABV01@@Z PROC NEAR ; std::basic_string<char,std::char_traits<char>,std::allocator<char> >::basic_string<char,std::char_traits<char>,std::allocator<char> >, COMDAT
; _this$ = ecx

; 323  : 		{	// construct by copying _Right

  00000	56		 push	 esi

; 324  : 		_Tidy();

  00001	33 c0		 xor	 eax, eax
  00003	8b f1		 mov	 esi, ecx

; 325  : 		assign(_Right, 0, npos);

  00005	6a ff		 push	 -1
  00007	89 46 14	 mov	 DWORD PTR [esi+20], eax
  0000a	c7 46 18 0f 00
	00 00		 mov	 DWORD PTR [esi+24], 15	; 0000000fH
  00011	50		 push	 eax
  00012	88 46 04	 mov	 BYTE PTR [esi+4], al
  00015	8b 44 24 10	 mov	 eax, DWORD PTR __Right$[esp+8]
  00019	50		 push	 eax
  0001a	e8 00 00 00 00	 call	 ?assign@?$basic_string@DU?$char_traits@D@std@@V?$allocator@D@2@@std@@QAEAAV12@ABV12@II@Z ; std::basic_string<char,std::char_traits<char>,std::allocator<char> >::assign

; 326  : 		}

  0001f	8b c6		 mov	 eax, esi
  00021	5e		 pop	 esi
  00022	c2 04 00	 ret	 4
??0?$basic_string@DU?$char_traits@D@std@@V?$allocator@D@2@@std@@QAE@ABV01@@Z ENDP ; std::basic_string<char,std::char_traits<char>,std::allocator<char> >::basic_string<char,std::char_traits<char>,std::allocator<char> >
_TEXT	ENDS
PUBLIC	?assign@?$basic_string@DU?$char_traits@D@std@@V?$allocator@D@2@@std@@QAEAAV12@PBD@Z ; std::basic_string<char,std::char_traits<char>,std::allocator<char> >::assign
; Function compile flags: /Ogty
;	COMDAT ?assign@?$basic_string@DU?$char_traits@D@std@@V?$allocator@D@2@@std@@QAEAAV12@PBD@Z
_TEXT	SEGMENT
__Ptr$ = 8						; size = 4
?assign@?$basic_string@DU?$char_traits@D@std@@V?$allocator@D@2@@std@@QAEAAV12@PBD@Z PROC NEAR ; std::basic_string<char,std::char_traits<char>,std::allocator<char> >::assign, COMDAT
; _this$ = ecx

; 621  : 		{	// assign [_Ptr, <null>)

  00000	56		 push	 esi

; 622  : 		return (assign(_Ptr, _Traits::length(_Ptr)));

  00001	8b 74 24 08	 mov	 esi, DWORD PTR __Ptr$[esp]
  00005	8b c6		 mov	 eax, esi
  00007	57		 push	 edi
  00008	8d 78 01	 lea	 edi, DWORD PTR [eax+1]
  0000b	eb 03 8d 49 00	 npad	 5
$L98093:
  00010	8a 10		 mov	 dl, BYTE PTR [eax]
  00012	40		 inc	 eax
  00013	84 d2		 test	 dl, dl
  00015	75 f9		 jne	 SHORT $L98093
  00017	2b c7		 sub	 eax, edi
  00019	50		 push	 eax
  0001a	56		 push	 esi
  0001b	e8 00 00 00 00	 call	 ?assign@?$basic_string@DU?$char_traits@D@std@@V?$allocator@D@2@@std@@QAEAAV12@PBDI@Z ; std::basic_string<char,std::char_traits<char>,std::allocator<char> >::assign
  00020	5f		 pop	 edi
  00021	5e		 pop	 esi

; 623  : 		}

  00022	c2 04 00	 ret	 4
?assign@?$basic_string@DU?$char_traits@D@std@@V?$allocator@D@2@@std@@QAEAAV12@PBD@Z ENDP ; std::basic_string<char,std::char_traits<char>,std::allocator<char> >::assign
_TEXT	ENDS
PUBLIC	??0?$basic_string@DU?$char_traits@D@std@@V?$allocator@D@2@@std@@QAE@PBD@Z ; std::basic_string<char,std::char_traits<char>,std::allocator<char> >::basic_string<char,std::char_traits<char>,std::allocator<char> >
; Function compile flags: /Ogty
;	COMDAT ??0?$basic_string@DU?$char_traits@D@std@@V?$allocator@D@2@@std@@QAE@PBD@Z
_TEXT	SEGMENT
__Ptr$ = 8						; size = 4
??0?$basic_string@DU?$char_traits@D@std@@V?$allocator@D@2@@std@@QAE@PBD@Z PROC NEAR ; std::basic_string<char,std::char_traits<char>,std::allocator<char> >::basic_string<char,std::char_traits<char>,std::allocator<char> >, COMDAT
; _this$ = ecx

; 361  : 		_Tidy();
; 362  : 		assign(_Ptr);

  00000	8b 54 24 04	 mov	 edx, DWORD PTR __Ptr$[esp-4]
  00004	56		 push	 esi
  00005	8b f1		 mov	 esi, ecx
  00007	8b c2		 mov	 eax, edx
  00009	57		 push	 edi
  0000a	c7 46 18 0f 00
	00 00		 mov	 DWORD PTR [esi+24], 15	; 0000000fH
  00011	c7 46 14 00 00
	00 00		 mov	 DWORD PTR [esi+20], 0
  00018	c6 46 04 00	 mov	 BYTE PTR [esi+4], 0
  0001c	8d 78 01	 lea	 edi, DWORD PTR [eax+1]
  0001f	90		 npad	 1
$L98168:
  00020	8a 08		 mov	 cl, BYTE PTR [eax]
  00022	40		 inc	 eax
  00023	84 c9		 test	 cl, cl
  00025	75 f9		 jne	 SHORT $L98168
  00027	2b c7		 sub	 eax, edi
  00029	50		 push	 eax
  0002a	52		 push	 edx
  0002b	8b ce		 mov	 ecx, esi
  0002d	e8 00 00 00 00	 call	 ?assign@?$basic_string@DU?$char_traits@D@std@@V?$allocator@D@2@@std@@QAEAAV12@PBDI@Z ; std::basic_string<char,std::char_traits<char>,std::allocator<char> >::assign
  00032	5f		 pop	 edi

; 363  : 		}

  00033	8b c6		 mov	 eax, esi
  00035	5e		 pop	 esi
  00036	c2 04 00	 ret	 4
??0?$basic_string@DU?$char_traits@D@std@@V?$allocator@D@2@@std@@QAE@PBD@Z ENDP ; std::basic_string<char,std::char_traits<char>,std::allocator<char> >::basic_string<char,std::char_traits<char>,std::allocator<char> >
_TEXT	ENDS
PUBLIC	??0logic_error@std@@QAE@ABV?$basic_string@DU?$char_traits@D@std@@V?$allocator@D@2@@1@@Z ; std::logic_error::logic_error
EXTRN	??0exception@@QAE@XZ:NEAR			; exception::exception
;	COMDAT xdata$x
; File c:\program files (x86)\microsoft visual studio .net 2003\vc7\include\iosfwd
xdata$x	SEGMENT
$T98271	DD	0ffffffffH
	DD	FLAT:$L98172
$T98269	DD	019930520H
	DD	01H
	DD	FLAT:$T98271
	DD	2 DUP(00H)
	DD	2 DUP(00H)
; Function compile flags: /Ogty
; File c:\program files (x86)\microsoft visual studio .net 2003\vc7\include\stdexcept
xdata$x	ENDS
;	COMDAT ??0logic_error@std@@QAE@ABV?$basic_string@DU?$char_traits@D@std@@V?$allocator@D@2@@1@@Z
_TEXT	SEGMENT
_this$ = -16						; size = 4
__$EHRec$ = -12						; size = 12
__Message$ = 8						; size = 4
??0logic_error@std@@QAE@ABV?$basic_string@DU?$char_traits@D@std@@V?$allocator@D@2@@1@@Z PROC NEAR ; std::logic_error::logic_error, COMDAT
; _this$ = ecx

; 19   : 		{	// construct from message string

  00000	6a ff		 push	 -1
  00002	68 00 00 00 00	 push	 __ehhandler$??0logic_error@std@@QAE@ABV?$basic_string@DU?$char_traits@D@std@@V?$allocator@D@2@@1@@Z
  00007	64 a1 00 00 00
	00		 mov	 eax, DWORD PTR fs:__except_list
  0000d	50		 push	 eax
  0000e	64 89 25 00 00
	00 00		 mov	 DWORD PTR fs:__except_list, esp
  00015	51		 push	 ecx
  00016	56		 push	 esi
  00017	8b f1		 mov	 esi, ecx
  00019	89 74 24 04	 mov	 DWORD PTR _this$[esp+20], esi
  0001d	e8 00 00 00 00	 call	 ??0exception@@QAE@XZ	; exception::exception
  00022	33 c0		 xor	 eax, eax
  00024	8d 4e 0c	 lea	 ecx, DWORD PTR [esi+12]
  00027	c7 06 00 00 00
	00		 mov	 DWORD PTR [esi], OFFSET FLAT:??_7logic_error@std@@6B@
  0002d	6a ff		 push	 -1
  0002f	89 41 14	 mov	 DWORD PTR [ecx+20], eax
  00032	c7 41 18 0f 00
	00 00		 mov	 DWORD PTR [ecx+24], 15	; 0000000fH
  00039	50		 push	 eax
  0003a	89 44 24 18	 mov	 DWORD PTR __$EHRec$[esp+36], eax
  0003e	88 41 04	 mov	 BYTE PTR [ecx+4], al
  00041	8b 44 24 20	 mov	 eax, DWORD PTR __Message$[esp+24]
  00045	50		 push	 eax
  00046	e8 00 00 00 00	 call	 ?assign@?$basic_string@DU?$char_traits@D@std@@V?$allocator@D@2@@std@@QAEAAV12@ABV12@II@Z ; std::basic_string<char,std::char_traits<char>,std::allocator<char> >::assign

; 20   : 		}

  0004b	8b 4c 24 08	 mov	 ecx, DWORD PTR __$EHRec$[esp+20]
  0004f	8b c6		 mov	 eax, esi
  00051	5e		 pop	 esi
  00052	64 89 0d 00 00
	00 00		 mov	 DWORD PTR fs:__except_list, ecx
  00059	83 c4 10	 add	 esp, 16			; 00000010H
  0005c	c2 04 00	 ret	 4
_TEXT	ENDS
;	COMDAT text$x
text$x	SEGMENT
$L98172:
  00000	8b 4d f0	 mov	 ecx, DWORD PTR _this$[ebp]
  00003	e9 00 00 00 00	 jmp	 ??1exception@@UAE@XZ	; exception::~exception
__ehhandler$??0logic_error@std@@QAE@ABV?$basic_string@DU?$char_traits@D@std@@V?$allocator@D@2@@1@@Z:
  00008	b8 00 00 00 00	 mov	 eax, OFFSET FLAT:$T98269
  0000d	e9 00 00 00 00	 jmp	 ___CxxFrameHandler
text$x	ENDS
??0logic_error@std@@QAE@ABV?$basic_string@DU?$char_traits@D@std@@V?$allocator@D@2@@1@@Z ENDP ; std::logic_error::logic_error
PUBLIC	??0out_of_range@std@@QAE@ABV?$basic_string@DU?$char_traits@D@std@@V?$allocator@D@2@@1@@Z ; std::out_of_range::out_of_range
PUBLIC	??_7out_of_range@std@@6B@			; std::out_of_range::`vftable'
PUBLIC	??_Gout_of_range@std@@UAEPAXI@Z			; std::out_of_range::`scalar deleting destructor'
EXTRN	??_Eout_of_range@std@@UAEPAXI@Z:NEAR		; std::out_of_range::`vector deleting destructor'
;	COMDAT ??_7out_of_range@std@@6B@
CONST	SEGMENT
??_7out_of_range@std@@6B@ DD FLAT:??_Eout_of_range@std@@UAEPAXI@Z ; std::out_of_range::`vftable'
	DD	FLAT:?what@logic_error@std@@UBEPBDXZ
; Function compile flags: /Ogty
CONST	ENDS
;	COMDAT ??0out_of_range@std@@QAE@ABV?$basic_string@DU?$char_traits@D@std@@V?$allocator@D@2@@1@@Z
_TEXT	SEGMENT
__Message$ = 8						; size = 4
??0out_of_range@std@@QAE@ABV?$basic_string@DU?$char_traits@D@std@@V?$allocator@D@2@@1@@Z PROC NEAR ; std::out_of_range::out_of_range, COMDAT
; _this$ = ecx

; 118  : 		{	// construct from message string

  00000	8b 44 24 04	 mov	 eax, DWORD PTR __Message$[esp-4]
  00004	56		 push	 esi
  00005	50		 push	 eax
  00006	8b f1		 mov	 esi, ecx
  00008	e8 00 00 00 00	 call	 ??0logic_error@std@@QAE@ABV?$basic_string@DU?$char_traits@D@std@@V?$allocator@D@2@@1@@Z ; std::logic_error::logic_error
  0000d	c7 06 00 00 00
	00		 mov	 DWORD PTR [esi], OFFSET FLAT:??_7out_of_range@std@@6B@

; 119  : 		}

  00013	8b c6		 mov	 eax, esi
  00015	5e		 pop	 esi
  00016	c2 04 00	 ret	 4
??0out_of_range@std@@QAE@ABV?$basic_string@DU?$char_traits@D@std@@V?$allocator@D@2@@1@@Z ENDP ; std::out_of_range::out_of_range
_TEXT	ENDS
PUBLIC	??1out_of_range@std@@UAE@XZ			; std::out_of_range::~out_of_range
; Function compile flags: /Ogty
;	COMDAT ??_Gout_of_range@std@@UAEPAXI@Z
_TEXT	SEGMENT
___flags$ = 8						; size = 4
??_Gout_of_range@std@@UAEPAXI@Z PROC NEAR		; std::out_of_range::`scalar deleting destructor', COMDAT
; _this$ = ecx
  00000	56		 push	 esi
  00001	8b f1		 mov	 esi, ecx
  00003	e8 00 00 00 00	 call	 ??1out_of_range@std@@UAE@XZ ; std::out_of_range::~out_of_range
  00008	f6 44 24 08 01	 test	 BYTE PTR ___flags$[esp], 1
  0000d	74 09		 je	 SHORT $L98281
  0000f	56		 push	 esi
  00010	e8 00 00 00 00	 call	 ??3@YAXPAX@Z		; operator delete
  00015	83 c4 04	 add	 esp, 4
$L98281:
  00018	8b c6		 mov	 eax, esi
  0001a	5e		 pop	 esi
  0001b	c2 04 00	 ret	 4
??_Gout_of_range@std@@UAEPAXI@Z ENDP			; std::out_of_range::`scalar deleting destructor'
; Function compile flags: /Ogty
_TEXT	ENDS
;	COMDAT ??1out_of_range@std@@UAE@XZ
_TEXT	SEGMENT
??1out_of_range@std@@UAE@XZ PROC NEAR			; std::out_of_range::~out_of_range, COMDAT
; _this$ = ecx

; 122  : 		{}	// destroy the object

  00000	56		 push	 esi
  00001	8b f1		 mov	 esi, ecx
  00003	c7 06 00 00 00
	00		 mov	 DWORD PTR [esi], OFFSET FLAT:??_7logic_error@std@@6B@
  00009	83 7e 24 10	 cmp	 DWORD PTR [esi+36], 16	; 00000010H
  0000d	72 0c		 jb	 SHORT $L98381
  0000f	8b 46 10	 mov	 eax, DWORD PTR [esi+16]
  00012	50		 push	 eax
  00013	e8 00 00 00 00	 call	 ??3@YAXPAX@Z		; operator delete
  00018	83 c4 04	 add	 esp, 4
$L98381:
  0001b	33 c0		 xor	 eax, eax
  0001d	c7 46 24 0f 00
	00 00		 mov	 DWORD PTR [esi+36], 15	; 0000000fH
  00024	89 46 20	 mov	 DWORD PTR [esi+32], eax
  00027	88 46 10	 mov	 BYTE PTR [esi+16], al
  0002a	8b ce		 mov	 ecx, esi
  0002c	5e		 pop	 esi
  0002d	e9 00 00 00 00	 jmp	 ??1exception@@UAE@XZ	; exception::~exception
??1out_of_range@std@@UAE@XZ ENDP			; std::out_of_range::~out_of_range
_TEXT	ENDS
PUBLIC	??0logic_error@std@@QAE@ABV01@@Z		; std::logic_error::logic_error
PUBLIC	__TI3?AVout_of_range@std@@
PUBLIC	__CTA3?AVout_of_range@std@@
PUBLIC	??_R0?AVout_of_range@std@@@8			; std::out_of_range `RTTI Type Descriptor'
PUBLIC	__CT??_R0?AVout_of_range@std@@@8??0out_of_range@std@@QAE@ABV01@@Z40
PUBLIC	??_C@_0BM@NMJKDPPO@invalid?5vector?$DMT?$DO?5subscript?$AA@ ; `string'
PUBLIC	??0out_of_range@std@@QAE@ABV01@@Z		; std::out_of_range::out_of_range
PUBLIC	?_Xran@?$vector@UtagTCASHITEM@@V?$allocator@UtagTCASHITEM@@@std@@@std@@IBEXXZ ; std::vector<tagTCASHITEM,std::allocator<tagTCASHITEM> >::_Xran
PUBLIC	??_R0?AVlogic_error@std@@@8			; std::logic_error `RTTI Type Descriptor'
PUBLIC	__CT??_R0?AVlogic_error@std@@@8??0logic_error@std@@QAE@ABV01@@Z40
PUBLIC	??_R0?AVexception@@@8				; exception `RTTI Type Descriptor'
PUBLIC	__CT??_R0?AVexception@@@8??0exception@@QAE@ABV0@@Z12
EXTRN	??0exception@@QAE@ABV0@@Z:NEAR			; exception::exception
;	COMDAT xdata$x
xdata$x	SEGMENT
$T98507	DD	0ffffffffH
	DD	FLAT:$L98393
$T98504	DD	019930520H
	DD	01H
	DD	FLAT:$T98507
	DD	2 DUP(00H)
	DD	2 DUP(00H)
xdata$x	ENDS
;	COMDAT ??_C@_0BM@NMJKDPPO@invalid?5vector?$DMT?$DO?5subscript?$AA@
CONST	SEGMENT
??_C@_0BM@NMJKDPPO@invalid?5vector?$DMT?$DO?5subscript?$AA@ DB 'invalid v'
	DB	'ector<T> subscript', 00H			; `string'
CONST	ENDS
;	COMDAT __TI3?AVout_of_range@std@@
xdata$x	SEGMENT
__TI3?AVout_of_range@std@@ DD 00H
	DD	FLAT:??1out_of_range@std@@UAE@XZ
	DD	00H
	DD	FLAT:__CTA3?AVout_of_range@std@@
xdata$x	ENDS
;	COMDAT __CTA3?AVout_of_range@std@@
xdata$x	SEGMENT
__CTA3?AVout_of_range@std@@ DD 03H
	DD	FLAT:__CT??_R0?AVout_of_range@std@@@8??0out_of_range@std@@QAE@ABV01@@Z40
	DD	FLAT:__CT??_R0?AVlogic_error@std@@@8??0logic_error@std@@QAE@ABV01@@Z40
	DD	FLAT:__CT??_R0?AVexception@@@8??0exception@@QAE@ABV0@@Z12
xdata$x	ENDS
;	COMDAT __CT??_R0?AVout_of_range@std@@@8??0out_of_range@std@@QAE@ABV01@@Z40
xdata$x	SEGMENT
__CT??_R0?AVout_of_range@std@@@8??0out_of_range@std@@QAE@ABV01@@Z40 DD 00H
	DD	FLAT:??_R0?AVout_of_range@std@@@8
	DD	00H
	DD	0ffffffffH
	ORG $+4
	DD	028H
	DD	FLAT:??0out_of_range@std@@QAE@ABV01@@Z
xdata$x	ENDS
;	COMDAT ??_R0?AVout_of_range@std@@@8
_DATA	SEGMENT
??_R0?AVout_of_range@std@@@8 DD FLAT:??_7type_info@@6B@	; std::out_of_range `RTTI Type Descriptor'
	DD	00H
	DB	'.?AVout_of_range@std@@', 00H
_DATA	ENDS
;	COMDAT __CT??_R0?AVlogic_error@std@@@8??0logic_error@std@@QAE@ABV01@@Z40
xdata$x	SEGMENT
__CT??_R0?AVlogic_error@std@@@8??0logic_error@std@@QAE@ABV01@@Z40 DD 00H
	DD	FLAT:??_R0?AVlogic_error@std@@@8
	DD	00H
	DD	0ffffffffH
	ORG $+4
	DD	028H
	DD	FLAT:??0logic_error@std@@QAE@ABV01@@Z
xdata$x	ENDS
;	COMDAT ??_R0?AVlogic_error@std@@@8
_DATA	SEGMENT
??_R0?AVlogic_error@std@@@8 DD FLAT:??_7type_info@@6B@	; std::logic_error `RTTI Type Descriptor'
	DD	00H
	DB	'.?AVlogic_error@std@@', 00H
_DATA	ENDS
;	COMDAT __CT??_R0?AVexception@@@8??0exception@@QAE@ABV0@@Z12
xdata$x	SEGMENT
__CT??_R0?AVexception@@@8??0exception@@QAE@ABV0@@Z12 DD 00H
	DD	FLAT:??_R0?AVexception@@@8
	DD	00H
	DD	0ffffffffH
	ORG $+4
	DD	0cH
	DD	FLAT:??0exception@@QAE@ABV0@@Z
xdata$x	ENDS
;	COMDAT ??_R0?AVexception@@@8
_DATA	SEGMENT
??_R0?AVexception@@@8 DD FLAT:??_7type_info@@6B@	; exception `RTTI Type Descriptor'
	DD	00H
	DB	'.?AVexception@@', 00H
; Function compile flags: /Ogty
; File c:\program files (x86)\microsoft visual studio .net 2003\vc7\include\vector
_DATA	ENDS
;	COMDAT ?_Xran@?$vector@UtagTCASHITEM@@V?$allocator@UtagTCASHITEM@@@std@@@std@@IBEXXZ
_TEXT	SEGMENT
$T98392 = -80						; size = 28
$T98391 = -52						; size = 40
__$EHRec$ = -12						; size = 12
?_Xran@?$vector@UtagTCASHITEM@@V?$allocator@UtagTCASHITEM@@@std@@@std@@IBEXXZ PROC NEAR ; std::vector<tagTCASHITEM,std::allocator<tagTCASHITEM> >::_Xran, COMDAT
; _this$ = ecx

; 888  : 		{	// report an out_of_range error

  00000	6a ff		 push	 -1
  00002	68 00 00 00 00	 push	 __ehhandler$?_Xran@?$vector@UtagTCASHITEM@@V?$allocator@UtagTCASHITEM@@@std@@@std@@IBEXXZ
  00007	64 a1 00 00 00
	00		 mov	 eax, DWORD PTR fs:__except_list
  0000d	50		 push	 eax
  0000e	64 89 25 00 00
	00 00		 mov	 DWORD PTR fs:__except_list, esp
  00015	83 ec 44	 sub	 esp, 68			; 00000044H

; 889  : 		_THROW(out_of_range, "invalid vector<T> subscript");

  00018	6a 1b		 push	 27			; 0000001bH
  0001a	68 00 00 00 00	 push	 OFFSET FLAT:??_C@_0BM@NMJKDPPO@invalid?5vector?$DMT?$DO?5subscript?$AA@
  0001f	8d 4c 24 08	 lea	 ecx, DWORD PTR $T98392[esp+88]
  00023	c7 44 24 20 0f
	00 00 00	 mov	 DWORD PTR $T98392[esp+112], 15 ; 0000000fH
  0002b	c7 44 24 1c 00
	00 00 00	 mov	 DWORD PTR $T98392[esp+108], 0
  00033	c6 44 24 0c 00	 mov	 BYTE PTR $T98392[esp+92], 0
  00038	e8 00 00 00 00	 call	 ?assign@?$basic_string@DU?$char_traits@D@std@@V?$allocator@D@2@@std@@QAEAAV12@PBDI@Z ; std::basic_string<char,std::char_traits<char>,std::allocator<char> >::assign
  0003d	8d 04 24	 lea	 eax, DWORD PTR $T98392[esp+80]
  00040	50		 push	 eax
  00041	8d 4c 24 20	 lea	 ecx, DWORD PTR $T98391[esp+84]
  00045	c7 44 24 50 00
	00 00 00	 mov	 DWORD PTR __$EHRec$[esp+92], 0
  0004d	e8 00 00 00 00	 call	 ??0logic_error@std@@QAE@ABV?$basic_string@DU?$char_traits@D@std@@V?$allocator@D@2@@1@@Z ; std::logic_error::logic_error
  00052	68 00 00 00 00	 push	 OFFSET FLAT:__TI3?AVout_of_range@std@@
  00057	8d 4c 24 20	 lea	 ecx, DWORD PTR $T98391[esp+84]
  0005b	51		 push	 ecx
  0005c	c7 44 24 24 00
	00 00 00	 mov	 DWORD PTR $T98391[esp+88], OFFSET FLAT:??_7out_of_range@std@@6B@
  00064	e8 00 00 00 00	 call	 __CxxThrowException@8
$L98508:
$L98506:
  00069	cc		 int	 3
_TEXT	ENDS
;	COMDAT text$x
text$x	SEGMENT
$L98393:
  00000	8d 4d b0	 lea	 ecx, DWORD PTR $T98392[ebp]
  00003	e9 00 00 00 00	 jmp	 ??1?$basic_string@DU?$char_traits@D@std@@V?$allocator@D@2@@std@@QAE@XZ ; std::basic_string<char,std::char_traits<char>,std::allocator<char> >::~basic_string<char,std::char_traits<char>,std::allocator<char> >
__ehhandler$?_Xran@?$vector@UtagTCASHITEM@@V?$allocator@UtagTCASHITEM@@@std@@@std@@IBEXXZ:
  00008	b8 00 00 00 00	 mov	 eax, OFFSET FLAT:$T98504
  0000d	e9 00 00 00 00	 jmp	 ___CxxFrameHandler
text$x	ENDS
?_Xran@?$vector@UtagTCASHITEM@@V?$allocator@UtagTCASHITEM@@@std@@@std@@IBEXXZ ENDP ; std::vector<tagTCASHITEM,std::allocator<tagTCASHITEM> >::_Xran
;	COMDAT xdata$x
xdata$x	SEGMENT
$T98613	DD	0ffffffffH
	DD	FLAT:$L98514
$T98611	DD	019930520H
	DD	01H
	DD	FLAT:$T98613
	DD	2 DUP(00H)
	DD	2 DUP(00H)
; Function compile flags: /Ogty
xdata$x	ENDS
;	COMDAT ??0logic_error@std@@QAE@ABV01@@Z
_TEXT	SEGMENT
_this$ = -16						; size = 4
__$EHRec$ = -12						; size = 12
___that$ = 8						; size = 4
??0logic_error@std@@QAE@ABV01@@Z PROC NEAR		; std::logic_error::logic_error, COMDAT
; _this$ = ecx
  00000	6a ff		 push	 -1
  00002	68 00 00 00 00	 push	 __ehhandler$??0logic_error@std@@QAE@ABV01@@Z
  00007	64 a1 00 00 00
	00		 mov	 eax, DWORD PTR fs:__except_list
  0000d	50		 push	 eax
  0000e	64 89 25 00 00
	00 00		 mov	 DWORD PTR fs:__except_list, esp
  00015	51		 push	 ecx
  00016	56		 push	 esi
  00017	57		 push	 edi
  00018	8b 7c 24 1c	 mov	 edi, DWORD PTR ___that$[esp+20]
  0001c	8b f1		 mov	 esi, ecx
  0001e	57		 push	 edi
  0001f	89 74 24 0c	 mov	 DWORD PTR _this$[esp+28], esi
  00023	e8 00 00 00 00	 call	 ??0exception@@QAE@ABV0@@Z ; exception::exception
  00028	33 c0		 xor	 eax, eax
  0002a	6a ff		 push	 -1
  0002c	8d 4e 0c	 lea	 ecx, DWORD PTR [esi+12]
  0002f	c7 06 00 00 00
	00		 mov	 DWORD PTR [esi], OFFSET FLAT:??_7logic_error@std@@6B@
  00035	50		 push	 eax
  00036	83 c7 0c	 add	 edi, 12			; 0000000cH
  00039	c7 41 18 0f 00
	00 00		 mov	 DWORD PTR [ecx+24], 15	; 0000000fH
  00040	89 41 14	 mov	 DWORD PTR [ecx+20], eax
  00043	57		 push	 edi
  00044	89 44 24 20	 mov	 DWORD PTR __$EHRec$[esp+44], eax
  00048	88 41 04	 mov	 BYTE PTR [ecx+4], al
  0004b	e8 00 00 00 00	 call	 ?assign@?$basic_string@DU?$char_traits@D@std@@V?$allocator@D@2@@std@@QAEAAV12@ABV12@II@Z ; std::basic_string<char,std::char_traits<char>,std::allocator<char> >::assign
  00050	8b 4c 24 0c	 mov	 ecx, DWORD PTR __$EHRec$[esp+24]
  00054	5f		 pop	 edi
  00055	8b c6		 mov	 eax, esi
  00057	5e		 pop	 esi
  00058	64 89 0d 00 00
	00 00		 mov	 DWORD PTR fs:__except_list, ecx
  0005f	83 c4 10	 add	 esp, 16			; 00000010H
  00062	c2 04 00	 ret	 4
_TEXT	ENDS
;	COMDAT text$x
text$x	SEGMENT
$L98514:
  00000	8b 4d f0	 mov	 ecx, DWORD PTR _this$[ebp]
  00003	e9 00 00 00 00	 jmp	 ??1exception@@UAE@XZ	; exception::~exception
__ehhandler$??0logic_error@std@@QAE@ABV01@@Z:
  00008	b8 00 00 00 00	 mov	 eax, OFFSET FLAT:$T98611
  0000d	e9 00 00 00 00	 jmp	 ___CxxFrameHandler
text$x	ENDS
??0logic_error@std@@QAE@ABV01@@Z ENDP			; std::logic_error::logic_error
; Function compile flags: /Ogty
;	COMDAT ??0out_of_range@std@@QAE@ABV01@@Z
_TEXT	SEGMENT
___that$ = 8						; size = 4
??0out_of_range@std@@QAE@ABV01@@Z PROC NEAR		; std::out_of_range::out_of_range, COMDAT
; _this$ = ecx
  00000	8b 44 24 04	 mov	 eax, DWORD PTR ___that$[esp-4]
  00004	56		 push	 esi
  00005	50		 push	 eax
  00006	8b f1		 mov	 esi, ecx
  00008	e8 00 00 00 00	 call	 ??0logic_error@std@@QAE@ABV01@@Z
  0000d	c7 06 00 00 00
	00		 mov	 DWORD PTR [esi], OFFSET FLAT:??_7out_of_range@std@@6B@
  00013	8b c6		 mov	 eax, esi
  00015	5e		 pop	 esi
  00016	c2 04 00	 ret	 4
??0out_of_range@std@@QAE@ABV01@@Z ENDP			; std::out_of_range::out_of_range
_TEXT	ENDS
PUBLIC	?_Xran@?$vector@UtagPATCHFILE@@V?$allocator@UtagPATCHFILE@@@std@@@std@@IBEXXZ ; std::vector<tagPATCHFILE,std::allocator<tagPATCHFILE> >::_Xran
;	COMDAT xdata$x
; File c:\program files (x86)\microsoft visual studio .net 2003\vc7\include\stdexcept
xdata$x	SEGMENT
$T98739	DD	0ffffffffH
	DD	FLAT:$L98625
$T98736	DD	019930520H
	DD	01H
	DD	FLAT:$T98739
	DD	2 DUP(00H)
	DD	2 DUP(00H)
; Function compile flags: /Ogty
; File c:\program files (x86)\microsoft visual studio .net 2003\vc7\include\vector
xdata$x	ENDS
;	COMDAT ?_Xran@?$vector@UtagPATCHFILE@@V?$allocator@UtagPATCHFILE@@@std@@@std@@IBEXXZ
_TEXT	SEGMENT
$T98624 = -80						; size = 28
$T98623 = -52						; size = 40
__$EHRec$ = -12						; size = 12
?_Xran@?$vector@UtagPATCHFILE@@V?$allocator@UtagPATCHFILE@@@std@@@std@@IBEXXZ PROC NEAR ; std::vector<tagPATCHFILE,std::allocator<tagPATCHFILE> >::_Xran, COMDAT
; _this$ = ecx

; 888  : 		{	// report an out_of_range error

  00000	6a ff		 push	 -1
  00002	68 00 00 00 00	 push	 __ehhandler$?_Xran@?$vector@UtagPATCHFILE@@V?$allocator@UtagPATCHFILE@@@std@@@std@@IBEXXZ
  00007	64 a1 00 00 00
	00		 mov	 eax, DWORD PTR fs:__except_list
  0000d	50		 push	 eax
  0000e	64 89 25 00 00
	00 00		 mov	 DWORD PTR fs:__except_list, esp
  00015	83 ec 44	 sub	 esp, 68			; 00000044H

; 889  : 		_THROW(out_of_range, "invalid vector<T> subscript");

  00018	6a 1b		 push	 27			; 0000001bH
  0001a	68 00 00 00 00	 push	 OFFSET FLAT:??_C@_0BM@NMJKDPPO@invalid?5vector?$DMT?$DO?5subscript?$AA@
  0001f	8d 4c 24 08	 lea	 ecx, DWORD PTR $T98624[esp+88]
  00023	c7 44 24 20 0f
	00 00 00	 mov	 DWORD PTR $T98624[esp+112], 15 ; 0000000fH
  0002b	c7 44 24 1c 00
	00 00 00	 mov	 DWORD PTR $T98624[esp+108], 0
  00033	c6 44 24 0c 00	 mov	 BYTE PTR $T98624[esp+92], 0
  00038	e8 00 00 00 00	 call	 ?assign@?$basic_string@DU?$char_traits@D@std@@V?$allocator@D@2@@std@@QAEAAV12@PBDI@Z ; std::basic_string<char,std::char_traits<char>,std::allocator<char> >::assign
  0003d	8d 04 24	 lea	 eax, DWORD PTR $T98624[esp+80]
  00040	50		 push	 eax
  00041	8d 4c 24 20	 lea	 ecx, DWORD PTR $T98623[esp+84]
  00045	c7 44 24 50 00
	00 00 00	 mov	 DWORD PTR __$EHRec$[esp+92], 0
  0004d	e8 00 00 00 00	 call	 ??0logic_error@std@@QAE@ABV?$basic_string@DU?$char_traits@D@std@@V?$allocator@D@2@@1@@Z ; std::logic_error::logic_error
  00052	68 00 00 00 00	 push	 OFFSET FLAT:__TI3?AVout_of_range@std@@
  00057	8d 4c 24 20	 lea	 ecx, DWORD PTR $T98623[esp+84]
  0005b	51		 push	 ecx
  0005c	c7 44 24 24 00
	00 00 00	 mov	 DWORD PTR $T98623[esp+88], OFFSET FLAT:??_7out_of_range@std@@6B@
  00064	e8 00 00 00 00	 call	 __CxxThrowException@8
$L98740:
$L98738:
  00069	cc		 int	 3
_TEXT	ENDS
;	COMDAT text$x
text$x	SEGMENT
$L98625:
  00000	8d 4d b0	 lea	 ecx, DWORD PTR $T98624[ebp]
  00003	e9 00 00 00 00	 jmp	 ??1?$basic_string@DU?$char_traits@D@std@@V?$allocator@D@2@@std@@QAE@XZ ; std::basic_string<char,std::char_traits<char>,std::allocator<char> >::~basic_string<char,std::char_traits<char>,std::allocator<char> >
__ehhandler$?_Xran@?$vector@UtagPATCHFILE@@V?$allocator@UtagPATCHFILE@@@std@@@std@@IBEXXZ:
  00008	b8 00 00 00 00	 mov	 eax, OFFSET FLAT:$T98736
  0000d	e9 00 00 00 00	 jmp	 ___CxxFrameHandler
text$x	ENDS
?_Xran@?$vector@UtagPATCHFILE@@V?$allocator@UtagPATCHFILE@@@std@@@std@@IBEXXZ ENDP ; std::vector<tagPATCHFILE,std::allocator<tagPATCHFILE> >::_Xran
PUBLIC	?at@?$vector@UtagTCASHITEM@@V?$allocator@UtagTCASHITEM@@@std@@@std@@QAEAAUtagTCASHITEM@@I@Z ; std::vector<tagTCASHITEM,std::allocator<tagTCASHITEM> >::at
; Function compile flags: /Ogty
;	COMDAT ?at@?$vector@UtagTCASHITEM@@V?$allocator@UtagTCASHITEM@@@std@@@std@@QAEAAUtagTCASHITEM@@I@Z
_TEXT	SEGMENT
__Pos$ = 8						; size = 4
?at@?$vector@UtagTCASHITEM@@V?$allocator@UtagTCASHITEM@@@std@@@std@@QAEAAUtagTCASHITEM@@I@Z PROC NEAR ; std::vector<tagTCASHITEM,std::allocator<tagTCASHITEM> >::at, COMDAT
; _this$ = ecx

; 543  : 		if (size() <= _Pos)

  00000	8b 51 04	 mov	 edx, DWORD PTR [ecx+4]
  00003	85 d2		 test	 edx, edx
  00005	56		 push	 esi
  00006	74 10		 je	 SHORT $L98788
  00008	8b 41 08	 mov	 eax, DWORD PTR [ecx+8]
  0000b	8b 74 24 08	 mov	 esi, DWORD PTR __Pos$[esp]
  0000f	2b c2		 sub	 eax, edx
  00011	c1 f8 03	 sar	 eax, 3
  00014	3b c6		 cmp	 eax, esi
  00016	77 05		 ja	 SHORT $L91910
$L98788:

; 544  : 			_Xran();

  00018	e8 00 00 00 00	 call	 ?_Xran@?$vector@UtagTCASHITEM@@V?$allocator@UtagTCASHITEM@@@std@@@std@@IBEXXZ ; std::vector<tagTCASHITEM,std::allocator<tagTCASHITEM> >::_Xran
$L98790:
$L91910:

; 545  : 		return (*(begin() + _Pos));

  0001d	8d 04 f2	 lea	 eax, DWORD PTR [edx+esi*8]
  00020	5e		 pop	 esi

; 546  : 		}

  00021	c2 04 00	 ret	 4
$L98789:
?at@?$vector@UtagTCASHITEM@@V?$allocator@UtagTCASHITEM@@@std@@@std@@QAEAAUtagTCASHITEM@@I@Z ENDP ; std::vector<tagTCASHITEM,std::allocator<tagTCASHITEM> >::at
_TEXT	ENDS
PUBLIC	?at@?$vector@UtagPATCHFILE@@V?$allocator@UtagPATCHFILE@@@std@@@std@@QAEAAUtagPATCHFILE@@I@Z ; std::vector<tagPATCHFILE,std::allocator<tagPATCHFILE> >::at
; Function compile flags: /Ogty
;	COMDAT ?at@?$vector@UtagPATCHFILE@@V?$allocator@UtagPATCHFILE@@@std@@@std@@QAEAAUtagPATCHFILE@@I@Z
_TEXT	SEGMENT
__Pos$ = 8						; size = 4
?at@?$vector@UtagPATCHFILE@@V?$allocator@UtagPATCHFILE@@@std@@@std@@QAEAAUtagPATCHFILE@@I@Z PROC NEAR ; std::vector<tagPATCHFILE,std::allocator<tagPATCHFILE> >::at, COMDAT
; _this$ = ecx

; 542  : 		{	// subscript mutable sequence with checking

  00000	56		 push	 esi

; 543  : 		if (size() <= _Pos)

  00001	8b 71 04	 mov	 esi, DWORD PTR [ecx+4]
  00004	85 f6		 test	 esi, esi
  00006	74 10		 je	 SHORT $L98836
  00008	8b 41 08	 mov	 eax, DWORD PTR [ecx+8]
  0000b	8b 54 24 08	 mov	 edx, DWORD PTR __Pos$[esp]
  0000f	2b c6		 sub	 eax, esi
  00011	c1 f8 04	 sar	 eax, 4
  00014	3b c2		 cmp	 eax, edx
  00016	77 05		 ja	 SHORT $L92033
$L98836:

; 544  : 			_Xran();

  00018	e8 00 00 00 00	 call	 ?_Xran@?$vector@UtagPATCHFILE@@V?$allocator@UtagPATCHFILE@@@std@@@std@@IBEXXZ ; std::vector<tagPATCHFILE,std::allocator<tagPATCHFILE> >::_Xran
$L98838:
$L92033:

; 545  : 		return (*(begin() + _Pos));

  0001d	c1 e2 04	 shl	 edx, 4
  00020	03 d6		 add	 edx, esi
  00022	8b c2		 mov	 eax, edx
  00024	5e		 pop	 esi

; 546  : 		}

  00025	c2 04 00	 ret	 4
$L98837:
?at@?$vector@UtagPATCHFILE@@V?$allocator@UtagPATCHFILE@@@std@@@std@@QAEAAUtagPATCHFILE@@I@Z ENDP ; std::vector<tagPATCHFILE,std::allocator<tagPATCHFILE> >::at
_TEXT	ENDS
PUBLIC	?SendCT_CASHITEMLIST_ACK@CTManager@@QAEXPAV?$vector@UtagTCASHITEM@@V?$allocator@UtagTCASHITEM@@@std@@@std@@@Z ; CTManager::SendCT_CASHITEMLIST_ACK
;	COMDAT xdata$x
xdata$x	SEGMENT
$T99014	DD	0ffffffffH
	DD	FLAT:$L98846
$T99005	DD	019930520H
	DD	01H
	DD	FLAT:$T99014
	DD	2 DUP(00H)
	DD	2 DUP(00H)
; Function compile flags: /Ogty
; File c:\users\pierr\desktop\4story - oldschool\sources\tserver\tcontrolsvr\sender.cpp
xdata$x	ENDS
;	COMDAT ?SendCT_CASHITEMLIST_ACK@CTManager@@QAEXPAV?$vector@UtagTCASHITEM@@V?$allocator@UtagTCASHITEM@@@std@@@std@@@Z
_TEXT	SEGMENT
_this$ = -20						; size = 4
$T98843 = -16						; size = 4
__$EHRec$ = -12						; size = 12
_pvCashItem$ = 8					; size = 4
?SendCT_CASHITEMLIST_ACK@CTManager@@QAEXPAV?$vector@UtagTCASHITEM@@V?$allocator@UtagTCASHITEM@@@std@@@std@@@Z PROC NEAR ; CTManager::SendCT_CASHITEMLIST_ACK, COMDAT
; _this$ = ecx

; 298  : {

  00000	6a ff		 push	 -1
  00002	68 00 00 00 00	 push	 __ehhandler$?SendCT_CASHITEMLIST_ACK@CTManager@@QAEXPAV?$vector@UtagTCASHITEM@@V?$allocator@UtagTCASHITEM@@@std@@@std@@@Z
  00007	64 a1 00 00 00
	00		 mov	 eax, DWORD PTR fs:__except_list
  0000d	50		 push	 eax
  0000e	64 89 25 00 00
	00 00		 mov	 DWORD PTR fs:__except_list, esp
  00015	83 ec 08	 sub	 esp, 8
  00018	53		 push	 ebx
  00019	55		 push	 ebp
  0001a	56		 push	 esi
  0001b	57		 push	 edi

; 299  : 	CPacket* pMsg = new CPacket();

  0001c	6a 1c		 push	 28			; 0000001cH
  0001e	89 4c 24 14	 mov	 DWORD PTR _this$[esp+40], ecx
  00022	e8 00 00 00 00	 call	 ??2@YAPAXI@Z		; operator new
  00027	83 c4 04	 add	 esp, 4
  0002a	89 44 24 14	 mov	 DWORD PTR $T98843[esp+36], eax
  0002e	33 f6		 xor	 esi, esi
  00030	3b c6		 cmp	 eax, esi
  00032	89 74 24 20	 mov	 DWORD PTR __$EHRec$[esp+44], esi
  00036	74 0b		 je	 SHORT $L98844
  00038	8b c8		 mov	 ecx, eax
  0003a	e8 00 00 00 00	 call	 ??0CPacket@@QAE@XZ	; CPacket::CPacket
  0003f	8b e8		 mov	 ebp, eax
  00041	eb 02		 jmp	 SHORT $L98845
$L98844:
  00043	33 ed		 xor	 ebp, ebp
$L98845:

; 300  : 	pMsg->SetID(CT_CASHITEMLIST_ACK)
; 301  : 		<< (WORD)pvCashItem->size();

  00045	8b 5c 24 28	 mov	 ebx, DWORD PTR _pvCashItem$[esp+32]
  00049	8b 4b 04	 mov	 ecx, DWORD PTR [ebx+4]
  0004c	3b ce		 cmp	 ecx, esi
  0004e	c7 44 24 20 ff
	ff ff ff	 mov	 DWORD PTR __$EHRec$[esp+44], -1
  00056	75 04		 jne	 SHORT $L98851
  00058	33 c0		 xor	 eax, eax
  0005a	eb 08		 jmp	 SHORT $L98852
$L98851:
  0005c	8b 43 08	 mov	 eax, DWORD PTR [ebx+8]
  0005f	2b c1		 sub	 eax, ecx
  00061	c1 f8 03	 sar	 eax, 3
$L98852:
  00064	50		 push	 eax
  00065	68 6c 60 00 00	 push	 24684			; 0000606cH
  0006a	8b cd		 mov	 ecx, ebp
  0006c	e8 00 00 00 00	 call	 ?SetID@CPacket@@QAEAAV1@G@Z ; CPacket::SetID
  00071	8b c8		 mov	 ecx, eax
  00073	e8 00 00 00 00	 call	 ??6CPacket@@QAEAAV0@G@Z	; CPacket::operator<<
$L91473:

; 302  : 
; 303  : 	for(WORD i = 0; i < (WORD)pvCashItem->size(); i++)

  00078	8b 53 04	 mov	 edx, DWORD PTR [ebx+4]
  0007b	85 d2		 test	 edx, edx
  0007d	74 38		 je	 SHORT $L91475
  0007f	8b 43 08	 mov	 eax, DWORD PTR [ebx+8]
  00082	2b c2		 sub	 eax, edx
  00084	c1 f8 03	 sar	 eax, 3
  00087	66 3b f0	 cmp	 si, ax
  0008a	73 2b		 jae	 SHORT $L91475

; 304  : 	{
; 305  : 		(*pMsg)
; 306  : 			<< pvCashItem->at(i).m_wID
; 307  : 			<< pvCashItem->at(i).m_strName;

  0008c	0f b7 ce	 movzx	 ecx, si
  0008f	3b c1		 cmp	 eax, ecx
  00091	76 1d		 jbe	 SHORT $L99007
  00093	8b 7c ca 04	 mov	 edi, DWORD PTR [edx+ecx*8+4]
  00097	33 c0		 xor	 eax, eax
  00099	66 8b 04 ca	 mov	 ax, WORD PTR [edx+ecx*8]
  0009d	57		 push	 edi
  0009e	8b cd		 mov	 ecx, ebp
  000a0	50		 push	 eax
  000a1	e8 00 00 00 00	 call	 ??6CPacket@@QAEAAV0@G@Z	; CPacket::operator<<
  000a6	8b c8		 mov	 ecx, eax
  000a8	e8 00 00 00 00	 call	 ??6CPacket@@QAEAAV0@PBD@Z ; CPacket::operator<<
  000ad	46		 inc	 esi
  000ae	eb c8		 jmp	 SHORT $L91473
$L99007:
  000b0	8b cb		 mov	 ecx, ebx
  000b2	e8 00 00 00 00	 call	 ?_Xran@?$vector@UtagTCASHITEM@@V?$allocator@UtagTCASHITEM@@@std@@@std@@IBEXXZ ; std::vector<tagTCASHITEM,std::allocator<tagTCASHITEM> >::_Xran
$L99015:
$L91475:

; 308  : 	}
; 309  : 	
; 310  : 	Say(pMsg);

  000b7	8b 4c 24 10	 mov	 ecx, DWORD PTR _this$[esp+36]
  000bb	8b 11		 mov	 edx, DWORD PTR [ecx]
  000bd	55		 push	 ebp
  000be	ff 12		 call	 DWORD PTR [edx]

; 311  : }

  000c0	8b 4c 24 18	 mov	 ecx, DWORD PTR __$EHRec$[esp+36]
  000c4	5f		 pop	 edi
  000c5	5e		 pop	 esi
  000c6	5d		 pop	 ebp
  000c7	5b		 pop	 ebx
  000c8	64 89 0d 00 00
	00 00		 mov	 DWORD PTR fs:__except_list, ecx
  000cf	83 c4 14	 add	 esp, 20			; 00000014H
  000d2	c2 04 00	 ret	 4
$L99013:
_TEXT	ENDS
;	COMDAT text$x
text$x	SEGMENT
$L98846:
  00000	8b 45 f0	 mov	 eax, DWORD PTR $T98843[ebp]
  00003	50		 push	 eax
  00004	e8 00 00 00 00	 call	 ??3@YAXPAX@Z		; operator delete
  00009	59		 pop	 ecx
  0000a	c3		 ret	 0
__ehhandler$?SendCT_CASHITEMLIST_ACK@CTManager@@QAEXPAV?$vector@UtagTCASHITEM@@V?$allocator@UtagTCASHITEM@@@std@@@std@@@Z:
  0000b	b8 00 00 00 00	 mov	 eax, OFFSET FLAT:$T99005
  00010	e9 00 00 00 00	 jmp	 ___CxxFrameHandler
text$x	ENDS
?SendCT_CASHITEMLIST_ACK@CTManager@@QAEXPAV?$vector@UtagTCASHITEM@@V?$allocator@UtagTCASHITEM@@@std@@@std@@@Z ENDP ; CTManager::SendCT_CASHITEMLIST_ACK
PUBLIC	?SendCT_PREVERSIONTABLE_ACK@CTManager@@QAEXPAV?$vector@UtagPATCHFILE@@V?$allocator@UtagPATCHFILE@@@std@@@std@@@Z ; CTManager::SendCT_PREVERSIONTABLE_ACK
;	COMDAT xdata$x
; File c:\program files (x86)\microsoft visual studio .net 2003\vc7\atlmfc\include\atlsimpstr.h
xdata$x	SEGMENT
$T99202	DD	0ffffffffH
	DD	FLAT:$L99025
	DD	0ffffffffH
	DD	FLAT:$L99026
$T99195	DD	019930520H
	DD	02H
	DD	FLAT:$T99202
	DD	2 DUP(00H)
	DD	2 DUP(00H)
; Function compile flags: /Ogty
; File c:\users\pierr\desktop\4story - oldschool\sources\tserver\tcontrolsvr\sender.cpp
xdata$x	ENDS
;	COMDAT ?SendCT_PREVERSIONTABLE_ACK@CTManager@@QAEXPAV?$vector@UtagPATCHFILE@@V?$allocator@UtagPATCHFILE@@@std@@@std@@@Z
_TEXT	SEGMENT
_this$ = -36						; size = 4
$T99022 = -32						; size = 4
_pPat$91768 = -28					; size = 16
__$EHRec$ = -12						; size = 12
_pList$ = 8						; size = 4
?SendCT_PREVERSIONTABLE_ACK@CTManager@@QAEXPAV?$vector@UtagPATCHFILE@@V?$allocator@UtagPATCHFILE@@@std@@@std@@@Z PROC NEAR ; CTManager::SendCT_PREVERSIONTABLE_ACK, COMDAT
; _this$ = ecx

; 348  : {

  00000	6a ff		 push	 -1
  00002	68 00 00 00 00	 push	 __ehhandler$?SendCT_PREVERSIONTABLE_ACK@CTManager@@QAEXPAV?$vector@UtagPATCHFILE@@V?$allocator@UtagPATCHFILE@@@std@@@std@@@Z
  00007	64 a1 00 00 00
	00		 mov	 eax, DWORD PTR fs:__except_list
  0000d	50		 push	 eax
  0000e	64 89 25 00 00
	00 00		 mov	 DWORD PTR fs:__except_list, esp
  00015	83 ec 18	 sub	 esp, 24			; 00000018H
  00018	53		 push	 ebx
  00019	56		 push	 esi
  0001a	57		 push	 edi

; 349  : 	CPacket* pMsg = new CPacket();

  0001b	6a 1c		 push	 28			; 0000001cH
  0001d	89 4c 24 10	 mov	 DWORD PTR _this$[esp+52], ecx
  00021	e8 00 00 00 00	 call	 ??2@YAPAXI@Z		; operator new
  00026	83 c4 04	 add	 esp, 4
  00029	89 44 24 10	 mov	 DWORD PTR $T99022[esp+48], eax
  0002d	33 ff		 xor	 edi, edi
  0002f	3b c7		 cmp	 eax, edi
  00031	89 7c 24 2c	 mov	 DWORD PTR __$EHRec$[esp+56], edi
  00035	74 0b		 je	 SHORT $L99023
  00037	8b c8		 mov	 ecx, eax
  00039	e8 00 00 00 00	 call	 ??0CPacket@@QAE@XZ	; CPacket::CPacket
  0003e	8b f0		 mov	 esi, eax
  00040	eb 02		 jmp	 SHORT $L99024
$L99023:
  00042	33 f6		 xor	 esi, esi
$L99024:

; 350  : 	pMsg->SetID(CT_PREVERSIONTABLE_ACK)
; 351  : 		<< (WORD)pList->size();

  00044	8b 5c 24 34	 mov	 ebx, DWORD PTR _pList$[esp+44]
  00048	8b 4b 04	 mov	 ecx, DWORD PTR [ebx+4]
  0004b	3b cf		 cmp	 ecx, edi
  0004d	c7 44 24 2c ff
	ff ff ff	 mov	 DWORD PTR __$EHRec$[esp+56], -1
  00055	75 04		 jne	 SHORT $L99031
  00057	33 c0		 xor	 eax, eax
  00059	eb 08		 jmp	 SHORT $L99032
$L99031:
  0005b	8b 43 08	 mov	 eax, DWORD PTR [ebx+8]
  0005e	2b c1		 sub	 eax, ecx
  00060	c1 f8 04	 sar	 eax, 4
$L99032:
  00063	50		 push	 eax
  00064	68 78 60 00 00	 push	 24696			; 00006078H
  00069	8b ce		 mov	 ecx, esi
  0006b	e8 00 00 00 00	 call	 ?SetID@CPacket@@QAEAAV1@G@Z ; CPacket::SetID
  00070	8b c8		 mov	 ecx, eax
  00072	e8 00 00 00 00	 call	 ??6CPacket@@QAEAAV0@G@Z	; CPacket::operator<<
  00077	eb 07 8d a4 24
	00 00 00 00	 npad	 9
$L91765:

; 352  : 
; 353  : 	for(WORD i = 0; i < (WORD)pList->size(); i++)

  00080	8b 53 04	 mov	 edx, DWORD PTR [ebx+4]
  00083	85 d2		 test	 edx, edx
  00085	0f 84 b4 00 00
	00		 je	 $L91767
  0008b	8b 4b 08	 mov	 ecx, DWORD PTR [ebx+8]
  0008e	2b ca		 sub	 ecx, edx
  00090	c1 f9 04	 sar	 ecx, 4
  00093	66 3b f9	 cmp	 di, cx
  00096	0f 83 a3 00 00
	00		 jae	 $L91767

; 354  : 	{
; 355  : 		PATCHFILE pPat = pList->at(i);

  0009c	0f b7 c7	 movzx	 eax, di
  0009f	3b c8		 cmp	 ecx, eax
  000a1	0f 86 91 00 00
	00		 jbe	 $L99197
  000a7	c1 e0 04	 shl	 eax, 4
  000aa	03 c2		 add	 eax, edx
  000ac	50		 push	 eax
  000ad	8d 4c 24 18	 lea	 ecx, DWORD PTR _pPat$91768[esp+52]
  000b1	e8 00 00 00 00	 call	 ??0tagPATCHFILE@@QAE@ABU0@@Z

; 356  : 		(*pMsg)
; 357  : 			<< pPat.m_dwBetaVer
; 358  : 			<< pPat.m_strPath
; 359  : 			<< pPat.m_strName
; 360  : 			<< pPat.m_dwSize;

  000b6	8b 44 24 1c	 mov	 eax, DWORD PTR _pPat$91768[esp+56]
  000ba	8b 4c 24 18	 mov	 ecx, DWORD PTR _pPat$91768[esp+52]
  000be	8b 54 24 14	 mov	 edx, DWORD PTR _pPat$91768[esp+48]
  000c2	50		 push	 eax
  000c3	8b 44 24 24	 mov	 eax, DWORD PTR _pPat$91768[esp+64]
  000c7	51		 push	 ecx
  000c8	52		 push	 edx
  000c9	50		 push	 eax
  000ca	8b ce		 mov	 ecx, esi
  000cc	c7 44 24 3c 01
	00 00 00	 mov	 DWORD PTR __$EHRec$[esp+72], 1
  000d4	e8 00 00 00 00	 call	 ??6CPacket@@QAEAAV0@K@Z	; CPacket::operator<<
  000d9	8b c8		 mov	 ecx, eax
  000db	e8 00 00 00 00	 call	 ??6CPacket@@QAEAAV0@PBD@Z ; CPacket::operator<<
  000e0	8b c8		 mov	 ecx, eax
  000e2	e8 00 00 00 00	 call	 ??6CPacket@@QAEAAV0@PBD@Z ; CPacket::operator<<
  000e7	8b c8		 mov	 ecx, eax
  000e9	e8 00 00 00 00	 call	 ??6CPacket@@QAEAAV0@K@Z	; CPacket::operator<<

; 361  : 	}

  000ee	8b 44 24 18	 mov	 eax, DWORD PTR _pPat$91768[esp+52]
  000f2	83 c0 f0	 add	 eax, -16		; fffffff0H
  000f5	c7 44 24 2c ff
	ff ff ff	 mov	 DWORD PTR __$EHRec$[esp+56], -1
  000fd	8d 48 0c	 lea	 ecx, DWORD PTR [eax+12]
  00100	83 ca ff	 or	 edx, -1
  00103	f0 0f c1 11	 lock	  xadd	 DWORD PTR [ecx], edx
  00107	4a		 dec	 edx
  00108	85 d2		 test	 edx, edx
  0010a	7f 08		 jg	 SHORT $L99182
  0010c	8b 08		 mov	 ecx, DWORD PTR [eax]
  0010e	8b 11		 mov	 edx, DWORD PTR [ecx]
  00110	50		 push	 eax
  00111	ff 52 04	 call	 DWORD PTR [edx+4]
$L99182:
  00114	8b 44 24 14	 mov	 eax, DWORD PTR _pPat$91768[esp+48]
  00118	83 c0 f0	 add	 eax, -16		; fffffff0H
  0011b	8d 48 0c	 lea	 ecx, DWORD PTR [eax+12]
  0011e	83 ca ff	 or	 edx, -1
  00121	f0 0f c1 11	 lock	  xadd	 DWORD PTR [ecx], edx
  00125	4a		 dec	 edx
  00126	85 d2		 test	 edx, edx
  00128	7f 08		 jg	 SHORT $L91766
  0012a	8b 08		 mov	 ecx, DWORD PTR [eax]
  0012c	8b 11		 mov	 edx, DWORD PTR [ecx]
  0012e	50		 push	 eax
  0012f	ff 52 04	 call	 DWORD PTR [edx+4]
$L91766:

; 352  : 
; 353  : 	for(WORD i = 0; i < (WORD)pList->size(); i++)

  00132	47		 inc	 edi
  00133	e9 48 ff ff ff	 jmp	 $L91765
$L99197:

; 354  : 	{
; 355  : 		PATCHFILE pPat = pList->at(i);

  00138	8b cb		 mov	 ecx, ebx
  0013a	e8 00 00 00 00	 call	 ?_Xran@?$vector@UtagPATCHFILE@@V?$allocator@UtagPATCHFILE@@@std@@@std@@IBEXXZ ; std::vector<tagPATCHFILE,std::allocator<tagPATCHFILE> >::_Xran
$L99203:
$L91767:

; 362  : 	
; 363  : 	Say(pMsg);

  0013f	8b 4c 24 0c	 mov	 ecx, DWORD PTR _this$[esp+48]
  00143	8b 01		 mov	 eax, DWORD PTR [ecx]
  00145	56		 push	 esi
  00146	ff 10		 call	 DWORD PTR [eax]

; 364  : }

  00148	8b 4c 24 24	 mov	 ecx, DWORD PTR __$EHRec$[esp+48]
  0014c	5f		 pop	 edi
  0014d	5e		 pop	 esi
  0014e	5b		 pop	 ebx
  0014f	64 89 0d 00 00
	00 00		 mov	 DWORD PTR fs:__except_list, ecx
  00156	83 c4 24	 add	 esp, 36			; 00000024H
  00159	c2 04 00	 ret	 4
$L99201:
_TEXT	ENDS
;	COMDAT text$x
text$x	SEGMENT
$L99025:
  00000	8b 45 e0	 mov	 eax, DWORD PTR $T99022[ebp]
  00003	50		 push	 eax
  00004	e8 00 00 00 00	 call	 ??3@YAXPAX@Z		; operator delete
  00009	59		 pop	 ecx
  0000a	c3		 ret	 0
$L99026:
  0000b	8d 4d e4	 lea	 ecx, DWORD PTR _pPat$91768[ebp]
  0000e	e9 00 00 00 00	 jmp	 ??1tagPATCHFILE@@QAE@XZ
__ehhandler$?SendCT_PREVERSIONTABLE_ACK@CTManager@@QAEXPAV?$vector@UtagPATCHFILE@@V?$allocator@UtagPATCHFILE@@@std@@@std@@@Z:
  00013	b8 00 00 00 00	 mov	 eax, OFFSET FLAT:$T99195
  00018	e9 00 00 00 00	 jmp	 ___CxxFrameHandler
text$x	ENDS
?SendCT_PREVERSIONTABLE_ACK@CTManager@@QAEXPAV?$vector@UtagPATCHFILE@@V?$allocator@UtagPATCHFILE@@@std@@@std@@@Z ENDP ; CTManager::SendCT_PREVERSIONTABLE_ACK
END
